
./patricia_O3:     file format elf32-littleriscv


Disassembly of section .text:

000100b4 <exit>:
   100b4:	ff010113          	addi	sp,sp,-16
   100b8:	00000593          	addi	a1,zero,0
   100bc:	00812423          	sw	s0,8(sp)
   100c0:	00112623          	sw	ra,12(sp)
   100c4:	00050413          	addi	s0,a0,0
   100c8:	118030ef          	jal	ra,131e0 <__call_exitprocs>
   100cc:	8841a783          	lw	a5,-1916(gp) # 6d73c <__stdio_exit_handler>
   100d0:	00078463          	beq	a5,zero,100d8 <exit+0x24>
   100d4:	000780e7          	jalr	ra,0(a5)
   100d8:	00040513          	addi	a0,s0,0
   100dc:	1b40e0ef          	jal	ra,1e290 <_exit>

000100e0 <main>:
   100e0:	8801a783          	lw	a5,-1920(gp) # 6d738 <node_count>
   100e4:	00003737          	lui	a4,0x3
   100e8:	edf70713          	addi	a4,a4,-289 # 2edf <exit-0xd1d5>
   100ec:	6af74863          	blt	a4,a5,1079c <main+0x6bc>
   100f0:	000b46b7          	lui	a3,0xb4
   100f4:	f8010113          	addi	sp,sp,-128
   100f8:	c8068693          	addi	a3,a3,-896 # b3c80 <static_nodes>
   100fc:	00d12823          	sw	a3,16(sp)
   10100:	07212823          	sw	s2,112(sp)
   10104:	87c1a603          	lw	a2,-1924(gp) # 6d734 <mask_count>
   10108:	00279913          	slli	s2,a5,0x2
   1010c:	01012683          	lw	a3,16(sp)
   10110:	00f90933          	add	s2,s2,a5
   10114:	00291913          	slli	s2,s2,0x2
   10118:	01268933          	add	s2,a3,s2
   1011c:	06112e23          	sw	ra,124(sp)
   10120:	00178693          	addi	a3,a5,1
   10124:	00092023          	sw	zero,0(s2)
   10128:	00092223          	sw	zero,4(s2)
   1012c:	00092423          	sw	zero,8(s2)
   10130:	00092623          	sw	zero,12(s2)
   10134:	00092823          	sw	zero,16(s2)
   10138:	88d1a023          	sw	a3,-1920(gp) # 6d738 <node_count>
   1013c:	66c74463          	blt	a4,a2,107a4 <main+0x6c4>
   10140:	0009c6b7          	lui	a3,0x9c
   10144:	58068693          	addi	a3,a3,1408 # 9c580 <static_masks>
   10148:	02d12623          	sw	a3,44(sp)
   1014c:	02c12503          	lw	a0,44(sp)
   10150:	00361693          	slli	a3,a2,0x3
   10154:	8781a583          	lw	a1,-1928(gp) # 6d730 <data_count>
   10158:	00d506b3          	add	a3,a0,a3
   1015c:	00160613          	addi	a2,a2,1
   10160:	00d92223          	sw	a3,4(s2)
   10164:	0006a023          	sw	zero,0(a3)
   10168:	0006a223          	sw	zero,4(a3)
   1016c:	86c1ae23          	sw	a2,-1924(gp) # 6d734 <mask_count>
   10170:	54b74263          	blt	a4,a1,106b4 <main+0x5d4>
   10174:	01400713          	addi	a4,zero,20
   10178:	02e787b3          	mul	a5,a5,a4
   1017c:	0006d737          	lui	a4,0x6d
   10180:	78070713          	addi	a4,a4,1920 # 6d780 <static_data>
   10184:	02e12823          	sw	a4,48(sp)
   10188:	03012883          	lw	a7,48(sp)
   1018c:	00459713          	slli	a4,a1,0x4
   10190:	05712e23          	sw	s7,92(sp)
   10194:	00e88733          	add	a4,a7,a4
   10198:	01012883          	lw	a7,16(sp)
   1019c:	00062bb7          	lui	s7,0x62
   101a0:	0000b637          	lui	a2,0xb
   101a4:	07312623          	sw	s3,108(sp)
   101a8:	06812c23          	sw	s0,120(sp)
   101ac:	06912a23          	sw	s1,116(sp)
   101b0:	07412423          	sw	s4,104(sp)
   101b4:	07512223          	sw	s5,100(sp)
   101b8:	07612023          	sw	s6,96(sp)
   101bc:	05812c23          	sw	s8,88(sp)
   101c0:	05912a23          	sw	s9,84(sp)
   101c4:	05a12823          	sw	s10,80(sp)
   101c8:	05b12623          	sw	s11,76(sp)
   101cc:	b58b8b93          	addi	s7,s7,-1192 # 61b58 <test_data>
   101d0:	a2860613          	addi	a2,a2,-1496 # aa28 <exit-0x568c>
   101d4:	00f887b3          	add	a5,a7,a5
   101d8:	00100513          	addi	a0,zero,1
   101dc:	00e6a223          	sw	a4,4(a3)
   101e0:	00070023          	sb	zero,0(a4)
   101e4:	00cb8733          	add	a4,s7,a2
   101e8:	00a585b3          	add	a1,a1,a0
   101ec:	0127a823          	sw	s2,16(a5)
   101f0:	0127a623          	sw	s2,12(a5)
   101f4:	00a78423          	sb	a0,8(a5)
   101f8:	02e12e23          	sw	a4,60(sp)
   101fc:	0006d737          	lui	a4,0x6d
   10200:	6b872683          	lw	a3,1720(a4) # 6d6b8 <__SDATA_BEGIN__>
   10204:	86b1ac23          	sw	a1,-1928(gp) # 6d730 <data_count>
   10208:	6bc72703          	lw	a4,1724(a4)
   1020c:	80c1a803          	lw	a6,-2036(gp) # 6d6c4 <__SDATA_BEGIN__+0xc>
   10210:	8081a783          	lw	a5,-2040(gp) # 6d6c0 <__SDATA_BEGIN__+0x8>
   10214:	02d12a23          	sw	a3,52(sp)
   10218:	02e12c23          	sw	a4,56(sp)
   1021c:	00f12023          	sw	a5,0(sp)
   10220:	01012223          	sw	a6,4(sp)
   10224:	03212423          	sw	s2,40(sp)
   10228:	000b8993          	addi	s3,s7,0
   1022c:	0009a403          	lw	s0,0(s3)
   10230:	00044703          	lbu	a4,0(s0)
   10234:	ff770613          	addi	a2,a4,-9
   10238:	fe070793          	addi	a5,a4,-32
   1023c:	00163693          	sltiu	a3,a2,1
   10240:	0017b793          	sltiu	a5,a5,1
   10244:	00f6e6b3          	or	a3,a3,a5
   10248:	54068463          	beq	a3,zero,10790 <main+0x6b0>
   1024c:	00040493          	addi	s1,s0,0
   10250:	0014c803          	lbu	a6,1(s1)
   10254:	00148493          	addi	s1,s1,1
   10258:	fe080793          	addi	a5,a6,-32
   1025c:	ff780593          	addi	a1,a6,-9
   10260:	fe0788e3          	beq	a5,zero,10250 <main+0x170>
   10264:	fe0586e3          	beq	a1,zero,10250 <main+0x170>
   10268:	02d00793          	addi	a5,zero,45
   1026c:	46f80663          	beq	a6,a5,106d8 <main+0x5f8>
   10270:	02b00793          	addi	a5,zero,43
   10274:	00100d13          	addi	s10,zero,1
   10278:	34f80263          	beq	a6,a5,105bc <main+0x4dc>
   1027c:	34080663          	beq	a6,zero,105c8 <main+0x4e8>
   10280:	03412a83          	lw	s5,52(sp)
   10284:	03812a03          	lw	s4,56(sp)
   10288:	00000b93          	addi	s7,zero,0
   1028c:	00812e23          	sw	s0,28(sp)
   10290:	00048913          	addi	s2,s1,0
   10294:	03312023          	sw	s3,32(sp)
   10298:	00000c93          	addi	s9,zero,0
   1029c:	00900b13          	addi	s6,zero,9
   102a0:	02e00c13          	addi	s8,zero,46
   102a4:	00d12a23          	sw	a3,20(sp)
   102a8:	00e12c23          	sw	a4,24(sp)
   102ac:	00000413          	addi	s0,zero,0
   102b0:	02c12223          	sw	a2,36(sp)
   102b4:	00000493          	addi	s1,zero,0
   102b8:	000b8993          	addi	s3,s7,0
   102bc:	fd080d93          	addi	s11,a6,-48
   102c0:	0ffdf593          	andi	a1,s11,255
   102c4:	06bb6c63          	bltu	s6,a1,1033c <main+0x25c>
   102c8:	32041063          	bne	s0,zero,105e8 <main+0x508>
   102cc:	000d8793          	addi	a5,s11,0
   102d0:	00812623          	sw	s0,12(sp)
   102d4:	00090d93          	addi	s11,s2,0
   102d8:	00912423          	sw	s1,8(sp)
   102dc:	00078913          	addi	s2,a5,0
   102e0:	00012603          	lw	a2,0(sp)
   102e4:	00412683          	lw	a3,4(sp)
   102e8:	00098513          	addi	a0,s3,0
   102ec:	000b8593          	addi	a1,s7,0
   102f0:	3e9010ef          	jal	ra,11ed8 <__muldf3>
   102f4:	00050413          	addi	s0,a0,0
   102f8:	00090513          	addi	a0,s2,0
   102fc:	00058493          	addi	s1,a1,0
   10300:	1c0020ef          	jal	ra,124c0 <__floatsidf>
   10304:	00048693          	addi	a3,s1,0
   10308:	00040613          	addi	a2,s0,0
   1030c:	5c9000ef          	jal	ra,110d4 <__adddf3>
   10310:	001dc803          	lbu	a6,1(s11)
   10314:	001d8d93          	addi	s11,s11,1
   10318:	00050993          	addi	s3,a0,0
   1031c:	fd080913          	addi	s2,a6,-48
   10320:	00058b93          	addi	s7,a1,0
   10324:	0ff97693          	andi	a3,s2,255
   10328:	44080263          	beq	a6,zero,1076c <main+0x68c>
   1032c:	fadb7ae3          	bgeu	s6,a3,102e0 <main+0x200>
   10330:	00c12403          	lw	s0,12(sp)
   10334:	00812483          	lw	s1,8(sp)
   10338:	000d8913          	addi	s2,s11,0
   1033c:	33880063          	beq	a6,s8,1065c <main+0x57c>
   10340:	fe080713          	addi	a4,a6,-32
   10344:	00070c63          	beq	a4,zero,1035c <main+0x27c>
   10348:	ff780813          	addi	a6,a6,-9
   1034c:	00080863          	beq	a6,zero,1035c <main+0x27c>
   10350:	00194803          	lbu	a6,1(s2)
   10354:	00190913          	addi	s2,s2,1
   10358:	f60812e3          	bne	a6,zero,102bc <main+0x1dc>
   1035c:	000b8d93          	addi	s11,s7,0
   10360:	01412683          	lw	a3,20(sp)
   10364:	00098b93          	addi	s7,s3,0
   10368:	01812703          	lw	a4,24(sp)
   1036c:	01c12403          	lw	s0,28(sp)
   10370:	02412603          	lw	a2,36(sp)
   10374:	02012983          	lw	s3,32(sp)
   10378:	00048313          	addi	t1,s1,0
   1037c:	0df77713          	andi	a4,a4,223
   10380:	3c070e63          	beq	a4,zero,1075c <main+0x67c>
   10384:	00061663          	bne	a2,zero,10390 <main+0x2b0>
   10388:	3d40006f          	jal	zero,1075c <main+0x67c>
   1038c:	02068263          	beq	a3,zero,103b0 <main+0x2d0>
   10390:	00144783          	lbu	a5,1(s0)
   10394:	00140413          	addi	s0,s0,1
   10398:	0df7f713          	andi	a4,a5,223
   1039c:	ff778693          	addi	a3,a5,-9
   103a0:	fe0716e3          	bne	a4,zero,1038c <main+0x2ac>
   103a4:	00068663          	beq	a3,zero,103b0 <main+0x2d0>
   103a8:	fe078793          	addi	a5,a5,-32
   103ac:	3a079a63          	bne	a5,zero,10760 <main+0x680>
   103b0:	00040613          	addi	a2,s0,0
   103b4:	00144783          	lbu	a5,1(s0)
   103b8:	00140413          	addi	s0,s0,1
   103bc:	fe078713          	addi	a4,a5,-32
   103c0:	ff778693          	addi	a3,a5,-9
   103c4:	fe0706e3          	beq	a4,zero,103b0 <main+0x2d0>
   103c8:	fe0684e3          	beq	a3,zero,103b0 <main+0x2d0>
   103cc:	02d00713          	addi	a4,zero,45
   103d0:	2ee78c63          	beq	a5,a4,106c8 <main+0x5e8>
   103d4:	02b00713          	addi	a4,zero,43
   103d8:	00100593          	addi	a1,zero,1
   103dc:	00e79663          	bne	a5,a4,103e8 <main+0x308>
   103e0:	00144783          	lbu	a5,1(s0)
   103e4:	00260413          	addi	s0,a2,2
   103e8:	fd078793          	addi	a5,a5,-48
   103ec:	0ff7f693          	andi	a3,a5,255
   103f0:	00900613          	addi	a2,zero,9
   103f4:	00000713          	addi	a4,zero,0
   103f8:	02d66863          	bltu	a2,a3,10428 <main+0x348>
   103fc:	00070693          	addi	a3,a4,0
   10400:	00269713          	slli	a4,a3,0x2
   10404:	00144503          	lbu	a0,1(s0)
   10408:	00d70733          	add	a4,a4,a3
   1040c:	00171713          	slli	a4,a4,0x1
   10410:	00e786b3          	add	a3,a5,a4
   10414:	fd050793          	addi	a5,a0,-48
   10418:	0ff7f713          	andi	a4,a5,255
   1041c:	00140413          	addi	s0,s0,1
   10420:	fee670e3          	bgeu	a2,a4,10400 <main+0x320>
   10424:	00068713          	addi	a4,a3,0
   10428:	8801a783          	lw	a5,-1920(gp) # 6d738 <node_count>
   1042c:	000036b7          	lui	a3,0x3
   10430:	edf68693          	addi	a3,a3,-289 # 2edf <exit-0xd1d5>
   10434:	24f6ca63          	blt	a3,a5,10688 <main+0x5a8>
   10438:	01012603          	lw	a2,16(sp)
   1043c:	00279513          	slli	a0,a5,0x2
   10440:	00f50533          	add	a0,a0,a5
   10444:	00251513          	slli	a0,a0,0x2
   10448:	00a60533          	add	a0,a2,a0
   1044c:	00178613          	addi	a2,a5,1
   10450:	88c1a023          	sw	a2,-1920(gp) # 6d738 <node_count>
   10454:	87c1a603          	lw	a2,-1924(gp) # 6d734 <mask_count>
   10458:	00052023          	sw	zero,0(a0)
   1045c:	00052223          	sw	zero,4(a0)
   10460:	00052423          	sw	zero,8(a0)
   10464:	00052623          	sw	zero,12(a0)
   10468:	00052823          	sw	zero,16(a0)
   1046c:	20c6c463          	blt	a3,a2,10674 <main+0x594>
   10470:	00361793          	slli	a5,a2,0x3
   10474:	02c12883          	lw	a7,44(sp)
   10478:	00160613          	addi	a2,a2,1
   1047c:	86c1ae23          	sw	a2,-1924(gp) # 6d734 <mask_count>
   10480:	8781a603          	lw	a2,-1928(gp) # 6d730 <data_count>
   10484:	00f887b3          	add	a5,a7,a5
   10488:	00f52223          	sw	a5,4(a0)
   1048c:	0007a023          	sw	zero,0(a5)
   10490:	0007a223          	sw	zero,4(a5)
   10494:	1ec6ca63          	blt	a3,a2,10688 <main+0x5a8>
   10498:	03012683          	lw	a3,48(sp)
   1049c:	02b70c33          	mul	s8,a4,a1
   104a0:	00461713          	slli	a4,a2,0x4
   104a4:	00e68733          	add	a4,a3,a4
   104a8:	00070023          	sb	zero,0(a4)
   104ac:	00160613          	addi	a2,a2,1
   104b0:	00e7a223          	sw	a4,4(a5)
   104b4:	86c1ac23          	sw	a2,-1928(gp) # 6d730 <data_count>
   104b8:	fff00713          	addi	a4,zero,-1
   104bc:	00e7a023          	sw	a4,0(a5)
   104c0:	02812783          	lw	a5,40(sp)
   104c4:	01852023          	sw	s8,0(a0)
   104c8:	80000837          	lui	a6,0x80000
   104cc:	00078713          	addi	a4,a5,0
   104d0:	00472683          	lw	a3,4(a4)
   104d4:	0097c603          	lbu	a2,9(a5)
   104d8:	00072583          	lw	a1,0(a4)
   104dc:	0006a683          	lw	a3,0(a3)
   104e0:	00c857b3          	srl	a5,a6,a2
   104e4:	00000893          	addi	a7,zero,0
   104e8:	00dc76b3          	and	a3,s8,a3
   104ec:	0187f7b3          	and	a5,a5,s8
   104f0:	02d58a63          	beq	a1,a3,10524 <main+0x444>
   104f4:	02078c63          	beq	a5,zero,1052c <main+0x44c>
   104f8:	01072703          	lw	a4,16(a4)
   104fc:	00974783          	lbu	a5,9(a4)
   10500:	02f67c63          	bgeu	a2,a5,10538 <main+0x458>
   10504:	00472683          	lw	a3,4(a4)
   10508:	00072583          	lw	a1,0(a4)
   1050c:	00078613          	addi	a2,a5,0
   10510:	0006a683          	lw	a3,0(a3)
   10514:	00c857b3          	srl	a5,a6,a2
   10518:	0187f7b3          	and	a5,a5,s8
   1051c:	00dc76b3          	and	a3,s8,a3
   10520:	fcd59ae3          	bne	a1,a3,104f4 <main+0x414>
   10524:	00070893          	addi	a7,a4,0
   10528:	fc0798e3          	bne	a5,zero,104f8 <main+0x418>
   1052c:	00c72703          	lw	a4,12(a4)
   10530:	00974783          	lbu	a5,9(a4)
   10534:	fcf668e3          	bltu	a2,a5,10504 <main+0x424>
   10538:	00472783          	lw	a5,4(a4)
   1053c:	00072683          	lw	a3,0(a4)
   10540:	0007a783          	lw	a5,0(a5)
   10544:	00fc77b3          	and	a5,s8,a5
   10548:	00f69463          	bne	a3,a5,10550 <main+0x470>
   1054c:	00070893          	addi	a7,a4,0
   10550:	0008a783          	lw	a5,0(a7)
   10554:	19878a63          	beq	a5,s8,106e8 <main+0x608>
   10558:	02812583          	lw	a1,40(sp)
   1055c:	4d4000ef          	jal	ra,10a30 <pat_insert>
   10560:	8701a783          	lw	a5,-1936(gp) # 6d728 <insert_count>
   10564:	00178793          	addi	a5,a5,1
   10568:	86f1a823          	sw	a5,-1936(gp) # 6d728 <insert_count>
   1056c:	10050e63          	beq	a0,zero,10688 <main+0x5a8>
   10570:	03c12783          	lw	a5,60(sp)
   10574:	00498993          	addi	s3,s3,4
   10578:	cb379ae3          	bne	a5,s3,1022c <main+0x14c>
   1057c:	8741a503          	lw	a0,-1932(gp) # 6d72c <found_count>
   10580:	8701a783          	lw	a5,-1936(gp) # 6d728 <insert_count>
   10584:	07812403          	lw	s0,120(sp)
   10588:	07412483          	lw	s1,116(sp)
   1058c:	00f50533          	add	a0,a0,a5
   10590:	06c12983          	lw	s3,108(sp)
   10594:	06812a03          	lw	s4,104(sp)
   10598:	06412a83          	lw	s5,100(sp)
   1059c:	06012b03          	lw	s6,96(sp)
   105a0:	05c12b83          	lw	s7,92(sp)
   105a4:	05812c03          	lw	s8,88(sp)
   105a8:	05412c83          	lw	s9,84(sp)
   105ac:	05012d03          	lw	s10,80(sp)
   105b0:	04c12d83          	lw	s11,76(sp)
   105b4:	00153513          	sltiu	a0,a0,1
   105b8:	1000006f          	jal	zero,106b8 <main+0x5d8>
   105bc:	0014c803          	lbu	a6,1(s1)
   105c0:	01a484b3          	add	s1,s1,s10
   105c4:	ca081ee3          	bne	a6,zero,10280 <main+0x1a0>
   105c8:	0006d7b7          	lui	a5,0x6d
   105cc:	00000b93          	addi	s7,zero,0
   105d0:	00000c93          	addi	s9,zero,0
   105d4:	6b87aa83          	lw	s5,1720(a5) # 6d6b8 <__SDATA_BEGIN__>
   105d8:	6bc7aa03          	lw	s4,1724(a5)
   105dc:	000b8313          	addi	t1,s7,0
   105e0:	000c8d93          	addi	s11,s9,0
   105e4:	d99ff06f          	jal	zero,1037c <main+0x29c>
   105e8:	00012603          	lw	a2,0(sp)
   105ec:	00412683          	lw	a3,4(sp)
   105f0:	00048513          	addi	a0,s1,0
   105f4:	000c8593          	addi	a1,s9,0
   105f8:	0e1010ef          	jal	ra,11ed8 <__muldf3>
   105fc:	00050413          	addi	s0,a0,0
   10600:	000d8513          	addi	a0,s11,0
   10604:	00058493          	addi	s1,a1,0
   10608:	6b9010ef          	jal	ra,124c0 <__floatsidf>
   1060c:	00048693          	addi	a3,s1,0
   10610:	00040613          	addi	a2,s0,0
   10614:	2c1000ef          	jal	ra,110d4 <__adddf3>
   10618:	00012603          	lw	a2,0(sp)
   1061c:	00412683          	lw	a3,4(sp)
   10620:	00050493          	addi	s1,a0,0
   10624:	00058c93          	addi	s9,a1,0
   10628:	000a8513          	addi	a0,s5,0
   1062c:	000a0593          	addi	a1,s4,0
   10630:	0a9010ef          	jal	ra,11ed8 <__muldf3>
   10634:	00194803          	lbu	a6,1(s2)
   10638:	00190913          	addi	s2,s2,1
   1063c:	00050a93          	addi	s5,a0,0
   10640:	fd080d93          	addi	s11,a6,-48 # 7fffffd0 <__BSS_END__+0x7ff116e0>
   10644:	00058a13          	addi	s4,a1,0
   10648:	0ffdf793          	andi	a5,s11,255
   1064c:	d00808e3          	beq	a6,zero,1035c <main+0x27c>
   10650:	00100413          	addi	s0,zero,1
   10654:	f8fb7ae3          	bgeu	s6,a5,105e8 <main+0x508>
   10658:	cf8814e3          	bne	a6,s8,10340 <main+0x260>
   1065c:	00194803          	lbu	a6,1(s2)
   10660:	00190913          	addi	s2,s2,1
   10664:	ce080ce3          	beq	a6,zero,1035c <main+0x27c>
   10668:	fd080d93          	addi	s11,a6,-48
   1066c:	0ffdf793          	andi	a5,s11,255
   10670:	fe1ff06f          	jal	zero,10650 <main+0x570>
   10674:	01400713          	addi	a4,zero,20
   10678:	02e787b3          	mul	a5,a5,a4
   1067c:	01012703          	lw	a4,16(sp)
   10680:	00f707b3          	add	a5,a4,a5
   10684:	0007a223          	sw	zero,4(a5)
   10688:	07812403          	lw	s0,120(sp)
   1068c:	07412483          	lw	s1,116(sp)
   10690:	06c12983          	lw	s3,108(sp)
   10694:	06812a03          	lw	s4,104(sp)
   10698:	06412a83          	lw	s5,100(sp)
   1069c:	06012b03          	lw	s6,96(sp)
   106a0:	05c12b83          	lw	s7,92(sp)
   106a4:	05812c03          	lw	s8,88(sp)
   106a8:	05412c83          	lw	s9,84(sp)
   106ac:	05012d03          	lw	s10,80(sp)
   106b0:	04c12d83          	lw	s11,76(sp)
   106b4:	00000513          	addi	a0,zero,0
   106b8:	07c12083          	lw	ra,124(sp)
   106bc:	07012903          	lw	s2,112(sp)
   106c0:	08010113          	addi	sp,sp,128
   106c4:	00008067          	jalr	zero,0(ra)
   106c8:	00144783          	lbu	a5,1(s0)
   106cc:	fff00593          	addi	a1,zero,-1
   106d0:	00260413          	addi	s0,a2,2
   106d4:	d15ff06f          	jal	zero,103e8 <main+0x308>
   106d8:	0014c803          	lbu	a6,1(s1)
   106dc:	fff00d13          	addi	s10,zero,-1
   106e0:	00148493          	addi	s1,s1,1
   106e4:	b99ff06f          	jal	zero,1027c <main+0x19c>
   106e8:	00030513          	addi	a0,t1,0
   106ec:	000a8613          	addi	a2,s5,0
   106f0:	000a0693          	addi	a3,s4,0
   106f4:	000c8593          	addi	a1,s9,0
   106f8:	128010ef          	jal	ra,11820 <__divdf3>
   106fc:	000b8613          	addi	a2,s7,0
   10700:	000d8693          	addi	a3,s11,0
   10704:	1d1000ef          	jal	ra,110d4 <__adddf3>
   10708:	00050413          	addi	s0,a0,0
   1070c:	000d0513          	addi	a0,s10,0
   10710:	00058493          	addi	s1,a1,0
   10714:	5ad010ef          	jal	ra,124c0 <__floatsidf>
   10718:	00050613          	addi	a2,a0,0
   1071c:	00058693          	addi	a3,a1,0
   10720:	00040513          	addi	a0,s0,0
   10724:	00048593          	addi	a1,s1,0
   10728:	7b0010ef          	jal	ra,11ed8 <__muldf3>
   1072c:	70d010ef          	jal	ra,12638 <__truncdfsf2>
   10730:	631010ef          	jal	ra,12560 <__extendsfdf2>
   10734:	00050613          	addi	a2,a0,0
   10738:	00022537          	lui	a0,0x22
   1073c:	000c0713          	addi	a4,s8,0
   10740:	00058693          	addi	a3,a1,0
   10744:	9d050513          	addi	a0,a0,-1584 # 219d0 <__extenddftf2+0x1fc>
   10748:	50c020ef          	jal	ra,12c54 <printf>
   1074c:	8741a783          	lw	a5,-1932(gp) # 6d72c <found_count>
   10750:	00178793          	addi	a5,a5,1
   10754:	86f1aa23          	sw	a5,-1932(gp) # 6d72c <found_count>
   10758:	e19ff06f          	jal	zero,10570 <main+0x490>
   1075c:	c4069ae3          	bne	a3,zero,103b0 <main+0x2d0>
   10760:	00100593          	addi	a1,zero,1
   10764:	00000713          	addi	a4,zero,0
   10768:	cc1ff06f          	jal	zero,10428 <main+0x348>
   1076c:	01412683          	lw	a3,20(sp)
   10770:	01812703          	lw	a4,24(sp)
   10774:	01c12403          	lw	s0,28(sp)
   10778:	02412603          	lw	a2,36(sp)
   1077c:	00812303          	lw	t1,8(sp)
   10780:	02012983          	lw	s3,32(sp)
   10784:	00058d93          	addi	s11,a1,0
   10788:	00050b93          	addi	s7,a0,0
   1078c:	bf1ff06f          	jal	zero,1037c <main+0x29c>
   10790:	00070813          	addi	a6,a4,0
   10794:	00040493          	addi	s1,s0,0
   10798:	ad1ff06f          	jal	zero,10268 <main+0x188>
   1079c:	00000513          	addi	a0,zero,0
   107a0:	00008067          	jalr	zero,0(ra)
   107a4:	01400713          	addi	a4,zero,20
   107a8:	02e787b3          	mul	a5,a5,a4
   107ac:	01012703          	lw	a4,16(sp)
   107b0:	00f707b3          	add	a5,a4,a5
   107b4:	0007a223          	sw	zero,4(a5)
   107b8:	efdff06f          	jal	zero,106b4 <main+0x5d4>

000107bc <register_fini>:
   107bc:	00000793          	addi	a5,zero,0
   107c0:	00078863          	beq	a5,zero,107d0 <register_fini+0x14>
   107c4:	00018537          	lui	a0,0x18
   107c8:	dac50513          	addi	a0,a0,-596 # 17dac <__libc_fini_array>
   107cc:	3490206f          	jal	zero,13314 <atexit>
   107d0:	00008067          	jalr	zero,0(ra)

000107d4 <_start>:
   107d4:	0005d197          	auipc	gp,0x5d
   107d8:	6e418193          	addi	gp,gp,1764 # 6deb8 <__global_pointer$>
   107dc:	0005d517          	auipc	a0,0x5d
   107e0:	f4c50513          	addi	a0,a0,-180 # 6d728 <insert_count>
   107e4:	000de617          	auipc	a2,0xde
   107e8:	10c60613          	addi	a2,a2,268 # ee8f0 <__BSS_END__>
   107ec:	40a60633          	sub	a2,a2,a0
   107f0:	00000593          	addi	a1,zero,0
   107f4:	111020ef          	jal	ra,13104 <memset>
   107f8:	00003517          	auipc	a0,0x3
   107fc:	b1c50513          	addi	a0,a0,-1252 # 13314 <atexit>
   10800:	00050863          	beq	a0,zero,10810 <_start+0x3c>
   10804:	00007517          	auipc	a0,0x7
   10808:	5a850513          	addi	a0,a0,1448 # 17dac <__libc_fini_array>
   1080c:	309020ef          	jal	ra,13314 <atexit>
   10810:	061020ef          	jal	ra,13070 <__libc_init_array>
   10814:	00012503          	lw	a0,0(sp)
   10818:	00410593          	addi	a1,sp,4
   1081c:	00000613          	addi	a2,zero,0
   10820:	8c1ff0ef          	jal	ra,100e0 <main>
   10824:	891ff06f          	jal	zero,100b4 <exit>

00010828 <__do_global_dtors_aux>:
   10828:	ff010113          	addi	sp,sp,-16
   1082c:	00812423          	sw	s0,8(sp)
   10830:	8a81c783          	lbu	a5,-1880(gp) # 6d760 <completed.1>
   10834:	00112623          	sw	ra,12(sp)
   10838:	02079263          	bne	a5,zero,1085c <__do_global_dtors_aux+0x34>
   1083c:	00000793          	addi	a5,zero,0
   10840:	00078a63          	beq	a5,zero,10854 <__do_global_dtors_aux+0x2c>
   10844:	0006d537          	lui	a0,0x6d
   10848:	c1050513          	addi	a0,a0,-1008 # 6cc10 <__EH_FRAME_BEGIN__>
   1084c:	00000097          	auipc	ra,0x0
   10850:	000000e7          	jalr	ra,0(zero) # 0 <exit-0x100b4>
   10854:	00100793          	addi	a5,zero,1
   10858:	8af18423          	sb	a5,-1880(gp) # 6d760 <completed.1>
   1085c:	00c12083          	lw	ra,12(sp)
   10860:	00812403          	lw	s0,8(sp)
   10864:	01010113          	addi	sp,sp,16
   10868:	00008067          	jalr	zero,0(ra) # 1084c <__do_global_dtors_aux+0x24>

0001086c <frame_dummy>:
   1086c:	00000793          	addi	a5,zero,0
   10870:	00078c63          	beq	a5,zero,10888 <frame_dummy+0x1c>
   10874:	0006d537          	lui	a0,0x6d
   10878:	8ac18593          	addi	a1,gp,-1876 # 6d764 <object.0>
   1087c:	c1050513          	addi	a0,a0,-1008 # 6cc10 <__EH_FRAME_BEGIN__>
   10880:	00000317          	auipc	t1,0x0
   10884:	00000067          	jalr	zero,0(zero) # 0 <exit-0x100b4>
   10888:	00008067          	jalr	zero,0(ra)

0001088c <insertR>:
   1088c:	00954803          	lbu	a6,9(a0)
   10890:	0005a883          	lw	a7,0(a1)
   10894:	00050313          	addi	t1,a0,0
   10898:	00058793          	addi	a5,a1,0
   1089c:	00060713          	addi	a4,a2,0
   108a0:	06c85a63          	bge	a6,a2,10914 <insertR+0x88>
   108a4:	0096c683          	lbu	a3,9(a3)
   108a8:	0706f663          	bgeu	a3,a6,10914 <insertR+0x88>
   108ac:	80000537          	lui	a0,0x80000
   108b0:	fe010113          	addi	sp,sp,-32
   108b4:	010556b3          	srl	a3,a0,a6
   108b8:	00112e23          	sw	ra,28(sp)
   108bc:	0116f6b3          	and	a3,a3,a7
   108c0:	08068263          	beq	a3,zero,10944 <insertR+0xb8>
   108c4:	01032683          	lw	a3,16(t1) # 10890 <insertR+0x4>
   108c8:	0096ce03          	lbu	t3,9(a3)
   108cc:	0ece5a63          	bge	t3,a2,109c0 <insertR+0x134>
   108d0:	0fc87863          	bgeu	a6,t3,109c0 <insertR+0x134>
   108d4:	01c55533          	srl	a0,a0,t3
   108d8:	01157533          	and	a0,a0,a7
   108dc:	00612623          	sw	t1,12(sp)
   108e0:	10050863          	beq	a0,zero,109f0 <insertR+0x164>
   108e4:	0106a503          	lw	a0,16(a3)
   108e8:	00d12423          	sw	a3,8(sp)
   108ec:	fa1ff0ef          	jal	ra,1088c <insertR>
   108f0:	00812683          	lw	a3,8(sp)
   108f4:	00c12303          	lw	t1,12(sp)
   108f8:	00a6a823          	sw	a0,16(a3)
   108fc:	00068793          	addi	a5,a3,0
   10900:	00f32823          	sw	a5,16(t1)
   10904:	01c12083          	lw	ra,28(sp)
   10908:	00030513          	addi	a0,t1,0
   1090c:	02010113          	addi	sp,sp,32
   10910:	00008067          	jalr	zero,0(ra)
   10914:	800006b7          	lui	a3,0x80000
   10918:	00e6d6b3          	srl	a3,a3,a4
   1091c:	00e784a3          	sb	a4,9(a5)
   10920:	0116f733          	and	a4,a3,a7
   10924:	00078693          	addi	a3,a5,0
   10928:	00070663          	beq	a4,zero,10934 <insertR+0xa8>
   1092c:	00030693          	addi	a3,t1,0
   10930:	00078313          	addi	t1,a5,0
   10934:	00d7a623          	sw	a3,12(a5)
   10938:	0067a823          	sw	t1,16(a5)
   1093c:	00078513          	addi	a0,a5,0
   10940:	00008067          	jalr	zero,0(ra)
   10944:	00c32683          	lw	a3,12(t1)
   10948:	0096ce03          	lbu	t3,9(a3) # 80000009 <__BSS_END__+0x7ff11719>
   1094c:	04ce5463          	bge	t3,a2,10994 <insertR+0x108>
   10950:	05c87263          	bgeu	a6,t3,10994 <insertR+0x108>
   10954:	01c55533          	srl	a0,a0,t3
   10958:	01157533          	and	a0,a0,a7
   1095c:	00612623          	sw	t1,12(sp)
   10960:	0a050863          	beq	a0,zero,10a10 <insertR+0x184>
   10964:	0106a503          	lw	a0,16(a3)
   10968:	00d12423          	sw	a3,8(sp)
   1096c:	f21ff0ef          	jal	ra,1088c <insertR>
   10970:	00812683          	lw	a3,8(sp)
   10974:	00c12303          	lw	t1,12(sp)
   10978:	00a6a823          	sw	a0,16(a3)
   1097c:	00068793          	addi	a5,a3,0
   10980:	01c12083          	lw	ra,28(sp)
   10984:	00f32623          	sw	a5,12(t1)
   10988:	00030513          	addi	a0,t1,0
   1098c:	02010113          	addi	sp,sp,32
   10990:	00008067          	jalr	zero,0(ra)
   10994:	80000637          	lui	a2,0x80000
   10998:	00e65633          	srl	a2,a2,a4
   1099c:	00e784a3          	sb	a4,9(a5)
   109a0:	01167733          	and	a4,a2,a7
   109a4:	00078613          	addi	a2,a5,0
   109a8:	00071663          	bne	a4,zero,109b4 <insertR+0x128>
   109ac:	00068613          	addi	a2,a3,0
   109b0:	00078693          	addi	a3,a5,0
   109b4:	00d7a623          	sw	a3,12(a5)
   109b8:	00c7a823          	sw	a2,16(a5)
   109bc:	fc5ff06f          	jal	zero,10980 <insertR+0xf4>
   109c0:	80000637          	lui	a2,0x80000
   109c4:	00e65633          	srl	a2,a2,a4
   109c8:	00e784a3          	sb	a4,9(a5)
   109cc:	01167733          	and	a4,a2,a7
   109d0:	00078613          	addi	a2,a5,0
   109d4:	00071663          	bne	a4,zero,109e0 <insertR+0x154>
   109d8:	00068613          	addi	a2,a3,0
   109dc:	00078693          	addi	a3,a5,0
   109e0:	00d7a623          	sw	a3,12(a5)
   109e4:	00c7a823          	sw	a2,16(a5)
   109e8:	00f32823          	sw	a5,16(t1)
   109ec:	f19ff06f          	jal	zero,10904 <insertR+0x78>
   109f0:	00c6a503          	lw	a0,12(a3)
   109f4:	00d12423          	sw	a3,8(sp)
   109f8:	e95ff0ef          	jal	ra,1088c <insertR>
   109fc:	00812683          	lw	a3,8(sp)
   10a00:	00c12303          	lw	t1,12(sp)
   10a04:	00a6a623          	sw	a0,12(a3)
   10a08:	00068793          	addi	a5,a3,0
   10a0c:	ef5ff06f          	jal	zero,10900 <insertR+0x74>
   10a10:	00c6a503          	lw	a0,12(a3)
   10a14:	00d12423          	sw	a3,8(sp)
   10a18:	e75ff0ef          	jal	ra,1088c <insertR>
   10a1c:	00812683          	lw	a3,8(sp)
   10a20:	00c12303          	lw	t1,12(sp)
   10a24:	00a6a623          	sw	a0,12(a3)
   10a28:	00068793          	addi	a5,a3,0
   10a2c:	f55ff06f          	jal	zero,10980 <insertR+0xf4>

00010a30 <pat_insert>:
   10a30:	1a058c63          	beq	a1,zero,10be8 <pat_insert+0x1b8>
   10a34:	1a050a63          	beq	a0,zero,10be8 <pat_insert+0x1b8>
   10a38:	00452603          	lw	a2,4(a0) # 80000004 <__BSS_END__+0x7ff11714>
   10a3c:	1a060863          	beq	a2,zero,10bec <pat_insert+0x1bc>
   10a40:	00062883          	lw	a7,0(a2) # 80000000 <__BSS_END__+0x7ff11710>
   10a44:	00052303          	lw	t1,0(a0)
   10a48:	80000837          	lui	a6,0x80000
   10a4c:	00058713          	addi	a4,a1,0
   10a50:	0068f333          	and	t1,a7,t1
   10a54:	00652023          	sw	t1,0(a0)
   10a58:	0095ce03          	lbu	t3,9(a1)
   10a5c:	000e0693          	addi	a3,t3,0
   10a60:	00d857b3          	srl	a5,a6,a3
   10a64:	0067f7b3          	and	a5,a5,t1
   10a68:	02078063          	beq	a5,zero,10a88 <pat_insert+0x58>
   10a6c:	01072703          	lw	a4,16(a4)
   10a70:	00974783          	lbu	a5,9(a4)
   10a74:	02f6f063          	bgeu	a3,a5,10a94 <pat_insert+0x64>
   10a78:	00078693          	addi	a3,a5,0
   10a7c:	00d857b3          	srl	a5,a6,a3
   10a80:	0067f7b3          	and	a5,a5,t1
   10a84:	fe0794e3          	bne	a5,zero,10a6c <pat_insert+0x3c>
   10a88:	00c72703          	lw	a4,12(a4)
   10a8c:	00974783          	lbu	a5,9(a4)
   10a90:	fef6e4e3          	bltu	a3,a5,10a78 <pat_insert+0x48>
   10a94:	00072683          	lw	a3,0(a4)
   10a98:	14d30e63          	beq	t1,a3,10bf4 <pat_insert+0x1c4>
   10a9c:	fe010113          	addi	sp,sp,-32
   10aa0:	00d346b3          	xor	a3,t1,a3
   10aa4:	00112e23          	sw	ra,28(sp)
   10aa8:	00169793          	slli	a5,a3,0x1
   10aac:	00100613          	addi	a2,zero,1
   10ab0:	02000813          	addi	a6,zero,32
   10ab4:	800008b7          	lui	a7,0x80000
   10ab8:	3c07c663          	blt	a5,zero,10e84 <pat_insert+0x454>
   10abc:	00160613          	addi	a2,a2,1
   10ac0:	00c8d7b3          	srl	a5,a7,a2
   10ac4:	00d7f733          	and	a4,a5,a3
   10ac8:	1d060063          	beq	a2,a6,10c88 <pat_insert+0x258>
   10acc:	fe0708e3          	beq	a4,zero,10abc <pat_insert+0x8c>
   10ad0:	00058713          	addi	a4,a1,0
   10ad4:	800005b7          	lui	a1,0x80000
   10ad8:	01c5d6b3          	srl	a3,a1,t3
   10adc:	0066f6b3          	and	a3,a3,t1
   10ae0:	00050813          	addi	a6,a0,0
   10ae4:	08068263          	beq	a3,zero,10b68 <pat_insert+0x138>
   10ae8:	01072883          	lw	a7,16(a4)
   10aec:	0098c503          	lbu	a0,9(a7) # 80000009 <__BSS_END__+0x7ff11719>
   10af0:	14c55263          	bge	a0,a2,10c34 <pat_insert+0x204>
   10af4:	14ae7063          	bgeu	t3,a0,10c34 <pat_insert+0x204>
   10af8:	00a5d6b3          	srl	a3,a1,a0
   10afc:	0066f6b3          	and	a3,a3,t1
   10b00:	34068a63          	beq	a3,zero,10e54 <pat_insert+0x424>
   10b04:	0108a683          	lw	a3,16(a7)
   10b08:	0096ce03          	lbu	t3,9(a3)
   10b0c:	3ace5663          	bge	t3,a2,10eb8 <pat_insert+0x488>
   10b10:	3bc57463          	bgeu	a0,t3,10eb8 <pat_insert+0x488>
   10b14:	01c5d7b3          	srl	a5,a1,t3
   10b18:	0067f7b3          	and	a5,a5,t1
   10b1c:	00e12623          	sw	a4,12(sp)
   10b20:	01112423          	sw	a7,8(sp)
   10b24:	46078663          	beq	a5,zero,10f90 <pat_insert+0x560>
   10b28:	0106a503          	lw	a0,16(a3)
   10b2c:	00080593          	addi	a1,a6,0 # 80000000 <__BSS_END__+0x7ff11710>
   10b30:	00d12223          	sw	a3,4(sp)
   10b34:	01012023          	sw	a6,0(sp)
   10b38:	d55ff0ef          	jal	ra,1088c <insertR>
   10b3c:	00412683          	lw	a3,4(sp)
   10b40:	00812883          	lw	a7,8(sp)
   10b44:	00012803          	lw	a6,0(sp)
   10b48:	00c12703          	lw	a4,12(sp)
   10b4c:	00a6a823          	sw	a0,16(a3)
   10b50:	00d8a823          	sw	a3,16(a7)
   10b54:	01c12083          	lw	ra,28(sp)
   10b58:	01172823          	sw	a7,16(a4)
   10b5c:	00080513          	addi	a0,a6,0
   10b60:	02010113          	addi	sp,sp,32
   10b64:	00008067          	jalr	zero,0(ra)
   10b68:	00c72883          	lw	a7,12(a4)
   10b6c:	0098c503          	lbu	a0,9(a7)
   10b70:	0ec55663          	bge	a0,a2,10c5c <pat_insert+0x22c>
   10b74:	0eae7463          	bgeu	t3,a0,10c5c <pat_insert+0x22c>
   10b78:	00a5d6b3          	srl	a3,a1,a0
   10b7c:	0066f6b3          	and	a3,a3,t1
   10b80:	26068e63          	beq	a3,zero,10dfc <pat_insert+0x3cc>
   10b84:	0108a683          	lw	a3,16(a7)
   10b88:	0096ce03          	lbu	t3,9(a3)
   10b8c:	30ce5063          	bge	t3,a2,10e8c <pat_insert+0x45c>
   10b90:	2fc57e63          	bgeu	a0,t3,10e8c <pat_insert+0x45c>
   10b94:	01c5d7b3          	srl	a5,a1,t3
   10b98:	0067f7b3          	and	a5,a5,t1
   10b9c:	00e12623          	sw	a4,12(sp)
   10ba0:	01112423          	sw	a7,8(sp)
   10ba4:	40078e63          	beq	a5,zero,10fc0 <pat_insert+0x590>
   10ba8:	0106a503          	lw	a0,16(a3)
   10bac:	00080593          	addi	a1,a6,0
   10bb0:	00d12223          	sw	a3,4(sp)
   10bb4:	01012023          	sw	a6,0(sp)
   10bb8:	cd5ff0ef          	jal	ra,1088c <insertR>
   10bbc:	00412683          	lw	a3,4(sp)
   10bc0:	00812883          	lw	a7,8(sp)
   10bc4:	00012803          	lw	a6,0(sp)
   10bc8:	00c12703          	lw	a4,12(sp)
   10bcc:	00a6a823          	sw	a0,16(a3)
   10bd0:	00d8a823          	sw	a3,16(a7)
   10bd4:	01172623          	sw	a7,12(a4)
   10bd8:	01c12083          	lw	ra,28(sp)
   10bdc:	00080513          	addi	a0,a6,0
   10be0:	02010113          	addi	sp,sp,32
   10be4:	00008067          	jalr	zero,0(ra)
   10be8:	00000613          	addi	a2,zero,0
   10bec:	00060513          	addi	a0,a2,0
   10bf0:	00008067          	jalr	zero,0(ra)
   10bf4:	00874583          	lbu	a1,8(a4)
   10bf8:	32058063          	beq	a1,zero,10f18 <pat_insert+0x4e8>
   10bfc:	00472683          	lw	a3,4(a4)
   10c00:	00000793          	addi	a5,zero,0
   10c04:	00068813          	addi	a6,a3,0
   10c08:	00c0006f          	jal	zero,10c14 <pat_insert+0x1e4>
   10c0c:	00880813          	addi	a6,a6,8
   10c10:	08b78c63          	beq	a5,a1,10ca8 <pat_insert+0x278>
   10c14:	00082303          	lw	t1,0(a6)
   10c18:	00178793          	addi	a5,a5,1
   10c1c:	fe6898e3          	bne	a7,t1,10c0c <pat_insert+0x1dc>
   10c20:	00462783          	lw	a5,4(a2)
   10c24:	00070613          	addi	a2,a4,0
   10c28:	00f82223          	sw	a5,4(a6)
   10c2c:	00060513          	addi	a0,a2,0
   10c30:	00008067          	jalr	zero,0(ra)
   10c34:	00c804a3          	sb	a2,9(a6)
   10c38:	00f377b3          	and	a5,t1,a5
   10c3c:	00080693          	addi	a3,a6,0
   10c40:	00078663          	beq	a5,zero,10c4c <pat_insert+0x21c>
   10c44:	00088693          	addi	a3,a7,0
   10c48:	00080893          	addi	a7,a6,0
   10c4c:	01182823          	sw	a7,16(a6)
   10c50:	00d82623          	sw	a3,12(a6)
   10c54:	00080893          	addi	a7,a6,0
   10c58:	efdff06f          	jal	zero,10b54 <pat_insert+0x124>
   10c5c:	00c804a3          	sb	a2,9(a6)
   10c60:	00f377b3          	and	a5,t1,a5
   10c64:	00080693          	addi	a3,a6,0
   10c68:	00079663          	bne	a5,zero,10c74 <pat_insert+0x244>
   10c6c:	00088693          	addi	a3,a7,0
   10c70:	00080893          	addi	a7,a6,0
   10c74:	01182623          	sw	a7,12(a6)
   10c78:	00d82823          	sw	a3,16(a6)
   10c7c:	00080893          	addi	a7,a6,0
   10c80:	01172623          	sw	a7,12(a4)
   10c84:	f55ff06f          	jal	zero,10bd8 <pat_insert+0x1a8>
   10c88:	00058713          	addi	a4,a1,0 # 80000000 <__BSS_END__+0x7ff11710>
   10c8c:	800005b7          	lui	a1,0x80000
   10c90:	01c5d6b3          	srl	a3,a1,t3
   10c94:	0066f6b3          	and	a3,a3,t1
   10c98:	00000793          	addi	a5,zero,0
   10c9c:	00050813          	addi	a6,a0,0
   10ca0:	ec0684e3          	beq	a3,zero,10b68 <pat_insert+0x138>
   10ca4:	e45ff06f          	jal	zero,10ae8 <pat_insert+0xb8>
   10ca8:	87c1a583          	lw	a1,-1924(gp) # 6d734 <mask_count>
   10cac:	00178793          	addi	a5,a5,1
   10cb0:	00003837          	lui	a6,0x3
   10cb4:	00b787b3          	add	a5,a5,a1
   10cb8:	ee080813          	addi	a6,a6,-288 # 2ee0 <exit-0xd1d4>
   10cbc:	24f84a63          	blt	a6,a5,10f10 <pat_insert+0x4e0>
   10cc0:	0009c837          	lui	a6,0x9c
   10cc4:	00359593          	slli	a1,a1,0x3
   10cc8:	58080813          	addi	a6,a6,1408 # 9c580 <static_masks>
   10ccc:	86f1ae23          	sw	a5,-1924(gp) # 6d734 <mask_count>
   10cd0:	01058e33          	add	t3,a1,a6
   10cd4:	000e0793          	addi	a5,t3,0
   10cd8:	00000e93          	addi	t4,zero,0
   10cdc:	00000593          	addi	a1,zero,0
   10ce0:	00000313          	addi	t1,zero,0
   10ce4:	fff00f13          	addi	t5,zero,-1
   10ce8:	0640006f          	jal	zero,10d4c <pat_insert+0x31c>
   10cec:	00064683          	lbu	a3,0(a2)
   10cf0:	00100e93          	addi	t4,zero,1
   10cf4:	00878793          	addi	a5,a5,8
   10cf8:	fed78c23          	sb	a3,-8(a5)
   10cfc:	00164683          	lbu	a3,1(a2)
   10d00:	fed78ca3          	sb	a3,-7(a5)
   10d04:	00264683          	lbu	a3,2(a2)
   10d08:	fed78d23          	sb	a3,-6(a5)
   10d0c:	00364683          	lbu	a3,3(a2)
   10d10:	fed78da3          	sb	a3,-5(a5)
   10d14:	00464683          	lbu	a3,4(a2)
   10d18:	fed78e23          	sb	a3,-4(a5)
   10d1c:	00564683          	lbu	a3,5(a2)
   10d20:	fed78ea3          	sb	a3,-3(a5)
   10d24:	00664683          	lbu	a3,6(a2)
   10d28:	fed78f23          	sb	a3,-2(a5)
   10d2c:	00764683          	lbu	a3,7(a2)
   10d30:	fed78fa3          	sb	a3,-1(a5)
   10d34:	00452603          	lw	a2,4(a0)
   10d38:	01e62023          	sw	t5,0(a2)
   10d3c:	00874683          	lbu	a3,8(a4)
   10d40:	0ad5d463          	bge	a1,a3,10de8 <pat_insert+0x3b8>
   10d44:	00472683          	lw	a3,4(a4)
   10d48:	00062883          	lw	a7,0(a2)
   10d4c:	006686b3          	add	a3,a3,t1
   10d50:	0006a803          	lw	a6,0(a3)
   10d54:	f9187ce3          	bgeu	a6,a7,10cec <pat_insert+0x2bc>
   10d58:	0006c603          	lbu	a2,0(a3)
   10d5c:	00158593          	addi	a1,a1,1 # 80000001 <__BSS_END__+0x7ff11711>
   10d60:	00359313          	slli	t1,a1,0x3
   10d64:	00c78023          	sb	a2,0(a5)
   10d68:	0016c603          	lbu	a2,1(a3)
   10d6c:	00878793          	addi	a5,a5,8
   10d70:	fec78ca3          	sb	a2,-7(a5)
   10d74:	0026c603          	lbu	a2,2(a3)
   10d78:	fec78d23          	sb	a2,-6(a5)
   10d7c:	0036c603          	lbu	a2,3(a3)
   10d80:	fec78da3          	sb	a2,-5(a5)
   10d84:	0046c603          	lbu	a2,4(a3)
   10d88:	fec78e23          	sb	a2,-4(a5)
   10d8c:	0056c603          	lbu	a2,5(a3)
   10d90:	fec78ea3          	sb	a2,-3(a5)
   10d94:	0066c603          	lbu	a2,6(a3)
   10d98:	fec78f23          	sb	a2,-2(a5)
   10d9c:	0076c683          	lbu	a3,7(a3)
   10da0:	fed78fa3          	sb	a3,-1(a5)
   10da4:	00874683          	lbu	a3,8(a4)
   10da8:	00d5d663          	bge	a1,a3,10db4 <pat_insert+0x384>
   10dac:	00452603          	lw	a2,4(a0)
   10db0:	f95ff06f          	jal	zero,10d44 <pat_insert+0x314>
   10db4:	020e9a63          	bne	t4,zero,10de8 <pat_insert+0x3b8>
   10db8:	00452603          	lw	a2,4(a0)
   10dbc:	fff78693          	addi	a3,a5,-1
   10dc0:	40c686b3          	sub	a3,a3,a2
   10dc4:	0036b693          	sltiu	a3,a3,3
   10dc8:	18069063          	bne	a3,zero,10f48 <pat_insert+0x518>
   10dcc:	00367693          	andi	a3,a2,3
   10dd0:	16069c63          	bne	a3,zero,10f48 <pat_insert+0x518>
   10dd4:	00062683          	lw	a3,0(a2)
   10dd8:	00d7a023          	sw	a3,0(a5)
   10ddc:	00462683          	lw	a3,4(a2)
   10de0:	00d7a223          	sw	a3,4(a5)
   10de4:	00874683          	lbu	a3,8(a4)
   10de8:	00168693          	addi	a3,a3,1
   10dec:	00d70423          	sb	a3,8(a4)
   10df0:	01c72223          	sw	t3,4(a4)
   10df4:	00070613          	addi	a2,a4,0
   10df8:	e35ff06f          	jal	zero,10c2c <pat_insert+0x1fc>
   10dfc:	00c8a683          	lw	a3,12(a7)
   10e00:	0096ce03          	lbu	t3,9(a3)
   10e04:	0ece5063          	bge	t3,a2,10ee4 <pat_insert+0x4b4>
   10e08:	0dc57e63          	bgeu	a0,t3,10ee4 <pat_insert+0x4b4>
   10e0c:	01c5d7b3          	srl	a5,a1,t3
   10e10:	0067f7b3          	and	a5,a5,t1
   10e14:	00e12623          	sw	a4,12(sp)
   10e18:	01112423          	sw	a7,8(sp)
   10e1c:	1c078a63          	beq	a5,zero,10ff0 <pat_insert+0x5c0>
   10e20:	0106a503          	lw	a0,16(a3)
   10e24:	00080593          	addi	a1,a6,0
   10e28:	00d12223          	sw	a3,4(sp)
   10e2c:	01012023          	sw	a6,0(sp)
   10e30:	a5dff0ef          	jal	ra,1088c <insertR>
   10e34:	00412683          	lw	a3,4(sp)
   10e38:	00812883          	lw	a7,8(sp)
   10e3c:	00012803          	lw	a6,0(sp)
   10e40:	00c12703          	lw	a4,12(sp)
   10e44:	00a6a823          	sw	a0,16(a3)
   10e48:	00d8a623          	sw	a3,12(a7)
   10e4c:	01172623          	sw	a7,12(a4)
   10e50:	d89ff06f          	jal	zero,10bd8 <pat_insert+0x1a8>
   10e54:	00c8a503          	lw	a0,12(a7)
   10e58:	00088693          	addi	a3,a7,0
   10e5c:	00080593          	addi	a1,a6,0
   10e60:	00e12423          	sw	a4,8(sp)
   10e64:	01112223          	sw	a7,4(sp)
   10e68:	01012023          	sw	a6,0(sp)
   10e6c:	a21ff0ef          	jal	ra,1088c <insertR>
   10e70:	00412883          	lw	a7,4(sp)
   10e74:	00812703          	lw	a4,8(sp)
   10e78:	00012803          	lw	a6,0(sp)
   10e7c:	00a8a623          	sw	a0,12(a7)
   10e80:	cd5ff06f          	jal	zero,10b54 <pat_insert+0x124>
   10e84:	400007b7          	lui	a5,0x40000
   10e88:	c49ff06f          	jal	zero,10ad0 <pat_insert+0xa0>
   10e8c:	00c804a3          	sb	a2,9(a6)
   10e90:	00f377b3          	and	a5,t1,a5
   10e94:	00080613          	addi	a2,a6,0
   10e98:	00079663          	bne	a5,zero,10ea4 <pat_insert+0x474>
   10e9c:	00068613          	addi	a2,a3,0
   10ea0:	00080693          	addi	a3,a6,0
   10ea4:	00d82623          	sw	a3,12(a6)
   10ea8:	00c82823          	sw	a2,16(a6)
   10eac:	00080693          	addi	a3,a6,0
   10eb0:	00d8a823          	sw	a3,16(a7)
   10eb4:	d21ff06f          	jal	zero,10bd4 <pat_insert+0x1a4>
   10eb8:	00c804a3          	sb	a2,9(a6)
   10ebc:	00f377b3          	and	a5,t1,a5
   10ec0:	00080613          	addi	a2,a6,0
   10ec4:	00079663          	bne	a5,zero,10ed0 <pat_insert+0x4a0>
   10ec8:	00068613          	addi	a2,a3,0
   10ecc:	00080693          	addi	a3,a6,0
   10ed0:	00d82623          	sw	a3,12(a6)
   10ed4:	00c82823          	sw	a2,16(a6)
   10ed8:	00080693          	addi	a3,a6,0
   10edc:	00d8a823          	sw	a3,16(a7)
   10ee0:	c75ff06f          	jal	zero,10b54 <pat_insert+0x124>
   10ee4:	00c804a3          	sb	a2,9(a6)
   10ee8:	00f377b3          	and	a5,t1,a5
   10eec:	00080613          	addi	a2,a6,0
   10ef0:	00079663          	bne	a5,zero,10efc <pat_insert+0x4cc>
   10ef4:	00068613          	addi	a2,a3,0
   10ef8:	00080693          	addi	a3,a6,0
   10efc:	00d82623          	sw	a3,12(a6)
   10f00:	00c82823          	sw	a2,16(a6)
   10f04:	00080693          	addi	a3,a6,0
   10f08:	00d8a623          	sw	a3,12(a7)
   10f0c:	f41ff06f          	jal	zero,10e4c <pat_insert+0x41c>
   10f10:	00000e13          	addi	t3,zero,0
   10f14:	dc1ff06f          	jal	zero,10cd4 <pat_insert+0x2a4>
   10f18:	87c1a683          	lw	a3,-1924(gp) # 6d734 <mask_count>
   10f1c:	000037b7          	lui	a5,0x3
   10f20:	ee078793          	addi	a5,a5,-288 # 2ee0 <exit-0xd1d4>
   10f24:	00168513          	addi	a0,a3,1
   10f28:	0ea7cc63          	blt	a5,a0,11020 <pat_insert+0x5f0>
   10f2c:	0009c837          	lui	a6,0x9c
   10f30:	00369793          	slli	a5,a3,0x3
   10f34:	58080693          	addi	a3,a6,1408 # 9c580 <static_masks>
   10f38:	00d787b3          	add	a5,a5,a3
   10f3c:	86a1ae23          	sw	a0,-1924(gp) # 6d734 <mask_count>
   10f40:	00078e13          	addi	t3,a5,0
   10f44:	e79ff06f          	jal	zero,10dbc <pat_insert+0x38c>
   10f48:	00064683          	lbu	a3,0(a2)
   10f4c:	00d78023          	sb	a3,0(a5)
   10f50:	00164683          	lbu	a3,1(a2)
   10f54:	00d780a3          	sb	a3,1(a5)
   10f58:	00264683          	lbu	a3,2(a2)
   10f5c:	00d78123          	sb	a3,2(a5)
   10f60:	00364683          	lbu	a3,3(a2)
   10f64:	00d781a3          	sb	a3,3(a5)
   10f68:	00464683          	lbu	a3,4(a2)
   10f6c:	00d78223          	sb	a3,4(a5)
   10f70:	00564683          	lbu	a3,5(a2)
   10f74:	00d782a3          	sb	a3,5(a5)
   10f78:	00664683          	lbu	a3,6(a2)
   10f7c:	00d78323          	sb	a3,6(a5)
   10f80:	00764683          	lbu	a3,7(a2)
   10f84:	00d783a3          	sb	a3,7(a5)
   10f88:	00874683          	lbu	a3,8(a4)
   10f8c:	e5dff06f          	jal	zero,10de8 <pat_insert+0x3b8>
   10f90:	00c6a503          	lw	a0,12(a3)
   10f94:	00080593          	addi	a1,a6,0
   10f98:	00d12223          	sw	a3,4(sp)
   10f9c:	01012023          	sw	a6,0(sp)
   10fa0:	8edff0ef          	jal	ra,1088c <insertR>
   10fa4:	00412683          	lw	a3,4(sp)
   10fa8:	00812883          	lw	a7,8(sp)
   10fac:	00c12703          	lw	a4,12(sp)
   10fb0:	00a6a623          	sw	a0,12(a3)
   10fb4:	00012803          	lw	a6,0(sp)
   10fb8:	00d8a823          	sw	a3,16(a7)
   10fbc:	b99ff06f          	jal	zero,10b54 <pat_insert+0x124>
   10fc0:	00c6a503          	lw	a0,12(a3)
   10fc4:	00080593          	addi	a1,a6,0
   10fc8:	00d12223          	sw	a3,4(sp)
   10fcc:	01012023          	sw	a6,0(sp)
   10fd0:	8bdff0ef          	jal	ra,1088c <insertR>
   10fd4:	00412683          	lw	a3,4(sp)
   10fd8:	00812883          	lw	a7,8(sp)
   10fdc:	00c12703          	lw	a4,12(sp)
   10fe0:	00a6a623          	sw	a0,12(a3)
   10fe4:	00012803          	lw	a6,0(sp)
   10fe8:	00d8a823          	sw	a3,16(a7)
   10fec:	be9ff06f          	jal	zero,10bd4 <pat_insert+0x1a4>
   10ff0:	00c6a503          	lw	a0,12(a3)
   10ff4:	00080593          	addi	a1,a6,0
   10ff8:	00d12223          	sw	a3,4(sp)
   10ffc:	01012023          	sw	a6,0(sp)
   11000:	88dff0ef          	jal	ra,1088c <insertR>
   11004:	00412683          	lw	a3,4(sp)
   11008:	00812883          	lw	a7,8(sp)
   1100c:	00c12703          	lw	a4,12(sp)
   11010:	00a6a623          	sw	a0,12(a3)
   11014:	00012803          	lw	a6,0(sp)
   11018:	00d8a623          	sw	a3,12(a7)
   1101c:	e31ff06f          	jal	zero,10e4c <pat_insert+0x41c>
   11020:	00000793          	addi	a5,zero,0
   11024:	00078e13          	addi	t3,a5,0
   11028:	d95ff06f          	jal	zero,10dbc <pat_insert+0x38c>

0001102c <pat_remove>:
   1102c:	00050463          	beq	a0,zero,11034 <pat_remove+0x8>
   11030:	00000513          	addi	a0,zero,0
   11034:	00008067          	jalr	zero,0(ra)

00011038 <pat_search>:
   11038:	00050613          	addi	a2,a0,0
   1103c:	08058863          	beq	a1,zero,110cc <pat_search+0x94>
   11040:	0045a703          	lw	a4,4(a1)
   11044:	0095c683          	lbu	a3,9(a1)
   11048:	0005a803          	lw	a6,0(a1)
   1104c:	00072703          	lw	a4,0(a4)
   11050:	800008b7          	lui	a7,0x80000
   11054:	00d8d7b3          	srl	a5,a7,a3
   11058:	00e67733          	and	a4,a2,a4
   1105c:	00000513          	addi	a0,zero,0
   11060:	00c7f7b3          	and	a5,a5,a2
   11064:	03070a63          	beq	a4,a6,11098 <pat_search+0x60>
   11068:	02078c63          	beq	a5,zero,110a0 <pat_search+0x68>
   1106c:	0105a583          	lw	a1,16(a1)
   11070:	0095c783          	lbu	a5,9(a1)
   11074:	02f6fc63          	bgeu	a3,a5,110ac <pat_search+0x74>
   11078:	0045a703          	lw	a4,4(a1)
   1107c:	0005a803          	lw	a6,0(a1)
   11080:	00078693          	addi	a3,a5,0
   11084:	00072703          	lw	a4,0(a4)
   11088:	00d8d7b3          	srl	a5,a7,a3
   1108c:	00c7f7b3          	and	a5,a5,a2
   11090:	00e67733          	and	a4,a2,a4
   11094:	fd071ae3          	bne	a4,a6,11068 <pat_search+0x30>
   11098:	00058513          	addi	a0,a1,0
   1109c:	fc0798e3          	bne	a5,zero,1106c <pat_search+0x34>
   110a0:	00c5a583          	lw	a1,12(a1)
   110a4:	0095c783          	lbu	a5,9(a1)
   110a8:	fcf6e8e3          	bltu	a3,a5,11078 <pat_search+0x40>
   110ac:	0045a703          	lw	a4,4(a1)
   110b0:	0005a783          	lw	a5,0(a1)
   110b4:	00072703          	lw	a4,0(a4)
   110b8:	00e67633          	and	a2,a2,a4
   110bc:	00c78463          	beq	a5,a2,110c4 <pat_search+0x8c>
   110c0:	00008067          	jalr	zero,0(ra)
   110c4:	00058513          	addi	a0,a1,0
   110c8:	00008067          	jalr	zero,0(ra)
   110cc:	00000513          	addi	a0,zero,0
   110d0:	00008067          	jalr	zero,0(ra)

000110d4 <__adddf3>:
   110d4:	00100737          	lui	a4,0x100
   110d8:	fe010113          	addi	sp,sp,-32
   110dc:	fff70713          	addi	a4,a4,-1 # fffff <__BSS_END__+0x1170f>
   110e0:	00b777b3          	and	a5,a4,a1
   110e4:	0146d893          	srli	a7,a3,0x14
   110e8:	00d77733          	and	a4,a4,a3
   110ec:	00812c23          	sw	s0,24(sp)
   110f0:	0145d413          	srli	s0,a1,0x14
   110f4:	00371713          	slli	a4,a4,0x3
   110f8:	01d65813          	srli	a6,a2,0x1d
   110fc:	01212823          	sw	s2,16(sp)
   11100:	7ff47413          	andi	s0,s0,2047
   11104:	01f5d913          	srli	s2,a1,0x1f
   11108:	00379793          	slli	a5,a5,0x3
   1110c:	01d55593          	srli	a1,a0,0x1d
   11110:	7ff8f893          	andi	a7,a7,2047
   11114:	00112e23          	sw	ra,28(sp)
   11118:	00912a23          	sw	s1,20(sp)
   1111c:	01312623          	sw	s3,12(sp)
   11120:	01f6d693          	srli	a3,a3,0x1f
   11124:	00f5e7b3          	or	a5,a1,a5
   11128:	00e86833          	or	a6,a6,a4
   1112c:	00351513          	slli	a0,a0,0x3
   11130:	00361613          	slli	a2,a2,0x3
   11134:	41140733          	sub	a4,s0,a7
   11138:	7ff00593          	addi	a1,zero,2047
   1113c:	30d91463          	bne	s2,a3,11444 <__adddf3+0x370>
   11140:	10e05263          	bge	zero,a4,11244 <__adddf3+0x170>
   11144:	02089c63          	bne	a7,zero,1117c <__adddf3+0xa8>
   11148:	00c86733          	or	a4,a6,a2
   1114c:	02070463          	beq	a4,zero,11174 <__adddf3+0xa0>
   11150:	fff40713          	addi	a4,s0,-1
   11154:	00071e63          	bne	a4,zero,11170 <__adddf3+0x9c>
   11158:	00c50633          	add	a2,a0,a2
   1115c:	010787b3          	add	a5,a5,a6
   11160:	00a63533          	sltu	a0,a2,a0
   11164:	00a787b3          	add	a5,a5,a0
   11168:	00100413          	addi	s0,zero,1
   1116c:	0600006f          	jal	zero,111cc <__adddf3+0xf8>
   11170:	00b41c63          	bne	s0,a1,11188 <__adddf3+0xb4>
   11174:	00050613          	addi	a2,a0,0
   11178:	1d80006f          	jal	zero,11350 <__adddf3+0x27c>
   1117c:	feb40ce3          	beq	s0,a1,11174 <__adddf3+0xa0>
   11180:	008006b7          	lui	a3,0x800
   11184:	00d86833          	or	a6,a6,a3
   11188:	03800693          	addi	a3,zero,56
   1118c:	0ae6c663          	blt	a3,a4,11238 <__adddf3+0x164>
   11190:	01f00693          	addi	a3,zero,31
   11194:	02000893          	addi	a7,zero,32
   11198:	06e6c863          	blt	a3,a4,11208 <__adddf3+0x134>
   1119c:	40e888b3          	sub	a7,a7,a4
   111a0:	011816b3          	sll	a3,a6,a7
   111a4:	00e655b3          	srl	a1,a2,a4
   111a8:	011618b3          	sll	a7,a2,a7
   111ac:	00b6e6b3          	or	a3,a3,a1
   111b0:	011038b3          	sltu	a7,zero,a7
   111b4:	0116e6b3          	or	a3,a3,a7
   111b8:	00e85733          	srl	a4,a6,a4
   111bc:	00a68633          	add	a2,a3,a0
   111c0:	00f70733          	add	a4,a4,a5
   111c4:	00d636b3          	sltu	a3,a2,a3
   111c8:	00d707b3          	add	a5,a4,a3
   111cc:	00879713          	slli	a4,a5,0x8
   111d0:	22075663          	bge	a4,zero,113fc <__adddf3+0x328>
   111d4:	00140413          	addi	s0,s0,1
   111d8:	7ff00713          	addi	a4,zero,2047
   111dc:	60e40863          	beq	s0,a4,117ec <__adddf3+0x718>
   111e0:	ff800737          	lui	a4,0xff800
   111e4:	fff70713          	addi	a4,a4,-1 # ff7fffff <__BSS_END__+0xff71170f>
   111e8:	00e7f7b3          	and	a5,a5,a4
   111ec:	00165713          	srli	a4,a2,0x1
   111f0:	00167613          	andi	a2,a2,1
   111f4:	00c76733          	or	a4,a4,a2
   111f8:	01f79613          	slli	a2,a5,0x1f
   111fc:	00e66633          	or	a2,a2,a4
   11200:	0017d793          	srli	a5,a5,0x1
   11204:	1f80006f          	jal	zero,113fc <__adddf3+0x328>
   11208:	fe070693          	addi	a3,a4,-32
   1120c:	00d856b3          	srl	a3,a6,a3
   11210:	00000593          	addi	a1,zero,0
   11214:	01170863          	beq	a4,a7,11224 <__adddf3+0x150>
   11218:	04000593          	addi	a1,zero,64
   1121c:	40e585b3          	sub	a1,a1,a4
   11220:	00b815b3          	sll	a1,a6,a1
   11224:	00c5e5b3          	or	a1,a1,a2
   11228:	00b035b3          	sltu	a1,zero,a1
   1122c:	00b6e6b3          	or	a3,a3,a1
   11230:	00000713          	addi	a4,zero,0
   11234:	f89ff06f          	jal	zero,111bc <__adddf3+0xe8>
   11238:	00c866b3          	or	a3,a6,a2
   1123c:	00d036b3          	sltu	a3,zero,a3
   11240:	ff1ff06f          	jal	zero,11230 <__adddf3+0x15c>
   11244:	0c070263          	beq	a4,zero,11308 <__adddf3+0x234>
   11248:	40888733          	sub	a4,a7,s0
   1124c:	02041263          	bne	s0,zero,11270 <__adddf3+0x19c>
   11250:	00a7e6b3          	or	a3,a5,a0
   11254:	00068863          	beq	a3,zero,11264 <__adddf3+0x190>
   11258:	fff70693          	addi	a3,a4,-1
   1125c:	ee068ee3          	beq	a3,zero,11158 <__adddf3+0x84>
   11260:	02b71063          	bne	a4,a1,11280 <__adddf3+0x1ac>
   11264:	00080793          	addi	a5,a6,0
   11268:	00070413          	addi	s0,a4,0
   1126c:	0e40006f          	jal	zero,11350 <__adddf3+0x27c>
   11270:	58b88663          	beq	a7,a1,117fc <__adddf3+0x728>
   11274:	008006b7          	lui	a3,0x800
   11278:	00d7e7b3          	or	a5,a5,a3
   1127c:	00070693          	addi	a3,a4,0
   11280:	03800713          	addi	a4,zero,56
   11284:	06d74c63          	blt	a4,a3,112fc <__adddf3+0x228>
   11288:	01f00713          	addi	a4,zero,31
   1128c:	02000313          	addi	t1,zero,32
   11290:	02d74e63          	blt	a4,a3,112cc <__adddf3+0x1f8>
   11294:	40d30333          	sub	t1,t1,a3
   11298:	00679733          	sll	a4,a5,t1
   1129c:	00d555b3          	srl	a1,a0,a3
   112a0:	00651333          	sll	t1,a0,t1
   112a4:	00b76733          	or	a4,a4,a1
   112a8:	00603333          	sltu	t1,zero,t1
   112ac:	00676733          	or	a4,a4,t1
   112b0:	00d7d6b3          	srl	a3,a5,a3
   112b4:	00c70633          	add	a2,a4,a2
   112b8:	010686b3          	add	a3,a3,a6
   112bc:	00e63733          	sltu	a4,a2,a4
   112c0:	00e687b3          	add	a5,a3,a4
   112c4:	00088413          	addi	s0,a7,0 # 80000000 <__BSS_END__+0x7ff11710>
   112c8:	f05ff06f          	jal	zero,111cc <__adddf3+0xf8>
   112cc:	fe068713          	addi	a4,a3,-32 # 7fffe0 <__BSS_END__+0x7116f0>
   112d0:	00e7d733          	srl	a4,a5,a4
   112d4:	00000593          	addi	a1,zero,0
   112d8:	00668863          	beq	a3,t1,112e8 <__adddf3+0x214>
   112dc:	04000593          	addi	a1,zero,64
   112e0:	40d585b3          	sub	a1,a1,a3
   112e4:	00b795b3          	sll	a1,a5,a1
   112e8:	00a5e5b3          	or	a1,a1,a0
   112ec:	00b035b3          	sltu	a1,zero,a1
   112f0:	00b76733          	or	a4,a4,a1
   112f4:	00000693          	addi	a3,zero,0
   112f8:	fbdff06f          	jal	zero,112b4 <__adddf3+0x1e0>
   112fc:	00a7e733          	or	a4,a5,a0
   11300:	00e03733          	sltu	a4,zero,a4
   11304:	ff1ff06f          	jal	zero,112f4 <__adddf3+0x220>
   11308:	00140713          	addi	a4,s0,1
   1130c:	7fe77693          	andi	a3,a4,2046
   11310:	0c069263          	bne	a3,zero,113d4 <__adddf3+0x300>
   11314:	00a7e733          	or	a4,a5,a0
   11318:	0a041463          	bne	s0,zero,113c0 <__adddf3+0x2ec>
   1131c:	4a070863          	beq	a4,zero,117cc <__adddf3+0x6f8>
   11320:	00c86733          	or	a4,a6,a2
   11324:	4a070863          	beq	a4,zero,117d4 <__adddf3+0x700>
   11328:	00c50633          	add	a2,a0,a2
   1132c:	010787b3          	add	a5,a5,a6
   11330:	00a63533          	sltu	a0,a2,a0
   11334:	00a787b3          	add	a5,a5,a0
   11338:	00879713          	slli	a4,a5,0x8
   1133c:	32075a63          	bge	a4,zero,11670 <__adddf3+0x59c>
   11340:	ff800737          	lui	a4,0xff800
   11344:	fff70713          	addi	a4,a4,-1 # ff7fffff <__BSS_END__+0xff71170f>
   11348:	00e7f7b3          	and	a5,a5,a4
   1134c:	00100413          	addi	s0,zero,1
   11350:	01d79713          	slli	a4,a5,0x1d
   11354:	00365613          	srli	a2,a2,0x3
   11358:	7ff00693          	addi	a3,zero,2047
   1135c:	00c76733          	or	a4,a4,a2
   11360:	0037d793          	srli	a5,a5,0x3
   11364:	00d41e63          	bne	s0,a3,11380 <__adddf3+0x2ac>
   11368:	00f76733          	or	a4,a4,a5
   1136c:	00000793          	addi	a5,zero,0
   11370:	00070863          	beq	a4,zero,11380 <__adddf3+0x2ac>
   11374:	000807b7          	lui	a5,0x80
   11378:	00000713          	addi	a4,zero,0
   1137c:	00000913          	addi	s2,zero,0
   11380:	7ff47413          	andi	s0,s0,2047
   11384:	00c79793          	slli	a5,a5,0xc
   11388:	00c7d793          	srli	a5,a5,0xc
   1138c:	01441413          	slli	s0,s0,0x14
   11390:	01f91593          	slli	a1,s2,0x1f
   11394:	00f46433          	or	s0,s0,a5
   11398:	01c12083          	lw	ra,28(sp)
   1139c:	00b467b3          	or	a5,s0,a1
   113a0:	01812403          	lw	s0,24(sp)
   113a4:	01412483          	lw	s1,20(sp)
   113a8:	01012903          	lw	s2,16(sp)
   113ac:	00c12983          	lw	s3,12(sp)
   113b0:	00070513          	addi	a0,a4,0
   113b4:	00078593          	addi	a1,a5,0 # 80000 <__global_pointer$+0x12148>
   113b8:	02010113          	addi	sp,sp,32
   113bc:	00008067          	jalr	zero,0(ra)
   113c0:	40070e63          	beq	a4,zero,117dc <__adddf3+0x708>
   113c4:	00c86833          	or	a6,a6,a2
   113c8:	2c081c63          	bne	a6,zero,116a0 <__adddf3+0x5cc>
   113cc:	00050613          	addi	a2,a0,0
   113d0:	4100006f          	jal	zero,117e0 <__adddf3+0x70c>
   113d4:	40b70a63          	beq	a4,a1,117e8 <__adddf3+0x714>
   113d8:	00c50633          	add	a2,a0,a2
   113dc:	00a63533          	sltu	a0,a2,a0
   113e0:	010787b3          	add	a5,a5,a6
   113e4:	00a787b3          	add	a5,a5,a0
   113e8:	01f79693          	slli	a3,a5,0x1f
   113ec:	00165613          	srli	a2,a2,0x1
   113f0:	00c6e633          	or	a2,a3,a2
   113f4:	0017d793          	srli	a5,a5,0x1
   113f8:	00070413          	addi	s0,a4,0
   113fc:	00767713          	andi	a4,a2,7
   11400:	02070063          	beq	a4,zero,11420 <__adddf3+0x34c>
   11404:	00f67713          	andi	a4,a2,15
   11408:	00400693          	addi	a3,zero,4
   1140c:	00d70a63          	beq	a4,a3,11420 <__adddf3+0x34c>
   11410:	00d60733          	add	a4,a2,a3
   11414:	00c736b3          	sltu	a3,a4,a2
   11418:	00d787b3          	add	a5,a5,a3
   1141c:	00070613          	addi	a2,a4,0
   11420:	00879713          	slli	a4,a5,0x8
   11424:	f20756e3          	bge	a4,zero,11350 <__adddf3+0x27c>
   11428:	00140413          	addi	s0,s0,1
   1142c:	7ff00713          	addi	a4,zero,2047
   11430:	3ae40e63          	beq	s0,a4,117ec <__adddf3+0x718>
   11434:	ff800737          	lui	a4,0xff800
   11438:	fff70713          	addi	a4,a4,-1 # ff7fffff <__BSS_END__+0xff71170f>
   1143c:	00e7f7b3          	and	a5,a5,a4
   11440:	f11ff06f          	jal	zero,11350 <__adddf3+0x27c>
   11444:	0ee05063          	bge	zero,a4,11524 <__adddf3+0x450>
   11448:	08089863          	bne	a7,zero,114d8 <__adddf3+0x404>
   1144c:	00c86733          	or	a4,a6,a2
   11450:	d20702e3          	beq	a4,zero,11174 <__adddf3+0xa0>
   11454:	fff40713          	addi	a4,s0,-1
   11458:	00071e63          	bne	a4,zero,11474 <__adddf3+0x3a0>
   1145c:	40c50633          	sub	a2,a0,a2
   11460:	410787b3          	sub	a5,a5,a6
   11464:	00c53533          	sltu	a0,a0,a2
   11468:	40a787b3          	sub	a5,a5,a0
   1146c:	00100413          	addi	s0,zero,1
   11470:	04c0006f          	jal	zero,114bc <__adddf3+0x3e8>
   11474:	d0b400e3          	beq	s0,a1,11174 <__adddf3+0xa0>
   11478:	03800693          	addi	a3,zero,56
   1147c:	08e6ce63          	blt	a3,a4,11518 <__adddf3+0x444>
   11480:	01f00693          	addi	a3,zero,31
   11484:	02000893          	addi	a7,zero,32
   11488:	06e6c063          	blt	a3,a4,114e8 <__adddf3+0x414>
   1148c:	40e888b3          	sub	a7,a7,a4
   11490:	011816b3          	sll	a3,a6,a7
   11494:	00e655b3          	srl	a1,a2,a4
   11498:	011618b3          	sll	a7,a2,a7
   1149c:	00b6e6b3          	or	a3,a3,a1
   114a0:	011038b3          	sltu	a7,zero,a7
   114a4:	0116e6b3          	or	a3,a3,a7
   114a8:	00e85733          	srl	a4,a6,a4
   114ac:	40d50633          	sub	a2,a0,a3
   114b0:	40e78733          	sub	a4,a5,a4
   114b4:	00c53533          	sltu	a0,a0,a2
   114b8:	40a707b3          	sub	a5,a4,a0
   114bc:	00879713          	slli	a4,a5,0x8
   114c0:	f2075ee3          	bge	a4,zero,113fc <__adddf3+0x328>
   114c4:	008004b7          	lui	s1,0x800
   114c8:	fff48493          	addi	s1,s1,-1 # 7fffff <__BSS_END__+0x71170f>
   114cc:	0097f4b3          	and	s1,a5,s1
   114d0:	00060993          	addi	s3,a2,0
   114d4:	2140006f          	jal	zero,116e8 <__adddf3+0x614>
   114d8:	c8b40ee3          	beq	s0,a1,11174 <__adddf3+0xa0>
   114dc:	008006b7          	lui	a3,0x800
   114e0:	00d86833          	or	a6,a6,a3
   114e4:	f95ff06f          	jal	zero,11478 <__adddf3+0x3a4>
   114e8:	fe070693          	addi	a3,a4,-32
   114ec:	00d856b3          	srl	a3,a6,a3
   114f0:	00000593          	addi	a1,zero,0
   114f4:	01170863          	beq	a4,a7,11504 <__adddf3+0x430>
   114f8:	04000593          	addi	a1,zero,64
   114fc:	40e585b3          	sub	a1,a1,a4
   11500:	00b815b3          	sll	a1,a6,a1
   11504:	00c5e5b3          	or	a1,a1,a2
   11508:	00b035b3          	sltu	a1,zero,a1
   1150c:	00b6e6b3          	or	a3,a3,a1
   11510:	00000713          	addi	a4,zero,0
   11514:	f99ff06f          	jal	zero,114ac <__adddf3+0x3d8>
   11518:	00c866b3          	or	a3,a6,a2
   1151c:	00d036b3          	sltu	a3,zero,a3
   11520:	ff1ff06f          	jal	zero,11510 <__adddf3+0x43c>
   11524:	0e070663          	beq	a4,zero,11610 <__adddf3+0x53c>
   11528:	40888333          	sub	t1,a7,s0
   1152c:	04041263          	bne	s0,zero,11570 <__adddf3+0x49c>
   11530:	00a7e733          	or	a4,a5,a0
   11534:	02070663          	beq	a4,zero,11560 <__adddf3+0x48c>
   11538:	fff30713          	addi	a4,t1,-1
   1153c:	02071063          	bne	a4,zero,1155c <__adddf3+0x488>
   11540:	40a60533          	sub	a0,a2,a0
   11544:	00a63733          	sltu	a4,a2,a0
   11548:	40f807b3          	sub	a5,a6,a5
   1154c:	00050613          	addi	a2,a0,0
   11550:	40e787b3          	sub	a5,a5,a4
   11554:	00068913          	addi	s2,a3,0 # 800000 <__BSS_END__+0x711710>
   11558:	f15ff06f          	jal	zero,1146c <__adddf3+0x398>
   1155c:	02b31263          	bne	t1,a1,11580 <__adddf3+0x4ac>
   11560:	00068913          	addi	s2,a3,0
   11564:	00080793          	addi	a5,a6,0
   11568:	00030413          	addi	s0,t1,0
   1156c:	de5ff06f          	jal	zero,11350 <__adddf3+0x27c>
   11570:	28b88463          	beq	a7,a1,117f8 <__adddf3+0x724>
   11574:	00800737          	lui	a4,0x800
   11578:	00e7e7b3          	or	a5,a5,a4
   1157c:	00030713          	addi	a4,t1,0
   11580:	03800593          	addi	a1,zero,56
   11584:	08e5c063          	blt	a1,a4,11604 <__adddf3+0x530>
   11588:	01f00593          	addi	a1,zero,31
   1158c:	02000e13          	addi	t3,zero,32
   11590:	04e5c263          	blt	a1,a4,115d4 <__adddf3+0x500>
   11594:	40ee0e33          	sub	t3,t3,a4
   11598:	01c795b3          	sll	a1,a5,t3
   1159c:	00e55333          	srl	t1,a0,a4
   115a0:	01c51e33          	sll	t3,a0,t3
   115a4:	0065e5b3          	or	a1,a1,t1
   115a8:	01c03e33          	sltu	t3,zero,t3
   115ac:	01c5e5b3          	or	a1,a1,t3
   115b0:	00e7d733          	srl	a4,a5,a4
   115b4:	40b605b3          	sub	a1,a2,a1
   115b8:	00b637b3          	sltu	a5,a2,a1
   115bc:	40e80733          	sub	a4,a6,a4
   115c0:	00058613          	addi	a2,a1,0
   115c4:	40f707b3          	sub	a5,a4,a5
   115c8:	00088413          	addi	s0,a7,0
   115cc:	00068913          	addi	s2,a3,0
   115d0:	eedff06f          	jal	zero,114bc <__adddf3+0x3e8>
   115d4:	fe070593          	addi	a1,a4,-32 # 7fffe0 <__BSS_END__+0x7116f0>
   115d8:	00b7d5b3          	srl	a1,a5,a1
   115dc:	00000313          	addi	t1,zero,0
   115e0:	01c70863          	beq	a4,t3,115f0 <__adddf3+0x51c>
   115e4:	04000313          	addi	t1,zero,64
   115e8:	40e30333          	sub	t1,t1,a4
   115ec:	00679333          	sll	t1,a5,t1
   115f0:	00a36333          	or	t1,t1,a0
   115f4:	00603333          	sltu	t1,zero,t1
   115f8:	0065e5b3          	or	a1,a1,t1
   115fc:	00000713          	addi	a4,zero,0
   11600:	fb5ff06f          	jal	zero,115b4 <__adddf3+0x4e0>
   11604:	00a7e5b3          	or	a1,a5,a0
   11608:	00b035b3          	sltu	a1,zero,a1
   1160c:	ff1ff06f          	jal	zero,115fc <__adddf3+0x528>
   11610:	00140713          	addi	a4,s0,1
   11614:	7fe77713          	andi	a4,a4,2046
   11618:	0a071063          	bne	a4,zero,116b8 <__adddf3+0x5e4>
   1161c:	00a7e8b3          	or	a7,a5,a0
   11620:	00c86733          	or	a4,a6,a2
   11624:	06041863          	bne	s0,zero,11694 <__adddf3+0x5c0>
   11628:	00089a63          	bne	a7,zero,1163c <__adddf3+0x568>
   1162c:	00080793          	addi	a5,a6,0
   11630:	02071e63          	bne	a4,zero,1166c <__adddf3+0x598>
   11634:	00000913          	addi	s2,zero,0
   11638:	1b40006f          	jal	zero,117ec <__adddf3+0x718>
   1163c:	18070c63          	beq	a4,zero,117d4 <__adddf3+0x700>
   11640:	40c505b3          	sub	a1,a0,a2
   11644:	00b538b3          	sltu	a7,a0,a1
   11648:	41078733          	sub	a4,a5,a6
   1164c:	41170733          	sub	a4,a4,a7
   11650:	00871893          	slli	a7,a4,0x8
   11654:	0208d663          	bge	a7,zero,11680 <__adddf3+0x5ac>
   11658:	40a60533          	sub	a0,a2,a0
   1165c:	00a63733          	sltu	a4,a2,a0
   11660:	40f807b3          	sub	a5,a6,a5
   11664:	00050613          	addi	a2,a0,0
   11668:	40e787b3          	sub	a5,a5,a4
   1166c:	00068913          	addi	s2,a3,0
   11670:	00f66733          	or	a4,a2,a5
   11674:	1a070063          	beq	a4,zero,11814 <__adddf3+0x740>
   11678:	00000413          	addi	s0,zero,0
   1167c:	d81ff06f          	jal	zero,113fc <__adddf3+0x328>
   11680:	00e5e633          	or	a2,a1,a4
   11684:	18060263          	beq	a2,zero,11808 <__adddf3+0x734>
   11688:	00070793          	addi	a5,a4,0
   1168c:	00058613          	addi	a2,a1,0
   11690:	fe1ff06f          	jal	zero,11670 <__adddf3+0x59c>
   11694:	00089e63          	bne	a7,zero,116b0 <__adddf3+0x5dc>
   11698:	00068913          	addi	s2,a3,0
   1169c:	14071063          	bne	a4,zero,117dc <__adddf3+0x708>
   116a0:	00000913          	addi	s2,zero,0
   116a4:	004007b7          	lui	a5,0x400
   116a8:	00000613          	addi	a2,zero,0
   116ac:	1340006f          	jal	zero,117e0 <__adddf3+0x70c>
   116b0:	d0070ee3          	beq	a4,zero,113cc <__adddf3+0x2f8>
   116b4:	fedff06f          	jal	zero,116a0 <__adddf3+0x5cc>
   116b8:	40c50733          	sub	a4,a0,a2
   116bc:	00e535b3          	sltu	a1,a0,a4
   116c0:	410784b3          	sub	s1,a5,a6
   116c4:	40b484b3          	sub	s1,s1,a1
   116c8:	00849593          	slli	a1,s1,0x8
   116cc:	00070993          	addi	s3,a4,0
   116d0:	0605de63          	bge	a1,zero,1174c <__adddf3+0x678>
   116d4:	40a609b3          	sub	s3,a2,a0
   116d8:	40f804b3          	sub	s1,a6,a5
   116dc:	01363633          	sltu	a2,a2,s3
   116e0:	40c484b3          	sub	s1,s1,a2
   116e4:	00068913          	addi	s2,a3,0
   116e8:	06048e63          	beq	s1,zero,11764 <__adddf3+0x690>
   116ec:	00048513          	addi	a0,s1,0
   116f0:	08c010ef          	jal	ra,1277c <__clzsi2>
   116f4:	ff850713          	addi	a4,a0,-8
   116f8:	02000793          	addi	a5,zero,32
   116fc:	40e787b3          	sub	a5,a5,a4
   11700:	00e494b3          	sll	s1,s1,a4
   11704:	00f9d7b3          	srl	a5,s3,a5
   11708:	0097e7b3          	or	a5,a5,s1
   1170c:	00e99633          	sll	a2,s3,a4
   11710:	0a874463          	blt	a4,s0,117b8 <__adddf3+0x6e4>
   11714:	40870733          	sub	a4,a4,s0
   11718:	00170513          	addi	a0,a4,1
   1171c:	01f00693          	addi	a3,zero,31
   11720:	02000593          	addi	a1,zero,32
   11724:	06a6c263          	blt	a3,a0,11788 <__adddf3+0x6b4>
   11728:	40a585b3          	sub	a1,a1,a0
   1172c:	00b79733          	sll	a4,a5,a1
   11730:	00a656b3          	srl	a3,a2,a0
   11734:	00b615b3          	sll	a1,a2,a1
   11738:	00d76733          	or	a4,a4,a3
   1173c:	00b035b3          	sltu	a1,zero,a1
   11740:	00b76633          	or	a2,a4,a1
   11744:	00a7d7b3          	srl	a5,a5,a0
   11748:	f29ff06f          	jal	zero,11670 <__adddf3+0x59c>
   1174c:	00976633          	or	a2,a4,s1
   11750:	f8061ce3          	bne	a2,zero,116e8 <__adddf3+0x614>
   11754:	00000913          	addi	s2,zero,0
   11758:	00000793          	addi	a5,zero,0
   1175c:	00000413          	addi	s0,zero,0
   11760:	bf1ff06f          	jal	zero,11350 <__adddf3+0x27c>
   11764:	00098513          	addi	a0,s3,0
   11768:	014010ef          	jal	ra,1277c <__clzsi2>
   1176c:	01850713          	addi	a4,a0,24
   11770:	01f00793          	addi	a5,zero,31
   11774:	f8e7d2e3          	bge	a5,a4,116f8 <__adddf3+0x624>
   11778:	ff850793          	addi	a5,a0,-8
   1177c:	00f997b3          	sll	a5,s3,a5
   11780:	00000613          	addi	a2,zero,0
   11784:	f8dff06f          	jal	zero,11710 <__adddf3+0x63c>
   11788:	fe170713          	addi	a4,a4,-31
   1178c:	00e7d733          	srl	a4,a5,a4
   11790:	00000693          	addi	a3,zero,0
   11794:	00b50863          	beq	a0,a1,117a4 <__adddf3+0x6d0>
   11798:	04000693          	addi	a3,zero,64
   1179c:	40a686b3          	sub	a3,a3,a0
   117a0:	00d796b3          	sll	a3,a5,a3
   117a4:	00d666b3          	or	a3,a2,a3
   117a8:	00d036b3          	sltu	a3,zero,a3
   117ac:	00d76633          	or	a2,a4,a3
   117b0:	00000793          	addi	a5,zero,0
   117b4:	ebdff06f          	jal	zero,11670 <__adddf3+0x59c>
   117b8:	40e40433          	sub	s0,s0,a4
   117bc:	ff800737          	lui	a4,0xff800
   117c0:	fff70713          	addi	a4,a4,-1 # ff7fffff <__BSS_END__+0xff71170f>
   117c4:	00e7f7b3          	and	a5,a5,a4
   117c8:	c35ff06f          	jal	zero,113fc <__adddf3+0x328>
   117cc:	00080793          	addi	a5,a6,0
   117d0:	ea1ff06f          	jal	zero,11670 <__adddf3+0x59c>
   117d4:	00050613          	addi	a2,a0,0
   117d8:	e99ff06f          	jal	zero,11670 <__adddf3+0x59c>
   117dc:	00080793          	addi	a5,a6,0
   117e0:	00058413          	addi	s0,a1,0
   117e4:	b6dff06f          	jal	zero,11350 <__adddf3+0x27c>
   117e8:	00070413          	addi	s0,a4,0
   117ec:	00000793          	addi	a5,zero,0
   117f0:	00000613          	addi	a2,zero,0
   117f4:	b5dff06f          	jal	zero,11350 <__adddf3+0x27c>
   117f8:	00068913          	addi	s2,a3,0
   117fc:	00080793          	addi	a5,a6,0
   11800:	00088413          	addi	s0,a7,0
   11804:	b4dff06f          	jal	zero,11350 <__adddf3+0x27c>
   11808:	00000913          	addi	s2,zero,0
   1180c:	00000793          	addi	a5,zero,0
   11810:	b41ff06f          	jal	zero,11350 <__adddf3+0x27c>
   11814:	00000793          	addi	a5,zero,0
   11818:	00000613          	addi	a2,zero,0
   1181c:	f41ff06f          	jal	zero,1175c <__adddf3+0x688>

00011820 <__divdf3>:
   11820:	fd010113          	addi	sp,sp,-48
   11824:	0145d713          	srli	a4,a1,0x14
   11828:	02812423          	sw	s0,40(sp)
   1182c:	03212023          	sw	s2,32(sp)
   11830:	01312e23          	sw	s3,28(sp)
   11834:	01512a23          	sw	s5,20(sp)
   11838:	01712623          	sw	s7,12(sp)
   1183c:	00c59413          	slli	s0,a1,0xc
   11840:	02112623          	sw	ra,44(sp)
   11844:	02912223          	sw	s1,36(sp)
   11848:	01412c23          	sw	s4,24(sp)
   1184c:	01612823          	sw	s6,16(sp)
   11850:	7ff77713          	andi	a4,a4,2047
   11854:	00050993          	addi	s3,a0,0
   11858:	00060b93          	addi	s7,a2,0
   1185c:	00068a93          	addi	s5,a3,0
   11860:	00c45413          	srli	s0,s0,0xc
   11864:	01f5d913          	srli	s2,a1,0x1f
   11868:	0a070063          	beq	a4,zero,11908 <__divdf3+0xe8>
   1186c:	7ff00793          	addi	a5,zero,2047
   11870:	10f70063          	beq	a4,a5,11970 <__divdf3+0x150>
   11874:	01d55a13          	srli	s4,a0,0x1d
   11878:	00341413          	slli	s0,s0,0x3
   1187c:	008a6a33          	or	s4,s4,s0
   11880:	008007b7          	lui	a5,0x800
   11884:	00fa6a33          	or	s4,s4,a5
   11888:	00351493          	slli	s1,a0,0x3
   1188c:	c0170993          	addi	s3,a4,-1023
   11890:	00000b13          	addi	s6,zero,0
   11894:	014ad793          	srli	a5,s5,0x14
   11898:	00ca9413          	slli	s0,s5,0xc
   1189c:	7ff7f793          	andi	a5,a5,2047
   118a0:	00c45413          	srli	s0,s0,0xc
   118a4:	01fada93          	srli	s5,s5,0x1f
   118a8:	10078263          	beq	a5,zero,119ac <__divdf3+0x18c>
   118ac:	7ff00693          	addi	a3,zero,2047
   118b0:	16d78663          	beq	a5,a3,11a1c <__divdf3+0x1fc>
   118b4:	00341413          	slli	s0,s0,0x3
   118b8:	01dbd693          	srli	a3,s7,0x1d
   118bc:	0086e6b3          	or	a3,a3,s0
   118c0:	00800437          	lui	s0,0x800
   118c4:	0086e433          	or	s0,a3,s0
   118c8:	003b9f13          	slli	t5,s7,0x3
   118cc:	c0178793          	addi	a5,a5,-1023 # 7ffc01 <__BSS_END__+0x711311>
   118d0:	00000693          	addi	a3,zero,0
   118d4:	40f98733          	sub	a4,s3,a5
   118d8:	002b1793          	slli	a5,s6,0x2
   118dc:	00d7e7b3          	or	a5,a5,a3
   118e0:	fff78793          	addi	a5,a5,-1
   118e4:	00e00613          	addi	a2,zero,14
   118e8:	01594833          	xor	a6,s2,s5
   118ec:	16f66063          	bltu	a2,a5,11a4c <__divdf3+0x22c>
   118f0:	0006c637          	lui	a2,0x6c
   118f4:	00279793          	slli	a5,a5,0x2
   118f8:	58060613          	addi	a2,a2,1408 # 6c580 <test_data+0xaa28>
   118fc:	00c787b3          	add	a5,a5,a2
   11900:	0007a783          	lw	a5,0(a5)
   11904:	00078067          	jalr	zero,0(a5)
   11908:	00a46a33          	or	s4,s0,a0
   1190c:	060a0e63          	beq	s4,zero,11988 <__divdf3+0x168>
   11910:	04040063          	beq	s0,zero,11950 <__divdf3+0x130>
   11914:	00040513          	addi	a0,s0,0 # 800000 <__BSS_END__+0x711710>
   11918:	665000ef          	jal	ra,1277c <__clzsi2>
   1191c:	00050793          	addi	a5,a0,0
   11920:	ff550713          	addi	a4,a0,-11
   11924:	01d00a13          	addi	s4,zero,29
   11928:	ff878693          	addi	a3,a5,-8
   1192c:	40ea0a33          	sub	s4,s4,a4
   11930:	00d41433          	sll	s0,s0,a3
   11934:	0149da33          	srl	s4,s3,s4
   11938:	008a6a33          	or	s4,s4,s0
   1193c:	00d99433          	sll	s0,s3,a3
   11940:	c0d00713          	addi	a4,zero,-1011
   11944:	40f709b3          	sub	s3,a4,a5
   11948:	00040493          	addi	s1,s0,0
   1194c:	f45ff06f          	jal	zero,11890 <__divdf3+0x70>
   11950:	62d000ef          	jal	ra,1277c <__clzsi2>
   11954:	01550713          	addi	a4,a0,21
   11958:	01c00693          	addi	a3,zero,28
   1195c:	02050793          	addi	a5,a0,32
   11960:	fce6d2e3          	bge	a3,a4,11924 <__divdf3+0x104>
   11964:	ff850513          	addi	a0,a0,-8
   11968:	00a99a33          	sll	s4,s3,a0
   1196c:	fd5ff06f          	jal	zero,11940 <__divdf3+0x120>
   11970:	00a46a33          	or	s4,s0,a0
   11974:	020a1263          	bne	s4,zero,11998 <__divdf3+0x178>
   11978:	00000493          	addi	s1,zero,0
   1197c:	00070993          	addi	s3,a4,0
   11980:	00200b13          	addi	s6,zero,2
   11984:	f11ff06f          	jal	zero,11894 <__divdf3+0x74>
   11988:	00000493          	addi	s1,zero,0
   1198c:	00000993          	addi	s3,zero,0
   11990:	00100b13          	addi	s6,zero,1
   11994:	f01ff06f          	jal	zero,11894 <__divdf3+0x74>
   11998:	00050493          	addi	s1,a0,0
   1199c:	00040a13          	addi	s4,s0,0
   119a0:	00070993          	addi	s3,a4,0
   119a4:	00300b13          	addi	s6,zero,3
   119a8:	eedff06f          	jal	zero,11894 <__divdf3+0x74>
   119ac:	01746f33          	or	t5,s0,s7
   119b0:	080f0063          	beq	t5,zero,11a30 <__divdf3+0x210>
   119b4:	04040263          	beq	s0,zero,119f8 <__divdf3+0x1d8>
   119b8:	00040513          	addi	a0,s0,0
   119bc:	5c1000ef          	jal	ra,1277c <__clzsi2>
   119c0:	00050693          	addi	a3,a0,0
   119c4:	ff550793          	addi	a5,a0,-11
   119c8:	01d00593          	addi	a1,zero,29
   119cc:	ff868613          	addi	a2,a3,-8
   119d0:	40f585b3          	sub	a1,a1,a5
   119d4:	00c41433          	sll	s0,s0,a2
   119d8:	00bbd5b3          	srl	a1,s7,a1
   119dc:	0085e5b3          	or	a1,a1,s0
   119e0:	00cb9433          	sll	s0,s7,a2
   119e4:	c0d00793          	addi	a5,zero,-1011
   119e8:	00040f13          	addi	t5,s0,0
   119ec:	40d787b3          	sub	a5,a5,a3
   119f0:	00058413          	addi	s0,a1,0
   119f4:	eddff06f          	jal	zero,118d0 <__divdf3+0xb0>
   119f8:	000b8513          	addi	a0,s7,0
   119fc:	581000ef          	jal	ra,1277c <__clzsi2>
   11a00:	01550793          	addi	a5,a0,21
   11a04:	01c00613          	addi	a2,zero,28
   11a08:	02050693          	addi	a3,a0,32
   11a0c:	faf65ee3          	bge	a2,a5,119c8 <__divdf3+0x1a8>
   11a10:	ff850593          	addi	a1,a0,-8
   11a14:	00bb95b3          	sll	a1,s7,a1
   11a18:	fcdff06f          	jal	zero,119e4 <__divdf3+0x1c4>
   11a1c:	01746f33          	or	t5,s0,s7
   11a20:	020f1063          	bne	t5,zero,11a40 <__divdf3+0x220>
   11a24:	00000413          	addi	s0,zero,0
   11a28:	00200693          	addi	a3,zero,2
   11a2c:	ea9ff06f          	jal	zero,118d4 <__divdf3+0xb4>
   11a30:	00000413          	addi	s0,zero,0
   11a34:	00000793          	addi	a5,zero,0
   11a38:	00100693          	addi	a3,zero,1
   11a3c:	e99ff06f          	jal	zero,118d4 <__divdf3+0xb4>
   11a40:	000b8f13          	addi	t5,s7,0
   11a44:	00300693          	addi	a3,zero,3
   11a48:	e8dff06f          	jal	zero,118d4 <__divdf3+0xb4>
   11a4c:	01446663          	bltu	s0,s4,11a58 <__divdf3+0x238>
   11a50:	308a1863          	bne	s4,s0,11d60 <__divdf3+0x540>
   11a54:	31e4e663          	bltu	s1,t5,11d60 <__divdf3+0x540>
   11a58:	01fa1693          	slli	a3,s4,0x1f
   11a5c:	0014d793          	srli	a5,s1,0x1
   11a60:	01f49613          	slli	a2,s1,0x1f
   11a64:	001a5a13          	srli	s4,s4,0x1
   11a68:	00f6e4b3          	or	s1,a3,a5
   11a6c:	00841893          	slli	a7,s0,0x8
   11a70:	018f5693          	srli	a3,t5,0x18
   11a74:	0116e6b3          	or	a3,a3,a7
   11a78:	0108d893          	srli	a7,a7,0x10
   11a7c:	031a55b3          	divu	a1,s4,a7
   11a80:	01069e93          	slli	t4,a3,0x10
   11a84:	010ede93          	srli	t4,t4,0x10
   11a88:	0104d793          	srli	a5,s1,0x10
   11a8c:	008f1513          	slli	a0,t5,0x8
   11a90:	031a7a33          	remu	s4,s4,a7
   11a94:	02be8333          	mul	t1,t4,a1
   11a98:	010a1a13          	slli	s4,s4,0x10
   11a9c:	0147e7b3          	or	a5,a5,s4
   11aa0:	0067fa63          	bgeu	a5,t1,11ab4 <__divdf3+0x294>
   11aa4:	00f687b3          	add	a5,a3,a5
   11aa8:	00d7e463          	bltu	a5,a3,11ab0 <__divdf3+0x290>
   11aac:	2c67e063          	bltu	a5,t1,11d6c <__divdf3+0x54c>
   11ab0:	fff58593          	addi	a1,a1,-1
   11ab4:	406787b3          	sub	a5,a5,t1
   11ab8:	0317d333          	divu	t1,a5,a7
   11abc:	01049493          	slli	s1,s1,0x10
   11ac0:	0104d493          	srli	s1,s1,0x10
   11ac4:	0317f7b3          	remu	a5,a5,a7
   11ac8:	026e8e33          	mul	t3,t4,t1
   11acc:	01079793          	slli	a5,a5,0x10
   11ad0:	00f4e4b3          	or	s1,s1,a5
   11ad4:	01c4fa63          	bgeu	s1,t3,11ae8 <__divdf3+0x2c8>
   11ad8:	009684b3          	add	s1,a3,s1
   11adc:	01c4f463          	bgeu	s1,t3,11ae4 <__divdf3+0x2c4>
   11ae0:	28d4fc63          	bgeu	s1,a3,11d78 <__divdf3+0x558>
   11ae4:	fff30313          	addi	t1,t1,-1
   11ae8:	01059593          	slli	a1,a1,0x10
   11aec:	0065e5b3          	or	a1,a1,t1
   11af0:	41c484b3          	sub	s1,s1,t3
   11af4:	01059793          	slli	a5,a1,0x10
   11af8:	01051e13          	slli	t3,a0,0x10
   11afc:	0105df93          	srli	t6,a1,0x10
   11b00:	01055313          	srli	t1,a0,0x10
   11b04:	0107d793          	srli	a5,a5,0x10
   11b08:	010e5e13          	srli	t3,t3,0x10
   11b0c:	03c782b3          	mul	t0,a5,t3
   11b10:	03cf83b3          	mul	t2,t6,t3
   11b14:	02f307b3          	mul	a5,t1,a5
   11b18:	00778f33          	add	t5,a5,t2
   11b1c:	0102d793          	srli	a5,t0,0x10
   11b20:	01e787b3          	add	a5,a5,t5
   11b24:	026f8fb3          	mul	t6,t6,t1
   11b28:	0077f663          	bgeu	a5,t2,11b34 <__divdf3+0x314>
   11b2c:	00010f37          	lui	t5,0x10
   11b30:	01ef8fb3          	add	t6,t6,t5
   11b34:	0107df13          	srli	t5,a5,0x10
   11b38:	01029293          	slli	t0,t0,0x10
   11b3c:	01079793          	slli	a5,a5,0x10
   11b40:	0102d293          	srli	t0,t0,0x10
   11b44:	01ff0f33          	add	t5,t5,t6
   11b48:	005787b3          	add	a5,a5,t0
   11b4c:	01e4e663          	bltu	s1,t5,11b58 <__divdf3+0x338>
   11b50:	23e49a63          	bne	s1,t5,11d84 <__divdf3+0x564>
   11b54:	22f67863          	bgeu	a2,a5,11d84 <__divdf3+0x564>
   11b58:	00a60fb3          	add	t6,a2,a0
   11b5c:	00cfb2b3          	sltu	t0,t6,a2
   11b60:	00d283b3          	add	t2,t0,a3
   11b64:	007484b3          	add	s1,s1,t2
   11b68:	fff58413          	addi	s0,a1,-1
   11b6c:	000f8613          	addi	a2,t6,0
   11b70:	0096e663          	bltu	a3,s1,11b7c <__divdf3+0x35c>
   11b74:	02029463          	bne	t0,zero,11b9c <__divdf3+0x37c>
   11b78:	02969263          	bne	a3,s1,11b9c <__divdf3+0x37c>
   11b7c:	01e4e663          	bltu	s1,t5,11b88 <__divdf3+0x368>
   11b80:	009f1e63          	bne	t5,s1,11b9c <__divdf3+0x37c>
   11b84:	00fffc63          	bgeu	t6,a5,11b9c <__divdf3+0x37c>
   11b88:	01f50633          	add	a2,a0,t6
   11b8c:	ffe58413          	addi	s0,a1,-2
   11b90:	00a635b3          	sltu	a1,a2,a0
   11b94:	00d585b3          	add	a1,a1,a3
   11b98:	00b484b3          	add	s1,s1,a1
   11b9c:	40f607b3          	sub	a5,a2,a5
   11ba0:	41e484b3          	sub	s1,s1,t5
   11ba4:	00f63633          	sltu	a2,a2,a5
   11ba8:	40c484b3          	sub	s1,s1,a2
   11bac:	fff00f13          	addi	t5,zero,-1
   11bb0:	10968663          	beq	a3,s1,11cbc <__divdf3+0x49c>
   11bb4:	0314d5b3          	divu	a1,s1,a7
   11bb8:	0107d613          	srli	a2,a5,0x10
   11bbc:	0314f4b3          	remu	s1,s1,a7
   11bc0:	02be8f33          	mul	t5,t4,a1
   11bc4:	01049493          	slli	s1,s1,0x10
   11bc8:	00966633          	or	a2,a2,s1
   11bcc:	01e67a63          	bgeu	a2,t5,11be0 <__divdf3+0x3c0>
   11bd0:	00c68633          	add	a2,a3,a2
   11bd4:	00d66463          	bltu	a2,a3,11bdc <__divdf3+0x3bc>
   11bd8:	1be66a63          	bltu	a2,t5,11d8c <__divdf3+0x56c>
   11bdc:	fff58593          	addi	a1,a1,-1
   11be0:	41e60633          	sub	a2,a2,t5
   11be4:	03165f33          	divu	t5,a2,a7
   11be8:	01079793          	slli	a5,a5,0x10
   11bec:	0107d793          	srli	a5,a5,0x10
   11bf0:	03167633          	remu	a2,a2,a7
   11bf4:	03ee8eb3          	mul	t4,t4,t5
   11bf8:	01061613          	slli	a2,a2,0x10
   11bfc:	00c7e7b3          	or	a5,a5,a2
   11c00:	01d7fa63          	bgeu	a5,t4,11c14 <__divdf3+0x3f4>
   11c04:	00f687b3          	add	a5,a3,a5
   11c08:	01d7f463          	bgeu	a5,t4,11c10 <__divdf3+0x3f0>
   11c0c:	18d7f663          	bgeu	a5,a3,11d98 <__divdf3+0x578>
   11c10:	ffff0f13          	addi	t5,t5,-1 # ffff <exit-0xb5>
   11c14:	01059613          	slli	a2,a1,0x10
   11c18:	01e66633          	or	a2,a2,t5
   11c1c:	01061593          	slli	a1,a2,0x10
   11c20:	0105d593          	srli	a1,a1,0x10
   11c24:	41d787b3          	sub	a5,a5,t4
   11c28:	01065e93          	srli	t4,a2,0x10
   11c2c:	02be0f33          	mul	t5,t3,a1
   11c30:	03ce8e33          	mul	t3,t4,t3
   11c34:	03d30eb3          	mul	t4,t1,t4
   11c38:	02b30333          	mul	t1,t1,a1
   11c3c:	010f5593          	srli	a1,t5,0x10
   11c40:	01c30333          	add	t1,t1,t3
   11c44:	006585b3          	add	a1,a1,t1
   11c48:	01c5f663          	bgeu	a1,t3,11c54 <__divdf3+0x434>
   11c4c:	000108b7          	lui	a7,0x10
   11c50:	011e8eb3          	add	t4,t4,a7
   11c54:	0105d893          	srli	a7,a1,0x10
   11c58:	010f1f13          	slli	t5,t5,0x10
   11c5c:	01059593          	slli	a1,a1,0x10
   11c60:	010f5f13          	srli	t5,t5,0x10
   11c64:	01d888b3          	add	a7,a7,t4
   11c68:	01e585b3          	add	a1,a1,t5
   11c6c:	0117e663          	bltu	a5,a7,11c78 <__divdf3+0x458>
   11c70:	05179463          	bne	a5,a7,11cb8 <__divdf3+0x498>
   11c74:	12058863          	beq	a1,zero,11da4 <__divdf3+0x584>
   11c78:	00f68333          	add	t1,a3,a5
   11c7c:	fff60f13          	addi	t5,a2,-1
   11c80:	00030793          	addi	a5,t1,0
   11c84:	02d36463          	bltu	t1,a3,11cac <__divdf3+0x48c>
   11c88:	01136663          	bltu	t1,a7,11c94 <__divdf3+0x474>
   11c8c:	03131463          	bne	t1,a7,11cb4 <__divdf3+0x494>
   11c90:	00b57e63          	bgeu	a0,a1,11cac <__divdf3+0x48c>
   11c94:	ffe60f13          	addi	t5,a2,-2
   11c98:	00151613          	slli	a2,a0,0x1
   11c9c:	00a637b3          	sltu	a5,a2,a0
   11ca0:	00d787b3          	add	a5,a5,a3
   11ca4:	00f307b3          	add	a5,t1,a5
   11ca8:	00060513          	addi	a0,a2,0
   11cac:	00b51463          	bne	a0,a1,11cb4 <__divdf3+0x494>
   11cb0:	01178663          	beq	a5,a7,11cbc <__divdf3+0x49c>
   11cb4:	000f0613          	addi	a2,t5,0
   11cb8:	00166f13          	ori	t5,a2,1
   11cbc:	3ff70793          	addi	a5,a4,1023
   11cc0:	12f05663          	bge	zero,a5,11dec <__divdf3+0x5cc>
   11cc4:	007f7693          	andi	a3,t5,7
   11cc8:	02068063          	beq	a3,zero,11ce8 <__divdf3+0x4c8>
   11ccc:	00ff7693          	andi	a3,t5,15
   11cd0:	00400613          	addi	a2,zero,4
   11cd4:	00c68a63          	beq	a3,a2,11ce8 <__divdf3+0x4c8>
   11cd8:	00cf06b3          	add	a3,t5,a2
   11cdc:	01e6b633          	sltu	a2,a3,t5
   11ce0:	00c40433          	add	s0,s0,a2
   11ce4:	00068f13          	addi	t5,a3,0
   11ce8:	00741693          	slli	a3,s0,0x7
   11cec:	0006da63          	bge	a3,zero,11d00 <__divdf3+0x4e0>
   11cf0:	ff0007b7          	lui	a5,0xff000
   11cf4:	fff78793          	addi	a5,a5,-1 # feffffff <__BSS_END__+0xfef1170f>
   11cf8:	00f47433          	and	s0,s0,a5
   11cfc:	40070793          	addi	a5,a4,1024
   11d00:	7fe00713          	addi	a4,zero,2046
   11d04:	1af74a63          	blt	a4,a5,11eb8 <__divdf3+0x698>
   11d08:	01d41713          	slli	a4,s0,0x1d
   11d0c:	003f5f13          	srli	t5,t5,0x3
   11d10:	01e76733          	or	a4,a4,t5
   11d14:	00345413          	srli	s0,s0,0x3
   11d18:	00c41413          	slli	s0,s0,0xc
   11d1c:	00c45413          	srli	s0,s0,0xc
   11d20:	01479793          	slli	a5,a5,0x14
   11d24:	02c12083          	lw	ra,44(sp)
   11d28:	0087e7b3          	or	a5,a5,s0
   11d2c:	02812403          	lw	s0,40(sp)
   11d30:	01f81813          	slli	a6,a6,0x1f
   11d34:	02412483          	lw	s1,36(sp)
   11d38:	02012903          	lw	s2,32(sp)
   11d3c:	01c12983          	lw	s3,28(sp)
   11d40:	01812a03          	lw	s4,24(sp)
   11d44:	01412a83          	lw	s5,20(sp)
   11d48:	01012b03          	lw	s6,16(sp)
   11d4c:	00c12b83          	lw	s7,12(sp)
   11d50:	00070513          	addi	a0,a4,0
   11d54:	0107e5b3          	or	a1,a5,a6
   11d58:	03010113          	addi	sp,sp,48
   11d5c:	00008067          	jalr	zero,0(ra)
   11d60:	fff70713          	addi	a4,a4,-1
   11d64:	00000613          	addi	a2,zero,0
   11d68:	d05ff06f          	jal	zero,11a6c <__divdf3+0x24c>
   11d6c:	ffe58593          	addi	a1,a1,-2
   11d70:	00d787b3          	add	a5,a5,a3
   11d74:	d41ff06f          	jal	zero,11ab4 <__divdf3+0x294>
   11d78:	ffe30313          	addi	t1,t1,-2
   11d7c:	00d484b3          	add	s1,s1,a3
   11d80:	d69ff06f          	jal	zero,11ae8 <__divdf3+0x2c8>
   11d84:	00058413          	addi	s0,a1,0
   11d88:	e15ff06f          	jal	zero,11b9c <__divdf3+0x37c>
   11d8c:	ffe58593          	addi	a1,a1,-2
   11d90:	00d60633          	add	a2,a2,a3
   11d94:	e4dff06f          	jal	zero,11be0 <__divdf3+0x3c0>
   11d98:	ffef0f13          	addi	t5,t5,-2
   11d9c:	00d787b3          	add	a5,a5,a3
   11da0:	e75ff06f          	jal	zero,11c14 <__divdf3+0x3f4>
   11da4:	00000513          	addi	a0,zero,0
   11da8:	00060f13          	addi	t5,a2,0
   11dac:	f01ff06f          	jal	zero,11cac <__divdf3+0x48c>
   11db0:	000a8813          	addi	a6,s5,0
   11db4:	00068b13          	addi	s6,a3,0
   11db8:	00200793          	addi	a5,zero,2
   11dbc:	0efb0e63          	beq	s6,a5,11eb8 <__divdf3+0x698>
   11dc0:	00300793          	addi	a5,zero,3
   11dc4:	0efb0063          	beq	s6,a5,11ea4 <__divdf3+0x684>
   11dc8:	00100793          	addi	a5,zero,1
   11dcc:	eefb18e3          	bne	s6,a5,11cbc <__divdf3+0x49c>
   11dd0:	00000413          	addi	s0,zero,0
   11dd4:	00000713          	addi	a4,zero,0
   11dd8:	08c0006f          	jal	zero,11e64 <__divdf3+0x644>
   11ddc:	00090813          	addi	a6,s2,0
   11de0:	000a0413          	addi	s0,s4,0
   11de4:	00048f13          	addi	t5,s1,0
   11de8:	fd1ff06f          	jal	zero,11db8 <__divdf3+0x598>
   11dec:	08078063          	beq	a5,zero,11e6c <__divdf3+0x64c>
   11df0:	fc900693          	addi	a3,zero,-55
   11df4:	fcd7cee3          	blt	a5,a3,11dd0 <__divdf3+0x5b0>
   11df8:	fe200693          	addi	a3,zero,-30
   11dfc:	06d7cc63          	blt	a5,a3,11e74 <__divdf3+0x654>
   11e00:	00100693          	addi	a3,zero,1
   11e04:	40f686b3          	sub	a3,a3,a5
   11e08:	41e70713          	addi	a4,a4,1054
   11e0c:	00df57b3          	srl	a5,t5,a3
   11e10:	00ef1f33          	sll	t5,t5,a4
   11e14:	01e03f33          	sltu	t5,zero,t5
   11e18:	00e41733          	sll	a4,s0,a4
   11e1c:	00ef6f33          	or	t5,t5,a4
   11e20:	01e7e7b3          	or	a5,a5,t5
   11e24:	00d45433          	srl	s0,s0,a3
   11e28:	0077f713          	andi	a4,a5,7
   11e2c:	02070063          	beq	a4,zero,11e4c <__divdf3+0x62c>
   11e30:	00f7f713          	andi	a4,a5,15
   11e34:	00400693          	addi	a3,zero,4
   11e38:	00d70a63          	beq	a4,a3,11e4c <__divdf3+0x62c>
   11e3c:	00d78733          	add	a4,a5,a3
   11e40:	00f736b3          	sltu	a3,a4,a5
   11e44:	00d40433          	add	s0,s0,a3
   11e48:	00070793          	addi	a5,a4,0
   11e4c:	00841713          	slli	a4,s0,0x8
   11e50:	06074c63          	blt	a4,zero,11ec8 <__divdf3+0x6a8>
   11e54:	01d41713          	slli	a4,s0,0x1d
   11e58:	0037d793          	srli	a5,a5,0x3
   11e5c:	00f76733          	or	a4,a4,a5
   11e60:	00345413          	srli	s0,s0,0x3
   11e64:	00000793          	addi	a5,zero,0
   11e68:	eb1ff06f          	jal	zero,11d18 <__divdf3+0x4f8>
   11e6c:	00100693          	addi	a3,zero,1
   11e70:	f99ff06f          	jal	zero,11e08 <__divdf3+0x5e8>
   11e74:	fe100593          	addi	a1,zero,-31
   11e78:	40f586b3          	sub	a3,a1,a5
   11e7c:	00d456b3          	srl	a3,s0,a3
   11e80:	00000613          	addi	a2,zero,0
   11e84:	00b78663          	beq	a5,a1,11e90 <__divdf3+0x670>
   11e88:	43e70713          	addi	a4,a4,1086
   11e8c:	00e41633          	sll	a2,s0,a4
   11e90:	01e66633          	or	a2,a2,t5
   11e94:	00c03633          	sltu	a2,zero,a2
   11e98:	00c6e7b3          	or	a5,a3,a2
   11e9c:	00000413          	addi	s0,zero,0
   11ea0:	f89ff06f          	jal	zero,11e28 <__divdf3+0x608>
   11ea4:	00080437          	lui	s0,0x80
   11ea8:	00000713          	addi	a4,zero,0
   11eac:	7ff00793          	addi	a5,zero,2047
   11eb0:	00000813          	addi	a6,zero,0
   11eb4:	e65ff06f          	jal	zero,11d18 <__divdf3+0x4f8>
   11eb8:	00000413          	addi	s0,zero,0
   11ebc:	00000713          	addi	a4,zero,0
   11ec0:	7ff00793          	addi	a5,zero,2047
   11ec4:	e55ff06f          	jal	zero,11d18 <__divdf3+0x4f8>
   11ec8:	00000413          	addi	s0,zero,0
   11ecc:	00000713          	addi	a4,zero,0
   11ed0:	00100793          	addi	a5,zero,1
   11ed4:	e45ff06f          	jal	zero,11d18 <__divdf3+0x4f8>

00011ed8 <__muldf3>:
   11ed8:	fd010113          	addi	sp,sp,-48
   11edc:	01312e23          	sw	s3,28(sp)
   11ee0:	0145d993          	srli	s3,a1,0x14
   11ee4:	02812423          	sw	s0,40(sp)
   11ee8:	02912223          	sw	s1,36(sp)
   11eec:	01412c23          	sw	s4,24(sp)
   11ef0:	01512a23          	sw	s5,20(sp)
   11ef4:	01712623          	sw	s7,12(sp)
   11ef8:	00c59493          	slli	s1,a1,0xc
   11efc:	02112623          	sw	ra,44(sp)
   11f00:	03212023          	sw	s2,32(sp)
   11f04:	01612823          	sw	s6,16(sp)
   11f08:	7ff9f993          	andi	s3,s3,2047
   11f0c:	00050413          	addi	s0,a0,0
   11f10:	00060b93          	addi	s7,a2,0
   11f14:	00068a13          	addi	s4,a3,0
   11f18:	00c4d493          	srli	s1,s1,0xc
   11f1c:	01f5da93          	srli	s5,a1,0x1f
   11f20:	0c098263          	beq	s3,zero,11fe4 <__muldf3+0x10c>
   11f24:	7ff00793          	addi	a5,zero,2047
   11f28:	12f98463          	beq	s3,a5,12050 <__muldf3+0x178>
   11f2c:	00349493          	slli	s1,s1,0x3
   11f30:	01d55793          	srli	a5,a0,0x1d
   11f34:	0097e7b3          	or	a5,a5,s1
   11f38:	008004b7          	lui	s1,0x800
   11f3c:	0097e4b3          	or	s1,a5,s1
   11f40:	00351913          	slli	s2,a0,0x3
   11f44:	c0198993          	addi	s3,s3,-1023
   11f48:	00000b13          	addi	s6,zero,0
   11f4c:	014a5713          	srli	a4,s4,0x14
   11f50:	00ca1413          	slli	s0,s4,0xc
   11f54:	7ff77713          	andi	a4,a4,2047
   11f58:	00c45413          	srli	s0,s0,0xc
   11f5c:	01fa5a13          	srli	s4,s4,0x1f
   11f60:	12070063          	beq	a4,zero,12080 <__muldf3+0x1a8>
   11f64:	7ff00793          	addi	a5,zero,2047
   11f68:	18f70463          	beq	a4,a5,120f0 <__muldf3+0x218>
   11f6c:	00341413          	slli	s0,s0,0x3
   11f70:	01dbd793          	srli	a5,s7,0x1d
   11f74:	0087e7b3          	or	a5,a5,s0
   11f78:	00800437          	lui	s0,0x800
   11f7c:	0087e433          	or	s0,a5,s0
   11f80:	c0170713          	addi	a4,a4,-1023
   11f84:	003b9793          	slli	a5,s7,0x3
   11f88:	00000813          	addi	a6,zero,0
   11f8c:	00e989b3          	add	s3,s3,a4
   11f90:	002b1713          	slli	a4,s6,0x2
   11f94:	01076733          	or	a4,a4,a6
   11f98:	00a00693          	addi	a3,zero,10
   11f9c:	00198513          	addi	a0,s3,1
   11fa0:	1ae6c263          	blt	a3,a4,12144 <__muldf3+0x26c>
   11fa4:	00200613          	addi	a2,zero,2
   11fa8:	014ac5b3          	xor	a1,s5,s4
   11fac:	00100693          	addi	a3,zero,1
   11fb0:	16e64863          	blt	a2,a4,12120 <__muldf3+0x248>
   11fb4:	fff70713          	addi	a4,a4,-1
   11fb8:	1ae6e663          	bltu	a3,a4,12164 <__muldf3+0x28c>
   11fbc:	00080b13          	addi	s6,a6,0
   11fc0:	00200713          	addi	a4,zero,2
   11fc4:	4ceb0e63          	beq	s6,a4,124a0 <__muldf3+0x5c8>
   11fc8:	00300713          	addi	a4,zero,3
   11fcc:	4ceb0463          	beq	s6,a4,12494 <__muldf3+0x5bc>
   11fd0:	00100713          	addi	a4,zero,1
   11fd4:	34eb1463          	bne	s6,a4,1231c <__muldf3+0x444>
   11fd8:	00000413          	addi	s0,zero,0
   11fdc:	00000613          	addi	a2,zero,0
   11fe0:	4640006f          	jal	zero,12444 <__muldf3+0x56c>
   11fe4:	00a4e933          	or	s2,s1,a0
   11fe8:	06090e63          	beq	s2,zero,12064 <__muldf3+0x18c>
   11fec:	04048263          	beq	s1,zero,12030 <__muldf3+0x158>
   11ff0:	00048513          	addi	a0,s1,0 # 800000 <__BSS_END__+0x711710>
   11ff4:	788000ef          	jal	ra,1277c <__clzsi2>
   11ff8:	00050713          	addi	a4,a0,0
   11ffc:	ff550693          	addi	a3,a0,-11
   12000:	01d00793          	addi	a5,zero,29
   12004:	ff870613          	addi	a2,a4,-8
   12008:	40d787b3          	sub	a5,a5,a3
   1200c:	00c494b3          	sll	s1,s1,a2
   12010:	00f457b3          	srl	a5,s0,a5
   12014:	0097e7b3          	or	a5,a5,s1
   12018:	00c414b3          	sll	s1,s0,a2
   1201c:	c0d00993          	addi	s3,zero,-1011
   12020:	00048913          	addi	s2,s1,0
   12024:	40e989b3          	sub	s3,s3,a4
   12028:	00078493          	addi	s1,a5,0
   1202c:	f1dff06f          	jal	zero,11f48 <__muldf3+0x70>
   12030:	74c000ef          	jal	ra,1277c <__clzsi2>
   12034:	01550693          	addi	a3,a0,21
   12038:	01c00793          	addi	a5,zero,28
   1203c:	02050713          	addi	a4,a0,32
   12040:	fcd7d0e3          	bge	a5,a3,12000 <__muldf3+0x128>
   12044:	ff850793          	addi	a5,a0,-8
   12048:	00f417b3          	sll	a5,s0,a5
   1204c:	fd1ff06f          	jal	zero,1201c <__muldf3+0x144>
   12050:	00a4e933          	or	s2,s1,a0
   12054:	02091063          	bne	s2,zero,12074 <__muldf3+0x19c>
   12058:	00000493          	addi	s1,zero,0
   1205c:	00200b13          	addi	s6,zero,2
   12060:	eedff06f          	jal	zero,11f4c <__muldf3+0x74>
   12064:	00000493          	addi	s1,zero,0
   12068:	00000993          	addi	s3,zero,0
   1206c:	00100b13          	addi	s6,zero,1
   12070:	eddff06f          	jal	zero,11f4c <__muldf3+0x74>
   12074:	00050913          	addi	s2,a0,0
   12078:	00300b13          	addi	s6,zero,3
   1207c:	ed1ff06f          	jal	zero,11f4c <__muldf3+0x74>
   12080:	017467b3          	or	a5,s0,s7
   12084:	08078063          	beq	a5,zero,12104 <__muldf3+0x22c>
   12088:	04040263          	beq	s0,zero,120cc <__muldf3+0x1f4>
   1208c:	00040513          	addi	a0,s0,0 # 800000 <__BSS_END__+0x711710>
   12090:	6ec000ef          	jal	ra,1277c <__clzsi2>
   12094:	00050793          	addi	a5,a0,0
   12098:	ff550713          	addi	a4,a0,-11
   1209c:	01d00693          	addi	a3,zero,29
   120a0:	ff878613          	addi	a2,a5,-8
   120a4:	40e686b3          	sub	a3,a3,a4
   120a8:	00c41433          	sll	s0,s0,a2
   120ac:	00dbd6b3          	srl	a3,s7,a3
   120b0:	0086e6b3          	or	a3,a3,s0
   120b4:	00cb9433          	sll	s0,s7,a2
   120b8:	c0d00713          	addi	a4,zero,-1011
   120bc:	40f70733          	sub	a4,a4,a5
   120c0:	00040793          	addi	a5,s0,0
   120c4:	00068413          	addi	s0,a3,0
   120c8:	ec1ff06f          	jal	zero,11f88 <__muldf3+0xb0>
   120cc:	000b8513          	addi	a0,s7,0
   120d0:	6ac000ef          	jal	ra,1277c <__clzsi2>
   120d4:	01550713          	addi	a4,a0,21
   120d8:	01c00693          	addi	a3,zero,28
   120dc:	02050793          	addi	a5,a0,32
   120e0:	fae6dee3          	bge	a3,a4,1209c <__muldf3+0x1c4>
   120e4:	ff850693          	addi	a3,a0,-8
   120e8:	00db96b3          	sll	a3,s7,a3
   120ec:	fcdff06f          	jal	zero,120b8 <__muldf3+0x1e0>
   120f0:	017467b3          	or	a5,s0,s7
   120f4:	02079063          	bne	a5,zero,12114 <__muldf3+0x23c>
   120f8:	00000413          	addi	s0,zero,0
   120fc:	00200813          	addi	a6,zero,2
   12100:	e8dff06f          	jal	zero,11f8c <__muldf3+0xb4>
   12104:	00000413          	addi	s0,zero,0
   12108:	00000713          	addi	a4,zero,0
   1210c:	00100813          	addi	a6,zero,1
   12110:	e7dff06f          	jal	zero,11f8c <__muldf3+0xb4>
   12114:	000b8793          	addi	a5,s7,0
   12118:	00300813          	addi	a6,zero,3
   1211c:	e71ff06f          	jal	zero,11f8c <__muldf3+0xb4>
   12120:	00e69733          	sll	a4,a3,a4
   12124:	53077613          	andi	a2,a4,1328
   12128:	02061863          	bne	a2,zero,12158 <__muldf3+0x280>
   1212c:	24077693          	andi	a3,a4,576
   12130:	34069a63          	bne	a3,zero,12484 <__muldf3+0x5ac>
   12134:	08877713          	andi	a4,a4,136
   12138:	02070663          	beq	a4,zero,12164 <__muldf3+0x28c>
   1213c:	000a0593          	addi	a1,s4,0
   12140:	e7dff06f          	jal	zero,11fbc <__muldf3+0xe4>
   12144:	00f00693          	addi	a3,zero,15
   12148:	34d70663          	beq	a4,a3,12494 <__muldf3+0x5bc>
   1214c:	00b00693          	addi	a3,zero,11
   12150:	000a8593          	addi	a1,s5,0
   12154:	fed704e3          	beq	a4,a3,1213c <__muldf3+0x264>
   12158:	00048413          	addi	s0,s1,0
   1215c:	00090793          	addi	a5,s2,0
   12160:	e61ff06f          	jal	zero,11fc0 <__muldf3+0xe8>
   12164:	01095893          	srli	a7,s2,0x10
   12168:	01079e13          	slli	t3,a5,0x10
   1216c:	01091913          	slli	s2,s2,0x10
   12170:	0107d613          	srli	a2,a5,0x10
   12174:	01095913          	srli	s2,s2,0x10
   12178:	010e5e13          	srli	t3,t3,0x10
   1217c:	03c907b3          	mul	a5,s2,t3
   12180:	03c88333          	mul	t1,a7,t3
   12184:	0107d813          	srli	a6,a5,0x10
   12188:	03260733          	mul	a4,a2,s2
   1218c:	00670733          	add	a4,a4,t1
   12190:	00e80833          	add	a6,a6,a4
   12194:	02c886b3          	mul	a3,a7,a2
   12198:	00687663          	bgeu	a6,t1,121a4 <__muldf3+0x2cc>
   1219c:	00010737          	lui	a4,0x10
   121a0:	00e686b3          	add	a3,a3,a4
   121a4:	01045713          	srli	a4,s0,0x10
   121a8:	01079793          	slli	a5,a5,0x10
   121ac:	01041413          	slli	s0,s0,0x10
   121b0:	0107d793          	srli	a5,a5,0x10
   121b4:	01045413          	srli	s0,s0,0x10
   121b8:	01085f93          	srli	t6,a6,0x10
   121bc:	01081813          	slli	a6,a6,0x10
   121c0:	02890f33          	mul	t5,s2,s0
   121c4:	00f80833          	add	a6,a6,a5
   121c8:	03270933          	mul	s2,a4,s2
   121cc:	010f5313          	srli	t1,t5,0x10
   121d0:	028887b3          	mul	a5,a7,s0
   121d4:	00f90933          	add	s2,s2,a5
   121d8:	01230333          	add	t1,t1,s2
   121dc:	02e888b3          	mul	a7,a7,a4
   121e0:	00f37663          	bgeu	t1,a5,121ec <__muldf3+0x314>
   121e4:	000107b7          	lui	a5,0x10
   121e8:	00f888b3          	add	a7,a7,a5
   121ec:	010f1f13          	slli	t5,t5,0x10
   121f0:	010f5f13          	srli	t5,t5,0x10
   121f4:	01031793          	slli	a5,t1,0x10
   121f8:	01e787b3          	add	a5,a5,t5
   121fc:	0104df13          	srli	t5,s1,0x10
   12200:	01049493          	slli	s1,s1,0x10
   12204:	0104d493          	srli	s1,s1,0x10
   12208:	03c482b3          	mul	t0,s1,t3
   1220c:	01035e93          	srli	t4,t1,0x10
   12210:	011e8eb3          	add	t4,t4,a7
   12214:	00ff8fb3          	add	t6,t6,a5
   12218:	03cf0e33          	mul	t3,t5,t3
   1221c:	0102d893          	srli	a7,t0,0x10
   12220:	03e603b3          	mul	t2,a2,t5
   12224:	02960633          	mul	a2,a2,s1
   12228:	01c60633          	add	a2,a2,t3
   1222c:	00c888b3          	add	a7,a7,a2
   12230:	01c8f663          	bgeu	a7,t3,1223c <__muldf3+0x364>
   12234:	00010637          	lui	a2,0x10
   12238:	00c383b3          	add	t2,t2,a2
   1223c:	02848633          	mul	a2,s1,s0
   12240:	01029293          	slli	t0,t0,0x10
   12244:	0108d313          	srli	t1,a7,0x10
   12248:	0102d293          	srli	t0,t0,0x10
   1224c:	01089893          	slli	a7,a7,0x10
   12250:	00730333          	add	t1,t1,t2
   12254:	005888b3          	add	a7,a7,t0
   12258:	028f0433          	mul	s0,t5,s0
   1225c:	01065e13          	srli	t3,a2,0x10
   12260:	03e70f33          	mul	t5,a4,t5
   12264:	02970733          	mul	a4,a4,s1
   12268:	00870733          	add	a4,a4,s0
   1226c:	00ee0e33          	add	t3,t3,a4
   12270:	008e7663          	bgeu	t3,s0,1227c <__muldf3+0x3a4>
   12274:	00010737          	lui	a4,0x10
   12278:	00ef0f33          	add	t5,t5,a4
   1227c:	01061613          	slli	a2,a2,0x10
   12280:	010e1713          	slli	a4,t3,0x10
   12284:	01065613          	srli	a2,a2,0x10
   12288:	01f686b3          	add	a3,a3,t6
   1228c:	00c70733          	add	a4,a4,a2
   12290:	01d70eb3          	add	t4,a4,t4
   12294:	00f6b7b3          	sltu	a5,a3,a5
   12298:	00fe87b3          	add	a5,t4,a5
   1229c:	011688b3          	add	a7,a3,a7
   122a0:	00678333          	add	t1,a5,t1
   122a4:	00d8b6b3          	sltu	a3,a7,a3
   122a8:	00eeb633          	sltu	a2,t4,a4
   122ac:	00d306b3          	add	a3,t1,a3
   122b0:	01d7beb3          	sltu	t4,a5,t4
   122b4:	00f33733          	sltu	a4,t1,a5
   122b8:	01d66633          	or	a2,a2,t4
   122bc:	0066b333          	sltu	t1,a3,t1
   122c0:	010e5e13          	srli	t3,t3,0x10
   122c4:	00989793          	slli	a5,a7,0x9
   122c8:	01c60633          	add	a2,a2,t3
   122cc:	00676733          	or	a4,a4,t1
   122d0:	00c70733          	add	a4,a4,a2
   122d4:	0107e7b3          	or	a5,a5,a6
   122d8:	01e70733          	add	a4,a4,t5
   122dc:	00f037b3          	sltu	a5,zero,a5
   122e0:	0178d893          	srli	a7,a7,0x17
   122e4:	00971713          	slli	a4,a4,0x9
   122e8:	0176d413          	srli	s0,a3,0x17
   122ec:	0117e7b3          	or	a5,a5,a7
   122f0:	00969693          	slli	a3,a3,0x9
   122f4:	00d7e7b3          	or	a5,a5,a3
   122f8:	00771693          	slli	a3,a4,0x7
   122fc:	00876433          	or	s0,a4,s0
   12300:	0c06d263          	bge	a3,zero,123c4 <__muldf3+0x4ec>
   12304:	0017d713          	srli	a4,a5,0x1
   12308:	0017f793          	andi	a5,a5,1
   1230c:	00f76733          	or	a4,a4,a5
   12310:	01f41793          	slli	a5,s0,0x1f
   12314:	00f767b3          	or	a5,a4,a5
   12318:	00145413          	srli	s0,s0,0x1
   1231c:	3ff50713          	addi	a4,a0,1023
   12320:	0ae05663          	bge	zero,a4,123cc <__muldf3+0x4f4>
   12324:	0077f693          	andi	a3,a5,7
   12328:	02068063          	beq	a3,zero,12348 <__muldf3+0x470>
   1232c:	00f7f693          	andi	a3,a5,15
   12330:	00400613          	addi	a2,zero,4
   12334:	00c68a63          	beq	a3,a2,12348 <__muldf3+0x470>
   12338:	00c786b3          	add	a3,a5,a2
   1233c:	00f6b633          	sltu	a2,a3,a5
   12340:	00c40433          	add	s0,s0,a2
   12344:	00068793          	addi	a5,a3,0
   12348:	00741693          	slli	a3,s0,0x7
   1234c:	0006da63          	bge	a3,zero,12360 <__muldf3+0x488>
   12350:	ff000737          	lui	a4,0xff000
   12354:	fff70713          	addi	a4,a4,-1 # feffffff <__BSS_END__+0xfef1170f>
   12358:	00e47433          	and	s0,s0,a4
   1235c:	40050713          	addi	a4,a0,1024
   12360:	7fe00693          	addi	a3,zero,2046
   12364:	12e6ce63          	blt	a3,a4,124a0 <__muldf3+0x5c8>
   12368:	01d41613          	slli	a2,s0,0x1d
   1236c:	0037d793          	srli	a5,a5,0x3
   12370:	00f66633          	or	a2,a2,a5
   12374:	00345413          	srli	s0,s0,0x3
   12378:	00c41413          	slli	s0,s0,0xc
   1237c:	00c45413          	srli	s0,s0,0xc
   12380:	01471713          	slli	a4,a4,0x14
   12384:	02c12083          	lw	ra,44(sp)
   12388:	00876733          	or	a4,a4,s0
   1238c:	02812403          	lw	s0,40(sp)
   12390:	01f59593          	slli	a1,a1,0x1f
   12394:	00b767b3          	or	a5,a4,a1
   12398:	02412483          	lw	s1,36(sp)
   1239c:	02012903          	lw	s2,32(sp)
   123a0:	01c12983          	lw	s3,28(sp)
   123a4:	01812a03          	lw	s4,24(sp)
   123a8:	01412a83          	lw	s5,20(sp)
   123ac:	01012b03          	lw	s6,16(sp)
   123b0:	00c12b83          	lw	s7,12(sp)
   123b4:	00060513          	addi	a0,a2,0 # 10000 <exit-0xb4>
   123b8:	00078593          	addi	a1,a5,0 # 10000 <exit-0xb4>
   123bc:	03010113          	addi	sp,sp,48
   123c0:	00008067          	jalr	zero,0(ra)
   123c4:	00098513          	addi	a0,s3,0
   123c8:	f55ff06f          	jal	zero,1231c <__muldf3+0x444>
   123cc:	08070063          	beq	a4,zero,1244c <__muldf3+0x574>
   123d0:	fc900693          	addi	a3,zero,-55
   123d4:	c0d742e3          	blt	a4,a3,11fd8 <__muldf3+0x100>
   123d8:	fe200693          	addi	a3,zero,-30
   123dc:	06d74c63          	blt	a4,a3,12454 <__muldf3+0x57c>
   123e0:	00100693          	addi	a3,zero,1
   123e4:	40e68733          	sub	a4,a3,a4
   123e8:	41e50513          	addi	a0,a0,1054
   123ec:	00e7d6b3          	srl	a3,a5,a4
   123f0:	00a797b3          	sll	a5,a5,a0
   123f4:	00f037b3          	sltu	a5,zero,a5
   123f8:	00a41533          	sll	a0,s0,a0
   123fc:	00a7e7b3          	or	a5,a5,a0
   12400:	00d7e7b3          	or	a5,a5,a3
   12404:	00e45433          	srl	s0,s0,a4
   12408:	0077f713          	andi	a4,a5,7
   1240c:	02070063          	beq	a4,zero,1242c <__muldf3+0x554>
   12410:	00f7f713          	andi	a4,a5,15
   12414:	00400693          	addi	a3,zero,4
   12418:	00d70a63          	beq	a4,a3,1242c <__muldf3+0x554>
   1241c:	00d78733          	add	a4,a5,a3
   12420:	00f736b3          	sltu	a3,a4,a5
   12424:	00d40433          	add	s0,s0,a3
   12428:	00070793          	addi	a5,a4,0
   1242c:	00841713          	slli	a4,s0,0x8
   12430:	08074063          	blt	a4,zero,124b0 <__muldf3+0x5d8>
   12434:	01d41613          	slli	a2,s0,0x1d
   12438:	0037d793          	srli	a5,a5,0x3
   1243c:	00f66633          	or	a2,a2,a5
   12440:	00345413          	srli	s0,s0,0x3
   12444:	00000713          	addi	a4,zero,0
   12448:	f31ff06f          	jal	zero,12378 <__muldf3+0x4a0>
   1244c:	00100713          	addi	a4,zero,1
   12450:	f99ff06f          	jal	zero,123e8 <__muldf3+0x510>
   12454:	fe100813          	addi	a6,zero,-31
   12458:	40e806b3          	sub	a3,a6,a4
   1245c:	00d456b3          	srl	a3,s0,a3
   12460:	00000613          	addi	a2,zero,0
   12464:	01070663          	beq	a4,a6,12470 <__muldf3+0x598>
   12468:	43e50513          	addi	a0,a0,1086
   1246c:	00a41633          	sll	a2,s0,a0
   12470:	00c7e7b3          	or	a5,a5,a2
   12474:	00f037b3          	sltu	a5,zero,a5
   12478:	00f6e7b3          	or	a5,a3,a5
   1247c:	00000413          	addi	s0,zero,0
   12480:	f89ff06f          	jal	zero,12408 <__muldf3+0x530>
   12484:	00080437          	lui	s0,0x80
   12488:	7ff00713          	addi	a4,zero,2047
   1248c:	00000593          	addi	a1,zero,0
   12490:	ee9ff06f          	jal	zero,12378 <__muldf3+0x4a0>
   12494:	00080437          	lui	s0,0x80
   12498:	00000613          	addi	a2,zero,0
   1249c:	fedff06f          	jal	zero,12488 <__muldf3+0x5b0>
   124a0:	00000413          	addi	s0,zero,0
   124a4:	00000613          	addi	a2,zero,0
   124a8:	7ff00713          	addi	a4,zero,2047
   124ac:	ecdff06f          	jal	zero,12378 <__muldf3+0x4a0>
   124b0:	00000413          	addi	s0,zero,0
   124b4:	00000613          	addi	a2,zero,0
   124b8:	00100713          	addi	a4,zero,1
   124bc:	ebdff06f          	jal	zero,12378 <__muldf3+0x4a0>

000124c0 <__floatsidf>:
   124c0:	ff010113          	addi	sp,sp,-16
   124c4:	00112623          	sw	ra,12(sp)
   124c8:	00812423          	sw	s0,8(sp)
   124cc:	00912223          	sw	s1,4(sp)
   124d0:	00050793          	addi	a5,a0,0
   124d4:	08050063          	beq	a0,zero,12554 <__floatsidf+0x94>
   124d8:	41f55713          	srai	a4,a0,0x1f
   124dc:	00a74433          	xor	s0,a4,a0
   124e0:	40e40433          	sub	s0,s0,a4
   124e4:	01f55493          	srli	s1,a0,0x1f
   124e8:	00040513          	addi	a0,s0,0 # 80000 <__global_pointer$+0x12148>
   124ec:	290000ef          	jal	ra,1277c <__clzsi2>
   124f0:	41e00793          	addi	a5,zero,1054
   124f4:	00a00713          	addi	a4,zero,10
   124f8:	40a787b3          	sub	a5,a5,a0
   124fc:	04a74463          	blt	a4,a0,12544 <__floatsidf+0x84>
   12500:	00b00713          	addi	a4,zero,11
   12504:	40a70733          	sub	a4,a4,a0
   12508:	01550513          	addi	a0,a0,21
   1250c:	00e45733          	srl	a4,s0,a4
   12510:	00a41433          	sll	s0,s0,a0
   12514:	00c12083          	lw	ra,12(sp)
   12518:	00040513          	addi	a0,s0,0
   1251c:	00c71713          	slli	a4,a4,0xc
   12520:	00812403          	lw	s0,8(sp)
   12524:	01479793          	slli	a5,a5,0x14
   12528:	00c75713          	srli	a4,a4,0xc
   1252c:	01f49493          	slli	s1,s1,0x1f
   12530:	00e7e7b3          	or	a5,a5,a4
   12534:	0097e5b3          	or	a1,a5,s1
   12538:	00412483          	lw	s1,4(sp)
   1253c:	01010113          	addi	sp,sp,16
   12540:	00008067          	jalr	zero,0(ra)
   12544:	ff550513          	addi	a0,a0,-11
   12548:	00a41733          	sll	a4,s0,a0
   1254c:	00000413          	addi	s0,zero,0
   12550:	fc5ff06f          	jal	zero,12514 <__floatsidf+0x54>
   12554:	00000493          	addi	s1,zero,0
   12558:	00000713          	addi	a4,zero,0
   1255c:	ff1ff06f          	jal	zero,1254c <__floatsidf+0x8c>

00012560 <__extendsfdf2>:
   12560:	01755713          	srli	a4,a0,0x17
   12564:	0ff77713          	andi	a4,a4,255
   12568:	ff010113          	addi	sp,sp,-16
   1256c:	00170793          	addi	a5,a4,1
   12570:	00812423          	sw	s0,8(sp)
   12574:	00912223          	sw	s1,4(sp)
   12578:	00951413          	slli	s0,a0,0x9
   1257c:	00112623          	sw	ra,12(sp)
   12580:	0fe7f793          	andi	a5,a5,254
   12584:	00945413          	srli	s0,s0,0x9
   12588:	01f55493          	srli	s1,a0,0x1f
   1258c:	04078263          	beq	a5,zero,125d0 <__extendsfdf2+0x70>
   12590:	00345793          	srli	a5,s0,0x3
   12594:	38070713          	addi	a4,a4,896
   12598:	01d41413          	slli	s0,s0,0x1d
   1259c:	00c79793          	slli	a5,a5,0xc
   125a0:	00c7d793          	srli	a5,a5,0xc
   125a4:	01471713          	slli	a4,a4,0x14
   125a8:	01f49513          	slli	a0,s1,0x1f
   125ac:	00f76733          	or	a4,a4,a5
   125b0:	00c12083          	lw	ra,12(sp)
   125b4:	00a767b3          	or	a5,a4,a0
   125b8:	00040513          	addi	a0,s0,0
   125bc:	00812403          	lw	s0,8(sp)
   125c0:	00412483          	lw	s1,4(sp)
   125c4:	00078593          	addi	a1,a5,0
   125c8:	01010113          	addi	sp,sp,16
   125cc:	00008067          	jalr	zero,0(ra)
   125d0:	04071463          	bne	a4,zero,12618 <__extendsfdf2+0xb8>
   125d4:	fc0404e3          	beq	s0,zero,1259c <__extendsfdf2+0x3c>
   125d8:	00040513          	addi	a0,s0,0
   125dc:	1a0000ef          	jal	ra,1277c <__clzsi2>
   125e0:	00a00793          	addi	a5,zero,10
   125e4:	02a7c263          	blt	a5,a0,12608 <__extendsfdf2+0xa8>
   125e8:	00b00793          	addi	a5,zero,11
   125ec:	40a787b3          	sub	a5,a5,a0
   125f0:	01550713          	addi	a4,a0,21
   125f4:	00f457b3          	srl	a5,s0,a5
   125f8:	00e41433          	sll	s0,s0,a4
   125fc:	38900713          	addi	a4,zero,905
   12600:	40a70733          	sub	a4,a4,a0
   12604:	f99ff06f          	jal	zero,1259c <__extendsfdf2+0x3c>
   12608:	ff550793          	addi	a5,a0,-11
   1260c:	00f417b3          	sll	a5,s0,a5
   12610:	00000413          	addi	s0,zero,0
   12614:	fe9ff06f          	jal	zero,125fc <__extendsfdf2+0x9c>
   12618:	00000793          	addi	a5,zero,0
   1261c:	00040a63          	beq	s0,zero,12630 <__extendsfdf2+0xd0>
   12620:	00345793          	srli	a5,s0,0x3
   12624:	00080737          	lui	a4,0x80
   12628:	01d41413          	slli	s0,s0,0x1d
   1262c:	00e7e7b3          	or	a5,a5,a4
   12630:	7ff00713          	addi	a4,zero,2047
   12634:	f69ff06f          	jal	zero,1259c <__extendsfdf2+0x3c>

00012638 <__truncdfsf2>:
   12638:	0145d713          	srli	a4,a1,0x14
   1263c:	7ff77713          	andi	a4,a4,2047
   12640:	00c59793          	slli	a5,a1,0xc
   12644:	00170613          	addi	a2,a4,1 # 80001 <__global_pointer$+0x12149>
   12648:	0097d693          	srli	a3,a5,0x9
   1264c:	7fe67613          	andi	a2,a2,2046
   12650:	01d55793          	srli	a5,a0,0x1d
   12654:	00d7e7b3          	or	a5,a5,a3
   12658:	01f5d593          	srli	a1,a1,0x1f
   1265c:	00351693          	slli	a3,a0,0x3
   12660:	0a060e63          	beq	a2,zero,1271c <__truncdfsf2+0xe4>
   12664:	c8070613          	addi	a2,a4,-896
   12668:	0fe00813          	addi	a6,zero,254
   1266c:	10c84463          	blt	a6,a2,12774 <__truncdfsf2+0x13c>
   12670:	06c04a63          	blt	zero,a2,126e4 <__truncdfsf2+0xac>
   12674:	fe900513          	addi	a0,zero,-23
   12678:	0ea64863          	blt	a2,a0,12768 <__truncdfsf2+0x130>
   1267c:	00800837          	lui	a6,0x800
   12680:	0107e833          	or	a6,a5,a6
   12684:	fff00793          	addi	a5,zero,-1
   12688:	02f64863          	blt	a2,a5,126b8 <__truncdfsf2+0x80>
   1268c:	01e00793          	addi	a5,zero,30
   12690:	c8270713          	addi	a4,a4,-894
   12694:	40c787b3          	sub	a5,a5,a2
   12698:	00f6d7b3          	srl	a5,a3,a5
   1269c:	00e696b3          	sll	a3,a3,a4
   126a0:	00d036b3          	sltu	a3,zero,a3
   126a4:	00e81833          	sll	a6,a6,a4
   126a8:	0106e6b3          	or	a3,a3,a6
   126ac:	00d7e7b3          	or	a5,a5,a3
   126b0:	00000713          	addi	a4,zero,0
   126b4:	04c0006f          	jal	zero,12700 <__truncdfsf2+0xc8>
   126b8:	ffe00893          	addi	a7,zero,-2
   126bc:	40c887b3          	sub	a5,a7,a2
   126c0:	00f857b3          	srl	a5,a6,a5
   126c4:	00000513          	addi	a0,zero,0
   126c8:	01160663          	beq	a2,a7,126d4 <__truncdfsf2+0x9c>
   126cc:	ca270513          	addi	a0,a4,-862
   126d0:	00a81533          	sll	a0,a6,a0
   126d4:	00d56533          	or	a0,a0,a3
   126d8:	00a03533          	sltu	a0,zero,a0
   126dc:	00a7e7b3          	or	a5,a5,a0
   126e0:	fd1ff06f          	jal	zero,126b0 <__truncdfsf2+0x78>
   126e4:	00651513          	slli	a0,a0,0x6
   126e8:	00a03533          	sltu	a0,zero,a0
   126ec:	00379793          	slli	a5,a5,0x3
   126f0:	01d6d693          	srli	a3,a3,0x1d
   126f4:	00f567b3          	or	a5,a0,a5
   126f8:	00d7e7b3          	or	a5,a5,a3
   126fc:	00060713          	addi	a4,a2,0
   12700:	0077f693          	andi	a3,a5,7
   12704:	00068863          	beq	a3,zero,12714 <__truncdfsf2+0xdc>
   12708:	00f7f693          	andi	a3,a5,15
   1270c:	00400613          	addi	a2,zero,4
   12710:	00c69e63          	bne	a3,a2,1272c <__truncdfsf2+0xf4>
   12714:	0037d793          	srli	a5,a5,0x3
   12718:	03c0006f          	jal	zero,12754 <__truncdfsf2+0x11c>
   1271c:	00d7e7b3          	or	a5,a5,a3
   12720:	02071263          	bne	a4,zero,12744 <__truncdfsf2+0x10c>
   12724:	02078863          	beq	a5,zero,12754 <__truncdfsf2+0x11c>
   12728:	00100793          	addi	a5,zero,1
   1272c:	00478793          	addi	a5,a5,4
   12730:	00579693          	slli	a3,a5,0x5
   12734:	fe06d0e3          	bge	a3,zero,12714 <__truncdfsf2+0xdc>
   12738:	00170713          	addi	a4,a4,1
   1273c:	00000793          	addi	a5,zero,0
   12740:	0140006f          	jal	zero,12754 <__truncdfsf2+0x11c>
   12744:	0ff00713          	addi	a4,zero,255
   12748:	00078663          	beq	a5,zero,12754 <__truncdfsf2+0x11c>
   1274c:	00000593          	addi	a1,zero,0
   12750:	004007b7          	lui	a5,0x400
   12754:	01771713          	slli	a4,a4,0x17
   12758:	00f76733          	or	a4,a4,a5
   1275c:	01f59513          	slli	a0,a1,0x1f
   12760:	00a76533          	or	a0,a4,a0
   12764:	00008067          	jalr	zero,0(ra)
   12768:	00100793          	addi	a5,zero,1
   1276c:	00000713          	addi	a4,zero,0
   12770:	fbdff06f          	jal	zero,1272c <__truncdfsf2+0xf4>
   12774:	0ff00713          	addi	a4,zero,255
   12778:	fc5ff06f          	jal	zero,1273c <__truncdfsf2+0x104>

0001277c <__clzsi2>:
   1277c:	000107b7          	lui	a5,0x10
   12780:	02f57a63          	bgeu	a0,a5,127b4 <__clzsi2+0x38>
   12784:	10053793          	sltiu	a5,a0,256
   12788:	0017b793          	sltiu	a5,a5,1
   1278c:	00379793          	slli	a5,a5,0x3
   12790:	0006c737          	lui	a4,0x6c
   12794:	00f55533          	srl	a0,a0,a5
   12798:	5bc70713          	addi	a4,a4,1468 # 6c5bc <__clz_tab>
   1279c:	00a70733          	add	a4,a4,a0
   127a0:	00074503          	lbu	a0,0(a4)
   127a4:	02000693          	addi	a3,zero,32
   127a8:	40f686b3          	sub	a3,a3,a5
   127ac:	40a68533          	sub	a0,a3,a0
   127b0:	00008067          	jalr	zero,0(ra)
   127b4:	01000737          	lui	a4,0x1000
   127b8:	01800793          	addi	a5,zero,24
   127bc:	fce57ae3          	bgeu	a0,a4,12790 <__clzsi2+0x14>
   127c0:	01000793          	addi	a5,zero,16
   127c4:	fcdff06f          	jal	zero,12790 <__clzsi2+0x14>

000127c8 <__fp_lock>:
   127c8:	00000513          	addi	a0,zero,0
   127cc:	00008067          	jalr	zero,0(ra)

000127d0 <stdio_exit_handler>:
   127d0:	0006d637          	lui	a2,0x6d
   127d4:	000175b7          	lui	a1,0x17
   127d8:	0006d537          	lui	a0,0x6d
   127dc:	01060613          	addi	a2,a2,16 # 6d010 <__sglue>
   127e0:	15c58593          	addi	a1,a1,348 # 1715c <_fclose_r>
   127e4:	02050513          	addi	a0,a0,32 # 6d020 <_impure_data>
   127e8:	3700006f          	jal	zero,12b58 <_fwalk_sglue>

000127ec <cleanup_stdio>:
   127ec:	00452583          	lw	a1,4(a0)
   127f0:	ff010113          	addi	sp,sp,-16
   127f4:	000ee7b7          	lui	a5,0xee
   127f8:	00812423          	sw	s0,8(sp)
   127fc:	00112623          	sw	ra,12(sp)
   12800:	60078793          	addi	a5,a5,1536 # ee600 <__sf>
   12804:	00050413          	addi	s0,a0,0
   12808:	00f58463          	beq	a1,a5,12810 <cleanup_stdio+0x24>
   1280c:	151040ef          	jal	ra,1715c <_fclose_r>
   12810:	00842583          	lw	a1,8(s0)
   12814:	000ee7b7          	lui	a5,0xee
   12818:	66878793          	addi	a5,a5,1640 # ee668 <__sf+0x68>
   1281c:	00f58663          	beq	a1,a5,12828 <cleanup_stdio+0x3c>
   12820:	00040513          	addi	a0,s0,0
   12824:	139040ef          	jal	ra,1715c <_fclose_r>
   12828:	00c42583          	lw	a1,12(s0)
   1282c:	000ee7b7          	lui	a5,0xee
   12830:	6d078793          	addi	a5,a5,1744 # ee6d0 <__sf+0xd0>
   12834:	00f58c63          	beq	a1,a5,1284c <cleanup_stdio+0x60>
   12838:	00040513          	addi	a0,s0,0
   1283c:	00812403          	lw	s0,8(sp)
   12840:	00c12083          	lw	ra,12(sp)
   12844:	01010113          	addi	sp,sp,16
   12848:	1150406f          	jal	zero,1715c <_fclose_r>
   1284c:	00c12083          	lw	ra,12(sp)
   12850:	00812403          	lw	s0,8(sp)
   12854:	01010113          	addi	sp,sp,16
   12858:	00008067          	jalr	zero,0(ra)

0001285c <__fp_unlock>:
   1285c:	00000513          	addi	a0,zero,0
   12860:	00008067          	jalr	zero,0(ra)

00012864 <global_stdio_init.part.0>:
   12864:	fe010113          	addi	sp,sp,-32
   12868:	000127b7          	lui	a5,0x12
   1286c:	00812c23          	sw	s0,24(sp)
   12870:	7d078793          	addi	a5,a5,2000 # 127d0 <stdio_exit_handler>
   12874:	000ee437          	lui	s0,0xee
   12878:	000ee537          	lui	a0,0xee
   1287c:	60040413          	addi	s0,s0,1536 # ee600 <__sf>
   12880:	00112e23          	sw	ra,28(sp)
   12884:	00912a23          	sw	s1,20(sp)
   12888:	01212823          	sw	s2,16(sp)
   1288c:	01312623          	sw	s3,12(sp)
   12890:	01412423          	sw	s4,8(sp)
   12894:	88f1a223          	sw	a5,-1916(gp) # 6d73c <__stdio_exit_handler>
   12898:	00800613          	addi	a2,zero,8
   1289c:	00400793          	addi	a5,zero,4
   128a0:	00000593          	addi	a1,zero,0
   128a4:	65c50513          	addi	a0,a0,1628 # ee65c <__sf+0x5c>
   128a8:	00f42623          	sw	a5,12(s0)
   128ac:	00042023          	sw	zero,0(s0)
   128b0:	00042223          	sw	zero,4(s0)
   128b4:	00042423          	sw	zero,8(s0)
   128b8:	06042223          	sw	zero,100(s0)
   128bc:	00042823          	sw	zero,16(s0)
   128c0:	00042a23          	sw	zero,20(s0)
   128c4:	00042c23          	sw	zero,24(s0)
   128c8:	03d000ef          	jal	ra,13104 <memset>
   128cc:	00013a37          	lui	s4,0x13
   128d0:	000139b7          	lui	s3,0x13
   128d4:	00013937          	lui	s2,0x13
   128d8:	000134b7          	lui	s1,0x13
   128dc:	000ee537          	lui	a0,0xee
   128e0:	000107b7          	lui	a5,0x10
   128e4:	ca0a0a13          	addi	s4,s4,-864 # 12ca0 <__sread>
   128e8:	d0498993          	addi	s3,s3,-764 # 12d04 <__swrite>
   128ec:	d8c90913          	addi	s2,s2,-628 # 12d8c <__sseek>
   128f0:	df048493          	addi	s1,s1,-528 # 12df0 <__sclose>
   128f4:	00978793          	addi	a5,a5,9 # 10009 <exit-0xab>
   128f8:	00800613          	addi	a2,zero,8
   128fc:	00000593          	addi	a1,zero,0
   12900:	6c450513          	addi	a0,a0,1732 # ee6c4 <__sf+0xc4>
   12904:	06f42a23          	sw	a5,116(s0)
   12908:	03442023          	sw	s4,32(s0)
   1290c:	03342223          	sw	s3,36(s0)
   12910:	03242423          	sw	s2,40(s0)
   12914:	02942623          	sw	s1,44(s0)
   12918:	00842e23          	sw	s0,28(s0)
   1291c:	06042423          	sw	zero,104(s0)
   12920:	06042623          	sw	zero,108(s0)
   12924:	06042823          	sw	zero,112(s0)
   12928:	0c042623          	sw	zero,204(s0)
   1292c:	06042c23          	sw	zero,120(s0)
   12930:	06042e23          	sw	zero,124(s0)
   12934:	08042023          	sw	zero,128(s0)
   12938:	7cc000ef          	jal	ra,13104 <memset>
   1293c:	000ee737          	lui	a4,0xee
   12940:	000ee537          	lui	a0,0xee
   12944:	000207b7          	lui	a5,0x20
   12948:	01278793          	addi	a5,a5,18 # 20012 <__multf3+0xd62>
   1294c:	66870713          	addi	a4,a4,1640 # ee668 <__sf+0x68>
   12950:	72c50513          	addi	a0,a0,1836 # ee72c <__sf+0x12c>
   12954:	00800613          	addi	a2,zero,8
   12958:	00000593          	addi	a1,zero,0
   1295c:	09442423          	sw	s4,136(s0)
   12960:	09342623          	sw	s3,140(s0)
   12964:	09242823          	sw	s2,144(s0)
   12968:	08942a23          	sw	s1,148(s0)
   1296c:	0cf42e23          	sw	a5,220(s0)
   12970:	0c042823          	sw	zero,208(s0)
   12974:	0c042a23          	sw	zero,212(s0)
   12978:	0c042c23          	sw	zero,216(s0)
   1297c:	12042a23          	sw	zero,308(s0)
   12980:	0e042023          	sw	zero,224(s0)
   12984:	0e042223          	sw	zero,228(s0)
   12988:	0e042423          	sw	zero,232(s0)
   1298c:	08e42223          	sw	a4,132(s0)
   12990:	774000ef          	jal	ra,13104 <memset>
   12994:	000ee7b7          	lui	a5,0xee
   12998:	6d078793          	addi	a5,a5,1744 # ee6d0 <__sf+0xd0>
   1299c:	0f442823          	sw	s4,240(s0)
   129a0:	0f342a23          	sw	s3,244(s0)
   129a4:	0f242c23          	sw	s2,248(s0)
   129a8:	0e942e23          	sw	s1,252(s0)
   129ac:	01c12083          	lw	ra,28(sp)
   129b0:	0ef42623          	sw	a5,236(s0)
   129b4:	01812403          	lw	s0,24(sp)
   129b8:	01412483          	lw	s1,20(sp)
   129bc:	01012903          	lw	s2,16(sp)
   129c0:	00c12983          	lw	s3,12(sp)
   129c4:	00812a03          	lw	s4,8(sp)
   129c8:	02010113          	addi	sp,sp,32
   129cc:	00008067          	jalr	zero,0(ra)

000129d0 <__sfp>:
   129d0:	8841a783          	lw	a5,-1916(gp) # 6d73c <__stdio_exit_handler>
   129d4:	fe010113          	addi	sp,sp,-32
   129d8:	00912a23          	sw	s1,20(sp)
   129dc:	00112e23          	sw	ra,28(sp)
   129e0:	00812c23          	sw	s0,24(sp)
   129e4:	00050493          	addi	s1,a0,0
   129e8:	0e078e63          	beq	a5,zero,12ae4 <__sfp+0x114>
   129ec:	0006d837          	lui	a6,0x6d
   129f0:	01080813          	addi	a6,a6,16 # 6d010 <__sglue>
   129f4:	fff00693          	addi	a3,zero,-1
   129f8:	00482783          	lw	a5,4(a6)
   129fc:	fff78793          	addi	a5,a5,-1
   12a00:	0807c063          	blt	a5,zero,12a80 <__sfp+0xb0>
   12a04:	00882403          	lw	s0,8(a6)
   12a08:	00c0006f          	jal	zero,12a14 <__sfp+0x44>
   12a0c:	06840413          	addi	s0,s0,104
   12a10:	06d78863          	beq	a5,a3,12a80 <__sfp+0xb0>
   12a14:	00c41703          	lh	a4,12(s0)
   12a18:	fff78793          	addi	a5,a5,-1
   12a1c:	fe0718e3          	bne	a4,zero,12a0c <__sfp+0x3c>
   12a20:	ffff07b7          	lui	a5,0xffff0
   12a24:	00178793          	addi	a5,a5,1 # ffff0001 <__BSS_END__+0xfff01711>
   12a28:	00f42623          	sw	a5,12(s0)
   12a2c:	06042223          	sw	zero,100(s0)
   12a30:	00042023          	sw	zero,0(s0)
   12a34:	00042423          	sw	zero,8(s0)
   12a38:	00042223          	sw	zero,4(s0)
   12a3c:	00042823          	sw	zero,16(s0)
   12a40:	00042a23          	sw	zero,20(s0)
   12a44:	00042c23          	sw	zero,24(s0)
   12a48:	00800613          	addi	a2,zero,8
   12a4c:	00000593          	addi	a1,zero,0
   12a50:	05c40513          	addi	a0,s0,92
   12a54:	6b0000ef          	jal	ra,13104 <memset>
   12a58:	02042823          	sw	zero,48(s0)
   12a5c:	02042a23          	sw	zero,52(s0)
   12a60:	04042223          	sw	zero,68(s0)
   12a64:	04042423          	sw	zero,72(s0)
   12a68:	01c12083          	lw	ra,28(sp)
   12a6c:	00040513          	addi	a0,s0,0
   12a70:	01812403          	lw	s0,24(sp)
   12a74:	01412483          	lw	s1,20(sp)
   12a78:	02010113          	addi	sp,sp,32
   12a7c:	00008067          	jalr	zero,0(ra)
   12a80:	00082403          	lw	s0,0(a6)
   12a84:	00040663          	beq	s0,zero,12a90 <__sfp+0xc0>
   12a88:	00040813          	addi	a6,s0,0
   12a8c:	f6dff06f          	jal	zero,129f8 <__sfp+0x28>
   12a90:	1ac00593          	addi	a1,zero,428
   12a94:	00048513          	addi	a0,s1,0
   12a98:	01012623          	sw	a6,12(sp)
   12a9c:	4a1000ef          	jal	ra,1373c <_malloc_r>
   12aa0:	00c12803          	lw	a6,12(sp)
   12aa4:	00050413          	addi	s0,a0,0
   12aa8:	04050263          	beq	a0,zero,12aec <__sfp+0x11c>
   12aac:	00400793          	addi	a5,zero,4
   12ab0:	00f52223          	sw	a5,4(a0)
   12ab4:	00c50513          	addi	a0,a0,12
   12ab8:	00042023          	sw	zero,0(s0)
   12abc:	00a42423          	sw	a0,8(s0)
   12ac0:	1a000613          	addi	a2,zero,416
   12ac4:	00000593          	addi	a1,zero,0
   12ac8:	01012623          	sw	a6,12(sp)
   12acc:	638000ef          	jal	ra,13104 <memset>
   12ad0:	00c12803          	lw	a6,12(sp)
   12ad4:	fff00693          	addi	a3,zero,-1
   12ad8:	00882023          	sw	s0,0(a6)
   12adc:	00040813          	addi	a6,s0,0
   12ae0:	f19ff06f          	jal	zero,129f8 <__sfp+0x28>
   12ae4:	d81ff0ef          	jal	ra,12864 <global_stdio_init.part.0>
   12ae8:	f05ff06f          	jal	zero,129ec <__sfp+0x1c>
   12aec:	00082023          	sw	zero,0(a6)
   12af0:	00c00793          	addi	a5,zero,12
   12af4:	00f4a023          	sw	a5,0(s1)
   12af8:	f71ff06f          	jal	zero,12a68 <__sfp+0x98>

00012afc <__sinit>:
   12afc:	03452783          	lw	a5,52(a0)
   12b00:	00078463          	beq	a5,zero,12b08 <__sinit+0xc>
   12b04:	00008067          	jalr	zero,0(ra)
   12b08:	000127b7          	lui	a5,0x12
   12b0c:	8841a703          	lw	a4,-1916(gp) # 6d73c <__stdio_exit_handler>
   12b10:	7ec78793          	addi	a5,a5,2028 # 127ec <cleanup_stdio>
   12b14:	02f52a23          	sw	a5,52(a0)
   12b18:	fe0716e3          	bne	a4,zero,12b04 <__sinit+0x8>
   12b1c:	d49ff06f          	jal	zero,12864 <global_stdio_init.part.0>

00012b20 <__sfp_lock_acquire>:
   12b20:	00008067          	jalr	zero,0(ra)

00012b24 <__sfp_lock_release>:
   12b24:	00008067          	jalr	zero,0(ra)

00012b28 <__fp_lock_all>:
   12b28:	0006d637          	lui	a2,0x6d
   12b2c:	000125b7          	lui	a1,0x12
   12b30:	01060613          	addi	a2,a2,16 # 6d010 <__sglue>
   12b34:	7c858593          	addi	a1,a1,1992 # 127c8 <__fp_lock>
   12b38:	00000513          	addi	a0,zero,0
   12b3c:	01c0006f          	jal	zero,12b58 <_fwalk_sglue>

00012b40 <__fp_unlock_all>:
   12b40:	0006d637          	lui	a2,0x6d
   12b44:	000135b7          	lui	a1,0x13
   12b48:	01060613          	addi	a2,a2,16 # 6d010 <__sglue>
   12b4c:	85c58593          	addi	a1,a1,-1956 # 1285c <__fp_unlock>
   12b50:	00000513          	addi	a0,zero,0
   12b54:	0040006f          	jal	zero,12b58 <_fwalk_sglue>

00012b58 <_fwalk_sglue>:
   12b58:	fd010113          	addi	sp,sp,-48
   12b5c:	03212023          	sw	s2,32(sp)
   12b60:	01312e23          	sw	s3,28(sp)
   12b64:	01412c23          	sw	s4,24(sp)
   12b68:	01512a23          	sw	s5,20(sp)
   12b6c:	01612823          	sw	s6,16(sp)
   12b70:	01712623          	sw	s7,12(sp)
   12b74:	02112623          	sw	ra,44(sp)
   12b78:	02812423          	sw	s0,40(sp)
   12b7c:	02912223          	sw	s1,36(sp)
   12b80:	00060a93          	addi	s5,a2,0
   12b84:	00050b13          	addi	s6,a0,0
   12b88:	00058b93          	addi	s7,a1,0
   12b8c:	00000a13          	addi	s4,zero,0
   12b90:	00100993          	addi	s3,zero,1
   12b94:	fff00913          	addi	s2,zero,-1
   12b98:	004aa483          	lw	s1,4(s5)
   12b9c:	fff48493          	addi	s1,s1,-1
   12ba0:	0204ca63          	blt	s1,zero,12bd4 <_fwalk_sglue+0x7c>
   12ba4:	008aa403          	lw	s0,8(s5)
   12ba8:	00c45783          	lhu	a5,12(s0)
   12bac:	00f9fe63          	bgeu	s3,a5,12bc8 <_fwalk_sglue+0x70>
   12bb0:	00e41783          	lh	a5,14(s0)
   12bb4:	00040593          	addi	a1,s0,0
   12bb8:	000b0513          	addi	a0,s6,0
   12bbc:	01278663          	beq	a5,s2,12bc8 <_fwalk_sglue+0x70>
   12bc0:	000b80e7          	jalr	ra,0(s7)
   12bc4:	00aa6a33          	or	s4,s4,a0
   12bc8:	fff48493          	addi	s1,s1,-1
   12bcc:	06840413          	addi	s0,s0,104
   12bd0:	fd249ce3          	bne	s1,s2,12ba8 <_fwalk_sglue+0x50>
   12bd4:	000aaa83          	lw	s5,0(s5)
   12bd8:	fc0a90e3          	bne	s5,zero,12b98 <_fwalk_sglue+0x40>
   12bdc:	02c12083          	lw	ra,44(sp)
   12be0:	02812403          	lw	s0,40(sp)
   12be4:	02412483          	lw	s1,36(sp)
   12be8:	02012903          	lw	s2,32(sp)
   12bec:	01c12983          	lw	s3,28(sp)
   12bf0:	01412a83          	lw	s5,20(sp)
   12bf4:	01012b03          	lw	s6,16(sp)
   12bf8:	00c12b83          	lw	s7,12(sp)
   12bfc:	000a0513          	addi	a0,s4,0
   12c00:	01812a03          	lw	s4,24(sp)
   12c04:	03010113          	addi	sp,sp,48
   12c08:	00008067          	jalr	zero,0(ra)

00012c0c <_printf_r>:
   12c0c:	fc010113          	addi	sp,sp,-64
   12c10:	00058e13          	addi	t3,a1,0
   12c14:	00852583          	lw	a1,8(a0)
   12c18:	02810313          	addi	t1,sp,40
   12c1c:	02c12423          	sw	a2,40(sp)
   12c20:	02d12623          	sw	a3,44(sp)
   12c24:	000e0613          	addi	a2,t3,0
   12c28:	00030693          	addi	a3,t1,0
   12c2c:	00112e23          	sw	ra,28(sp)
   12c30:	02e12823          	sw	a4,48(sp)
   12c34:	02f12a23          	sw	a5,52(sp)
   12c38:	03012c23          	sw	a6,56(sp)
   12c3c:	03112e23          	sw	a7,60(sp)
   12c40:	00612623          	sw	t1,12(sp)
   12c44:	380010ef          	jal	ra,13fc4 <_vfprintf_r>
   12c48:	01c12083          	lw	ra,28(sp)
   12c4c:	04010113          	addi	sp,sp,64
   12c50:	00008067          	jalr	zero,0(ra)

00012c54 <printf>:
   12c54:	8641a303          	lw	t1,-1948(gp) # 6d71c <_impure_ptr>
   12c58:	fc010113          	addi	sp,sp,-64
   12c5c:	02c12423          	sw	a2,40(sp)
   12c60:	02d12623          	sw	a3,44(sp)
   12c64:	02b12223          	sw	a1,36(sp)
   12c68:	02e12823          	sw	a4,48(sp)
   12c6c:	02f12a23          	sw	a5,52(sp)
   12c70:	03012c23          	sw	a6,56(sp)
   12c74:	03112e23          	sw	a7,60(sp)
   12c78:	00832583          	lw	a1,8(t1)
   12c7c:	02410693          	addi	a3,sp,36
   12c80:	00050613          	addi	a2,a0,0
   12c84:	00030513          	addi	a0,t1,0
   12c88:	00112e23          	sw	ra,28(sp)
   12c8c:	00d12623          	sw	a3,12(sp)
   12c90:	334010ef          	jal	ra,13fc4 <_vfprintf_r>
   12c94:	01c12083          	lw	ra,28(sp)
   12c98:	04010113          	addi	sp,sp,64
   12c9c:	00008067          	jalr	zero,0(ra)

00012ca0 <__sread>:
   12ca0:	ff010113          	addi	sp,sp,-16
   12ca4:	00812423          	sw	s0,8(sp)
   12ca8:	00058413          	addi	s0,a1,0
   12cac:	00e59583          	lh	a1,14(a1)
   12cb0:	00112623          	sw	ra,12(sp)
   12cb4:	2ec000ef          	jal	ra,12fa0 <_read_r>
   12cb8:	02054063          	blt	a0,zero,12cd8 <__sread+0x38>
   12cbc:	05042783          	lw	a5,80(s0)
   12cc0:	00c12083          	lw	ra,12(sp)
   12cc4:	00a787b3          	add	a5,a5,a0
   12cc8:	04f42823          	sw	a5,80(s0)
   12ccc:	00812403          	lw	s0,8(sp)
   12cd0:	01010113          	addi	sp,sp,16
   12cd4:	00008067          	jalr	zero,0(ra)
   12cd8:	00c45783          	lhu	a5,12(s0)
   12cdc:	fffff737          	lui	a4,0xfffff
   12ce0:	fff70713          	addi	a4,a4,-1 # ffffefff <__BSS_END__+0xfff1070f>
   12ce4:	00e7f7b3          	and	a5,a5,a4
   12ce8:	00c12083          	lw	ra,12(sp)
   12cec:	00f41623          	sh	a5,12(s0)
   12cf0:	00812403          	lw	s0,8(sp)
   12cf4:	01010113          	addi	sp,sp,16
   12cf8:	00008067          	jalr	zero,0(ra)

00012cfc <__seofread>:
   12cfc:	00000513          	addi	a0,zero,0
   12d00:	00008067          	jalr	zero,0(ra)

00012d04 <__swrite>:
   12d04:	00c59783          	lh	a5,12(a1)
   12d08:	fe010113          	addi	sp,sp,-32
   12d0c:	00068313          	addi	t1,a3,0
   12d10:	00112e23          	sw	ra,28(sp)
   12d14:	1007f693          	andi	a3,a5,256
   12d18:	00058713          	addi	a4,a1,0
   12d1c:	00060893          	addi	a7,a2,0
   12d20:	00050813          	addi	a6,a0,0
   12d24:	02069863          	bne	a3,zero,12d54 <__swrite+0x50>
   12d28:	fffff6b7          	lui	a3,0xfffff
   12d2c:	fff68693          	addi	a3,a3,-1 # ffffefff <__BSS_END__+0xfff1070f>
   12d30:	01c12083          	lw	ra,28(sp)
   12d34:	00d7f7b3          	and	a5,a5,a3
   12d38:	00e71583          	lh	a1,14(a4)
   12d3c:	00f71623          	sh	a5,12(a4)
   12d40:	00030693          	addi	a3,t1,0
   12d44:	00088613          	addi	a2,a7,0 # 10000 <exit-0xb4>
   12d48:	00080513          	addi	a0,a6,0
   12d4c:	02010113          	addi	sp,sp,32
   12d50:	2b80006f          	jal	zero,13008 <_write_r>
   12d54:	00e59583          	lh	a1,14(a1)
   12d58:	00c12423          	sw	a2,8(sp)
   12d5c:	00200693          	addi	a3,zero,2
   12d60:	00000613          	addi	a2,zero,0
   12d64:	00612623          	sw	t1,12(sp)
   12d68:	00e12023          	sw	a4,0(sp)
   12d6c:	00a12223          	sw	a0,4(sp)
   12d70:	1c8000ef          	jal	ra,12f38 <_lseek_r>
   12d74:	00012703          	lw	a4,0(sp)
   12d78:	00c12303          	lw	t1,12(sp)
   12d7c:	00812883          	lw	a7,8(sp)
   12d80:	00c71783          	lh	a5,12(a4)
   12d84:	00412803          	lw	a6,4(sp)
   12d88:	fa1ff06f          	jal	zero,12d28 <__swrite+0x24>

00012d8c <__sseek>:
   12d8c:	ff010113          	addi	sp,sp,-16
   12d90:	00812423          	sw	s0,8(sp)
   12d94:	00058413          	addi	s0,a1,0
   12d98:	00e59583          	lh	a1,14(a1)
   12d9c:	00112623          	sw	ra,12(sp)
   12da0:	198000ef          	jal	ra,12f38 <_lseek_r>
   12da4:	fff00713          	addi	a4,zero,-1
   12da8:	00c41783          	lh	a5,12(s0)
   12dac:	02e50263          	beq	a0,a4,12dd0 <__sseek+0x44>
   12db0:	00001737          	lui	a4,0x1
   12db4:	00e7e7b3          	or	a5,a5,a4
   12db8:	00c12083          	lw	ra,12(sp)
   12dbc:	04a42823          	sw	a0,80(s0)
   12dc0:	00f41623          	sh	a5,12(s0)
   12dc4:	00812403          	lw	s0,8(sp)
   12dc8:	01010113          	addi	sp,sp,16
   12dcc:	00008067          	jalr	zero,0(ra)
   12dd0:	80050713          	addi	a4,a0,-2048
   12dd4:	80070713          	addi	a4,a4,-2048 # 800 <exit-0xf8b4>
   12dd8:	00e7f7b3          	and	a5,a5,a4
   12ddc:	00c12083          	lw	ra,12(sp)
   12de0:	00f41623          	sh	a5,12(s0)
   12de4:	00812403          	lw	s0,8(sp)
   12de8:	01010113          	addi	sp,sp,16
   12dec:	00008067          	jalr	zero,0(ra)

00012df0 <__sclose>:
   12df0:	00e59583          	lh	a1,14(a1)
   12df4:	0040006f          	jal	zero,12df8 <_close_r>

00012df8 <_close_r>:
   12df8:	ff010113          	addi	sp,sp,-16
   12dfc:	00812423          	sw	s0,8(sp)
   12e00:	00912223          	sw	s1,4(sp)
   12e04:	00050493          	addi	s1,a0,0
   12e08:	00058513          	addi	a0,a1,0
   12e0c:	00112623          	sw	ra,12(sp)
   12e10:	8801a423          	sw	zero,-1912(gp) # 6d740 <errno>
   12e14:	43c0b0ef          	jal	ra,1e250 <_close>
   12e18:	fff00793          	addi	a5,zero,-1
   12e1c:	00f50c63          	beq	a0,a5,12e34 <_close_r+0x3c>
   12e20:	00c12083          	lw	ra,12(sp)
   12e24:	00812403          	lw	s0,8(sp)
   12e28:	00412483          	lw	s1,4(sp)
   12e2c:	01010113          	addi	sp,sp,16
   12e30:	00008067          	jalr	zero,0(ra)
   12e34:	8881a783          	lw	a5,-1912(gp) # 6d740 <errno>
   12e38:	fe0784e3          	beq	a5,zero,12e20 <_close_r+0x28>
   12e3c:	00c12083          	lw	ra,12(sp)
   12e40:	00812403          	lw	s0,8(sp)
   12e44:	00f4a023          	sw	a5,0(s1)
   12e48:	00412483          	lw	s1,4(sp)
   12e4c:	01010113          	addi	sp,sp,16
   12e50:	00008067          	jalr	zero,0(ra)

00012e54 <_reclaim_reent>:
   12e54:	8641a783          	lw	a5,-1948(gp) # 6d71c <_impure_ptr>
   12e58:	0ca78e63          	beq	a5,a0,12f34 <_reclaim_reent+0xe0>
   12e5c:	04452583          	lw	a1,68(a0)
   12e60:	fe010113          	addi	sp,sp,-32
   12e64:	00912a23          	sw	s1,20(sp)
   12e68:	00112e23          	sw	ra,28(sp)
   12e6c:	00812c23          	sw	s0,24(sp)
   12e70:	00050493          	addi	s1,a0,0
   12e74:	04058863          	beq	a1,zero,12ec4 <_reclaim_reent+0x70>
   12e78:	01212823          	sw	s2,16(sp)
   12e7c:	01312623          	sw	s3,12(sp)
   12e80:	00000913          	addi	s2,zero,0
   12e84:	08000993          	addi	s3,zero,128
   12e88:	012587b3          	add	a5,a1,s2
   12e8c:	0007a403          	lw	s0,0(a5)
   12e90:	00040e63          	beq	s0,zero,12eac <_reclaim_reent+0x58>
   12e94:	00040593          	addi	a1,s0,0
   12e98:	00042403          	lw	s0,0(s0)
   12e9c:	00048513          	addi	a0,s1,0
   12ea0:	5b4000ef          	jal	ra,13454 <_free_r>
   12ea4:	fe0418e3          	bne	s0,zero,12e94 <_reclaim_reent+0x40>
   12ea8:	0444a583          	lw	a1,68(s1)
   12eac:	00490913          	addi	s2,s2,4
   12eb0:	fd391ce3          	bne	s2,s3,12e88 <_reclaim_reent+0x34>
   12eb4:	00048513          	addi	a0,s1,0
   12eb8:	59c000ef          	jal	ra,13454 <_free_r>
   12ebc:	01012903          	lw	s2,16(sp)
   12ec0:	00c12983          	lw	s3,12(sp)
   12ec4:	0384a583          	lw	a1,56(s1)
   12ec8:	00058663          	beq	a1,zero,12ed4 <_reclaim_reent+0x80>
   12ecc:	00048513          	addi	a0,s1,0
   12ed0:	584000ef          	jal	ra,13454 <_free_r>
   12ed4:	0404a403          	lw	s0,64(s1)
   12ed8:	00040c63          	beq	s0,zero,12ef0 <_reclaim_reent+0x9c>
   12edc:	00040593          	addi	a1,s0,0
   12ee0:	00042403          	lw	s0,0(s0)
   12ee4:	00048513          	addi	a0,s1,0
   12ee8:	56c000ef          	jal	ra,13454 <_free_r>
   12eec:	fe0418e3          	bne	s0,zero,12edc <_reclaim_reent+0x88>
   12ef0:	04c4a583          	lw	a1,76(s1)
   12ef4:	00058663          	beq	a1,zero,12f00 <_reclaim_reent+0xac>
   12ef8:	00048513          	addi	a0,s1,0
   12efc:	558000ef          	jal	ra,13454 <_free_r>
   12f00:	0344a783          	lw	a5,52(s1)
   12f04:	00078e63          	beq	a5,zero,12f20 <_reclaim_reent+0xcc>
   12f08:	01812403          	lw	s0,24(sp)
   12f0c:	01c12083          	lw	ra,28(sp)
   12f10:	00048513          	addi	a0,s1,0
   12f14:	01412483          	lw	s1,20(sp)
   12f18:	02010113          	addi	sp,sp,32
   12f1c:	00078067          	jalr	zero,0(a5)
   12f20:	01c12083          	lw	ra,28(sp)
   12f24:	01812403          	lw	s0,24(sp)
   12f28:	01412483          	lw	s1,20(sp)
   12f2c:	02010113          	addi	sp,sp,32
   12f30:	00008067          	jalr	zero,0(ra)
   12f34:	00008067          	jalr	zero,0(ra)

00012f38 <_lseek_r>:
   12f38:	ff010113          	addi	sp,sp,-16
   12f3c:	00058793          	addi	a5,a1,0
   12f40:	00812423          	sw	s0,8(sp)
   12f44:	00912223          	sw	s1,4(sp)
   12f48:	00060593          	addi	a1,a2,0
   12f4c:	00050493          	addi	s1,a0,0
   12f50:	00068613          	addi	a2,a3,0
   12f54:	00078513          	addi	a0,a5,0
   12f58:	00112623          	sw	ra,12(sp)
   12f5c:	8801a423          	sw	zero,-1912(gp) # 6d740 <errno>
   12f60:	42c0b0ef          	jal	ra,1e38c <_lseek>
   12f64:	fff00793          	addi	a5,zero,-1
   12f68:	00f50c63          	beq	a0,a5,12f80 <_lseek_r+0x48>
   12f6c:	00c12083          	lw	ra,12(sp)
   12f70:	00812403          	lw	s0,8(sp)
   12f74:	00412483          	lw	s1,4(sp)
   12f78:	01010113          	addi	sp,sp,16
   12f7c:	00008067          	jalr	zero,0(ra)
   12f80:	8881a783          	lw	a5,-1912(gp) # 6d740 <errno>
   12f84:	fe0784e3          	beq	a5,zero,12f6c <_lseek_r+0x34>
   12f88:	00c12083          	lw	ra,12(sp)
   12f8c:	00812403          	lw	s0,8(sp)
   12f90:	00f4a023          	sw	a5,0(s1)
   12f94:	00412483          	lw	s1,4(sp)
   12f98:	01010113          	addi	sp,sp,16
   12f9c:	00008067          	jalr	zero,0(ra)

00012fa0 <_read_r>:
   12fa0:	ff010113          	addi	sp,sp,-16
   12fa4:	00058793          	addi	a5,a1,0
   12fa8:	00812423          	sw	s0,8(sp)
   12fac:	00912223          	sw	s1,4(sp)
   12fb0:	00060593          	addi	a1,a2,0
   12fb4:	00050493          	addi	s1,a0,0
   12fb8:	00068613          	addi	a2,a3,0
   12fbc:	00078513          	addi	a0,a5,0
   12fc0:	00112623          	sw	ra,12(sp)
   12fc4:	8801a423          	sw	zero,-1912(gp) # 6d740 <errno>
   12fc8:	4040b0ef          	jal	ra,1e3cc <_read>
   12fcc:	fff00793          	addi	a5,zero,-1
   12fd0:	00f50c63          	beq	a0,a5,12fe8 <_read_r+0x48>
   12fd4:	00c12083          	lw	ra,12(sp)
   12fd8:	00812403          	lw	s0,8(sp)
   12fdc:	00412483          	lw	s1,4(sp)
   12fe0:	01010113          	addi	sp,sp,16
   12fe4:	00008067          	jalr	zero,0(ra)
   12fe8:	8881a783          	lw	a5,-1912(gp) # 6d740 <errno>
   12fec:	fe0784e3          	beq	a5,zero,12fd4 <_read_r+0x34>
   12ff0:	00c12083          	lw	ra,12(sp)
   12ff4:	00812403          	lw	s0,8(sp)
   12ff8:	00f4a023          	sw	a5,0(s1)
   12ffc:	00412483          	lw	s1,4(sp)
   13000:	01010113          	addi	sp,sp,16
   13004:	00008067          	jalr	zero,0(ra)

00013008 <_write_r>:
   13008:	ff010113          	addi	sp,sp,-16
   1300c:	00058793          	addi	a5,a1,0
   13010:	00812423          	sw	s0,8(sp)
   13014:	00912223          	sw	s1,4(sp)
   13018:	00060593          	addi	a1,a2,0
   1301c:	00050493          	addi	s1,a0,0
   13020:	00068613          	addi	a2,a3,0
   13024:	00078513          	addi	a0,a5,0
   13028:	00112623          	sw	ra,12(sp)
   1302c:	8801a423          	sw	zero,-1912(gp) # 6d740 <errno>
   13030:	4540b0ef          	jal	ra,1e484 <_write>
   13034:	fff00793          	addi	a5,zero,-1
   13038:	00f50c63          	beq	a0,a5,13050 <_write_r+0x48>
   1303c:	00c12083          	lw	ra,12(sp)
   13040:	00812403          	lw	s0,8(sp)
   13044:	00412483          	lw	s1,4(sp)
   13048:	01010113          	addi	sp,sp,16
   1304c:	00008067          	jalr	zero,0(ra)
   13050:	8881a783          	lw	a5,-1912(gp) # 6d740 <errno>
   13054:	fe0784e3          	beq	a5,zero,1303c <_write_r+0x34>
   13058:	00c12083          	lw	ra,12(sp)
   1305c:	00812403          	lw	s0,8(sp)
   13060:	00f4a023          	sw	a5,0(s1)
   13064:	00412483          	lw	s1,4(sp)
   13068:	01010113          	addi	sp,sp,16
   1306c:	00008067          	jalr	zero,0(ra)

00013070 <__libc_init_array>:
   13070:	ff010113          	addi	sp,sp,-16
   13074:	00812423          	sw	s0,8(sp)
   13078:	01212023          	sw	s2,0(sp)
   1307c:	0006d437          	lui	s0,0x6d
   13080:	0006d937          	lui	s2,0x6d
   13084:	00112623          	sw	ra,12(sp)
   13088:	00912223          	sw	s1,4(sp)
   1308c:	00090913          	addi	s2,s2,0 # 6d000 <__init_array_start>
   13090:	00040413          	addi	s0,s0,0 # 6d000 <__init_array_start>
   13094:	02890263          	beq	s2,s0,130b8 <__libc_init_array+0x48>
   13098:	40890933          	sub	s2,s2,s0
   1309c:	40295913          	srai	s2,s2,0x2
   130a0:	00000493          	addi	s1,zero,0
   130a4:	00042783          	lw	a5,0(s0)
   130a8:	00148493          	addi	s1,s1,1
   130ac:	00440413          	addi	s0,s0,4
   130b0:	000780e7          	jalr	ra,0(a5)
   130b4:	ff24e8e3          	bltu	s1,s2,130a4 <__libc_init_array+0x34>
   130b8:	0006d937          	lui	s2,0x6d
   130bc:	0006d437          	lui	s0,0x6d
   130c0:	00890913          	addi	s2,s2,8 # 6d008 <__do_global_dtors_aux_fini_array_entry>
   130c4:	00040413          	addi	s0,s0,0 # 6d000 <__init_array_start>
   130c8:	02890263          	beq	s2,s0,130ec <__libc_init_array+0x7c>
   130cc:	40890933          	sub	s2,s2,s0
   130d0:	40295913          	srai	s2,s2,0x2
   130d4:	00000493          	addi	s1,zero,0
   130d8:	00042783          	lw	a5,0(s0)
   130dc:	00148493          	addi	s1,s1,1
   130e0:	00440413          	addi	s0,s0,4
   130e4:	000780e7          	jalr	ra,0(a5)
   130e8:	ff24e8e3          	bltu	s1,s2,130d8 <__libc_init_array+0x68>
   130ec:	00c12083          	lw	ra,12(sp)
   130f0:	00812403          	lw	s0,8(sp)
   130f4:	00412483          	lw	s1,4(sp)
   130f8:	00012903          	lw	s2,0(sp)
   130fc:	01010113          	addi	sp,sp,16
   13100:	00008067          	jalr	zero,0(ra)

00013104 <memset>:
   13104:	00f00313          	addi	t1,zero,15
   13108:	00050713          	addi	a4,a0,0
   1310c:	02c37e63          	bgeu	t1,a2,13148 <memset+0x44>
   13110:	00f77793          	andi	a5,a4,15
   13114:	0a079063          	bne	a5,zero,131b4 <memset+0xb0>
   13118:	08059263          	bne	a1,zero,1319c <memset+0x98>
   1311c:	ff067693          	andi	a3,a2,-16
   13120:	00f67613          	andi	a2,a2,15
   13124:	00e686b3          	add	a3,a3,a4
   13128:	00b72023          	sw	a1,0(a4)
   1312c:	00b72223          	sw	a1,4(a4)
   13130:	00b72423          	sw	a1,8(a4)
   13134:	00b72623          	sw	a1,12(a4)
   13138:	01070713          	addi	a4,a4,16
   1313c:	fed766e3          	bltu	a4,a3,13128 <memset+0x24>
   13140:	00061463          	bne	a2,zero,13148 <memset+0x44>
   13144:	00008067          	jalr	zero,0(ra)
   13148:	40c306b3          	sub	a3,t1,a2
   1314c:	00269693          	slli	a3,a3,0x2
   13150:	00000297          	auipc	t0,0x0
   13154:	005686b3          	add	a3,a3,t0
   13158:	00c68067          	jalr	zero,12(a3)
   1315c:	00b70723          	sb	a1,14(a4)
   13160:	00b706a3          	sb	a1,13(a4)
   13164:	00b70623          	sb	a1,12(a4)
   13168:	00b705a3          	sb	a1,11(a4)
   1316c:	00b70523          	sb	a1,10(a4)
   13170:	00b704a3          	sb	a1,9(a4)
   13174:	00b70423          	sb	a1,8(a4)
   13178:	00b703a3          	sb	a1,7(a4)
   1317c:	00b70323          	sb	a1,6(a4)
   13180:	00b702a3          	sb	a1,5(a4)
   13184:	00b70223          	sb	a1,4(a4)
   13188:	00b701a3          	sb	a1,3(a4)
   1318c:	00b70123          	sb	a1,2(a4)
   13190:	00b700a3          	sb	a1,1(a4)
   13194:	00b70023          	sb	a1,0(a4)
   13198:	00008067          	jalr	zero,0(ra)
   1319c:	0ff5f593          	andi	a1,a1,255
   131a0:	00859693          	slli	a3,a1,0x8
   131a4:	00d5e5b3          	or	a1,a1,a3
   131a8:	01059693          	slli	a3,a1,0x10
   131ac:	00d5e5b3          	or	a1,a1,a3
   131b0:	f6dff06f          	jal	zero,1311c <memset+0x18>
   131b4:	00279693          	slli	a3,a5,0x2
   131b8:	00000297          	auipc	t0,0x0
   131bc:	005686b3          	add	a3,a3,t0
   131c0:	00008293          	addi	t0,ra,0
   131c4:	fa0680e7          	jalr	ra,-96(a3)
   131c8:	00028093          	addi	ra,t0,0 # 131b8 <memset+0xb4>
   131cc:	ff078793          	addi	a5,a5,-16
   131d0:	40f70733          	sub	a4,a4,a5
   131d4:	00f60633          	add	a2,a2,a5
   131d8:	f6c378e3          	bgeu	t1,a2,13148 <memset+0x44>
   131dc:	f3dff06f          	jal	zero,13118 <memset+0x14>

000131e0 <__call_exitprocs>:
   131e0:	fd010113          	addi	sp,sp,-48
   131e4:	01412c23          	sw	s4,24(sp)
   131e8:	03212023          	sw	s2,32(sp)
   131ec:	88c1a903          	lw	s2,-1908(gp) # 6d744 <__atexit>
   131f0:	02112623          	sw	ra,44(sp)
   131f4:	06090c63          	beq	s2,zero,1326c <__call_exitprocs+0x8c>
   131f8:	01312e23          	sw	s3,28(sp)
   131fc:	01512a23          	sw	s5,20(sp)
   13200:	01612823          	sw	s6,16(sp)
   13204:	01712623          	sw	s7,12(sp)
   13208:	02812423          	sw	s0,40(sp)
   1320c:	02912223          	sw	s1,36(sp)
   13210:	01812423          	sw	s8,8(sp)
   13214:	00050b13          	addi	s6,a0,0
   13218:	00058b93          	addi	s7,a1,0
   1321c:	fff00993          	addi	s3,zero,-1
   13220:	00100a93          	addi	s5,zero,1
   13224:	00492483          	lw	s1,4(s2)
   13228:	fff48413          	addi	s0,s1,-1
   1322c:	02044263          	blt	s0,zero,13250 <__call_exitprocs+0x70>
   13230:	00249493          	slli	s1,s1,0x2
   13234:	009904b3          	add	s1,s2,s1
   13238:	040b8463          	beq	s7,zero,13280 <__call_exitprocs+0xa0>
   1323c:	1044a783          	lw	a5,260(s1)
   13240:	05778063          	beq	a5,s7,13280 <__call_exitprocs+0xa0>
   13244:	fff40413          	addi	s0,s0,-1
   13248:	ffc48493          	addi	s1,s1,-4
   1324c:	ff3418e3          	bne	s0,s3,1323c <__call_exitprocs+0x5c>
   13250:	02812403          	lw	s0,40(sp)
   13254:	02412483          	lw	s1,36(sp)
   13258:	01c12983          	lw	s3,28(sp)
   1325c:	01412a83          	lw	s5,20(sp)
   13260:	01012b03          	lw	s6,16(sp)
   13264:	00c12b83          	lw	s7,12(sp)
   13268:	00812c03          	lw	s8,8(sp)
   1326c:	02c12083          	lw	ra,44(sp)
   13270:	02012903          	lw	s2,32(sp)
   13274:	01812a03          	lw	s4,24(sp)
   13278:	03010113          	addi	sp,sp,48
   1327c:	00008067          	jalr	zero,0(ra)
   13280:	00492783          	lw	a5,4(s2)
   13284:	0044a683          	lw	a3,4(s1)
   13288:	fff78793          	addi	a5,a5,-1
   1328c:	06878a63          	beq	a5,s0,13300 <__call_exitprocs+0x120>
   13290:	0004a223          	sw	zero,4(s1)
   13294:	02068663          	beq	a3,zero,132c0 <__call_exitprocs+0xe0>
   13298:	18892783          	lw	a5,392(s2)
   1329c:	008a9733          	sll	a4,s5,s0
   132a0:	00492c03          	lw	s8,4(s2)
   132a4:	00f777b3          	and	a5,a4,a5
   132a8:	02079463          	bne	a5,zero,132d0 <__call_exitprocs+0xf0>
   132ac:	000680e7          	jalr	ra,0(a3)
   132b0:	00492703          	lw	a4,4(s2)
   132b4:	88c1a783          	lw	a5,-1908(gp) # 6d744 <__atexit>
   132b8:	03871e63          	bne	a4,s8,132f4 <__call_exitprocs+0x114>
   132bc:	03279c63          	bne	a5,s2,132f4 <__call_exitprocs+0x114>
   132c0:	fff40413          	addi	s0,s0,-1
   132c4:	ffc48493          	addi	s1,s1,-4
   132c8:	f73418e3          	bne	s0,s3,13238 <__call_exitprocs+0x58>
   132cc:	f85ff06f          	jal	zero,13250 <__call_exitprocs+0x70>
   132d0:	18c92783          	lw	a5,396(s2)
   132d4:	0844a583          	lw	a1,132(s1)
   132d8:	00f77733          	and	a4,a4,a5
   132dc:	02071663          	bne	a4,zero,13308 <__call_exitprocs+0x128>
   132e0:	000b0513          	addi	a0,s6,0
   132e4:	000680e7          	jalr	ra,0(a3)
   132e8:	00492703          	lw	a4,4(s2)
   132ec:	88c1a783          	lw	a5,-1908(gp) # 6d744 <__atexit>
   132f0:	fd8706e3          	beq	a4,s8,132bc <__call_exitprocs+0xdc>
   132f4:	f4078ee3          	beq	a5,zero,13250 <__call_exitprocs+0x70>
   132f8:	00078913          	addi	s2,a5,0
   132fc:	f29ff06f          	jal	zero,13224 <__call_exitprocs+0x44>
   13300:	00892223          	sw	s0,4(s2)
   13304:	f91ff06f          	jal	zero,13294 <__call_exitprocs+0xb4>
   13308:	00058513          	addi	a0,a1,0
   1330c:	000680e7          	jalr	ra,0(a3)
   13310:	fa1ff06f          	jal	zero,132b0 <__call_exitprocs+0xd0>

00013314 <atexit>:
   13314:	00050593          	addi	a1,a0,0
   13318:	00000693          	addi	a3,zero,0
   1331c:	00000613          	addi	a2,zero,0
   13320:	00000513          	addi	a0,zero,0
   13324:	7410406f          	jal	zero,18264 <__register_exitproc>

00013328 <_malloc_trim_r>:
   13328:	fe010113          	addi	sp,sp,-32
   1332c:	01212823          	sw	s2,16(sp)
   13330:	0006d937          	lui	s2,0x6d
   13334:	00812c23          	sw	s0,24(sp)
   13338:	00912a23          	sw	s1,20(sp)
   1333c:	01312623          	sw	s3,12(sp)
   13340:	00058413          	addi	s0,a1,0
   13344:	00112e23          	sw	ra,28(sp)
   13348:	00050993          	addi	s3,a0,0
   1334c:	14090913          	addi	s2,s2,320 # 6d140 <__malloc_av_>
   13350:	46d000ef          	jal	ra,13fbc <__malloc_lock>
   13354:	00892783          	lw	a5,8(s2)
   13358:	00001737          	lui	a4,0x1
   1335c:	0047a483          	lw	s1,4(a5)
   13360:	ffc4f493          	andi	s1,s1,-4
   13364:	7ff48793          	addi	a5,s1,2047
   13368:	7f078793          	addi	a5,a5,2032
   1336c:	40878433          	sub	s0,a5,s0
   13370:	00c45413          	srli	s0,s0,0xc
   13374:	fff40413          	addi	s0,s0,-1
   13378:	00c41413          	slli	s0,s0,0xc
   1337c:	00e44e63          	blt	s0,a4,13398 <_malloc_trim_r+0x70>
   13380:	00000593          	addi	a1,zero,0
   13384:	00098513          	addi	a0,s3,0
   13388:	1c9040ef          	jal	ra,17d50 <_sbrk_r>
   1338c:	00892783          	lw	a5,8(s2)
   13390:	009787b3          	add	a5,a5,s1
   13394:	02f50663          	beq	a0,a5,133c0 <_malloc_trim_r+0x98>
   13398:	00098513          	addi	a0,s3,0
   1339c:	425000ef          	jal	ra,13fc0 <__malloc_unlock>
   133a0:	01c12083          	lw	ra,28(sp)
   133a4:	01812403          	lw	s0,24(sp)
   133a8:	01412483          	lw	s1,20(sp)
   133ac:	01012903          	lw	s2,16(sp)
   133b0:	00c12983          	lw	s3,12(sp)
   133b4:	00000513          	addi	a0,zero,0
   133b8:	02010113          	addi	sp,sp,32
   133bc:	00008067          	jalr	zero,0(ra)
   133c0:	408005b3          	sub	a1,zero,s0
   133c4:	00098513          	addi	a0,s3,0
   133c8:	189040ef          	jal	ra,17d50 <_sbrk_r>
   133cc:	fff00793          	addi	a5,zero,-1
   133d0:	04f50663          	beq	a0,a5,1341c <_malloc_trim_r+0xf4>
   133d4:	000ee737          	lui	a4,0xee
   133d8:	00892683          	lw	a3,8(s2)
   133dc:	73872783          	lw	a5,1848(a4) # ee738 <__malloc_current_mallinfo>
   133e0:	408484b3          	sub	s1,s1,s0
   133e4:	0014e493          	ori	s1,s1,1
   133e8:	00098513          	addi	a0,s3,0
   133ec:	408787b3          	sub	a5,a5,s0
   133f0:	0096a223          	sw	s1,4(a3)
   133f4:	72f72c23          	sw	a5,1848(a4)
   133f8:	3c9000ef          	jal	ra,13fc0 <__malloc_unlock>
   133fc:	01c12083          	lw	ra,28(sp)
   13400:	01812403          	lw	s0,24(sp)
   13404:	01412483          	lw	s1,20(sp)
   13408:	01012903          	lw	s2,16(sp)
   1340c:	00c12983          	lw	s3,12(sp)
   13410:	00100513          	addi	a0,zero,1
   13414:	02010113          	addi	sp,sp,32
   13418:	00008067          	jalr	zero,0(ra)
   1341c:	00000593          	addi	a1,zero,0
   13420:	00098513          	addi	a0,s3,0
   13424:	12d040ef          	jal	ra,17d50 <_sbrk_r>
   13428:	00892703          	lw	a4,8(s2)
   1342c:	00f00693          	addi	a3,zero,15
   13430:	40e507b3          	sub	a5,a0,a4
   13434:	f6f6d2e3          	bge	a3,a5,13398 <_malloc_trim_r+0x70>
   13438:	8681a603          	lw	a2,-1944(gp) # 6d720 <__malloc_sbrk_base>
   1343c:	0017e793          	ori	a5,a5,1
   13440:	000ee6b7          	lui	a3,0xee
   13444:	40c50533          	sub	a0,a0,a2
   13448:	00f72223          	sw	a5,4(a4)
   1344c:	72a6ac23          	sw	a0,1848(a3) # ee738 <__malloc_current_mallinfo>
   13450:	f49ff06f          	jal	zero,13398 <_malloc_trim_r+0x70>

00013454 <_free_r>:
   13454:	12058463          	beq	a1,zero,1357c <_free_r+0x128>
   13458:	fe010113          	addi	sp,sp,-32
   1345c:	00812c23          	sw	s0,24(sp)
   13460:	00b12623          	sw	a1,12(sp)
   13464:	00050413          	addi	s0,a0,0
   13468:	00112e23          	sw	ra,28(sp)
   1346c:	351000ef          	jal	ra,13fbc <__malloc_lock>
   13470:	00c12583          	lw	a1,12(sp)
   13474:	0006d837          	lui	a6,0x6d
   13478:	14080813          	addi	a6,a6,320 # 6d140 <__malloc_av_>
   1347c:	ffc5a503          	lw	a0,-4(a1)
   13480:	ff858713          	addi	a4,a1,-8
   13484:	00882883          	lw	a7,8(a6)
   13488:	ffe57793          	andi	a5,a0,-2
   1348c:	00f70633          	add	a2,a4,a5
   13490:	00462683          	lw	a3,4(a2)
   13494:	00157313          	andi	t1,a0,1
   13498:	ffc6f693          	andi	a3,a3,-4
   1349c:	18c88863          	beq	a7,a2,1362c <_free_r+0x1d8>
   134a0:	00d62223          	sw	a3,4(a2)
   134a4:	00d608b3          	add	a7,a2,a3
   134a8:	0048a883          	lw	a7,4(a7)
   134ac:	0018f893          	andi	a7,a7,1
   134b0:	08031a63          	bne	t1,zero,13544 <_free_r+0xf0>
   134b4:	ff85a303          	lw	t1,-8(a1)
   134b8:	0006d5b7          	lui	a1,0x6d
   134bc:	14858593          	addi	a1,a1,328 # 6d148 <__malloc_av_+0x8>
   134c0:	40670733          	sub	a4,a4,t1
   134c4:	00872503          	lw	a0,8(a4)
   134c8:	006787b3          	add	a5,a5,t1
   134cc:	12b50a63          	beq	a0,a1,13600 <_free_r+0x1ac>
   134d0:	00c72303          	lw	t1,12(a4)
   134d4:	00652623          	sw	t1,12(a0)
   134d8:	00a32423          	sw	a0,8(t1)
   134dc:	18088c63          	beq	a7,zero,13674 <_free_r+0x220>
   134e0:	0017e693          	ori	a3,a5,1
   134e4:	00d72223          	sw	a3,4(a4)
   134e8:	00f62023          	sw	a5,0(a2)
   134ec:	1ff00693          	addi	a3,zero,511
   134f0:	0af6e263          	bltu	a3,a5,13594 <_free_r+0x140>
   134f4:	ff87f693          	andi	a3,a5,-8
   134f8:	00868693          	addi	a3,a3,8
   134fc:	00482583          	lw	a1,4(a6)
   13500:	00d806b3          	add	a3,a6,a3
   13504:	0006a603          	lw	a2,0(a3)
   13508:	0057d513          	srli	a0,a5,0x5
   1350c:	00100793          	addi	a5,zero,1
   13510:	00a797b3          	sll	a5,a5,a0
   13514:	00b7e7b3          	or	a5,a5,a1
   13518:	ff868593          	addi	a1,a3,-8
   1351c:	00c72423          	sw	a2,8(a4)
   13520:	00b72623          	sw	a1,12(a4)
   13524:	00f82223          	sw	a5,4(a6)
   13528:	00e6a023          	sw	a4,0(a3)
   1352c:	00e62623          	sw	a4,12(a2)
   13530:	00040513          	addi	a0,s0,0
   13534:	01812403          	lw	s0,24(sp)
   13538:	01c12083          	lw	ra,28(sp)
   1353c:	02010113          	addi	sp,sp,32
   13540:	2810006f          	jal	zero,13fc0 <__malloc_unlock>
   13544:	02089e63          	bne	a7,zero,13580 <_free_r+0x12c>
   13548:	0006d5b7          	lui	a1,0x6d
   1354c:	00d787b3          	add	a5,a5,a3
   13550:	14858593          	addi	a1,a1,328 # 6d148 <__malloc_av_+0x8>
   13554:	00862683          	lw	a3,8(a2)
   13558:	0017e893          	ori	a7,a5,1
   1355c:	00f70533          	add	a0,a4,a5
   13560:	16b68063          	beq	a3,a1,136c0 <_free_r+0x26c>
   13564:	00c62603          	lw	a2,12(a2)
   13568:	00c6a623          	sw	a2,12(a3)
   1356c:	00d62423          	sw	a3,8(a2)
   13570:	01172223          	sw	a7,4(a4)
   13574:	00f52023          	sw	a5,0(a0)
   13578:	f75ff06f          	jal	zero,134ec <_free_r+0x98>
   1357c:	00008067          	jalr	zero,0(ra)
   13580:	00156513          	ori	a0,a0,1
   13584:	fea5ae23          	sw	a0,-4(a1)
   13588:	00f62023          	sw	a5,0(a2)
   1358c:	1ff00693          	addi	a3,zero,511
   13590:	f6f6f2e3          	bgeu	a3,a5,134f4 <_free_r+0xa0>
   13594:	0097d693          	srli	a3,a5,0x9
   13598:	00400613          	addi	a2,zero,4
   1359c:	0ed66063          	bltu	a2,a3,1367c <_free_r+0x228>
   135a0:	0067d693          	srli	a3,a5,0x6
   135a4:	03968593          	addi	a1,a3,57
   135a8:	00359593          	slli	a1,a1,0x3
   135ac:	03868613          	addi	a2,a3,56
   135b0:	00b805b3          	add	a1,a6,a1
   135b4:	0005a683          	lw	a3,0(a1)
   135b8:	ff858593          	addi	a1,a1,-8
   135bc:	00d59863          	bne	a1,a3,135cc <_free_r+0x178>
   135c0:	11c0006f          	jal	zero,136dc <_free_r+0x288>
   135c4:	0086a683          	lw	a3,8(a3)
   135c8:	00d58863          	beq	a1,a3,135d8 <_free_r+0x184>
   135cc:	0046a603          	lw	a2,4(a3)
   135d0:	ffc67613          	andi	a2,a2,-4
   135d4:	fec7e8e3          	bltu	a5,a2,135c4 <_free_r+0x170>
   135d8:	00c6a583          	lw	a1,12(a3)
   135dc:	00b72623          	sw	a1,12(a4)
   135e0:	00d72423          	sw	a3,8(a4)
   135e4:	00040513          	addi	a0,s0,0
   135e8:	01812403          	lw	s0,24(sp)
   135ec:	01c12083          	lw	ra,28(sp)
   135f0:	00e5a423          	sw	a4,8(a1)
   135f4:	00e6a623          	sw	a4,12(a3)
   135f8:	02010113          	addi	sp,sp,32
   135fc:	1c50006f          	jal	zero,13fc0 <__malloc_unlock>
   13600:	0a089063          	bne	a7,zero,136a0 <_free_r+0x24c>
   13604:	00c62583          	lw	a1,12(a2)
   13608:	00862603          	lw	a2,8(a2)
   1360c:	00f686b3          	add	a3,a3,a5
   13610:	0016e793          	ori	a5,a3,1
   13614:	00b62623          	sw	a1,12(a2)
   13618:	00c5a423          	sw	a2,8(a1)
   1361c:	00f72223          	sw	a5,4(a4)
   13620:	00d70733          	add	a4,a4,a3
   13624:	00d72023          	sw	a3,0(a4)
   13628:	f09ff06f          	jal	zero,13530 <_free_r+0xdc>
   1362c:	00d786b3          	add	a3,a5,a3
   13630:	02031063          	bne	t1,zero,13650 <_free_r+0x1fc>
   13634:	ff85a783          	lw	a5,-8(a1)
   13638:	40f70733          	sub	a4,a4,a5
   1363c:	00872603          	lw	a2,8(a4)
   13640:	00f686b3          	add	a3,a3,a5
   13644:	00c72783          	lw	a5,12(a4)
   13648:	00f62623          	sw	a5,12(a2)
   1364c:	00c7a423          	sw	a2,8(a5)
   13650:	0016e613          	ori	a2,a3,1
   13654:	86c1a783          	lw	a5,-1940(gp) # 6d724 <__malloc_trim_threshold>
   13658:	00c72223          	sw	a2,4(a4)
   1365c:	00e82423          	sw	a4,8(a6)
   13660:	ecf6e8e3          	bltu	a3,a5,13530 <_free_r+0xdc>
   13664:	8981a583          	lw	a1,-1896(gp) # 6d750 <__malloc_top_pad>
   13668:	00040513          	addi	a0,s0,0
   1366c:	cbdff0ef          	jal	ra,13328 <_malloc_trim_r>
   13670:	ec1ff06f          	jal	zero,13530 <_free_r+0xdc>
   13674:	00d787b3          	add	a5,a5,a3
   13678:	eddff06f          	jal	zero,13554 <_free_r+0x100>
   1367c:	01400613          	addi	a2,zero,20
   13680:	02d67863          	bgeu	a2,a3,136b0 <_free_r+0x25c>
   13684:	05400613          	addi	a2,zero,84
   13688:	06d66863          	bltu	a2,a3,136f8 <_free_r+0x2a4>
   1368c:	00c7d693          	srli	a3,a5,0xc
   13690:	06f68593          	addi	a1,a3,111
   13694:	00359593          	slli	a1,a1,0x3
   13698:	06e68613          	addi	a2,a3,110
   1369c:	f15ff06f          	jal	zero,135b0 <_free_r+0x15c>
   136a0:	0017e693          	ori	a3,a5,1
   136a4:	00d72223          	sw	a3,4(a4)
   136a8:	00f62023          	sw	a5,0(a2)
   136ac:	e85ff06f          	jal	zero,13530 <_free_r+0xdc>
   136b0:	05c68593          	addi	a1,a3,92
   136b4:	00359593          	slli	a1,a1,0x3
   136b8:	05b68613          	addi	a2,a3,91
   136bc:	ef5ff06f          	jal	zero,135b0 <_free_r+0x15c>
   136c0:	00e82a23          	sw	a4,20(a6)
   136c4:	00e82823          	sw	a4,16(a6)
   136c8:	00b72623          	sw	a1,12(a4)
   136cc:	00b72423          	sw	a1,8(a4)
   136d0:	01172223          	sw	a7,4(a4)
   136d4:	00f52023          	sw	a5,0(a0)
   136d8:	e59ff06f          	jal	zero,13530 <_free_r+0xdc>
   136dc:	00482503          	lw	a0,4(a6)
   136e0:	40265613          	srai	a2,a2,0x2
   136e4:	00100793          	addi	a5,zero,1
   136e8:	00c797b3          	sll	a5,a5,a2
   136ec:	00a7e7b3          	or	a5,a5,a0
   136f0:	00f82223          	sw	a5,4(a6)
   136f4:	ee9ff06f          	jal	zero,135dc <_free_r+0x188>
   136f8:	15400613          	addi	a2,zero,340
   136fc:	00d66c63          	bltu	a2,a3,13714 <_free_r+0x2c0>
   13700:	00f7d693          	srli	a3,a5,0xf
   13704:	07868593          	addi	a1,a3,120
   13708:	00359593          	slli	a1,a1,0x3
   1370c:	07768613          	addi	a2,a3,119
   13710:	ea1ff06f          	jal	zero,135b0 <_free_r+0x15c>
   13714:	55400613          	addi	a2,zero,1364
   13718:	00d66c63          	bltu	a2,a3,13730 <_free_r+0x2dc>
   1371c:	0127d693          	srli	a3,a5,0x12
   13720:	07d68593          	addi	a1,a3,125
   13724:	00359593          	slli	a1,a1,0x3
   13728:	07c68613          	addi	a2,a3,124
   1372c:	e85ff06f          	jal	zero,135b0 <_free_r+0x15c>
   13730:	3f800593          	addi	a1,zero,1016
   13734:	07e00613          	addi	a2,zero,126
   13738:	e79ff06f          	jal	zero,135b0 <_free_r+0x15c>

0001373c <_malloc_r>:
   1373c:	fc010113          	addi	sp,sp,-64
   13740:	02812c23          	sw	s0,56(sp)
   13744:	02112e23          	sw	ra,60(sp)
   13748:	00b58793          	addi	a5,a1,11
   1374c:	01600713          	addi	a4,zero,22
   13750:	00050413          	addi	s0,a0,0
   13754:	08f76e63          	bltu	a4,a5,137f0 <_malloc_r+0xb4>
   13758:	01000693          	addi	a3,zero,16
   1375c:	06b6ec63          	bltu	a3,a1,137d4 <_malloc_r+0x98>
   13760:	05d000ef          	jal	ra,13fbc <__malloc_lock>
   13764:	01000693          	addi	a3,zero,16
   13768:	01800713          	addi	a4,zero,24
   1376c:	00200893          	addi	a7,zero,2
   13770:	0006d837          	lui	a6,0x6d
   13774:	14080813          	addi	a6,a6,320 # 6d140 <__malloc_av_>
   13778:	00e80733          	add	a4,a6,a4
   1377c:	00472783          	lw	a5,4(a4)
   13780:	ff870613          	addi	a2,a4,-8
   13784:	44c78e63          	beq	a5,a2,13be0 <_malloc_r+0x4a4>
   13788:	0047a703          	lw	a4,4(a5)
   1378c:	00c7a603          	lw	a2,12(a5)
   13790:	0087a583          	lw	a1,8(a5)
   13794:	ffc77713          	andi	a4,a4,-4
   13798:	00e78733          	add	a4,a5,a4
   1379c:	00472683          	lw	a3,4(a4)
   137a0:	00c5a623          	sw	a2,12(a1)
   137a4:	00f12623          	sw	a5,12(sp)
   137a8:	00b62423          	sw	a1,8(a2)
   137ac:	0016e693          	ori	a3,a3,1
   137b0:	00040513          	addi	a0,s0,0
   137b4:	00d72223          	sw	a3,4(a4)
   137b8:	009000ef          	jal	ra,13fc0 <__malloc_unlock>
   137bc:	00c12783          	lw	a5,12(sp)
   137c0:	03c12083          	lw	ra,60(sp)
   137c4:	03812403          	lw	s0,56(sp)
   137c8:	00878513          	addi	a0,a5,8
   137cc:	04010113          	addi	sp,sp,64
   137d0:	00008067          	jalr	zero,0(ra)
   137d4:	00c00793          	addi	a5,zero,12
   137d8:	00f42023          	sw	a5,0(s0)
   137dc:	00000513          	addi	a0,zero,0
   137e0:	03c12083          	lw	ra,60(sp)
   137e4:	03812403          	lw	s0,56(sp)
   137e8:	04010113          	addi	sp,sp,64
   137ec:	00008067          	jalr	zero,0(ra)
   137f0:	ff87f693          	andi	a3,a5,-8
   137f4:	fe07c0e3          	blt	a5,zero,137d4 <_malloc_r+0x98>
   137f8:	fcb6eee3          	bltu	a3,a1,137d4 <_malloc_r+0x98>
   137fc:	00d12623          	sw	a3,12(sp)
   13800:	7bc000ef          	jal	ra,13fbc <__malloc_lock>
   13804:	00c12683          	lw	a3,12(sp)
   13808:	1f700793          	addi	a5,zero,503
   1380c:	4cd7f863          	bgeu	a5,a3,13cdc <_malloc_r+0x5a0>
   13810:	0096d793          	srli	a5,a3,0x9
   13814:	16078e63          	beq	a5,zero,13990 <_malloc_r+0x254>
   13818:	00400713          	addi	a4,zero,4
   1381c:	42f76a63          	bltu	a4,a5,13c50 <_malloc_r+0x514>
   13820:	0066d793          	srli	a5,a3,0x6
   13824:	03978893          	addi	a7,a5,57
   13828:	03878e13          	addi	t3,a5,56
   1382c:	00389513          	slli	a0,a7,0x3
   13830:	0006d837          	lui	a6,0x6d
   13834:	14080813          	addi	a6,a6,320 # 6d140 <__malloc_av_>
   13838:	00a80533          	add	a0,a6,a0
   1383c:	00452783          	lw	a5,4(a0)
   13840:	ff850513          	addi	a0,a0,-8
   13844:	02f50863          	beq	a0,a5,13874 <_malloc_r+0x138>
   13848:	00f00313          	addi	t1,zero,15
   1384c:	0140006f          	jal	zero,13860 <_malloc_r+0x124>
   13850:	00c7a583          	lw	a1,12(a5)
   13854:	34065663          	bge	a2,zero,13ba0 <_malloc_r+0x464>
   13858:	00b50e63          	beq	a0,a1,13874 <_malloc_r+0x138>
   1385c:	00058793          	addi	a5,a1,0
   13860:	0047a703          	lw	a4,4(a5)
   13864:	ffc77713          	andi	a4,a4,-4
   13868:	40d70633          	sub	a2,a4,a3
   1386c:	fec352e3          	bge	t1,a2,13850 <_malloc_r+0x114>
   13870:	000e0893          	addi	a7,t3,0
   13874:	01082783          	lw	a5,16(a6)
   13878:	0006de37          	lui	t3,0x6d
   1387c:	148e0e13          	addi	t3,t3,328 # 6d148 <__malloc_av_+0x8>
   13880:	2dc78e63          	beq	a5,t3,13b5c <_malloc_r+0x420>
   13884:	0047a703          	lw	a4,4(a5)
   13888:	00f00593          	addi	a1,zero,15
   1388c:	ffc77713          	andi	a4,a4,-4
   13890:	40d70633          	sub	a2,a4,a3
   13894:	46c5ce63          	blt	a1,a2,13d10 <_malloc_r+0x5d4>
   13898:	01c82a23          	sw	t3,20(a6)
   1389c:	01c82823          	sw	t3,16(a6)
   138a0:	44065463          	bge	a2,zero,13ce8 <_malloc_r+0x5ac>
   138a4:	1ff00613          	addi	a2,zero,511
   138a8:	00482303          	lw	t1,4(a6)
   138ac:	34e66263          	bltu	a2,a4,13bf0 <_malloc_r+0x4b4>
   138b0:	ff877613          	andi	a2,a4,-8
   138b4:	00860613          	addi	a2,a2,8
   138b8:	00c80633          	add	a2,a6,a2
   138bc:	00062583          	lw	a1,0(a2)
   138c0:	00575513          	srli	a0,a4,0x5
   138c4:	00100713          	addi	a4,zero,1
   138c8:	00a71733          	sll	a4,a4,a0
   138cc:	00e36333          	or	t1,t1,a4
   138d0:	ff860713          	addi	a4,a2,-8
   138d4:	00b7a423          	sw	a1,8(a5)
   138d8:	00e7a623          	sw	a4,12(a5)
   138dc:	00682223          	sw	t1,4(a6)
   138e0:	00f62023          	sw	a5,0(a2)
   138e4:	00f5a623          	sw	a5,12(a1)
   138e8:	4028d793          	srai	a5,a7,0x2
   138ec:	00100513          	addi	a0,zero,1
   138f0:	00f51533          	sll	a0,a0,a5
   138f4:	0aa36663          	bltu	t1,a0,139a0 <_malloc_r+0x264>
   138f8:	006577b3          	and	a5,a0,t1
   138fc:	02079463          	bne	a5,zero,13924 <_malloc_r+0x1e8>
   13900:	00151513          	slli	a0,a0,0x1
   13904:	ffc8f893          	andi	a7,a7,-4
   13908:	006577b3          	and	a5,a0,t1
   1390c:	00488893          	addi	a7,a7,4
   13910:	00079a63          	bne	a5,zero,13924 <_malloc_r+0x1e8>
   13914:	00151513          	slli	a0,a0,0x1
   13918:	006577b3          	and	a5,a0,t1
   1391c:	00488893          	addi	a7,a7,4
   13920:	fe078ae3          	beq	a5,zero,13914 <_malloc_r+0x1d8>
   13924:	00f00e93          	addi	t4,zero,15
   13928:	00389f13          	slli	t5,a7,0x3
   1392c:	01e80f33          	add	t5,a6,t5
   13930:	000f0313          	addi	t1,t5,0
   13934:	00c32703          	lw	a4,12(t1)
   13938:	00088f93          	addi	t6,a7,0
   1393c:	32e30c63          	beq	t1,a4,13c74 <_malloc_r+0x538>
   13940:	00472603          	lw	a2,4(a4)
   13944:	00070793          	addi	a5,a4,0
   13948:	00c72703          	lw	a4,12(a4)
   1394c:	ffc67613          	andi	a2,a2,-4
   13950:	40d605b3          	sub	a1,a2,a3
   13954:	32becc63          	blt	t4,a1,13c8c <_malloc_r+0x550>
   13958:	fe05c2e3          	blt	a1,zero,1393c <_malloc_r+0x200>
   1395c:	00c78633          	add	a2,a5,a2
   13960:	00462683          	lw	a3,4(a2)
   13964:	0087a583          	lw	a1,8(a5)
   13968:	00040513          	addi	a0,s0,0
   1396c:	0016e693          	ori	a3,a3,1
   13970:	00d62223          	sw	a3,4(a2)
   13974:	00e5a623          	sw	a4,12(a1)
   13978:	00b72423          	sw	a1,8(a4)
   1397c:	00f12623          	sw	a5,12(sp)
   13980:	640000ef          	jal	ra,13fc0 <__malloc_unlock>
   13984:	00c12783          	lw	a5,12(sp)
   13988:	00878513          	addi	a0,a5,8
   1398c:	e55ff06f          	jal	zero,137e0 <_malloc_r+0xa4>
   13990:	20000513          	addi	a0,zero,512
   13994:	04000893          	addi	a7,zero,64
   13998:	03f00e13          	addi	t3,zero,63
   1399c:	e95ff06f          	jal	zero,13830 <_malloc_r+0xf4>
   139a0:	00882783          	lw	a5,8(a6)
   139a4:	0047a703          	lw	a4,4(a5)
   139a8:	ffc77713          	andi	a4,a4,-4
   139ac:	40d70633          	sub	a2,a4,a3
   139b0:	00d76663          	bltu	a4,a3,139bc <_malloc_r+0x280>
   139b4:	01062593          	slti	a1,a2,16
   139b8:	1a058663          	beq	a1,zero,13b64 <_malloc_r+0x428>
   139bc:	8981a583          	lw	a1,-1896(gp) # 6d750 <__malloc_top_pad>
   139c0:	8681a503          	lw	a0,-1944(gp) # 6d720 <__malloc_sbrk_base>
   139c4:	fff00613          	addi	a2,zero,-1
   139c8:	00b685b3          	add	a1,a3,a1
   139cc:	42c50663          	beq	a0,a2,13df8 <_malloc_r+0x6bc>
   139d0:	00001637          	lui	a2,0x1
   139d4:	00f60613          	addi	a2,a2,15 # 100f <exit-0xf0a5>
   139d8:	00c585b3          	add	a1,a1,a2
   139dc:	fffff637          	lui	a2,0xfffff
   139e0:	00c5f5b3          	and	a1,a1,a2
   139e4:	00040513          	addi	a0,s0,0
   139e8:	01012e23          	sw	a6,28(sp)
   139ec:	00f12c23          	sw	a5,24(sp)
   139f0:	00d12a23          	sw	a3,20(sp)
   139f4:	00e12823          	sw	a4,16(sp)
   139f8:	00b12623          	sw	a1,12(sp)
   139fc:	354040ef          	jal	ra,17d50 <_sbrk_r>
   13a00:	fff00613          	addi	a2,zero,-1
   13a04:	00c12583          	lw	a1,12(sp)
   13a08:	01012703          	lw	a4,16(sp)
   13a0c:	01412683          	lw	a3,20(sp)
   13a10:	01812783          	lw	a5,24(sp)
   13a14:	01c12803          	lw	a6,28(sp)
   13a18:	00050893          	addi	a7,a0,0
   13a1c:	34c50863          	beq	a0,a2,13d6c <_malloc_r+0x630>
   13a20:	00e78533          	add	a0,a5,a4
   13a24:	34a8e263          	bltu	a7,a0,13d68 <_malloc_r+0x62c>
   13a28:	000eee37          	lui	t3,0xee
   13a2c:	738e0e13          	addi	t3,t3,1848 # ee738 <__malloc_current_mallinfo>
   13a30:	000e2603          	lw	a2,0(t3)
   13a34:	00c58633          	add	a2,a1,a2
   13a38:	00ce2023          	sw	a2,0(t3)
   13a3c:	00060e93          	addi	t4,a2,0 # fffff000 <__BSS_END__+0xfff10710>
   13a40:	49150863          	beq	a0,a7,13ed0 <_malloc_r+0x794>
   13a44:	8681af03          	lw	t5,-1944(gp) # 6d720 <__malloc_sbrk_base>
   13a48:	fff00613          	addi	a2,zero,-1
   13a4c:	4acf0063          	beq	t5,a2,13eec <_malloc_r+0x7b0>
   13a50:	40a88633          	sub	a2,a7,a0
   13a54:	01d60633          	add	a2,a2,t4
   13a58:	00ce2023          	sw	a2,0(t3)
   13a5c:	0078fe93          	andi	t4,a7,7
   13a60:	3a0e8c63          	beq	t4,zero,13e18 <_malloc_r+0x6dc>
   13a64:	ff88f893          	andi	a7,a7,-8
   13a68:	00001637          	lui	a2,0x1
   13a6c:	00888893          	addi	a7,a7,8
   13a70:	00860613          	addi	a2,a2,8 # 1008 <exit-0xf0ac>
   13a74:	00b88333          	add	t1,a7,a1
   13a78:	41d60633          	sub	a2,a2,t4
   13a7c:	40660633          	sub	a2,a2,t1
   13a80:	01461613          	slli	a2,a2,0x14
   13a84:	01465593          	srli	a1,a2,0x14
   13a88:	00040513          	addi	a0,s0,0
   13a8c:	03012623          	sw	a6,44(sp)
   13a90:	03c12423          	sw	t3,40(sp)
   13a94:	02f12223          	sw	a5,36(sp)
   13a98:	02d12023          	sw	a3,32(sp)
   13a9c:	00e12e23          	sw	a4,28(sp)
   13aa0:	01112c23          	sw	a7,24(sp)
   13aa4:	01d12a23          	sw	t4,20(sp)
   13aa8:	00612823          	sw	t1,16(sp)
   13aac:	00b12623          	sw	a1,12(sp)
   13ab0:	2a0040ef          	jal	ra,17d50 <_sbrk_r>
   13ab4:	fff00613          	addi	a2,zero,-1
   13ab8:	00c12583          	lw	a1,12(sp)
   13abc:	01012303          	lw	t1,16(sp)
   13ac0:	01412e83          	lw	t4,20(sp)
   13ac4:	01812883          	lw	a7,24(sp)
   13ac8:	01c12703          	lw	a4,28(sp)
   13acc:	02012683          	lw	a3,32(sp)
   13ad0:	02412783          	lw	a5,36(sp)
   13ad4:	02812e03          	lw	t3,40(sp)
   13ad8:	02c12803          	lw	a6,44(sp)
   13adc:	44c50e63          	beq	a0,a2,13f38 <_malloc_r+0x7fc>
   13ae0:	000e2603          	lw	a2,0(t3)
   13ae4:	41150533          	sub	a0,a0,a7
   13ae8:	00b50533          	add	a0,a0,a1
   13aec:	00156513          	ori	a0,a0,1
   13af0:	01182423          	sw	a7,8(a6)
   13af4:	00c58633          	add	a2,a1,a2
   13af8:	00a8a223          	sw	a0,4(a7)
   13afc:	00ce2023          	sw	a2,0(t3)
   13b00:	03078e63          	beq	a5,a6,13b3c <_malloc_r+0x400>
   13b04:	00f00513          	addi	a0,zero,15
   13b08:	3ee57663          	bgeu	a0,a4,13ef4 <_malloc_r+0x7b8>
   13b0c:	0047a583          	lw	a1,4(a5)
   13b10:	ff470713          	addi	a4,a4,-12
   13b14:	ff877713          	andi	a4,a4,-8
   13b18:	0015f593          	andi	a1,a1,1
   13b1c:	00e5e5b3          	or	a1,a1,a4
   13b20:	00b7a223          	sw	a1,4(a5)
   13b24:	00500313          	addi	t1,zero,5
   13b28:	00e785b3          	add	a1,a5,a4
   13b2c:	0065a223          	sw	t1,4(a1)
   13b30:	0065a423          	sw	t1,8(a1)
   13b34:	40e56a63          	bltu	a0,a4,13f48 <_malloc_r+0x80c>
   13b38:	0048a503          	lw	a0,4(a7)
   13b3c:	8941a703          	lw	a4,-1900(gp) # 6d74c <__malloc_max_sbrked_mem>
   13b40:	00c77463          	bgeu	a4,a2,13b48 <_malloc_r+0x40c>
   13b44:	88c1aa23          	sw	a2,-1900(gp) # 6d74c <__malloc_max_sbrked_mem>
   13b48:	8901a703          	lw	a4,-1904(gp) # 6d748 <__malloc_max_total_mem>
   13b4c:	00c77463          	bgeu	a4,a2,13b54 <_malloc_r+0x418>
   13b50:	88c1a823          	sw	a2,-1904(gp) # 6d748 <__malloc_max_total_mem>
   13b54:	00088793          	addi	a5,a7,0
   13b58:	21c0006f          	jal	zero,13d74 <_malloc_r+0x638>
   13b5c:	00482303          	lw	t1,4(a6)
   13b60:	d89ff06f          	jal	zero,138e8 <_malloc_r+0x1ac>
   13b64:	0016e713          	ori	a4,a3,1
   13b68:	00e7a223          	sw	a4,4(a5)
   13b6c:	00d786b3          	add	a3,a5,a3
   13b70:	00166613          	ori	a2,a2,1
   13b74:	00d82423          	sw	a3,8(a6)
   13b78:	00040513          	addi	a0,s0,0
   13b7c:	00c6a223          	sw	a2,4(a3)
   13b80:	00f12623          	sw	a5,12(sp)
   13b84:	43c000ef          	jal	ra,13fc0 <__malloc_unlock>
   13b88:	00c12783          	lw	a5,12(sp)
   13b8c:	03c12083          	lw	ra,60(sp)
   13b90:	03812403          	lw	s0,56(sp)
   13b94:	00878513          	addi	a0,a5,8
   13b98:	04010113          	addi	sp,sp,64
   13b9c:	00008067          	jalr	zero,0(ra)
   13ba0:	0087a603          	lw	a2,8(a5)
   13ba4:	00e78733          	add	a4,a5,a4
   13ba8:	00472683          	lw	a3,4(a4)
   13bac:	00b62623          	sw	a1,12(a2)
   13bb0:	00f12623          	sw	a5,12(sp)
   13bb4:	0016e693          	ori	a3,a3,1
   13bb8:	00c5a423          	sw	a2,8(a1)
   13bbc:	00040513          	addi	a0,s0,0
   13bc0:	00d72223          	sw	a3,4(a4)
   13bc4:	3fc000ef          	jal	ra,13fc0 <__malloc_unlock>
   13bc8:	00c12783          	lw	a5,12(sp)
   13bcc:	03c12083          	lw	ra,60(sp)
   13bd0:	03812403          	lw	s0,56(sp)
   13bd4:	00878513          	addi	a0,a5,8
   13bd8:	04010113          	addi	sp,sp,64
   13bdc:	00008067          	jalr	zero,0(ra)
   13be0:	00c72783          	lw	a5,12(a4)
   13be4:	00288893          	addi	a7,a7,2
   13be8:	c8f706e3          	beq	a4,a5,13874 <_malloc_r+0x138>
   13bec:	b9dff06f          	jal	zero,13788 <_malloc_r+0x4c>
   13bf0:	00975613          	srli	a2,a4,0x9
   13bf4:	00400593          	addi	a1,zero,4
   13bf8:	14c5fe63          	bgeu	a1,a2,13d54 <_malloc_r+0x618>
   13bfc:	01400593          	addi	a1,zero,20
   13c00:	28c5e063          	bltu	a1,a2,13e80 <_malloc_r+0x744>
   13c04:	05c60513          	addi	a0,a2,92
   13c08:	00351513          	slli	a0,a0,0x3
   13c0c:	05b60593          	addi	a1,a2,91
   13c10:	00a80533          	add	a0,a6,a0
   13c14:	00052603          	lw	a2,0(a0)
   13c18:	ff850513          	addi	a0,a0,-8
   13c1c:	00c51863          	bne	a0,a2,13c2c <_malloc_r+0x4f0>
   13c20:	1e00006f          	jal	zero,13e00 <_malloc_r+0x6c4>
   13c24:	00862603          	lw	a2,8(a2)
   13c28:	00c50863          	beq	a0,a2,13c38 <_malloc_r+0x4fc>
   13c2c:	00462583          	lw	a1,4(a2)
   13c30:	ffc5f593          	andi	a1,a1,-4
   13c34:	feb768e3          	bltu	a4,a1,13c24 <_malloc_r+0x4e8>
   13c38:	00c62503          	lw	a0,12(a2)
   13c3c:	00a7a623          	sw	a0,12(a5)
   13c40:	00c7a423          	sw	a2,8(a5)
   13c44:	00f52423          	sw	a5,8(a0)
   13c48:	00f62623          	sw	a5,12(a2)
   13c4c:	c9dff06f          	jal	zero,138e8 <_malloc_r+0x1ac>
   13c50:	01400713          	addi	a4,zero,20
   13c54:	14f77063          	bgeu	a4,a5,13d94 <_malloc_r+0x658>
   13c58:	05400713          	addi	a4,zero,84
   13c5c:	24f76063          	bltu	a4,a5,13e9c <_malloc_r+0x760>
   13c60:	00c6d793          	srli	a5,a3,0xc
   13c64:	06f78893          	addi	a7,a5,111
   13c68:	06e78e13          	addi	t3,a5,110
   13c6c:	00389513          	slli	a0,a7,0x3
   13c70:	bc1ff06f          	jal	zero,13830 <_malloc_r+0xf4>
   13c74:	001f8f93          	addi	t6,t6,1
   13c78:	003ff793          	andi	a5,t6,3
   13c7c:	00830313          	addi	t1,t1,8
   13c80:	12078863          	beq	a5,zero,13db0 <_malloc_r+0x674>
   13c84:	00c32703          	lw	a4,12(t1)
   13c88:	cb5ff06f          	jal	zero,1393c <_malloc_r+0x200>
   13c8c:	0087a503          	lw	a0,8(a5)
   13c90:	0016e893          	ori	a7,a3,1
   13c94:	0117a223          	sw	a7,4(a5)
   13c98:	00e52623          	sw	a4,12(a0)
   13c9c:	00a72423          	sw	a0,8(a4)
   13ca0:	00d786b3          	add	a3,a5,a3
   13ca4:	00d82a23          	sw	a3,20(a6)
   13ca8:	00d82823          	sw	a3,16(a6)
   13cac:	0015e713          	ori	a4,a1,1
   13cb0:	00c78633          	add	a2,a5,a2
   13cb4:	01c6a623          	sw	t3,12(a3)
   13cb8:	01c6a423          	sw	t3,8(a3)
   13cbc:	00e6a223          	sw	a4,4(a3)
   13cc0:	00040513          	addi	a0,s0,0
   13cc4:	00b62023          	sw	a1,0(a2)
   13cc8:	00f12623          	sw	a5,12(sp)
   13ccc:	2f4000ef          	jal	ra,13fc0 <__malloc_unlock>
   13cd0:	00c12783          	lw	a5,12(sp)
   13cd4:	00878513          	addi	a0,a5,8
   13cd8:	b09ff06f          	jal	zero,137e0 <_malloc_r+0xa4>
   13cdc:	0036d893          	srli	a7,a3,0x3
   13ce0:	00868713          	addi	a4,a3,8
   13ce4:	a8dff06f          	jal	zero,13770 <_malloc_r+0x34>
   13ce8:	00e78733          	add	a4,a5,a4
   13cec:	00472683          	lw	a3,4(a4)
   13cf0:	00f12623          	sw	a5,12(sp)
   13cf4:	00040513          	addi	a0,s0,0
   13cf8:	0016e693          	ori	a3,a3,1
   13cfc:	00d72223          	sw	a3,4(a4)
   13d00:	2c0000ef          	jal	ra,13fc0 <__malloc_unlock>
   13d04:	00c12783          	lw	a5,12(sp)
   13d08:	00878513          	addi	a0,a5,8
   13d0c:	ad5ff06f          	jal	zero,137e0 <_malloc_r+0xa4>
   13d10:	0016e593          	ori	a1,a3,1
   13d14:	00b7a223          	sw	a1,4(a5)
   13d18:	00d786b3          	add	a3,a5,a3
   13d1c:	00d82a23          	sw	a3,20(a6)
   13d20:	00d82823          	sw	a3,16(a6)
   13d24:	00166593          	ori	a1,a2,1
   13d28:	00e78733          	add	a4,a5,a4
   13d2c:	01c6a623          	sw	t3,12(a3)
   13d30:	01c6a423          	sw	t3,8(a3)
   13d34:	00b6a223          	sw	a1,4(a3)
   13d38:	00040513          	addi	a0,s0,0
   13d3c:	00c72023          	sw	a2,0(a4)
   13d40:	00f12623          	sw	a5,12(sp)
   13d44:	27c000ef          	jal	ra,13fc0 <__malloc_unlock>
   13d48:	00c12783          	lw	a5,12(sp)
   13d4c:	00878513          	addi	a0,a5,8
   13d50:	a91ff06f          	jal	zero,137e0 <_malloc_r+0xa4>
   13d54:	00675613          	srli	a2,a4,0x6
   13d58:	03960513          	addi	a0,a2,57
   13d5c:	00351513          	slli	a0,a0,0x3
   13d60:	03860593          	addi	a1,a2,56
   13d64:	eadff06f          	jal	zero,13c10 <_malloc_r+0x4d4>
   13d68:	15078863          	beq	a5,a6,13eb8 <_malloc_r+0x77c>
   13d6c:	00882783          	lw	a5,8(a6)
   13d70:	0047a503          	lw	a0,4(a5)
   13d74:	ffc57513          	andi	a0,a0,-4
   13d78:	40d50633          	sub	a2,a0,a3
   13d7c:	00d56663          	bltu	a0,a3,13d88 <_malloc_r+0x64c>
   13d80:	01062713          	slti	a4,a2,16
   13d84:	de0700e3          	beq	a4,zero,13b64 <_malloc_r+0x428>
   13d88:	00040513          	addi	a0,s0,0
   13d8c:	234000ef          	jal	ra,13fc0 <__malloc_unlock>
   13d90:	a4dff06f          	jal	zero,137dc <_malloc_r+0xa0>
   13d94:	05c78893          	addi	a7,a5,92
   13d98:	05b78e13          	addi	t3,a5,91
   13d9c:	00389513          	slli	a0,a7,0x3
   13da0:	a91ff06f          	jal	zero,13830 <_malloc_r+0xf4>
   13da4:	008f2783          	lw	a5,8(t5)
   13da8:	fff88893          	addi	a7,a7,-1
   13dac:	21e79463          	bne	a5,t5,13fb4 <_malloc_r+0x878>
   13db0:	0038f793          	andi	a5,a7,3
   13db4:	ff8f0f13          	addi	t5,t5,-8
   13db8:	fe0796e3          	bne	a5,zero,13da4 <_malloc_r+0x668>
   13dbc:	00482703          	lw	a4,4(a6)
   13dc0:	fff54793          	xori	a5,a0,-1
   13dc4:	00e7f7b3          	and	a5,a5,a4
   13dc8:	00f82223          	sw	a5,4(a6)
   13dcc:	00151513          	slli	a0,a0,0x1
   13dd0:	fff50713          	addi	a4,a0,-1
   13dd4:	bcf776e3          	bgeu	a4,a5,139a0 <_malloc_r+0x264>
   13dd8:	00f57733          	and	a4,a0,a5
   13ddc:	00071a63          	bne	a4,zero,13df0 <_malloc_r+0x6b4>
   13de0:	00151513          	slli	a0,a0,0x1
   13de4:	00f57733          	and	a4,a0,a5
   13de8:	004f8f93          	addi	t6,t6,4
   13dec:	fe070ae3          	beq	a4,zero,13de0 <_malloc_r+0x6a4>
   13df0:	000f8893          	addi	a7,t6,0
   13df4:	b35ff06f          	jal	zero,13928 <_malloc_r+0x1ec>
   13df8:	01058593          	addi	a1,a1,16
   13dfc:	be9ff06f          	jal	zero,139e4 <_malloc_r+0x2a8>
   13e00:	4025d593          	srai	a1,a1,0x2
   13e04:	00100713          	addi	a4,zero,1
   13e08:	00b71733          	sll	a4,a4,a1
   13e0c:	00e36333          	or	t1,t1,a4
   13e10:	00682223          	sw	t1,4(a6)
   13e14:	e29ff06f          	jal	zero,13c3c <_malloc_r+0x500>
   13e18:	00b88333          	add	t1,a7,a1
   13e1c:	40600633          	sub	a2,zero,t1
   13e20:	01461613          	slli	a2,a2,0x14
   13e24:	01465593          	srli	a1,a2,0x14
   13e28:	00040513          	addi	a0,s0,0
   13e2c:	03012423          	sw	a6,40(sp)
   13e30:	03c12223          	sw	t3,36(sp)
   13e34:	02f12023          	sw	a5,32(sp)
   13e38:	00d12e23          	sw	a3,28(sp)
   13e3c:	00e12c23          	sw	a4,24(sp)
   13e40:	01112a23          	sw	a7,20(sp)
   13e44:	00b12623          	sw	a1,12(sp)
   13e48:	00612823          	sw	t1,16(sp)
   13e4c:	705030ef          	jal	ra,17d50 <_sbrk_r>
   13e50:	fff00613          	addi	a2,zero,-1
   13e54:	00c12583          	lw	a1,12(sp)
   13e58:	01412883          	lw	a7,20(sp)
   13e5c:	01812703          	lw	a4,24(sp)
   13e60:	01c12683          	lw	a3,28(sp)
   13e64:	02012783          	lw	a5,32(sp)
   13e68:	02412e03          	lw	t3,36(sp)
   13e6c:	02812803          	lw	a6,40(sp)
   13e70:	c6c518e3          	bne	a0,a2,13ae0 <_malloc_r+0x3a4>
   13e74:	01012503          	lw	a0,16(sp)
   13e78:	00000593          	addi	a1,zero,0
   13e7c:	c65ff06f          	jal	zero,13ae0 <_malloc_r+0x3a4>
   13e80:	05400593          	addi	a1,zero,84
   13e84:	06c5ee63          	bltu	a1,a2,13f00 <_malloc_r+0x7c4>
   13e88:	00c75613          	srli	a2,a4,0xc
   13e8c:	06f60513          	addi	a0,a2,111
   13e90:	00351513          	slli	a0,a0,0x3
   13e94:	06e60593          	addi	a1,a2,110
   13e98:	d79ff06f          	jal	zero,13c10 <_malloc_r+0x4d4>
   13e9c:	15400713          	addi	a4,zero,340
   13ea0:	06f76e63          	bltu	a4,a5,13f1c <_malloc_r+0x7e0>
   13ea4:	00f6d793          	srli	a5,a3,0xf
   13ea8:	07878893          	addi	a7,a5,120
   13eac:	07778e13          	addi	t3,a5,119
   13eb0:	00389513          	slli	a0,a7,0x3
   13eb4:	97dff06f          	jal	zero,13830 <_malloc_r+0xf4>
   13eb8:	000eee37          	lui	t3,0xee
   13ebc:	738e0e13          	addi	t3,t3,1848 # ee738 <__malloc_current_mallinfo>
   13ec0:	000e2e83          	lw	t4,0(t3)
   13ec4:	01d58eb3          	add	t4,a1,t4
   13ec8:	01de2023          	sw	t4,0(t3)
   13ecc:	b79ff06f          	jal	zero,13a44 <_malloc_r+0x308>
   13ed0:	01489f13          	slli	t5,a7,0x14
   13ed4:	b60f18e3          	bne	t5,zero,13a44 <_malloc_r+0x308>
   13ed8:	00882883          	lw	a7,8(a6)
   13edc:	00b705b3          	add	a1,a4,a1
   13ee0:	0015e513          	ori	a0,a1,1
   13ee4:	00a8a223          	sw	a0,4(a7)
   13ee8:	c55ff06f          	jal	zero,13b3c <_malloc_r+0x400>
   13eec:	8711a423          	sw	a7,-1944(gp) # 6d720 <__malloc_sbrk_base>
   13ef0:	b6dff06f          	jal	zero,13a5c <_malloc_r+0x320>
   13ef4:	00100793          	addi	a5,zero,1
   13ef8:	00f8a223          	sw	a5,4(a7)
   13efc:	e8dff06f          	jal	zero,13d88 <_malloc_r+0x64c>
   13f00:	15400593          	addi	a1,zero,340
   13f04:	06c5ec63          	bltu	a1,a2,13f7c <_malloc_r+0x840>
   13f08:	00f75613          	srli	a2,a4,0xf
   13f0c:	07860513          	addi	a0,a2,120
   13f10:	00351513          	slli	a0,a0,0x3
   13f14:	07760593          	addi	a1,a2,119
   13f18:	cf9ff06f          	jal	zero,13c10 <_malloc_r+0x4d4>
   13f1c:	55400713          	addi	a4,zero,1364
   13f20:	06f76c63          	bltu	a4,a5,13f98 <_malloc_r+0x85c>
   13f24:	0126d793          	srli	a5,a3,0x12
   13f28:	07d78893          	addi	a7,a5,125
   13f2c:	07c78e13          	addi	t3,a5,124
   13f30:	00389513          	slli	a0,a7,0x3
   13f34:	8fdff06f          	jal	zero,13830 <_malloc_r+0xf4>
   13f38:	ff8e8e93          	addi	t4,t4,-8
   13f3c:	01d30533          	add	a0,t1,t4
   13f40:	00000593          	addi	a1,zero,0
   13f44:	b9dff06f          	jal	zero,13ae0 <_malloc_r+0x3a4>
   13f48:	00040513          	addi	a0,s0,0
   13f4c:	00878593          	addi	a1,a5,8
   13f50:	01012a23          	sw	a6,20(sp)
   13f54:	01c12823          	sw	t3,16(sp)
   13f58:	00d12623          	sw	a3,12(sp)
   13f5c:	cf8ff0ef          	jal	ra,13454 <_free_r>
   13f60:	01412803          	lw	a6,20(sp)
   13f64:	01012e03          	lw	t3,16(sp)
   13f68:	00c12683          	lw	a3,12(sp)
   13f6c:	00882883          	lw	a7,8(a6)
   13f70:	000e2603          	lw	a2,0(t3)
   13f74:	0048a503          	lw	a0,4(a7)
   13f78:	bc5ff06f          	jal	zero,13b3c <_malloc_r+0x400>
   13f7c:	55400593          	addi	a1,zero,1364
   13f80:	02c5e463          	bltu	a1,a2,13fa8 <_malloc_r+0x86c>
   13f84:	01275613          	srli	a2,a4,0x12
   13f88:	07d60513          	addi	a0,a2,125
   13f8c:	00351513          	slli	a0,a0,0x3
   13f90:	07c60593          	addi	a1,a2,124
   13f94:	c7dff06f          	jal	zero,13c10 <_malloc_r+0x4d4>
   13f98:	3f800513          	addi	a0,zero,1016
   13f9c:	07f00893          	addi	a7,zero,127
   13fa0:	07e00e13          	addi	t3,zero,126
   13fa4:	88dff06f          	jal	zero,13830 <_malloc_r+0xf4>
   13fa8:	3f800513          	addi	a0,zero,1016
   13fac:	07e00593          	addi	a1,zero,126
   13fb0:	c61ff06f          	jal	zero,13c10 <_malloc_r+0x4d4>
   13fb4:	00482783          	lw	a5,4(a6)
   13fb8:	e15ff06f          	jal	zero,13dcc <_malloc_r+0x690>

00013fbc <__malloc_lock>:
   13fbc:	00008067          	jalr	zero,0(ra)

00013fc0 <__malloc_unlock>:
   13fc0:	00008067          	jalr	zero,0(ra)

00013fc4 <_vfprintf_r>:
   13fc4:	e4010113          	addi	sp,sp,-448
   13fc8:	1a112e23          	sw	ra,444(sp)
   13fcc:	1a912a23          	sw	s1,436(sp)
   13fd0:	1b212823          	sw	s2,432(sp)
   13fd4:	19a12823          	sw	s10,400(sp)
   13fd8:	00d12623          	sw	a3,12(sp)
   13fdc:	00060d13          	addi	s10,a2,0
   13fe0:	00058493          	addi	s1,a1,0
   13fe4:	00050913          	addi	s2,a0,0
   13fe8:	551030ef          	jal	ra,17d38 <_localeconv_r>
   13fec:	00052783          	lw	a5,0(a0)
   13ff0:	00078513          	addi	a0,a5,0
   13ff4:	02f12423          	sw	a5,40(sp)
   13ff8:	060040ef          	jal	ra,18058 <strlen>
   13ffc:	02a12223          	sw	a0,36(sp)
   14000:	0c012023          	sw	zero,192(sp)
   14004:	00090863          	beq	s2,zero,14014 <_vfprintf_r+0x50>
   14008:	03492783          	lw	a5,52(s2)
   1400c:	00079463          	bne	a5,zero,14014 <_vfprintf_r+0x50>
   14010:	5c90106f          	jal	zero,15dd8 <_vfprintf_r+0x1e14>
   14014:	00c49783          	lh	a5,12(s1)
   14018:	0644a703          	lw	a4,100(s1)
   1401c:	00002637          	lui	a2,0x2
   14020:	01279693          	slli	a3,a5,0x12
   14024:	3606c463          	blt	a3,zero,1438c <_vfprintf_r+0x3c8>
   14028:	ffffe6b7          	lui	a3,0xffffe
   1402c:	00c7e7b3          	or	a5,a5,a2
   14030:	fff68693          	addi	a3,a3,-1 # ffffdfff <__BSS_END__+0xfff0f70f>
   14034:	00d77733          	and	a4,a4,a3
   14038:	00f49623          	sh	a5,12(s1)
   1403c:	01079793          	slli	a5,a5,0x10
   14040:	4107d793          	srai	a5,a5,0x10
   14044:	06e4a223          	sw	a4,100(s1)
   14048:	0087f713          	andi	a4,a5,8
   1404c:	2c070463          	beq	a4,zero,14314 <_vfprintf_r+0x350>
   14050:	0104a703          	lw	a4,16(s1)
   14054:	2c070063          	beq	a4,zero,14314 <_vfprintf_r+0x350>
   14058:	01a7f793          	andi	a5,a5,26
   1405c:	00a00713          	addi	a4,zero,10
   14060:	2ce78a63          	beq	a5,a4,14334 <_vfprintf_r+0x370>
   14064:	0006c7b7          	lui	a5,0x6c
   14068:	1b312623          	sw	s3,428(sp)
   1406c:	1b412423          	sw	s4,424(sp)
   14070:	0dc10993          	addi	s3,sp,220
   14074:	0006da37          	lui	s4,0x6d
   14078:	6bc78793          	addi	a5,a5,1724 # 6c6bc <__clz_tab+0x100>
   1407c:	1a812c23          	sw	s0,440(sp)
   14080:	1b612023          	sw	s6,416(sp)
   14084:	1b512223          	sw	s5,420(sp)
   14088:	19712e23          	sw	s7,412(sp)
   1408c:	19812c23          	sw	s8,408(sp)
   14090:	19912a23          	sw	s9,404(sp)
   14094:	19b12623          	sw	s11,396(sp)
   14098:	0a012e23          	sw	zero,188(sp)
   1409c:	0a012c23          	sw	zero,184(sp)
   140a0:	0b312a23          	sw	s3,180(sp)
   140a4:	00098b13          	addi	s6,s3,0
   140a8:	00f12a23          	sw	a5,20(sp)
   140ac:	828a0a13          	addi	s4,s4,-2008 # 6c828 <zeroes.0>
   140b0:	00012c23          	sw	zero,24(sp)
   140b4:	02012623          	sw	zero,44(sp)
   140b8:	02012823          	sw	zero,48(sp)
   140bc:	04012223          	sw	zero,68(sp)
   140c0:	02012a23          	sw	zero,52(sp)
   140c4:	00012423          	sw	zero,8(sp)
   140c8:	01000413          	addi	s0,zero,16
   140cc:	00912223          	sw	s1,4(sp)
   140d0:	000d4783          	lbu	a5,0(s10)
   140d4:	000d0a93          	addi	s5,s10,0
   140d8:	fdb78713          	addi	a4,a5,-37
   140dc:	06070263          	beq	a4,zero,14140 <_vfprintf_r+0x17c>
   140e0:	06078063          	beq	a5,zero,14140 <_vfprintf_r+0x17c>
   140e4:	000a8c13          	addi	s8,s5,0
   140e8:	001ac783          	lbu	a5,1(s5)
   140ec:	001a8a93          	addi	s5,s5,1
   140f0:	00078663          	beq	a5,zero,140fc <_vfprintf_r+0x138>
   140f4:	fdb78713          	addi	a4,a5,-37
   140f8:	fe0716e3          	bne	a4,zero,140e4 <_vfprintf_r+0x120>
   140fc:	41aa8cb3          	sub	s9,s5,s10
   14100:	05aa8063          	beq	s5,s10,14140 <_vfprintf_r+0x17c>
   14104:	0bc12783          	lw	a5,188(sp)
   14108:	0b812503          	lw	a0,184(sp)
   1410c:	01ab2023          	sw	s10,0(s6)
   14110:	019787b3          	add	a5,a5,s9
   14114:	00150513          	addi	a0,a0,1
   14118:	019b2223          	sw	s9,4(s6)
   1411c:	0af12e23          	sw	a5,188(sp)
   14120:	0aa12c23          	sw	a0,184(sp)
   14124:	00700793          	addi	a5,zero,7
   14128:	008b0b13          	addi	s6,s6,8
   1412c:	24a7c063          	blt	a5,a0,1436c <_vfprintf_r+0x3a8>
   14130:	00812783          	lw	a5,8(sp)
   14134:	019787b3          	add	a5,a5,s9
   14138:	00f12423          	sw	a5,8(sp)
   1413c:	001c4783          	lbu	a5,1(s8)
   14140:	00079463          	bne	a5,zero,14148 <_vfprintf_r+0x184>
   14144:	5cd0106f          	jal	zero,15f10 <_vfprintf_r+0x1f4c>
   14148:	001ac883          	lbu	a7,1(s5)
   1414c:	001a8d13          	addi	s10,s5,1
   14150:	080109a3          	sb	zero,147(sp)
   14154:	fff00a93          	addi	s5,zero,-1
   14158:	00012023          	sw	zero,0(sp)
   1415c:	00000b93          	addi	s7,zero,0
   14160:	05a00c13          	addi	s8,zero,90
   14164:	001d0d13          	addi	s10,s10,1
   14168:	fe088793          	addi	a5,a7,-32
   1416c:	04fc6c63          	bltu	s8,a5,141c4 <_vfprintf_r+0x200>
   14170:	01412703          	lw	a4,20(sp)
   14174:	00279793          	slli	a5,a5,0x2
   14178:	00e787b3          	add	a5,a5,a4
   1417c:	0007a783          	lw	a5,0(a5)
   14180:	00078067          	jalr	zero,0(a5)
   14184:	fd088793          	addi	a5,a7,-48
   14188:	00012023          	sw	zero,0(sp)
   1418c:	00900693          	addi	a3,zero,9
   14190:	00012703          	lw	a4,0(sp)
   14194:	00012603          	lw	a2,0(sp)
   14198:	000d4883          	lbu	a7,0(s10)
   1419c:	00271713          	slli	a4,a4,0x2
   141a0:	00c70733          	add	a4,a4,a2
   141a4:	00171713          	slli	a4,a4,0x1
   141a8:	00e787b3          	add	a5,a5,a4
   141ac:	00f12023          	sw	a5,0(sp)
   141b0:	fd088793          	addi	a5,a7,-48
   141b4:	001d0d13          	addi	s10,s10,1
   141b8:	fcf6fce3          	bgeu	a3,a5,14190 <_vfprintf_r+0x1cc>
   141bc:	fe088793          	addi	a5,a7,-32
   141c0:	fafc78e3          	bgeu	s8,a5,14170 <_vfprintf_r+0x1ac>
   141c4:	00089463          	bne	a7,zero,141cc <_vfprintf_r+0x208>
   141c8:	5490106f          	jal	zero,15f10 <_vfprintf_r+0x1f4c>
   141cc:	00100c93          	addi	s9,zero,1
   141d0:	11110e23          	sb	a7,284(sp)
   141d4:	080109a3          	sb	zero,147(sp)
   141d8:	000c8c13          	addi	s8,s9,0
   141dc:	00012823          	sw	zero,16(sp)
   141e0:	00000a93          	addi	s5,zero,0
   141e4:	02012023          	sw	zero,32(sp)
   141e8:	00012e23          	sw	zero,28(sp)
   141ec:	00000313          	addi	t1,zero,0
   141f0:	11c10793          	addi	a5,sp,284
   141f4:	0bc12603          	lw	a2,188(sp)
   141f8:	084bfd93          	andi	s11,s7,132
   141fc:	00060813          	addi	a6,a2,0 # 2000 <exit-0xe0b4>
   14200:	7e0d8663          	beq	s11,zero,149ec <_vfprintf_r+0xa28>
   14204:	09314703          	lbu	a4,147(sp)
   14208:	06070863          	beq	a4,zero,14278 <_vfprintf_r+0x2b4>
   1420c:	0b812583          	lw	a1,184(sp)
   14210:	00000713          	addi	a4,zero,0
   14214:	09310513          	addi	a0,sp,147
   14218:	00ab2023          	sw	a0,0(s6)
   1421c:	00160613          	addi	a2,a2,1
   14220:	00100513          	addi	a0,zero,1
   14224:	00158593          	addi	a1,a1,1
   14228:	00ab2223          	sw	a0,4(s6)
   1422c:	0ac12e23          	sw	a2,188(sp)
   14230:	0ab12c23          	sw	a1,184(sp)
   14234:	00700513          	addi	a0,zero,7
   14238:	008b0b13          	addi	s6,s6,8
   1423c:	58b54e63          	blt	a0,a1,147d8 <_vfprintf_r+0x814>
   14240:	02070c63          	beq	a4,zero,14278 <_vfprintf_r+0x2b4>
   14244:	0b812583          	lw	a1,184(sp)
   14248:	09410713          	addi	a4,sp,148
   1424c:	00eb2023          	sw	a4,0(s6)
   14250:	00260613          	addi	a2,a2,2
   14254:	00200713          	addi	a4,zero,2
   14258:	00158593          	addi	a1,a1,1
   1425c:	00eb2223          	sw	a4,4(s6)
   14260:	0ac12e23          	sw	a2,188(sp)
   14264:	0ab12c23          	sw	a1,184(sp)
   14268:	00700713          	addi	a4,zero,7
   1426c:	008b0b13          	addi	s6,s6,8
   14270:	00b75463          	bge	a4,a1,14278 <_vfprintf_r+0x2b4>
   14274:	1b40106f          	jal	zero,15428 <_vfprintf_r+0x1464>
   14278:	08000713          	addi	a4,zero,128
   1427c:	00ed9463          	bne	s11,a4,14284 <_vfprintf_r+0x2c0>
   14280:	7d10006f          	jal	zero,15250 <_vfprintf_r+0x128c>
   14284:	419a8ab3          	sub	s5,s5,s9
   14288:	79504063          	blt	zero,s5,14a08 <_vfprintf_r+0xa44>
   1428c:	100bf713          	andi	a4,s7,256
   14290:	060718e3          	bne	a4,zero,14b00 <_vfprintf_r+0xb3c>
   14294:	00fb2023          	sw	a5,0(s6)
   14298:	0b812783          	lw	a5,184(sp)
   1429c:	01960633          	add	a2,a2,s9
   142a0:	0ac12e23          	sw	a2,188(sp)
   142a4:	00178793          	addi	a5,a5,1
   142a8:	019b2223          	sw	s9,4(s6)
   142ac:	00700713          	addi	a4,zero,7
   142b0:	0af12c23          	sw	a5,184(sp)
   142b4:	68f74263          	blt	a4,a5,14938 <_vfprintf_r+0x974>
   142b8:	008b0b13          	addi	s6,s6,8
   142bc:	004bfe13          	andi	t3,s7,4
   142c0:	000e0a63          	beq	t3,zero,142d4 <_vfprintf_r+0x310>
   142c4:	00012783          	lw	a5,0(sp)
   142c8:	41878ab3          	sub	s5,a5,s8
   142cc:	01505463          	bge	zero,s5,142d4 <_vfprintf_r+0x310>
   142d0:	1900106f          	jal	zero,15460 <_vfprintf_r+0x149c>
   142d4:	00012303          	lw	t1,0(sp)
   142d8:	01835463          	bge	t1,s8,142e0 <_vfprintf_r+0x31c>
   142dc:	000c0313          	addi	t1,s8,0
   142e0:	00812783          	lw	a5,8(sp)
   142e4:	006787b3          	add	a5,a5,t1
   142e8:	00f12423          	sw	a5,8(sp)
   142ec:	00060463          	beq	a2,zero,142f4 <_vfprintf_r+0x330>
   142f0:	0940106f          	jal	zero,15384 <_vfprintf_r+0x13c0>
   142f4:	01012783          	lw	a5,16(sp)
   142f8:	0a012c23          	sw	zero,184(sp)
   142fc:	00078863          	beq	a5,zero,1430c <_vfprintf_r+0x348>
   14300:	01012583          	lw	a1,16(sp)
   14304:	00090513          	addi	a0,s2,0
   14308:	94cff0ef          	jal	ra,13454 <_free_r>
   1430c:	00098b13          	addi	s6,s3,0
   14310:	dc1ff06f          	jal	zero,140d0 <_vfprintf_r+0x10c>
   14314:	00048593          	addi	a1,s1,0
   14318:	00090513          	addi	a0,s2,0
   1431c:	764030ef          	jal	ra,17a80 <__swsetup_r>
   14320:	06051a63          	bne	a0,zero,14394 <_vfprintf_r+0x3d0>
   14324:	00c49783          	lh	a5,12(s1)
   14328:	00a00713          	addi	a4,zero,10
   1432c:	01a7f793          	andi	a5,a5,26
   14330:	d2e79ae3          	bne	a5,a4,14064 <_vfprintf_r+0xa0>
   14334:	00e49783          	lh	a5,14(s1)
   14338:	d207c6e3          	blt	a5,zero,14064 <_vfprintf_r+0xa0>
   1433c:	00c12683          	lw	a3,12(sp)
   14340:	000d0613          	addi	a2,s10,0
   14344:	00048593          	addi	a1,s1,0
   14348:	00090513          	addi	a0,s2,0
   1434c:	515020ef          	jal	ra,17060 <__sbprintf>
   14350:	00a12423          	sw	a0,8(sp)
   14354:	0900106f          	jal	zero,153e4 <_vfprintf_r+0x1420>
   14358:	000d4883          	lbu	a7,0(s10)
   1435c:	e09ff06f          	jal	zero,14164 <_vfprintf_r+0x1a0>
   14360:	000d4883          	lbu	a7,0(s10)
   14364:	020beb93          	ori	s7,s7,32
   14368:	dfdff06f          	jal	zero,14164 <_vfprintf_r+0x1a0>
   1436c:	00412583          	lw	a1,4(sp)
   14370:	0b410613          	addi	a2,sp,180
   14374:	00090513          	addi	a0,s2,0
   14378:	5a9020ef          	jal	ra,17120 <__sprint_r>
   1437c:	00050463          	beq	a0,zero,14384 <_vfprintf_r+0x3c0>
   14380:	1b50206f          	jal	zero,16d34 <_vfprintf_r+0x2d70>
   14384:	00098b13          	addi	s6,s3,0
   14388:	da9ff06f          	jal	zero,14130 <_vfprintf_r+0x16c>
   1438c:	01271693          	slli	a3,a4,0x12
   14390:	ca06dce3          	bge	a3,zero,14048 <_vfprintf_r+0x84>
   14394:	fff00793          	addi	a5,zero,-1
   14398:	00f12423          	sw	a5,8(sp)
   1439c:	0480106f          	jal	zero,153e4 <_vfprintf_r+0x1420>
   143a0:	008bf793          	andi	a5,s7,8
   143a4:	00078463          	beq	a5,zero,143ac <_vfprintf_r+0x3e8>
   143a8:	5bc0106f          	jal	zero,15964 <_vfprintf_r+0x19a0>
   143ac:	00c12783          	lw	a5,12(sp)
   143b0:	08010513          	addi	a0,sp,128
   143b4:	01112823          	sw	a7,16(sp)
   143b8:	00778793          	addi	a5,a5,7
   143bc:	ff87f793          	andi	a5,a5,-8
   143c0:	0047a603          	lw	a2,4(a5)
   143c4:	0007a583          	lw	a1,0(a5)
   143c8:	00878793          	addi	a5,a5,8
   143cc:	00f12623          	sw	a5,12(sp)
   143d0:	4040d0ef          	jal	ra,217d4 <__extenddftf2>
   143d4:	08012603          	lw	a2,128(sp)
   143d8:	08412683          	lw	a3,132(sp)
   143dc:	08812703          	lw	a4,136(sp)
   143e0:	08c12783          	lw	a5,140(sp)
   143e4:	01012883          	lw	a7,16(sp)
   143e8:	0c010513          	addi	a0,sp,192
   143ec:	01112823          	sw	a7,16(sp)
   143f0:	0cf12623          	sw	a5,204(sp)
   143f4:	0cc12023          	sw	a2,192(sp)
   143f8:	0cd12223          	sw	a3,196(sp)
   143fc:	0ce12423          	sw	a4,200(sp)
   14400:	188040ef          	jal	ra,18588 <_ldcheck>
   14404:	08a12c23          	sw	a0,152(sp)
   14408:	00200793          	addi	a5,zero,2
   1440c:	01012883          	lw	a7,16(sp)
   14410:	00f51463          	bne	a0,a5,14418 <_vfprintf_r+0x454>
   14414:	25d0106f          	jal	zero,15e70 <_vfprintf_r+0x1eac>
   14418:	00100793          	addi	a5,zero,1
   1441c:	00f51463          	bne	a0,a5,14424 <_vfprintf_r+0x460>
   14420:	4110106f          	jal	zero,16030 <_vfprintf_r+0x206c>
   14424:	fdf8fc13          	andi	s8,a7,-33
   14428:	04100793          	addi	a5,zero,65
   1442c:	00fc0463          	beq	s8,a5,14434 <_vfprintf_r+0x470>
   14430:	3c90106f          	jal	zero,15ff8 <_vfprintf_r+0x2034>
   14434:	03000793          	addi	a5,zero,48
   14438:	08f10a23          	sb	a5,148(sp)
   1443c:	06100713          	addi	a4,zero,97
   14440:	05800793          	addi	a5,zero,88
   14444:	00e89463          	bne	a7,a4,1444c <_vfprintf_r+0x488>
   14448:	12c0206f          	jal	zero,16574 <_vfprintf_r+0x25b0>
   1444c:	08f10aa3          	sb	a5,149(sp)
   14450:	06300793          	addi	a5,zero,99
   14454:	0157d463          	bge	a5,s5,1445c <_vfprintf_r+0x498>
   14458:	2440206f          	jal	zero,1669c <_vfprintf_r+0x26d8>
   1445c:	0cc12703          	lw	a4,204(sp)
   14460:	0c012683          	lw	a3,192(sp)
   14464:	0c412603          	lw	a2,196(sp)
   14468:	0c812583          	lw	a1,200(sp)
   1446c:	00075463          	bge	a4,zero,14474 <_vfprintf_r+0x4b0>
   14470:	09d0206f          	jal	zero,16d0c <_vfprintf_r+0x2d48>
   14474:	02012c23          	sw	zero,56(sp)
   14478:	00012823          	sw	zero,16(sp)
   1447c:	11c10793          	addi	a5,sp,284
   14480:	08010d93          	addi	s11,sp,128
   14484:	04f12023          	sw	a5,64(sp)
   14488:	06c12a23          	sw	a2,116(sp)
   1448c:	002be793          	ori	a5,s7,2
   14490:	06b12c23          	sw	a1,120(sp)
   14494:	000d8513          	addi	a0,s11,0
   14498:	07010593          	addi	a1,sp,112
   1449c:	09810613          	addi	a2,sp,152
   144a0:	03112e23          	sw	a7,60(sp)
   144a4:	00f12e23          	sw	a5,28(sp)
   144a8:	06d12823          	sw	a3,112(sp)
   144ac:	06e12e23          	sw	a4,124(sp)
   144b0:	435030ef          	jal	ra,180e4 <frexpl>
   144b4:	08812703          	lw	a4,136(sp)
   144b8:	08012603          	lw	a2,128(sp)
   144bc:	08412683          	lw	a3,132(sp)
   144c0:	06e12c23          	sw	a4,120(sp)
   144c4:	08c12703          	lw	a4,140(sp)
   144c8:	06c12823          	sw	a2,112(sp)
   144cc:	06d12a23          	sw	a3,116(sp)
   144d0:	06010613          	addi	a2,sp,96
   144d4:	3ffc06b7          	lui	a3,0x3ffc0
   144d8:	07010593          	addi	a1,sp,112
   144dc:	000d8513          	addi	a0,s11,0
   144e0:	06d12623          	sw	a3,108(sp)
   144e4:	06e12e23          	sw	a4,124(sp)
   144e8:	06012023          	sw	zero,96(sp)
   144ec:	06012223          	sw	zero,100(sp)
   144f0:	06012423          	sw	zero,104(sp)
   144f4:	5bd0a0ef          	jal	ra,1f2b0 <__multf3>
   144f8:	08012e03          	lw	t3,128(sp)
   144fc:	08412803          	lw	a6,132(sp)
   14500:	08812603          	lw	a2,136(sp)
   14504:	07010593          	addi	a1,sp,112
   14508:	000d8513          	addi	a0,s11,0
   1450c:	03c12623          	sw	t3,44(sp)
   14510:	03012023          	sw	a6,32(sp)
   14514:	00c12c23          	sw	a2,24(sp)
   14518:	06012823          	sw	zero,112(sp)
   1451c:	06012a23          	sw	zero,116(sp)
   14520:	06012c23          	sw	zero,120(sp)
   14524:	06012e23          	sw	zero,124(sp)
   14528:	2310a0ef          	jal	ra,1ef58 <__eqtf2>
   1452c:	08c12b83          	lw	s7,140(sp)
   14530:	01812603          	lw	a2,24(sp)
   14534:	02012803          	lw	a6,32(sp)
   14538:	02c12e03          	lw	t3,44(sp)
   1453c:	03c12883          	lw	a7,60(sp)
   14540:	04012783          	lw	a5,64(sp)
   14544:	00051663          	bne	a0,zero,14550 <_vfprintf_r+0x58c>
   14548:	00100693          	addi	a3,zero,1
   1454c:	08d12c23          	sw	a3,152(sp)
   14550:	06100693          	addi	a3,zero,97
   14554:	00d89463          	bne	a7,a3,1455c <_vfprintf_r+0x598>
   14558:	1990206f          	jal	zero,16ef0 <_vfprintf_r+0x2f2c>
   1455c:	000626b7          	lui	a3,0x62
   14560:	a3c68713          	addi	a4,a3,-1476 # 61a3c <__extenddftf2+0x40268>
   14564:	00e12c23          	sw	a4,24(sp)
   14568:	03612023          	sw	s6,32(sp)
   1456c:	000b8c93          	addi	s9,s7,0
   14570:	05212423          	sw	s2,72(sp)
   14574:	01812483          	lw	s1,24(sp)
   14578:	00078c13          	addi	s8,a5,0
   1457c:	03112623          	sw	a7,44(sp)
   14580:	02f12e23          	sw	a5,60(sp)
   14584:	05a12023          	sw	s10,64(sp)
   14588:	00080b13          	addi	s6,a6,0
   1458c:	00060b93          	addi	s7,a2,0
   14590:	000e0913          	addi	s2,t3,0
   14594:	03c0006f          	jal	zero,145d0 <_vfprintf_r+0x60c>
   14598:	07010593          	addi	a1,sp,112
   1459c:	000d8513          	addi	a0,s11,0
   145a0:	09212023          	sw	s2,128(sp)
   145a4:	09612223          	sw	s6,132(sp)
   145a8:	09712423          	sw	s7,136(sp)
   145ac:	09912623          	sw	s9,140(sp)
   145b0:	06012823          	sw	zero,112(sp)
   145b4:	06012a23          	sw	zero,116(sp)
   145b8:	06012c23          	sw	zero,120(sp)
   145bc:	06012e23          	sw	zero,124(sp)
   145c0:	1990a0ef          	jal	ra,1ef58 <__eqtf2>
   145c4:	00051463          	bne	a0,zero,145cc <_vfprintf_r+0x608>
   145c8:	0210206f          	jal	zero,16de8 <_vfprintf_r+0x2e24>
   145cc:	fffa8a93          	addi	s5,s5,-1
   145d0:	400307b7          	lui	a5,0x40030
   145d4:	06010613          	addi	a2,sp,96
   145d8:	07010593          	addi	a1,sp,112
   145dc:	000d8513          	addi	a0,s11,0
   145e0:	06f12623          	sw	a5,108(sp)
   145e4:	07212823          	sw	s2,112(sp)
   145e8:	07612a23          	sw	s6,116(sp)
   145ec:	07712c23          	sw	s7,120(sp)
   145f0:	07912e23          	sw	s9,124(sp)
   145f4:	06012023          	sw	zero,96(sp)
   145f8:	06012223          	sw	zero,100(sp)
   145fc:	06012423          	sw	zero,104(sp)
   14600:	4b10a0ef          	jal	ra,1f2b0 <__multf3>
   14604:	000d8513          	addi	a0,s11,0
   14608:	78d0c0ef          	jal	ra,21594 <__fixtfsi>
   1460c:	00050593          	addi	a1,a0,0
   14610:	00050d13          	addi	s10,a0,0
   14614:	000d8513          	addi	a0,s11,0
   14618:	08012c83          	lw	s9,128(sp)
   1461c:	08412b83          	lw	s7,132(sp)
   14620:	08812b03          	lw	s6,136(sp)
   14624:	08c12903          	lw	s2,140(sp)
   14628:	0600d0ef          	jal	ra,21688 <__floatsitf>
   1462c:	08812783          	lw	a5,136(sp)
   14630:	08012603          	lw	a2,128(sp)
   14634:	08412683          	lw	a3,132(sp)
   14638:	04f12c23          	sw	a5,88(sp)
   1463c:	08c12783          	lw	a5,140(sp)
   14640:	04c12823          	sw	a2,80(sp)
   14644:	06010593          	addi	a1,sp,96
   14648:	05010613          	addi	a2,sp,80
   1464c:	07010513          	addi	a0,sp,112
   14650:	07912023          	sw	s9,96(sp)
   14654:	07712223          	sw	s7,100(sp)
   14658:	07612423          	sw	s6,104(sp)
   1465c:	07212623          	sw	s2,108(sp)
   14660:	04d12a23          	sw	a3,84(sp)
   14664:	04f12e23          	sw	a5,92(sp)
   14668:	3890b0ef          	jal	ra,201f0 <__subtf3>
   1466c:	01a487b3          	add	a5,s1,s10
   14670:	0007c683          	lbu	a3,0(a5) # 40030000 <__BSS_END__+0x3ff41710>
   14674:	000c0593          	addi	a1,s8,0
   14678:	001c0c13          	addi	s8,s8,1
   1467c:	07012903          	lw	s2,112(sp)
   14680:	07412b03          	lw	s6,116(sp)
   14684:	07812b83          	lw	s7,120(sp)
   14688:	07c12c83          	lw	s9,124(sp)
   1468c:	fedc0fa3          	sb	a3,-1(s8)
   14690:	f00a94e3          	bne	s5,zero,14598 <_vfprintf_r+0x5d4>
   14694:	02c12883          	lw	a7,44(sp)
   14698:	03c12783          	lw	a5,60(sp)
   1469c:	00090e13          	addi	t3,s2,0
   146a0:	000b0813          	addi	a6,s6,0
   146a4:	000b8613          	addi	a2,s7,0
   146a8:	00058493          	addi	s1,a1,0
   146ac:	000c8b93          	addi	s7,s9,0
   146b0:	3ffe0ab7          	lui	s5,0x3ffe0
   146b4:	07010593          	addi	a1,sp,112
   146b8:	000d8513          	addi	a0,s11,0
   146bc:	05112623          	sw	a7,76(sp)
   146c0:	02f12623          	sw	a5,44(sp)
   146c4:	04812903          	lw	s2,72(sp)
   146c8:	000d0c93          	addi	s9,s10,0
   146cc:	09c12023          	sw	t3,128(sp)
   146d0:	04012d03          	lw	s10,64(sp)
   146d4:	05c12423          	sw	t3,72(sp)
   146d8:	09012223          	sw	a6,132(sp)
   146dc:	05012023          	sw	a6,64(sp)
   146e0:	08c12423          	sw	a2,136(sp)
   146e4:	02c12e23          	sw	a2,60(sp)
   146e8:	09712623          	sw	s7,140(sp)
   146ec:	06012823          	sw	zero,112(sp)
   146f0:	06012a23          	sw	zero,116(sp)
   146f4:	06012c23          	sw	zero,120(sp)
   146f8:	07512e23          	sw	s5,124(sp)
   146fc:	14d0a0ef          	jal	ra,1f048 <__getf2>
   14700:	02012b03          	lw	s6,32(sp)
   14704:	02c12783          	lw	a5,44(sp)
   14708:	04c12883          	lw	a7,76(sp)
   1470c:	02a04463          	blt	zero,a0,14734 <_vfprintf_r+0x770>
   14710:	07010593          	addi	a1,sp,112
   14714:	000d8513          	addi	a0,s11,0
   14718:	03112023          	sw	a7,32(sp)
   1471c:	03d0a0ef          	jal	ra,1ef58 <__eqtf2>
   14720:	02012883          	lw	a7,32(sp)
   14724:	02c12783          	lw	a5,44(sp)
   14728:	04051c63          	bne	a0,zero,14780 <_vfprintf_r+0x7bc>
   1472c:	001cfc93          	andi	s9,s9,1
   14730:	040c8863          	beq	s9,zero,14780 <_vfprintf_r+0x7bc>
   14734:	01812703          	lw	a4,24(sp)
   14738:	0a912023          	sw	s1,160(sp)
   1473c:	fffc4603          	lbu	a2,-1(s8)
   14740:	00f74583          	lbu	a1,15(a4)
   14744:	000c0713          	addi	a4,s8,0
   14748:	02c59063          	bne	a1,a2,14768 <_vfprintf_r+0x7a4>
   1474c:	03000513          	addi	a0,zero,48
   14750:	fea70fa3          	sb	a0,-1(a4)
   14754:	0a012703          	lw	a4,160(sp)
   14758:	fff70693          	addi	a3,a4,-1
   1475c:	0ad12023          	sw	a3,160(sp)
   14760:	fff74603          	lbu	a2,-1(a4)
   14764:	fec586e3          	beq	a1,a2,14750 <_vfprintf_r+0x78c>
   14768:	00160593          	addi	a1,a2,1
   1476c:	03900513          	addi	a0,zero,57
   14770:	0ff5f593          	andi	a1,a1,255
   14774:	00a61463          	bne	a2,a0,1477c <_vfprintf_r+0x7b8>
   14778:	1980206f          	jal	zero,16910 <_vfprintf_r+0x294c>
   1477c:	feb70fa3          	sb	a1,-1(a4)
   14780:	09812603          	lw	a2,152(sp)
   14784:	00f88713          	addi	a4,a7,15
   14788:	0ae10223          	sb	a4,164(sp)
   1478c:	40fc06b3          	sub	a3,s8,a5
   14790:	fff60713          	addi	a4,a2,-1
   14794:	08e12c23          	sw	a4,152(sp)
   14798:	00d12c23          	sw	a3,24(sp)
   1479c:	00075463          	bge	a4,zero,147a4 <_vfprintf_r+0x7e0>
   147a0:	7340206f          	jal	zero,16ed4 <_vfprintf_r+0x2f10>
   147a4:	02b00693          	addi	a3,zero,43
   147a8:	0ad102a3          	sb	a3,165(sp)
   147ac:	00900693          	addi	a3,zero,9
   147b0:	00e6d463          	bge	a3,a4,147b8 <_vfprintf_r+0x7f4>
   147b4:	07c0206f          	jal	zero,16830 <_vfprintf_r+0x286c>
   147b8:	0a610693          	addi	a3,sp,166
   147bc:	03070713          	addi	a4,a4,48
   147c0:	00e68023          	sb	a4,0(a3)
   147c4:	18010713          	addi	a4,sp,384
   147c8:	40e686b3          	sub	a3,a3,a4
   147cc:	0dd68713          	addi	a4,a3,221
   147d0:	02e12623          	sw	a4,44(sp)
   147d4:	0e80206f          	jal	zero,168bc <_vfprintf_r+0x28f8>
   147d8:	00412583          	lw	a1,4(sp)
   147dc:	0b410613          	addi	a2,sp,180
   147e0:	00090513          	addi	a0,s2,0
   147e4:	04612423          	sw	t1,72(sp)
   147e8:	04f12023          	sw	a5,64(sp)
   147ec:	03112e23          	sw	a7,60(sp)
   147f0:	02e12c23          	sw	a4,56(sp)
   147f4:	12d020ef          	jal	ra,17120 <__sprint_r>
   147f8:	3a0512e3          	bne	a0,zero,1539c <_vfprintf_r+0x13d8>
   147fc:	0bc12603          	lw	a2,188(sp)
   14800:	04812303          	lw	t1,72(sp)
   14804:	04012783          	lw	a5,64(sp)
   14808:	03c12883          	lw	a7,60(sp)
   1480c:	03812703          	lw	a4,56(sp)
   14810:	00098b13          	addi	s6,s3,0
   14814:	a2dff06f          	jal	zero,14240 <_vfprintf_r+0x27c>
   14818:	0b812a83          	lw	s5,184(sp)
   1481c:	01812683          	lw	a3,24(sp)
   14820:	00100713          	addi	a4,zero,1
   14824:	00e60633          	add	a2,a2,a4
   14828:	00ea8ab3          	add	s5,s5,a4
   1482c:	008b0d93          	addi	s11,s6,8
   14830:	78d758e3          	bge	a4,a3,157c0 <_vfprintf_r+0x17fc>
   14834:	00100713          	addi	a4,zero,1
   14838:	00eb2223          	sw	a4,4(s6)
   1483c:	00fb2023          	sw	a5,0(s6)
   14840:	0ac12e23          	sw	a2,188(sp)
   14844:	0b512c23          	sw	s5,184(sp)
   14848:	00700713          	addi	a4,zero,7
   1484c:	01575463          	bge	a4,s5,14854 <_vfprintf_r+0x890>
   14850:	3f80106f          	jal	zero,15c48 <_vfprintf_r+0x1c84>
   14854:	02412703          	lw	a4,36(sp)
   14858:	001a8a93          	addi	s5,s5,1 # 3ffe0001 <__BSS_END__+0x3fef1711>
   1485c:	0b512c23          	sw	s5,184(sp)
   14860:	00e60633          	add	a2,a2,a4
   14864:	02812703          	lw	a4,40(sp)
   14868:	0ac12e23          	sw	a2,188(sp)
   1486c:	008d8d93          	addi	s11,s11,8
   14870:	feedac23          	sw	a4,-8(s11)
   14874:	02412703          	lw	a4,36(sp)
   14878:	feedae23          	sw	a4,-4(s11)
   1487c:	00700713          	addi	a4,zero,7
   14880:	01575463          	bge	a4,s5,14888 <_vfprintf_r+0x8c4>
   14884:	3f00106f          	jal	zero,15c74 <_vfprintf_r+0x1cb0>
   14888:	0c812703          	lw	a4,200(sp)
   1488c:	0c012503          	lw	a0,192(sp)
   14890:	0c412583          	lw	a1,196(sp)
   14894:	02f12023          	sw	a5,32(sp)
   14898:	08e12423          	sw	a4,136(sp)
   1489c:	01812783          	lw	a5,24(sp)
   148a0:	0cc12703          	lw	a4,204(sp)
   148a4:	08a12023          	sw	a0,128(sp)
   148a8:	08b12223          	sw	a1,132(sp)
   148ac:	08010513          	addi	a0,sp,128
   148b0:	07010593          	addi	a1,sp,112
   148b4:	00c12e23          	sw	a2,28(sp)
   148b8:	06012823          	sw	zero,112(sp)
   148bc:	06012a23          	sw	zero,116(sp)
   148c0:	06012c23          	sw	zero,120(sp)
   148c4:	06012e23          	sw	zero,124(sp)
   148c8:	08e12623          	sw	a4,140(sp)
   148cc:	fff78b13          	addi	s6,a5,-1
   148d0:	6880a0ef          	jal	ra,1ef58 <__eqtf2>
   148d4:	01c12603          	lw	a2,28(sp)
   148d8:	720506e3          	beq	a0,zero,15804 <_vfprintf_r+0x1840>
   148dc:	02012783          	lw	a5,32(sp)
   148e0:	001a8a93          	addi	s5,s5,1
   148e4:	01660633          	add	a2,a2,s6
   148e8:	00178793          	addi	a5,a5,1
   148ec:	0b512c23          	sw	s5,184(sp)
   148f0:	0ac12e23          	sw	a2,188(sp)
   148f4:	00fda023          	sw	a5,0(s11)
   148f8:	016da223          	sw	s6,4(s11)
   148fc:	00700793          	addi	a5,zero,7
   14900:	6f57c0e3          	blt	a5,s5,157e0 <_vfprintf_r+0x181c>
   14904:	008d8d93          	addi	s11,s11,8
   14908:	02c12783          	lw	a5,44(sp)
   1490c:	02c12683          	lw	a3,44(sp)
   14910:	0a410713          	addi	a4,sp,164
   14914:	00c78633          	add	a2,a5,a2
   14918:	001a8793          	addi	a5,s5,1
   1491c:	00eda023          	sw	a4,0(s11)
   14920:	0ac12e23          	sw	a2,188(sp)
   14924:	0af12c23          	sw	a5,184(sp)
   14928:	00dda223          	sw	a3,4(s11)
   1492c:	00700713          	addi	a4,zero,7
   14930:	008d8b13          	addi	s6,s11,8
   14934:	98f754e3          	bge	a4,a5,142bc <_vfprintf_r+0x2f8>
   14938:	00412583          	lw	a1,4(sp)
   1493c:	0b410613          	addi	a2,sp,180
   14940:	00090513          	addi	a0,s2,0
   14944:	7dc020ef          	jal	ra,17120 <__sprint_r>
   14948:	24051ae3          	bne	a0,zero,1539c <_vfprintf_r+0x13d8>
   1494c:	0bc12603          	lw	a2,188(sp)
   14950:	00098b13          	addi	s6,s3,0
   14954:	969ff06f          	jal	zero,142bc <_vfprintf_r+0x2f8>
   14958:	00c12783          	lw	a5,12(sp)
   1495c:	00c12703          	lw	a4,12(sp)
   14960:	080109a3          	sb	zero,147(sp)
   14964:	0007a783          	lw	a5,0(a5)
   14968:	00470493          	addi	s1,a4,4
   1496c:	00079463          	bne	a5,zero,14974 <_vfprintf_r+0x9b0>
   14970:	16c0106f          	jal	zero,15adc <_vfprintf_r+0x1b18>
   14974:	000ad463          	bge	s5,zero,1497c <_vfprintf_r+0x9b8>
   14978:	2600106f          	jal	zero,15bd8 <_vfprintf_r+0x1c14>
   1497c:	00078513          	addi	a0,a5,0
   14980:	000a8613          	addi	a2,s5,0
   14984:	00000593          	addi	a1,zero,0
   14988:	01112e23          	sw	a7,28(sp)
   1498c:	00f12623          	sw	a5,12(sp)
   14990:	254030ef          	jal	ra,17be4 <memchr>
   14994:	00a12823          	sw	a0,16(sp)
   14998:	09314703          	lbu	a4,147(sp)
   1499c:	00c12783          	lw	a5,12(sp)
   149a0:	01c12883          	lw	a7,28(sp)
   149a4:	00051463          	bne	a0,zero,149ac <_vfprintf_r+0x9e8>
   149a8:	17c0206f          	jal	zero,16b24 <_vfprintf_r+0x2b60>
   149ac:	40f50cb3          	sub	s9,a0,a5
   149b0:	fffcc693          	xori	a3,s9,-1
   149b4:	41f6d693          	srai	a3,a3,0x1f
   149b8:	00dcfc33          	and	s8,s9,a3
   149bc:	00070463          	beq	a4,zero,149c4 <_vfprintf_r+0xa00>
   149c0:	24c0106f          	jal	zero,15c0c <_vfprintf_r+0x1c48>
   149c4:	00912623          	sw	s1,12(sp)
   149c8:	0bc12603          	lw	a2,188(sp)
   149cc:	00012823          	sw	zero,16(sp)
   149d0:	02012023          	sw	zero,32(sp)
   149d4:	00012e23          	sw	zero,28(sp)
   149d8:	084bfd93          	andi	s11,s7,132
   149dc:	00000a93          	addi	s5,zero,0
   149e0:	00000313          	addi	t1,zero,0
   149e4:	00060813          	addi	a6,a2,0
   149e8:	800d9ee3          	bne	s11,zero,14204 <_vfprintf_r+0x240>
   149ec:	00012703          	lw	a4,0(sp)
   149f0:	41870733          	sub	a4,a4,s8
   149f4:	5ae042e3          	blt	zero,a4,15798 <_vfprintf_r+0x17d4>
   149f8:	09314703          	lbu	a4,147(sp)
   149fc:	800718e3          	bne	a4,zero,1420c <_vfprintf_r+0x248>
   14a00:	419a8ab3          	sub	s5,s5,s9
   14a04:	895054e3          	bge	zero,s5,1428c <_vfprintf_r+0x2c8>
   14a08:	0006d837          	lui	a6,0x6d
   14a0c:	0b812583          	lw	a1,184(sp)
   14a10:	82880813          	addi	a6,a6,-2008 # 6c828 <zeroes.0>
   14a14:	09545663          	bge	s0,s5,14aa0 <_vfprintf_r+0xadc>
   14a18:	000a8493          	addi	s1,s5,0
   14a1c:	02f12e23          	sw	a5,60(sp)
   14a20:	00700d93          	addi	s11,zero,7
   14a24:	000b0793          	addi	a5,s6,0
   14a28:	03112c23          	sw	a7,56(sp)
   14a2c:	00030a93          	addi	s5,t1,0
   14a30:	000a0b13          	addi	s6,s4,0
   14a34:	00c0006f          	jal	zero,14a40 <_vfprintf_r+0xa7c>
   14a38:	ff048493          	addi	s1,s1,-16
   14a3c:	04945663          	bge	s0,s1,14a88 <_vfprintf_r+0xac4>
   14a40:	01060613          	addi	a2,a2,16
   14a44:	00158593          	addi	a1,a1,1
   14a48:	0147a023          	sw	s4,0(a5)
   14a4c:	0087a223          	sw	s0,4(a5)
   14a50:	0ac12e23          	sw	a2,188(sp)
   14a54:	0ab12c23          	sw	a1,184(sp)
   14a58:	00878793          	addi	a5,a5,8
   14a5c:	fcbddee3          	bge	s11,a1,14a38 <_vfprintf_r+0xa74>
   14a60:	00412583          	lw	a1,4(sp)
   14a64:	0b410613          	addi	a2,sp,180
   14a68:	00090513          	addi	a0,s2,0
   14a6c:	6b4020ef          	jal	ra,17120 <__sprint_r>
   14a70:	120516e3          	bne	a0,zero,1539c <_vfprintf_r+0x13d8>
   14a74:	ff048493          	addi	s1,s1,-16
   14a78:	0bc12603          	lw	a2,188(sp)
   14a7c:	0b812583          	lw	a1,184(sp)
   14a80:	00098793          	addi	a5,s3,0
   14a84:	fa944ee3          	blt	s0,s1,14a40 <_vfprintf_r+0xa7c>
   14a88:	000b0813          	addi	a6,s6,0
   14a8c:	03812883          	lw	a7,56(sp)
   14a90:	00078b13          	addi	s6,a5,0
   14a94:	03c12783          	lw	a5,60(sp)
   14a98:	000a8313          	addi	t1,s5,0
   14a9c:	00048a93          	addi	s5,s1,0
   14aa0:	01560633          	add	a2,a2,s5
   14aa4:	00158593          	addi	a1,a1,1
   14aa8:	010b2023          	sw	a6,0(s6)
   14aac:	015b2223          	sw	s5,4(s6)
   14ab0:	0ac12e23          	sw	a2,188(sp)
   14ab4:	0ab12c23          	sw	a1,184(sp)
   14ab8:	00700713          	addi	a4,zero,7
   14abc:	008b0b13          	addi	s6,s6,8
   14ac0:	fcb75663          	bge	a4,a1,1428c <_vfprintf_r+0x2c8>
   14ac4:	00412583          	lw	a1,4(sp)
   14ac8:	0b410613          	addi	a2,sp,180
   14acc:	00090513          	addi	a0,s2,0
   14ad0:	04612023          	sw	t1,64(sp)
   14ad4:	02f12e23          	sw	a5,60(sp)
   14ad8:	03112c23          	sw	a7,56(sp)
   14adc:	644020ef          	jal	ra,17120 <__sprint_r>
   14ae0:	0a051ee3          	bne	a0,zero,1539c <_vfprintf_r+0x13d8>
   14ae4:	100bf713          	andi	a4,s7,256
   14ae8:	0bc12603          	lw	a2,188(sp)
   14aec:	04012303          	lw	t1,64(sp)
   14af0:	03c12783          	lw	a5,60(sp)
   14af4:	03812883          	lw	a7,56(sp)
   14af8:	00098b13          	addi	s6,s3,0
   14afc:	f8070c63          	beq	a4,zero,14294 <_vfprintf_r+0x2d0>
   14b00:	06500713          	addi	a4,zero,101
   14b04:	d1175ae3          	bge	a4,a7,14818 <_vfprintf_r+0x854>
   14b08:	0c412703          	lw	a4,196(sp)
   14b0c:	0c012583          	lw	a1,192(sp)
   14b10:	0c812503          	lw	a0,200(sp)
   14b14:	08e12223          	sw	a4,132(sp)
   14b18:	0cc12703          	lw	a4,204(sp)
   14b1c:	08b12023          	sw	a1,128(sp)
   14b20:	08a12423          	sw	a0,136(sp)
   14b24:	07010593          	addi	a1,sp,112
   14b28:	08010513          	addi	a0,sp,128
   14b2c:	02c12e23          	sw	a2,60(sp)
   14b30:	02f12c23          	sw	a5,56(sp)
   14b34:	04612023          	sw	t1,64(sp)
   14b38:	06012823          	sw	zero,112(sp)
   14b3c:	06012a23          	sw	zero,116(sp)
   14b40:	06012c23          	sw	zero,120(sp)
   14b44:	06012e23          	sw	zero,124(sp)
   14b48:	08e12623          	sw	a4,140(sp)
   14b4c:	40c0a0ef          	jal	ra,1ef58 <__eqtf2>
   14b50:	03812783          	lw	a5,56(sp)
   14b54:	03c12603          	lw	a2,60(sp)
   14b58:	04012303          	lw	t1,64(sp)
   14b5c:	220510e3          	bne	a0,zero,1557c <_vfprintf_r+0x15b8>
   14b60:	0b812783          	lw	a5,184(sp)
   14b64:	0004b737          	lui	a4,0x4b
   14b68:	05c70713          	addi	a4,a4,92 # 4b05c <__extenddftf2+0x29888>
   14b6c:	00eb2023          	sw	a4,0(s6)
   14b70:	00160613          	addi	a2,a2,1
   14b74:	00100713          	addi	a4,zero,1
   14b78:	00178793          	addi	a5,a5,1
   14b7c:	00eb2223          	sw	a4,4(s6)
   14b80:	0ac12e23          	sw	a2,188(sp)
   14b84:	0af12c23          	sw	a5,184(sp)
   14b88:	00700713          	addi	a4,zero,7
   14b8c:	008b0b13          	addi	s6,s6,8
   14b90:	00f75463          	bge	a4,a5,14b98 <_vfprintf_r+0xbd4>
   14b94:	2500106f          	jal	zero,15de4 <_vfprintf_r+0x1e20>
   14b98:	09812783          	lw	a5,152(sp)
   14b9c:	01812703          	lw	a4,24(sp)
   14ba0:	4ee7d0e3          	bge	a5,a4,15880 <_vfprintf_r+0x18bc>
   14ba4:	02412703          	lw	a4,36(sp)
   14ba8:	0b812783          	lw	a5,184(sp)
   14bac:	008b0b13          	addi	s6,s6,8
   14bb0:	00e60633          	add	a2,a2,a4
   14bb4:	02812703          	lw	a4,40(sp)
   14bb8:	00178793          	addi	a5,a5,1
   14bbc:	0ac12e23          	sw	a2,188(sp)
   14bc0:	feeb2c23          	sw	a4,-8(s6)
   14bc4:	02412703          	lw	a4,36(sp)
   14bc8:	0af12c23          	sw	a5,184(sp)
   14bcc:	feeb2e23          	sw	a4,-4(s6)
   14bd0:	00700713          	addi	a4,zero,7
   14bd4:	68f740e3          	blt	a4,a5,15a54 <_vfprintf_r+0x1a90>
   14bd8:	01812783          	lw	a5,24(sp)
   14bdc:	fff78a93          	addi	s5,a5,-1
   14be0:	ed505e63          	bge	zero,s5,142bc <_vfprintf_r+0x2f8>
   14be4:	0006d837          	lui	a6,0x6d
   14be8:	01000c93          	addi	s9,zero,16
   14bec:	0b812783          	lw	a5,184(sp)
   14bf0:	00700d93          	addi	s11,zero,7
   14bf4:	82880493          	addi	s1,a6,-2008 # 6c828 <zeroes.0>
   14bf8:	015cca63          	blt	s9,s5,14c0c <_vfprintf_r+0xc48>
   14bfc:	2a50006f          	jal	zero,156a0 <_vfprintf_r+0x16dc>
   14c00:	ff0a8a93          	addi	s5,s5,-16
   14c04:	015cc463          	blt	s9,s5,14c0c <_vfprintf_r+0xc48>
   14c08:	23c0106f          	jal	zero,15e44 <_vfprintf_r+0x1e80>
   14c0c:	01060613          	addi	a2,a2,16
   14c10:	00178793          	addi	a5,a5,1
   14c14:	009b2023          	sw	s1,0(s6)
   14c18:	019b2223          	sw	s9,4(s6)
   14c1c:	0ac12e23          	sw	a2,188(sp)
   14c20:	0af12c23          	sw	a5,184(sp)
   14c24:	008b0b13          	addi	s6,s6,8
   14c28:	fcfddce3          	bge	s11,a5,14c00 <_vfprintf_r+0xc3c>
   14c2c:	00412583          	lw	a1,4(sp)
   14c30:	0b410613          	addi	a2,sp,180
   14c34:	00090513          	addi	a0,s2,0
   14c38:	4e8020ef          	jal	ra,17120 <__sprint_r>
   14c3c:	76051063          	bne	a0,zero,1539c <_vfprintf_r+0x13d8>
   14c40:	0bc12603          	lw	a2,188(sp)
   14c44:	0b812783          	lw	a5,184(sp)
   14c48:	00098b13          	addi	s6,s3,0
   14c4c:	fb5ff06f          	jal	zero,14c00 <_vfprintf_r+0xc3c>
   14c50:	020bf793          	andi	a5,s7,32
   14c54:	0e079863          	bne	a5,zero,14d44 <_vfprintf_r+0xd80>
   14c58:	00c12783          	lw	a5,12(sp)
   14c5c:	010bf713          	andi	a4,s7,16
   14c60:	00478793          	addi	a5,a5,4
   14c64:	00070463          	beq	a4,zero,14c6c <_vfprintf_r+0xca8>
   14c68:	7ad0106f          	jal	zero,16c14 <_vfprintf_r+0x2c50>
   14c6c:	00c12683          	lw	a3,12(sp)
   14c70:	040bf713          	andi	a4,s7,64
   14c74:	0006ac03          	lw	s8,0(a3)
   14c78:	00071463          	bne	a4,zero,14c80 <_vfprintf_r+0xcbc>
   14c7c:	33c0106f          	jal	zero,15fb8 <_vfprintf_r+0x1ff4>
   14c80:	010c1c13          	slli	s8,s8,0x10
   14c84:	410c5c13          	srai	s8,s8,0x10
   14c88:	41fc5e93          	srai	t4,s8,0x1f
   14c8c:	00f12623          	sw	a5,12(sp)
   14c90:	000e8713          	addi	a4,t4,0
   14c94:	0c074a63          	blt	a4,zero,14d68 <_vfprintf_r+0xda4>
   14c98:	0e0ac863          	blt	s5,zero,14d88 <_vfprintf_r+0xdc4>
   14c9c:	01dc67b3          	or	a5,s8,t4
   14ca0:	f7fbfb93          	andi	s7,s7,-129
   14ca4:	0e079263          	bne	a5,zero,14d88 <_vfprintf_r+0xdc4>
   14ca8:	0e0a9063          	bne	s5,zero,14d88 <_vfprintf_r+0xdc4>
   14cac:	09314e83          	lbu	t4,147(sp)
   14cb0:	000e9463          	bne	t4,zero,14cb8 <_vfprintf_r+0xcf4>
   14cb4:	3240106f          	jal	zero,15fd8 <_vfprintf_r+0x2014>
   14cb8:	00000c13          	addi	s8,zero,0
   14cbc:	00000313          	addi	t1,zero,0
   14cc0:	00012823          	sw	zero,16(sp)
   14cc4:	00000c93          	addi	s9,zero,0
   14cc8:	00000a93          	addi	s5,zero,0
   14ccc:	18010793          	addi	a5,sp,384
   14cd0:	001c0c13          	addi	s8,s8,1
   14cd4:	00031463          	bne	t1,zero,14cdc <_vfprintf_r+0xd18>
   14cd8:	2f80206f          	jal	zero,16fd0 <_vfprintf_r+0x300c>
   14cdc:	0bc12603          	lw	a2,188(sp)
   14ce0:	0b812583          	lw	a1,184(sp)
   14ce4:	084bfd93          	andi	s11,s7,132
   14ce8:	002c0c13          	addi	s8,s8,2
   14cec:	00060813          	addi	a6,a2,0
   14cf0:	00058513          	addi	a0,a1,0
   14cf4:	700d8663          	beq	s11,zero,15400 <_vfprintf_r+0x143c>
   14cf8:	02012023          	sw	zero,32(sp)
   14cfc:	00012e23          	sw	zero,28(sp)
   14d00:	00000313          	addi	t1,zero,0
   14d04:	d40e8263          	beq	t4,zero,14248 <_vfprintf_r+0x284>
   14d08:	00200713          	addi	a4,zero,2
   14d0c:	d08ff06f          	jal	zero,14214 <_vfprintf_r+0x250>
   14d10:	00c12783          	lw	a5,12(sp)
   14d14:	00100c93          	addi	s9,zero,1
   14d18:	080109a3          	sb	zero,147(sp)
   14d1c:	0007a783          	lw	a5,0(a5)
   14d20:	10f10e23          	sb	a5,284(sp)
   14d24:	00c12783          	lw	a5,12(sp)
   14d28:	00478793          	addi	a5,a5,4
   14d2c:	00f12623          	sw	a5,12(sp)
   14d30:	ca8ff06f          	jal	zero,141d8 <_vfprintf_r+0x214>
   14d34:	020bf793          	andi	a5,s7,32
   14d38:	010bee13          	ori	t3,s7,16
   14d3c:	400782e3          	beq	a5,zero,15940 <_vfprintf_r+0x197c>
   14d40:	000e0b93          	addi	s7,t3,0
   14d44:	00c12783          	lw	a5,12(sp)
   14d48:	00778793          	addi	a5,a5,7
   14d4c:	ff87f793          	andi	a5,a5,-8
   14d50:	0047a703          	lw	a4,4(a5)
   14d54:	00878693          	addi	a3,a5,8
   14d58:	00d12623          	sw	a3,12(sp)
   14d5c:	0007ac03          	lw	s8,0(a5)
   14d60:	00070e93          	addi	t4,a4,0
   14d64:	f2075ae3          	bge	a4,zero,14c98 <_vfprintf_r+0xcd4>
   14d68:	018037b3          	sltu	a5,zero,s8
   14d6c:	41d00eb3          	sub	t4,zero,t4
   14d70:	40fe8eb3          	sub	t4,t4,a5
   14d74:	02d00793          	addi	a5,zero,45
   14d78:	08f109a3          	sb	a5,147(sp)
   14d7c:	41800c33          	sub	s8,zero,s8
   14d80:	000ac463          	blt	s5,zero,14d88 <_vfprintf_r+0xdc4>
   14d84:	f7fbfb93          	andi	s7,s7,-129
   14d88:	260e9e63          	bne	t4,zero,15004 <_vfprintf_r+0x1040>
   14d8c:	00900793          	addi	a5,zero,9
   14d90:	2787ea63          	bltu	a5,s8,15004 <_vfprintf_r+0x1040>
   14d94:	030c0c13          	addi	s8,s8,48
   14d98:	17810fa3          	sb	s8,383(sp)
   14d9c:	000a8c13          	addi	s8,s5,0
   14da0:	3f505ae3          	bge	zero,s5,15994 <_vfprintf_r+0x19d0>
   14da4:	09314e83          	lbu	t4,147(sp)
   14da8:	00000313          	addi	t1,zero,0
   14dac:	00100c93          	addi	s9,zero,1
   14db0:	17f10793          	addi	a5,sp,383
   14db4:	00012823          	sw	zero,16(sp)
   14db8:	f00e8ee3          	beq	t4,zero,14cd4 <_vfprintf_r+0xd10>
   14dbc:	001c0c13          	addi	s8,s8,1
   14dc0:	f15ff06f          	jal	zero,14cd4 <_vfprintf_r+0xd10>
   14dc4:	00c12783          	lw	a5,12(sp)
   14dc8:	0007a783          	lw	a5,0(a5)
   14dcc:	00f12023          	sw	a5,0(sp)
   14dd0:	2c07d0e3          	bge	a5,zero,15890 <_vfprintf_r+0x18cc>
   14dd4:	00012783          	lw	a5,0(sp)
   14dd8:	40f007b3          	sub	a5,zero,a5
   14ddc:	00f12023          	sw	a5,0(sp)
   14de0:	00c12783          	lw	a5,12(sp)
   14de4:	00478793          	addi	a5,a5,4
   14de8:	00f12623          	sw	a5,12(sp)
   14dec:	000d4883          	lbu	a7,0(s10)
   14df0:	004beb93          	ori	s7,s7,4
   14df4:	b70ff06f          	jal	zero,14164 <_vfprintf_r+0x1a0>
   14df8:	02b00793          	addi	a5,zero,43
   14dfc:	000d4883          	lbu	a7,0(s10)
   14e00:	08f109a3          	sb	a5,147(sp)
   14e04:	b60ff06f          	jal	zero,14164 <_vfprintf_r+0x1a0>
   14e08:	000d4883          	lbu	a7,0(s10)
   14e0c:	080beb93          	ori	s7,s7,128
   14e10:	b54ff06f          	jal	zero,14164 <_vfprintf_r+0x1a0>
   14e14:	000d4883          	lbu	a7,0(s10)
   14e18:	02a00793          	addi	a5,zero,42
   14e1c:	001d0693          	addi	a3,s10,1
   14e20:	00f89463          	bne	a7,a5,14e28 <_vfprintf_r+0xe64>
   14e24:	0dc0206f          	jal	zero,16f00 <_vfprintf_r+0x2f3c>
   14e28:	fd088793          	addi	a5,a7,-48
   14e2c:	00900613          	addi	a2,zero,9
   14e30:	00000a93          	addi	s5,zero,0
   14e34:	02f66463          	bltu	a2,a5,14e5c <_vfprintf_r+0xe98>
   14e38:	002a9713          	slli	a4,s5,0x2
   14e3c:	0006c883          	lbu	a7,0(a3)
   14e40:	01570ab3          	add	s5,a4,s5
   14e44:	001a9a93          	slli	s5,s5,0x1
   14e48:	00fa8ab3          	add	s5,s5,a5
   14e4c:	fd088793          	addi	a5,a7,-48
   14e50:	00168693          	addi	a3,a3,1
   14e54:	fef672e3          	bgeu	a2,a5,14e38 <_vfprintf_r+0xe74>
   14e58:	3c0ac8e3          	blt	s5,zero,15a28 <_vfprintf_r+0x1a64>
   14e5c:	00068d13          	addi	s10,a3,0
   14e60:	b08ff06f          	jal	zero,14168 <_vfprintf_r+0x1a4>
   14e64:	00090513          	addi	a0,s2,0
   14e68:	6d1020ef          	jal	ra,17d38 <_localeconv_r>
   14e6c:	00452783          	lw	a5,4(a0)
   14e70:	00078513          	addi	a0,a5,0
   14e74:	02f12a23          	sw	a5,52(sp)
   14e78:	1e0030ef          	jal	ra,18058 <strlen>
   14e7c:	00050493          	addi	s1,a0,0
   14e80:	00090513          	addi	a0,s2,0
   14e84:	04912223          	sw	s1,68(sp)
   14e88:	6b1020ef          	jal	ra,17d38 <_localeconv_r>
   14e8c:	00852703          	lw	a4,8(a0)
   14e90:	000d4883          	lbu	a7,0(s10)
   14e94:	02e12823          	sw	a4,48(sp)
   14e98:	ac048663          	beq	s1,zero,14164 <_vfprintf_r+0x1a0>
   14e9c:	ac070463          	beq	a4,zero,14164 <_vfprintf_r+0x1a0>
   14ea0:	00074783          	lbu	a5,0(a4)
   14ea4:	ac078063          	beq	a5,zero,14164 <_vfprintf_r+0x1a0>
   14ea8:	400beb93          	ori	s7,s7,1024
   14eac:	ab8ff06f          	jal	zero,14164 <_vfprintf_r+0x1a0>
   14eb0:	000d4883          	lbu	a7,0(s10)
   14eb4:	001beb93          	ori	s7,s7,1
   14eb8:	aacff06f          	jal	zero,14164 <_vfprintf_r+0x1a0>
   14ebc:	09314783          	lbu	a5,147(sp)
   14ec0:	000d4883          	lbu	a7,0(s10)
   14ec4:	aa079063          	bne	a5,zero,14164 <_vfprintf_r+0x1a0>
   14ec8:	02000793          	addi	a5,zero,32
   14ecc:	08f109a3          	sb	a5,147(sp)
   14ed0:	a94ff06f          	jal	zero,14164 <_vfprintf_r+0x1a0>
   14ed4:	020bf793          	andi	a5,s7,32
   14ed8:	010be693          	ori	a3,s7,16
   14edc:	220782e3          	beq	a5,zero,15900 <_vfprintf_r+0x193c>
   14ee0:	00c12783          	lw	a5,12(sp)
   14ee4:	00778793          	addi	a5,a5,7
   14ee8:	ff87f793          	andi	a5,a5,-8
   14eec:	00878713          	addi	a4,a5,8
   14ef0:	00e12623          	sw	a4,12(sp)
   14ef4:	0047a603          	lw	a2,4(a5)
   14ef8:	0007a703          	lw	a4,0(a5)
   14efc:	080109a3          	sb	zero,147(sp)
   14f00:	bff6fb93          	andi	s7,a3,-1025
   14f04:	600aca63          	blt	s5,zero,15518 <_vfprintf_r+0x1554>
   14f08:	00c767b3          	or	a5,a4,a2
   14f0c:	b7f6fb93          	andi	s7,a3,-1153
   14f10:	60079463          	bne	a5,zero,15518 <_vfprintf_r+0x1554>
   14f14:	600a9263          	bne	s5,zero,15518 <_vfprintf_r+0x1554>
   14f18:	0016fc13          	andi	s8,a3,1
   14f1c:	080c02e3          	beq	s8,zero,157a0 <_vfprintf_r+0x17dc>
   14f20:	03000793          	addi	a5,zero,48
   14f24:	16f10fa3          	sb	a5,383(sp)
   14f28:	000c0c93          	addi	s9,s8,0
   14f2c:	00012823          	sw	zero,16(sp)
   14f30:	02012023          	sw	zero,32(sp)
   14f34:	00012e23          	sw	zero,28(sp)
   14f38:	00000313          	addi	t1,zero,0
   14f3c:	17f10793          	addi	a5,sp,383
   14f40:	ab4ff06f          	jal	zero,141f4 <_vfprintf_r+0x230>
   14f44:	000d4883          	lbu	a7,0(s10)
   14f48:	06800793          	addi	a5,zero,104
   14f4c:	2ef88ce3          	beq	a7,a5,15a44 <_vfprintf_r+0x1a80>
   14f50:	040beb93          	ori	s7,s7,64
   14f54:	a10ff06f          	jal	zero,14164 <_vfprintf_r+0x1a0>
   14f58:	00c12703          	lw	a4,12(sp)
   14f5c:	020bf793          	andi	a5,s7,32
   14f60:	00470713          	addi	a4,a4,4
   14f64:	1a079ce3          	bne	a5,zero,1591c <_vfprintf_r+0x1958>
   14f68:	010bf793          	andi	a5,s7,16
   14f6c:	760798e3          	bne	a5,zero,15edc <_vfprintf_r+0x1f18>
   14f70:	040bf793          	andi	a5,s7,64
   14f74:	00078463          	beq	a5,zero,14f7c <_vfprintf_r+0xfb8>
   14f78:	44c0106f          	jal	zero,163c4 <_vfprintf_r+0x2400>
   14f7c:	200bfe13          	andi	t3,s7,512
   14f80:	740e0ee3          	beq	t3,zero,15edc <_vfprintf_r+0x1f18>
   14f84:	00c12783          	lw	a5,12(sp)
   14f88:	00812683          	lw	a3,8(sp)
   14f8c:	00e12623          	sw	a4,12(sp)
   14f90:	0007a783          	lw	a5,0(a5)
   14f94:	00d78023          	sb	a3,0(a5)
   14f98:	938ff06f          	jal	zero,140d0 <_vfprintf_r+0x10c>
   14f9c:	000d4883          	lbu	a7,0(s10)
   14fa0:	06c00793          	addi	a5,zero,108
   14fa4:	28f888e3          	beq	a7,a5,15a34 <_vfprintf_r+0x1a70>
   14fa8:	010beb93          	ori	s7,s7,16
   14fac:	9b8ff06f          	jal	zero,14164 <_vfprintf_r+0x1a0>
   14fb0:	020bf793          	andi	a5,s7,32
   14fb4:	24079863          	bne	a5,zero,15204 <_vfprintf_r+0x1240>
   14fb8:	010bf793          	andi	a5,s7,16
   14fbc:	00078463          	beq	a5,zero,14fc4 <_vfprintf_r+0x1000>
   14fc0:	44d0106f          	jal	zero,16c0c <_vfprintf_r+0x2c48>
   14fc4:	00c12703          	lw	a4,12(sp)
   14fc8:	040bf793          	andi	a5,s7,64
   14fcc:	00072c03          	lw	s8,0(a4)
   14fd0:	00470713          	addi	a4,a4,4
   14fd4:	00e12623          	sw	a4,12(sp)
   14fd8:	00079463          	bne	a5,zero,14fe0 <_vfprintf_r+0x101c>
   14fdc:	7b10006f          	jal	zero,15f8c <_vfprintf_r+0x1fc8>
   14fe0:	010c1c13          	slli	s8,s8,0x10
   14fe4:	080109a3          	sb	zero,147(sp)
   14fe8:	010c5c13          	srli	s8,s8,0x10
   14fec:	00000e93          	addi	t4,zero,0
   14ff0:	d80acce3          	blt	s5,zero,14d88 <_vfprintf_r+0xdc4>
   14ff4:	018ae333          	or	t1,s5,s8
   14ff8:	f7fbfb93          	andi	s7,s7,-129
   14ffc:	16030463          	beq	t1,zero,15164 <_vfprintf_r+0x11a0>
   15000:	d80e86e3          	beq	t4,zero,14d8c <_vfprintf_r+0xdc8>
   15004:	ccccdcb7          	lui	s9,0xccccd
   15008:	ccccddb7          	lui	s11,0xccccd
   1500c:	ccdc8c93          	addi	s9,s9,-819 # cccccccd <__BSS_END__+0xccbde3dd>
   15010:	cccd8d93          	addi	s11,s11,-820 # cccccccc <__BSS_END__+0xccbde3dc>
   15014:	400bf813          	andi	a6,s7,1024
   15018:	00000593          	addi	a1,zero,0
   1501c:	18010613          	addi	a2,sp,384
   15020:	00088493          	addi	s1,a7,0
   15024:	0800006f          	jal	zero,150a4 <_vfprintf_r+0x10e0>
   15028:	03012703          	lw	a4,48(sp)
   1502c:	00074703          	lbu	a4,0(a4)
   15030:	f0170693          	addi	a3,a4,-255
   15034:	00068463          	beq	a3,zero,1503c <_vfprintf_r+0x1078>
   15038:	5cb70ae3          	beq	a4,a1,15e0c <_vfprintf_r+0x1e48>
   1503c:	000c0313          	addi	t1,s8,0
   15040:	000e8513          	addi	a0,t4,0
   15044:	00078613          	addi	a2,a5,0
   15048:	01dc0733          	add	a4,s8,t4
   1504c:	018736b3          	sltu	a3,a4,s8
   15050:	00d70733          	add	a4,a4,a3
   15054:	039736b3          	mulhu	a3,a4,s9
   15058:	0026de13          	srli	t3,a3,0x2
   1505c:	ffc6f693          	andi	a3,a3,-4
   15060:	01c686b3          	add	a3,a3,t3
   15064:	40d70733          	sub	a4,a4,a3
   15068:	40ec0733          	sub	a4,s8,a4
   1506c:	00ec36b3          	sltu	a3,s8,a4
   15070:	40de86b3          	sub	a3,t4,a3
   15074:	039686b3          	mul	a3,a3,s9
   15078:	03b70eb3          	mul	t4,a4,s11
   1507c:	03973e33          	mulhu	t3,a4,s9
   15080:	01d686b3          	add	a3,a3,t4
   15084:	03970733          	mul	a4,a4,s9
   15088:	01c686b3          	add	a3,a3,t3
   1508c:	01f69e13          	slli	t3,a3,0x1f
   15090:	0016de93          	srli	t4,a3,0x1
   15094:	00175713          	srli	a4,a4,0x1
   15098:	00ee0c33          	add	s8,t3,a4
   1509c:	00051463          	bne	a0,zero,150a4 <_vfprintf_r+0x10e0>
   150a0:	2750106f          	jal	zero,16b14 <_vfprintf_r+0x2b50>
   150a4:	01dc0733          	add	a4,s8,t4
   150a8:	018736b3          	sltu	a3,a4,s8
   150ac:	00d706b3          	add	a3,a4,a3
   150b0:	0396b533          	mulhu	a0,a3,s9
   150b4:	00158593          	addi	a1,a1,1
   150b8:	fff60793          	addi	a5,a2,-1
   150bc:	00255313          	srli	t1,a0,0x2
   150c0:	ffc57513          	andi	a0,a0,-4
   150c4:	00650533          	add	a0,a0,t1
   150c8:	40a686b3          	sub	a3,a3,a0
   150cc:	40dc06b3          	sub	a3,s8,a3
   150d0:	00dc3533          	sltu	a0,s8,a3
   150d4:	40ae8533          	sub	a0,t4,a0
   150d8:	0396b333          	mulhu	t1,a3,s9
   150dc:	03950533          	mul	a0,a0,s9
   150e0:	039686b3          	mul	a3,a3,s9
   150e4:	00650533          	add	a0,a0,t1
   150e8:	01f51513          	slli	a0,a0,0x1f
   150ec:	0016d693          	srli	a3,a3,0x1
   150f0:	00d506b3          	add	a3,a0,a3
   150f4:	00269513          	slli	a0,a3,0x2
   150f8:	00d506b3          	add	a3,a0,a3
   150fc:	00169693          	slli	a3,a3,0x1
   15100:	40dc06b3          	sub	a3,s8,a3
   15104:	03068693          	addi	a3,a3,48
   15108:	fed60fa3          	sb	a3,-1(a2)
   1510c:	f0081ee3          	bne	a6,zero,15028 <_vfprintf_r+0x1064>
   15110:	000c0313          	addi	t1,s8,0
   15114:	000e8513          	addi	a0,t4,0
   15118:	00078613          	addi	a2,a5,0
   1511c:	f31ff06f          	jal	zero,1504c <_vfprintf_r+0x1088>
   15120:	000087b7          	lui	a5,0x8
   15124:	83078793          	addi	a5,a5,-2000 # 7830 <exit-0x8884>
   15128:	00c12703          	lw	a4,12(sp)
   1512c:	08f11a23          	sh	a5,148(sp)
   15130:	00c12783          	lw	a5,12(sp)
   15134:	080109a3          	sb	zero,147(sp)
   15138:	00072703          	lw	a4,0(a4)
   1513c:	00478793          	addi	a5,a5,4
   15140:	00000613          	addi	a2,zero,0
   15144:	060ac8e3          	blt	s5,zero,159b4 <_vfprintf_r+0x19f0>
   15148:	f7fbfe13          	andi	t3,s7,-129
   1514c:	002e6b93          	ori	s7,t3,2
   15150:	5a0a92e3          	bne	s5,zero,15ef4 <_vfprintf_r+0x1f30>
   15154:	5a0710e3          	bne	a4,zero,15ef4 <_vfprintf_r+0x1f30>
   15158:	00f12623          	sw	a5,12(sp)
   1515c:	00200313          	addi	t1,zero,2
   15160:	07800893          	addi	a7,zero,120
   15164:	09314e83          	lbu	t4,147(sp)
   15168:	00000a93          	addi	s5,zero,0
   1516c:	00000c13          	addi	s8,zero,0
   15170:	00000c93          	addi	s9,zero,0
   15174:	18010793          	addi	a5,sp,384
   15178:	00012823          	sw	zero,16(sp)
   1517c:	c3dff06f          	jal	zero,14db8 <_vfprintf_r+0xdf4>
   15180:	020bf793          	andi	a5,s7,32
   15184:	000794e3          	bne	a5,zero,1598c <_vfprintf_r+0x19c8>
   15188:	00c12783          	lw	a5,12(sp)
   1518c:	010bf713          	andi	a4,s7,16
   15190:	00478793          	addi	a5,a5,4
   15194:	00070463          	beq	a4,zero,1519c <_vfprintf_r+0x11d8>
   15198:	2650106f          	jal	zero,16bfc <_vfprintf_r+0x2c38>
   1519c:	00c12703          	lw	a4,12(sp)
   151a0:	040bf693          	andi	a3,s7,64
   151a4:	00072703          	lw	a4,0(a4)
   151a8:	5c0684e3          	beq	a3,zero,15f70 <_vfprintf_r+0x1fac>
   151ac:	01071713          	slli	a4,a4,0x10
   151b0:	01075713          	srli	a4,a4,0x10
   151b4:	00f12623          	sw	a5,12(sp)
   151b8:	000b8693          	addi	a3,s7,0
   151bc:	00000613          	addi	a2,zero,0
   151c0:	d3dff06f          	jal	zero,14efc <_vfprintf_r+0xf38>
   151c4:	020bf793          	andi	a5,s7,32
   151c8:	010bee13          	ori	t3,s7,16
   151cc:	02079e63          	bne	a5,zero,15208 <_vfprintf_r+0x1244>
   151d0:	00c12783          	lw	a5,12(sp)
   151d4:	00c12703          	lw	a4,12(sp)
   151d8:	080109a3          	sb	zero,147(sp)
   151dc:	00478793          	addi	a5,a5,4
   151e0:	00072c03          	lw	s8,0(a4)
   151e4:	00000e93          	addi	t4,zero,0
   151e8:	680acae3          	blt	s5,zero,1607c <_vfprintf_r+0x20b8>
   151ec:	00f12623          	sw	a5,12(sp)
   151f0:	f7fe7b93          	andi	s7,t3,-129
   151f4:	b80c1ce3          	bne	s8,zero,14d8c <_vfprintf_r+0xdc8>
   151f8:	b80a9ae3          	bne	s5,zero,14d8c <_vfprintf_r+0xdc8>
   151fc:	00000313          	addi	t1,zero,0
   15200:	f65ff06f          	jal	zero,15164 <_vfprintf_r+0x11a0>
   15204:	000b8e13          	addi	t3,s7,0
   15208:	00c12783          	lw	a5,12(sp)
   1520c:	080109a3          	sb	zero,147(sp)
   15210:	00778793          	addi	a5,a5,7
   15214:	ff87f793          	andi	a5,a5,-8
   15218:	00878713          	addi	a4,a5,8
   1521c:	00e12623          	sw	a4,12(sp)
   15220:	0007ac03          	lw	s8,0(a5)
   15224:	0047ae83          	lw	t4,4(a5)
   15228:	780ac263          	blt	s5,zero,159ac <_vfprintf_r+0x19e8>
   1522c:	f7fe7b93          	andi	s7,t3,-129
   15230:	b40a9ce3          	bne	s5,zero,14d88 <_vfprintf_r+0xdc4>
   15234:	01dc67b3          	or	a5,s8,t4
   15238:	b40798e3          	bne	a5,zero,14d88 <_vfprintf_r+0xdc4>
   1523c:	00000313          	addi	t1,zero,0
   15240:	f25ff06f          	jal	zero,15164 <_vfprintf_r+0x11a0>
   15244:	000d4883          	lbu	a7,0(s10)
   15248:	008beb93          	ori	s7,s7,8
   1524c:	f19fe06f          	jal	zero,14164 <_vfprintf_r+0x1a0>
   15250:	00012703          	lw	a4,0(sp)
   15254:	41870db3          	sub	s11,a4,s8
   15258:	01b04463          	blt	zero,s11,15260 <_vfprintf_r+0x129c>
   1525c:	828ff06f          	jal	zero,14284 <_vfprintf_r+0x2c0>
   15260:	01000e93          	addi	t4,zero,16
   15264:	0b812583          	lw	a1,184(sp)
   15268:	0006d837          	lui	a6,0x6d
   1526c:	01bec463          	blt	t4,s11,15274 <_vfprintf_r+0x12b0>
   15270:	2050106f          	jal	zero,16c74 <_vfprintf_r+0x2cb0>
   15274:	000d8493          	addi	s1,s11,0
   15278:	02f12e23          	sw	a5,60(sp)
   1527c:	000d0d93          	addi	s11,s10,0
   15280:	000b0793          	addi	a5,s6,0
   15284:	000c8d13          	addi	s10,s9,0
   15288:	00700293          	addi	t0,zero,7
   1528c:	000c0c93          	addi	s9,s8,0
   15290:	03112c23          	sw	a7,56(sp)
   15294:	000a8c13          	addi	s8,s5,0
   15298:	00030b13          	addi	s6,t1,0
   1529c:	82880a93          	addi	s5,a6,-2008 # 6c828 <zeroes.0>
   152a0:	00c0006f          	jal	zero,152ac <_vfprintf_r+0x12e8>
   152a4:	ff048493          	addi	s1,s1,-16
