
/tmp/tmp.n0hI4XWwk4/patricia_O3_clean:     file format elf32-littleriscv


Disassembly of section .text:

000100b4 <exit>:
exit():
   100b4:	ff010113          	addi	sp,sp,-16
   100b8:	00000593          	addi	a1,zero,0
   100bc:	00812423          	sw	s0,8(sp)
   100c0:	00112623          	sw	ra,12(sp)
   100c4:	00050413          	addi	s0,a0,0
   100c8:	215010ef          	jal	ra,11adc <__call_exitprocs>
   100cc:	8841a783          	lw	a5,-1916(gp) # 6d73c <__stdio_exit_handler>
   100d0:	00078463          	beq	a5,zero,100d8 <exit+0x24>
   100d4:	000780e7          	jalr	ra,0(a5)
   100d8:	00040513          	addi	a0,s0,0
   100dc:	2a90c0ef          	jal	ra,1cb84 <_exit>

000100e0 <main>:
main():
   100e0:	fc010113          	addi	sp,sp,-64
   100e4:	01712e23          	sw	s7,28(sp)
   100e8:	0006dbb7          	lui	s7,0x6d
   100ec:	738ba783          	lw	a5,1848(s7) # 6d738 <node_count>
   100f0:	00003737          	lui	a4,0x3
   100f4:	02112e23          	sw	ra,60(sp)
   100f8:	edf70713          	addi	a4,a4,-289 # 2edf <exit-0xd1d5>
   100fc:	46f74c63          	blt	a4,a5,10574 <main+0x494>
   10100:	03312623          	sw	s3,44(sp)
   10104:	00279993          	slli	s3,a5,0x2
   10108:	01812c23          	sw	s8,24(sp)
   1010c:	01912a23          	sw	s9,20(sp)
   10110:	00f989b3          	add	s3,s3,a5
   10114:	000b4c37          	lui	s8,0xb4
   10118:	0006dcb7          	lui	s9,0x6d
   1011c:	00299993          	slli	s3,s3,0x2
   10120:	c80c0c13          	addi	s8,s8,-896 # b3c80 <static_nodes>
   10124:	734ca603          	lw	a2,1844(s9) # 6d734 <mask_count>
   10128:	013c09b3          	add	s3,s8,s3
   1012c:	00178693          	addi	a3,a5,1
   10130:	0009a023          	sw	zero,0(s3)
   10134:	0009a223          	sw	zero,4(s3)
   10138:	0009a423          	sw	zero,8(s3)
   1013c:	0009a623          	sw	zero,12(s3)
   10140:	0009a823          	sw	zero,16(s3)
   10144:	72dbac23          	sw	a3,1848(s7)
   10148:	50c74863          	blt	a4,a2,10658 <main+0x578>
   1014c:	02912a23          	sw	s1,52(sp)
   10150:	01a12823          	sw	s10,16(sp)
   10154:	0009c4b7          	lui	s1,0x9c
   10158:	0006dd37          	lui	s10,0x6d
   1015c:	00361693          	slli	a3,a2,0x3
   10160:	58048493          	addi	s1,s1,1408 # 9c580 <static_masks>
   10164:	730d2583          	lw	a1,1840(s10) # 6d730 <data_count>
   10168:	00d486b3          	add	a3,s1,a3
   1016c:	00160613          	addi	a2,a2,1
   10170:	00d9a223          	sw	a3,4(s3)
   10174:	0006a023          	sw	zero,0(a3)
   10178:	0006a223          	sw	zero,4(a3)
   1017c:	72ccaa23          	sw	a2,1844(s9)
   10180:	4eb74c63          	blt	a4,a1,10678 <main+0x598>
   10184:	01400713          	addi	a4,zero,20
   10188:	02e787b3          	mul	a5,a5,a4
   1018c:	03212823          	sw	s2,48(sp)
   10190:	0006d937          	lui	s2,0x6d
   10194:	02812c23          	sw	s0,56(sp)
   10198:	03612023          	sw	s6,32(sp)
   1019c:	00459713          	slli	a4,a1,0x4
   101a0:	00100613          	addi	a2,zero,1
   101a4:	78090913          	addi	s2,s2,1920 # 6d780 <static_data>
   101a8:	00062b37          	lui	s6,0x62
   101ac:	0000b437          	lui	s0,0xb
   101b0:	03412423          	sw	s4,40(sp)
   101b4:	03512223          	sw	s5,36(sp)
   101b8:	01b12623          	sw	s11,12(sp)
   101bc:	00fc07b3          	add	a5,s8,a5
   101c0:	00e90733          	add	a4,s2,a4
   101c4:	00c585b3          	add	a1,a1,a2
   101c8:	924b0b13          	addi	s6,s6,-1756 # 61924 <test_data>
   101cc:	a2840413          	addi	s0,s0,-1496 # aa28 <exit-0x568c>
   101d0:	0137a823          	sw	s3,16(a5)
   101d4:	0137a623          	sw	s3,12(a5)
   101d8:	00c78423          	sb	a2,8(a5)
   101dc:	00e6a223          	sw	a4,4(a3)
   101e0:	00070023          	sb	zero,0(a4)
   101e4:	72bd2823          	sw	a1,1840(s10)
   101e8:	008b0433          	add	s0,s6,s0
   101ec:	02d00d93          	addi	s11,zero,45
   101f0:	02e00a13          	addi	s4,zero,46
   101f4:	00500a93          	addi	s5,zero,5
   101f8:	000b2783          	lw	a5,0(s6)
   101fc:	0007ce83          	lbu	t4,0(a5)
   10200:	ff7e8f93          	addi	t6,t4,-9
   10204:	fe0e8713          	addi	a4,t4,-32
   10208:	001fbf13          	sltiu	t5,t6,1
   1020c:	00173713          	sltiu	a4,a4,1
   10210:	00ef6f33          	or	t5,t5,a4
   10214:	3e0f0e63          	beq	t5,zero,10610 <main+0x530>
   10218:	00078693          	addi	a3,a5,0
   1021c:	0016c703          	lbu	a4,1(a3)
   10220:	00168693          	addi	a3,a3,1
   10224:	fe070613          	addi	a2,a4,-32
   10228:	ff770593          	addi	a1,a4,-9
   1022c:	fe0608e3          	beq	a2,zero,1021c <main+0x13c>
   10230:	fe0586e3          	beq	a1,zero,1021c <main+0x13c>
   10234:	37b70263          	beq	a4,s11,10598 <main+0x4b8>
   10238:	02b00613          	addi	a2,zero,43
   1023c:	00100813          	addi	a6,zero,1
   10240:	00c71663          	bne	a4,a2,1024c <main+0x16c>
   10244:	0016c703          	lbu	a4,1(a3)
   10248:	010686b3          	add	a3,a3,a6
   1024c:	00000613          	addi	a2,zero,0
   10250:	00000893          	addi	a7,zero,0
   10254:	00000313          	addi	t1,zero,0
   10258:	06070863          	beq	a4,zero,102c8 <main+0x1e8>
   1025c:	00000313          	addi	t1,zero,0
   10260:	00000893          	addi	a7,zero,0
   10264:	00000e13          	addi	t3,zero,0
   10268:	00900513          	addi	a0,zero,9
   1026c:	0240006f          	jal	zero,10290 <main+0x1b0>
   10270:	00289713          	slli	a4,a7,0x2
   10274:	01170733          	add	a4,a4,a7
   10278:	00171713          	slli	a4,a4,0x1
   1027c:	280e1c63          	bne	t3,zero,10514 <main+0x434>
   10280:	00e588b3          	add	a7,a1,a4
   10284:	0016c703          	lbu	a4,1(a3)
   10288:	00168693          	addi	a3,a3,1
   1028c:	02070263          	beq	a4,zero,102b0 <main+0x1d0>
   10290:	fd070593          	addi	a1,a4,-48
   10294:	0ff5f293          	andi	t0,a1,255
   10298:	fc557ce3          	bgeu	a0,t0,10270 <main+0x190>
   1029c:	fe070593          	addi	a1,a4,-32
   102a0:	ff770293          	addi	t0,a4,-9
   102a4:	29470663          	beq	a4,s4,10530 <main+0x450>
   102a8:	00058463          	beq	a1,zero,102b0 <main+0x1d0>
   102ac:	fc029ce3          	bne	t0,zero,10284 <main+0x1a4>
   102b0:	026ac863          	blt	s5,t1,102e0 <main+0x200>
   102b4:	35530063          	beq	t1,s5,105f4 <main+0x514>
   102b8:	00400713          	addi	a4,zero,4
   102bc:	34e30463          	beq	t1,a4,10604 <main+0x524>
   102c0:	00300713          	addi	a4,zero,3
   102c4:	36e30463          	beq	t1,a4,1062c <main+0x54c>
   102c8:	00200713          	addi	a4,zero,2
   102cc:	36e30663          	beq	t1,a4,10638 <main+0x558>
   102d0:	36031c63          	bne	t1,zero,10648 <main+0x568>
   102d4:	000f4737          	lui	a4,0xf4
   102d8:	24070713          	addi	a4,a4,576 # f4240 <__BSS_END__+0x5950>
   102dc:	02e60633          	mul	a2,a2,a4
   102e0:	0dfefe93          	andi	t4,t4,223
   102e4:	320e8c63          	beq	t4,zero,1061c <main+0x53c>
   102e8:	000f9663          	bne	t6,zero,102f4 <main+0x214>
   102ec:	3300006f          	jal	zero,1061c <main+0x53c>
   102f0:	00058c63          	beq	a1,zero,10308 <main+0x228>
   102f4:	0017c703          	lbu	a4,1(a5)
   102f8:	00178793          	addi	a5,a5,1
   102fc:	0df77693          	andi	a3,a4,223
   10300:	ff770593          	addi	a1,a4,-9
   10304:	fe0696e3          	bne	a3,zero,102f0 <main+0x210>
   10308:	fe070693          	addi	a3,a4,-32
   1030c:	00068663          	beq	a3,zero,10318 <main+0x238>
   10310:	ff770713          	addi	a4,a4,-9
   10314:	30071663          	bne	a4,zero,10620 <main+0x540>
   10318:	00078513          	addi	a0,a5,0
   1031c:	0017c683          	lbu	a3,1(a5)
   10320:	00178793          	addi	a5,a5,1
   10324:	fe068713          	addi	a4,a3,-32
   10328:	ff768593          	addi	a1,a3,-9
   1032c:	fe0706e3          	beq	a4,zero,10318 <main+0x238>
   10330:	fe0584e3          	beq	a1,zero,10318 <main+0x238>
   10334:	25b68a63          	beq	a3,s11,10588 <main+0x4a8>
   10338:	02b00713          	addi	a4,zero,43
   1033c:	00100e13          	addi	t3,zero,1
   10340:	00e69663          	bne	a3,a4,1034c <main+0x26c>
   10344:	0017c683          	lbu	a3,1(a5)
   10348:	00250793          	addi	a5,a0,2
   1034c:	fd068593          	addi	a1,a3,-48
   10350:	0ff5f713          	andi	a4,a1,255
   10354:	00900513          	addi	a0,zero,9
   10358:	00000313          	addi	t1,zero,0
   1035c:	02e56463          	bltu	a0,a4,10384 <main+0x2a4>
   10360:	00231713          	slli	a4,t1,0x2
   10364:	0017c683          	lbu	a3,1(a5)
   10368:	00670733          	add	a4,a4,t1
   1036c:	00171713          	slli	a4,a4,0x1
   10370:	00e58333          	add	t1,a1,a4
   10374:	fd068593          	addi	a1,a3,-48
   10378:	0ff5f713          	andi	a4,a1,255
   1037c:	00178793          	addi	a5,a5,1
   10380:	fee570e3          	bgeu	a0,a4,10360 <main+0x280>
   10384:	738ba783          	lw	a5,1848(s7)
   10388:	00003737          	lui	a4,0x3
   1038c:	edf70713          	addi	a4,a4,-289 # 2edf <exit-0xd1d5>
   10390:	1af74c63          	blt	a4,a5,10548 <main+0x468>
   10394:	00279513          	slli	a0,a5,0x2
   10398:	00178693          	addi	a3,a5,1
   1039c:	00f50533          	add	a0,a0,a5
   103a0:	00251513          	slli	a0,a0,0x2
   103a4:	72dbac23          	sw	a3,1848(s7)
   103a8:	734ca683          	lw	a3,1844(s9)
   103ac:	00ac0533          	add	a0,s8,a0
   103b0:	00052023          	sw	zero,0(a0)
   103b4:	00052223          	sw	zero,4(a0)
   103b8:	00052423          	sw	zero,8(a0)
   103bc:	00052623          	sw	zero,12(a0)
   103c0:	00052823          	sw	zero,16(a0)
   103c4:	16d74a63          	blt	a4,a3,10538 <main+0x458>
   103c8:	00369793          	slli	a5,a3,0x3
   103cc:	730d2583          	lw	a1,1840(s10)
   103d0:	00f487b3          	add	a5,s1,a5
   103d4:	00168693          	addi	a3,a3,1
   103d8:	00f52223          	sw	a5,4(a0)
   103dc:	0007a023          	sw	zero,0(a5)
   103e0:	0007a223          	sw	zero,4(a5)
   103e4:	72dcaa23          	sw	a3,1844(s9)
   103e8:	16b74063          	blt	a4,a1,10548 <main+0x468>
   103ec:	026e06b3          	mul	a3,t3,t1
   103f0:	00459713          	slli	a4,a1,0x4
   103f4:	00e90733          	add	a4,s2,a4
   103f8:	00070023          	sb	zero,0(a4)
   103fc:	00e7a223          	sw	a4,4(a5)
   10400:	fff00713          	addi	a4,zero,-1
   10404:	00e7a023          	sw	a4,0(a5)
   10408:	00158593          	addi	a1,a1,1
   1040c:	00098713          	addi	a4,s3,0
   10410:	72bd2823          	sw	a1,1840(s10)
   10414:	00472583          	lw	a1,4(a4)
   10418:	00d52023          	sw	a3,0(a0)
   1041c:	0099c303          	lbu	t1,9(s3)
   10420:	0005a583          	lw	a1,0(a1)
   10424:	00072f03          	lw	t5,0(a4)
   10428:	80000e37          	lui	t3,0x80000
   1042c:	006e57b3          	srl	a5,t3,t1
   10430:	00b6f5b3          	and	a1,a3,a1
   10434:	00000e93          	addi	t4,zero,0
   10438:	00d7f7b3          	and	a5,a5,a3
   1043c:	02bf0a63          	beq	t5,a1,10470 <main+0x390>
   10440:	02078c63          	beq	a5,zero,10478 <main+0x398>
   10444:	01072703          	lw	a4,16(a4)
   10448:	00974783          	lbu	a5,9(a4)
   1044c:	02f37c63          	bgeu	t1,a5,10484 <main+0x3a4>
   10450:	00472583          	lw	a1,4(a4)
   10454:	00072f03          	lw	t5,0(a4)
   10458:	00078313          	addi	t1,a5,0
   1045c:	0005a583          	lw	a1,0(a1)
   10460:	006e57b3          	srl	a5,t3,t1
   10464:	00d7f7b3          	and	a5,a5,a3
   10468:	00b6f5b3          	and	a1,a3,a1
   1046c:	fcbf1ae3          	bne	t5,a1,10440 <main+0x360>
   10470:	00070e93          	addi	t4,a4,0
   10474:	fc0798e3          	bne	a5,zero,10444 <main+0x364>
   10478:	00c72703          	lw	a4,12(a4)
   1047c:	00974783          	lbu	a5,9(a4)
   10480:	fcf368e3          	bltu	t1,a5,10450 <main+0x370>
   10484:	00472783          	lw	a5,4(a4)
   10488:	00072583          	lw	a1,0(a4)
   1048c:	0007a783          	lw	a5,0(a5)
   10490:	00f6f7b3          	and	a5,a3,a5
   10494:	00f59463          	bne	a1,a5,1049c <main+0x3bc>
   10498:	00070e93          	addi	t4,a4,0
   1049c:	000ea783          	lw	a5,0(t4)
   104a0:	10d78463          	beq	a5,a3,105a8 <main+0x4c8>
   104a4:	00098593          	addi	a1,s3,0
   104a8:	00000097          	auipc	ra,0x0
   104ac:	46c080e7          	jalr	ra,1132(ra) # 10914 <pat_insert>
   104b0:	0006d737          	lui	a4,0x6d
   104b4:	72872783          	lw	a5,1832(a4) # 6d728 <insert_count>
   104b8:	00178793          	addi	a5,a5,1
   104bc:	72f72423          	sw	a5,1832(a4)
   104c0:	08050463          	beq	a0,zero,10548 <main+0x468>
   104c4:	004b0b13          	addi	s6,s6,4
   104c8:	d28b18e3          	bne	s6,s0,101f8 <main+0x118>
   104cc:	0006d737          	lui	a4,0x6d
   104d0:	0006d7b7          	lui	a5,0x6d
   104d4:	72c72503          	lw	a0,1836(a4) # 6d72c <found_count>
   104d8:	7287a783          	lw	a5,1832(a5) # 6d728 <insert_count>
   104dc:	03812403          	lw	s0,56(sp)
   104e0:	03412483          	lw	s1,52(sp)
   104e4:	00f50533          	add	a0,a0,a5
   104e8:	03012903          	lw	s2,48(sp)
   104ec:	02c12983          	lw	s3,44(sp)
   104f0:	02812a03          	lw	s4,40(sp)
   104f4:	02412a83          	lw	s5,36(sp)
   104f8:	02012b03          	lw	s6,32(sp)
   104fc:	01812c03          	lw	s8,24(sp)
   10500:	01412c83          	lw	s9,20(sp)
   10504:	01012d03          	lw	s10,16(sp)
   10508:	00c12d83          	lw	s11,12(sp)
   1050c:	00153513          	sltiu	a0,a0,1
   10510:	0680006f          	jal	zero,10578 <main+0x498>
   10514:	00261713          	slli	a4,a2,0x2
   10518:	00c70733          	add	a4,a4,a2
   1051c:	00171713          	slli	a4,a4,0x1
   10520:	d66ac2e3          	blt	s5,t1,10284 <main+0x1a4>
   10524:	00e58633          	add	a2,a1,a4
   10528:	00130313          	addi	t1,t1,1
   1052c:	d59ff06f          	jal	zero,10284 <main+0x1a4>
   10530:	00100e13          	addi	t3,zero,1
   10534:	d51ff06f          	jal	zero,10284 <main+0x1a4>
   10538:	01400713          	addi	a4,zero,20
   1053c:	02e787b3          	mul	a5,a5,a4
   10540:	00fc0c33          	add	s8,s8,a5
   10544:	000c2223          	sw	zero,4(s8)
   10548:	03812403          	lw	s0,56(sp)
   1054c:	03412483          	lw	s1,52(sp)
   10550:	03012903          	lw	s2,48(sp)
   10554:	02c12983          	lw	s3,44(sp)
   10558:	02812a03          	lw	s4,40(sp)
   1055c:	02412a83          	lw	s5,36(sp)
   10560:	02012b03          	lw	s6,32(sp)
   10564:	01812c03          	lw	s8,24(sp)
   10568:	01412c83          	lw	s9,20(sp)
   1056c:	01012d03          	lw	s10,16(sp)
   10570:	00c12d83          	lw	s11,12(sp)
   10574:	00000513          	addi	a0,zero,0
   10578:	03c12083          	lw	ra,60(sp)
   1057c:	01c12b83          	lw	s7,28(sp)
   10580:	04010113          	addi	sp,sp,64
   10584:	00008067          	jalr	zero,0(ra)
   10588:	0017c683          	lbu	a3,1(a5)
   1058c:	fff00e13          	addi	t3,zero,-1
   10590:	00250793          	addi	a5,a0,2
   10594:	db9ff06f          	jal	zero,1034c <main+0x26c>
   10598:	0016c703          	lbu	a4,1(a3)
   1059c:	fff00813          	addi	a6,zero,-1
   105a0:	00168693          	addi	a3,a3,1
   105a4:	ca9ff06f          	jal	zero,1024c <main+0x16c>
   105a8:	000f45b7          	lui	a1,0xf4
   105ac:	24058593          	addi	a1,a1,576 # f4240 <__BSS_END__+0x5950>
   105b0:	02b888b3          	mul	a7,a7,a1
   105b4:	00021537          	lui	a0,0x21
   105b8:	79850513          	addi	a0,a0,1944 # 21798 <__clzsi2+0x4c>
   105bc:	00c888b3          	add	a7,a7,a2
   105c0:	03088833          	mul	a6,a7,a6
   105c4:	02b86733          	rem	a4,a6,a1
   105c8:	02b845b3          	div	a1,a6,a1
   105cc:	41f75613          	srai	a2,a4,0x1f
   105d0:	00e64733          	xor	a4,a2,a4
   105d4:	40c70633          	sub	a2,a4,a2
   105d8:	00001097          	auipc	ra,0x1
   105dc:	f78080e7          	jalr	ra,-136(ra) # 11550 <printf>
   105e0:	0006d737          	lui	a4,0x6d
   105e4:	72c72783          	lw	a5,1836(a4) # 6d72c <found_count>
   105e8:	00178793          	addi	a5,a5,1
   105ec:	72f72623          	sw	a5,1836(a4)
   105f0:	ed5ff06f          	jal	zero,104c4 <main+0x3e4>
   105f4:	00261713          	slli	a4,a2,0x2
   105f8:	00c70733          	add	a4,a4,a2
   105fc:	00171613          	slli	a2,a4,0x1
   10600:	ce1ff06f          	jal	zero,102e0 <main+0x200>
   10604:	06400713          	addi	a4,zero,100
   10608:	02e60633          	mul	a2,a2,a4
   1060c:	cd5ff06f          	jal	zero,102e0 <main+0x200>
   10610:	000e8713          	addi	a4,t4,0
   10614:	00078693          	addi	a3,a5,0
   10618:	c1dff06f          	jal	zero,10234 <main+0x154>
   1061c:	ce0f1ee3          	bne	t5,zero,10318 <main+0x238>
   10620:	00100e13          	addi	t3,zero,1
   10624:	00000313          	addi	t1,zero,0
   10628:	d5dff06f          	jal	zero,10384 <main+0x2a4>
   1062c:	3e800713          	addi	a4,zero,1000
   10630:	02e60633          	mul	a2,a2,a4
   10634:	cadff06f          	jal	zero,102e0 <main+0x200>
   10638:	00002737          	lui	a4,0x2
   1063c:	71070713          	addi	a4,a4,1808 # 2710 <exit-0xd9a4>
   10640:	02e60633          	mul	a2,a2,a4
   10644:	c9dff06f          	jal	zero,102e0 <main+0x200>
   10648:	00018737          	lui	a4,0x18
   1064c:	6a070713          	addi	a4,a4,1696 # 186a0 <__gdtoa+0x1724>
   10650:	02e60633          	mul	a2,a2,a4
   10654:	c8dff06f          	jal	zero,102e0 <main+0x200>
   10658:	01400713          	addi	a4,zero,20
   1065c:	02e787b3          	mul	a5,a5,a4
   10660:	02c12983          	lw	s3,44(sp)
   10664:	01412c83          	lw	s9,20(sp)
   10668:	00fc07b3          	add	a5,s8,a5
   1066c:	0007a223          	sw	zero,4(a5)
   10670:	01812c03          	lw	s8,24(sp)
   10674:	f01ff06f          	jal	zero,10574 <main+0x494>
   10678:	03412483          	lw	s1,52(sp)
   1067c:	02c12983          	lw	s3,44(sp)
   10680:	01812c03          	lw	s8,24(sp)
   10684:	01412c83          	lw	s9,20(sp)
   10688:	01012d03          	lw	s10,16(sp)
   1068c:	ee9ff06f          	jal	zero,10574 <main+0x494>

00010690 <register_fini>:
register_fini():
   10690:	00000793          	addi	a5,zero,0
   10694:	00078863          	beq	a5,zero,106a4 <register_fini+0x14>
   10698:	00016537          	lui	a0,0x16
   1069c:	6a850513          	addi	a0,a0,1704 # 166a8 <__libc_fini_array>
   106a0:	5700106f          	jal	zero,11c10 <atexit>
   106a4:	00008067          	jalr	zero,0(ra)

000106a8 <_start>:
_start():
   106a8:	0005e197          	auipc	gp,0x5e
   106ac:	81018193          	addi	gp,gp,-2032 # 6deb8 <__global_pointer$>
   106b0:	0005d517          	auipc	a0,0x5d
   106b4:	07850513          	addi	a0,a0,120 # 6d728 <insert_count>
   106b8:	000de617          	auipc	a2,0xde
   106bc:	23860613          	addi	a2,a2,568 # ee8f0 <__BSS_END__>
   106c0:	40a60633          	sub	a2,a2,a0
   106c4:	00000593          	addi	a1,zero,0
   106c8:	338010ef          	jal	ra,11a00 <memset>
   106cc:	00001517          	auipc	a0,0x1
   106d0:	54450513          	addi	a0,a0,1348 # 11c10 <atexit>
   106d4:	00050863          	beq	a0,zero,106e4 <_start+0x3c>
   106d8:	00006517          	auipc	a0,0x6
   106dc:	fd050513          	addi	a0,a0,-48 # 166a8 <__libc_fini_array>
   106e0:	530010ef          	jal	ra,11c10 <atexit>
   106e4:	288010ef          	jal	ra,1196c <__libc_init_array>
   106e8:	00012503          	lw	a0,0(sp)
   106ec:	00410593          	addi	a1,sp,4
   106f0:	00000613          	addi	a2,zero,0
   106f4:	9edff0ef          	jal	ra,100e0 <main>
   106f8:	9bdff06f          	jal	zero,100b4 <exit>

000106fc <__do_global_dtors_aux>:
__do_global_dtors_aux():
   106fc:	ff010113          	addi	sp,sp,-16
   10700:	00812423          	sw	s0,8(sp)
   10704:	8a81c783          	lbu	a5,-1880(gp) # 6d760 <completed.1>
   10708:	00112623          	sw	ra,12(sp)
   1070c:	02079263          	bne	a5,zero,10730 <__do_global_dtors_aux+0x34>
   10710:	00000793          	addi	a5,zero,0
   10714:	00078a63          	beq	a5,zero,10728 <__do_global_dtors_aux+0x2c>
   10718:	0006d537          	lui	a0,0x6d
   1071c:	9dc50513          	addi	a0,a0,-1572 # 6c9dc <__EH_FRAME_BEGIN__>
   10720:	00000097          	auipc	ra,0x0
   10724:	000000e7          	jalr	ra,0(zero) # 0 <exit-0x100b4>
   10728:	00100793          	addi	a5,zero,1
   1072c:	8af18423          	sb	a5,-1880(gp) # 6d760 <completed.1>
   10730:	00c12083          	lw	ra,12(sp)
   10734:	00812403          	lw	s0,8(sp)
   10738:	01010113          	addi	sp,sp,16
   1073c:	00008067          	jalr	zero,0(ra) # 10720 <__do_global_dtors_aux+0x24>

00010740 <frame_dummy>:
frame_dummy():
   10740:	00000793          	addi	a5,zero,0
   10744:	00078c63          	beq	a5,zero,1075c <frame_dummy+0x1c>
   10748:	0006d537          	lui	a0,0x6d
   1074c:	8ac18593          	addi	a1,gp,-1876 # 6d764 <object.0>
   10750:	9dc50513          	addi	a0,a0,-1572 # 6c9dc <__EH_FRAME_BEGIN__>
   10754:	00000317          	auipc	t1,0x0
   10758:	00000067          	jalr	zero,0(zero) # 0 <exit-0x100b4>
   1075c:	00008067          	jalr	zero,0(ra)

00010760 <insertR>:
insertR():
   10760:	00954803          	lbu	a6,9(a0)
   10764:	0005a883          	lw	a7,0(a1)
   10768:	00050313          	addi	t1,a0,0
   1076c:	00058793          	addi	a5,a1,0
   10770:	00060713          	addi	a4,a2,0
   10774:	06c85c63          	bge	a6,a2,107ec <insertR+0x8c>
   10778:	0096c683          	lbu	a3,9(a3)
   1077c:	0706f863          	bgeu	a3,a6,107ec <insertR+0x8c>
   10780:	80000537          	lui	a0,0x80000
   10784:	fe010113          	addi	sp,sp,-32
   10788:	010556b3          	srl	a3,a0,a6
   1078c:	00112e23          	sw	ra,28(sp)
   10790:	0116f6b3          	and	a3,a3,a7
   10794:	08068463          	beq	a3,zero,1081c <insertR+0xbc>
   10798:	01032683          	lw	a3,16(t1) # 10764 <insertR+0x4>
   1079c:	0096ce03          	lbu	t3,9(a3)
   107a0:	0ece5e63          	bge	t3,a2,1089c <insertR+0x13c>
   107a4:	0fc87c63          	bgeu	a6,t3,1089c <insertR+0x13c>
   107a8:	01c55533          	srl	a0,a0,t3
   107ac:	01157533          	and	a0,a0,a7
   107b0:	00612623          	sw	t1,12(sp)
   107b4:	10050c63          	beq	a0,zero,108cc <insertR+0x16c>
   107b8:	0106a503          	lw	a0,16(a3)
   107bc:	00d12423          	sw	a3,8(sp)
   107c0:	00000097          	auipc	ra,0x0
   107c4:	fa0080e7          	jalr	ra,-96(ra) # 10760 <insertR>
   107c8:	00812683          	lw	a3,8(sp)
   107cc:	00c12303          	lw	t1,12(sp)
   107d0:	00a6a823          	sw	a0,16(a3)
   107d4:	00068793          	addi	a5,a3,0
   107d8:	00f32823          	sw	a5,16(t1)
   107dc:	01c12083          	lw	ra,28(sp)
   107e0:	00030513          	addi	a0,t1,0
   107e4:	02010113          	addi	sp,sp,32
   107e8:	00008067          	jalr	zero,0(ra)
   107ec:	800006b7          	lui	a3,0x80000
   107f0:	00e6d6b3          	srl	a3,a3,a4
   107f4:	00e784a3          	sb	a4,9(a5)
   107f8:	0116f733          	and	a4,a3,a7
   107fc:	00078693          	addi	a3,a5,0
   10800:	00070663          	beq	a4,zero,1080c <insertR+0xac>
   10804:	00030693          	addi	a3,t1,0
   10808:	00078313          	addi	t1,a5,0
   1080c:	00d7a623          	sw	a3,12(a5)
   10810:	0067a823          	sw	t1,16(a5)
   10814:	00078513          	addi	a0,a5,0
   10818:	00008067          	jalr	zero,0(ra)
   1081c:	00c32683          	lw	a3,12(t1)
   10820:	0096ce03          	lbu	t3,9(a3) # 80000009 <__BSS_END__+0x7ff11719>
   10824:	04ce5663          	bge	t3,a2,10870 <insertR+0x110>
   10828:	05c87463          	bgeu	a6,t3,10870 <insertR+0x110>
   1082c:	01c55533          	srl	a0,a0,t3
   10830:	01157533          	and	a0,a0,a7
   10834:	00612623          	sw	t1,12(sp)
   10838:	0a050c63          	beq	a0,zero,108f0 <insertR+0x190>
   1083c:	0106a503          	lw	a0,16(a3)
   10840:	00d12423          	sw	a3,8(sp)
   10844:	00000097          	auipc	ra,0x0
   10848:	f1c080e7          	jalr	ra,-228(ra) # 10760 <insertR>
   1084c:	00812683          	lw	a3,8(sp)
   10850:	00c12303          	lw	t1,12(sp)
   10854:	00a6a823          	sw	a0,16(a3)
   10858:	00068793          	addi	a5,a3,0
   1085c:	01c12083          	lw	ra,28(sp)
   10860:	00f32623          	sw	a5,12(t1)
   10864:	00030513          	addi	a0,t1,0
   10868:	02010113          	addi	sp,sp,32
   1086c:	00008067          	jalr	zero,0(ra)
   10870:	80000637          	lui	a2,0x80000
   10874:	00e65633          	srl	a2,a2,a4
   10878:	00e784a3          	sb	a4,9(a5)
   1087c:	01167733          	and	a4,a2,a7
   10880:	00078613          	addi	a2,a5,0
   10884:	00071663          	bne	a4,zero,10890 <insertR+0x130>
   10888:	00068613          	addi	a2,a3,0
   1088c:	00078693          	addi	a3,a5,0
   10890:	00d7a623          	sw	a3,12(a5)
   10894:	00c7a823          	sw	a2,16(a5)
   10898:	fc5ff06f          	jal	zero,1085c <insertR+0xfc>
   1089c:	80000637          	lui	a2,0x80000
   108a0:	00e65633          	srl	a2,a2,a4
   108a4:	00e784a3          	sb	a4,9(a5)
   108a8:	01167733          	and	a4,a2,a7
   108ac:	00078613          	addi	a2,a5,0
   108b0:	00071663          	bne	a4,zero,108bc <insertR+0x15c>
   108b4:	00068613          	addi	a2,a3,0
   108b8:	00078693          	addi	a3,a5,0
   108bc:	00d7a623          	sw	a3,12(a5)
   108c0:	00c7a823          	sw	a2,16(a5)
   108c4:	00f32823          	sw	a5,16(t1)
   108c8:	f15ff06f          	jal	zero,107dc <insertR+0x7c>
   108cc:	00c6a503          	lw	a0,12(a3)
   108d0:	00d12423          	sw	a3,8(sp)
   108d4:	00000097          	auipc	ra,0x0
   108d8:	e8c080e7          	jalr	ra,-372(ra) # 10760 <insertR>
   108dc:	00812683          	lw	a3,8(sp)
   108e0:	00c12303          	lw	t1,12(sp)
   108e4:	00a6a623          	sw	a0,12(a3)
   108e8:	00068793          	addi	a5,a3,0
   108ec:	eedff06f          	jal	zero,107d8 <insertR+0x78>
   108f0:	00c6a503          	lw	a0,12(a3)
   108f4:	00d12423          	sw	a3,8(sp)
   108f8:	00000097          	auipc	ra,0x0
   108fc:	e68080e7          	jalr	ra,-408(ra) # 10760 <insertR>
   10900:	00812683          	lw	a3,8(sp)
   10904:	00c12303          	lw	t1,12(sp)
   10908:	00a6a623          	sw	a0,12(a3)
   1090c:	00068793          	addi	a5,a3,0
   10910:	f4dff06f          	jal	zero,1085c <insertR+0xfc>

00010914 <pat_insert>:
pat_insert():
   10914:	1c058063          	beq	a1,zero,10ad4 <pat_insert+0x1c0>
   10918:	1a050e63          	beq	a0,zero,10ad4 <pat_insert+0x1c0>
   1091c:	00452603          	lw	a2,4(a0) # 80000004 <__BSS_END__+0x7ff11714>
   10920:	1a060c63          	beq	a2,zero,10ad8 <pat_insert+0x1c4>
   10924:	00062883          	lw	a7,0(a2) # 80000000 <__BSS_END__+0x7ff11710>
   10928:	00052303          	lw	t1,0(a0)
   1092c:	80000837          	lui	a6,0x80000
   10930:	00058713          	addi	a4,a1,0
   10934:	0068f333          	and	t1,a7,t1
   10938:	00652023          	sw	t1,0(a0)
   1093c:	0095ce03          	lbu	t3,9(a1)
   10940:	000e0693          	addi	a3,t3,0 # 80000000 <__BSS_END__+0x7ff11710>
   10944:	00d857b3          	srl	a5,a6,a3
   10948:	0067f7b3          	and	a5,a5,t1
   1094c:	02078063          	beq	a5,zero,1096c <pat_insert+0x58>
   10950:	01072703          	lw	a4,16(a4)
   10954:	00974783          	lbu	a5,9(a4)
   10958:	02f6f063          	bgeu	a3,a5,10978 <pat_insert+0x64>
   1095c:	00078693          	addi	a3,a5,0
   10960:	00d857b3          	srl	a5,a6,a3
   10964:	0067f7b3          	and	a5,a5,t1
   10968:	fe0794e3          	bne	a5,zero,10950 <pat_insert+0x3c>
   1096c:	00c72703          	lw	a4,12(a4)
   10970:	00974783          	lbu	a5,9(a4)
   10974:	fef6e4e3          	bltu	a3,a5,1095c <pat_insert+0x48>
   10978:	00072683          	lw	a3,0(a4)
   1097c:	16d30263          	beq	t1,a3,10ae0 <pat_insert+0x1cc>
   10980:	fe010113          	addi	sp,sp,-32
   10984:	00d346b3          	xor	a3,t1,a3
   10988:	00112e23          	sw	ra,28(sp)
   1098c:	00169793          	slli	a5,a3,0x1
   10990:	00100613          	addi	a2,zero,1
   10994:	02000813          	addi	a6,zero,32
   10998:	800008b7          	lui	a7,0x80000
   1099c:	3e07c063          	blt	a5,zero,10d7c <pat_insert+0x468>
   109a0:	00160613          	addi	a2,a2,1
   109a4:	00c8d7b3          	srl	a5,a7,a2
   109a8:	00d7f733          	and	a4,a5,a3
   109ac:	1d060463          	beq	a2,a6,10b74 <pat_insert+0x260>
   109b0:	fe0708e3          	beq	a4,zero,109a0 <pat_insert+0x8c>
   109b4:	00058713          	addi	a4,a1,0
   109b8:	800005b7          	lui	a1,0x80000
   109bc:	01c5d6b3          	srl	a3,a1,t3
   109c0:	0066f6b3          	and	a3,a3,t1
   109c4:	00050813          	addi	a6,a0,0
   109c8:	08068463          	beq	a3,zero,10a50 <pat_insert+0x13c>
   109cc:	01072883          	lw	a7,16(a4)
   109d0:	0098c503          	lbu	a0,9(a7) # 80000009 <__BSS_END__+0x7ff11719>
   109d4:	14c55663          	bge	a0,a2,10b20 <pat_insert+0x20c>
   109d8:	14ae7463          	bgeu	t3,a0,10b20 <pat_insert+0x20c>
   109dc:	00a5d6b3          	srl	a3,a1,a0
   109e0:	0066f6b3          	and	a3,a3,t1
   109e4:	36068263          	beq	a3,zero,10d48 <pat_insert+0x434>
   109e8:	0108a683          	lw	a3,16(a7)
   109ec:	0096ce03          	lbu	t3,9(a3)
   109f0:	3cce5063          	bge	t3,a2,10db0 <pat_insert+0x49c>
   109f4:	3bc57e63          	bgeu	a0,t3,10db0 <pat_insert+0x49c>
   109f8:	01c5d7b3          	srl	a5,a1,t3
   109fc:	0067f7b3          	and	a5,a5,t1
   10a00:	00e12623          	sw	a4,12(sp)
   10a04:	01112423          	sw	a7,8(sp)
   10a08:	48078263          	beq	a5,zero,10e8c <pat_insert+0x578>
   10a0c:	0106a503          	lw	a0,16(a3)
   10a10:	00080593          	addi	a1,a6,0 # 80000000 <__BSS_END__+0x7ff11710>
   10a14:	00d12223          	sw	a3,4(sp)
   10a18:	01012023          	sw	a6,0(sp)
   10a1c:	00000097          	auipc	ra,0x0
   10a20:	d44080e7          	jalr	ra,-700(ra) # 10760 <insertR>
   10a24:	00412683          	lw	a3,4(sp)
   10a28:	00812883          	lw	a7,8(sp)
   10a2c:	00012803          	lw	a6,0(sp)
   10a30:	00c12703          	lw	a4,12(sp)
   10a34:	00a6a823          	sw	a0,16(a3)
   10a38:	00d8a823          	sw	a3,16(a7)
   10a3c:	01c12083          	lw	ra,28(sp)
   10a40:	01172823          	sw	a7,16(a4)
   10a44:	00080513          	addi	a0,a6,0
   10a48:	02010113          	addi	sp,sp,32
   10a4c:	00008067          	jalr	zero,0(ra)
   10a50:	00c72883          	lw	a7,12(a4)
   10a54:	0098c503          	lbu	a0,9(a7)
   10a58:	0ec55863          	bge	a0,a2,10b48 <pat_insert+0x234>
   10a5c:	0eae7663          	bgeu	t3,a0,10b48 <pat_insert+0x234>
   10a60:	00a5d6b3          	srl	a3,a1,a0
   10a64:	0066f6b3          	and	a3,a3,t1
   10a68:	28068263          	beq	a3,zero,10cec <pat_insert+0x3d8>
   10a6c:	0108a683          	lw	a3,16(a7)
   10a70:	0096ce03          	lbu	t3,9(a3)
   10a74:	30ce5863          	bge	t3,a2,10d84 <pat_insert+0x470>
   10a78:	31c57663          	bgeu	a0,t3,10d84 <pat_insert+0x470>
   10a7c:	01c5d7b3          	srl	a5,a1,t3
   10a80:	0067f7b3          	and	a5,a5,t1
   10a84:	00e12623          	sw	a4,12(sp)
   10a88:	01112423          	sw	a7,8(sp)
   10a8c:	42078a63          	beq	a5,zero,10ec0 <pat_insert+0x5ac>
   10a90:	0106a503          	lw	a0,16(a3)
   10a94:	00080593          	addi	a1,a6,0
   10a98:	00d12223          	sw	a3,4(sp)
   10a9c:	01012023          	sw	a6,0(sp)
   10aa0:	00000097          	auipc	ra,0x0
   10aa4:	cc0080e7          	jalr	ra,-832(ra) # 10760 <insertR>
   10aa8:	00412683          	lw	a3,4(sp)
   10aac:	00812883          	lw	a7,8(sp)
   10ab0:	00012803          	lw	a6,0(sp)
   10ab4:	00c12703          	lw	a4,12(sp)
   10ab8:	00a6a823          	sw	a0,16(a3)
   10abc:	00d8a823          	sw	a3,16(a7)
   10ac0:	01172623          	sw	a7,12(a4)
   10ac4:	01c12083          	lw	ra,28(sp)
   10ac8:	00080513          	addi	a0,a6,0
   10acc:	02010113          	addi	sp,sp,32
   10ad0:	00008067          	jalr	zero,0(ra)
   10ad4:	00000613          	addi	a2,zero,0
   10ad8:	00060513          	addi	a0,a2,0
   10adc:	00008067          	jalr	zero,0(ra)
   10ae0:	00874583          	lbu	a1,8(a4)
   10ae4:	32058663          	beq	a1,zero,10e10 <pat_insert+0x4fc>
   10ae8:	00472683          	lw	a3,4(a4)
   10aec:	00000793          	addi	a5,zero,0
   10af0:	00068813          	addi	a6,a3,0
   10af4:	00c0006f          	jal	zero,10b00 <pat_insert+0x1ec>
   10af8:	00880813          	addi	a6,a6,8
   10afc:	08b78c63          	beq	a5,a1,10b94 <pat_insert+0x280>
   10b00:	00082303          	lw	t1,0(a6)
   10b04:	00178793          	addi	a5,a5,1
   10b08:	fe6898e3          	bne	a7,t1,10af8 <pat_insert+0x1e4>
   10b0c:	00462783          	lw	a5,4(a2)
   10b10:	00070613          	addi	a2,a4,0
   10b14:	00f82223          	sw	a5,4(a6)
   10b18:	00060513          	addi	a0,a2,0
   10b1c:	00008067          	jalr	zero,0(ra)
   10b20:	00c804a3          	sb	a2,9(a6)
   10b24:	00f377b3          	and	a5,t1,a5
   10b28:	00080693          	addi	a3,a6,0
   10b2c:	00078663          	beq	a5,zero,10b38 <pat_insert+0x224>
   10b30:	00088693          	addi	a3,a7,0
   10b34:	00080893          	addi	a7,a6,0
   10b38:	01182823          	sw	a7,16(a6)
   10b3c:	00d82623          	sw	a3,12(a6)
   10b40:	00080893          	addi	a7,a6,0
   10b44:	ef9ff06f          	jal	zero,10a3c <pat_insert+0x128>
   10b48:	00c804a3          	sb	a2,9(a6)
   10b4c:	00f377b3          	and	a5,t1,a5
   10b50:	00080693          	addi	a3,a6,0
   10b54:	00079663          	bne	a5,zero,10b60 <pat_insert+0x24c>
   10b58:	00088693          	addi	a3,a7,0
   10b5c:	00080893          	addi	a7,a6,0
   10b60:	01182623          	sw	a7,12(a6)
   10b64:	00d82823          	sw	a3,16(a6)
   10b68:	00080893          	addi	a7,a6,0
   10b6c:	01172623          	sw	a7,12(a4)
   10b70:	f55ff06f          	jal	zero,10ac4 <pat_insert+0x1b0>
   10b74:	00058713          	addi	a4,a1,0 # 80000000 <__BSS_END__+0x7ff11710>
   10b78:	800005b7          	lui	a1,0x80000
   10b7c:	01c5d6b3          	srl	a3,a1,t3
   10b80:	0066f6b3          	and	a3,a3,t1
   10b84:	00000793          	addi	a5,zero,0
   10b88:	00050813          	addi	a6,a0,0
   10b8c:	ec0682e3          	beq	a3,zero,10a50 <pat_insert+0x13c>
   10b90:	e3dff06f          	jal	zero,109cc <pat_insert+0xb8>
   10b94:	0006d337          	lui	t1,0x6d
   10b98:	73432583          	lw	a1,1844(t1) # 6d734 <mask_count>
   10b9c:	00178793          	addi	a5,a5,1
   10ba0:	00003837          	lui	a6,0x3
   10ba4:	00b787b3          	add	a5,a5,a1
   10ba8:	ee080813          	addi	a6,a6,-288 # 2ee0 <exit-0xd1d4>
   10bac:	24f84e63          	blt	a6,a5,10e08 <pat_insert+0x4f4>
   10bb0:	0009c837          	lui	a6,0x9c
   10bb4:	00359593          	slli	a1,a1,0x3
   10bb8:	58080813          	addi	a6,a6,1408 # 9c580 <static_masks>
   10bbc:	72f32a23          	sw	a5,1844(t1)
   10bc0:	01058e33          	add	t3,a1,a6
   10bc4:	000e0793          	addi	a5,t3,0
   10bc8:	00000e93          	addi	t4,zero,0
   10bcc:	00000593          	addi	a1,zero,0
   10bd0:	00000313          	addi	t1,zero,0
   10bd4:	fff00f13          	addi	t5,zero,-1
   10bd8:	0640006f          	jal	zero,10c3c <pat_insert+0x328>
   10bdc:	00064683          	lbu	a3,0(a2)
   10be0:	00100e93          	addi	t4,zero,1
   10be4:	00878793          	addi	a5,a5,8
   10be8:	fed78c23          	sb	a3,-8(a5)
   10bec:	00164683          	lbu	a3,1(a2)
   10bf0:	fed78ca3          	sb	a3,-7(a5)
   10bf4:	00264683          	lbu	a3,2(a2)
   10bf8:	fed78d23          	sb	a3,-6(a5)
   10bfc:	00364683          	lbu	a3,3(a2)
   10c00:	fed78da3          	sb	a3,-5(a5)
   10c04:	00464683          	lbu	a3,4(a2)
   10c08:	fed78e23          	sb	a3,-4(a5)
   10c0c:	00564683          	lbu	a3,5(a2)
   10c10:	fed78ea3          	sb	a3,-3(a5)
   10c14:	00664683          	lbu	a3,6(a2)
   10c18:	fed78f23          	sb	a3,-2(a5)
   10c1c:	00764683          	lbu	a3,7(a2)
   10c20:	fed78fa3          	sb	a3,-1(a5)
   10c24:	00452603          	lw	a2,4(a0)
   10c28:	01e62023          	sw	t5,0(a2)
   10c2c:	00874683          	lbu	a3,8(a4)
   10c30:	0ad5d463          	bge	a1,a3,10cd8 <pat_insert+0x3c4>
   10c34:	00472683          	lw	a3,4(a4)
   10c38:	00062883          	lw	a7,0(a2)
   10c3c:	006686b3          	add	a3,a3,t1
   10c40:	0006a803          	lw	a6,0(a3)
   10c44:	f9187ce3          	bgeu	a6,a7,10bdc <pat_insert+0x2c8>
   10c48:	0006c603          	lbu	a2,0(a3)
   10c4c:	00158593          	addi	a1,a1,1 # 80000001 <__BSS_END__+0x7ff11711>
   10c50:	00359313          	slli	t1,a1,0x3
   10c54:	00c78023          	sb	a2,0(a5)
   10c58:	0016c603          	lbu	a2,1(a3)
   10c5c:	00878793          	addi	a5,a5,8
   10c60:	fec78ca3          	sb	a2,-7(a5)
   10c64:	0026c603          	lbu	a2,2(a3)
   10c68:	fec78d23          	sb	a2,-6(a5)
   10c6c:	0036c603          	lbu	a2,3(a3)
   10c70:	fec78da3          	sb	a2,-5(a5)
   10c74:	0046c603          	lbu	a2,4(a3)
   10c78:	fec78e23          	sb	a2,-4(a5)
   10c7c:	0056c603          	lbu	a2,5(a3)
   10c80:	fec78ea3          	sb	a2,-3(a5)
   10c84:	0066c603          	lbu	a2,6(a3)
   10c88:	fec78f23          	sb	a2,-2(a5)
   10c8c:	0076c683          	lbu	a3,7(a3)
   10c90:	fed78fa3          	sb	a3,-1(a5)
   10c94:	00874683          	lbu	a3,8(a4)
   10c98:	00d5d663          	bge	a1,a3,10ca4 <pat_insert+0x390>
   10c9c:	00452603          	lw	a2,4(a0)
   10ca0:	f95ff06f          	jal	zero,10c34 <pat_insert+0x320>
   10ca4:	020e9a63          	bne	t4,zero,10cd8 <pat_insert+0x3c4>
   10ca8:	00452603          	lw	a2,4(a0)
   10cac:	fff78693          	addi	a3,a5,-1
   10cb0:	40c686b3          	sub	a3,a3,a2
   10cb4:	0036b693          	sltiu	a3,a3,3
   10cb8:	18069663          	bne	a3,zero,10e44 <pat_insert+0x530>
   10cbc:	00367693          	andi	a3,a2,3
   10cc0:	18069263          	bne	a3,zero,10e44 <pat_insert+0x530>
   10cc4:	00062683          	lw	a3,0(a2)
   10cc8:	00d7a023          	sw	a3,0(a5)
   10ccc:	00462683          	lw	a3,4(a2)
   10cd0:	00d7a223          	sw	a3,4(a5)
   10cd4:	00874683          	lbu	a3,8(a4)
   10cd8:	00168693          	addi	a3,a3,1
   10cdc:	00d70423          	sb	a3,8(a4)
   10ce0:	01c72223          	sw	t3,4(a4)
   10ce4:	00070613          	addi	a2,a4,0
   10ce8:	e31ff06f          	jal	zero,10b18 <pat_insert+0x204>
   10cec:	00c8a683          	lw	a3,12(a7)
   10cf0:	0096ce03          	lbu	t3,9(a3)
   10cf4:	0ece5463          	bge	t3,a2,10ddc <pat_insert+0x4c8>
   10cf8:	0fc57263          	bgeu	a0,t3,10ddc <pat_insert+0x4c8>
   10cfc:	01c5d7b3          	srl	a5,a1,t3
   10d00:	0067f7b3          	and	a5,a5,t1
   10d04:	00e12623          	sw	a4,12(sp)
   10d08:	01112423          	sw	a7,8(sp)
   10d0c:	1e078463          	beq	a5,zero,10ef4 <pat_insert+0x5e0>
   10d10:	0106a503          	lw	a0,16(a3)
   10d14:	00080593          	addi	a1,a6,0
   10d18:	00d12223          	sw	a3,4(sp)
   10d1c:	01012023          	sw	a6,0(sp)
   10d20:	00000097          	auipc	ra,0x0
   10d24:	a40080e7          	jalr	ra,-1472(ra) # 10760 <insertR>
   10d28:	00412683          	lw	a3,4(sp)
   10d2c:	00812883          	lw	a7,8(sp)
   10d30:	00012803          	lw	a6,0(sp)
   10d34:	00c12703          	lw	a4,12(sp)
   10d38:	00a6a823          	sw	a0,16(a3)
   10d3c:	00d8a623          	sw	a3,12(a7)
   10d40:	01172623          	sw	a7,12(a4)
   10d44:	d81ff06f          	jal	zero,10ac4 <pat_insert+0x1b0>
   10d48:	00c8a503          	lw	a0,12(a7)
   10d4c:	00088693          	addi	a3,a7,0
   10d50:	00080593          	addi	a1,a6,0
   10d54:	00e12423          	sw	a4,8(sp)
   10d58:	01112223          	sw	a7,4(sp)
   10d5c:	01012023          	sw	a6,0(sp)
   10d60:	00000097          	auipc	ra,0x0
   10d64:	a00080e7          	jalr	ra,-1536(ra) # 10760 <insertR>
   10d68:	00412883          	lw	a7,4(sp)
   10d6c:	00812703          	lw	a4,8(sp)
   10d70:	00012803          	lw	a6,0(sp)
   10d74:	00a8a623          	sw	a0,12(a7)
   10d78:	cc5ff06f          	jal	zero,10a3c <pat_insert+0x128>
   10d7c:	400007b7          	lui	a5,0x40000
   10d80:	c35ff06f          	jal	zero,109b4 <pat_insert+0xa0>
   10d84:	00c804a3          	sb	a2,9(a6)
   10d88:	00f377b3          	and	a5,t1,a5
   10d8c:	00080613          	addi	a2,a6,0
   10d90:	00079663          	bne	a5,zero,10d9c <pat_insert+0x488>
   10d94:	00068613          	addi	a2,a3,0
   10d98:	00080693          	addi	a3,a6,0
   10d9c:	00d82623          	sw	a3,12(a6)
   10da0:	00c82823          	sw	a2,16(a6)
   10da4:	00080693          	addi	a3,a6,0
   10da8:	00d8a823          	sw	a3,16(a7)
   10dac:	d15ff06f          	jal	zero,10ac0 <pat_insert+0x1ac>
   10db0:	00c804a3          	sb	a2,9(a6)
   10db4:	00f377b3          	and	a5,t1,a5
   10db8:	00080613          	addi	a2,a6,0
   10dbc:	00079663          	bne	a5,zero,10dc8 <pat_insert+0x4b4>
   10dc0:	00068613          	addi	a2,a3,0
   10dc4:	00080693          	addi	a3,a6,0
   10dc8:	00d82623          	sw	a3,12(a6)
   10dcc:	00c82823          	sw	a2,16(a6)
   10dd0:	00080693          	addi	a3,a6,0
   10dd4:	00d8a823          	sw	a3,16(a7)
   10dd8:	c65ff06f          	jal	zero,10a3c <pat_insert+0x128>
   10ddc:	00c804a3          	sb	a2,9(a6)
   10de0:	00f377b3          	and	a5,t1,a5
   10de4:	00080613          	addi	a2,a6,0
   10de8:	00079663          	bne	a5,zero,10df4 <pat_insert+0x4e0>
   10dec:	00068613          	addi	a2,a3,0
   10df0:	00080693          	addi	a3,a6,0
   10df4:	00d82623          	sw	a3,12(a6)
   10df8:	00c82823          	sw	a2,16(a6)
   10dfc:	00080693          	addi	a3,a6,0
   10e00:	00d8a623          	sw	a3,12(a7)
   10e04:	f3dff06f          	jal	zero,10d40 <pat_insert+0x42c>
   10e08:	00000e13          	addi	t3,zero,0
   10e0c:	db9ff06f          	jal	zero,10bc4 <pat_insert+0x2b0>
   10e10:	0006d5b7          	lui	a1,0x6d
   10e14:	7345a683          	lw	a3,1844(a1) # 6d734 <mask_count>
   10e18:	000037b7          	lui	a5,0x3
   10e1c:	ee078793          	addi	a5,a5,-288 # 2ee0 <exit-0xd1d4>
   10e20:	00168513          	addi	a0,a3,1
   10e24:	10a7c263          	blt	a5,a0,10f28 <pat_insert+0x614>
   10e28:	0009c837          	lui	a6,0x9c
   10e2c:	00369793          	slli	a5,a3,0x3
   10e30:	58080693          	addi	a3,a6,1408 # 9c580 <static_masks>
   10e34:	00d787b3          	add	a5,a5,a3
   10e38:	72a5aa23          	sw	a0,1844(a1)
   10e3c:	00078e13          	addi	t3,a5,0
   10e40:	e6dff06f          	jal	zero,10cac <pat_insert+0x398>
   10e44:	00064683          	lbu	a3,0(a2)
   10e48:	00d78023          	sb	a3,0(a5)
   10e4c:	00164683          	lbu	a3,1(a2)
   10e50:	00d780a3          	sb	a3,1(a5)
   10e54:	00264683          	lbu	a3,2(a2)
   10e58:	00d78123          	sb	a3,2(a5)
   10e5c:	00364683          	lbu	a3,3(a2)
   10e60:	00d781a3          	sb	a3,3(a5)
   10e64:	00464683          	lbu	a3,4(a2)
   10e68:	00d78223          	sb	a3,4(a5)
   10e6c:	00564683          	lbu	a3,5(a2)
   10e70:	00d782a3          	sb	a3,5(a5)
   10e74:	00664683          	lbu	a3,6(a2)
   10e78:	00d78323          	sb	a3,6(a5)
   10e7c:	00764683          	lbu	a3,7(a2)
   10e80:	00d783a3          	sb	a3,7(a5)
   10e84:	00874683          	lbu	a3,8(a4)
   10e88:	e51ff06f          	jal	zero,10cd8 <pat_insert+0x3c4>
   10e8c:	00c6a503          	lw	a0,12(a3)
   10e90:	00080593          	addi	a1,a6,0
   10e94:	00d12223          	sw	a3,4(sp)
   10e98:	01012023          	sw	a6,0(sp)
   10e9c:	00000097          	auipc	ra,0x0
   10ea0:	8c4080e7          	jalr	ra,-1852(ra) # 10760 <insertR>
   10ea4:	00412683          	lw	a3,4(sp)
   10ea8:	00812883          	lw	a7,8(sp)
   10eac:	00c12703          	lw	a4,12(sp)
   10eb0:	00a6a623          	sw	a0,12(a3)
   10eb4:	00012803          	lw	a6,0(sp)
   10eb8:	00d8a823          	sw	a3,16(a7)
   10ebc:	b81ff06f          	jal	zero,10a3c <pat_insert+0x128>
   10ec0:	00c6a503          	lw	a0,12(a3)
   10ec4:	00080593          	addi	a1,a6,0
   10ec8:	00d12223          	sw	a3,4(sp)
   10ecc:	01012023          	sw	a6,0(sp)
   10ed0:	00000097          	auipc	ra,0x0
   10ed4:	890080e7          	jalr	ra,-1904(ra) # 10760 <insertR>
   10ed8:	00412683          	lw	a3,4(sp)
   10edc:	00812883          	lw	a7,8(sp)
   10ee0:	00c12703          	lw	a4,12(sp)
   10ee4:	00a6a623          	sw	a0,12(a3)
   10ee8:	00012803          	lw	a6,0(sp)
   10eec:	00d8a823          	sw	a3,16(a7)
   10ef0:	bd1ff06f          	jal	zero,10ac0 <pat_insert+0x1ac>
   10ef4:	00c6a503          	lw	a0,12(a3)
   10ef8:	00080593          	addi	a1,a6,0
   10efc:	00d12223          	sw	a3,4(sp)
   10f00:	01012023          	sw	a6,0(sp)
   10f04:	00000097          	auipc	ra,0x0
   10f08:	85c080e7          	jalr	ra,-1956(ra) # 10760 <insertR>
   10f0c:	00412683          	lw	a3,4(sp)
   10f10:	00812883          	lw	a7,8(sp)
   10f14:	00c12703          	lw	a4,12(sp)
   10f18:	00a6a623          	sw	a0,12(a3)
   10f1c:	00012803          	lw	a6,0(sp)
   10f20:	00d8a623          	sw	a3,12(a7)
   10f24:	e1dff06f          	jal	zero,10d40 <pat_insert+0x42c>
   10f28:	00000793          	addi	a5,zero,0
   10f2c:	00078e13          	addi	t3,a5,0
   10f30:	d7dff06f          	jal	zero,10cac <pat_insert+0x398>

00010f34 <pat_remove>:
pat_remove():
   10f34:	00050463          	beq	a0,zero,10f3c <pat_remove+0x8>
   10f38:	00000513          	addi	a0,zero,0
   10f3c:	00008067          	jalr	zero,0(ra)

00010f40 <pat_search>:
pat_search():
   10f40:	00050613          	addi	a2,a0,0
   10f44:	08058863          	beq	a1,zero,10fd4 <pat_search+0x94>
   10f48:	0045a703          	lw	a4,4(a1)
   10f4c:	0095c683          	lbu	a3,9(a1)
   10f50:	0005a803          	lw	a6,0(a1)
   10f54:	00072703          	lw	a4,0(a4)
   10f58:	800008b7          	lui	a7,0x80000
   10f5c:	00d8d7b3          	srl	a5,a7,a3
   10f60:	00e67733          	and	a4,a2,a4
   10f64:	00000513          	addi	a0,zero,0
   10f68:	00c7f7b3          	and	a5,a5,a2
   10f6c:	03070a63          	beq	a4,a6,10fa0 <pat_search+0x60>
   10f70:	02078c63          	beq	a5,zero,10fa8 <pat_search+0x68>
   10f74:	0105a583          	lw	a1,16(a1)
   10f78:	0095c783          	lbu	a5,9(a1)
   10f7c:	02f6fc63          	bgeu	a3,a5,10fb4 <pat_search+0x74>
   10f80:	0045a703          	lw	a4,4(a1)
   10f84:	0005a803          	lw	a6,0(a1)
   10f88:	00078693          	addi	a3,a5,0
   10f8c:	00072703          	lw	a4,0(a4)
   10f90:	00d8d7b3          	srl	a5,a7,a3
   10f94:	00c7f7b3          	and	a5,a5,a2
   10f98:	00e67733          	and	a4,a2,a4
   10f9c:	fd071ae3          	bne	a4,a6,10f70 <pat_search+0x30>
   10fa0:	00058513          	addi	a0,a1,0
   10fa4:	fc0798e3          	bne	a5,zero,10f74 <pat_search+0x34>
   10fa8:	00c5a583          	lw	a1,12(a1)
   10fac:	0095c783          	lbu	a5,9(a1)
   10fb0:	fcf6e8e3          	bltu	a3,a5,10f80 <pat_search+0x40>
   10fb4:	0045a703          	lw	a4,4(a1)
   10fb8:	0005a783          	lw	a5,0(a1)
   10fbc:	00072703          	lw	a4,0(a4)
   10fc0:	00e67633          	and	a2,a2,a4
   10fc4:	00c78463          	beq	a5,a2,10fcc <pat_search+0x8c>
   10fc8:	00008067          	jalr	zero,0(ra)
   10fcc:	00058513          	addi	a0,a1,0
   10fd0:	00008067          	jalr	zero,0(ra)
   10fd4:	00000513          	addi	a0,zero,0
   10fd8:	00008067          	jalr	zero,0(ra)

00010fdc <__mul>:
__mul():
   10fdc:	00050633          	add	a2,a0,zero
   10fe0:	00000513          	addi	a0,zero,0

00010fe4 <.Mul_loop>:
.Mul_loop():
   10fe4:	0015f693          	andi	a3,a1,1
   10fe8:	00068463          	beq	a3,zero,10ff0 <.Mul_skip>
   10fec:	00c50533          	add	a0,a0,a2

00010ff0 <.Mul_skip>:
.Mul_skip():
   10ff0:	0015d593          	srli	a1,a1,0x1
   10ff4:	00161613          	slli	a2,a2,0x1
   10ff8:	fe0596e3          	bne	a1,zero,10fe4 <.Mul_loop>
   10ffc:	00008067          	jalr	zero,0(ra)

00011000 <__riscv_div_lib_divsi3>:
__riscv_div_lib_divsi3():
   11000:	06054263          	blt	a0,zero,11064 <__riscv_div_lib_L10>
   11004:	0605c863          	blt	a1,zero,11074 <__riscv_div_lib_L11>

00011008 <__riscv_div_lib_udivsi3>:
__riscv_div_lib_udivsi3():
   11008:	00058613          	addi	a2,a1,0
   1100c:	00050593          	addi	a1,a0,0
   11010:	fff00513          	addi	a0,zero,-1
   11014:	02060c63          	beq	a2,zero,1104c <__riscv_div_lib_L5>
   11018:	00100693          	addi	a3,zero,1
   1101c:	00b67a63          	bgeu	a2,a1,11030 <__riscv_div_lib_L2>

00011020 <__riscv_div_lib_L1>:
__riscv_div_lib_L1():
   11020:	00c05863          	bge	zero,a2,11030 <__riscv_div_lib_L2>
   11024:	00161613          	slli	a2,a2,0x1
   11028:	00169693          	slli	a3,a3,0x1
   1102c:	feb66ae3          	bltu	a2,a1,11020 <__riscv_div_lib_L1>

00011030 <__riscv_div_lib_L2>:
__riscv_div_lib_L2():
   11030:	00000513          	addi	a0,zero,0

00011034 <__riscv_div_lib_L3>:
__riscv_div_lib_L3():
   11034:	00c5e663          	bltu	a1,a2,11040 <__riscv_div_lib_L4>
   11038:	40c585b3          	sub	a1,a1,a2
   1103c:	00d56533          	or	a0,a0,a3

00011040 <__riscv_div_lib_L4>:
__riscv_div_lib_L4():
   11040:	0016d693          	srli	a3,a3,0x1
   11044:	00165613          	srli	a2,a2,0x1
   11048:	fe0696e3          	bne	a3,zero,11034 <__riscv_div_lib_L3>

0001104c <__riscv_div_lib_L5>:
__riscv_div_lib_L5():
   1104c:	00008067          	jalr	zero,0(ra)

00011050 <__riscv_div_lib_umodsi3>:
__riscv_div_lib_umodsi3():
   11050:	00008293          	addi	t0,ra,0
   11054:	00000097          	auipc	ra,0x0
   11058:	fb4080e7          	jalr	ra,-76(ra) # 11008 <__riscv_div_lib_udivsi3>
   1105c:	00058513          	addi	a0,a1,0
   11060:	00028067          	jalr	zero,0(t0)

00011064 <__riscv_div_lib_L10>:
__riscv_div_lib_L10():
   11064:	40a00533          	sub	a0,zero,a0
   11068:	00b04863          	blt	zero,a1,11078 <__riscv_div_lib_L12>
   1106c:	40b005b3          	sub	a1,zero,a1
   11070:	f99ff06f          	jal	zero,11008 <__riscv_div_lib_udivsi3>

00011074 <__riscv_div_lib_L11>:
__riscv_div_lib_L11():
   11074:	40b005b3          	sub	a1,zero,a1

00011078 <__riscv_div_lib_L12>:
__riscv_div_lib_L12():
   11078:	00008293          	addi	t0,ra,0
   1107c:	00000097          	auipc	ra,0x0
   11080:	f8c080e7          	jalr	ra,-116(ra) # 11008 <__riscv_div_lib_udivsi3>
   11084:	40a00533          	sub	a0,zero,a0
   11088:	00028067          	jalr	zero,0(t0)

0001108c <__riscv_div_lib_modsi3>:
__riscv_div_lib_modsi3():
   1108c:	00008293          	addi	t0,ra,0
   11090:	0005cc63          	blt	a1,zero,110a8 <__riscv_div_lib_L31>
   11094:	00054e63          	blt	a0,zero,110b0 <__riscv_div_lib_L32>

00011098 <__riscv_div_lib_L30>:
__riscv_div_lib_L30():
   11098:	00000097          	auipc	ra,0x0
   1109c:	f70080e7          	jalr	ra,-144(ra) # 11008 <__riscv_div_lib_udivsi3>
   110a0:	00058513          	addi	a0,a1,0
   110a4:	00028067          	jalr	zero,0(t0)

000110a8 <__riscv_div_lib_L31>:
__riscv_div_lib_L31():
   110a8:	40b005b3          	sub	a1,zero,a1
   110ac:	fe0556e3          	bge	a0,zero,11098 <__riscv_div_lib_L30>

000110b0 <__riscv_div_lib_L32>:
__riscv_div_lib_L32():
   110b0:	40a00533          	sub	a0,zero,a0
   110b4:	00000097          	auipc	ra,0x0
   110b8:	f54080e7          	jalr	ra,-172(ra) # 11008 <__riscv_div_lib_udivsi3>
   110bc:	40b00533          	sub	a0,zero,a1
   110c0:	00028067          	jalr	zero,0(t0)

000110c4 <__fp_lock>:
__fp_lock():
   110c4:	00000513          	addi	a0,zero,0
   110c8:	00008067          	jalr	zero,0(ra)

000110cc <stdio_exit_handler>:
stdio_exit_handler():
   110cc:	0006d637          	lui	a2,0x6d
   110d0:	000165b7          	lui	a1,0x16
   110d4:	0006d537          	lui	a0,0x6d
   110d8:	01060613          	addi	a2,a2,16 # 6d010 <__sglue>
   110dc:	a5858593          	addi	a1,a1,-1448 # 15a58 <_fclose_r>
   110e0:	02050513          	addi	a0,a0,32 # 6d020 <_impure_data>
   110e4:	3700006f          	jal	zero,11454 <_fwalk_sglue>

000110e8 <cleanup_stdio>:
cleanup_stdio():
   110e8:	00452583          	lw	a1,4(a0)
   110ec:	ff010113          	addi	sp,sp,-16
   110f0:	000ee7b7          	lui	a5,0xee
   110f4:	00812423          	sw	s0,8(sp)
   110f8:	00112623          	sw	ra,12(sp)
   110fc:	60078793          	addi	a5,a5,1536 # ee600 <__sf>
   11100:	00050413          	addi	s0,a0,0
   11104:	00f58463          	beq	a1,a5,1110c <cleanup_stdio+0x24>
   11108:	151040ef          	jal	ra,15a58 <_fclose_r>
   1110c:	00842583          	lw	a1,8(s0)
   11110:	000ee7b7          	lui	a5,0xee
   11114:	66878793          	addi	a5,a5,1640 # ee668 <__sf+0x68>
   11118:	00f58663          	beq	a1,a5,11124 <cleanup_stdio+0x3c>
   1111c:	00040513          	addi	a0,s0,0
   11120:	139040ef          	jal	ra,15a58 <_fclose_r>
   11124:	00c42583          	lw	a1,12(s0)
   11128:	000ee7b7          	lui	a5,0xee
   1112c:	6d078793          	addi	a5,a5,1744 # ee6d0 <__sf+0xd0>
   11130:	00f58c63          	beq	a1,a5,11148 <cleanup_stdio+0x60>
   11134:	00040513          	addi	a0,s0,0
   11138:	00812403          	lw	s0,8(sp)
   1113c:	00c12083          	lw	ra,12(sp)
   11140:	01010113          	addi	sp,sp,16
   11144:	1150406f          	jal	zero,15a58 <_fclose_r>
   11148:	00c12083          	lw	ra,12(sp)
   1114c:	00812403          	lw	s0,8(sp)
   11150:	01010113          	addi	sp,sp,16
   11154:	00008067          	jalr	zero,0(ra)

00011158 <__fp_unlock>:
__fp_unlock():
   11158:	00000513          	addi	a0,zero,0
   1115c:	00008067          	jalr	zero,0(ra)

00011160 <global_stdio_init.part.0>:
global_stdio_init.part.0():
   11160:	fe010113          	addi	sp,sp,-32
   11164:	000117b7          	lui	a5,0x11
   11168:	00812c23          	sw	s0,24(sp)
   1116c:	0cc78793          	addi	a5,a5,204 # 110cc <stdio_exit_handler>
   11170:	000ee437          	lui	s0,0xee
   11174:	000ee537          	lui	a0,0xee
   11178:	60040413          	addi	s0,s0,1536 # ee600 <__sf>
   1117c:	00112e23          	sw	ra,28(sp)
   11180:	00912a23          	sw	s1,20(sp)
   11184:	01212823          	sw	s2,16(sp)
   11188:	01312623          	sw	s3,12(sp)
   1118c:	01412423          	sw	s4,8(sp)
   11190:	88f1a223          	sw	a5,-1916(gp) # 6d73c <__stdio_exit_handler>
   11194:	00800613          	addi	a2,zero,8
   11198:	00400793          	addi	a5,zero,4
   1119c:	00000593          	addi	a1,zero,0
   111a0:	65c50513          	addi	a0,a0,1628 # ee65c <__sf+0x5c>
   111a4:	00f42623          	sw	a5,12(s0)
   111a8:	00042023          	sw	zero,0(s0)
   111ac:	00042223          	sw	zero,4(s0)
   111b0:	00042423          	sw	zero,8(s0)
   111b4:	06042223          	sw	zero,100(s0)
   111b8:	00042823          	sw	zero,16(s0)
   111bc:	00042a23          	sw	zero,20(s0)
   111c0:	00042c23          	sw	zero,24(s0)
   111c4:	03d000ef          	jal	ra,11a00 <memset>
   111c8:	00011a37          	lui	s4,0x11
   111cc:	000119b7          	lui	s3,0x11
   111d0:	00011937          	lui	s2,0x11
   111d4:	000114b7          	lui	s1,0x11
   111d8:	000ee537          	lui	a0,0xee
   111dc:	000107b7          	lui	a5,0x10
   111e0:	59ca0a13          	addi	s4,s4,1436 # 1159c <__sread>
   111e4:	60098993          	addi	s3,s3,1536 # 11600 <__swrite>
   111e8:	68890913          	addi	s2,s2,1672 # 11688 <__sseek>
   111ec:	6ec48493          	addi	s1,s1,1772 # 116ec <__sclose>
   111f0:	00978793          	addi	a5,a5,9 # 10009 <exit-0xab>
   111f4:	00800613          	addi	a2,zero,8
   111f8:	00000593          	addi	a1,zero,0
   111fc:	6c450513          	addi	a0,a0,1732 # ee6c4 <__sf+0xc4>
   11200:	06f42a23          	sw	a5,116(s0)
   11204:	03442023          	sw	s4,32(s0)
   11208:	03342223          	sw	s3,36(s0)
   1120c:	03242423          	sw	s2,40(s0)
   11210:	02942623          	sw	s1,44(s0)
   11214:	00842e23          	sw	s0,28(s0)
   11218:	06042423          	sw	zero,104(s0)
   1121c:	06042623          	sw	zero,108(s0)
   11220:	06042823          	sw	zero,112(s0)
   11224:	0c042623          	sw	zero,204(s0)
   11228:	06042c23          	sw	zero,120(s0)
   1122c:	06042e23          	sw	zero,124(s0)
   11230:	08042023          	sw	zero,128(s0)
   11234:	7cc000ef          	jal	ra,11a00 <memset>
   11238:	000ee737          	lui	a4,0xee
   1123c:	000ee537          	lui	a0,0xee
   11240:	000207b7          	lui	a5,0x20
   11244:	01278793          	addi	a5,a5,18 # 20012 <__subtf3+0xa2>
   11248:	66870713          	addi	a4,a4,1640 # ee668 <__sf+0x68>
   1124c:	72c50513          	addi	a0,a0,1836 # ee72c <__sf+0x12c>
   11250:	00800613          	addi	a2,zero,8
   11254:	00000593          	addi	a1,zero,0
   11258:	09442423          	sw	s4,136(s0)
   1125c:	09342623          	sw	s3,140(s0)
   11260:	09242823          	sw	s2,144(s0)
   11264:	08942a23          	sw	s1,148(s0)
   11268:	0cf42e23          	sw	a5,220(s0)
   1126c:	0c042823          	sw	zero,208(s0)
   11270:	0c042a23          	sw	zero,212(s0)
   11274:	0c042c23          	sw	zero,216(s0)
   11278:	12042a23          	sw	zero,308(s0)
   1127c:	0e042023          	sw	zero,224(s0)
   11280:	0e042223          	sw	zero,228(s0)
   11284:	0e042423          	sw	zero,232(s0)
   11288:	08e42223          	sw	a4,132(s0)
   1128c:	774000ef          	jal	ra,11a00 <memset>
   11290:	000ee7b7          	lui	a5,0xee
   11294:	6d078793          	addi	a5,a5,1744 # ee6d0 <__sf+0xd0>
   11298:	0f442823          	sw	s4,240(s0)
   1129c:	0f342a23          	sw	s3,244(s0)
   112a0:	0f242c23          	sw	s2,248(s0)
   112a4:	0e942e23          	sw	s1,252(s0)
   112a8:	01c12083          	lw	ra,28(sp)
   112ac:	0ef42623          	sw	a5,236(s0)
   112b0:	01812403          	lw	s0,24(sp)
   112b4:	01412483          	lw	s1,20(sp)
   112b8:	01012903          	lw	s2,16(sp)
   112bc:	00c12983          	lw	s3,12(sp)
   112c0:	00812a03          	lw	s4,8(sp)
   112c4:	02010113          	addi	sp,sp,32
   112c8:	00008067          	jalr	zero,0(ra)

000112cc <__sfp>:
__sfp():
   112cc:	8841a783          	lw	a5,-1916(gp) # 6d73c <__stdio_exit_handler>
   112d0:	fe010113          	addi	sp,sp,-32
   112d4:	00912a23          	sw	s1,20(sp)
   112d8:	00112e23          	sw	ra,28(sp)
   112dc:	00812c23          	sw	s0,24(sp)
   112e0:	00050493          	addi	s1,a0,0
   112e4:	0e078e63          	beq	a5,zero,113e0 <__sfp+0x114>
   112e8:	0006d837          	lui	a6,0x6d
   112ec:	01080813          	addi	a6,a6,16 # 6d010 <__sglue>
   112f0:	fff00693          	addi	a3,zero,-1
   112f4:	00482783          	lw	a5,4(a6)
   112f8:	fff78793          	addi	a5,a5,-1
   112fc:	0807c063          	blt	a5,zero,1137c <__sfp+0xb0>
   11300:	00882403          	lw	s0,8(a6)
   11304:	00c0006f          	jal	zero,11310 <__sfp+0x44>
   11308:	06840413          	addi	s0,s0,104
   1130c:	06d78863          	beq	a5,a3,1137c <__sfp+0xb0>
   11310:	00c41703          	lh	a4,12(s0)
   11314:	fff78793          	addi	a5,a5,-1
   11318:	fe0718e3          	bne	a4,zero,11308 <__sfp+0x3c>
   1131c:	ffff07b7          	lui	a5,0xffff0
   11320:	00178793          	addi	a5,a5,1 # ffff0001 <__BSS_END__+0xfff01711>
   11324:	00f42623          	sw	a5,12(s0)
   11328:	06042223          	sw	zero,100(s0)
   1132c:	00042023          	sw	zero,0(s0)
   11330:	00042423          	sw	zero,8(s0)
   11334:	00042223          	sw	zero,4(s0)
   11338:	00042823          	sw	zero,16(s0)
   1133c:	00042a23          	sw	zero,20(s0)
   11340:	00042c23          	sw	zero,24(s0)
   11344:	00800613          	addi	a2,zero,8
   11348:	00000593          	addi	a1,zero,0
   1134c:	05c40513          	addi	a0,s0,92
   11350:	6b0000ef          	jal	ra,11a00 <memset>
   11354:	02042823          	sw	zero,48(s0)
   11358:	02042a23          	sw	zero,52(s0)
   1135c:	04042223          	sw	zero,68(s0)
   11360:	04042423          	sw	zero,72(s0)
   11364:	01c12083          	lw	ra,28(sp)
   11368:	00040513          	addi	a0,s0,0
   1136c:	01812403          	lw	s0,24(sp)
   11370:	01412483          	lw	s1,20(sp)
   11374:	02010113          	addi	sp,sp,32
   11378:	00008067          	jalr	zero,0(ra)
   1137c:	00082403          	lw	s0,0(a6)
   11380:	00040663          	beq	s0,zero,1138c <__sfp+0xc0>
   11384:	00040813          	addi	a6,s0,0
   11388:	f6dff06f          	jal	zero,112f4 <__sfp+0x28>
   1138c:	1ac00593          	addi	a1,zero,428
   11390:	00048513          	addi	a0,s1,0
   11394:	01012623          	sw	a6,12(sp)
   11398:	4a1000ef          	jal	ra,12038 <_malloc_r>
   1139c:	00c12803          	lw	a6,12(sp)
   113a0:	00050413          	addi	s0,a0,0
   113a4:	04050263          	beq	a0,zero,113e8 <__sfp+0x11c>
   113a8:	00400793          	addi	a5,zero,4
   113ac:	00f52223          	sw	a5,4(a0)
   113b0:	00c50513          	addi	a0,a0,12
   113b4:	00042023          	sw	zero,0(s0)
   113b8:	00a42423          	sw	a0,8(s0)
   113bc:	1a000613          	addi	a2,zero,416
   113c0:	00000593          	addi	a1,zero,0
   113c4:	01012623          	sw	a6,12(sp)
   113c8:	638000ef          	jal	ra,11a00 <memset>
   113cc:	00c12803          	lw	a6,12(sp)
   113d0:	fff00693          	addi	a3,zero,-1
   113d4:	00882023          	sw	s0,0(a6)
   113d8:	00040813          	addi	a6,s0,0
   113dc:	f19ff06f          	jal	zero,112f4 <__sfp+0x28>
   113e0:	d81ff0ef          	jal	ra,11160 <global_stdio_init.part.0>
   113e4:	f05ff06f          	jal	zero,112e8 <__sfp+0x1c>
   113e8:	00082023          	sw	zero,0(a6)
   113ec:	00c00793          	addi	a5,zero,12
   113f0:	00f4a023          	sw	a5,0(s1)
   113f4:	f71ff06f          	jal	zero,11364 <__sfp+0x98>

000113f8 <__sinit>:
__sinit():
   113f8:	03452783          	lw	a5,52(a0)
   113fc:	00078463          	beq	a5,zero,11404 <__sinit+0xc>
   11400:	00008067          	jalr	zero,0(ra)
   11404:	000117b7          	lui	a5,0x11
   11408:	8841a703          	lw	a4,-1916(gp) # 6d73c <__stdio_exit_handler>
   1140c:	0e878793          	addi	a5,a5,232 # 110e8 <cleanup_stdio>
   11410:	02f52a23          	sw	a5,52(a0)
   11414:	fe0716e3          	bne	a4,zero,11400 <__sinit+0x8>
   11418:	d49ff06f          	jal	zero,11160 <global_stdio_init.part.0>

0001141c <__sfp_lock_acquire>:
__sfp_lock_acquire():
   1141c:	00008067          	jalr	zero,0(ra)

00011420 <__sfp_lock_release>:
__sfp_lock_release():
   11420:	00008067          	jalr	zero,0(ra)

00011424 <__fp_lock_all>:
__fp_lock_all():
   11424:	0006d637          	lui	a2,0x6d
   11428:	000115b7          	lui	a1,0x11
   1142c:	01060613          	addi	a2,a2,16 # 6d010 <__sglue>
   11430:	0c458593          	addi	a1,a1,196 # 110c4 <__fp_lock>
   11434:	00000513          	addi	a0,zero,0
   11438:	01c0006f          	jal	zero,11454 <_fwalk_sglue>

0001143c <__fp_unlock_all>:
__fp_unlock_all():
   1143c:	0006d637          	lui	a2,0x6d
   11440:	000115b7          	lui	a1,0x11
   11444:	01060613          	addi	a2,a2,16 # 6d010 <__sglue>
   11448:	15858593          	addi	a1,a1,344 # 11158 <__fp_unlock>
   1144c:	00000513          	addi	a0,zero,0
   11450:	0040006f          	jal	zero,11454 <_fwalk_sglue>

00011454 <_fwalk_sglue>:
_fwalk_sglue():
   11454:	fd010113          	addi	sp,sp,-48
   11458:	03212023          	sw	s2,32(sp)
   1145c:	01312e23          	sw	s3,28(sp)
   11460:	01412c23          	sw	s4,24(sp)
   11464:	01512a23          	sw	s5,20(sp)
   11468:	01612823          	sw	s6,16(sp)
   1146c:	01712623          	sw	s7,12(sp)
   11470:	02112623          	sw	ra,44(sp)
   11474:	02812423          	sw	s0,40(sp)
   11478:	02912223          	sw	s1,36(sp)
   1147c:	00060a93          	addi	s5,a2,0
   11480:	00050b13          	addi	s6,a0,0
   11484:	00058b93          	addi	s7,a1,0
   11488:	00000a13          	addi	s4,zero,0
   1148c:	00100993          	addi	s3,zero,1
   11490:	fff00913          	addi	s2,zero,-1
   11494:	004aa483          	lw	s1,4(s5)
   11498:	fff48493          	addi	s1,s1,-1
   1149c:	0204ca63          	blt	s1,zero,114d0 <_fwalk_sglue+0x7c>
   114a0:	008aa403          	lw	s0,8(s5)
   114a4:	00c45783          	lhu	a5,12(s0)
   114a8:	00f9fe63          	bgeu	s3,a5,114c4 <_fwalk_sglue+0x70>
   114ac:	00e41783          	lh	a5,14(s0)
   114b0:	00040593          	addi	a1,s0,0
   114b4:	000b0513          	addi	a0,s6,0
   114b8:	01278663          	beq	a5,s2,114c4 <_fwalk_sglue+0x70>
   114bc:	000b80e7          	jalr	ra,0(s7)
   114c0:	00aa6a33          	or	s4,s4,a0
   114c4:	fff48493          	addi	s1,s1,-1
   114c8:	06840413          	addi	s0,s0,104
   114cc:	fd249ce3          	bne	s1,s2,114a4 <_fwalk_sglue+0x50>
   114d0:	000aaa83          	lw	s5,0(s5)
   114d4:	fc0a90e3          	bne	s5,zero,11494 <_fwalk_sglue+0x40>
   114d8:	02c12083          	lw	ra,44(sp)
   114dc:	02812403          	lw	s0,40(sp)
   114e0:	02412483          	lw	s1,36(sp)
   114e4:	02012903          	lw	s2,32(sp)
   114e8:	01c12983          	lw	s3,28(sp)
   114ec:	01412a83          	lw	s5,20(sp)
   114f0:	01012b03          	lw	s6,16(sp)
   114f4:	00c12b83          	lw	s7,12(sp)
   114f8:	000a0513          	addi	a0,s4,0
   114fc:	01812a03          	lw	s4,24(sp)
   11500:	03010113          	addi	sp,sp,48
   11504:	00008067          	jalr	zero,0(ra)

00011508 <_printf_r>:
_printf_r():
   11508:	fc010113          	addi	sp,sp,-64
   1150c:	00058e13          	addi	t3,a1,0
   11510:	00852583          	lw	a1,8(a0)
   11514:	02810313          	addi	t1,sp,40
   11518:	02c12423          	sw	a2,40(sp)
   1151c:	02d12623          	sw	a3,44(sp)
   11520:	000e0613          	addi	a2,t3,0
   11524:	00030693          	addi	a3,t1,0
   11528:	00112e23          	sw	ra,28(sp)
   1152c:	02e12823          	sw	a4,48(sp)
   11530:	02f12a23          	sw	a5,52(sp)
   11534:	03012c23          	sw	a6,56(sp)
   11538:	03112e23          	sw	a7,60(sp)
   1153c:	00612623          	sw	t1,12(sp)
   11540:	380010ef          	jal	ra,128c0 <_vfprintf_r>
   11544:	01c12083          	lw	ra,28(sp)
   11548:	04010113          	addi	sp,sp,64
   1154c:	00008067          	jalr	zero,0(ra)

00011550 <printf>:
printf():
   11550:	8641a303          	lw	t1,-1948(gp) # 6d71c <_impure_ptr>
   11554:	fc010113          	addi	sp,sp,-64
   11558:	02c12423          	sw	a2,40(sp)
   1155c:	02d12623          	sw	a3,44(sp)
   11560:	02b12223          	sw	a1,36(sp)
   11564:	02e12823          	sw	a4,48(sp)
   11568:	02f12a23          	sw	a5,52(sp)
   1156c:	03012c23          	sw	a6,56(sp)
   11570:	03112e23          	sw	a7,60(sp)
   11574:	00832583          	lw	a1,8(t1)
   11578:	02410693          	addi	a3,sp,36
   1157c:	00050613          	addi	a2,a0,0
   11580:	00030513          	addi	a0,t1,0
   11584:	00112e23          	sw	ra,28(sp)
   11588:	00d12623          	sw	a3,12(sp)
   1158c:	334010ef          	jal	ra,128c0 <_vfprintf_r>
   11590:	01c12083          	lw	ra,28(sp)
   11594:	04010113          	addi	sp,sp,64
   11598:	00008067          	jalr	zero,0(ra)

0001159c <__sread>:
__sread():
   1159c:	ff010113          	addi	sp,sp,-16
   115a0:	00812423          	sw	s0,8(sp)
   115a4:	00058413          	addi	s0,a1,0
   115a8:	00e59583          	lh	a1,14(a1)
   115ac:	00112623          	sw	ra,12(sp)
   115b0:	2ec000ef          	jal	ra,1189c <_read_r>
   115b4:	02054063          	blt	a0,zero,115d4 <__sread+0x38>
   115b8:	05042783          	lw	a5,80(s0)
   115bc:	00c12083          	lw	ra,12(sp)
   115c0:	00a787b3          	add	a5,a5,a0
   115c4:	04f42823          	sw	a5,80(s0)
   115c8:	00812403          	lw	s0,8(sp)
   115cc:	01010113          	addi	sp,sp,16
   115d0:	00008067          	jalr	zero,0(ra)
   115d4:	00c45783          	lhu	a5,12(s0)
   115d8:	fffff737          	lui	a4,0xfffff
   115dc:	fff70713          	addi	a4,a4,-1 # ffffefff <__BSS_END__+0xfff1070f>
   115e0:	00e7f7b3          	and	a5,a5,a4
   115e4:	00c12083          	lw	ra,12(sp)
   115e8:	00f41623          	sh	a5,12(s0)
   115ec:	00812403          	lw	s0,8(sp)
   115f0:	01010113          	addi	sp,sp,16
   115f4:	00008067          	jalr	zero,0(ra)

000115f8 <__seofread>:
__seofread():
   115f8:	00000513          	addi	a0,zero,0
   115fc:	00008067          	jalr	zero,0(ra)

00011600 <__swrite>:
__swrite():
   11600:	00c59783          	lh	a5,12(a1)
   11604:	fe010113          	addi	sp,sp,-32
   11608:	00068313          	addi	t1,a3,0
   1160c:	00112e23          	sw	ra,28(sp)
   11610:	1007f693          	andi	a3,a5,256
   11614:	00058713          	addi	a4,a1,0
   11618:	00060893          	addi	a7,a2,0
   1161c:	00050813          	addi	a6,a0,0
   11620:	02069863          	bne	a3,zero,11650 <__swrite+0x50>
   11624:	fffff6b7          	lui	a3,0xfffff
   11628:	fff68693          	addi	a3,a3,-1 # ffffefff <__BSS_END__+0xfff1070f>
   1162c:	01c12083          	lw	ra,28(sp)
   11630:	00d7f7b3          	and	a5,a5,a3
   11634:	00e71583          	lh	a1,14(a4)
   11638:	00f71623          	sh	a5,12(a4)
   1163c:	00030693          	addi	a3,t1,0
   11640:	00088613          	addi	a2,a7,0 # 80000000 <__BSS_END__+0x7ff11710>
   11644:	00080513          	addi	a0,a6,0
   11648:	02010113          	addi	sp,sp,32
   1164c:	2b80006f          	jal	zero,11904 <_write_r>
   11650:	00e59583          	lh	a1,14(a1)
   11654:	00c12423          	sw	a2,8(sp)
   11658:	00200693          	addi	a3,zero,2
   1165c:	00000613          	addi	a2,zero,0
   11660:	00612623          	sw	t1,12(sp)
   11664:	00e12023          	sw	a4,0(sp)
   11668:	00a12223          	sw	a0,4(sp)
   1166c:	1c8000ef          	jal	ra,11834 <_lseek_r>
   11670:	00012703          	lw	a4,0(sp)
   11674:	00c12303          	lw	t1,12(sp)
   11678:	00812883          	lw	a7,8(sp)
   1167c:	00c71783          	lh	a5,12(a4)
   11680:	00412803          	lw	a6,4(sp)
   11684:	fa1ff06f          	jal	zero,11624 <__swrite+0x24>

00011688 <__sseek>:
__sseek():
   11688:	ff010113          	addi	sp,sp,-16
   1168c:	00812423          	sw	s0,8(sp)
   11690:	00058413          	addi	s0,a1,0
   11694:	00e59583          	lh	a1,14(a1)
   11698:	00112623          	sw	ra,12(sp)
   1169c:	198000ef          	jal	ra,11834 <_lseek_r>
   116a0:	fff00713          	addi	a4,zero,-1
   116a4:	00c41783          	lh	a5,12(s0)
   116a8:	02e50263          	beq	a0,a4,116cc <__sseek+0x44>
   116ac:	00001737          	lui	a4,0x1
   116b0:	00e7e7b3          	or	a5,a5,a4
   116b4:	00c12083          	lw	ra,12(sp)
   116b8:	04a42823          	sw	a0,80(s0)
   116bc:	00f41623          	sh	a5,12(s0)
   116c0:	00812403          	lw	s0,8(sp)
   116c4:	01010113          	addi	sp,sp,16
   116c8:	00008067          	jalr	zero,0(ra)
   116cc:	80050713          	addi	a4,a0,-2048
   116d0:	80070713          	addi	a4,a4,-2048 # 800 <exit-0xf8b4>
   116d4:	00e7f7b3          	and	a5,a5,a4
   116d8:	00c12083          	lw	ra,12(sp)
   116dc:	00f41623          	sh	a5,12(s0)
   116e0:	00812403          	lw	s0,8(sp)
   116e4:	01010113          	addi	sp,sp,16
   116e8:	00008067          	jalr	zero,0(ra)

000116ec <__sclose>:
__sclose():
   116ec:	00e59583          	lh	a1,14(a1)
   116f0:	0040006f          	jal	zero,116f4 <_close_r>

000116f4 <_close_r>:
_close_r():
   116f4:	ff010113          	addi	sp,sp,-16
   116f8:	00812423          	sw	s0,8(sp)
   116fc:	00912223          	sw	s1,4(sp)
   11700:	00050493          	addi	s1,a0,0
   11704:	00058513          	addi	a0,a1,0
   11708:	00112623          	sw	ra,12(sp)
   1170c:	8801a423          	sw	zero,-1912(gp) # 6d740 <errno>
   11710:	4340b0ef          	jal	ra,1cb44 <_close>
   11714:	fff00793          	addi	a5,zero,-1
   11718:	00f50c63          	beq	a0,a5,11730 <_close_r+0x3c>
   1171c:	00c12083          	lw	ra,12(sp)
   11720:	00812403          	lw	s0,8(sp)
   11724:	00412483          	lw	s1,4(sp)
   11728:	01010113          	addi	sp,sp,16
   1172c:	00008067          	jalr	zero,0(ra)
   11730:	8881a783          	lw	a5,-1912(gp) # 6d740 <errno>
   11734:	fe0784e3          	beq	a5,zero,1171c <_close_r+0x28>
   11738:	00c12083          	lw	ra,12(sp)
   1173c:	00812403          	lw	s0,8(sp)
   11740:	00f4a023          	sw	a5,0(s1)
   11744:	00412483          	lw	s1,4(sp)
   11748:	01010113          	addi	sp,sp,16
   1174c:	00008067          	jalr	zero,0(ra)

00011750 <_reclaim_reent>:
_reclaim_reent():
   11750:	8641a783          	lw	a5,-1948(gp) # 6d71c <_impure_ptr>
   11754:	0ca78e63          	beq	a5,a0,11830 <_reclaim_reent+0xe0>
   11758:	04452583          	lw	a1,68(a0)
   1175c:	fe010113          	addi	sp,sp,-32
   11760:	00912a23          	sw	s1,20(sp)
   11764:	00112e23          	sw	ra,28(sp)
   11768:	00812c23          	sw	s0,24(sp)
   1176c:	00050493          	addi	s1,a0,0
   11770:	04058863          	beq	a1,zero,117c0 <_reclaim_reent+0x70>
   11774:	01212823          	sw	s2,16(sp)
   11778:	01312623          	sw	s3,12(sp)
   1177c:	00000913          	addi	s2,zero,0
   11780:	08000993          	addi	s3,zero,128
   11784:	012587b3          	add	a5,a1,s2
   11788:	0007a403          	lw	s0,0(a5)
   1178c:	00040e63          	beq	s0,zero,117a8 <_reclaim_reent+0x58>
   11790:	00040593          	addi	a1,s0,0
   11794:	00042403          	lw	s0,0(s0)
   11798:	00048513          	addi	a0,s1,0
   1179c:	5b4000ef          	jal	ra,11d50 <_free_r>
   117a0:	fe0418e3          	bne	s0,zero,11790 <_reclaim_reent+0x40>
   117a4:	0444a583          	lw	a1,68(s1)
   117a8:	00490913          	addi	s2,s2,4
   117ac:	fd391ce3          	bne	s2,s3,11784 <_reclaim_reent+0x34>
   117b0:	00048513          	addi	a0,s1,0
   117b4:	59c000ef          	jal	ra,11d50 <_free_r>
   117b8:	01012903          	lw	s2,16(sp)
   117bc:	00c12983          	lw	s3,12(sp)
   117c0:	0384a583          	lw	a1,56(s1)
   117c4:	00058663          	beq	a1,zero,117d0 <_reclaim_reent+0x80>
   117c8:	00048513          	addi	a0,s1,0
   117cc:	584000ef          	jal	ra,11d50 <_free_r>
   117d0:	0404a403          	lw	s0,64(s1)
   117d4:	00040c63          	beq	s0,zero,117ec <_reclaim_reent+0x9c>
   117d8:	00040593          	addi	a1,s0,0
   117dc:	00042403          	lw	s0,0(s0)
   117e0:	00048513          	addi	a0,s1,0
   117e4:	56c000ef          	jal	ra,11d50 <_free_r>
   117e8:	fe0418e3          	bne	s0,zero,117d8 <_reclaim_reent+0x88>
   117ec:	04c4a583          	lw	a1,76(s1)
   117f0:	00058663          	beq	a1,zero,117fc <_reclaim_reent+0xac>
   117f4:	00048513          	addi	a0,s1,0
   117f8:	558000ef          	jal	ra,11d50 <_free_r>
   117fc:	0344a783          	lw	a5,52(s1)
   11800:	00078e63          	beq	a5,zero,1181c <_reclaim_reent+0xcc>
   11804:	01812403          	lw	s0,24(sp)
   11808:	01c12083          	lw	ra,28(sp)
   1180c:	00048513          	addi	a0,s1,0
   11810:	01412483          	lw	s1,20(sp)
   11814:	02010113          	addi	sp,sp,32
   11818:	00078067          	jalr	zero,0(a5)
   1181c:	01c12083          	lw	ra,28(sp)
   11820:	01812403          	lw	s0,24(sp)
   11824:	01412483          	lw	s1,20(sp)
   11828:	02010113          	addi	sp,sp,32
   1182c:	00008067          	jalr	zero,0(ra)
   11830:	00008067          	jalr	zero,0(ra)

00011834 <_lseek_r>:
_lseek_r():
   11834:	ff010113          	addi	sp,sp,-16
   11838:	00058793          	addi	a5,a1,0
   1183c:	00812423          	sw	s0,8(sp)
   11840:	00912223          	sw	s1,4(sp)
   11844:	00060593          	addi	a1,a2,0
   11848:	00050493          	addi	s1,a0,0
   1184c:	00068613          	addi	a2,a3,0
   11850:	00078513          	addi	a0,a5,0
   11854:	00112623          	sw	ra,12(sp)
   11858:	8801a423          	sw	zero,-1912(gp) # 6d740 <errno>
   1185c:	4240b0ef          	jal	ra,1cc80 <_lseek>
   11860:	fff00793          	addi	a5,zero,-1
   11864:	00f50c63          	beq	a0,a5,1187c <_lseek_r+0x48>
   11868:	00c12083          	lw	ra,12(sp)
   1186c:	00812403          	lw	s0,8(sp)
   11870:	00412483          	lw	s1,4(sp)
   11874:	01010113          	addi	sp,sp,16
   11878:	00008067          	jalr	zero,0(ra)
   1187c:	8881a783          	lw	a5,-1912(gp) # 6d740 <errno>
   11880:	fe0784e3          	beq	a5,zero,11868 <_lseek_r+0x34>
   11884:	00c12083          	lw	ra,12(sp)
   11888:	00812403          	lw	s0,8(sp)
   1188c:	00f4a023          	sw	a5,0(s1)
   11890:	00412483          	lw	s1,4(sp)
   11894:	01010113          	addi	sp,sp,16
   11898:	00008067          	jalr	zero,0(ra)

0001189c <_read_r>:
_read_r():
   1189c:	ff010113          	addi	sp,sp,-16
   118a0:	00058793          	addi	a5,a1,0
   118a4:	00812423          	sw	s0,8(sp)
   118a8:	00912223          	sw	s1,4(sp)
   118ac:	00060593          	addi	a1,a2,0
   118b0:	00050493          	addi	s1,a0,0
   118b4:	00068613          	addi	a2,a3,0
   118b8:	00078513          	addi	a0,a5,0
   118bc:	00112623          	sw	ra,12(sp)
   118c0:	8801a423          	sw	zero,-1912(gp) # 6d740 <errno>
   118c4:	3fc0b0ef          	jal	ra,1ccc0 <_read>
   118c8:	fff00793          	addi	a5,zero,-1
   118cc:	00f50c63          	beq	a0,a5,118e4 <_read_r+0x48>
   118d0:	00c12083          	lw	ra,12(sp)
   118d4:	00812403          	lw	s0,8(sp)
   118d8:	00412483          	lw	s1,4(sp)
   118dc:	01010113          	addi	sp,sp,16
   118e0:	00008067          	jalr	zero,0(ra)
   118e4:	8881a783          	lw	a5,-1912(gp) # 6d740 <errno>
   118e8:	fe0784e3          	beq	a5,zero,118d0 <_read_r+0x34>
   118ec:	00c12083          	lw	ra,12(sp)
   118f0:	00812403          	lw	s0,8(sp)
   118f4:	00f4a023          	sw	a5,0(s1)
   118f8:	00412483          	lw	s1,4(sp)
   118fc:	01010113          	addi	sp,sp,16
   11900:	00008067          	jalr	zero,0(ra)

00011904 <_write_r>:
_write_r():
   11904:	ff010113          	addi	sp,sp,-16
   11908:	00058793          	addi	a5,a1,0
   1190c:	00812423          	sw	s0,8(sp)
   11910:	00912223          	sw	s1,4(sp)
   11914:	00060593          	addi	a1,a2,0
   11918:	00050493          	addi	s1,a0,0
   1191c:	00068613          	addi	a2,a3,0
   11920:	00078513          	addi	a0,a5,0
   11924:	00112623          	sw	ra,12(sp)
   11928:	8801a423          	sw	zero,-1912(gp) # 6d740 <errno>
   1192c:	44c0b0ef          	jal	ra,1cd78 <_write>
   11930:	fff00793          	addi	a5,zero,-1
   11934:	00f50c63          	beq	a0,a5,1194c <_write_r+0x48>
   11938:	00c12083          	lw	ra,12(sp)
   1193c:	00812403          	lw	s0,8(sp)
   11940:	00412483          	lw	s1,4(sp)
   11944:	01010113          	addi	sp,sp,16
   11948:	00008067          	jalr	zero,0(ra)
   1194c:	8881a783          	lw	a5,-1912(gp) # 6d740 <errno>
   11950:	fe0784e3          	beq	a5,zero,11938 <_write_r+0x34>
   11954:	00c12083          	lw	ra,12(sp)
   11958:	00812403          	lw	s0,8(sp)
   1195c:	00f4a023          	sw	a5,0(s1)
   11960:	00412483          	lw	s1,4(sp)
   11964:	01010113          	addi	sp,sp,16
   11968:	00008067          	jalr	zero,0(ra)

0001196c <__libc_init_array>:
__libc_init_array():
   1196c:	ff010113          	addi	sp,sp,-16
   11970:	00812423          	sw	s0,8(sp)
   11974:	01212023          	sw	s2,0(sp)
   11978:	0006d437          	lui	s0,0x6d
   1197c:	0006d937          	lui	s2,0x6d
   11980:	00112623          	sw	ra,12(sp)
   11984:	00912223          	sw	s1,4(sp)
   11988:	00090913          	addi	s2,s2,0 # 6d000 <__init_array_start>
   1198c:	00040413          	addi	s0,s0,0 # 6d000 <__init_array_start>
   11990:	02890263          	beq	s2,s0,119b4 <__libc_init_array+0x48>
   11994:	40890933          	sub	s2,s2,s0
   11998:	40295913          	srai	s2,s2,0x2
   1199c:	00000493          	addi	s1,zero,0
   119a0:	00042783          	lw	a5,0(s0)
   119a4:	00148493          	addi	s1,s1,1
   119a8:	00440413          	addi	s0,s0,4
   119ac:	000780e7          	jalr	ra,0(a5)
   119b0:	ff24e8e3          	bltu	s1,s2,119a0 <__libc_init_array+0x34>
   119b4:	0006d937          	lui	s2,0x6d
   119b8:	0006d437          	lui	s0,0x6d
   119bc:	00890913          	addi	s2,s2,8 # 6d008 <__do_global_dtors_aux_fini_array_entry>
   119c0:	00040413          	addi	s0,s0,0 # 6d000 <__init_array_start>
   119c4:	02890263          	beq	s2,s0,119e8 <__libc_init_array+0x7c>
   119c8:	40890933          	sub	s2,s2,s0
   119cc:	40295913          	srai	s2,s2,0x2
   119d0:	00000493          	addi	s1,zero,0
   119d4:	00042783          	lw	a5,0(s0)
   119d8:	00148493          	addi	s1,s1,1
   119dc:	00440413          	addi	s0,s0,4
   119e0:	000780e7          	jalr	ra,0(a5)
   119e4:	ff24e8e3          	bltu	s1,s2,119d4 <__libc_init_array+0x68>
   119e8:	00c12083          	lw	ra,12(sp)
   119ec:	00812403          	lw	s0,8(sp)
   119f0:	00412483          	lw	s1,4(sp)
   119f4:	00012903          	lw	s2,0(sp)
   119f8:	01010113          	addi	sp,sp,16
   119fc:	00008067          	jalr	zero,0(ra)

00011a00 <memset>:
memset():
   11a00:	00f00313          	addi	t1,zero,15
   11a04:	00050713          	addi	a4,a0,0
   11a08:	02c37e63          	bgeu	t1,a2,11a44 <memset+0x44>
   11a0c:	00f77793          	andi	a5,a4,15
   11a10:	0a079063          	bne	a5,zero,11ab0 <memset+0xb0>
   11a14:	08059263          	bne	a1,zero,11a98 <memset+0x98>
   11a18:	ff067693          	andi	a3,a2,-16
   11a1c:	00f67613          	andi	a2,a2,15
   11a20:	00e686b3          	add	a3,a3,a4
   11a24:	00b72023          	sw	a1,0(a4)
   11a28:	00b72223          	sw	a1,4(a4)
   11a2c:	00b72423          	sw	a1,8(a4)
   11a30:	00b72623          	sw	a1,12(a4)
   11a34:	01070713          	addi	a4,a4,16
   11a38:	fed766e3          	bltu	a4,a3,11a24 <memset+0x24>
   11a3c:	00061463          	bne	a2,zero,11a44 <memset+0x44>
   11a40:	00008067          	jalr	zero,0(ra)
   11a44:	40c306b3          	sub	a3,t1,a2
   11a48:	00269693          	slli	a3,a3,0x2
   11a4c:	00000297          	auipc	t0,0x0
   11a50:	005686b3          	add	a3,a3,t0
   11a54:	00c68067          	jalr	zero,12(a3)
   11a58:	00b70723          	sb	a1,14(a4)
   11a5c:	00b706a3          	sb	a1,13(a4)
   11a60:	00b70623          	sb	a1,12(a4)
   11a64:	00b705a3          	sb	a1,11(a4)
   11a68:	00b70523          	sb	a1,10(a4)
   11a6c:	00b704a3          	sb	a1,9(a4)
   11a70:	00b70423          	sb	a1,8(a4)
   11a74:	00b703a3          	sb	a1,7(a4)
   11a78:	00b70323          	sb	a1,6(a4)
   11a7c:	00b702a3          	sb	a1,5(a4)
   11a80:	00b70223          	sb	a1,4(a4)
   11a84:	00b701a3          	sb	a1,3(a4)
   11a88:	00b70123          	sb	a1,2(a4)
   11a8c:	00b700a3          	sb	a1,1(a4)
   11a90:	00b70023          	sb	a1,0(a4)
   11a94:	00008067          	jalr	zero,0(ra)
   11a98:	0ff5f593          	andi	a1,a1,255
   11a9c:	00859693          	slli	a3,a1,0x8
   11aa0:	00d5e5b3          	or	a1,a1,a3
   11aa4:	01059693          	slli	a3,a1,0x10
   11aa8:	00d5e5b3          	or	a1,a1,a3
   11aac:	f6dff06f          	jal	zero,11a18 <memset+0x18>
   11ab0:	00279693          	slli	a3,a5,0x2
   11ab4:	00000297          	auipc	t0,0x0
   11ab8:	005686b3          	add	a3,a3,t0
   11abc:	00008293          	addi	t0,ra,0
   11ac0:	fa0680e7          	jalr	ra,-96(a3)
   11ac4:	00028093          	addi	ra,t0,0 # 11ab4 <memset+0xb4>
   11ac8:	ff078793          	addi	a5,a5,-16
   11acc:	40f70733          	sub	a4,a4,a5
   11ad0:	00f60633          	add	a2,a2,a5
   11ad4:	f6c378e3          	bgeu	t1,a2,11a44 <memset+0x44>
   11ad8:	f3dff06f          	jal	zero,11a14 <memset+0x14>

00011adc <__call_exitprocs>:
__call_exitprocs():
   11adc:	fd010113          	addi	sp,sp,-48
   11ae0:	01412c23          	sw	s4,24(sp)
   11ae4:	03212023          	sw	s2,32(sp)
   11ae8:	88c1a903          	lw	s2,-1908(gp) # 6d744 <__atexit>
   11aec:	02112623          	sw	ra,44(sp)
   11af0:	06090c63          	beq	s2,zero,11b68 <__call_exitprocs+0x8c>
   11af4:	01312e23          	sw	s3,28(sp)
   11af8:	01512a23          	sw	s5,20(sp)
   11afc:	01612823          	sw	s6,16(sp)
   11b00:	01712623          	sw	s7,12(sp)
   11b04:	02812423          	sw	s0,40(sp)
   11b08:	02912223          	sw	s1,36(sp)
   11b0c:	01812423          	sw	s8,8(sp)
   11b10:	00050b13          	addi	s6,a0,0
   11b14:	00058b93          	addi	s7,a1,0
   11b18:	fff00993          	addi	s3,zero,-1
   11b1c:	00100a93          	addi	s5,zero,1
   11b20:	00492483          	lw	s1,4(s2)
   11b24:	fff48413          	addi	s0,s1,-1
   11b28:	02044263          	blt	s0,zero,11b4c <__call_exitprocs+0x70>
   11b2c:	00249493          	slli	s1,s1,0x2
   11b30:	009904b3          	add	s1,s2,s1
   11b34:	040b8463          	beq	s7,zero,11b7c <__call_exitprocs+0xa0>
   11b38:	1044a783          	lw	a5,260(s1)
   11b3c:	05778063          	beq	a5,s7,11b7c <__call_exitprocs+0xa0>
   11b40:	fff40413          	addi	s0,s0,-1
   11b44:	ffc48493          	addi	s1,s1,-4
   11b48:	ff3418e3          	bne	s0,s3,11b38 <__call_exitprocs+0x5c>
   11b4c:	02812403          	lw	s0,40(sp)
   11b50:	02412483          	lw	s1,36(sp)
   11b54:	01c12983          	lw	s3,28(sp)
   11b58:	01412a83          	lw	s5,20(sp)
   11b5c:	01012b03          	lw	s6,16(sp)
   11b60:	00c12b83          	lw	s7,12(sp)
   11b64:	00812c03          	lw	s8,8(sp)
   11b68:	02c12083          	lw	ra,44(sp)
   11b6c:	02012903          	lw	s2,32(sp)
   11b70:	01812a03          	lw	s4,24(sp)
   11b74:	03010113          	addi	sp,sp,48
   11b78:	00008067          	jalr	zero,0(ra)
   11b7c:	00492783          	lw	a5,4(s2)
   11b80:	0044a683          	lw	a3,4(s1)
   11b84:	fff78793          	addi	a5,a5,-1
   11b88:	06878a63          	beq	a5,s0,11bfc <__call_exitprocs+0x120>
   11b8c:	0004a223          	sw	zero,4(s1)
   11b90:	02068663          	beq	a3,zero,11bbc <__call_exitprocs+0xe0>
   11b94:	18892783          	lw	a5,392(s2)
   11b98:	008a9733          	sll	a4,s5,s0
   11b9c:	00492c03          	lw	s8,4(s2)
   11ba0:	00f777b3          	and	a5,a4,a5
   11ba4:	02079463          	bne	a5,zero,11bcc <__call_exitprocs+0xf0>
   11ba8:	000680e7          	jalr	ra,0(a3)
   11bac:	00492703          	lw	a4,4(s2)
   11bb0:	88c1a783          	lw	a5,-1908(gp) # 6d744 <__atexit>
   11bb4:	03871e63          	bne	a4,s8,11bf0 <__call_exitprocs+0x114>
   11bb8:	03279c63          	bne	a5,s2,11bf0 <__call_exitprocs+0x114>
   11bbc:	fff40413          	addi	s0,s0,-1
   11bc0:	ffc48493          	addi	s1,s1,-4
   11bc4:	f73418e3          	bne	s0,s3,11b34 <__call_exitprocs+0x58>
   11bc8:	f85ff06f          	jal	zero,11b4c <__call_exitprocs+0x70>
   11bcc:	18c92783          	lw	a5,396(s2)
   11bd0:	0844a583          	lw	a1,132(s1)
   11bd4:	00f77733          	and	a4,a4,a5
   11bd8:	02071663          	bne	a4,zero,11c04 <__call_exitprocs+0x128>
   11bdc:	000b0513          	addi	a0,s6,0
   11be0:	000680e7          	jalr	ra,0(a3)
   11be4:	00492703          	lw	a4,4(s2)
   11be8:	88c1a783          	lw	a5,-1908(gp) # 6d744 <__atexit>
   11bec:	fd8706e3          	beq	a4,s8,11bb8 <__call_exitprocs+0xdc>
   11bf0:	f4078ee3          	beq	a5,zero,11b4c <__call_exitprocs+0x70>
   11bf4:	00078913          	addi	s2,a5,0
   11bf8:	f29ff06f          	jal	zero,11b20 <__call_exitprocs+0x44>
   11bfc:	00892223          	sw	s0,4(s2)
   11c00:	f91ff06f          	jal	zero,11b90 <__call_exitprocs+0xb4>
   11c04:	00058513          	addi	a0,a1,0
   11c08:	000680e7          	jalr	ra,0(a3)
   11c0c:	fa1ff06f          	jal	zero,11bac <__call_exitprocs+0xd0>

00011c10 <atexit>:
atexit():
   11c10:	00050593          	addi	a1,a0,0
   11c14:	00000693          	addi	a3,zero,0
   11c18:	00000613          	addi	a2,zero,0
   11c1c:	00000513          	addi	a0,zero,0
   11c20:	7410406f          	jal	zero,16b60 <__register_exitproc>

00011c24 <_malloc_trim_r>:
_malloc_trim_r():
   11c24:	fe010113          	addi	sp,sp,-32
   11c28:	01212823          	sw	s2,16(sp)
   11c2c:	0006d937          	lui	s2,0x6d
   11c30:	00812c23          	sw	s0,24(sp)
   11c34:	00912a23          	sw	s1,20(sp)
   11c38:	01312623          	sw	s3,12(sp)
   11c3c:	00058413          	addi	s0,a1,0
   11c40:	00112e23          	sw	ra,28(sp)
   11c44:	00050993          	addi	s3,a0,0
   11c48:	14090913          	addi	s2,s2,320 # 6d140 <__malloc_av_>
   11c4c:	46d000ef          	jal	ra,128b8 <__malloc_lock>
   11c50:	00892783          	lw	a5,8(s2)
   11c54:	00001737          	lui	a4,0x1
   11c58:	0047a483          	lw	s1,4(a5)
   11c5c:	ffc4f493          	andi	s1,s1,-4
   11c60:	7ff48793          	addi	a5,s1,2047
   11c64:	7f078793          	addi	a5,a5,2032
   11c68:	40878433          	sub	s0,a5,s0
   11c6c:	00c45413          	srli	s0,s0,0xc
   11c70:	fff40413          	addi	s0,s0,-1
   11c74:	00c41413          	slli	s0,s0,0xc
   11c78:	00e44e63          	blt	s0,a4,11c94 <_malloc_trim_r+0x70>
   11c7c:	00000593          	addi	a1,zero,0
   11c80:	00098513          	addi	a0,s3,0
   11c84:	1c9040ef          	jal	ra,1664c <_sbrk_r>
   11c88:	00892783          	lw	a5,8(s2)
   11c8c:	009787b3          	add	a5,a5,s1
   11c90:	02f50663          	beq	a0,a5,11cbc <_malloc_trim_r+0x98>
   11c94:	00098513          	addi	a0,s3,0
   11c98:	425000ef          	jal	ra,128bc <__malloc_unlock>
   11c9c:	01c12083          	lw	ra,28(sp)
   11ca0:	01812403          	lw	s0,24(sp)
   11ca4:	01412483          	lw	s1,20(sp)
   11ca8:	01012903          	lw	s2,16(sp)
   11cac:	00c12983          	lw	s3,12(sp)
   11cb0:	00000513          	addi	a0,zero,0
   11cb4:	02010113          	addi	sp,sp,32
   11cb8:	00008067          	jalr	zero,0(ra)
   11cbc:	408005b3          	sub	a1,zero,s0
   11cc0:	00098513          	addi	a0,s3,0
   11cc4:	189040ef          	jal	ra,1664c <_sbrk_r>
   11cc8:	fff00793          	addi	a5,zero,-1
   11ccc:	04f50663          	beq	a0,a5,11d18 <_malloc_trim_r+0xf4>
   11cd0:	000ee737          	lui	a4,0xee
   11cd4:	00892683          	lw	a3,8(s2)
   11cd8:	73872783          	lw	a5,1848(a4) # ee738 <__malloc_current_mallinfo>
   11cdc:	408484b3          	sub	s1,s1,s0
   11ce0:	0014e493          	ori	s1,s1,1
   11ce4:	00098513          	addi	a0,s3,0
   11ce8:	408787b3          	sub	a5,a5,s0
   11cec:	0096a223          	sw	s1,4(a3)
   11cf0:	72f72c23          	sw	a5,1848(a4)
   11cf4:	3c9000ef          	jal	ra,128bc <__malloc_unlock>
   11cf8:	01c12083          	lw	ra,28(sp)
   11cfc:	01812403          	lw	s0,24(sp)
   11d00:	01412483          	lw	s1,20(sp)
   11d04:	01012903          	lw	s2,16(sp)
   11d08:	00c12983          	lw	s3,12(sp)
   11d0c:	00100513          	addi	a0,zero,1
   11d10:	02010113          	addi	sp,sp,32
   11d14:	00008067          	jalr	zero,0(ra)
   11d18:	00000593          	addi	a1,zero,0
   11d1c:	00098513          	addi	a0,s3,0
   11d20:	12d040ef          	jal	ra,1664c <_sbrk_r>
   11d24:	00892703          	lw	a4,8(s2)
   11d28:	00f00693          	addi	a3,zero,15
   11d2c:	40e507b3          	sub	a5,a0,a4
   11d30:	f6f6d2e3          	bge	a3,a5,11c94 <_malloc_trim_r+0x70>
   11d34:	8681a603          	lw	a2,-1944(gp) # 6d720 <__malloc_sbrk_base>
   11d38:	0017e793          	ori	a5,a5,1
   11d3c:	000ee6b7          	lui	a3,0xee
   11d40:	40c50533          	sub	a0,a0,a2
   11d44:	00f72223          	sw	a5,4(a4)
   11d48:	72a6ac23          	sw	a0,1848(a3) # ee738 <__malloc_current_mallinfo>
   11d4c:	f49ff06f          	jal	zero,11c94 <_malloc_trim_r+0x70>

00011d50 <_free_r>:
_free_r():
   11d50:	12058463          	beq	a1,zero,11e78 <_free_r+0x128>
   11d54:	fe010113          	addi	sp,sp,-32
   11d58:	00812c23          	sw	s0,24(sp)
   11d5c:	00b12623          	sw	a1,12(sp)
   11d60:	00050413          	addi	s0,a0,0
   11d64:	00112e23          	sw	ra,28(sp)
   11d68:	351000ef          	jal	ra,128b8 <__malloc_lock>
   11d6c:	00c12583          	lw	a1,12(sp)
   11d70:	0006d837          	lui	a6,0x6d
   11d74:	14080813          	addi	a6,a6,320 # 6d140 <__malloc_av_>
   11d78:	ffc5a503          	lw	a0,-4(a1)
   11d7c:	ff858713          	addi	a4,a1,-8
   11d80:	00882883          	lw	a7,8(a6)
   11d84:	ffe57793          	andi	a5,a0,-2
   11d88:	00f70633          	add	a2,a4,a5
   11d8c:	00462683          	lw	a3,4(a2)
   11d90:	00157313          	andi	t1,a0,1
   11d94:	ffc6f693          	andi	a3,a3,-4
   11d98:	18c88863          	beq	a7,a2,11f28 <_free_r+0x1d8>
   11d9c:	00d62223          	sw	a3,4(a2)
   11da0:	00d608b3          	add	a7,a2,a3
   11da4:	0048a883          	lw	a7,4(a7)
   11da8:	0018f893          	andi	a7,a7,1
   11dac:	08031a63          	bne	t1,zero,11e40 <_free_r+0xf0>
   11db0:	ff85a303          	lw	t1,-8(a1)
   11db4:	0006d5b7          	lui	a1,0x6d
   11db8:	14858593          	addi	a1,a1,328 # 6d148 <__malloc_av_+0x8>
   11dbc:	40670733          	sub	a4,a4,t1
   11dc0:	00872503          	lw	a0,8(a4)
   11dc4:	006787b3          	add	a5,a5,t1
   11dc8:	12b50a63          	beq	a0,a1,11efc <_free_r+0x1ac>
   11dcc:	00c72303          	lw	t1,12(a4)
   11dd0:	00652623          	sw	t1,12(a0)
   11dd4:	00a32423          	sw	a0,8(t1)
   11dd8:	18088c63          	beq	a7,zero,11f70 <_free_r+0x220>
   11ddc:	0017e693          	ori	a3,a5,1
   11de0:	00d72223          	sw	a3,4(a4)
   11de4:	00f62023          	sw	a5,0(a2)
   11de8:	1ff00693          	addi	a3,zero,511
   11dec:	0af6e263          	bltu	a3,a5,11e90 <_free_r+0x140>
   11df0:	ff87f693          	andi	a3,a5,-8
   11df4:	00868693          	addi	a3,a3,8
   11df8:	00482583          	lw	a1,4(a6)
   11dfc:	00d806b3          	add	a3,a6,a3
   11e00:	0006a603          	lw	a2,0(a3)
   11e04:	0057d513          	srli	a0,a5,0x5
   11e08:	00100793          	addi	a5,zero,1
   11e0c:	00a797b3          	sll	a5,a5,a0
   11e10:	00b7e7b3          	or	a5,a5,a1
   11e14:	ff868593          	addi	a1,a3,-8
   11e18:	00c72423          	sw	a2,8(a4)
   11e1c:	00b72623          	sw	a1,12(a4)
   11e20:	00f82223          	sw	a5,4(a6)
   11e24:	00e6a023          	sw	a4,0(a3)
   11e28:	00e62623          	sw	a4,12(a2)
   11e2c:	00040513          	addi	a0,s0,0
   11e30:	01812403          	lw	s0,24(sp)
   11e34:	01c12083          	lw	ra,28(sp)
   11e38:	02010113          	addi	sp,sp,32
   11e3c:	2810006f          	jal	zero,128bc <__malloc_unlock>
   11e40:	02089e63          	bne	a7,zero,11e7c <_free_r+0x12c>
   11e44:	0006d5b7          	lui	a1,0x6d
   11e48:	00d787b3          	add	a5,a5,a3
   11e4c:	14858593          	addi	a1,a1,328 # 6d148 <__malloc_av_+0x8>
   11e50:	00862683          	lw	a3,8(a2)
   11e54:	0017e893          	ori	a7,a5,1
   11e58:	00f70533          	add	a0,a4,a5
   11e5c:	16b68063          	beq	a3,a1,11fbc <_free_r+0x26c>
   11e60:	00c62603          	lw	a2,12(a2)
   11e64:	00c6a623          	sw	a2,12(a3)
   11e68:	00d62423          	sw	a3,8(a2)
   11e6c:	01172223          	sw	a7,4(a4)
   11e70:	00f52023          	sw	a5,0(a0)
   11e74:	f75ff06f          	jal	zero,11de8 <_free_r+0x98>
   11e78:	00008067          	jalr	zero,0(ra)
   11e7c:	00156513          	ori	a0,a0,1
   11e80:	fea5ae23          	sw	a0,-4(a1)
   11e84:	00f62023          	sw	a5,0(a2)
   11e88:	1ff00693          	addi	a3,zero,511
   11e8c:	f6f6f2e3          	bgeu	a3,a5,11df0 <_free_r+0xa0>
   11e90:	0097d693          	srli	a3,a5,0x9
   11e94:	00400613          	addi	a2,zero,4
   11e98:	0ed66063          	bltu	a2,a3,11f78 <_free_r+0x228>
   11e9c:	0067d693          	srli	a3,a5,0x6
   11ea0:	03968593          	addi	a1,a3,57
   11ea4:	00359593          	slli	a1,a1,0x3
   11ea8:	03868613          	addi	a2,a3,56
   11eac:	00b805b3          	add	a1,a6,a1
   11eb0:	0005a683          	lw	a3,0(a1)
   11eb4:	ff858593          	addi	a1,a1,-8
   11eb8:	00d59863          	bne	a1,a3,11ec8 <_free_r+0x178>
   11ebc:	11c0006f          	jal	zero,11fd8 <_free_r+0x288>
   11ec0:	0086a683          	lw	a3,8(a3)
   11ec4:	00d58863          	beq	a1,a3,11ed4 <_free_r+0x184>
   11ec8:	0046a603          	lw	a2,4(a3)
   11ecc:	ffc67613          	andi	a2,a2,-4
   11ed0:	fec7e8e3          	bltu	a5,a2,11ec0 <_free_r+0x170>
   11ed4:	00c6a583          	lw	a1,12(a3)
   11ed8:	00b72623          	sw	a1,12(a4)
   11edc:	00d72423          	sw	a3,8(a4)
   11ee0:	00040513          	addi	a0,s0,0
   11ee4:	01812403          	lw	s0,24(sp)
   11ee8:	01c12083          	lw	ra,28(sp)
   11eec:	00e5a423          	sw	a4,8(a1)
   11ef0:	00e6a623          	sw	a4,12(a3)
   11ef4:	02010113          	addi	sp,sp,32
   11ef8:	1c50006f          	jal	zero,128bc <__malloc_unlock>
   11efc:	0a089063          	bne	a7,zero,11f9c <_free_r+0x24c>
   11f00:	00c62583          	lw	a1,12(a2)
   11f04:	00862603          	lw	a2,8(a2)
   11f08:	00f686b3          	add	a3,a3,a5
   11f0c:	0016e793          	ori	a5,a3,1
   11f10:	00b62623          	sw	a1,12(a2)
   11f14:	00c5a423          	sw	a2,8(a1)
   11f18:	00f72223          	sw	a5,4(a4)
   11f1c:	00d70733          	add	a4,a4,a3
   11f20:	00d72023          	sw	a3,0(a4)
   11f24:	f09ff06f          	jal	zero,11e2c <_free_r+0xdc>
   11f28:	00d786b3          	add	a3,a5,a3
   11f2c:	02031063          	bne	t1,zero,11f4c <_free_r+0x1fc>
   11f30:	ff85a783          	lw	a5,-8(a1)
   11f34:	40f70733          	sub	a4,a4,a5
   11f38:	00872603          	lw	a2,8(a4)
   11f3c:	00f686b3          	add	a3,a3,a5
   11f40:	00c72783          	lw	a5,12(a4)
   11f44:	00f62623          	sw	a5,12(a2)
   11f48:	00c7a423          	sw	a2,8(a5)
   11f4c:	0016e613          	ori	a2,a3,1
   11f50:	86c1a783          	lw	a5,-1940(gp) # 6d724 <__malloc_trim_threshold>
   11f54:	00c72223          	sw	a2,4(a4)
   11f58:	00e82423          	sw	a4,8(a6)
   11f5c:	ecf6e8e3          	bltu	a3,a5,11e2c <_free_r+0xdc>
   11f60:	8981a583          	lw	a1,-1896(gp) # 6d750 <__malloc_top_pad>
   11f64:	00040513          	addi	a0,s0,0
   11f68:	cbdff0ef          	jal	ra,11c24 <_malloc_trim_r>
   11f6c:	ec1ff06f          	jal	zero,11e2c <_free_r+0xdc>
   11f70:	00d787b3          	add	a5,a5,a3
   11f74:	eddff06f          	jal	zero,11e50 <_free_r+0x100>
   11f78:	01400613          	addi	a2,zero,20
   11f7c:	02d67863          	bgeu	a2,a3,11fac <_free_r+0x25c>
   11f80:	05400613          	addi	a2,zero,84
   11f84:	06d66863          	bltu	a2,a3,11ff4 <_free_r+0x2a4>
   11f88:	00c7d693          	srli	a3,a5,0xc
   11f8c:	06f68593          	addi	a1,a3,111
   11f90:	00359593          	slli	a1,a1,0x3
   11f94:	06e68613          	addi	a2,a3,110
   11f98:	f15ff06f          	jal	zero,11eac <_free_r+0x15c>
   11f9c:	0017e693          	ori	a3,a5,1
   11fa0:	00d72223          	sw	a3,4(a4)
   11fa4:	00f62023          	sw	a5,0(a2)
   11fa8:	e85ff06f          	jal	zero,11e2c <_free_r+0xdc>
   11fac:	05c68593          	addi	a1,a3,92
   11fb0:	00359593          	slli	a1,a1,0x3
   11fb4:	05b68613          	addi	a2,a3,91
   11fb8:	ef5ff06f          	jal	zero,11eac <_free_r+0x15c>
   11fbc:	00e82a23          	sw	a4,20(a6)
   11fc0:	00e82823          	sw	a4,16(a6)
   11fc4:	00b72623          	sw	a1,12(a4)
   11fc8:	00b72423          	sw	a1,8(a4)
   11fcc:	01172223          	sw	a7,4(a4)
   11fd0:	00f52023          	sw	a5,0(a0)
   11fd4:	e59ff06f          	jal	zero,11e2c <_free_r+0xdc>
   11fd8:	00482503          	lw	a0,4(a6)
   11fdc:	40265613          	srai	a2,a2,0x2
   11fe0:	00100793          	addi	a5,zero,1
   11fe4:	00c797b3          	sll	a5,a5,a2
   11fe8:	00a7e7b3          	or	a5,a5,a0
   11fec:	00f82223          	sw	a5,4(a6)
   11ff0:	ee9ff06f          	jal	zero,11ed8 <_free_r+0x188>
   11ff4:	15400613          	addi	a2,zero,340
   11ff8:	00d66c63          	bltu	a2,a3,12010 <_free_r+0x2c0>
   11ffc:	00f7d693          	srli	a3,a5,0xf
   12000:	07868593          	addi	a1,a3,120
   12004:	00359593          	slli	a1,a1,0x3
   12008:	07768613          	addi	a2,a3,119
   1200c:	ea1ff06f          	jal	zero,11eac <_free_r+0x15c>
   12010:	55400613          	addi	a2,zero,1364
   12014:	00d66c63          	bltu	a2,a3,1202c <_free_r+0x2dc>
   12018:	0127d693          	srli	a3,a5,0x12
   1201c:	07d68593          	addi	a1,a3,125
   12020:	00359593          	slli	a1,a1,0x3
   12024:	07c68613          	addi	a2,a3,124
   12028:	e85ff06f          	jal	zero,11eac <_free_r+0x15c>
   1202c:	3f800593          	addi	a1,zero,1016
   12030:	07e00613          	addi	a2,zero,126
   12034:	e79ff06f          	jal	zero,11eac <_free_r+0x15c>

00012038 <_malloc_r>:
_malloc_r():
   12038:	fc010113          	addi	sp,sp,-64
   1203c:	02812c23          	sw	s0,56(sp)
   12040:	02112e23          	sw	ra,60(sp)
   12044:	00b58793          	addi	a5,a1,11
   12048:	01600713          	addi	a4,zero,22
   1204c:	00050413          	addi	s0,a0,0
   12050:	08f76e63          	bltu	a4,a5,120ec <_malloc_r+0xb4>
   12054:	01000693          	addi	a3,zero,16
   12058:	06b6ec63          	bltu	a3,a1,120d0 <_malloc_r+0x98>
   1205c:	05d000ef          	jal	ra,128b8 <__malloc_lock>
   12060:	01000693          	addi	a3,zero,16
   12064:	01800713          	addi	a4,zero,24
   12068:	00200893          	addi	a7,zero,2
   1206c:	0006d837          	lui	a6,0x6d
   12070:	14080813          	addi	a6,a6,320 # 6d140 <__malloc_av_>
   12074:	00e80733          	add	a4,a6,a4
   12078:	00472783          	lw	a5,4(a4)
   1207c:	ff870613          	addi	a2,a4,-8
   12080:	44c78e63          	beq	a5,a2,124dc <_malloc_r+0x4a4>
   12084:	0047a703          	lw	a4,4(a5)
   12088:	00c7a603          	lw	a2,12(a5)
   1208c:	0087a583          	lw	a1,8(a5)
   12090:	ffc77713          	andi	a4,a4,-4
   12094:	00e78733          	add	a4,a5,a4
   12098:	00472683          	lw	a3,4(a4)
   1209c:	00c5a623          	sw	a2,12(a1)
   120a0:	00f12623          	sw	a5,12(sp)
   120a4:	00b62423          	sw	a1,8(a2)
   120a8:	0016e693          	ori	a3,a3,1
   120ac:	00040513          	addi	a0,s0,0
   120b0:	00d72223          	sw	a3,4(a4)
   120b4:	009000ef          	jal	ra,128bc <__malloc_unlock>
   120b8:	00c12783          	lw	a5,12(sp)
   120bc:	03c12083          	lw	ra,60(sp)
   120c0:	03812403          	lw	s0,56(sp)
   120c4:	00878513          	addi	a0,a5,8
   120c8:	04010113          	addi	sp,sp,64
   120cc:	00008067          	jalr	zero,0(ra)
   120d0:	00c00793          	addi	a5,zero,12
   120d4:	00f42023          	sw	a5,0(s0)
   120d8:	00000513          	addi	a0,zero,0
   120dc:	03c12083          	lw	ra,60(sp)
   120e0:	03812403          	lw	s0,56(sp)
   120e4:	04010113          	addi	sp,sp,64
   120e8:	00008067          	jalr	zero,0(ra)
   120ec:	ff87f693          	andi	a3,a5,-8
   120f0:	fe07c0e3          	blt	a5,zero,120d0 <_malloc_r+0x98>
   120f4:	fcb6eee3          	bltu	a3,a1,120d0 <_malloc_r+0x98>
   120f8:	00d12623          	sw	a3,12(sp)
   120fc:	7bc000ef          	jal	ra,128b8 <__malloc_lock>
   12100:	00c12683          	lw	a3,12(sp)
   12104:	1f700793          	addi	a5,zero,503
   12108:	4cd7f863          	bgeu	a5,a3,125d8 <_malloc_r+0x5a0>
   1210c:	0096d793          	srli	a5,a3,0x9
   12110:	16078e63          	beq	a5,zero,1228c <_malloc_r+0x254>
   12114:	00400713          	addi	a4,zero,4
   12118:	42f76a63          	bltu	a4,a5,1254c <_malloc_r+0x514>
   1211c:	0066d793          	srli	a5,a3,0x6
   12120:	03978893          	addi	a7,a5,57
   12124:	03878e13          	addi	t3,a5,56
   12128:	00389513          	slli	a0,a7,0x3
   1212c:	0006d837          	lui	a6,0x6d
   12130:	14080813          	addi	a6,a6,320 # 6d140 <__malloc_av_>
   12134:	00a80533          	add	a0,a6,a0
   12138:	00452783          	lw	a5,4(a0)
   1213c:	ff850513          	addi	a0,a0,-8
   12140:	02f50863          	beq	a0,a5,12170 <_malloc_r+0x138>
   12144:	00f00313          	addi	t1,zero,15
   12148:	0140006f          	jal	zero,1215c <_malloc_r+0x124>
   1214c:	00c7a583          	lw	a1,12(a5)
   12150:	34065663          	bge	a2,zero,1249c <_malloc_r+0x464>
   12154:	00b50e63          	beq	a0,a1,12170 <_malloc_r+0x138>
   12158:	00058793          	addi	a5,a1,0
   1215c:	0047a703          	lw	a4,4(a5)
   12160:	ffc77713          	andi	a4,a4,-4
   12164:	40d70633          	sub	a2,a4,a3
   12168:	fec352e3          	bge	t1,a2,1214c <_malloc_r+0x114>
   1216c:	000e0893          	addi	a7,t3,0
   12170:	01082783          	lw	a5,16(a6)
   12174:	0006de37          	lui	t3,0x6d
   12178:	148e0e13          	addi	t3,t3,328 # 6d148 <__malloc_av_+0x8>
   1217c:	2dc78e63          	beq	a5,t3,12458 <_malloc_r+0x420>
   12180:	0047a703          	lw	a4,4(a5)
   12184:	00f00593          	addi	a1,zero,15
   12188:	ffc77713          	andi	a4,a4,-4
   1218c:	40d70633          	sub	a2,a4,a3
   12190:	46c5ce63          	blt	a1,a2,1260c <_malloc_r+0x5d4>
   12194:	01c82a23          	sw	t3,20(a6)
   12198:	01c82823          	sw	t3,16(a6)
   1219c:	44065463          	bge	a2,zero,125e4 <_malloc_r+0x5ac>
   121a0:	1ff00613          	addi	a2,zero,511
   121a4:	00482303          	lw	t1,4(a6)
   121a8:	34e66263          	bltu	a2,a4,124ec <_malloc_r+0x4b4>
   121ac:	ff877613          	andi	a2,a4,-8
   121b0:	00860613          	addi	a2,a2,8
   121b4:	00c80633          	add	a2,a6,a2
   121b8:	00062583          	lw	a1,0(a2)
   121bc:	00575513          	srli	a0,a4,0x5
   121c0:	00100713          	addi	a4,zero,1
   121c4:	00a71733          	sll	a4,a4,a0
   121c8:	00e36333          	or	t1,t1,a4
   121cc:	ff860713          	addi	a4,a2,-8
   121d0:	00b7a423          	sw	a1,8(a5)
   121d4:	00e7a623          	sw	a4,12(a5)
   121d8:	00682223          	sw	t1,4(a6)
   121dc:	00f62023          	sw	a5,0(a2)
   121e0:	00f5a623          	sw	a5,12(a1)
   121e4:	4028d793          	srai	a5,a7,0x2
   121e8:	00100513          	addi	a0,zero,1
   121ec:	00f51533          	sll	a0,a0,a5
   121f0:	0aa36663          	bltu	t1,a0,1229c <_malloc_r+0x264>
   121f4:	006577b3          	and	a5,a0,t1
   121f8:	02079463          	bne	a5,zero,12220 <_malloc_r+0x1e8>
   121fc:	00151513          	slli	a0,a0,0x1
   12200:	ffc8f893          	andi	a7,a7,-4
   12204:	006577b3          	and	a5,a0,t1
   12208:	00488893          	addi	a7,a7,4
   1220c:	00079a63          	bne	a5,zero,12220 <_malloc_r+0x1e8>
   12210:	00151513          	slli	a0,a0,0x1
   12214:	006577b3          	and	a5,a0,t1
   12218:	00488893          	addi	a7,a7,4
   1221c:	fe078ae3          	beq	a5,zero,12210 <_malloc_r+0x1d8>
   12220:	00f00e93          	addi	t4,zero,15
   12224:	00389f13          	slli	t5,a7,0x3
   12228:	01e80f33          	add	t5,a6,t5
   1222c:	000f0313          	addi	t1,t5,0
   12230:	00c32703          	lw	a4,12(t1)
   12234:	00088f93          	addi	t6,a7,0
   12238:	32e30c63          	beq	t1,a4,12570 <_malloc_r+0x538>
   1223c:	00472603          	lw	a2,4(a4)
   12240:	00070793          	addi	a5,a4,0
   12244:	00c72703          	lw	a4,12(a4)
   12248:	ffc67613          	andi	a2,a2,-4
   1224c:	40d605b3          	sub	a1,a2,a3
   12250:	32becc63          	blt	t4,a1,12588 <_malloc_r+0x550>
   12254:	fe05c2e3          	blt	a1,zero,12238 <_malloc_r+0x200>
   12258:	00c78633          	add	a2,a5,a2
   1225c:	00462683          	lw	a3,4(a2)
   12260:	0087a583          	lw	a1,8(a5)
   12264:	00040513          	addi	a0,s0,0
   12268:	0016e693          	ori	a3,a3,1
   1226c:	00d62223          	sw	a3,4(a2)
   12270:	00e5a623          	sw	a4,12(a1)
   12274:	00b72423          	sw	a1,8(a4)
   12278:	00f12623          	sw	a5,12(sp)
   1227c:	640000ef          	jal	ra,128bc <__malloc_unlock>
   12280:	00c12783          	lw	a5,12(sp)
   12284:	00878513          	addi	a0,a5,8
   12288:	e55ff06f          	jal	zero,120dc <_malloc_r+0xa4>
   1228c:	20000513          	addi	a0,zero,512
   12290:	04000893          	addi	a7,zero,64
   12294:	03f00e13          	addi	t3,zero,63
   12298:	e95ff06f          	jal	zero,1212c <_malloc_r+0xf4>
   1229c:	00882783          	lw	a5,8(a6)
   122a0:	0047a703          	lw	a4,4(a5)
   122a4:	ffc77713          	andi	a4,a4,-4
   122a8:	40d70633          	sub	a2,a4,a3
   122ac:	00d76663          	bltu	a4,a3,122b8 <_malloc_r+0x280>
   122b0:	01062593          	slti	a1,a2,16
   122b4:	1a058663          	beq	a1,zero,12460 <_malloc_r+0x428>
   122b8:	8981a583          	lw	a1,-1896(gp) # 6d750 <__malloc_top_pad>
   122bc:	8681a503          	lw	a0,-1944(gp) # 6d720 <__malloc_sbrk_base>
   122c0:	fff00613          	addi	a2,zero,-1
   122c4:	00b685b3          	add	a1,a3,a1
   122c8:	42c50663          	beq	a0,a2,126f4 <_malloc_r+0x6bc>
   122cc:	00001637          	lui	a2,0x1
   122d0:	00f60613          	addi	a2,a2,15 # 100f <exit-0xf0a5>
   122d4:	00c585b3          	add	a1,a1,a2
   122d8:	fffff637          	lui	a2,0xfffff
   122dc:	00c5f5b3          	and	a1,a1,a2
   122e0:	00040513          	addi	a0,s0,0
   122e4:	01012e23          	sw	a6,28(sp)
   122e8:	00f12c23          	sw	a5,24(sp)
   122ec:	00d12a23          	sw	a3,20(sp)
   122f0:	00e12823          	sw	a4,16(sp)
   122f4:	00b12623          	sw	a1,12(sp)
   122f8:	354040ef          	jal	ra,1664c <_sbrk_r>
   122fc:	fff00613          	addi	a2,zero,-1
   12300:	00c12583          	lw	a1,12(sp)
   12304:	01012703          	lw	a4,16(sp)
   12308:	01412683          	lw	a3,20(sp)
   1230c:	01812783          	lw	a5,24(sp)
   12310:	01c12803          	lw	a6,28(sp)
   12314:	00050893          	addi	a7,a0,0
   12318:	34c50863          	beq	a0,a2,12668 <_malloc_r+0x630>
   1231c:	00e78533          	add	a0,a5,a4
   12320:	34a8e263          	bltu	a7,a0,12664 <_malloc_r+0x62c>
   12324:	000eee37          	lui	t3,0xee
   12328:	738e0e13          	addi	t3,t3,1848 # ee738 <__malloc_current_mallinfo>
   1232c:	000e2603          	lw	a2,0(t3)
   12330:	00c58633          	add	a2,a1,a2
   12334:	00ce2023          	sw	a2,0(t3)
   12338:	00060e93          	addi	t4,a2,0 # fffff000 <__BSS_END__+0xfff10710>
   1233c:	49150863          	beq	a0,a7,127cc <_malloc_r+0x794>
   12340:	8681af03          	lw	t5,-1944(gp) # 6d720 <__malloc_sbrk_base>
   12344:	fff00613          	addi	a2,zero,-1
   12348:	4acf0063          	beq	t5,a2,127e8 <_malloc_r+0x7b0>
   1234c:	40a88633          	sub	a2,a7,a0
   12350:	01d60633          	add	a2,a2,t4
   12354:	00ce2023          	sw	a2,0(t3)
   12358:	0078fe93          	andi	t4,a7,7
   1235c:	3a0e8c63          	beq	t4,zero,12714 <_malloc_r+0x6dc>
   12360:	ff88f893          	andi	a7,a7,-8
   12364:	00001637          	lui	a2,0x1
   12368:	00888893          	addi	a7,a7,8
   1236c:	00860613          	addi	a2,a2,8 # 1008 <exit-0xf0ac>
   12370:	00b88333          	add	t1,a7,a1
   12374:	41d60633          	sub	a2,a2,t4
   12378:	40660633          	sub	a2,a2,t1
   1237c:	01461613          	slli	a2,a2,0x14
   12380:	01465593          	srli	a1,a2,0x14
   12384:	00040513          	addi	a0,s0,0
   12388:	03012623          	sw	a6,44(sp)
   1238c:	03c12423          	sw	t3,40(sp)
   12390:	02f12223          	sw	a5,36(sp)
   12394:	02d12023          	sw	a3,32(sp)
   12398:	00e12e23          	sw	a4,28(sp)
   1239c:	01112c23          	sw	a7,24(sp)
   123a0:	01d12a23          	sw	t4,20(sp)
   123a4:	00612823          	sw	t1,16(sp)
   123a8:	00b12623          	sw	a1,12(sp)
   123ac:	2a0040ef          	jal	ra,1664c <_sbrk_r>
   123b0:	fff00613          	addi	a2,zero,-1
   123b4:	00c12583          	lw	a1,12(sp)
   123b8:	01012303          	lw	t1,16(sp)
   123bc:	01412e83          	lw	t4,20(sp)
   123c0:	01812883          	lw	a7,24(sp)
   123c4:	01c12703          	lw	a4,28(sp)
   123c8:	02012683          	lw	a3,32(sp)
   123cc:	02412783          	lw	a5,36(sp)
   123d0:	02812e03          	lw	t3,40(sp)
   123d4:	02c12803          	lw	a6,44(sp)
   123d8:	44c50e63          	beq	a0,a2,12834 <_malloc_r+0x7fc>
   123dc:	000e2603          	lw	a2,0(t3)
   123e0:	41150533          	sub	a0,a0,a7
   123e4:	00b50533          	add	a0,a0,a1
   123e8:	00156513          	ori	a0,a0,1
   123ec:	01182423          	sw	a7,8(a6)
   123f0:	00c58633          	add	a2,a1,a2
   123f4:	00a8a223          	sw	a0,4(a7)
   123f8:	00ce2023          	sw	a2,0(t3)
   123fc:	03078e63          	beq	a5,a6,12438 <_malloc_r+0x400>
   12400:	00f00513          	addi	a0,zero,15
   12404:	3ee57663          	bgeu	a0,a4,127f0 <_malloc_r+0x7b8>
   12408:	0047a583          	lw	a1,4(a5)
   1240c:	ff470713          	addi	a4,a4,-12
   12410:	ff877713          	andi	a4,a4,-8
   12414:	0015f593          	andi	a1,a1,1
   12418:	00e5e5b3          	or	a1,a1,a4
   1241c:	00b7a223          	sw	a1,4(a5)
   12420:	00500313          	addi	t1,zero,5
   12424:	00e785b3          	add	a1,a5,a4
   12428:	0065a223          	sw	t1,4(a1)
   1242c:	0065a423          	sw	t1,8(a1)
   12430:	40e56a63          	bltu	a0,a4,12844 <_malloc_r+0x80c>
   12434:	0048a503          	lw	a0,4(a7)
   12438:	8941a703          	lw	a4,-1900(gp) # 6d74c <__malloc_max_sbrked_mem>
   1243c:	00c77463          	bgeu	a4,a2,12444 <_malloc_r+0x40c>
   12440:	88c1aa23          	sw	a2,-1900(gp) # 6d74c <__malloc_max_sbrked_mem>
   12444:	8901a703          	lw	a4,-1904(gp) # 6d748 <__malloc_max_total_mem>
   12448:	00c77463          	bgeu	a4,a2,12450 <_malloc_r+0x418>
   1244c:	88c1a823          	sw	a2,-1904(gp) # 6d748 <__malloc_max_total_mem>
   12450:	00088793          	addi	a5,a7,0
   12454:	21c0006f          	jal	zero,12670 <_malloc_r+0x638>
   12458:	00482303          	lw	t1,4(a6)
   1245c:	d89ff06f          	jal	zero,121e4 <_malloc_r+0x1ac>
   12460:	0016e713          	ori	a4,a3,1
   12464:	00e7a223          	sw	a4,4(a5)
   12468:	00d786b3          	add	a3,a5,a3
   1246c:	00166613          	ori	a2,a2,1
   12470:	00d82423          	sw	a3,8(a6)
   12474:	00040513          	addi	a0,s0,0
   12478:	00c6a223          	sw	a2,4(a3)
   1247c:	00f12623          	sw	a5,12(sp)
   12480:	43c000ef          	jal	ra,128bc <__malloc_unlock>
   12484:	00c12783          	lw	a5,12(sp)
   12488:	03c12083          	lw	ra,60(sp)
   1248c:	03812403          	lw	s0,56(sp)
   12490:	00878513          	addi	a0,a5,8
   12494:	04010113          	addi	sp,sp,64
   12498:	00008067          	jalr	zero,0(ra)
   1249c:	0087a603          	lw	a2,8(a5)
   124a0:	00e78733          	add	a4,a5,a4
   124a4:	00472683          	lw	a3,4(a4)
   124a8:	00b62623          	sw	a1,12(a2)
   124ac:	00f12623          	sw	a5,12(sp)
   124b0:	0016e693          	ori	a3,a3,1
   124b4:	00c5a423          	sw	a2,8(a1)
   124b8:	00040513          	addi	a0,s0,0
   124bc:	00d72223          	sw	a3,4(a4)
   124c0:	3fc000ef          	jal	ra,128bc <__malloc_unlock>
   124c4:	00c12783          	lw	a5,12(sp)
   124c8:	03c12083          	lw	ra,60(sp)
   124cc:	03812403          	lw	s0,56(sp)
   124d0:	00878513          	addi	a0,a5,8
   124d4:	04010113          	addi	sp,sp,64
   124d8:	00008067          	jalr	zero,0(ra)
   124dc:	00c72783          	lw	a5,12(a4)
   124e0:	00288893          	addi	a7,a7,2
   124e4:	c8f706e3          	beq	a4,a5,12170 <_malloc_r+0x138>
   124e8:	b9dff06f          	jal	zero,12084 <_malloc_r+0x4c>
   124ec:	00975613          	srli	a2,a4,0x9
   124f0:	00400593          	addi	a1,zero,4
   124f4:	14c5fe63          	bgeu	a1,a2,12650 <_malloc_r+0x618>
   124f8:	01400593          	addi	a1,zero,20
   124fc:	28c5e063          	bltu	a1,a2,1277c <_malloc_r+0x744>
   12500:	05c60513          	addi	a0,a2,92
   12504:	00351513          	slli	a0,a0,0x3
   12508:	05b60593          	addi	a1,a2,91
   1250c:	00a80533          	add	a0,a6,a0
   12510:	00052603          	lw	a2,0(a0)
   12514:	ff850513          	addi	a0,a0,-8
   12518:	00c51863          	bne	a0,a2,12528 <_malloc_r+0x4f0>
   1251c:	1e00006f          	jal	zero,126fc <_malloc_r+0x6c4>
   12520:	00862603          	lw	a2,8(a2)
   12524:	00c50863          	beq	a0,a2,12534 <_malloc_r+0x4fc>
   12528:	00462583          	lw	a1,4(a2)
   1252c:	ffc5f593          	andi	a1,a1,-4
   12530:	feb768e3          	bltu	a4,a1,12520 <_malloc_r+0x4e8>
   12534:	00c62503          	lw	a0,12(a2)
   12538:	00a7a623          	sw	a0,12(a5)
   1253c:	00c7a423          	sw	a2,8(a5)
   12540:	00f52423          	sw	a5,8(a0)
   12544:	00f62623          	sw	a5,12(a2)
   12548:	c9dff06f          	jal	zero,121e4 <_malloc_r+0x1ac>
   1254c:	01400713          	addi	a4,zero,20
   12550:	14f77063          	bgeu	a4,a5,12690 <_malloc_r+0x658>
   12554:	05400713          	addi	a4,zero,84
   12558:	24f76063          	bltu	a4,a5,12798 <_malloc_r+0x760>
   1255c:	00c6d793          	srli	a5,a3,0xc
   12560:	06f78893          	addi	a7,a5,111
   12564:	06e78e13          	addi	t3,a5,110
   12568:	00389513          	slli	a0,a7,0x3
   1256c:	bc1ff06f          	jal	zero,1212c <_malloc_r+0xf4>
   12570:	001f8f93          	addi	t6,t6,1
   12574:	003ff793          	andi	a5,t6,3
   12578:	00830313          	addi	t1,t1,8
   1257c:	12078863          	beq	a5,zero,126ac <_malloc_r+0x674>
   12580:	00c32703          	lw	a4,12(t1)
   12584:	cb5ff06f          	jal	zero,12238 <_malloc_r+0x200>
   12588:	0087a503          	lw	a0,8(a5)
   1258c:	0016e893          	ori	a7,a3,1
   12590:	0117a223          	sw	a7,4(a5)
   12594:	00e52623          	sw	a4,12(a0)
   12598:	00a72423          	sw	a0,8(a4)
   1259c:	00d786b3          	add	a3,a5,a3
   125a0:	00d82a23          	sw	a3,20(a6)
   125a4:	00d82823          	sw	a3,16(a6)
   125a8:	0015e713          	ori	a4,a1,1
   125ac:	00c78633          	add	a2,a5,a2
   125b0:	01c6a623          	sw	t3,12(a3)
   125b4:	01c6a423          	sw	t3,8(a3)
   125b8:	00e6a223          	sw	a4,4(a3)
   125bc:	00040513          	addi	a0,s0,0
   125c0:	00b62023          	sw	a1,0(a2)
   125c4:	00f12623          	sw	a5,12(sp)
   125c8:	2f4000ef          	jal	ra,128bc <__malloc_unlock>
   125cc:	00c12783          	lw	a5,12(sp)
   125d0:	00878513          	addi	a0,a5,8
   125d4:	b09ff06f          	jal	zero,120dc <_malloc_r+0xa4>
   125d8:	0036d893          	srli	a7,a3,0x3
   125dc:	00868713          	addi	a4,a3,8
   125e0:	a8dff06f          	jal	zero,1206c <_malloc_r+0x34>
   125e4:	00e78733          	add	a4,a5,a4
   125e8:	00472683          	lw	a3,4(a4)
   125ec:	00f12623          	sw	a5,12(sp)
   125f0:	00040513          	addi	a0,s0,0
   125f4:	0016e693          	ori	a3,a3,1
   125f8:	00d72223          	sw	a3,4(a4)
   125fc:	2c0000ef          	jal	ra,128bc <__malloc_unlock>
   12600:	00c12783          	lw	a5,12(sp)
   12604:	00878513          	addi	a0,a5,8
   12608:	ad5ff06f          	jal	zero,120dc <_malloc_r+0xa4>
   1260c:	0016e593          	ori	a1,a3,1
   12610:	00b7a223          	sw	a1,4(a5)
   12614:	00d786b3          	add	a3,a5,a3
   12618:	00d82a23          	sw	a3,20(a6)
   1261c:	00d82823          	sw	a3,16(a6)
   12620:	00166593          	ori	a1,a2,1
   12624:	00e78733          	add	a4,a5,a4
   12628:	01c6a623          	sw	t3,12(a3)
   1262c:	01c6a423          	sw	t3,8(a3)
   12630:	00b6a223          	sw	a1,4(a3)
   12634:	00040513          	addi	a0,s0,0
   12638:	00c72023          	sw	a2,0(a4)
   1263c:	00f12623          	sw	a5,12(sp)
   12640:	27c000ef          	jal	ra,128bc <__malloc_unlock>
   12644:	00c12783          	lw	a5,12(sp)
   12648:	00878513          	addi	a0,a5,8
   1264c:	a91ff06f          	jal	zero,120dc <_malloc_r+0xa4>
   12650:	00675613          	srli	a2,a4,0x6
   12654:	03960513          	addi	a0,a2,57
   12658:	00351513          	slli	a0,a0,0x3
   1265c:	03860593          	addi	a1,a2,56
   12660:	eadff06f          	jal	zero,1250c <_malloc_r+0x4d4>
   12664:	15078863          	beq	a5,a6,127b4 <_malloc_r+0x77c>
   12668:	00882783          	lw	a5,8(a6)
   1266c:	0047a503          	lw	a0,4(a5)
   12670:	ffc57513          	andi	a0,a0,-4
   12674:	40d50633          	sub	a2,a0,a3
   12678:	00d56663          	bltu	a0,a3,12684 <_malloc_r+0x64c>
   1267c:	01062713          	slti	a4,a2,16
   12680:	de0700e3          	beq	a4,zero,12460 <_malloc_r+0x428>
   12684:	00040513          	addi	a0,s0,0
   12688:	234000ef          	jal	ra,128bc <__malloc_unlock>
   1268c:	a4dff06f          	jal	zero,120d8 <_malloc_r+0xa0>
   12690:	05c78893          	addi	a7,a5,92
   12694:	05b78e13          	addi	t3,a5,91
   12698:	00389513          	slli	a0,a7,0x3
   1269c:	a91ff06f          	jal	zero,1212c <_malloc_r+0xf4>
   126a0:	008f2783          	lw	a5,8(t5)
   126a4:	fff88893          	addi	a7,a7,-1
   126a8:	21e79463          	bne	a5,t5,128b0 <_malloc_r+0x878>
   126ac:	0038f793          	andi	a5,a7,3
   126b0:	ff8f0f13          	addi	t5,t5,-8
   126b4:	fe0796e3          	bne	a5,zero,126a0 <_malloc_r+0x668>
   126b8:	00482703          	lw	a4,4(a6)
   126bc:	fff54793          	xori	a5,a0,-1
   126c0:	00e7f7b3          	and	a5,a5,a4
   126c4:	00f82223          	sw	a5,4(a6)
   126c8:	00151513          	slli	a0,a0,0x1
   126cc:	fff50713          	addi	a4,a0,-1
   126d0:	bcf776e3          	bgeu	a4,a5,1229c <_malloc_r+0x264>
   126d4:	00f57733          	and	a4,a0,a5
   126d8:	00071a63          	bne	a4,zero,126ec <_malloc_r+0x6b4>
   126dc:	00151513          	slli	a0,a0,0x1
   126e0:	00f57733          	and	a4,a0,a5
   126e4:	004f8f93          	addi	t6,t6,4
   126e8:	fe070ae3          	beq	a4,zero,126dc <_malloc_r+0x6a4>
   126ec:	000f8893          	addi	a7,t6,0
   126f0:	b35ff06f          	jal	zero,12224 <_malloc_r+0x1ec>
   126f4:	01058593          	addi	a1,a1,16
   126f8:	be9ff06f          	jal	zero,122e0 <_malloc_r+0x2a8>
   126fc:	4025d593          	srai	a1,a1,0x2
   12700:	00100713          	addi	a4,zero,1
   12704:	00b71733          	sll	a4,a4,a1
   12708:	00e36333          	or	t1,t1,a4
   1270c:	00682223          	sw	t1,4(a6)
   12710:	e29ff06f          	jal	zero,12538 <_malloc_r+0x500>
   12714:	00b88333          	add	t1,a7,a1
   12718:	40600633          	sub	a2,zero,t1
   1271c:	01461613          	slli	a2,a2,0x14
   12720:	01465593          	srli	a1,a2,0x14
   12724:	00040513          	addi	a0,s0,0
   12728:	03012423          	sw	a6,40(sp)
   1272c:	03c12223          	sw	t3,36(sp)
   12730:	02f12023          	sw	a5,32(sp)
   12734:	00d12e23          	sw	a3,28(sp)
   12738:	00e12c23          	sw	a4,24(sp)
   1273c:	01112a23          	sw	a7,20(sp)
   12740:	00b12623          	sw	a1,12(sp)
   12744:	00612823          	sw	t1,16(sp)
   12748:	705030ef          	jal	ra,1664c <_sbrk_r>
   1274c:	fff00613          	addi	a2,zero,-1
   12750:	00c12583          	lw	a1,12(sp)
   12754:	01412883          	lw	a7,20(sp)
   12758:	01812703          	lw	a4,24(sp)
   1275c:	01c12683          	lw	a3,28(sp)
   12760:	02012783          	lw	a5,32(sp)
   12764:	02412e03          	lw	t3,36(sp)
   12768:	02812803          	lw	a6,40(sp)
   1276c:	c6c518e3          	bne	a0,a2,123dc <_malloc_r+0x3a4>
   12770:	01012503          	lw	a0,16(sp)
   12774:	00000593          	addi	a1,zero,0
   12778:	c65ff06f          	jal	zero,123dc <_malloc_r+0x3a4>
   1277c:	05400593          	addi	a1,zero,84
   12780:	06c5ee63          	bltu	a1,a2,127fc <_malloc_r+0x7c4>
   12784:	00c75613          	srli	a2,a4,0xc
   12788:	06f60513          	addi	a0,a2,111
   1278c:	00351513          	slli	a0,a0,0x3
   12790:	06e60593          	addi	a1,a2,110
   12794:	d79ff06f          	jal	zero,1250c <_malloc_r+0x4d4>
   12798:	15400713          	addi	a4,zero,340
   1279c:	06f76e63          	bltu	a4,a5,12818 <_malloc_r+0x7e0>
   127a0:	00f6d793          	srli	a5,a3,0xf
   127a4:	07878893          	addi	a7,a5,120
   127a8:	07778e13          	addi	t3,a5,119
   127ac:	00389513          	slli	a0,a7,0x3
   127b0:	97dff06f          	jal	zero,1212c <_malloc_r+0xf4>
   127b4:	000eee37          	lui	t3,0xee
   127b8:	738e0e13          	addi	t3,t3,1848 # ee738 <__malloc_current_mallinfo>
   127bc:	000e2e83          	lw	t4,0(t3)
   127c0:	01d58eb3          	add	t4,a1,t4
   127c4:	01de2023          	sw	t4,0(t3)
   127c8:	b79ff06f          	jal	zero,12340 <_malloc_r+0x308>
   127cc:	01489f13          	slli	t5,a7,0x14
   127d0:	b60f18e3          	bne	t5,zero,12340 <_malloc_r+0x308>
   127d4:	00882883          	lw	a7,8(a6)
   127d8:	00b705b3          	add	a1,a4,a1
   127dc:	0015e513          	ori	a0,a1,1
   127e0:	00a8a223          	sw	a0,4(a7)
   127e4:	c55ff06f          	jal	zero,12438 <_malloc_r+0x400>
   127e8:	8711a423          	sw	a7,-1944(gp) # 6d720 <__malloc_sbrk_base>
   127ec:	b6dff06f          	jal	zero,12358 <_malloc_r+0x320>
   127f0:	00100793          	addi	a5,zero,1
   127f4:	00f8a223          	sw	a5,4(a7)
   127f8:	e8dff06f          	jal	zero,12684 <_malloc_r+0x64c>
   127fc:	15400593          	addi	a1,zero,340
   12800:	06c5ec63          	bltu	a1,a2,12878 <_malloc_r+0x840>
   12804:	00f75613          	srli	a2,a4,0xf
   12808:	07860513          	addi	a0,a2,120
   1280c:	00351513          	slli	a0,a0,0x3
   12810:	07760593          	addi	a1,a2,119
   12814:	cf9ff06f          	jal	zero,1250c <_malloc_r+0x4d4>
   12818:	55400713          	addi	a4,zero,1364
   1281c:	06f76c63          	bltu	a4,a5,12894 <_malloc_r+0x85c>
   12820:	0126d793          	srli	a5,a3,0x12
   12824:	07d78893          	addi	a7,a5,125
   12828:	07c78e13          	addi	t3,a5,124
   1282c:	00389513          	slli	a0,a7,0x3
   12830:	8fdff06f          	jal	zero,1212c <_malloc_r+0xf4>
   12834:	ff8e8e93          	addi	t4,t4,-8
   12838:	01d30533          	add	a0,t1,t4
   1283c:	00000593          	addi	a1,zero,0
   12840:	b9dff06f          	jal	zero,123dc <_malloc_r+0x3a4>
   12844:	00040513          	addi	a0,s0,0
   12848:	00878593          	addi	a1,a5,8
   1284c:	01012a23          	sw	a6,20(sp)
   12850:	01c12823          	sw	t3,16(sp)
   12854:	00d12623          	sw	a3,12(sp)
   12858:	cf8ff0ef          	jal	ra,11d50 <_free_r>
   1285c:	01412803          	lw	a6,20(sp)
   12860:	01012e03          	lw	t3,16(sp)
   12864:	00c12683          	lw	a3,12(sp)
   12868:	00882883          	lw	a7,8(a6)
   1286c:	000e2603          	lw	a2,0(t3)
   12870:	0048a503          	lw	a0,4(a7)
   12874:	bc5ff06f          	jal	zero,12438 <_malloc_r+0x400>
   12878:	55400593          	addi	a1,zero,1364
   1287c:	02c5e463          	bltu	a1,a2,128a4 <_malloc_r+0x86c>
   12880:	01275613          	srli	a2,a4,0x12
   12884:	07d60513          	addi	a0,a2,125
   12888:	00351513          	slli	a0,a0,0x3
   1288c:	07c60593          	addi	a1,a2,124
   12890:	c7dff06f          	jal	zero,1250c <_malloc_r+0x4d4>
   12894:	3f800513          	addi	a0,zero,1016
   12898:	07f00893          	addi	a7,zero,127
   1289c:	07e00e13          	addi	t3,zero,126
   128a0:	88dff06f          	jal	zero,1212c <_malloc_r+0xf4>
   128a4:	3f800513          	addi	a0,zero,1016
   128a8:	07e00593          	addi	a1,zero,126
   128ac:	c61ff06f          	jal	zero,1250c <_malloc_r+0x4d4>
   128b0:	00482783          	lw	a5,4(a6)
   128b4:	e15ff06f          	jal	zero,126c8 <_malloc_r+0x690>

000128b8 <__malloc_lock>:
__malloc_lock():
   128b8:	00008067          	jalr	zero,0(ra)

000128bc <__malloc_unlock>:
__malloc_unlock():
   128bc:	00008067          	jalr	zero,0(ra)

000128c0 <_vfprintf_r>:
_vfprintf_r():
   128c0:	e4010113          	addi	sp,sp,-448
   128c4:	1a112e23          	sw	ra,444(sp)
   128c8:	1a912a23          	sw	s1,436(sp)
   128cc:	1b212823          	sw	s2,432(sp)
   128d0:	19a12823          	sw	s10,400(sp)
   128d4:	00d12623          	sw	a3,12(sp)
   128d8:	00060d13          	addi	s10,a2,0
   128dc:	00058493          	addi	s1,a1,0
   128e0:	00050913          	addi	s2,a0,0
   128e4:	551030ef          	jal	ra,16634 <_localeconv_r>
   128e8:	00052783          	lw	a5,0(a0)
   128ec:	00078513          	addi	a0,a5,0
   128f0:	02f12423          	sw	a5,40(sp)
   128f4:	060040ef          	jal	ra,16954 <strlen>
   128f8:	02a12223          	sw	a0,36(sp)
   128fc:	0c012023          	sw	zero,192(sp)
   12900:	00090863          	beq	s2,zero,12910 <_vfprintf_r+0x50>
   12904:	03492783          	lw	a5,52(s2)
   12908:	00079463          	bne	a5,zero,12910 <_vfprintf_r+0x50>
   1290c:	5c90106f          	jal	zero,146d4 <_vfprintf_r+0x1e14>
   12910:	00c49783          	lh	a5,12(s1)
   12914:	0644a703          	lw	a4,100(s1)
   12918:	00002637          	lui	a2,0x2
   1291c:	01279693          	slli	a3,a5,0x12
   12920:	3606c463          	blt	a3,zero,12c88 <_vfprintf_r+0x3c8>
   12924:	ffffe6b7          	lui	a3,0xffffe
   12928:	00c7e7b3          	or	a5,a5,a2
   1292c:	fff68693          	addi	a3,a3,-1 # ffffdfff <__BSS_END__+0xfff0f70f>
   12930:	00d77733          	and	a4,a4,a3
   12934:	00f49623          	sh	a5,12(s1)
   12938:	01079793          	slli	a5,a5,0x10
   1293c:	4107d793          	srai	a5,a5,0x10
   12940:	06e4a223          	sw	a4,100(s1)
   12944:	0087f713          	andi	a4,a5,8
   12948:	2c070463          	beq	a4,zero,12c10 <_vfprintf_r+0x350>
   1294c:	0104a703          	lw	a4,16(s1)
   12950:	2c070063          	beq	a4,zero,12c10 <_vfprintf_r+0x350>
   12954:	01a7f793          	andi	a5,a5,26
   12958:	00a00713          	addi	a4,zero,10
   1295c:	2ce78a63          	beq	a5,a4,12c30 <_vfprintf_r+0x370>
   12960:	0006c7b7          	lui	a5,0x6c
   12964:	1b312623          	sw	s3,428(sp)
   12968:	1b412423          	sw	s4,424(sp)
   1296c:	0dc10993          	addi	s3,sp,220
   12970:	0006ca37          	lui	s4,0x6c
   12974:	34c78793          	addi	a5,a5,844 # 6c34c <test_data+0xaa28>
   12978:	1a812c23          	sw	s0,440(sp)
   1297c:	1b612023          	sw	s6,416(sp)
   12980:	1b512223          	sw	s5,420(sp)
   12984:	19712e23          	sw	s7,412(sp)
   12988:	19812c23          	sw	s8,408(sp)
   1298c:	19912a23          	sw	s9,404(sp)
   12990:	19b12623          	sw	s11,396(sp)
   12994:	0a012e23          	sw	zero,188(sp)
   12998:	0a012c23          	sw	zero,184(sp)
   1299c:	0b312a23          	sw	s3,180(sp)
   129a0:	00098b13          	addi	s6,s3,0
   129a4:	00f12a23          	sw	a5,20(sp)
   129a8:	4b8a0a13          	addi	s4,s4,1208 # 6c4b8 <zeroes.0>
   129ac:	00012c23          	sw	zero,24(sp)
   129b0:	02012623          	sw	zero,44(sp)
   129b4:	02012823          	sw	zero,48(sp)
   129b8:	04012223          	sw	zero,68(sp)
   129bc:	02012a23          	sw	zero,52(sp)
   129c0:	00012423          	sw	zero,8(sp)
   129c4:	01000413          	addi	s0,zero,16
   129c8:	00912223          	sw	s1,4(sp)
   129cc:	000d4783          	lbu	a5,0(s10)
   129d0:	000d0a93          	addi	s5,s10,0
   129d4:	fdb78713          	addi	a4,a5,-37
   129d8:	06070263          	beq	a4,zero,12a3c <_vfprintf_r+0x17c>
   129dc:	06078063          	beq	a5,zero,12a3c <_vfprintf_r+0x17c>
   129e0:	000a8c13          	addi	s8,s5,0
   129e4:	001ac783          	lbu	a5,1(s5)
   129e8:	001a8a93          	addi	s5,s5,1
   129ec:	00078663          	beq	a5,zero,129f8 <_vfprintf_r+0x138>
   129f0:	fdb78713          	addi	a4,a5,-37
   129f4:	fe0716e3          	bne	a4,zero,129e0 <_vfprintf_r+0x120>
   129f8:	41aa8cb3          	sub	s9,s5,s10
   129fc:	05aa8063          	beq	s5,s10,12a3c <_vfprintf_r+0x17c>
   12a00:	0bc12783          	lw	a5,188(sp)
   12a04:	0b812503          	lw	a0,184(sp)
   12a08:	01ab2023          	sw	s10,0(s6)
   12a0c:	019787b3          	add	a5,a5,s9
   12a10:	00150513          	addi	a0,a0,1
   12a14:	019b2223          	sw	s9,4(s6)
   12a18:	0af12e23          	sw	a5,188(sp)
   12a1c:	0aa12c23          	sw	a0,184(sp)
   12a20:	00700793          	addi	a5,zero,7
   12a24:	008b0b13          	addi	s6,s6,8
   12a28:	24a7c063          	blt	a5,a0,12c68 <_vfprintf_r+0x3a8>
   12a2c:	00812783          	lw	a5,8(sp)
   12a30:	019787b3          	add	a5,a5,s9
   12a34:	00f12423          	sw	a5,8(sp)
   12a38:	001c4783          	lbu	a5,1(s8)
   12a3c:	00079463          	bne	a5,zero,12a44 <_vfprintf_r+0x184>
   12a40:	5cd0106f          	jal	zero,1480c <_vfprintf_r+0x1f4c>
   12a44:	001ac883          	lbu	a7,1(s5)
   12a48:	001a8d13          	addi	s10,s5,1
   12a4c:	080109a3          	sb	zero,147(sp)
   12a50:	fff00a93          	addi	s5,zero,-1
   12a54:	00012023          	sw	zero,0(sp)
   12a58:	00000b93          	addi	s7,zero,0
   12a5c:	05a00c13          	addi	s8,zero,90
   12a60:	001d0d13          	addi	s10,s10,1
   12a64:	fe088793          	addi	a5,a7,-32
   12a68:	04fc6c63          	bltu	s8,a5,12ac0 <_vfprintf_r+0x200>
   12a6c:	01412703          	lw	a4,20(sp)
   12a70:	00279793          	slli	a5,a5,0x2
   12a74:	00e787b3          	add	a5,a5,a4
   12a78:	0007a783          	lw	a5,0(a5)
   12a7c:	00078067          	jalr	zero,0(a5)
   12a80:	fd088793          	addi	a5,a7,-48
   12a84:	00012023          	sw	zero,0(sp)
   12a88:	00900693          	addi	a3,zero,9
   12a8c:	00012703          	lw	a4,0(sp)
   12a90:	00012603          	lw	a2,0(sp)
   12a94:	000d4883          	lbu	a7,0(s10)
   12a98:	00271713          	slli	a4,a4,0x2
   12a9c:	00c70733          	add	a4,a4,a2
   12aa0:	00171713          	slli	a4,a4,0x1
   12aa4:	00e787b3          	add	a5,a5,a4
   12aa8:	00f12023          	sw	a5,0(sp)
   12aac:	fd088793          	addi	a5,a7,-48
   12ab0:	001d0d13          	addi	s10,s10,1
   12ab4:	fcf6fce3          	bgeu	a3,a5,12a8c <_vfprintf_r+0x1cc>
   12ab8:	fe088793          	addi	a5,a7,-32
   12abc:	fafc78e3          	bgeu	s8,a5,12a6c <_vfprintf_r+0x1ac>
   12ac0:	00089463          	bne	a7,zero,12ac8 <_vfprintf_r+0x208>
   12ac4:	5490106f          	jal	zero,1480c <_vfprintf_r+0x1f4c>
   12ac8:	00100c93          	addi	s9,zero,1
   12acc:	11110e23          	sb	a7,284(sp)
   12ad0:	080109a3          	sb	zero,147(sp)
   12ad4:	000c8c13          	addi	s8,s9,0
   12ad8:	00012823          	sw	zero,16(sp)
   12adc:	00000a93          	addi	s5,zero,0
   12ae0:	02012023          	sw	zero,32(sp)
   12ae4:	00012e23          	sw	zero,28(sp)
   12ae8:	00000313          	addi	t1,zero,0
   12aec:	11c10793          	addi	a5,sp,284
   12af0:	0bc12603          	lw	a2,188(sp)
   12af4:	084bfd93          	andi	s11,s7,132
   12af8:	00060813          	addi	a6,a2,0 # 2000 <exit-0xe0b4>
   12afc:	7e0d8663          	beq	s11,zero,132e8 <_vfprintf_r+0xa28>
   12b00:	09314703          	lbu	a4,147(sp)
   12b04:	06070863          	beq	a4,zero,12b74 <_vfprintf_r+0x2b4>
   12b08:	0b812583          	lw	a1,184(sp)
   12b0c:	00000713          	addi	a4,zero,0
   12b10:	09310513          	addi	a0,sp,147
   12b14:	00ab2023          	sw	a0,0(s6)
   12b18:	00160613          	addi	a2,a2,1
   12b1c:	00100513          	addi	a0,zero,1
   12b20:	00158593          	addi	a1,a1,1
   12b24:	00ab2223          	sw	a0,4(s6)
   12b28:	0ac12e23          	sw	a2,188(sp)
   12b2c:	0ab12c23          	sw	a1,184(sp)
   12b30:	00700513          	addi	a0,zero,7
   12b34:	008b0b13          	addi	s6,s6,8
   12b38:	58b54e63          	blt	a0,a1,130d4 <_vfprintf_r+0x814>
   12b3c:	02070c63          	beq	a4,zero,12b74 <_vfprintf_r+0x2b4>
   12b40:	0b812583          	lw	a1,184(sp)
   12b44:	09410713          	addi	a4,sp,148
   12b48:	00eb2023          	sw	a4,0(s6)
   12b4c:	00260613          	addi	a2,a2,2
   12b50:	00200713          	addi	a4,zero,2
   12b54:	00158593          	addi	a1,a1,1
   12b58:	00eb2223          	sw	a4,4(s6)
   12b5c:	0ac12e23          	sw	a2,188(sp)
   12b60:	0ab12c23          	sw	a1,184(sp)
   12b64:	00700713          	addi	a4,zero,7
   12b68:	008b0b13          	addi	s6,s6,8
   12b6c:	00b75463          	bge	a4,a1,12b74 <_vfprintf_r+0x2b4>
   12b70:	1b40106f          	jal	zero,13d24 <_vfprintf_r+0x1464>
   12b74:	08000713          	addi	a4,zero,128
   12b78:	00ed9463          	bne	s11,a4,12b80 <_vfprintf_r+0x2c0>
   12b7c:	7d10006f          	jal	zero,13b4c <_vfprintf_r+0x128c>
   12b80:	419a8ab3          	sub	s5,s5,s9
   12b84:	79504063          	blt	zero,s5,13304 <_vfprintf_r+0xa44>
   12b88:	100bf713          	andi	a4,s7,256
   12b8c:	060718e3          	bne	a4,zero,133fc <_vfprintf_r+0xb3c>
   12b90:	00fb2023          	sw	a5,0(s6)
   12b94:	0b812783          	lw	a5,184(sp)
   12b98:	01960633          	add	a2,a2,s9
   12b9c:	0ac12e23          	sw	a2,188(sp)
   12ba0:	00178793          	addi	a5,a5,1
   12ba4:	019b2223          	sw	s9,4(s6)
   12ba8:	00700713          	addi	a4,zero,7
   12bac:	0af12c23          	sw	a5,184(sp)
   12bb0:	68f74263          	blt	a4,a5,13234 <_vfprintf_r+0x974>
   12bb4:	008b0b13          	addi	s6,s6,8
   12bb8:	004bfe13          	andi	t3,s7,4
   12bbc:	000e0a63          	beq	t3,zero,12bd0 <_vfprintf_r+0x310>
   12bc0:	00012783          	lw	a5,0(sp)
   12bc4:	41878ab3          	sub	s5,a5,s8
   12bc8:	01505463          	bge	zero,s5,12bd0 <_vfprintf_r+0x310>
   12bcc:	1900106f          	jal	zero,13d5c <_vfprintf_r+0x149c>
   12bd0:	00012303          	lw	t1,0(sp)
   12bd4:	01835463          	bge	t1,s8,12bdc <_vfprintf_r+0x31c>
   12bd8:	000c0313          	addi	t1,s8,0
   12bdc:	00812783          	lw	a5,8(sp)
   12be0:	006787b3          	add	a5,a5,t1
   12be4:	00f12423          	sw	a5,8(sp)
   12be8:	00060463          	beq	a2,zero,12bf0 <_vfprintf_r+0x330>
   12bec:	0940106f          	jal	zero,13c80 <_vfprintf_r+0x13c0>
   12bf0:	01012783          	lw	a5,16(sp)
   12bf4:	0a012c23          	sw	zero,184(sp)
   12bf8:	00078863          	beq	a5,zero,12c08 <_vfprintf_r+0x348>
   12bfc:	01012583          	lw	a1,16(sp)
   12c00:	00090513          	addi	a0,s2,0
   12c04:	94cff0ef          	jal	ra,11d50 <_free_r>
   12c08:	00098b13          	addi	s6,s3,0
   12c0c:	dc1ff06f          	jal	zero,129cc <_vfprintf_r+0x10c>
   12c10:	00048593          	addi	a1,s1,0
   12c14:	00090513          	addi	a0,s2,0
   12c18:	764030ef          	jal	ra,1637c <__swsetup_r>
   12c1c:	06051a63          	bne	a0,zero,12c90 <_vfprintf_r+0x3d0>
   12c20:	00c49783          	lh	a5,12(s1)
   12c24:	00a00713          	addi	a4,zero,10
   12c28:	01a7f793          	andi	a5,a5,26
   12c2c:	d2e79ae3          	bne	a5,a4,12960 <_vfprintf_r+0xa0>
   12c30:	00e49783          	lh	a5,14(s1)
   12c34:	d207c6e3          	blt	a5,zero,12960 <_vfprintf_r+0xa0>
   12c38:	00c12683          	lw	a3,12(sp)
   12c3c:	000d0613          	addi	a2,s10,0
   12c40:	00048593          	addi	a1,s1,0
   12c44:	00090513          	addi	a0,s2,0
   12c48:	515020ef          	jal	ra,1595c <__sbprintf>
   12c4c:	00a12423          	sw	a0,8(sp)
   12c50:	0900106f          	jal	zero,13ce0 <_vfprintf_r+0x1420>
   12c54:	000d4883          	lbu	a7,0(s10)
   12c58:	e09ff06f          	jal	zero,12a60 <_vfprintf_r+0x1a0>
   12c5c:	000d4883          	lbu	a7,0(s10)
   12c60:	020beb93          	ori	s7,s7,32
   12c64:	dfdff06f          	jal	zero,12a60 <_vfprintf_r+0x1a0>
   12c68:	00412583          	lw	a1,4(sp)
   12c6c:	0b410613          	addi	a2,sp,180
   12c70:	00090513          	addi	a0,s2,0
   12c74:	5a9020ef          	jal	ra,15a1c <__sprint_r>
   12c78:	00050463          	beq	a0,zero,12c80 <_vfprintf_r+0x3c0>
   12c7c:	1b50206f          	jal	zero,15630 <_vfprintf_r+0x2d70>
   12c80:	00098b13          	addi	s6,s3,0
   12c84:	da9ff06f          	jal	zero,12a2c <_vfprintf_r+0x16c>
   12c88:	01271693          	slli	a3,a4,0x12
   12c8c:	ca06dce3          	bge	a3,zero,12944 <_vfprintf_r+0x84>
   12c90:	fff00793          	addi	a5,zero,-1
   12c94:	00f12423          	sw	a5,8(sp)
   12c98:	0480106f          	jal	zero,13ce0 <_vfprintf_r+0x1420>
   12c9c:	008bf793          	andi	a5,s7,8
   12ca0:	00078463          	beq	a5,zero,12ca8 <_vfprintf_r+0x3e8>
   12ca4:	5bc0106f          	jal	zero,14260 <_vfprintf_r+0x19a0>
   12ca8:	00c12783          	lw	a5,12(sp)
   12cac:	08010513          	addi	a0,sp,128
   12cb0:	01112823          	sw	a7,16(sp)
   12cb4:	00778793          	addi	a5,a5,7
   12cb8:	ff87f793          	andi	a5,a5,-8
   12cbc:	0047a603          	lw	a2,4(a5)
   12cc0:	0007a583          	lw	a1,0(a5)
   12cc4:	00878793          	addi	a5,a5,8
   12cc8:	00f12623          	sw	a5,12(sp)
   12ccc:	0890e0ef          	jal	ra,21554 <__extenddftf2>
   12cd0:	08012603          	lw	a2,128(sp)
   12cd4:	08412683          	lw	a3,132(sp)
   12cd8:	08812703          	lw	a4,136(sp)
   12cdc:	08c12783          	lw	a5,140(sp)
   12ce0:	01012883          	lw	a7,16(sp)
   12ce4:	0c010513          	addi	a0,sp,192
   12ce8:	01112823          	sw	a7,16(sp)
   12cec:	0cf12623          	sw	a5,204(sp)
   12cf0:	0cc12023          	sw	a2,192(sp)
   12cf4:	0cd12223          	sw	a3,196(sp)
   12cf8:	0ce12423          	sw	a4,200(sp)
   12cfc:	188040ef          	jal	ra,16e84 <_ldcheck>
   12d00:	08a12c23          	sw	a0,152(sp)
   12d04:	00200793          	addi	a5,zero,2
   12d08:	01012883          	lw	a7,16(sp)
   12d0c:	00f51463          	bne	a0,a5,12d14 <_vfprintf_r+0x454>
   12d10:	25d0106f          	jal	zero,1476c <_vfprintf_r+0x1eac>
   12d14:	00100793          	addi	a5,zero,1
   12d18:	00f51463          	bne	a0,a5,12d20 <_vfprintf_r+0x460>
   12d1c:	4110106f          	jal	zero,1492c <_vfprintf_r+0x206c>
   12d20:	fdf8fc13          	andi	s8,a7,-33
   12d24:	04100793          	addi	a5,zero,65
   12d28:	00fc0463          	beq	s8,a5,12d30 <_vfprintf_r+0x470>
   12d2c:	3c90106f          	jal	zero,148f4 <_vfprintf_r+0x2034>
   12d30:	03000793          	addi	a5,zero,48
   12d34:	08f10a23          	sb	a5,148(sp)
   12d38:	06100713          	addi	a4,zero,97
   12d3c:	05800793          	addi	a5,zero,88
   12d40:	00e89463          	bne	a7,a4,12d48 <_vfprintf_r+0x488>
   12d44:	12c0206f          	jal	zero,14e70 <_vfprintf_r+0x25b0>
   12d48:	08f10aa3          	sb	a5,149(sp)
   12d4c:	06300793          	addi	a5,zero,99
   12d50:	0157d463          	bge	a5,s5,12d58 <_vfprintf_r+0x498>
   12d54:	2440206f          	jal	zero,14f98 <_vfprintf_r+0x26d8>
   12d58:	0cc12703          	lw	a4,204(sp)
   12d5c:	0c012683          	lw	a3,192(sp)
   12d60:	0c412603          	lw	a2,196(sp)
   12d64:	0c812583          	lw	a1,200(sp)
   12d68:	00075463          	bge	a4,zero,12d70 <_vfprintf_r+0x4b0>
   12d6c:	09d0206f          	jal	zero,15608 <_vfprintf_r+0x2d48>
   12d70:	02012c23          	sw	zero,56(sp)
   12d74:	00012823          	sw	zero,16(sp)
   12d78:	11c10793          	addi	a5,sp,284
   12d7c:	08010d93          	addi	s11,sp,128
   12d80:	04f12023          	sw	a5,64(sp)
   12d84:	06c12a23          	sw	a2,116(sp)
   12d88:	002be793          	ori	a5,s7,2
   12d8c:	06b12c23          	sw	a1,120(sp)
   12d90:	000d8513          	addi	a0,s11,0
   12d94:	07010593          	addi	a1,sp,112
   12d98:	09810613          	addi	a2,sp,152
   12d9c:	03112e23          	sw	a7,60(sp)
   12da0:	00f12e23          	sw	a5,28(sp)
   12da4:	06d12823          	sw	a3,112(sp)
   12da8:	06e12e23          	sw	a4,124(sp)
   12dac:	435030ef          	jal	ra,169e0 <frexpl>
   12db0:	08812703          	lw	a4,136(sp)
   12db4:	08012603          	lw	a2,128(sp)
   12db8:	08412683          	lw	a3,132(sp)
   12dbc:	06e12c23          	sw	a4,120(sp)
   12dc0:	08c12703          	lw	a4,140(sp)
   12dc4:	06c12823          	sw	a2,112(sp)
   12dc8:	06d12a23          	sw	a3,116(sp)
   12dcc:	06010613          	addi	a2,sp,96
   12dd0:	3ffc06b7          	lui	a3,0x3ffc0
   12dd4:	07010593          	addi	a1,sp,112
   12dd8:	000d8513          	addi	a0,s11,0
   12ddc:	06d12623          	sw	a3,108(sp)
   12de0:	06e12e23          	sw	a4,124(sp)
   12de4:	06012023          	sw	zero,96(sp)
   12de8:	06012223          	sw	zero,100(sp)
   12dec:	06012423          	sw	zero,104(sp)
   12df0:	2400c0ef          	jal	ra,1f030 <__multf3>
   12df4:	08012e03          	lw	t3,128(sp)
   12df8:	08412803          	lw	a6,132(sp)
   12dfc:	08812603          	lw	a2,136(sp)
   12e00:	07010593          	addi	a1,sp,112
   12e04:	000d8513          	addi	a0,s11,0
   12e08:	03c12623          	sw	t3,44(sp)
   12e0c:	03012023          	sw	a6,32(sp)
   12e10:	00c12c23          	sw	a2,24(sp)
   12e14:	06012823          	sw	zero,112(sp)
   12e18:	06012a23          	sw	zero,116(sp)
   12e1c:	06012c23          	sw	zero,120(sp)
   12e20:	06012e23          	sw	zero,124(sp)
   12e24:	6b50b0ef          	jal	ra,1ecd8 <__eqtf2>
   12e28:	08c12b83          	lw	s7,140(sp)
   12e2c:	01812603          	lw	a2,24(sp)
   12e30:	02012803          	lw	a6,32(sp)
   12e34:	02c12e03          	lw	t3,44(sp)
   12e38:	03c12883          	lw	a7,60(sp)
   12e3c:	04012783          	lw	a5,64(sp)
   12e40:	00051663          	bne	a0,zero,12e4c <_vfprintf_r+0x58c>
   12e44:	00100693          	addi	a3,zero,1
   12e48:	08d12c23          	sw	a3,152(sp)
   12e4c:	06100693          	addi	a3,zero,97
   12e50:	00d89463          	bne	a7,a3,12e58 <_vfprintf_r+0x598>
   12e54:	1990206f          	jal	zero,157ec <_vfprintf_r+0x2f2c>
   12e58:	000626b7          	lui	a3,0x62
   12e5c:	80868713          	addi	a4,a3,-2040 # 61808 <__clzsi2+0x400bc>
   12e60:	00e12c23          	sw	a4,24(sp)
   12e64:	03612023          	sw	s6,32(sp)
   12e68:	000b8c93          	addi	s9,s7,0
   12e6c:	05212423          	sw	s2,72(sp)
   12e70:	01812483          	lw	s1,24(sp)
   12e74:	00078c13          	addi	s8,a5,0
   12e78:	03112623          	sw	a7,44(sp)
   12e7c:	02f12e23          	sw	a5,60(sp)
   12e80:	05a12023          	sw	s10,64(sp)
   12e84:	00080b13          	addi	s6,a6,0
   12e88:	00060b93          	addi	s7,a2,0
   12e8c:	000e0913          	addi	s2,t3,0
   12e90:	03c0006f          	jal	zero,12ecc <_vfprintf_r+0x60c>
   12e94:	07010593          	addi	a1,sp,112
   12e98:	000d8513          	addi	a0,s11,0
   12e9c:	09212023          	sw	s2,128(sp)
   12ea0:	09612223          	sw	s6,132(sp)
   12ea4:	09712423          	sw	s7,136(sp)
   12ea8:	09912623          	sw	s9,140(sp)
   12eac:	06012823          	sw	zero,112(sp)
   12eb0:	06012a23          	sw	zero,116(sp)
   12eb4:	06012c23          	sw	zero,120(sp)
   12eb8:	06012e23          	sw	zero,124(sp)
   12ebc:	61d0b0ef          	jal	ra,1ecd8 <__eqtf2>
   12ec0:	00051463          	bne	a0,zero,12ec8 <_vfprintf_r+0x608>
   12ec4:	0210206f          	jal	zero,156e4 <_vfprintf_r+0x2e24>
   12ec8:	fffa8a93          	addi	s5,s5,-1
   12ecc:	400307b7          	lui	a5,0x40030
   12ed0:	06010613          	addi	a2,sp,96
   12ed4:	07010593          	addi	a1,sp,112
   12ed8:	000d8513          	addi	a0,s11,0
   12edc:	06f12623          	sw	a5,108(sp)
   12ee0:	07212823          	sw	s2,112(sp)
   12ee4:	07612a23          	sw	s6,116(sp)
   12ee8:	07712c23          	sw	s7,120(sp)
   12eec:	07912e23          	sw	s9,124(sp)
   12ef0:	06012023          	sw	zero,96(sp)
   12ef4:	06012223          	sw	zero,100(sp)
   12ef8:	06012423          	sw	zero,104(sp)
   12efc:	1340c0ef          	jal	ra,1f030 <__multf3>
   12f00:	000d8513          	addi	a0,s11,0
   12f04:	4100e0ef          	jal	ra,21314 <__fixtfsi>
   12f08:	00050593          	addi	a1,a0,0
   12f0c:	00050d13          	addi	s10,a0,0
   12f10:	000d8513          	addi	a0,s11,0
   12f14:	08012c83          	lw	s9,128(sp)
   12f18:	08412b83          	lw	s7,132(sp)
   12f1c:	08812b03          	lw	s6,136(sp)
   12f20:	08c12903          	lw	s2,140(sp)
   12f24:	4e40e0ef          	jal	ra,21408 <__floatsitf>
   12f28:	08812783          	lw	a5,136(sp)
   12f2c:	08012603          	lw	a2,128(sp)
   12f30:	08412683          	lw	a3,132(sp)
   12f34:	04f12c23          	sw	a5,88(sp)
   12f38:	08c12783          	lw	a5,140(sp)
   12f3c:	04c12823          	sw	a2,80(sp)
   12f40:	06010593          	addi	a1,sp,96
   12f44:	05010613          	addi	a2,sp,80
   12f48:	07010513          	addi	a0,sp,112
   12f4c:	07912023          	sw	s9,96(sp)
   12f50:	07712223          	sw	s7,100(sp)
   12f54:	07612423          	sw	s6,104(sp)
   12f58:	07212623          	sw	s2,108(sp)
   12f5c:	04d12a23          	sw	a3,84(sp)
   12f60:	04f12e23          	sw	a5,92(sp)
   12f64:	00c0d0ef          	jal	ra,1ff70 <__subtf3>
   12f68:	01a487b3          	add	a5,s1,s10
   12f6c:	0007c683          	lbu	a3,0(a5) # 40030000 <__BSS_END__+0x3ff41710>
   12f70:	000c0593          	addi	a1,s8,0
   12f74:	001c0c13          	addi	s8,s8,1
   12f78:	07012903          	lw	s2,112(sp)
   12f7c:	07412b03          	lw	s6,116(sp)
   12f80:	07812b83          	lw	s7,120(sp)
   12f84:	07c12c83          	lw	s9,124(sp)
   12f88:	fedc0fa3          	sb	a3,-1(s8)
   12f8c:	f00a94e3          	bne	s5,zero,12e94 <_vfprintf_r+0x5d4>
   12f90:	02c12883          	lw	a7,44(sp)
   12f94:	03c12783          	lw	a5,60(sp)
   12f98:	00090e13          	addi	t3,s2,0
   12f9c:	000b0813          	addi	a6,s6,0
   12fa0:	000b8613          	addi	a2,s7,0
   12fa4:	00058493          	addi	s1,a1,0
   12fa8:	000c8b93          	addi	s7,s9,0
   12fac:	3ffe0ab7          	lui	s5,0x3ffe0
   12fb0:	07010593          	addi	a1,sp,112
   12fb4:	000d8513          	addi	a0,s11,0
   12fb8:	05112623          	sw	a7,76(sp)
   12fbc:	02f12623          	sw	a5,44(sp)
   12fc0:	04812903          	lw	s2,72(sp)
   12fc4:	000d0c93          	addi	s9,s10,0
   12fc8:	09c12023          	sw	t3,128(sp)
   12fcc:	04012d03          	lw	s10,64(sp)
   12fd0:	05c12423          	sw	t3,72(sp)
   12fd4:	09012223          	sw	a6,132(sp)
   12fd8:	05012023          	sw	a6,64(sp)
   12fdc:	08c12423          	sw	a2,136(sp)
   12fe0:	02c12e23          	sw	a2,60(sp)
   12fe4:	09712623          	sw	s7,140(sp)
   12fe8:	06012823          	sw	zero,112(sp)
   12fec:	06012a23          	sw	zero,116(sp)
   12ff0:	06012c23          	sw	zero,120(sp)
   12ff4:	07512e23          	sw	s5,124(sp)
   12ff8:	5d10b0ef          	jal	ra,1edc8 <__getf2>
   12ffc:	02012b03          	lw	s6,32(sp)
   13000:	02c12783          	lw	a5,44(sp)
   13004:	04c12883          	lw	a7,76(sp)
   13008:	02a04463          	blt	zero,a0,13030 <_vfprintf_r+0x770>
   1300c:	07010593          	addi	a1,sp,112
   13010:	000d8513          	addi	a0,s11,0
   13014:	03112023          	sw	a7,32(sp)
   13018:	4c10b0ef          	jal	ra,1ecd8 <__eqtf2>
   1301c:	02012883          	lw	a7,32(sp)
   13020:	02c12783          	lw	a5,44(sp)
   13024:	04051c63          	bne	a0,zero,1307c <_vfprintf_r+0x7bc>
   13028:	001cfc93          	andi	s9,s9,1
   1302c:	040c8863          	beq	s9,zero,1307c <_vfprintf_r+0x7bc>
   13030:	01812703          	lw	a4,24(sp)
   13034:	0a912023          	sw	s1,160(sp)
   13038:	fffc4603          	lbu	a2,-1(s8)
   1303c:	00f74583          	lbu	a1,15(a4)
   13040:	000c0713          	addi	a4,s8,0
   13044:	02c59063          	bne	a1,a2,13064 <_vfprintf_r+0x7a4>
   13048:	03000513          	addi	a0,zero,48
   1304c:	fea70fa3          	sb	a0,-1(a4)
   13050:	0a012703          	lw	a4,160(sp)
   13054:	fff70693          	addi	a3,a4,-1
   13058:	0ad12023          	sw	a3,160(sp)
   1305c:	fff74603          	lbu	a2,-1(a4)
   13060:	fec586e3          	beq	a1,a2,1304c <_vfprintf_r+0x78c>
   13064:	00160593          	addi	a1,a2,1
   13068:	03900513          	addi	a0,zero,57
   1306c:	0ff5f593          	andi	a1,a1,255
   13070:	00a61463          	bne	a2,a0,13078 <_vfprintf_r+0x7b8>
   13074:	1980206f          	jal	zero,1520c <_vfprintf_r+0x294c>
   13078:	feb70fa3          	sb	a1,-1(a4)
   1307c:	09812603          	lw	a2,152(sp)
   13080:	00f88713          	addi	a4,a7,15
   13084:	0ae10223          	sb	a4,164(sp)
   13088:	40fc06b3          	sub	a3,s8,a5
   1308c:	fff60713          	addi	a4,a2,-1
   13090:	08e12c23          	sw	a4,152(sp)
   13094:	00d12c23          	sw	a3,24(sp)
   13098:	00075463          	bge	a4,zero,130a0 <_vfprintf_r+0x7e0>
   1309c:	7340206f          	jal	zero,157d0 <_vfprintf_r+0x2f10>
   130a0:	02b00693          	addi	a3,zero,43
   130a4:	0ad102a3          	sb	a3,165(sp)
   130a8:	00900693          	addi	a3,zero,9
   130ac:	00e6d463          	bge	a3,a4,130b4 <_vfprintf_r+0x7f4>
   130b0:	07c0206f          	jal	zero,1512c <_vfprintf_r+0x286c>
   130b4:	0a610693          	addi	a3,sp,166
   130b8:	03070713          	addi	a4,a4,48
   130bc:	00e68023          	sb	a4,0(a3)
   130c0:	18010713          	addi	a4,sp,384
   130c4:	40e686b3          	sub	a3,a3,a4
   130c8:	0dd68713          	addi	a4,a3,221
   130cc:	02e12623          	sw	a4,44(sp)
   130d0:	0e80206f          	jal	zero,151b8 <_vfprintf_r+0x28f8>
   130d4:	00412583          	lw	a1,4(sp)
   130d8:	0b410613          	addi	a2,sp,180
   130dc:	00090513          	addi	a0,s2,0
   130e0:	04612423          	sw	t1,72(sp)
   130e4:	04f12023          	sw	a5,64(sp)
   130e8:	03112e23          	sw	a7,60(sp)
   130ec:	02e12c23          	sw	a4,56(sp)
   130f0:	12d020ef          	jal	ra,15a1c <__sprint_r>
   130f4:	3a0512e3          	bne	a0,zero,13c98 <_vfprintf_r+0x13d8>
   130f8:	0bc12603          	lw	a2,188(sp)
   130fc:	04812303          	lw	t1,72(sp)
   13100:	04012783          	lw	a5,64(sp)
   13104:	03c12883          	lw	a7,60(sp)
   13108:	03812703          	lw	a4,56(sp)
   1310c:	00098b13          	addi	s6,s3,0
   13110:	a2dff06f          	jal	zero,12b3c <_vfprintf_r+0x27c>
   13114:	0b812a83          	lw	s5,184(sp)
   13118:	01812683          	lw	a3,24(sp)
   1311c:	00100713          	addi	a4,zero,1
   13120:	00e60633          	add	a2,a2,a4
   13124:	00ea8ab3          	add	s5,s5,a4
   13128:	008b0d93          	addi	s11,s6,8
   1312c:	78d758e3          	bge	a4,a3,140bc <_vfprintf_r+0x17fc>
   13130:	00100713          	addi	a4,zero,1
   13134:	00eb2223          	sw	a4,4(s6)
   13138:	00fb2023          	sw	a5,0(s6)
   1313c:	0ac12e23          	sw	a2,188(sp)
   13140:	0b512c23          	sw	s5,184(sp)
   13144:	00700713          	addi	a4,zero,7
   13148:	01575463          	bge	a4,s5,13150 <_vfprintf_r+0x890>
   1314c:	3f80106f          	jal	zero,14544 <_vfprintf_r+0x1c84>
   13150:	02412703          	lw	a4,36(sp)
   13154:	001a8a93          	addi	s5,s5,1 # 3ffe0001 <__BSS_END__+0x3fef1711>
   13158:	0b512c23          	sw	s5,184(sp)
   1315c:	00e60633          	add	a2,a2,a4
   13160:	02812703          	lw	a4,40(sp)
   13164:	0ac12e23          	sw	a2,188(sp)
   13168:	008d8d93          	addi	s11,s11,8
   1316c:	feedac23          	sw	a4,-8(s11)
   13170:	02412703          	lw	a4,36(sp)
   13174:	feedae23          	sw	a4,-4(s11)
   13178:	00700713          	addi	a4,zero,7
   1317c:	01575463          	bge	a4,s5,13184 <_vfprintf_r+0x8c4>
   13180:	3f00106f          	jal	zero,14570 <_vfprintf_r+0x1cb0>
   13184:	0c812703          	lw	a4,200(sp)
   13188:	0c012503          	lw	a0,192(sp)
   1318c:	0c412583          	lw	a1,196(sp)
   13190:	02f12023          	sw	a5,32(sp)
   13194:	08e12423          	sw	a4,136(sp)
   13198:	01812783          	lw	a5,24(sp)
   1319c:	0cc12703          	lw	a4,204(sp)
   131a0:	08a12023          	sw	a0,128(sp)
   131a4:	08b12223          	sw	a1,132(sp)
   131a8:	08010513          	addi	a0,sp,128
   131ac:	07010593          	addi	a1,sp,112
   131b0:	00c12e23          	sw	a2,28(sp)
   131b4:	06012823          	sw	zero,112(sp)
   131b8:	06012a23          	sw	zero,116(sp)
   131bc:	06012c23          	sw	zero,120(sp)
   131c0:	06012e23          	sw	zero,124(sp)
   131c4:	08e12623          	sw	a4,140(sp)
   131c8:	fff78b13          	addi	s6,a5,-1
   131cc:	30d0b0ef          	jal	ra,1ecd8 <__eqtf2>
   131d0:	01c12603          	lw	a2,28(sp)
   131d4:	720506e3          	beq	a0,zero,14100 <_vfprintf_r+0x1840>
   131d8:	02012783          	lw	a5,32(sp)
   131dc:	001a8a93          	addi	s5,s5,1
   131e0:	01660633          	add	a2,a2,s6
   131e4:	00178793          	addi	a5,a5,1
   131e8:	0b512c23          	sw	s5,184(sp)
   131ec:	0ac12e23          	sw	a2,188(sp)
   131f0:	00fda023          	sw	a5,0(s11)
   131f4:	016da223          	sw	s6,4(s11)
   131f8:	00700793          	addi	a5,zero,7
   131fc:	6f57c0e3          	blt	a5,s5,140dc <_vfprintf_r+0x181c>
   13200:	008d8d93          	addi	s11,s11,8
   13204:	02c12783          	lw	a5,44(sp)
   13208:	02c12683          	lw	a3,44(sp)
   1320c:	0a410713          	addi	a4,sp,164
   13210:	00c78633          	add	a2,a5,a2
   13214:	001a8793          	addi	a5,s5,1
   13218:	00eda023          	sw	a4,0(s11)
   1321c:	0ac12e23          	sw	a2,188(sp)
   13220:	0af12c23          	sw	a5,184(sp)
   13224:	00dda223          	sw	a3,4(s11)
   13228:	00700713          	addi	a4,zero,7
   1322c:	008d8b13          	addi	s6,s11,8
   13230:	98f754e3          	bge	a4,a5,12bb8 <_vfprintf_r+0x2f8>
   13234:	00412583          	lw	a1,4(sp)
   13238:	0b410613          	addi	a2,sp,180
   1323c:	00090513          	addi	a0,s2,0
   13240:	7dc020ef          	jal	ra,15a1c <__sprint_r>
   13244:	24051ae3          	bne	a0,zero,13c98 <_vfprintf_r+0x13d8>
   13248:	0bc12603          	lw	a2,188(sp)
   1324c:	00098b13          	addi	s6,s3,0
   13250:	969ff06f          	jal	zero,12bb8 <_vfprintf_r+0x2f8>
   13254:	00c12783          	lw	a5,12(sp)
   13258:	00c12703          	lw	a4,12(sp)
   1325c:	080109a3          	sb	zero,147(sp)
   13260:	0007a783          	lw	a5,0(a5)
   13264:	00470493          	addi	s1,a4,4
   13268:	00079463          	bne	a5,zero,13270 <_vfprintf_r+0x9b0>
   1326c:	16c0106f          	jal	zero,143d8 <_vfprintf_r+0x1b18>
   13270:	000ad463          	bge	s5,zero,13278 <_vfprintf_r+0x9b8>
   13274:	2600106f          	jal	zero,144d4 <_vfprintf_r+0x1c14>
   13278:	00078513          	addi	a0,a5,0
   1327c:	000a8613          	addi	a2,s5,0
   13280:	00000593          	addi	a1,zero,0
   13284:	01112e23          	sw	a7,28(sp)
   13288:	00f12623          	sw	a5,12(sp)
   1328c:	254030ef          	jal	ra,164e0 <memchr>
   13290:	00a12823          	sw	a0,16(sp)
   13294:	09314703          	lbu	a4,147(sp)
   13298:	00c12783          	lw	a5,12(sp)
   1329c:	01c12883          	lw	a7,28(sp)
   132a0:	00051463          	bne	a0,zero,132a8 <_vfprintf_r+0x9e8>
   132a4:	17c0206f          	jal	zero,15420 <_vfprintf_r+0x2b60>
   132a8:	40f50cb3          	sub	s9,a0,a5
   132ac:	fffcc693          	xori	a3,s9,-1
   132b0:	41f6d693          	srai	a3,a3,0x1f
   132b4:	00dcfc33          	and	s8,s9,a3
   132b8:	00070463          	beq	a4,zero,132c0 <_vfprintf_r+0xa00>
   132bc:	24c0106f          	jal	zero,14508 <_vfprintf_r+0x1c48>
   132c0:	00912623          	sw	s1,12(sp)
   132c4:	0bc12603          	lw	a2,188(sp)
   132c8:	00012823          	sw	zero,16(sp)
   132cc:	02012023          	sw	zero,32(sp)
   132d0:	00012e23          	sw	zero,28(sp)
   132d4:	084bfd93          	andi	s11,s7,132
   132d8:	00000a93          	addi	s5,zero,0
   132dc:	00000313          	addi	t1,zero,0
   132e0:	00060813          	addi	a6,a2,0
   132e4:	800d9ee3          	bne	s11,zero,12b00 <_vfprintf_r+0x240>
   132e8:	00012703          	lw	a4,0(sp)
   132ec:	41870733          	sub	a4,a4,s8
   132f0:	5ae042e3          	blt	zero,a4,14094 <_vfprintf_r+0x17d4>
   132f4:	09314703          	lbu	a4,147(sp)
   132f8:	800718e3          	bne	a4,zero,12b08 <_vfprintf_r+0x248>
   132fc:	419a8ab3          	sub	s5,s5,s9
   13300:	895054e3          	bge	zero,s5,12b88 <_vfprintf_r+0x2c8>
   13304:	0006c837          	lui	a6,0x6c
   13308:	0b812583          	lw	a1,184(sp)
   1330c:	4b880813          	addi	a6,a6,1208 # 6c4b8 <zeroes.0>
   13310:	09545663          	bge	s0,s5,1339c <_vfprintf_r+0xadc>
   13314:	000a8493          	addi	s1,s5,0
   13318:	02f12e23          	sw	a5,60(sp)
   1331c:	00700d93          	addi	s11,zero,7
   13320:	000b0793          	addi	a5,s6,0
   13324:	03112c23          	sw	a7,56(sp)
   13328:	00030a93          	addi	s5,t1,0
   1332c:	000a0b13          	addi	s6,s4,0
   13330:	00c0006f          	jal	zero,1333c <_vfprintf_r+0xa7c>
   13334:	ff048493          	addi	s1,s1,-16
   13338:	04945663          	bge	s0,s1,13384 <_vfprintf_r+0xac4>
   1333c:	01060613          	addi	a2,a2,16
   13340:	00158593          	addi	a1,a1,1
   13344:	0147a023          	sw	s4,0(a5)
   13348:	0087a223          	sw	s0,4(a5)
   1334c:	0ac12e23          	sw	a2,188(sp)
   13350:	0ab12c23          	sw	a1,184(sp)
   13354:	00878793          	addi	a5,a5,8
   13358:	fcbddee3          	bge	s11,a1,13334 <_vfprintf_r+0xa74>
   1335c:	00412583          	lw	a1,4(sp)
   13360:	0b410613          	addi	a2,sp,180
   13364:	00090513          	addi	a0,s2,0
   13368:	6b4020ef          	jal	ra,15a1c <__sprint_r>
   1336c:	120516e3          	bne	a0,zero,13c98 <_vfprintf_r+0x13d8>
   13370:	ff048493          	addi	s1,s1,-16
   13374:	0bc12603          	lw	a2,188(sp)
   13378:	0b812583          	lw	a1,184(sp)
   1337c:	00098793          	addi	a5,s3,0
   13380:	fa944ee3          	blt	s0,s1,1333c <_vfprintf_r+0xa7c>
   13384:	000b0813          	addi	a6,s6,0
   13388:	03812883          	lw	a7,56(sp)
   1338c:	00078b13          	addi	s6,a5,0
   13390:	03c12783          	lw	a5,60(sp)
   13394:	000a8313          	addi	t1,s5,0
   13398:	00048a93          	addi	s5,s1,0
   1339c:	01560633          	add	a2,a2,s5
   133a0:	00158593          	addi	a1,a1,1
   133a4:	010b2023          	sw	a6,0(s6)
   133a8:	015b2223          	sw	s5,4(s6)
   133ac:	0ac12e23          	sw	a2,188(sp)
   133b0:	0ab12c23          	sw	a1,184(sp)
   133b4:	00700713          	addi	a4,zero,7
   133b8:	008b0b13          	addi	s6,s6,8
   133bc:	fcb75663          	bge	a4,a1,12b88 <_vfprintf_r+0x2c8>
   133c0:	00412583          	lw	a1,4(sp)
   133c4:	0b410613          	addi	a2,sp,180
   133c8:	00090513          	addi	a0,s2,0
   133cc:	04612023          	sw	t1,64(sp)
   133d0:	02f12e23          	sw	a5,60(sp)
   133d4:	03112c23          	sw	a7,56(sp)
   133d8:	644020ef          	jal	ra,15a1c <__sprint_r>
   133dc:	0a051ee3          	bne	a0,zero,13c98 <_vfprintf_r+0x13d8>
   133e0:	100bf713          	andi	a4,s7,256
   133e4:	0bc12603          	lw	a2,188(sp)
   133e8:	04012303          	lw	t1,64(sp)
   133ec:	03c12783          	lw	a5,60(sp)
   133f0:	03812883          	lw	a7,56(sp)
   133f4:	00098b13          	addi	s6,s3,0
   133f8:	f8070c63          	beq	a4,zero,12b90 <_vfprintf_r+0x2d0>
   133fc:	06500713          	addi	a4,zero,101
   13400:	d1175ae3          	bge	a4,a7,13114 <_vfprintf_r+0x854>
   13404:	0c412703          	lw	a4,196(sp)
   13408:	0c012583          	lw	a1,192(sp)
   1340c:	0c812503          	lw	a0,200(sp)
   13410:	08e12223          	sw	a4,132(sp)
   13414:	0cc12703          	lw	a4,204(sp)
   13418:	08b12023          	sw	a1,128(sp)
   1341c:	08a12423          	sw	a0,136(sp)
   13420:	07010593          	addi	a1,sp,112
   13424:	08010513          	addi	a0,sp,128
   13428:	02c12e23          	sw	a2,60(sp)
   1342c:	02f12c23          	sw	a5,56(sp)
   13430:	04612023          	sw	t1,64(sp)
   13434:	06012823          	sw	zero,112(sp)
   13438:	06012a23          	sw	zero,116(sp)
   1343c:	06012c23          	sw	zero,120(sp)
   13440:	06012e23          	sw	zero,124(sp)
   13444:	08e12623          	sw	a4,140(sp)
   13448:	0910b0ef          	jal	ra,1ecd8 <__eqtf2>
   1344c:	03812783          	lw	a5,56(sp)
   13450:	03c12603          	lw	a2,60(sp)
   13454:	04012303          	lw	t1,64(sp)
   13458:	220510e3          	bne	a0,zero,13e78 <_vfprintf_r+0x15b8>
   1345c:	0b812783          	lw	a5,184(sp)
   13460:	0004b737          	lui	a4,0x4b
   13464:	e2870713          	addi	a4,a4,-472 # 4ae28 <__clzsi2+0x296dc>
   13468:	00eb2023          	sw	a4,0(s6)
   1346c:	00160613          	addi	a2,a2,1
   13470:	00100713          	addi	a4,zero,1
   13474:	00178793          	addi	a5,a5,1
   13478:	00eb2223          	sw	a4,4(s6)
   1347c:	0ac12e23          	sw	a2,188(sp)
   13480:	0af12c23          	sw	a5,184(sp)
   13484:	00700713          	addi	a4,zero,7
   13488:	008b0b13          	addi	s6,s6,8
   1348c:	00f75463          	bge	a4,a5,13494 <_vfprintf_r+0xbd4>
   13490:	2500106f          	jal	zero,146e0 <_vfprintf_r+0x1e20>
   13494:	09812783          	lw	a5,152(sp)
   13498:	01812703          	lw	a4,24(sp)
   1349c:	4ee7d0e3          	bge	a5,a4,1417c <_vfprintf_r+0x18bc>
   134a0:	02412703          	lw	a4,36(sp)
   134a4:	0b812783          	lw	a5,184(sp)
   134a8:	008b0b13          	addi	s6,s6,8
   134ac:	00e60633          	add	a2,a2,a4
   134b0:	02812703          	lw	a4,40(sp)
   134b4:	00178793          	addi	a5,a5,1
   134b8:	0ac12e23          	sw	a2,188(sp)
   134bc:	feeb2c23          	sw	a4,-8(s6)
   134c0:	02412703          	lw	a4,36(sp)
   134c4:	0af12c23          	sw	a5,184(sp)
   134c8:	feeb2e23          	sw	a4,-4(s6)
   134cc:	00700713          	addi	a4,zero,7
   134d0:	68f740e3          	blt	a4,a5,14350 <_vfprintf_r+0x1a90>
   134d4:	01812783          	lw	a5,24(sp)
   134d8:	fff78a93          	addi	s5,a5,-1
   134dc:	ed505e63          	bge	zero,s5,12bb8 <_vfprintf_r+0x2f8>
   134e0:	0006c837          	lui	a6,0x6c
   134e4:	01000c93          	addi	s9,zero,16
   134e8:	0b812783          	lw	a5,184(sp)
   134ec:	00700d93          	addi	s11,zero,7
   134f0:	4b880493          	addi	s1,a6,1208 # 6c4b8 <zeroes.0>
   134f4:	015cca63          	blt	s9,s5,13508 <_vfprintf_r+0xc48>
   134f8:	2a50006f          	jal	zero,13f9c <_vfprintf_r+0x16dc>
   134fc:	ff0a8a93          	addi	s5,s5,-16
   13500:	015cc463          	blt	s9,s5,13508 <_vfprintf_r+0xc48>
   13504:	23c0106f          	jal	zero,14740 <_vfprintf_r+0x1e80>
   13508:	01060613          	addi	a2,a2,16
   1350c:	00178793          	addi	a5,a5,1
   13510:	009b2023          	sw	s1,0(s6)
   13514:	019b2223          	sw	s9,4(s6)
   13518:	0ac12e23          	sw	a2,188(sp)
   1351c:	0af12c23          	sw	a5,184(sp)
   13520:	008b0b13          	addi	s6,s6,8
   13524:	fcfddce3          	bge	s11,a5,134fc <_vfprintf_r+0xc3c>
   13528:	00412583          	lw	a1,4(sp)
   1352c:	0b410613          	addi	a2,sp,180
   13530:	00090513          	addi	a0,s2,0
   13534:	4e8020ef          	jal	ra,15a1c <__sprint_r>
   13538:	76051063          	bne	a0,zero,13c98 <_vfprintf_r+0x13d8>
   1353c:	0bc12603          	lw	a2,188(sp)
   13540:	0b812783          	lw	a5,184(sp)
   13544:	00098b13          	addi	s6,s3,0
   13548:	fb5ff06f          	jal	zero,134fc <_vfprintf_r+0xc3c>
   1354c:	020bf793          	andi	a5,s7,32
   13550:	0e079863          	bne	a5,zero,13640 <_vfprintf_r+0xd80>
   13554:	00c12783          	lw	a5,12(sp)
   13558:	010bf713          	andi	a4,s7,16
   1355c:	00478793          	addi	a5,a5,4
   13560:	00070463          	beq	a4,zero,13568 <_vfprintf_r+0xca8>
   13564:	7ad0106f          	jal	zero,15510 <_vfprintf_r+0x2c50>
   13568:	00c12683          	lw	a3,12(sp)
   1356c:	040bf713          	andi	a4,s7,64
   13570:	0006ac03          	lw	s8,0(a3)
   13574:	00071463          	bne	a4,zero,1357c <_vfprintf_r+0xcbc>
   13578:	33c0106f          	jal	zero,148b4 <_vfprintf_r+0x1ff4>
   1357c:	010c1c13          	slli	s8,s8,0x10
   13580:	410c5c13          	srai	s8,s8,0x10
   13584:	41fc5e93          	srai	t4,s8,0x1f
   13588:	00f12623          	sw	a5,12(sp)
   1358c:	000e8713          	addi	a4,t4,0
   13590:	0c074a63          	blt	a4,zero,13664 <_vfprintf_r+0xda4>
   13594:	0e0ac863          	blt	s5,zero,13684 <_vfprintf_r+0xdc4>
   13598:	01dc67b3          	or	a5,s8,t4
   1359c:	f7fbfb93          	andi	s7,s7,-129
   135a0:	0e079263          	bne	a5,zero,13684 <_vfprintf_r+0xdc4>
   135a4:	0e0a9063          	bne	s5,zero,13684 <_vfprintf_r+0xdc4>
   135a8:	09314e83          	lbu	t4,147(sp)
   135ac:	000e9463          	bne	t4,zero,135b4 <_vfprintf_r+0xcf4>
   135b0:	3240106f          	jal	zero,148d4 <_vfprintf_r+0x2014>
   135b4:	00000c13          	addi	s8,zero,0
   135b8:	00000313          	addi	t1,zero,0
   135bc:	00012823          	sw	zero,16(sp)
   135c0:	00000c93          	addi	s9,zero,0
   135c4:	00000a93          	addi	s5,zero,0
   135c8:	18010793          	addi	a5,sp,384
   135cc:	001c0c13          	addi	s8,s8,1
   135d0:	00031463          	bne	t1,zero,135d8 <_vfprintf_r+0xd18>
   135d4:	2f80206f          	jal	zero,158cc <_vfprintf_r+0x300c>
   135d8:	0bc12603          	lw	a2,188(sp)
   135dc:	0b812583          	lw	a1,184(sp)
   135e0:	084bfd93          	andi	s11,s7,132
   135e4:	002c0c13          	addi	s8,s8,2
   135e8:	00060813          	addi	a6,a2,0
   135ec:	00058513          	addi	a0,a1,0
   135f0:	700d8663          	beq	s11,zero,13cfc <_vfprintf_r+0x143c>
   135f4:	02012023          	sw	zero,32(sp)
   135f8:	00012e23          	sw	zero,28(sp)
   135fc:	00000313          	addi	t1,zero,0
   13600:	d40e8263          	beq	t4,zero,12b44 <_vfprintf_r+0x284>
   13604:	00200713          	addi	a4,zero,2
   13608:	d08ff06f          	jal	zero,12b10 <_vfprintf_r+0x250>
   1360c:	00c12783          	lw	a5,12(sp)
   13610:	00100c93          	addi	s9,zero,1
   13614:	080109a3          	sb	zero,147(sp)
   13618:	0007a783          	lw	a5,0(a5)
   1361c:	10f10e23          	sb	a5,284(sp)
   13620:	00c12783          	lw	a5,12(sp)
   13624:	00478793          	addi	a5,a5,4
   13628:	00f12623          	sw	a5,12(sp)
   1362c:	ca8ff06f          	jal	zero,12ad4 <_vfprintf_r+0x214>
   13630:	020bf793          	andi	a5,s7,32
   13634:	010bee13          	ori	t3,s7,16
   13638:	400782e3          	beq	a5,zero,1423c <_vfprintf_r+0x197c>
   1363c:	000e0b93          	addi	s7,t3,0
   13640:	00c12783          	lw	a5,12(sp)
   13644:	00778793          	addi	a5,a5,7
   13648:	ff87f793          	andi	a5,a5,-8
   1364c:	0047a703          	lw	a4,4(a5)
   13650:	00878693          	addi	a3,a5,8
   13654:	00d12623          	sw	a3,12(sp)
   13658:	0007ac03          	lw	s8,0(a5)
   1365c:	00070e93          	addi	t4,a4,0
   13660:	f2075ae3          	bge	a4,zero,13594 <_vfprintf_r+0xcd4>
   13664:	018037b3          	sltu	a5,zero,s8
   13668:	41d00eb3          	sub	t4,zero,t4
   1366c:	40fe8eb3          	sub	t4,t4,a5
   13670:	02d00793          	addi	a5,zero,45
   13674:	08f109a3          	sb	a5,147(sp)
   13678:	41800c33          	sub	s8,zero,s8
   1367c:	000ac463          	blt	s5,zero,13684 <_vfprintf_r+0xdc4>
   13680:	f7fbfb93          	andi	s7,s7,-129
   13684:	260e9e63          	bne	t4,zero,13900 <_vfprintf_r+0x1040>
   13688:	00900793          	addi	a5,zero,9
   1368c:	2787ea63          	bltu	a5,s8,13900 <_vfprintf_r+0x1040>
   13690:	030c0c13          	addi	s8,s8,48
   13694:	17810fa3          	sb	s8,383(sp)
   13698:	000a8c13          	addi	s8,s5,0
   1369c:	3f505ae3          	bge	zero,s5,14290 <_vfprintf_r+0x19d0>
   136a0:	09314e83          	lbu	t4,147(sp)
   136a4:	00000313          	addi	t1,zero,0
   136a8:	00100c93          	addi	s9,zero,1
   136ac:	17f10793          	addi	a5,sp,383
   136b0:	00012823          	sw	zero,16(sp)
   136b4:	f00e8ee3          	beq	t4,zero,135d0 <_vfprintf_r+0xd10>
   136b8:	001c0c13          	addi	s8,s8,1
   136bc:	f15ff06f          	jal	zero,135d0 <_vfprintf_r+0xd10>
   136c0:	00c12783          	lw	a5,12(sp)
   136c4:	0007a783          	lw	a5,0(a5)
   136c8:	00f12023          	sw	a5,0(sp)
   136cc:	2c07d0e3          	bge	a5,zero,1418c <_vfprintf_r+0x18cc>
   136d0:	00012783          	lw	a5,0(sp)
   136d4:	40f007b3          	sub	a5,zero,a5
   136d8:	00f12023          	sw	a5,0(sp)
   136dc:	00c12783          	lw	a5,12(sp)
   136e0:	00478793          	addi	a5,a5,4
   136e4:	00f12623          	sw	a5,12(sp)
   136e8:	000d4883          	lbu	a7,0(s10)
   136ec:	004beb93          	ori	s7,s7,4
   136f0:	b70ff06f          	jal	zero,12a60 <_vfprintf_r+0x1a0>
   136f4:	02b00793          	addi	a5,zero,43
   136f8:	000d4883          	lbu	a7,0(s10)
   136fc:	08f109a3          	sb	a5,147(sp)
   13700:	b60ff06f          	jal	zero,12a60 <_vfprintf_r+0x1a0>
   13704:	000d4883          	lbu	a7,0(s10)
   13708:	080beb93          	ori	s7,s7,128
   1370c:	b54ff06f          	jal	zero,12a60 <_vfprintf_r+0x1a0>
   13710:	000d4883          	lbu	a7,0(s10)
   13714:	02a00793          	addi	a5,zero,42
   13718:	001d0693          	addi	a3,s10,1
   1371c:	00f89463          	bne	a7,a5,13724 <_vfprintf_r+0xe64>
   13720:	0dc0206f          	jal	zero,157fc <_vfprintf_r+0x2f3c>
   13724:	fd088793          	addi	a5,a7,-48
   13728:	00900613          	addi	a2,zero,9
   1372c:	00000a93          	addi	s5,zero,0
   13730:	02f66463          	bltu	a2,a5,13758 <_vfprintf_r+0xe98>
   13734:	002a9713          	slli	a4,s5,0x2
   13738:	0006c883          	lbu	a7,0(a3)
   1373c:	01570ab3          	add	s5,a4,s5
   13740:	001a9a93          	slli	s5,s5,0x1
   13744:	00fa8ab3          	add	s5,s5,a5
   13748:	fd088793          	addi	a5,a7,-48
   1374c:	00168693          	addi	a3,a3,1
   13750:	fef672e3          	bgeu	a2,a5,13734 <_vfprintf_r+0xe74>
   13754:	3c0ac8e3          	blt	s5,zero,14324 <_vfprintf_r+0x1a64>
   13758:	00068d13          	addi	s10,a3,0
   1375c:	b08ff06f          	jal	zero,12a64 <_vfprintf_r+0x1a4>
   13760:	00090513          	addi	a0,s2,0
   13764:	6d1020ef          	jal	ra,16634 <_localeconv_r>
   13768:	00452783          	lw	a5,4(a0)
   1376c:	00078513          	addi	a0,a5,0
   13770:	02f12a23          	sw	a5,52(sp)
   13774:	1e0030ef          	jal	ra,16954 <strlen>
   13778:	00050493          	addi	s1,a0,0
   1377c:	00090513          	addi	a0,s2,0
   13780:	04912223          	sw	s1,68(sp)
   13784:	6b1020ef          	jal	ra,16634 <_localeconv_r>
   13788:	00852703          	lw	a4,8(a0)
   1378c:	000d4883          	lbu	a7,0(s10)
   13790:	02e12823          	sw	a4,48(sp)
   13794:	ac048663          	beq	s1,zero,12a60 <_vfprintf_r+0x1a0>
   13798:	ac070463          	beq	a4,zero,12a60 <_vfprintf_r+0x1a0>
   1379c:	00074783          	lbu	a5,0(a4)
   137a0:	ac078063          	beq	a5,zero,12a60 <_vfprintf_r+0x1a0>
   137a4:	400beb93          	ori	s7,s7,1024
   137a8:	ab8ff06f          	jal	zero,12a60 <_vfprintf_r+0x1a0>
   137ac:	000d4883          	lbu	a7,0(s10)
   137b0:	001beb93          	ori	s7,s7,1
   137b4:	aacff06f          	jal	zero,12a60 <_vfprintf_r+0x1a0>
   137b8:	09314783          	lbu	a5,147(sp)
   137bc:	000d4883          	lbu	a7,0(s10)
   137c0:	aa079063          	bne	a5,zero,12a60 <_vfprintf_r+0x1a0>
   137c4:	02000793          	addi	a5,zero,32
   137c8:	08f109a3          	sb	a5,147(sp)
   137cc:	a94ff06f          	jal	zero,12a60 <_vfprintf_r+0x1a0>
   137d0:	020bf793          	andi	a5,s7,32
   137d4:	010be693          	ori	a3,s7,16
   137d8:	220782e3          	beq	a5,zero,141fc <_vfprintf_r+0x193c>
   137dc:	00c12783          	lw	a5,12(sp)
   137e0:	00778793          	addi	a5,a5,7
   137e4:	ff87f793          	andi	a5,a5,-8
   137e8:	00878713          	addi	a4,a5,8
   137ec:	00e12623          	sw	a4,12(sp)
   137f0:	0047a603          	lw	a2,4(a5)
   137f4:	0007a703          	lw	a4,0(a5)
   137f8:	080109a3          	sb	zero,147(sp)
   137fc:	bff6fb93          	andi	s7,a3,-1025
   13800:	600aca63          	blt	s5,zero,13e14 <_vfprintf_r+0x1554>
   13804:	00c767b3          	or	a5,a4,a2
   13808:	b7f6fb93          	andi	s7,a3,-1153
   1380c:	60079463          	bne	a5,zero,13e14 <_vfprintf_r+0x1554>
   13810:	600a9263          	bne	s5,zero,13e14 <_vfprintf_r+0x1554>
   13814:	0016fc13          	andi	s8,a3,1
   13818:	080c02e3          	beq	s8,zero,1409c <_vfprintf_r+0x17dc>
   1381c:	03000793          	addi	a5,zero,48
   13820:	16f10fa3          	sb	a5,383(sp)
   13824:	000c0c93          	addi	s9,s8,0
   13828:	00012823          	sw	zero,16(sp)
   1382c:	02012023          	sw	zero,32(sp)
   13830:	00012e23          	sw	zero,28(sp)
   13834:	00000313          	addi	t1,zero,0
   13838:	17f10793          	addi	a5,sp,383
   1383c:	ab4ff06f          	jal	zero,12af0 <_vfprintf_r+0x230>
   13840:	000d4883          	lbu	a7,0(s10)
   13844:	06800793          	addi	a5,zero,104
   13848:	2ef88ce3          	beq	a7,a5,14340 <_vfprintf_r+0x1a80>
   1384c:	040beb93          	ori	s7,s7,64
   13850:	a10ff06f          	jal	zero,12a60 <_vfprintf_r+0x1a0>
   13854:	00c12703          	lw	a4,12(sp)
   13858:	020bf793          	andi	a5,s7,32
   1385c:	00470713          	addi	a4,a4,4
   13860:	1a079ce3          	bne	a5,zero,14218 <_vfprintf_r+0x1958>
   13864:	010bf793          	andi	a5,s7,16
   13868:	760798e3          	bne	a5,zero,147d8 <_vfprintf_r+0x1f18>
   1386c:	040bf793          	andi	a5,s7,64
   13870:	00078463          	beq	a5,zero,13878 <_vfprintf_r+0xfb8>
   13874:	44c0106f          	jal	zero,14cc0 <_vfprintf_r+0x2400>
   13878:	200bfe13          	andi	t3,s7,512
   1387c:	740e0ee3          	beq	t3,zero,147d8 <_vfprintf_r+0x1f18>
   13880:	00c12783          	lw	a5,12(sp)
   13884:	00812683          	lw	a3,8(sp)
   13888:	00e12623          	sw	a4,12(sp)
   1388c:	0007a783          	lw	a5,0(a5)
   13890:	00d78023          	sb	a3,0(a5)
   13894:	938ff06f          	jal	zero,129cc <_vfprintf_r+0x10c>
   13898:	000d4883          	lbu	a7,0(s10)
   1389c:	06c00793          	addi	a5,zero,108
   138a0:	28f888e3          	beq	a7,a5,14330 <_vfprintf_r+0x1a70>
   138a4:	010beb93          	ori	s7,s7,16
   138a8:	9b8ff06f          	jal	zero,12a60 <_vfprintf_r+0x1a0>
   138ac:	020bf793          	andi	a5,s7,32
   138b0:	24079863          	bne	a5,zero,13b00 <_vfprintf_r+0x1240>
   138b4:	010bf793          	andi	a5,s7,16
   138b8:	00078463          	beq	a5,zero,138c0 <_vfprintf_r+0x1000>
   138bc:	44d0106f          	jal	zero,15508 <_vfprintf_r+0x2c48>
   138c0:	00c12703          	lw	a4,12(sp)
   138c4:	040bf793          	andi	a5,s7,64
   138c8:	00072c03          	lw	s8,0(a4)
   138cc:	00470713          	addi	a4,a4,4
   138d0:	00e12623          	sw	a4,12(sp)
   138d4:	00079463          	bne	a5,zero,138dc <_vfprintf_r+0x101c>
   138d8:	7b10006f          	jal	zero,14888 <_vfprintf_r+0x1fc8>
   138dc:	010c1c13          	slli	s8,s8,0x10
   138e0:	080109a3          	sb	zero,147(sp)
   138e4:	010c5c13          	srli	s8,s8,0x10
   138e8:	00000e93          	addi	t4,zero,0
   138ec:	d80acce3          	blt	s5,zero,13684 <_vfprintf_r+0xdc4>
   138f0:	018ae333          	or	t1,s5,s8
   138f4:	f7fbfb93          	andi	s7,s7,-129
   138f8:	16030463          	beq	t1,zero,13a60 <_vfprintf_r+0x11a0>
   138fc:	d80e86e3          	beq	t4,zero,13688 <_vfprintf_r+0xdc8>
   13900:	ccccdcb7          	lui	s9,0xccccd
   13904:	ccccddb7          	lui	s11,0xccccd
   13908:	ccdc8c93          	addi	s9,s9,-819 # cccccccd <__BSS_END__+0xccbde3dd>
   1390c:	cccd8d93          	addi	s11,s11,-820 # cccccccc <__BSS_END__+0xccbde3dc>
   13910:	400bf813          	andi	a6,s7,1024
   13914:	00000593          	addi	a1,zero,0
   13918:	18010613          	addi	a2,sp,384
   1391c:	00088493          	addi	s1,a7,0
   13920:	0800006f          	jal	zero,139a0 <_vfprintf_r+0x10e0>
   13924:	03012703          	lw	a4,48(sp)
   13928:	00074703          	lbu	a4,0(a4)
   1392c:	f0170693          	addi	a3,a4,-255
   13930:	00068463          	beq	a3,zero,13938 <_vfprintf_r+0x1078>
   13934:	5cb70ae3          	beq	a4,a1,14708 <_vfprintf_r+0x1e48>
   13938:	000c0313          	addi	t1,s8,0
   1393c:	000e8513          	addi	a0,t4,0
   13940:	00078613          	addi	a2,a5,0
   13944:	01dc0733          	add	a4,s8,t4
   13948:	018736b3          	sltu	a3,a4,s8
   1394c:	00d70733          	add	a4,a4,a3
   13950:	039736b3          	mulhu	a3,a4,s9
   13954:	0026de13          	srli	t3,a3,0x2
   13958:	ffc6f693          	andi	a3,a3,-4
   1395c:	01c686b3          	add	a3,a3,t3
   13960:	40d70733          	sub	a4,a4,a3
   13964:	40ec0733          	sub	a4,s8,a4
   13968:	00ec36b3          	sltu	a3,s8,a4
   1396c:	40de86b3          	sub	a3,t4,a3
   13970:	039686b3          	mul	a3,a3,s9
   13974:	03b70eb3          	mul	t4,a4,s11
   13978:	03973e33          	mulhu	t3,a4,s9
   1397c:	01d686b3          	add	a3,a3,t4
   13980:	03970733          	mul	a4,a4,s9
   13984:	01c686b3          	add	a3,a3,t3
   13988:	01f69e13          	slli	t3,a3,0x1f
   1398c:	0016de93          	srli	t4,a3,0x1
   13990:	00175713          	srli	a4,a4,0x1
   13994:	00ee0c33          	add	s8,t3,a4
   13998:	00051463          	bne	a0,zero,139a0 <_vfprintf_r+0x10e0>
   1399c:	2750106f          	jal	zero,15410 <_vfprintf_r+0x2b50>
   139a0:	01dc0733          	add	a4,s8,t4
   139a4:	018736b3          	sltu	a3,a4,s8
   139a8:	00d706b3          	add	a3,a4,a3
   139ac:	0396b533          	mulhu	a0,a3,s9
   139b0:	00158593          	addi	a1,a1,1
   139b4:	fff60793          	addi	a5,a2,-1
   139b8:	00255313          	srli	t1,a0,0x2
   139bc:	ffc57513          	andi	a0,a0,-4
   139c0:	00650533          	add	a0,a0,t1
   139c4:	40a686b3          	sub	a3,a3,a0
   139c8:	40dc06b3          	sub	a3,s8,a3
   139cc:	00dc3533          	sltu	a0,s8,a3
   139d0:	40ae8533          	sub	a0,t4,a0
   139d4:	0396b333          	mulhu	t1,a3,s9
   139d8:	03950533          	mul	a0,a0,s9
   139dc:	039686b3          	mul	a3,a3,s9
   139e0:	00650533          	add	a0,a0,t1
   139e4:	01f51513          	slli	a0,a0,0x1f
   139e8:	0016d693          	srli	a3,a3,0x1
   139ec:	00d506b3          	add	a3,a0,a3
   139f0:	00269513          	slli	a0,a3,0x2
   139f4:	00d506b3          	add	a3,a0,a3
   139f8:	00169693          	slli	a3,a3,0x1
   139fc:	40dc06b3          	sub	a3,s8,a3
   13a00:	03068693          	addi	a3,a3,48
   13a04:	fed60fa3          	sb	a3,-1(a2)
   13a08:	f0081ee3          	bne	a6,zero,13924 <_vfprintf_r+0x1064>
   13a0c:	000c0313          	addi	t1,s8,0
   13a10:	000e8513          	addi	a0,t4,0
   13a14:	00078613          	addi	a2,a5,0
   13a18:	f31ff06f          	jal	zero,13948 <_vfprintf_r+0x1088>
   13a1c:	000087b7          	lui	a5,0x8
   13a20:	83078793          	addi	a5,a5,-2000 # 7830 <exit-0x8884>
   13a24:	00c12703          	lw	a4,12(sp)
   13a28:	08f11a23          	sh	a5,148(sp)
   13a2c:	00c12783          	lw	a5,12(sp)
   13a30:	080109a3          	sb	zero,147(sp)
   13a34:	00072703          	lw	a4,0(a4)
   13a38:	00478793          	addi	a5,a5,4
   13a3c:	00000613          	addi	a2,zero,0
   13a40:	060ac8e3          	blt	s5,zero,142b0 <_vfprintf_r+0x19f0>
   13a44:	f7fbfe13          	andi	t3,s7,-129
   13a48:	002e6b93          	ori	s7,t3,2
   13a4c:	5a0a92e3          	bne	s5,zero,147f0 <_vfprintf_r+0x1f30>
   13a50:	5a0710e3          	bne	a4,zero,147f0 <_vfprintf_r+0x1f30>
   13a54:	00f12623          	sw	a5,12(sp)
   13a58:	00200313          	addi	t1,zero,2
   13a5c:	07800893          	addi	a7,zero,120
   13a60:	09314e83          	lbu	t4,147(sp)
   13a64:	00000a93          	addi	s5,zero,0
   13a68:	00000c13          	addi	s8,zero,0
   13a6c:	00000c93          	addi	s9,zero,0
   13a70:	18010793          	addi	a5,sp,384
   13a74:	00012823          	sw	zero,16(sp)
   13a78:	c3dff06f          	jal	zero,136b4 <_vfprintf_r+0xdf4>
   13a7c:	020bf793          	andi	a5,s7,32
   13a80:	000794e3          	bne	a5,zero,14288 <_vfprintf_r+0x19c8>
   13a84:	00c12783          	lw	a5,12(sp)
   13a88:	010bf713          	andi	a4,s7,16
   13a8c:	00478793          	addi	a5,a5,4
   13a90:	00070463          	beq	a4,zero,13a98 <_vfprintf_r+0x11d8>
   13a94:	2650106f          	jal	zero,154f8 <_vfprintf_r+0x2c38>
   13a98:	00c12703          	lw	a4,12(sp)
   13a9c:	040bf693          	andi	a3,s7,64
   13aa0:	00072703          	lw	a4,0(a4)
   13aa4:	5c0684e3          	beq	a3,zero,1486c <_vfprintf_r+0x1fac>
   13aa8:	01071713          	slli	a4,a4,0x10
   13aac:	01075713          	srli	a4,a4,0x10
   13ab0:	00f12623          	sw	a5,12(sp)
   13ab4:	000b8693          	addi	a3,s7,0
   13ab8:	00000613          	addi	a2,zero,0
   13abc:	d3dff06f          	jal	zero,137f8 <_vfprintf_r+0xf38>
   13ac0:	020bf793          	andi	a5,s7,32
   13ac4:	010bee13          	ori	t3,s7,16
   13ac8:	02079e63          	bne	a5,zero,13b04 <_vfprintf_r+0x1244>
   13acc:	00c12783          	lw	a5,12(sp)
   13ad0:	00c12703          	lw	a4,12(sp)
   13ad4:	080109a3          	sb	zero,147(sp)
   13ad8:	00478793          	addi	a5,a5,4
   13adc:	00072c03          	lw	s8,0(a4)
   13ae0:	00000e93          	addi	t4,zero,0
   13ae4:	680acae3          	blt	s5,zero,14978 <_vfprintf_r+0x20b8>
   13ae8:	00f12623          	sw	a5,12(sp)
   13aec:	f7fe7b93          	andi	s7,t3,-129
   13af0:	b80c1ce3          	bne	s8,zero,13688 <_vfprintf_r+0xdc8>
   13af4:	b80a9ae3          	bne	s5,zero,13688 <_vfprintf_r+0xdc8>
   13af8:	00000313          	addi	t1,zero,0
   13afc:	f65ff06f          	jal	zero,13a60 <_vfprintf_r+0x11a0>
   13b00:	000b8e13          	addi	t3,s7,0
   13b04:	00c12783          	lw	a5,12(sp)
   13b08:	080109a3          	sb	zero,147(sp)
   13b0c:	00778793          	addi	a5,a5,7
   13b10:	ff87f793          	andi	a5,a5,-8
   13b14:	00878713          	addi	a4,a5,8
   13b18:	00e12623          	sw	a4,12(sp)
   13b1c:	0007ac03          	lw	s8,0(a5)
   13b20:	0047ae83          	lw	t4,4(a5)
   13b24:	780ac263          	blt	s5,zero,142a8 <_vfprintf_r+0x19e8>
   13b28:	f7fe7b93          	andi	s7,t3,-129
   13b2c:	b40a9ce3          	bne	s5,zero,13684 <_vfprintf_r+0xdc4>
   13b30:	01dc67b3          	or	a5,s8,t4
   13b34:	b40798e3          	bne	a5,zero,13684 <_vfprintf_r+0xdc4>
   13b38:	00000313          	addi	t1,zero,0
   13b3c:	f25ff06f          	jal	zero,13a60 <_vfprintf_r+0x11a0>
   13b40:	000d4883          	lbu	a7,0(s10)
   13b44:	008beb93          	ori	s7,s7,8
   13b48:	f19fe06f          	jal	zero,12a60 <_vfprintf_r+0x1a0>
   13b4c:	00012703          	lw	a4,0(sp)
   13b50:	41870db3          	sub	s11,a4,s8
   13b54:	01b04463          	blt	zero,s11,13b5c <_vfprintf_r+0x129c>
   13b58:	828ff06f          	jal	zero,12b80 <_vfprintf_r+0x2c0>
   13b5c:	01000e93          	addi	t4,zero,16
   13b60:	0b812583          	lw	a1,184(sp)
   13b64:	0006c837          	lui	a6,0x6c
   13b68:	01bec463          	blt	t4,s11,13b70 <_vfprintf_r+0x12b0>
   13b6c:	2050106f          	jal	zero,15570 <_vfprintf_r+0x2cb0>
   13b70:	000d8493          	addi	s1,s11,0
   13b74:	02f12e23          	sw	a5,60(sp)
   13b78:	000d0d93          	addi	s11,s10,0
   13b7c:	000b0793          	addi	a5,s6,0
   13b80:	000c8d13          	addi	s10,s9,0
   13b84:	00700293          	addi	t0,zero,7
   13b88:	000c0c93          	addi	s9,s8,0
   13b8c:	03112c23          	sw	a7,56(sp)
   13b90:	000a8c13          	addi	s8,s5,0
   13b94:	00030b13          	addi	s6,t1,0
   13b98:	4b880a93          	addi	s5,a6,1208 # 6c4b8 <zeroes.0>
   13b9c:	00c0006f          	jal	zero,13ba8 <_vfprintf_r+0x12e8>
   13ba0:	ff048493          	addi	s1,s1,-16
   13ba4:	049eda63          	bge	t4,s1,13bf8 <_vfprintf_r+0x1338>
   13ba8:	01060613          	addi	a2,a2,16
   13bac:	00158593          	addi	a1,a1,1
   13bb0:	0157a023          	sw	s5,0(a5)
   13bb4:	01d7a223          	sw	t4,4(a5)
   13bb8:	0ac12e23          	sw	a2,188(sp)
   13bbc:	0ab12c23          	sw	a1,184(sp)
   13bc0:	00878793          	addi	a5,a5,8
   13bc4:	fcb2dee3          	bge	t0,a1,13ba0 <_vfprintf_r+0x12e0>
   13bc8:	00412583          	lw	a1,4(sp)
   13bcc:	0b410613          	addi	a2,sp,180
   13bd0:	00090513          	addi	a0,s2,0
   13bd4:	649010ef          	jal	ra,15a1c <__sprint_r>
   13bd8:	0c051063          	bne	a0,zero,13c98 <_vfprintf_r+0x13d8>
   13bdc:	01000e93          	addi	t4,zero,16
   13be0:	ff048493          	addi	s1,s1,-16
   13be4:	0bc12603          	lw	a2,188(sp)
   13be8:	0b812583          	lw	a1,184(sp)
   13bec:	00098793          	addi	a5,s3,0
   13bf0:	00700293          	addi	t0,zero,7
   13bf4:	fa9ecae3          	blt	t4,s1,13ba8 <_vfprintf_r+0x12e8>
   13bf8:	000b0313          	addi	t1,s6,0
   13bfc:	03812883          	lw	a7,56(sp)
   13c00:	00078b13          	addi	s6,a5,0
   13c04:	03c12783          	lw	a5,60(sp)
   13c08:	000a8813          	addi	a6,s5,0
   13c0c:	000c0a93          	addi	s5,s8,0
   13c10:	000c8c13          	addi	s8,s9,0
   13c14:	000d0c93          	addi	s9,s10,0
   13c18:	000d8d13          	addi	s10,s11,0
   13c1c:	00048d93          	addi	s11,s1,0
   13c20:	01b60633          	add	a2,a2,s11
   13c24:	00158593          	addi	a1,a1,1
   13c28:	010b2023          	sw	a6,0(s6)
   13c2c:	01bb2223          	sw	s11,4(s6)
   13c30:	0ac12e23          	sw	a2,188(sp)
   13c34:	0ab12c23          	sw	a1,184(sp)
   13c38:	00700713          	addi	a4,zero,7
   13c3c:	008b0b13          	addi	s6,s6,8
   13c40:	00b74463          	blt	a4,a1,13c48 <_vfprintf_r+0x1388>
   13c44:	f3dfe06f          	jal	zero,12b80 <_vfprintf_r+0x2c0>
   13c48:	00412583          	lw	a1,4(sp)
   13c4c:	0b410613          	addi	a2,sp,180
   13c50:	00090513          	addi	a0,s2,0
   13c54:	04612023          	sw	t1,64(sp)
   13c58:	02f12e23          	sw	a5,60(sp)
   13c5c:	03112c23          	sw	a7,56(sp)
   13c60:	5bd010ef          	jal	ra,15a1c <__sprint_r>
   13c64:	02051a63          	bne	a0,zero,13c98 <_vfprintf_r+0x13d8>
   13c68:	0bc12603          	lw	a2,188(sp)
   13c6c:	03812883          	lw	a7,56(sp)
   13c70:	03c12783          	lw	a5,60(sp)
   13c74:	04012303          	lw	t1,64(sp)
   13c78:	00098b13          	addi	s6,s3,0
   13c7c:	f05fe06f          	jal	zero,12b80 <_vfprintf_r+0x2c0>
   13c80:	00412583          	lw	a1,4(sp)
   13c84:	0b410613          	addi	a2,sp,180
   13c88:	00090513          	addi	a0,s2,0
   13c8c:	591010ef          	jal	ra,15a1c <__sprint_r>
   13c90:	00051463          	bne	a0,zero,13c98 <_vfprintf_r+0x13d8>
   13c94:	f5dfe06f          	jal	zero,12bf0 <_vfprintf_r+0x330>
   13c98:	01012583          	lw	a1,16(sp)
   13c9c:	00412483          	lw	s1,4(sp)
   13ca0:	00058663          	beq	a1,zero,13cac <_vfprintf_r+0x13ec>
   13ca4:	00090513          	addi	a0,s2,0
   13ca8:	8a8fe0ef          	jal	ra,11d50 <_free_r>
   13cac:	00c4d783          	lhu	a5,12(s1)
   13cb0:	1b812403          	lw	s0,440(sp)
   13cb4:	1ac12983          	lw	s3,428(sp)
   13cb8:	0407f793          	andi	a5,a5,64
   13cbc:	1a812a03          	lw	s4,424(sp)
   13cc0:	1a412a83          	lw	s5,420(sp)
   13cc4:	1a012b03          	lw	s6,416(sp)
   13cc8:	19c12b83          	lw	s7,412(sp)
   13ccc:	19812c03          	lw	s8,408(sp)
   13cd0:	19412c83          	lw	s9,404(sp)
   13cd4:	18c12d83          	lw	s11,396(sp)
   13cd8:	00078463          	beq	a5,zero,13ce0 <_vfprintf_r+0x1420>
   13cdc:	fb5fe06f          	jal	zero,12c90 <_vfprintf_r+0x3d0>
   13ce0:	1bc12083          	lw	ra,444(sp)
   13ce4:	00812503          	lw	a0,8(sp)
   13ce8:	1b412483          	lw	s1,436(sp)
   13cec:	1b012903          	lw	s2,432(sp)
   13cf0:	19012d03          	lw	s10,400(sp)
   13cf4:	1c010113          	addi	sp,sp,448
   13cf8:	00008067          	jalr	zero,0(ra)
   13cfc:	00012703          	lw	a4,0(sp)
   13d00:	02012023          	sw	zero,32(sp)
   13d04:	00012e23          	sw	zero,28(sp)
   13d08:	41870733          	sub	a4,a4,s8
   13d0c:	00000313          	addi	t1,zero,0
   13d10:	28e04a63          	blt	zero,a4,13fa4 <_vfprintf_r+0x16e4>
   13d14:	000e9463          	bne	t4,zero,13d1c <_vfprintf_r+0x145c>
   13d18:	e2dfe06f          	jal	zero,12b44 <_vfprintf_r+0x284>
   13d1c:	00200713          	addi	a4,zero,2
   13d20:	df1fe06f          	jal	zero,12b10 <_vfprintf_r+0x250>
   13d24:	00412583          	lw	a1,4(sp)
   13d28:	0b410613          	addi	a2,sp,180
   13d2c:	00090513          	addi	a0,s2,0
   13d30:	04612023          	sw	t1,64(sp)
   13d34:	02f12e23          	sw	a5,60(sp)
   13d38:	03112c23          	sw	a7,56(sp)
   13d3c:	4e1010ef          	jal	ra,15a1c <__sprint_r>
   13d40:	f4051ce3          	bne	a0,zero,13c98 <_vfprintf_r+0x13d8>
   13d44:	0bc12603          	lw	a2,188(sp)
   13d48:	04012303          	lw	t1,64(sp)
   13d4c:	03c12783          	lw	a5,60(sp)
   13d50:	03812883          	lw	a7,56(sp)
   13d54:	00098b13          	addi	s6,s3,0
   13d58:	e1dfe06f          	jal	zero,12b74 <_vfprintf_r+0x2b4>
   13d5c:	01000c93          	addi	s9,zero,16
   13d60:	0b812783          	lw	a5,184(sp)
   13d64:	0006c837          	lui	a6,0x6c
   13d68:	015cc463          	blt	s9,s5,13d70 <_vfprintf_r+0x14b0>
   13d6c:	7940106f          	jal	zero,15500 <_vfprintf_r+0x2c40>
   13d70:	00412483          	lw	s1,4(sp)
   13d74:	00700d93          	addi	s11,zero,7
   13d78:	4c880b93          	addi	s7,a6,1224 # 6c4c8 <blanks.1>
   13d7c:	00c0006f          	jal	zero,13d88 <_vfprintf_r+0x14c8>
   13d80:	ff0a8a93          	addi	s5,s5,-16
   13d84:	055cd663          	bge	s9,s5,13dd0 <_vfprintf_r+0x1510>
   13d88:	01060613          	addi	a2,a2,16
   13d8c:	00178793          	addi	a5,a5,1
   13d90:	017b2023          	sw	s7,0(s6)
   13d94:	019b2223          	sw	s9,4(s6)
   13d98:	0ac12e23          	sw	a2,188(sp)
   13d9c:	0af12c23          	sw	a5,184(sp)
   13da0:	008b0b13          	addi	s6,s6,8
   13da4:	fcfddee3          	bge	s11,a5,13d80 <_vfprintf_r+0x14c0>
   13da8:	0b410613          	addi	a2,sp,180
   13dac:	00048593          	addi	a1,s1,0
   13db0:	00090513          	addi	a0,s2,0
   13db4:	469010ef          	jal	ra,15a1c <__sprint_r>
   13db8:	140514e3          	bne	a0,zero,14700 <_vfprintf_r+0x1e40>
   13dbc:	ff0a8a93          	addi	s5,s5,-16
   13dc0:	0bc12603          	lw	a2,188(sp)
   13dc4:	0b812783          	lw	a5,184(sp)
   13dc8:	00098b13          	addi	s6,s3,0
   13dcc:	fb5ccee3          	blt	s9,s5,13d88 <_vfprintf_r+0x14c8>
   13dd0:	000b8813          	addi	a6,s7,0
   13dd4:	01560633          	add	a2,a2,s5
   13dd8:	00178793          	addi	a5,a5,1
   13ddc:	0ac12e23          	sw	a2,188(sp)
   13de0:	0af12c23          	sw	a5,184(sp)
   13de4:	010b2023          	sw	a6,0(s6)
   13de8:	015b2223          	sw	s5,4(s6)
   13dec:	00700713          	addi	a4,zero,7
   13df0:	00f74463          	blt	a4,a5,13df8 <_vfprintf_r+0x1538>
   13df4:	dddfe06f          	jal	zero,12bd0 <_vfprintf_r+0x310>
   13df8:	00412583          	lw	a1,4(sp)
   13dfc:	0b410613          	addi	a2,sp,180
   13e00:	00090513          	addi	a0,s2,0
   13e04:	419010ef          	jal	ra,15a1c <__sprint_r>
   13e08:	e80518e3          	bne	a0,zero,13c98 <_vfprintf_r+0x13d8>
   13e0c:	0bc12603          	lw	a2,188(sp)
   13e10:	dc1fe06f          	jal	zero,12bd0 <_vfprintf_r+0x310>
   13e14:	18010793          	addi	a5,sp,384
   13e18:	01d61593          	slli	a1,a2,0x1d
   13e1c:	00777693          	andi	a3,a4,7
   13e20:	00375713          	srli	a4,a4,0x3
   13e24:	00078513          	addi	a0,a5,0
   13e28:	00e58733          	add	a4,a1,a4
   13e2c:	03068693          	addi	a3,a3,48
   13e30:	00365613          	srli	a2,a2,0x3
   13e34:	00c765b3          	or	a1,a4,a2
   13e38:	fed78fa3          	sb	a3,-1(a5)
   13e3c:	fff78793          	addi	a5,a5,-1
   13e40:	fc059ce3          	bne	a1,zero,13e18 <_vfprintf_r+0x1558>
   13e44:	fd068693          	addi	a3,a3,-48
   13e48:	00068663          	beq	a3,zero,13e54 <_vfprintf_r+0x1594>
   13e4c:	001bf713          	andi	a4,s7,1
   13e50:	36071a63          	bne	a4,zero,141c4 <_vfprintf_r+0x1904>
   13e54:	18010713          	addi	a4,sp,384
   13e58:	40f70cb3          	sub	s9,a4,a5
   13e5c:	000a8c13          	addi	s8,s5,0
   13e60:	359ac663          	blt	s5,s9,141ac <_vfprintf_r+0x18ec>
   13e64:	00012823          	sw	zero,16(sp)
   13e68:	02012023          	sw	zero,32(sp)
   13e6c:	00012e23          	sw	zero,28(sp)
   13e70:	00000313          	addi	t1,zero,0
   13e74:	c7dfe06f          	jal	zero,12af0 <_vfprintf_r+0x230>
   13e78:	09812503          	lw	a0,152(sp)
   13e7c:	78a05663          	bge	zero,a0,14608 <_vfprintf_r+0x1d48>
   13e80:	01812703          	lw	a4,24(sp)
   13e84:	00030a93          	addi	s5,t1,0
   13e88:	48674863          	blt	a4,t1,14318 <_vfprintf_r+0x1a58>
   13e8c:	03505663          	bge	zero,s5,13eb8 <_vfprintf_r+0x15f8>
   13e90:	0b812703          	lw	a4,184(sp)
   13e94:	01560633          	add	a2,a2,s5
   13e98:	00fb2023          	sw	a5,0(s6)
   13e9c:	00170713          	addi	a4,a4,1
   13ea0:	015b2223          	sw	s5,4(s6)
   13ea4:	0ac12e23          	sw	a2,188(sp)
   13ea8:	0ae12c23          	sw	a4,184(sp)
   13eac:	00700593          	addi	a1,zero,7
   13eb0:	008b0b13          	addi	s6,s6,8
   13eb4:	54e5c4e3          	blt	a1,a4,14bfc <_vfprintf_r+0x233c>
   13eb8:	fffac713          	xori	a4,s5,-1
   13ebc:	41f75713          	srai	a4,a4,0x1f
   13ec0:	00eafab3          	and	s5,s5,a4
   13ec4:	41530ab3          	sub	s5,t1,s5
   13ec8:	55504263          	blt	zero,s5,1440c <_vfprintf_r+0x1b4c>
   13ecc:	400bf713          	andi	a4,s7,1024
   13ed0:	00678db3          	add	s11,a5,t1
   13ed4:	2c0712e3          	bne	a4,zero,14998 <_vfprintf_r+0x20d8>
   13ed8:	09812a83          	lw	s5,152(sp)
   13edc:	01812703          	lw	a4,24(sp)
   13ee0:	00eac663          	blt	s5,a4,13eec <_vfprintf_r+0x162c>
   13ee4:	001bf713          	andi	a4,s7,1
   13ee8:	5a070ae3          	beq	a4,zero,14c9c <_vfprintf_r+0x23dc>
   13eec:	02412683          	lw	a3,36(sp)
   13ef0:	0b812703          	lw	a4,184(sp)
   13ef4:	00700593          	addi	a1,zero,7
   13ef8:	00d60633          	add	a2,a2,a3
   13efc:	02812683          	lw	a3,40(sp)
   13f00:	00170713          	addi	a4,a4,1
   13f04:	0ac12e23          	sw	a2,188(sp)
   13f08:	00db2023          	sw	a3,0(s6)
   13f0c:	02412683          	lw	a3,36(sp)
   13f10:	0ae12c23          	sw	a4,184(sp)
   13f14:	008b0b13          	addi	s6,s6,8
   13f18:	fedb2e23          	sw	a3,-4(s6)
   13f1c:	00e5d463          	bge	a1,a4,13f24 <_vfprintf_r+0x1664>
   13f20:	4b80106f          	jal	zero,153d8 <_vfprintf_r+0x2b18>
   13f24:	01812703          	lw	a4,24(sp)
   13f28:	00e787b3          	add	a5,a5,a4
   13f2c:	41b78cb3          	sub	s9,a5,s11
   13f30:	41570ab3          	sub	s5,a4,s5
   13f34:	019ad463          	bge	s5,s9,13f3c <_vfprintf_r+0x167c>
   13f38:	000a8c93          	addi	s9,s5,0
   13f3c:	03905863          	bge	zero,s9,13f6c <_vfprintf_r+0x16ac>
   13f40:	0b812703          	lw	a4,184(sp)
   13f44:	01960633          	add	a2,a2,s9
   13f48:	01bb2023          	sw	s11,0(s6)
   13f4c:	00170713          	addi	a4,a4,1
   13f50:	019b2223          	sw	s9,4(s6)
   13f54:	0ac12e23          	sw	a2,188(sp)
   13f58:	0ae12c23          	sw	a4,184(sp)
   13f5c:	00700793          	addi	a5,zero,7
   13f60:	008b0b13          	addi	s6,s6,8
   13f64:	00e7d463          	bge	a5,a4,13f6c <_vfprintf_r+0x16ac>
   13f68:	4ec0106f          	jal	zero,15454 <_vfprintf_r+0x2b94>
   13f6c:	fffcc713          	xori	a4,s9,-1
   13f70:	41f75713          	srai	a4,a4,0x1f
   13f74:	00ecf7b3          	and	a5,s9,a4
   13f78:	40fa8ab3          	sub	s5,s5,a5
   13f7c:	01504463          	blt	zero,s5,13f84 <_vfprintf_r+0x16c4>
   13f80:	c39fe06f          	jal	zero,12bb8 <_vfprintf_r+0x2f8>
   13f84:	0006c837          	lui	a6,0x6c
   13f88:	01000c93          	addi	s9,zero,16
   13f8c:	0b812783          	lw	a5,184(sp)
   13f90:	00700d93          	addi	s11,zero,7
   13f94:	4b880493          	addi	s1,a6,1208 # 6c4b8 <zeroes.0>
   13f98:	515ccc63          	blt	s9,s5,144b0 <_vfprintf_r+0x1bf0>
   13f9c:	4b880813          	addi	a6,a6,1208
   13fa0:	7a40006f          	jal	zero,14744 <_vfprintf_r+0x1e84>
   13fa4:	00200d93          	addi	s11,zero,2
   13fa8:	01000e93          	addi	t4,zero,16
   13fac:	00080613          	addi	a2,a6,0
   13fb0:	00050593          	addi	a1,a0,0
   13fb4:	0006c837          	lui	a6,0x6c
   13fb8:	00eec463          	blt	t4,a4,13fc0 <_vfprintf_r+0x1700>
   13fbc:	44c0106f          	jal	zero,15408 <_vfprintf_r+0x2b48>
   13fc0:	02f12e23          	sw	a5,60(sp)
   13fc4:	00700393          	addi	t2,zero,7
   13fc8:	000b0793          	addi	a5,s6,0
   13fcc:	00070493          	addi	s1,a4,0
   13fd0:	000a8b13          	addi	s6,s5,0
   13fd4:	03112c23          	sw	a7,56(sp)
   13fd8:	04612023          	sw	t1,64(sp)
   13fdc:	4c880a93          	addi	s5,a6,1224 # 6c4c8 <blanks.1>
   13fe0:	00c0006f          	jal	zero,13fec <_vfprintf_r+0x172c>
   13fe4:	ff048493          	addi	s1,s1,-16
   13fe8:	049eda63          	bge	t4,s1,1403c <_vfprintf_r+0x177c>
   13fec:	01060613          	addi	a2,a2,16
   13ff0:	00158593          	addi	a1,a1,1
   13ff4:	0157a023          	sw	s5,0(a5)
   13ff8:	01d7a223          	sw	t4,4(a5)
   13ffc:	0ac12e23          	sw	a2,188(sp)
   14000:	0ab12c23          	sw	a1,184(sp)
   14004:	00878793          	addi	a5,a5,8
   14008:	fcb3dee3          	bge	t2,a1,13fe4 <_vfprintf_r+0x1724>
   1400c:	00412583          	lw	a1,4(sp)
   14010:	0b410613          	addi	a2,sp,180
   14014:	00090513          	addi	a0,s2,0
   14018:	205010ef          	jal	ra,15a1c <__sprint_r>
   1401c:	c6051ee3          	bne	a0,zero,13c98 <_vfprintf_r+0x13d8>
   14020:	01000e93          	addi	t4,zero,16
   14024:	ff048493          	addi	s1,s1,-16
   14028:	0bc12603          	lw	a2,188(sp)
   1402c:	0b812583          	lw	a1,184(sp)
   14030:	00098793          	addi	a5,s3,0
   14034:	00700393          	addi	t2,zero,7
   14038:	fa9ecae3          	blt	t4,s1,13fec <_vfprintf_r+0x172c>
   1403c:	000a8813          	addi	a6,s5,0
   14040:	03812883          	lw	a7,56(sp)
   14044:	000b0a93          	addi	s5,s6,0
   14048:	04012303          	lw	t1,64(sp)
   1404c:	00078b13          	addi	s6,a5,0
   14050:	03c12783          	lw	a5,60(sp)
   14054:	00048713          	addi	a4,s1,0
   14058:	00c70633          	add	a2,a4,a2
   1405c:	00158593          	addi	a1,a1,1
   14060:	00eb2223          	sw	a4,4(s6)
   14064:	0ac12e23          	sw	a2,188(sp)
   14068:	0ab12c23          	sw	a1,184(sp)
   1406c:	010b2023          	sw	a6,0(s6)
   14070:	00700713          	addi	a4,zero,7
   14074:	54b74463          	blt	a4,a1,145bc <_vfprintf_r+0x1cfc>
   14078:	09314703          	lbu	a4,147(sp)
   1407c:	008b0b13          	addi	s6,s6,8
   14080:	12071063          	bne	a4,zero,141a0 <_vfprintf_r+0x18e0>
   14084:	000d9463          	bne	s11,zero,1408c <_vfprintf_r+0x17cc>
   14088:	af9fe06f          	jal	zero,12b80 <_vfprintf_r+0x2c0>
   1408c:	00000d93          	addi	s11,zero,0
   14090:	ab5fe06f          	jal	zero,12b44 <_vfprintf_r+0x284>
   14094:	0b812503          	lw	a0,184(sp)
   14098:	f11ff06f          	jal	zero,13fa8 <_vfprintf_r+0x16e8>
   1409c:	00000c93          	addi	s9,zero,0
   140a0:	00000a93          	addi	s5,zero,0
   140a4:	02012023          	sw	zero,32(sp)
   140a8:	00012e23          	sw	zero,28(sp)
   140ac:	00000313          	addi	t1,zero,0
   140b0:	00012823          	sw	zero,16(sp)
   140b4:	18010793          	addi	a5,sp,384
   140b8:	a39fe06f          	jal	zero,12af0 <_vfprintf_r+0x230>
   140bc:	00ebf5b3          	and	a1,s7,a4
   140c0:	86059863          	bne	a1,zero,13130 <_vfprintf_r+0x870>
   140c4:	00fb2023          	sw	a5,0(s6)
   140c8:	00eb2223          	sw	a4,4(s6)
   140cc:	0ac12e23          	sw	a2,188(sp)
   140d0:	0b512c23          	sw	s5,184(sp)
   140d4:	00700793          	addi	a5,zero,7
   140d8:	9357d663          	bge	a5,s5,13204 <_vfprintf_r+0x944>
   140dc:	00412583          	lw	a1,4(sp)
   140e0:	0b410613          	addi	a2,sp,180
   140e4:	00090513          	addi	a0,s2,0
   140e8:	135010ef          	jal	ra,15a1c <__sprint_r>
   140ec:	ba0516e3          	bne	a0,zero,13c98 <_vfprintf_r+0x13d8>
   140f0:	0bc12603          	lw	a2,188(sp)
   140f4:	0b812a83          	lw	s5,184(sp)
   140f8:	00098d93          	addi	s11,s3,0
   140fc:	908ff06f          	jal	zero,13204 <_vfprintf_r+0x944>
   14100:	01812703          	lw	a4,24(sp)
   14104:	00100793          	addi	a5,zero,1
   14108:	8ee7de63          	bge	a5,a4,13204 <_vfprintf_r+0x944>
   1410c:	01100793          	addi	a5,zero,17
   14110:	0006c837          	lui	a6,0x6c
   14114:	00e7c463          	blt	a5,a4,1411c <_vfprintf_r+0x185c>
   14118:	7800106f          	jal	zero,15898 <_vfprintf_r+0x2fd8>
   1411c:	01000c93          	addi	s9,zero,16
   14120:	00700793          	addi	a5,zero,7
   14124:	4b880493          	addi	s1,a6,1208 # 6c4b8 <zeroes.0>
   14128:	00c0006f          	jal	zero,14134 <_vfprintf_r+0x1874>
   1412c:	ff0b0b13          	addi	s6,s6,-16
   14130:	716cd863          	bge	s9,s6,14840 <_vfprintf_r+0x1f80>
   14134:	01060613          	addi	a2,a2,16
   14138:	001a8a93          	addi	s5,s5,1
   1413c:	009da023          	sw	s1,0(s11)
   14140:	019da223          	sw	s9,4(s11)
   14144:	0ac12e23          	sw	a2,188(sp)
   14148:	0b512c23          	sw	s5,184(sp)
   1414c:	008d8d93          	addi	s11,s11,8
   14150:	fd57dee3          	bge	a5,s5,1412c <_vfprintf_r+0x186c>
   14154:	00412583          	lw	a1,4(sp)
   14158:	0b410613          	addi	a2,sp,180
   1415c:	00090513          	addi	a0,s2,0
   14160:	0bd010ef          	jal	ra,15a1c <__sprint_r>
   14164:	b2051ae3          	bne	a0,zero,13c98 <_vfprintf_r+0x13d8>
   14168:	0bc12603          	lw	a2,188(sp)
   1416c:	0b812a83          	lw	s5,184(sp)
   14170:	00098d93          	addi	s11,s3,0
   14174:	00700793          	addi	a5,zero,7
   14178:	fb5ff06f          	jal	zero,1412c <_vfprintf_r+0x186c>
   1417c:	001bf793          	andi	a5,s7,1
   14180:	00079463          	bne	a5,zero,14188 <_vfprintf_r+0x18c8>
   14184:	a35fe06f          	jal	zero,12bb8 <_vfprintf_r+0x2f8>
   14188:	b18ff06f          	jal	zero,134a0 <_vfprintf_r+0xbe0>
   1418c:	00c12783          	lw	a5,12(sp)
   14190:	000d4883          	lbu	a7,0(s10)
   14194:	00478793          	addi	a5,a5,4
   14198:	00f12623          	sw	a5,12(sp)
   1419c:	8c5fe06f          	jal	zero,12a60 <_vfprintf_r+0x1a0>
   141a0:	000d8713          	addi	a4,s11,0
   141a4:	00000d93          	addi	s11,zero,0
   141a8:	969fe06f          	jal	zero,12b10 <_vfprintf_r+0x250>
   141ac:	000c8c13          	addi	s8,s9,0
   141b0:	00012823          	sw	zero,16(sp)
   141b4:	02012023          	sw	zero,32(sp)
   141b8:	00012e23          	sw	zero,28(sp)
   141bc:	00000313          	addi	t1,zero,0
   141c0:	931fe06f          	jal	zero,12af0 <_vfprintf_r+0x230>
   141c4:	ffe50513          	addi	a0,a0,-2
   141c8:	03000713          	addi	a4,zero,48
   141cc:	18010693          	addi	a3,sp,384
   141d0:	40a68cb3          	sub	s9,a3,a0
   141d4:	fee78fa3          	sb	a4,-1(a5)
   141d8:	000a8c13          	addi	s8,s5,0
   141dc:	019ad463          	bge	s5,s9,141e4 <_vfprintf_r+0x1924>
   141e0:	000c8c13          	addi	s8,s9,0
   141e4:	00050793          	addi	a5,a0,0
   141e8:	00012823          	sw	zero,16(sp)
   141ec:	02012023          	sw	zero,32(sp)
   141f0:	00012e23          	sw	zero,28(sp)
   141f4:	00000313          	addi	t1,zero,0
   141f8:	8f9fe06f          	jal	zero,12af0 <_vfprintf_r+0x230>
   141fc:	00c12783          	lw	a5,12(sp)
   14200:	00478793          	addi	a5,a5,4
   14204:	00c12703          	lw	a4,12(sp)
   14208:	00000613          	addi	a2,zero,0
   1420c:	00f12623          	sw	a5,12(sp)
   14210:	00072703          	lw	a4,0(a4)
   14214:	de4ff06f          	jal	zero,137f8 <_vfprintf_r+0xf38>
   14218:	00c12783          	lw	a5,12(sp)
   1421c:	00812683          	lw	a3,8(sp)
   14220:	00812603          	lw	a2,8(sp)
   14224:	0007a783          	lw	a5,0(a5)
   14228:	41f6d693          	srai	a3,a3,0x1f
   1422c:	00e12623          	sw	a4,12(sp)
   14230:	00c7a023          	sw	a2,0(a5)
   14234:	00d7a223          	sw	a3,4(a5)
   14238:	f94fe06f          	jal	zero,129cc <_vfprintf_r+0x10c>
   1423c:	00c12783          	lw	a5,12(sp)
   14240:	00478793          	addi	a5,a5,4
   14244:	00c12703          	lw	a4,12(sp)
   14248:	000e0b93          	addi	s7,t3,0
   1424c:	00f12623          	sw	a5,12(sp)
   14250:	00072c03          	lw	s8,0(a4)
   14254:	41fc5e93          	srai	t4,s8,0x1f
   14258:	000e8713          	addi	a4,t4,0
   1425c:	b34ff06f          	jal	zero,13590 <_vfprintf_r+0xcd0>
   14260:	00c12783          	lw	a5,12(sp)
   14264:	00c12703          	lw	a4,12(sp)
   14268:	0007a783          	lw	a5,0(a5)
   1426c:	00470713          	addi	a4,a4,4
   14270:	00e12623          	sw	a4,12(sp)
   14274:	0007a603          	lw	a2,0(a5)
   14278:	0047a683          	lw	a3,4(a5)
   1427c:	0087a703          	lw	a4,8(a5)
   14280:	00c7a783          	lw	a5,12(a5)
   14284:	a61fe06f          	jal	zero,12ce4 <_vfprintf_r+0x424>
   14288:	000b8693          	addi	a3,s7,0
   1428c:	d50ff06f          	jal	zero,137dc <_vfprintf_r+0xf1c>
   14290:	09314e83          	lbu	t4,147(sp)
   14294:	00100c13          	addi	s8,zero,1
   14298:	00000313          	addi	t1,zero,0
   1429c:	00100c93          	addi	s9,zero,1
   142a0:	17f10793          	addi	a5,sp,383
   142a4:	c0cff06f          	jal	zero,136b0 <_vfprintf_r+0xdf0>
   142a8:	000e0b93          	addi	s7,t3,0
   142ac:	bd8ff06f          	jal	zero,13684 <_vfprintf_r+0xdc4>
   142b0:	000615b7          	lui	a1,0x61
   142b4:	002beb93          	ori	s7,s7,2
   142b8:	00f12623          	sw	a5,12(sp)
   142bc:	7f458593          	addi	a1,a1,2036 # 617f4 <__clzsi2+0x400a8>
   142c0:	00200313          	addi	t1,zero,2
   142c4:	00000e93          	addi	t4,zero,0
   142c8:	07800893          	addi	a7,zero,120
   142cc:	18010793          	addi	a5,sp,384
   142d0:	00f77693          	andi	a3,a4,15
   142d4:	00d586b3          	add	a3,a1,a3
   142d8:	0006c683          	lbu	a3,0(a3)
   142dc:	00475713          	srli	a4,a4,0x4
   142e0:	fff78793          	addi	a5,a5,-1
   142e4:	00d78023          	sb	a3,0(a5)
   142e8:	01c61693          	slli	a3,a2,0x1c
   142ec:	00e68733          	add	a4,a3,a4
   142f0:	00465613          	srli	a2,a2,0x4
   142f4:	00c766b3          	or	a3,a4,a2
   142f8:	fc069ce3          	bne	a3,zero,142d0 <_vfprintf_r+0x1a10>
   142fc:	18010713          	addi	a4,sp,384
   14300:	40f70cb3          	sub	s9,a4,a5
   14304:	000a8c13          	addi	s8,s5,0
   14308:	bb9ad463          	bge	s5,s9,136b0 <_vfprintf_r+0xdf0>
   1430c:	000c8c13          	addi	s8,s9,0
   14310:	00012823          	sw	zero,16(sp)
   14314:	ba0ff06f          	jal	zero,136b4 <_vfprintf_r+0xdf4>
   14318:	00070a93          	addi	s5,a4,0
   1431c:	b7504ae3          	blt	zero,s5,13e90 <_vfprintf_r+0x15d0>
   14320:	b99ff06f          	jal	zero,13eb8 <_vfprintf_r+0x15f8>
   14324:	fff00a93          	addi	s5,zero,-1
   14328:	00068d13          	addi	s10,a3,0
   1432c:	f38fe06f          	jal	zero,12a64 <_vfprintf_r+0x1a4>
   14330:	001d4883          	lbu	a7,1(s10)
   14334:	020beb93          	ori	s7,s7,32
   14338:	001d0d13          	addi	s10,s10,1
   1433c:	f24fe06f          	jal	zero,12a60 <_vfprintf_r+0x1a0>
   14340:	001d4883          	lbu	a7,1(s10)
   14344:	200beb93          	ori	s7,s7,512
   14348:	001d0d13          	addi	s10,s10,1
   1434c:	f14fe06f          	jal	zero,12a60 <_vfprintf_r+0x1a0>
   14350:	00412583          	lw	a1,4(sp)
   14354:	0b410613          	addi	a2,sp,180
   14358:	00090513          	addi	a0,s2,0
   1435c:	6c0010ef          	jal	ra,15a1c <__sprint_r>
   14360:	92051ce3          	bne	a0,zero,13c98 <_vfprintf_r+0x13d8>
   14364:	0bc12603          	lw	a2,188(sp)
   14368:	00098b13          	addi	s6,s3,0
   1436c:	968ff06f          	jal	zero,134d4 <_vfprintf_r+0xc14>
   14370:	000625b7          	lui	a1,0x62
   14374:	80858593          	addi	a1,a1,-2040 # 61808 <__clzsi2+0x400bc>
   14378:	020bf793          	andi	a5,s7,32
   1437c:	18078a63          	beq	a5,zero,14510 <_vfprintf_r+0x1c50>
   14380:	00c12783          	lw	a5,12(sp)
   14384:	00778793          	addi	a5,a5,7
   14388:	ff87f793          	andi	a5,a5,-8
   1438c:	00878713          	addi	a4,a5,8
   14390:	00e12623          	sw	a4,12(sp)
   14394:	0047a603          	lw	a2,4(a5)
   14398:	0007a703          	lw	a4,0(a5)
   1439c:	001bf793          	andi	a5,s7,1
   143a0:	00c766b3          	or	a3,a4,a2
   143a4:	00078463          	beq	a5,zero,143ac <_vfprintf_r+0x1aec>
   143a8:	30069263          	bne	a3,zero,146ac <_vfprintf_r+0x1dec>
   143ac:	080109a3          	sb	zero,147(sp)
   143b0:	1e0ace63          	blt	s5,zero,145ac <_vfprintf_r+0x1cec>
   143b4:	b7fbfb93          	andi	s7,s7,-1153
   143b8:	00000313          	addi	t1,zero,0
   143bc:	000a9463          	bne	s5,zero,143c4 <_vfprintf_r+0x1b04>
   143c0:	ea068063          	beq	a3,zero,13a60 <_vfprintf_r+0x11a0>
   143c4:	09314e83          	lbu	t4,147(sp)
   143c8:	f05ff06f          	jal	zero,142cc <_vfprintf_r+0x1a0c>
   143cc:	000615b7          	lui	a1,0x61
   143d0:	7f458593          	addi	a1,a1,2036 # 617f4 <__clzsi2+0x400a8>
   143d4:	fa5ff06f          	jal	zero,14378 <_vfprintf_r+0x1ab8>
   143d8:	00600793          	addi	a5,zero,6
   143dc:	000a8c13          	addi	s8,s5,0
   143e0:	0157eae3          	bltu	a5,s5,14bf4 <_vfprintf_r+0x2334>
   143e4:	000627b7          	lui	a5,0x62
   143e8:	00912623          	sw	s1,12(sp)
   143ec:	81c78793          	addi	a5,a5,-2020 # 6181c <__clzsi2+0x400d0>
   143f0:	00012823          	sw	zero,16(sp)
   143f4:	000c0c93          	addi	s9,s8,0
   143f8:	00000a93          	addi	s5,zero,0
   143fc:	02012023          	sw	zero,32(sp)
   14400:	00012e23          	sw	zero,28(sp)
   14404:	00000313          	addi	t1,zero,0
   14408:	ee8fe06f          	jal	zero,12af0 <_vfprintf_r+0x230>
   1440c:	01000893          	addi	a7,zero,16
   14410:	0b812703          	lw	a4,184(sp)
   14414:	0006c837          	lui	a6,0x6c
   14418:	0158c463          	blt	a7,s5,14420 <_vfprintf_r+0x1b60>
   1441c:	4a80106f          	jal	zero,158c4 <_vfprintf_r+0x3004>
   14420:	000a8493          	addi	s1,s5,0
   14424:	00700c93          	addi	s9,zero,7
   14428:	00078d93          	addi	s11,a5,0
   1442c:	02612c23          	sw	t1,56(sp)
   14430:	4b880a93          	addi	s5,a6,1208 # 6c4b8 <zeroes.0>
   14434:	00c0006f          	jal	zero,14440 <_vfprintf_r+0x1b80>
   14438:	ff048493          	addi	s1,s1,-16
   1443c:	7498da63          	bge	a7,s1,14b90 <_vfprintf_r+0x22d0>
   14440:	01060613          	addi	a2,a2,16
   14444:	00170713          	addi	a4,a4,1
   14448:	015b2023          	sw	s5,0(s6)
   1444c:	011b2223          	sw	a7,4(s6)
   14450:	0ac12e23          	sw	a2,188(sp)
   14454:	0ae12c23          	sw	a4,184(sp)
   14458:	008b0b13          	addi	s6,s6,8
   1445c:	fcecdee3          	bge	s9,a4,14438 <_vfprintf_r+0x1b78>
   14460:	00412583          	lw	a1,4(sp)
   14464:	0b410613          	addi	a2,sp,180
   14468:	00090513          	addi	a0,s2,0
   1446c:	5b0010ef          	jal	ra,15a1c <__sprint_r>
   14470:	820514e3          	bne	a0,zero,13c98 <_vfprintf_r+0x13d8>
   14474:	0bc12603          	lw	a2,188(sp)
   14478:	0b812703          	lw	a4,184(sp)
   1447c:	00098b13          	addi	s6,s3,0
   14480:	01000893          	addi	a7,zero,16
   14484:	fb5ff06f          	jal	zero,14438 <_vfprintf_r+0x1b78>
   14488:	00412583          	lw	a1,4(sp)
   1448c:	0b410613          	addi	a2,sp,180
   14490:	00090513          	addi	a0,s2,0
   14494:	588010ef          	jal	ra,15a1c <__sprint_r>
   14498:	800510e3          	bne	a0,zero,13c98 <_vfprintf_r+0x13d8>
   1449c:	0bc12603          	lw	a2,188(sp)
   144a0:	0b812783          	lw	a5,184(sp)
   144a4:	00098b13          	addi	s6,s3,0
   144a8:	ff0a8a93          	addi	s5,s5,-16
   144ac:	295cda63          	bge	s9,s5,14740 <_vfprintf_r+0x1e80>
   144b0:	01060613          	addi	a2,a2,16
   144b4:	00178793          	addi	a5,a5,1
   144b8:	009b2023          	sw	s1,0(s6)
   144bc:	019b2223          	sw	s9,4(s6)
   144c0:	0ac12e23          	sw	a2,188(sp)
   144c4:	0af12c23          	sw	a5,184(sp)
   144c8:	008b0b13          	addi	s6,s6,8
   144cc:	fcfddee3          	bge	s11,a5,144a8 <_vfprintf_r+0x1be8>
   144d0:	fb9ff06f          	jal	zero,14488 <_vfprintf_r+0x1bc8>
   144d4:	00078513          	addi	a0,a5,0
   144d8:	01112823          	sw	a7,16(sp)
   144dc:	00f12623          	sw	a5,12(sp)
   144e0:	474020ef          	jal	ra,16954 <strlen>
   144e4:	09314703          	lbu	a4,147(sp)
   144e8:	fff54693          	xori	a3,a0,-1
   144ec:	41f6d693          	srai	a3,a3,0x1f
   144f0:	00c12783          	lw	a5,12(sp)
   144f4:	01012883          	lw	a7,16(sp)
   144f8:	00050c93          	addi	s9,a0,0
   144fc:	00d57c33          	and	s8,a0,a3
   14500:	00071463          	bne	a4,zero,14508 <_vfprintf_r+0x1c48>
   14504:	dbdfe06f          	jal	zero,132c0 <_vfprintf_r+0xa00>
   14508:	001c0c13          	addi	s8,s8,1
   1450c:	db5fe06f          	jal	zero,132c0 <_vfprintf_r+0xa00>
   14510:	00c12683          	lw	a3,12(sp)
   14514:	00c12703          	lw	a4,12(sp)
   14518:	010bf793          	andi	a5,s7,16
   1451c:	00468693          	addi	a3,a3,4
   14520:	00d12623          	sw	a3,12(sp)
   14524:	00072703          	lw	a4,0(a4)
   14528:	06079e63          	bne	a5,zero,145a4 <_vfprintf_r+0x1ce4>
   1452c:	040bf793          	andi	a5,s7,64
   14530:	06078663          	beq	a5,zero,1459c <_vfprintf_r+0x1cdc>
   14534:	01071713          	slli	a4,a4,0x10
   14538:	01075713          	srli	a4,a4,0x10
   1453c:	00000613          	addi	a2,zero,0
   14540:	e5dff06f          	jal	zero,1439c <_vfprintf_r+0x1adc>
   14544:	00412583          	lw	a1,4(sp)
   14548:	0b410613          	addi	a2,sp,180
   1454c:	00090513          	addi	a0,s2,0
   14550:	00f12e23          	sw	a5,28(sp)
   14554:	4c8010ef          	jal	ra,15a1c <__sprint_r>
   14558:	f4051063          	bne	a0,zero,13c98 <_vfprintf_r+0x13d8>
   1455c:	0bc12603          	lw	a2,188(sp)
   14560:	0b812a83          	lw	s5,184(sp)
   14564:	01c12783          	lw	a5,28(sp)
   14568:	00098d93          	addi	s11,s3,0
   1456c:	be5fe06f          	jal	zero,13150 <_vfprintf_r+0x890>
   14570:	00412583          	lw	a1,4(sp)
   14574:	0b410613          	addi	a2,sp,180
   14578:	00090513          	addi	a0,s2,0
   1457c:	00f12e23          	sw	a5,28(sp)
   14580:	49c010ef          	jal	ra,15a1c <__sprint_r>
   14584:	f0051a63          	bne	a0,zero,13c98 <_vfprintf_r+0x13d8>
   14588:	0bc12603          	lw	a2,188(sp)
   1458c:	0b812a83          	lw	s5,184(sp)
   14590:	01c12783          	lw	a5,28(sp)
   14594:	00098d93          	addi	s11,s3,0
   14598:	bedfe06f          	jal	zero,13184 <_vfprintf_r+0x8c4>
   1459c:	200bf793          	andi	a5,s7,512
   145a0:	74079e63          	bne	a5,zero,14cfc <_vfprintf_r+0x243c>
   145a4:	00000613          	addi	a2,zero,0
   145a8:	df5ff06f          	jal	zero,1439c <_vfprintf_r+0x1adc>
   145ac:	bffbfb93          	andi	s7,s7,-1025
   145b0:	00000313          	addi	t1,zero,0
   145b4:	00000e93          	addi	t4,zero,0
   145b8:	d15ff06f          	jal	zero,142cc <_vfprintf_r+0x1a0c>
   145bc:	00412583          	lw	a1,4(sp)
   145c0:	0b410613          	addi	a2,sp,180
   145c4:	00090513          	addi	a0,s2,0
   145c8:	04612023          	sw	t1,64(sp)
   145cc:	02f12e23          	sw	a5,60(sp)
   145d0:	03112c23          	sw	a7,56(sp)
   145d4:	448010ef          	jal	ra,15a1c <__sprint_r>
   145d8:	ec051063          	bne	a0,zero,13c98 <_vfprintf_r+0x13d8>
   145dc:	09314703          	lbu	a4,147(sp)
   145e0:	0bc12603          	lw	a2,188(sp)
   145e4:	03812883          	lw	a7,56(sp)
   145e8:	03c12783          	lw	a5,60(sp)
   145ec:	04012303          	lw	t1,64(sp)
   145f0:	22070e63          	beq	a4,zero,1482c <_vfprintf_r+0x1f6c>
   145f4:	000d8713          	addi	a4,s11,0
   145f8:	0b812583          	lw	a1,184(sp)
   145fc:	00000d93          	addi	s11,zero,0
   14600:	00098b13          	addi	s6,s3,0
   14604:	d0cfe06f          	jal	zero,12b10 <_vfprintf_r+0x250>
   14608:	0b812703          	lw	a4,184(sp)
   1460c:	0004b5b7          	lui	a1,0x4b
   14610:	e2858593          	addi	a1,a1,-472 # 4ae28 <__clzsi2+0x296dc>
   14614:	00bb2023          	sw	a1,0(s6)
   14618:	00160613          	addi	a2,a2,1
   1461c:	00100593          	addi	a1,zero,1
   14620:	00170713          	addi	a4,a4,1
   14624:	00bb2223          	sw	a1,4(s6)
   14628:	0ac12e23          	sw	a2,188(sp)
   1462c:	0ae12c23          	sw	a4,184(sp)
   14630:	00700593          	addi	a1,zero,7
   14634:	008b0b13          	addi	s6,s6,8
   14638:	44e5c0e3          	blt	a1,a4,15278 <_vfprintf_r+0x29b8>
   1463c:	01812703          	lw	a4,24(sp)
   14640:	00a76733          	or	a4,a4,a0
   14644:	5e070463          	beq	a4,zero,14c2c <_vfprintf_r+0x236c>
   14648:	02412683          	lw	a3,36(sp)
   1464c:	0b812703          	lw	a4,184(sp)
   14650:	00700593          	addi	a1,zero,7
   14654:	00c68633          	add	a2,a3,a2
   14658:	02812683          	lw	a3,40(sp)
   1465c:	00170713          	addi	a4,a4,1
   14660:	0ac12e23          	sw	a2,188(sp)
   14664:	00db2023          	sw	a3,0(s6)
   14668:	02412683          	lw	a3,36(sp)
   1466c:	0ae12c23          	sw	a4,184(sp)
   14670:	008b0b13          	addi	s6,s6,8
   14674:	fedb2e23          	sw	a3,-4(s6)
   14678:	5ee5c863          	blt	a1,a4,14c68 <_vfprintf_r+0x23a8>
   1467c:	600544e3          	blt	a0,zero,15484 <_vfprintf_r+0x2bc4>
   14680:	01812683          	lw	a3,24(sp)
   14684:	00170713          	addi	a4,a4,1
   14688:	00fb2023          	sw	a5,0(s6)
   1468c:	00c68633          	add	a2,a3,a2
   14690:	0ac12e23          	sw	a2,188(sp)
   14694:	0ae12c23          	sw	a4,184(sp)
   14698:	00db2223          	sw	a3,4(s6)
   1469c:	00700793          	addi	a5,zero,7
   146a0:	00e7c463          	blt	a5,a4,146a8 <_vfprintf_r+0x1de8>
   146a4:	d10fe06f          	jal	zero,12bb4 <_vfprintf_r+0x2f4>
   146a8:	b8dfe06f          	jal	zero,13234 <_vfprintf_r+0x974>
   146ac:	03000793          	addi	a5,zero,48
   146b0:	09110aa3          	sb	a7,149(sp)
   146b4:	080109a3          	sb	zero,147(sp)
   146b8:	08f10a23          	sb	a5,148(sp)
   146bc:	2c0ac463          	blt	s5,zero,14984 <_vfprintf_r+0x20c4>
   146c0:	b7fbfe13          	andi	t3,s7,-1153
   146c4:	09314e83          	lbu	t4,147(sp)
   146c8:	002e6b93          	ori	s7,t3,2
   146cc:	00200313          	addi	t1,zero,2
   146d0:	bfdff06f          	jal	zero,142cc <_vfprintf_r+0x1a0c>
   146d4:	00090513          	addi	a0,s2,0
   146d8:	d21fc0ef          	jal	ra,113f8 <__sinit>
   146dc:	a34fe06f          	jal	zero,12910 <_vfprintf_r+0x50>
   146e0:	00412583          	lw	a1,4(sp)
   146e4:	0b410613          	addi	a2,sp,180
   146e8:	00090513          	addi	a0,s2,0
   146ec:	330010ef          	jal	ra,15a1c <__sprint_r>
   146f0:	da051463          	bne	a0,zero,13c98 <_vfprintf_r+0x13d8>
   146f4:	0bc12603          	lw	a2,188(sp)
   146f8:	00098b13          	addi	s6,s3,0
   146fc:	d99fe06f          	jal	zero,13494 <_vfprintf_r+0xbd4>
   14700:	01012583          	lw	a1,16(sp)
   14704:	d9cff06f          	jal	zero,13ca0 <_vfprintf_r+0x13e0>
   14708:	640e9863          	bne	t4,zero,14d58 <_vfprintf_r+0x2498>
   1470c:	00900713          	addi	a4,zero,9
   14710:	65876463          	bltu	a4,s8,14d58 <_vfprintf_r+0x2498>
   14714:	18010713          	addi	a4,sp,384
   14718:	00b12c23          	sw	a1,24(sp)
   1471c:	40f70cb3          	sub	s9,a4,a5
   14720:	00048893          	addi	a7,s1,0
   14724:	000a8c13          	addi	s8,s5,0
   14728:	019ad463          	bge	s5,s9,14730 <_vfprintf_r+0x1e70>
   1472c:	000c8c13          	addi	s8,s9,0
   14730:	09314e83          	lbu	t4,147(sp)
   14734:	00000313          	addi	t1,zero,0
   14738:	00012823          	sw	zero,16(sp)
   1473c:	f79fe06f          	jal	zero,136b4 <_vfprintf_r+0xdf4>
   14740:	00048813          	addi	a6,s1,0
   14744:	01560633          	add	a2,a2,s5
   14748:	00178793          	addi	a5,a5,1
   1474c:	0ac12e23          	sw	a2,188(sp)
   14750:	0af12c23          	sw	a5,184(sp)
   14754:	010b2023          	sw	a6,0(s6)
   14758:	015b2223          	sw	s5,4(s6)
   1475c:	00700713          	addi	a4,zero,7
   14760:	00f74463          	blt	a4,a5,14768 <_vfprintf_r+0x1ea8>
   14764:	c50fe06f          	jal	zero,12bb4 <_vfprintf_r+0x2f4>
   14768:	acdfe06f          	jal	zero,13234 <_vfprintf_r+0x974>
   1476c:	0c012703          	lw	a4,192(sp)
   14770:	0c412783          	lw	a5,196(sp)
   14774:	07010593          	addi	a1,sp,112
   14778:	08e12023          	sw	a4,128(sp)
   1477c:	08f12223          	sw	a5,132(sp)
   14780:	0c812703          	lw	a4,200(sp)
   14784:	0cc12783          	lw	a5,204(sp)
   14788:	08010513          	addi	a0,sp,128
   1478c:	06012823          	sw	zero,112(sp)
   14790:	06012a23          	sw	zero,116(sp)
   14794:	06012c23          	sw	zero,120(sp)
   14798:	06012e23          	sw	zero,124(sp)
   1479c:	08e12423          	sw	a4,136(sp)
   147a0:	08f12623          	sw	a5,140(sp)
   147a4:	7580a0ef          	jal	ra,1eefc <__letf2>
   147a8:	01012883          	lw	a7,16(sp)
   147ac:	f7fbfb93          	andi	s7,s7,-129
   147b0:	400546e3          	blt	a0,zero,153bc <_vfprintf_r+0x2afc>
   147b4:	04700793          	addi	a5,zero,71
   147b8:	09314703          	lbu	a4,147(sp)
   147bc:	5917c863          	blt	a5,a7,14d4c <_vfprintf_r+0x248c>
   147c0:	000617b7          	lui	a5,0x61
   147c4:	7e478793          	addi	a5,a5,2020 # 617e4 <__clzsi2+0x40098>
   147c8:	18071863          	bne	a4,zero,14958 <_vfprintf_r+0x2098>
   147cc:	00300c93          	addi	s9,zero,3
   147d0:	000c8c13          	addi	s8,s9,0
   147d4:	af1fe06f          	jal	zero,132c4 <_vfprintf_r+0xa04>
   147d8:	00c12783          	lw	a5,12(sp)
   147dc:	00812683          	lw	a3,8(sp)
   147e0:	0007a783          	lw	a5,0(a5)
   147e4:	00d7a023          	sw	a3,0(a5)
   147e8:	00e12623          	sw	a4,12(sp)
   147ec:	9e0fe06f          	jal	zero,129cc <_vfprintf_r+0x10c>
   147f0:	000615b7          	lui	a1,0x61
   147f4:	09314e83          	lbu	t4,147(sp)
   147f8:	00f12623          	sw	a5,12(sp)
   147fc:	7f458593          	addi	a1,a1,2036 # 617f4 <__clzsi2+0x400a8>
   14800:	07800893          	addi	a7,zero,120
   14804:	00200313          	addi	t1,zero,2
   14808:	ac5ff06f          	jal	zero,142cc <_vfprintf_r+0x1a0c>
   1480c:	0bc12783          	lw	a5,188(sp)
   14810:	00412483          	lw	s1,4(sp)
   14814:	c8078c63          	beq	a5,zero,13cac <_vfprintf_r+0x13ec>
   14818:	00090513          	addi	a0,s2,0
   1481c:	0b410613          	addi	a2,sp,180
   14820:	00048593          	addi	a1,s1,0
   14824:	1f8010ef          	jal	ra,15a1c <__sprint_r>
   14828:	c84ff06f          	jal	zero,13cac <_vfprintf_r+0x13ec>
   1482c:	480d8663          	beq	s11,zero,14cb8 <_vfprintf_r+0x23f8>
   14830:	0b812583          	lw	a1,184(sp)
   14834:	00000d93          	addi	s11,zero,0
   14838:	00098b13          	addi	s6,s3,0
   1483c:	b08fe06f          	jal	zero,12b44 <_vfprintf_r+0x284>
   14840:	00048813          	addi	a6,s1,0
   14844:	01660633          	add	a2,a2,s6
   14848:	001a8a93          	addi	s5,s5,1
   1484c:	0ac12e23          	sw	a2,188(sp)
   14850:	0b512c23          	sw	s5,184(sp)
   14854:	010da023          	sw	a6,0(s11)
   14858:	016da223          	sw	s6,4(s11)
   1485c:	00700793          	addi	a5,zero,7
   14860:	0157c463          	blt	a5,s5,14868 <_vfprintf_r+0x1fa8>
   14864:	99dfe06f          	jal	zero,13200 <_vfprintf_r+0x940>
   14868:	875ff06f          	jal	zero,140dc <_vfprintf_r+0x181c>
   1486c:	200bf693          	andi	a3,s7,512
   14870:	48068c63          	beq	a3,zero,14d08 <_vfprintf_r+0x2448>
   14874:	0ff77713          	andi	a4,a4,255
   14878:	00f12623          	sw	a5,12(sp)
   1487c:	000b8693          	addi	a3,s7,0
   14880:	00000613          	addi	a2,zero,0
   14884:	f75fe06f          	jal	zero,137f8 <_vfprintf_r+0xf38>
   14888:	200bf313          	andi	t1,s7,512
   1488c:	080109a3          	sb	zero,147(sp)
   14890:	44031c63          	bne	t1,zero,14ce8 <_vfprintf_r+0x2428>
   14894:	00000e93          	addi	t4,zero,0
   14898:	000ad463          	bge	s5,zero,148a0 <_vfprintf_r+0x1fe0>
   1489c:	dedfe06f          	jal	zero,13688 <_vfprintf_r+0xdc8>
   148a0:	f7fbfb93          	andi	s7,s7,-129
   148a4:	000a8463          	beq	s5,zero,148ac <_vfprintf_r+0x1fec>
   148a8:	de1fe06f          	jal	zero,13688 <_vfprintf_r+0xdc8>
   148ac:	9a0c0a63          	beq	s8,zero,13a60 <_vfprintf_r+0x11a0>
   148b0:	dd9fe06f          	jal	zero,13688 <_vfprintf_r+0xdc8>
   148b4:	200bf713          	andi	a4,s7,512
   148b8:	42070063          	beq	a4,zero,14cd8 <_vfprintf_r+0x2418>
   148bc:	018c1c13          	slli	s8,s8,0x18
   148c0:	418c5c13          	srai	s8,s8,0x18
   148c4:	41fc5e93          	srai	t4,s8,0x1f
   148c8:	00f12623          	sw	a5,12(sp)
   148cc:	000e8713          	addi	a4,t4,0
   148d0:	cc1fe06f          	jal	zero,13590 <_vfprintf_r+0xcd0>
   148d4:	00012823          	sw	zero,16(sp)
   148d8:	00000c93          	addi	s9,zero,0
   148dc:	02012023          	sw	zero,32(sp)
   148e0:	00012e23          	sw	zero,28(sp)
   148e4:	00000313          	addi	t1,zero,0
   148e8:	18010793          	addi	a5,sp,384
   148ec:	00000c13          	addi	s8,zero,0
   148f0:	a00fe06f          	jal	zero,12af0 <_vfprintf_r+0x230>
   148f4:	100be713          	ori	a4,s7,256
   148f8:	fff00793          	addi	a5,zero,-1
   148fc:	00e12823          	sw	a4,16(sp)
   14900:	0c012e83          	lw	t4,192(sp)
   14904:	0c412f03          	lw	t5,196(sp)
   14908:	0c812283          	lw	t0,200(sp)
   1490c:	0cc12c83          	lw	s9,204(sp)
   14910:	56fa8463          	beq	s5,a5,14e78 <_vfprintf_r+0x25b8>
   14914:	fb9c0793          	addi	a5,s8,-71
   14918:	00079463          	bne	a5,zero,14920 <_vfprintf_r+0x2060>
   1491c:	6e0a8263          	beq	s5,zero,15000 <_vfprintf_r+0x2740>
   14920:	420ccee3          	blt	s9,zero,1555c <_vfprintf_r+0x2c9c>
   14924:	02012c23          	sw	zero,56(sp)
   14928:	55c0006f          	jal	zero,14e84 <_vfprintf_r+0x25c4>
   1492c:	0cc12f83          	lw	t6,204(sp)
   14930:	800007b7          	lui	a5,0x80000
   14934:	f7fbfb93          	andi	s7,s7,-129
   14938:	00fff333          	and	t1,t6,a5
   1493c:	3c030e63          	beq	t1,zero,14d18 <_vfprintf_r+0x2458>
   14940:	02d00793          	addi	a5,zero,45
   14944:	08f109a3          	sb	a5,147(sp)
   14948:	04700793          	addi	a5,zero,71
   1494c:	4f17d6e3          	bge	a5,a7,15638 <_vfprintf_r+0x2d78>
   14950:	000617b7          	lui	a5,0x61
   14954:	7f078793          	addi	a5,a5,2032 # 617f0 <__clzsi2+0x400a4>
   14958:	00012823          	sw	zero,16(sp)
   1495c:	00300c93          	addi	s9,zero,3
   14960:	00000a93          	addi	s5,zero,0
   14964:	02012023          	sw	zero,32(sp)
   14968:	00012e23          	sw	zero,28(sp)
   1496c:	00000313          	addi	t1,zero,0
   14970:	00400c13          	addi	s8,zero,4
   14974:	97cfe06f          	jal	zero,12af0 <_vfprintf_r+0x230>
   14978:	00f12623          	sw	a5,12(sp)
   1497c:	000e0b93          	addi	s7,t3,0
   14980:	d09fe06f          	jal	zero,13688 <_vfprintf_r+0xdc8>
   14984:	bffbfe13          	andi	t3,s7,-1025
   14988:	002e6b93          	ori	s7,t3,2
   1498c:	00200313          	addi	t1,zero,2
   14990:	00000e93          	addi	t4,zero,0
   14994:	939ff06f          	jal	zero,142cc <_vfprintf_r+0x1a0c>
   14998:	01c12703          	lw	a4,28(sp)
   1499c:	02012683          	lw	a3,32(sp)
   149a0:	00d76733          	or	a4,a4,a3
   149a4:	72070ee3          	beq	a4,zero,158e0 <_vfprintf_r+0x3020>
   149a8:	01812703          	lw	a4,24(sp)
   149ac:	03712e23          	sw	s7,60(sp)
   149b0:	05812023          	sw	s8,64(sp)
   149b4:	000d8b93          	addi	s7,s11,0
   149b8:	05a12423          	sw	s10,72(sp)
   149bc:	01c12a83          	lw	s5,28(sp)
   149c0:	02012d83          	lw	s11,32(sp)
   149c4:	04412c03          	lw	s8,68(sp)
   149c8:	03012d03          	lw	s10,48(sp)
   149cc:	0006c8b7          	lui	a7,0x6c
   149d0:	000b0693          	addi	a3,s6,0
   149d4:	4b888893          	addi	a7,a7,1208 # 6c4b8 <zeroes.0>
   149d8:	00700813          	addi	a6,zero,7
   149dc:	01000c93          	addi	s9,zero,16
   149e0:	02f12c23          	sw	a5,56(sp)
   149e4:	00e78b33          	add	s6,a5,a4
   149e8:	09b04a63          	blt	zero,s11,14a7c <_vfprintf_r+0x21bc>
   149ec:	fffd0d13          	addi	s10,s10,-1
   149f0:	fffa8a93          	addi	s5,s5,-1
   149f4:	0b812783          	lw	a5,184(sp)
   149f8:	03412703          	lw	a4,52(sp)
   149fc:	01860633          	add	a2,a2,s8
   14a00:	00178793          	addi	a5,a5,1
   14a04:	00e6a023          	sw	a4,0(a3)
   14a08:	0186a223          	sw	s8,4(a3)
   14a0c:	0ac12e23          	sw	a2,188(sp)
   14a10:	0af12c23          	sw	a5,184(sp)
   14a14:	00868693          	addi	a3,a3,8
   14a18:	10f84a63          	blt	a6,a5,14b2c <_vfprintf_r+0x226c>
   14a1c:	000d4583          	lbu	a1,0(s10)
   14a20:	417b04b3          	sub	s1,s6,s7
   14a24:	000b0713          	addi	a4,s6,0
   14a28:	0095d463          	bge	a1,s1,14a30 <_vfprintf_r+0x2170>
   14a2c:	00058493          	addi	s1,a1,0
   14a30:	02905663          	bge	zero,s1,14a5c <_vfprintf_r+0x219c>
   14a34:	0b812583          	lw	a1,184(sp)
   14a38:	00960633          	add	a2,a2,s1
   14a3c:	0ac12e23          	sw	a2,188(sp)
   14a40:	00158593          	addi	a1,a1,1
   14a44:	0176a023          	sw	s7,0(a3)
   14a48:	0096a223          	sw	s1,4(a3)
   14a4c:	0ab12c23          	sw	a1,184(sp)
   14a50:	10b84463          	blt	a6,a1,14b58 <_vfprintf_r+0x2298>
   14a54:	000d4583          	lbu	a1,0(s10)
   14a58:	00868693          	addi	a3,a3,8
   14a5c:	fff4c513          	xori	a0,s1,-1
   14a60:	41f55513          	srai	a0,a0,0x1f
   14a64:	00a4f7b3          	and	a5,s1,a0
   14a68:	40f584b3          	sub	s1,a1,a5
   14a6c:	00904c63          	blt	zero,s1,14a84 <_vfprintf_r+0x21c4>
   14a70:	00bb8bb3          	add	s7,s7,a1
   14a74:	f7504ae3          	blt	zero,s5,149e8 <_vfprintf_r+0x2128>
   14a78:	55b05e63          	bge	zero,s11,14fd4 <_vfprintf_r+0x2714>
   14a7c:	fffd8d93          	addi	s11,s11,-1
   14a80:	f75ff06f          	jal	zero,149f4 <_vfprintf_r+0x2134>
   14a84:	0006c2b7          	lui	t0,0x6c
   14a88:	0b812583          	lw	a1,184(sp)
   14a8c:	4b828293          	addi	t0,t0,1208 # 6c4b8 <zeroes.0>
   14a90:	069cda63          	bge	s9,s1,14b04 <_vfprintf_r+0x2244>
   14a94:	00e12e23          	sw	a4,28(sp)
   14a98:	03112023          	sw	a7,32(sp)
   14a9c:	00c0006f          	jal	zero,14aa8 <_vfprintf_r+0x21e8>
   14aa0:	ff048493          	addi	s1,s1,-16
   14aa4:	049cdc63          	bge	s9,s1,14afc <_vfprintf_r+0x223c>
   14aa8:	01060613          	addi	a2,a2,16
   14aac:	00158593          	addi	a1,a1,1
   14ab0:	0116a023          	sw	a7,0(a3)
   14ab4:	0196a223          	sw	s9,4(a3)
   14ab8:	0ac12e23          	sw	a2,188(sp)
   14abc:	0ab12c23          	sw	a1,184(sp)
   14ac0:	00868693          	addi	a3,a3,8
   14ac4:	fcb85ee3          	bge	a6,a1,14aa0 <_vfprintf_r+0x21e0>
   14ac8:	00412583          	lw	a1,4(sp)
   14acc:	0b410613          	addi	a2,sp,180
   14ad0:	00090513          	addi	a0,s2,0
   14ad4:	749000ef          	jal	ra,15a1c <__sprint_r>
   14ad8:	9c051063          	bne	a0,zero,13c98 <_vfprintf_r+0x13d8>
   14adc:	0006c7b7          	lui	a5,0x6c
   14ae0:	ff048493          	addi	s1,s1,-16
   14ae4:	0bc12603          	lw	a2,188(sp)
   14ae8:	0b812583          	lw	a1,184(sp)
   14aec:	00098693          	addi	a3,s3,0
   14af0:	4b878893          	addi	a7,a5,1208 # 6c4b8 <zeroes.0>
   14af4:	00700813          	addi	a6,zero,7
   14af8:	fa9cc8e3          	blt	s9,s1,14aa8 <_vfprintf_r+0x21e8>
   14afc:	01c12703          	lw	a4,28(sp)
   14b00:	02012283          	lw	t0,32(sp)
   14b04:	00960633          	add	a2,a2,s1
   14b08:	00158593          	addi	a1,a1,1
   14b0c:	0ac12e23          	sw	a2,188(sp)
   14b10:	0ab12c23          	sw	a1,184(sp)
   14b14:	0056a023          	sw	t0,0(a3)
   14b18:	0096a223          	sw	s1,4(a3)
   14b1c:	78b84663          	blt	a6,a1,152a8 <_vfprintf_r+0x29e8>
   14b20:	000d4583          	lbu	a1,0(s10)
   14b24:	00868693          	addi	a3,a3,8
   14b28:	f49ff06f          	jal	zero,14a70 <_vfprintf_r+0x21b0>
   14b2c:	00412583          	lw	a1,4(sp)
   14b30:	0b410613          	addi	a2,sp,180
   14b34:	00090513          	addi	a0,s2,0
   14b38:	6e5000ef          	jal	ra,15a1c <__sprint_r>
   14b3c:	94051e63          	bne	a0,zero,13c98 <_vfprintf_r+0x13d8>
   14b40:	0006c7b7          	lui	a5,0x6c
   14b44:	0bc12603          	lw	a2,188(sp)
   14b48:	00098693          	addi	a3,s3,0
   14b4c:	4b878893          	addi	a7,a5,1208 # 6c4b8 <zeroes.0>
   14b50:	00700813          	addi	a6,zero,7
   14b54:	ec9ff06f          	jal	zero,14a1c <_vfprintf_r+0x215c>
   14b58:	00412583          	lw	a1,4(sp)
   14b5c:	0b410613          	addi	a2,sp,180
   14b60:	00090513          	addi	a0,s2,0
   14b64:	00e12e23          	sw	a4,28(sp)
   14b68:	6b5000ef          	jal	ra,15a1c <__sprint_r>
   14b6c:	92051663          	bne	a0,zero,13c98 <_vfprintf_r+0x13d8>
   14b70:	0006c7b7          	lui	a5,0x6c
   14b74:	000d4583          	lbu	a1,0(s10)
   14b78:	0bc12603          	lw	a2,188(sp)
   14b7c:	01c12703          	lw	a4,28(sp)
   14b80:	00098693          	addi	a3,s3,0
   14b84:	4b878893          	addi	a7,a5,1208 # 6c4b8 <zeroes.0>
   14b88:	00700813          	addi	a6,zero,7
   14b8c:	ed1ff06f          	jal	zero,14a5c <_vfprintf_r+0x219c>
   14b90:	03812303          	lw	t1,56(sp)
   14b94:	000a8813          	addi	a6,s5,0
   14b98:	000d8793          	addi	a5,s11,0
   14b9c:	00048a93          	addi	s5,s1,0
   14ba0:	01560633          	add	a2,a2,s5
   14ba4:	00170713          	addi	a4,a4,1
   14ba8:	010b2023          	sw	a6,0(s6)
   14bac:	015b2223          	sw	s5,4(s6)
   14bb0:	0ac12e23          	sw	a2,188(sp)
   14bb4:	0ae12c23          	sw	a4,184(sp)
   14bb8:	00700593          	addi	a1,zero,7
   14bbc:	008b0b13          	addi	s6,s6,8
   14bc0:	b0e5d663          	bge	a1,a4,13ecc <_vfprintf_r+0x160c>
   14bc4:	00412583          	lw	a1,4(sp)
   14bc8:	0b410613          	addi	a2,sp,180
   14bcc:	00090513          	addi	a0,s2,0
   14bd0:	02612e23          	sw	t1,60(sp)
   14bd4:	02f12c23          	sw	a5,56(sp)
   14bd8:	645000ef          	jal	ra,15a1c <__sprint_r>
   14bdc:	8a051e63          	bne	a0,zero,13c98 <_vfprintf_r+0x13d8>
   14be0:	0bc12603          	lw	a2,188(sp)
   14be4:	03c12303          	lw	t1,60(sp)
   14be8:	03812783          	lw	a5,56(sp)
   14bec:	00098b13          	addi	s6,s3,0
   14bf0:	adcff06f          	jal	zero,13ecc <_vfprintf_r+0x160c>
   14bf4:	00078c13          	addi	s8,a5,0
   14bf8:	fecff06f          	jal	zero,143e4 <_vfprintf_r+0x1b24>
   14bfc:	00412583          	lw	a1,4(sp)
   14c00:	0b410613          	addi	a2,sp,180
   14c04:	00090513          	addi	a0,s2,0
   14c08:	02612e23          	sw	t1,60(sp)
   14c0c:	02f12c23          	sw	a5,56(sp)
   14c10:	60d000ef          	jal	ra,15a1c <__sprint_r>
   14c14:	88051263          	bne	a0,zero,13c98 <_vfprintf_r+0x13d8>
   14c18:	0bc12603          	lw	a2,188(sp)
   14c1c:	03c12303          	lw	t1,60(sp)
   14c20:	03812783          	lw	a5,56(sp)
   14c24:	00098b13          	addi	s6,s3,0
   14c28:	a90ff06f          	jal	zero,13eb8 <_vfprintf_r+0x15f8>
   14c2c:	001bf713          	andi	a4,s7,1
   14c30:	00071463          	bne	a4,zero,14c38 <_vfprintf_r+0x2378>
   14c34:	f85fd06f          	jal	zero,12bb8 <_vfprintf_r+0x2f8>
   14c38:	02412683          	lw	a3,36(sp)
   14c3c:	0b812703          	lw	a4,184(sp)
   14c40:	00700593          	addi	a1,zero,7
   14c44:	00c68633          	add	a2,a3,a2
   14c48:	02812683          	lw	a3,40(sp)
   14c4c:	00170713          	addi	a4,a4,1
   14c50:	0ac12e23          	sw	a2,188(sp)
   14c54:	00db2023          	sw	a3,0(s6)
   14c58:	02412683          	lw	a3,36(sp)
   14c5c:	0ae12c23          	sw	a4,184(sp)
   14c60:	00db2223          	sw	a3,4(s6)
   14c64:	74e5d863          	bge	a1,a4,153b4 <_vfprintf_r+0x2af4>
   14c68:	00412583          	lw	a1,4(sp)
   14c6c:	0b410613          	addi	a2,sp,180
   14c70:	00090513          	addi	a0,s2,0
   14c74:	00f12e23          	sw	a5,28(sp)
   14c78:	5a5000ef          	jal	ra,15a1c <__sprint_r>
   14c7c:	00050463          	beq	a0,zero,14c84 <_vfprintf_r+0x23c4>
   14c80:	818ff06f          	jal	zero,13c98 <_vfprintf_r+0x13d8>
   14c84:	09812503          	lw	a0,152(sp)
   14c88:	0bc12603          	lw	a2,188(sp)
   14c8c:	0b812703          	lw	a4,184(sp)
   14c90:	01c12783          	lw	a5,28(sp)
   14c94:	00098b13          	addi	s6,s3,0
   14c98:	9e5ff06f          	jal	zero,1467c <_vfprintf_r+0x1dbc>
   14c9c:	01812703          	lw	a4,24(sp)
   14ca0:	00e787b3          	add	a5,a5,a4
   14ca4:	41b78cb3          	sub	s9,a5,s11
   14ca8:	41570ab3          	sub	s5,a4,s5
   14cac:	ad9ad063          	bge	s5,s9,13f6c <_vfprintf_r+0x16ac>
   14cb0:	000a8c93          	addi	s9,s5,0
   14cb4:	ab8ff06f          	jal	zero,13f6c <_vfprintf_r+0x16ac>
   14cb8:	00098b13          	addi	s6,s3,0
   14cbc:	ec5fd06f          	jal	zero,12b80 <_vfprintf_r+0x2c0>
   14cc0:	00c12783          	lw	a5,12(sp)
   14cc4:	00812683          	lw	a3,8(sp)
   14cc8:	00e12623          	sw	a4,12(sp)
   14ccc:	0007a783          	lw	a5,0(a5)
   14cd0:	00d79023          	sh	a3,0(a5)
   14cd4:	cf9fd06f          	jal	zero,129cc <_vfprintf_r+0x10c>
   14cd8:	41fc5e93          	srai	t4,s8,0x1f
   14cdc:	00f12623          	sw	a5,12(sp)
   14ce0:	000e8713          	addi	a4,t4,0
   14ce4:	8adfe06f          	jal	zero,13590 <_vfprintf_r+0xcd0>
   14ce8:	0ffc7c13          	andi	s8,s8,255
   14cec:	00000e93          	addi	t4,zero,0
   14cf0:	000ac463          	blt	s5,zero,14cf8 <_vfprintf_r+0x2438>
   14cf4:	bfdfe06f          	jal	zero,138f0 <_vfprintf_r+0x1030>
   14cf8:	98dfe06f          	jal	zero,13684 <_vfprintf_r+0xdc4>
   14cfc:	0ff77713          	andi	a4,a4,255
   14d00:	00000613          	addi	a2,zero,0
   14d04:	e98ff06f          	jal	zero,1439c <_vfprintf_r+0x1adc>
   14d08:	00f12623          	sw	a5,12(sp)
   14d0c:	000b8693          	addi	a3,s7,0
   14d10:	00000613          	addi	a2,zero,0
   14d14:	ae5fe06f          	jal	zero,137f8 <_vfprintf_r+0xf38>
   14d18:	04700793          	addi	a5,zero,71
   14d1c:	09314703          	lbu	a4,147(sp)
   14d20:	1117d2e3          	bge	a5,a7,15624 <_vfprintf_r+0x2d64>
   14d24:	000617b7          	lui	a5,0x61
   14d28:	7f078793          	addi	a5,a5,2032 # 617f0 <__clzsi2+0x400a4>
   14d2c:	3e0712e3          	bne	a4,zero,15910 <_vfprintf_r+0x3050>
   14d30:	00300c93          	addi	s9,zero,3
   14d34:	000c8c13          	addi	s8,s9,0
   14d38:	00000a93          	addi	s5,zero,0
   14d3c:	02012023          	sw	zero,32(sp)
   14d40:	00012e23          	sw	zero,28(sp)
   14d44:	00012823          	sw	zero,16(sp)
   14d48:	da9fd06f          	jal	zero,12af0 <_vfprintf_r+0x230>
   14d4c:	000617b7          	lui	a5,0x61
   14d50:	7e878793          	addi	a5,a5,2024 # 617e8 <__clzsi2+0x4009c>
   14d54:	a75ff06f          	jal	zero,147c8 <_vfprintf_r+0x1f08>
   14d58:	04412703          	lw	a4,68(sp)
   14d5c:	03412583          	lw	a1,52(sp)
   14d60:	01d12e23          	sw	t4,28(sp)
   14d64:	40e786b3          	sub	a3,a5,a4
   14d68:	00070613          	addi	a2,a4,0
   14d6c:	00068513          	addi	a0,a3,0
   14d70:	01012c23          	sw	a6,24(sp)
   14d74:	00d12823          	sw	a3,16(sp)
   14d78:	00d010ef          	jal	ra,16584 <strncpy>
   14d7c:	01c12e83          	lw	t4,28(sp)
   14d80:	ccccd637          	lui	a2,0xccccd
   14d84:	ccd60613          	addi	a2,a2,-819 # cccccccd <__BSS_END__+0xccbde3dd>
   14d88:	01dc0733          	add	a4,s8,t4
   14d8c:	018737b3          	sltu	a5,a4,s8
   14d90:	00f70733          	add	a4,a4,a5
   14d94:	02c735b3          	mulhu	a1,a4,a2
   14d98:	ccccd537          	lui	a0,0xccccd
   14d9c:	ccc50513          	addi	a0,a0,-820 # cccccccc <__BSS_END__+0xccbde3dc>
   14da0:	03012783          	lw	a5,48(sp)
   14da4:	03012683          	lw	a3,48(sp)
   14da8:	01812803          	lw	a6,24(sp)
   14dac:	0017c783          	lbu	a5,1(a5)
   14db0:	00f037b3          	sltu	a5,zero,a5
   14db4:	0025d893          	srli	a7,a1,0x2
   14db8:	ffc5f593          	andi	a1,a1,-4
   14dbc:	011585b3          	add	a1,a1,a7
   14dc0:	40b70733          	sub	a4,a4,a1
   14dc4:	40ec0733          	sub	a4,s8,a4
   14dc8:	00ec35b3          	sltu	a1,s8,a4
   14dcc:	40be85b3          	sub	a1,t4,a1
   14dd0:	02a70533          	mul	a0,a4,a0
   14dd4:	00f687b3          	add	a5,a3,a5
   14dd8:	01012683          	lw	a3,16(sp)
   14ddc:	02f12823          	sw	a5,48(sp)
   14de0:	fff68793          	addi	a5,a3,-1
   14de4:	02c585b3          	mul	a1,a1,a2
   14de8:	00a585b3          	add	a1,a1,a0
   14dec:	02c73533          	mulhu	a0,a4,a2
   14df0:	02c70733          	mul	a4,a4,a2
   14df4:	00a585b3          	add	a1,a1,a0
   14df8:	01f59513          	slli	a0,a1,0x1f
   14dfc:	0015de93          	srli	t4,a1,0x1
   14e00:	00100593          	addi	a1,zero,1
   14e04:	00175713          	srli	a4,a4,0x1
   14e08:	00e50c33          	add	s8,a0,a4
   14e0c:	01dc0733          	add	a4,s8,t4
   14e10:	01873533          	sltu	a0,a4,s8
   14e14:	00a70733          	add	a4,a4,a0
   14e18:	02c73533          	mulhu	a0,a4,a2
   14e1c:	00255893          	srli	a7,a0,0x2
   14e20:	ffc57513          	andi	a0,a0,-4
   14e24:	01150533          	add	a0,a0,a7
   14e28:	40a70733          	sub	a4,a4,a0
   14e2c:	40ec0733          	sub	a4,s8,a4
   14e30:	00ec3533          	sltu	a0,s8,a4
   14e34:	40ae8533          	sub	a0,t4,a0
   14e38:	02c738b3          	mulhu	a7,a4,a2
   14e3c:	02c50533          	mul	a0,a0,a2
   14e40:	02c70733          	mul	a4,a4,a2
   14e44:	01150633          	add	a2,a0,a7
   14e48:	01f61613          	slli	a2,a2,0x1f
   14e4c:	00175713          	srli	a4,a4,0x1
   14e50:	00e60733          	add	a4,a2,a4
   14e54:	00271613          	slli	a2,a4,0x2
   14e58:	00e60733          	add	a4,a2,a4
   14e5c:	00171713          	slli	a4,a4,0x1
   14e60:	40ec0733          	sub	a4,s8,a4
   14e64:	03070713          	addi	a4,a4,48
   14e68:	fee68fa3          	sb	a4,-1(a3)
   14e6c:	ab9fe06f          	jal	zero,13924 <_vfprintf_r+0x1064>
   14e70:	07800793          	addi	a5,zero,120
   14e74:	ed5fd06f          	jal	zero,12d48 <_vfprintf_r+0x488>
   14e78:	6e0cc063          	blt	s9,zero,15558 <_vfprintf_r+0x2c98>
   14e7c:	02012c23          	sw	zero,56(sp)
   14e80:	00600a93          	addi	s5,zero,6
   14e84:	04600793          	addi	a5,zero,70
   14e88:	44fc1e63          	bne	s8,a5,152e4 <_vfprintf_r+0x2a24>
   14e8c:	09c10793          	addi	a5,sp,156
   14e90:	09810713          	addi	a4,sp,152
   14e94:	000a8693          	addi	a3,s5,0
   14e98:	08010593          	addi	a1,sp,128
   14e9c:	0a010813          	addi	a6,sp,160
   14ea0:	00300613          	addi	a2,zero,3
   14ea4:	00090513          	addi	a0,s2,0
   14ea8:	03112e23          	sw	a7,60(sp)
   14eac:	09d12023          	sw	t4,128(sp)
   14eb0:	03d12023          	sw	t4,32(sp)
   14eb4:	09e12223          	sw	t5,132(sp)
   14eb8:	01e12e23          	sw	t5,28(sp)
   14ebc:	08512423          	sw	t0,136(sp)
   14ec0:	00512c23          	sw	t0,24(sp)
   14ec4:	09912623          	sw	s9,140(sp)
   14ec8:	531010ef          	jal	ra,16bf8 <_ldtoa_r>
   14ecc:	00054683          	lbu	a3,0(a0)
   14ed0:	03000713          	addi	a4,zero,48
   14ed4:	01812283          	lw	t0,24(sp)
   14ed8:	01c12f03          	lw	t5,28(sp)
   14edc:	02012e83          	lw	t4,32(sp)
   14ee0:	03c12883          	lw	a7,60(sp)
   14ee4:	00050793          	addi	a5,a0,0
   14ee8:	015504b3          	add	s1,a0,s5
   14eec:	04e68ae3          	beq	a3,a4,15740 <_vfprintf_r+0x2e80>
   14ef0:	09812d83          	lw	s11,152(sp)
   14ef4:	08010513          	addi	a0,sp,128
   14ef8:	07010593          	addi	a1,sp,112
   14efc:	00f12e23          	sw	a5,28(sp)
   14f00:	09912623          	sw	s9,140(sp)
   14f04:	01112c23          	sw	a7,24(sp)
   14f08:	09d12023          	sw	t4,128(sp)
   14f0c:	09e12223          	sw	t5,132(sp)
   14f10:	08512423          	sw	t0,136(sp)
   14f14:	06012823          	sw	zero,112(sp)
   14f18:	06012a23          	sw	zero,116(sp)
   14f1c:	06012c23          	sw	zero,120(sp)
   14f20:	06012e23          	sw	zero,124(sp)
   14f24:	5b5090ef          	jal	ra,1ecd8 <__eqtf2>
   14f28:	01c12783          	lw	a5,28(sp)
   14f2c:	01b48cb3          	add	s9,s1,s11
   14f30:	000d8313          	addi	t1,s11,0
   14f34:	7e051a63          	bne	a0,zero,15728 <_vfprintf_r+0x2e68>
   14f38:	40fc8733          	sub	a4,s9,a5
   14f3c:	00e12c23          	sw	a4,24(sp)
   14f40:	001bf713          	andi	a4,s7,1
   14f44:	01576733          	or	a4,a4,s5
   14f48:	0e605ae3          	bge	zero,t1,1583c <_vfprintf_r+0x2f7c>
   14f4c:	040710e3          	bne	a4,zero,1578c <_vfprintf_r+0x2ecc>
   14f50:	00030c93          	addi	s9,t1,0
   14f54:	06600893          	addi	a7,zero,102
   14f58:	400bfe13          	andi	t3,s7,1024
   14f5c:	6e0e1663          	bne	t3,zero,15648 <_vfprintf_r+0x2d88>
   14f60:	fffcc693          	xori	a3,s9,-1
   14f64:	41f6d693          	srai	a3,a3,0x1f
   14f68:	00dcfc33          	and	s8,s9,a3
   14f6c:	03812703          	lw	a4,56(sp)
   14f70:	4c070a63          	beq	a4,zero,15444 <_vfprintf_r+0x2b84>
   14f74:	02d00713          	addi	a4,zero,45
   14f78:	08e109a3          	sb	a4,147(sp)
   14f7c:	001c0c13          	addi	s8,s8,1
   14f80:	01012b83          	lw	s7,16(sp)
   14f84:	00000a93          	addi	s5,zero,0
   14f88:	00012823          	sw	zero,16(sp)
   14f8c:	02012023          	sw	zero,32(sp)
   14f90:	00012e23          	sw	zero,28(sp)
   14f94:	b5dfd06f          	jal	zero,12af0 <_vfprintf_r+0x230>
   14f98:	001a8593          	addi	a1,s5,1
   14f9c:	00090513          	addi	a0,s2,0
   14fa0:	01112823          	sw	a7,16(sp)
   14fa4:	894fd0ef          	jal	ra,12038 <_malloc_r>
   14fa8:	01012883          	lw	a7,16(sp)
   14fac:	00050793          	addi	a5,a0,0
   14fb0:	12050ee3          	beq	a0,zero,158ec <_vfprintf_r+0x302c>
   14fb4:	0cc12703          	lw	a4,204(sp)
   14fb8:	00a12823          	sw	a0,16(sp)
   14fbc:	0c012683          	lw	a3,192(sp)
   14fc0:	0c412603          	lw	a2,196(sp)
   14fc4:	0c812583          	lw	a1,200(sp)
   14fc8:	64074463          	blt	a4,zero,15610 <_vfprintf_r+0x2d50>
   14fcc:	02012c23          	sw	zero,56(sp)
   14fd0:	dadfd06f          	jal	zero,12d7c <_vfprintf_r+0x4bc>
   14fd4:	000b8d93          	addi	s11,s7,0
   14fd8:	03a12823          	sw	s10,48(sp)
   14fdc:	03812783          	lw	a5,56(sp)
   14fe0:	03c12b83          	lw	s7,60(sp)
   14fe4:	04012c03          	lw	s8,64(sp)
   14fe8:	04812d03          	lw	s10,72(sp)
   14fec:	00068b13          	addi	s6,a3,0
   14ff0:	01b76463          	bltu	a4,s11,14ff8 <_vfprintf_r+0x2738>
   14ff4:	ee5fe06f          	jal	zero,13ed8 <_vfprintf_r+0x1618>
   14ff8:	00070d93          	addi	s11,a4,0
   14ffc:	eddfe06f          	jal	zero,13ed8 <_vfprintf_r+0x1618>
   15000:	02012c23          	sw	zero,56(sp)
   15004:	000cda63          	bge	s9,zero,15018 <_vfprintf_r+0x2758>
   15008:	800007b7          	lui	a5,0x80000
   1500c:	00fcccb3          	xor	s9,s9,a5
   15010:	02d00793          	addi	a5,zero,45
   15014:	02f12c23          	sw	a5,56(sp)
   15018:	08010d93          	addi	s11,sp,128
   1501c:	09c10793          	addi	a5,sp,156
   15020:	000d8593          	addi	a1,s11,0
   15024:	0a010813          	addi	a6,sp,160
   15028:	09810713          	addi	a4,sp,152
   1502c:	00100693          	addi	a3,zero,1
   15030:	00200613          	addi	a2,zero,2
   15034:	00090513          	addi	a0,s2,0
   15038:	05112023          	sw	a7,64(sp)
   1503c:	09d12023          	sw	t4,128(sp)
   15040:	03d12e23          	sw	t4,60(sp)
   15044:	09e12223          	sw	t5,132(sp)
   15048:	03e12023          	sw	t5,32(sp)
   1504c:	08512423          	sw	t0,136(sp)
   15050:	00512e23          	sw	t0,28(sp)
   15054:	09912623          	sw	s9,140(sp)
   15058:	3a1010ef          	jal	ra,16bf8 <_ldtoa_r>
   1505c:	01c12283          	lw	t0,28(sp)
   15060:	02012f03          	lw	t5,32(sp)
   15064:	03c12e83          	lw	t4,60(sp)
   15068:	04012883          	lw	a7,64(sp)
   1506c:	00100a93          	addi	s5,zero,1
   15070:	00050793          	addi	a5,a0,0
   15074:	01512c23          	sw	s5,24(sp)
   15078:	001bf713          	andi	a4,s7,1
   1507c:	18070e63          	beq	a4,zero,15218 <_vfprintf_r+0x2958>
   15080:	000d8513          	addi	a0,s11,0
   15084:	07010593          	addi	a1,sp,112
   15088:	02f12023          	sw	a5,32(sp)
   1508c:	01112e23          	sw	a7,28(sp)
   15090:	09d12023          	sw	t4,128(sp)
   15094:	09e12223          	sw	t5,132(sp)
   15098:	08512423          	sw	t0,136(sp)
   1509c:	09912623          	sw	s9,140(sp)
   150a0:	06012823          	sw	zero,112(sp)
   150a4:	06012a23          	sw	zero,116(sp)
   150a8:	06012c23          	sw	zero,120(sp)
   150ac:	06012e23          	sw	zero,124(sp)
   150b0:	429090ef          	jal	ra,1ecd8 <__eqtf2>
   150b4:	01c12883          	lw	a7,28(sp)
   150b8:	02012783          	lw	a5,32(sp)
   150bc:	7e050263          	beq	a0,zero,158a0 <_vfprintf_r+0x2fe0>
   150c0:	01812683          	lw	a3,24(sp)
   150c4:	0a012703          	lw	a4,160(sp)
   150c8:	00d78cb3          	add	s9,a5,a3
   150cc:	079770e3          	bgeu	a4,s9,1592c <_vfprintf_r+0x306c>
   150d0:	03000613          	addi	a2,zero,48
   150d4:	00170693          	addi	a3,a4,1
   150d8:	0ad12023          	sw	a3,160(sp)
   150dc:	00c70023          	sb	a2,0(a4)
   150e0:	0a012703          	lw	a4,160(sp)
   150e4:	ff9768e3          	bltu	a4,s9,150d4 <_vfprintf_r+0x2814>
   150e8:	40f70733          	sub	a4,a4,a5
   150ec:	04700693          	addi	a3,zero,71
   150f0:	00e12c23          	sw	a4,24(sp)
   150f4:	09812303          	lw	t1,152(sp)
   150f8:	12dc0863          	beq	s8,a3,15228 <_vfprintf_r+0x2968>
   150fc:	04600713          	addi	a4,zero,70
   15100:	e4ec00e3          	beq	s8,a4,14f40 <_vfprintf_r+0x2680>
   15104:	fff30713          	addi	a4,t1,-1
   15108:	0b110223          	sb	a7,164(sp)
   1510c:	08e12c23          	sw	a4,152(sp)
   15110:	68074863          	blt	a4,zero,157a0 <_vfprintf_r+0x2ee0>
   15114:	02b00693          	addi	a3,zero,43
   15118:	0ad102a3          	sb	a3,165(sp)
   1511c:	00900693          	addi	a3,zero,9
   15120:	68e6dc63          	bge	a3,a4,157b8 <_vfprintf_r+0x2ef8>
   15124:	01712e23          	sw	s7,28(sp)
   15128:	00012823          	sw	zero,16(sp)
   1512c:	0b310e93          	addi	t4,sp,179
   15130:	ccccde37          	lui	t3,0xccccd
   15134:	000e8513          	addi	a0,t4,0
   15138:	ccde0e13          	addi	t3,t3,-819 # cccccccd <__BSS_END__+0xccbde3dd>
   1513c:	06300f13          	addi	t5,zero,99
   15140:	03c736b3          	mulhu	a3,a4,t3
   15144:	00070813          	addi	a6,a4,0
   15148:	00050593          	addi	a1,a0,0
   1514c:	fff50513          	addi	a0,a0,-1
   15150:	0036d693          	srli	a3,a3,0x3
   15154:	00269613          	slli	a2,a3,0x2
   15158:	00d60633          	add	a2,a2,a3
   1515c:	00161613          	slli	a2,a2,0x1
   15160:	40c70733          	sub	a4,a4,a2
   15164:	03070713          	addi	a4,a4,48
   15168:	fee58fa3          	sb	a4,-1(a1)
   1516c:	00068713          	addi	a4,a3,0
   15170:	fd0f48e3          	blt	t5,a6,15140 <_vfprintf_r+0x2880>
   15174:	03068713          	addi	a4,a3,48
   15178:	fee50fa3          	sb	a4,-1(a0)
   1517c:	ffe58713          	addi	a4,a1,-2
   15180:	73d77c63          	bgeu	a4,t4,158b8 <_vfprintf_r+0x2ff8>
   15184:	0a610513          	addi	a0,sp,166
   15188:	00050693          	addi	a3,a0,0
   1518c:	00074603          	lbu	a2,0(a4)
   15190:	00170713          	addi	a4,a4,1
   15194:	00168693          	addi	a3,a3,1
   15198:	fec68fa3          	sb	a2,-1(a3)
   1519c:	ffd718e3          	bne	a4,t4,1518c <_vfprintf_r+0x28cc>
   151a0:	00a70733          	add	a4,a4,a0
   151a4:	00270713          	addi	a4,a4,2
   151a8:	40b70733          	sub	a4,a4,a1
   151ac:	0a410693          	addi	a3,sp,164
   151b0:	40d70733          	sub	a4,a4,a3
   151b4:	02e12623          	sw	a4,44(sp)
   151b8:	01812683          	lw	a3,24(sp)
   151bc:	02c12603          	lw	a2,44(sp)
   151c0:	00100713          	addi	a4,zero,1
   151c4:	00c68cb3          	add	s9,a3,a2
   151c8:	42d75263          	bge	a4,a3,155ec <_vfprintf_r+0x2d2c>
   151cc:	02412703          	lw	a4,36(sp)
   151d0:	00ec8cb3          	add	s9,s9,a4
   151d4:	01c12703          	lw	a4,28(sp)
   151d8:	fffcc693          	xori	a3,s9,-1
   151dc:	41f6d693          	srai	a3,a3,0x1f
