
/tmp/tmp.ljEbOpedFW/basicmath_small_O3_clean:     file format elf32-littleriscv


Disassembly of section .text:

000100b4 <exit>:
exit():
   100b4:	ff010113          	addi	sp,sp,-16
   100b8:	00000593          	li	a1,0
   100bc:	00812423          	sw	s0,8(sp)
   100c0:	00112623          	sw	ra,12(sp)
   100c4:	00050413          	mv	s0,a0
   100c8:	0000a097          	auipc	ra,0xa
   100cc:	90c080e7          	jalr	-1780(ra) # 199d4 <__call_exitprocs>
   100d0:	000287b7          	lui	a5,0x28
   100d4:	8307a783          	lw	a5,-2000(a5) # 27830 <__stdio_exit_handler>
   100d8:	00078463          	beqz	a5,100e0 <exit+0x2c>
   100dc:	000780e7          	jalr	a5
   100e0:	00040513          	mv	a0,s0
   100e4:	00015097          	auipc	ra,0x15
   100e8:	34c080e7          	jalr	844(ra) # 25430 <_exit>

000100ec <main>:
main():
/home/allenjin/Codes/egraph_isa_compiler_codesign/benchmark/automotive/basicmath/basicmath_small_O3_clean.s:1965
   100ec:	00026537          	lui	a0,0x26
/home/allenjin/Codes/egraph_isa_compiler_codesign/benchmark/automotive/basicmath/basicmath_small_O3_clean.s:1966
   100f0:	f2010113          	addi	sp,sp,-224
/home/allenjin/Codes/egraph_isa_compiler_codesign/benchmark/automotive/basicmath/basicmath_small_O3_clean.s:1967
   100f4:	c0850513          	addi	a0,a0,-1016 # 25c08 <__floatsitf+0x154>
/home/allenjin/Codes/egraph_isa_compiler_codesign/benchmark/automotive/basicmath/basicmath_small_O3_clean.s:1968
   100f8:	0c112e23          	sw	ra,220(sp)
/home/allenjin/Codes/egraph_isa_compiler_codesign/benchmark/automotive/basicmath/basicmath_small_O3_clean.s:1969
   100fc:	0c812c23          	sw	s0,216(sp)
/home/allenjin/Codes/egraph_isa_compiler_codesign/benchmark/automotive/basicmath/basicmath_small_O3_clean.s:1970
   10100:	0c912a23          	sw	s1,212(sp)
/home/allenjin/Codes/egraph_isa_compiler_codesign/benchmark/automotive/basicmath/basicmath_small_O3_clean.s:1971
   10104:	0d512223          	sw	s5,196(sp)
/home/allenjin/Codes/egraph_isa_compiler_codesign/benchmark/automotive/basicmath/basicmath_small_O3_clean.s:1972
   10108:	0d612023          	sw	s6,192(sp)
/home/allenjin/Codes/egraph_isa_compiler_codesign/benchmark/automotive/basicmath/basicmath_small_O3_clean.s:1973
   1010c:	0b712e23          	sw	s7,188(sp)
/home/allenjin/Codes/egraph_isa_compiler_codesign/benchmark/automotive/basicmath/basicmath_small_O3_clean.s:1974
   10110:	0d212823          	sw	s2,208(sp)
/home/allenjin/Codes/egraph_isa_compiler_codesign/benchmark/automotive/basicmath/basicmath_small_O3_clean.s:1975
   10114:	0d312623          	sw	s3,204(sp)
/home/allenjin/Codes/egraph_isa_compiler_codesign/benchmark/automotive/basicmath/basicmath_small_O3_clean.s:1976
   10118:	0d412423          	sw	s4,200(sp)
/home/allenjin/Codes/egraph_isa_compiler_codesign/benchmark/automotive/basicmath/basicmath_small_O3_clean.s:1977
   1011c:	0b812c23          	sw	s8,184(sp)
/home/allenjin/Codes/egraph_isa_compiler_codesign/benchmark/automotive/basicmath/basicmath_small_O3_clean.s:1978
   10120:	0b912a23          	sw	s9,180(sp)
/home/allenjin/Codes/egraph_isa_compiler_codesign/benchmark/automotive/basicmath/basicmath_small_O3_clean.s:1979
   10124:	0ba12823          	sw	s10,176(sp)
/home/allenjin/Codes/egraph_isa_compiler_codesign/benchmark/automotive/basicmath/basicmath_small_O3_clean.s:1980
   10128:	0bb12623          	sw	s11,172(sp)
/home/allenjin/Codes/egraph_isa_compiler_codesign/benchmark/automotive/basicmath/basicmath_small_O3_clean.s:1982
   1012c:	00009097          	auipc	ra,0x9
/home/allenjin/Codes/egraph_isa_compiler_codesign/benchmark/automotive/basicmath/basicmath_small_O3_clean.s:1983
   10130:	27c080e7          	jalr	636(ra) # 193a8 <puts>
/home/allenjin/Codes/egraph_isa_compiler_codesign/benchmark/automotive/basicmath/basicmath_small_O3_clean.s:1984
   10134:	00027ab7          	lui	s5,0x27
/home/allenjin/Codes/egraph_isa_compiler_codesign/benchmark/automotive/basicmath/basicmath_small_O3_clean.s:1985
   10138:	000277b7          	lui	a5,0x27
/home/allenjin/Codes/egraph_isa_compiler_codesign/benchmark/automotive/basicmath/basicmath_small_O3_clean.s:1986
   1013c:	000276b7          	lui	a3,0x27
/home/allenjin/Codes/egraph_isa_compiler_codesign/benchmark/automotive/basicmath/basicmath_small_O3_clean.s:1987
   10140:	000275b7          	lui	a1,0x27
/home/allenjin/Codes/egraph_isa_compiler_codesign/benchmark/automotive/basicmath/basicmath_small_O3_clean.s:1988
   10144:	7907a703          	lw	a4,1936(a5) # 27790 <__SDATA_BEGIN__+0xd8>
/home/allenjin/Codes/egraph_isa_compiler_codesign/benchmark/automotive/basicmath/basicmath_small_O3_clean.s:1989
   10148:	7986a603          	lw	a2,1944(a3) # 27798 <__SDATA_BEGIN__+0xe0>
/home/allenjin/Codes/egraph_isa_compiler_codesign/benchmark/automotive/basicmath/basicmath_small_O3_clean.s:1990
   1014c:	7385a503          	lw	a0,1848(a1) # 27738 <__SDATA_BEGIN__+0x80>
/home/allenjin/Codes/egraph_isa_compiler_codesign/benchmark/automotive/basicmath/basicmath_small_O3_clean.s:1991
   10150:	788aa803          	lw	a6,1928(s5) # 27788 <__SDATA_BEGIN__+0xd0>
/home/allenjin/Codes/egraph_isa_compiler_codesign/benchmark/automotive/basicmath/basicmath_small_O3_clean.s:1992
   10154:	78caa883          	lw	a7,1932(s5)
/home/allenjin/Codes/egraph_isa_compiler_codesign/benchmark/automotive/basicmath/basicmath_small_O3_clean.s:1993
   10158:	7947a783          	lw	a5,1940(a5)
/home/allenjin/Codes/egraph_isa_compiler_codesign/benchmark/automotive/basicmath/basicmath_small_O3_clean.s:1994
   1015c:	79c6a683          	lw	a3,1948(a3)
/home/allenjin/Codes/egraph_isa_compiler_codesign/benchmark/automotive/basicmath/basicmath_small_O3_clean.s:1995
   10160:	73c5a583          	lw	a1,1852(a1)
/home/allenjin/Codes/egraph_isa_compiler_codesign/benchmark/automotive/basicmath/basicmath_small_O3_clean.s:1996
   10164:	08410313          	addi	t1,sp,132
/home/allenjin/Codes/egraph_isa_compiler_codesign/benchmark/automotive/basicmath/basicmath_small_O3_clean.s:1997
   10168:	08810b13          	addi	s6,sp,136
/home/allenjin/Codes/egraph_isa_compiler_codesign/benchmark/automotive/basicmath/basicmath_small_O3_clean.s:1998
   1016c:	00612023          	sw	t1,0(sp)
/home/allenjin/Codes/egraph_isa_compiler_codesign/benchmark/automotive/basicmath/basicmath_small_O3_clean.s:1999
   10170:	01612223          	sw	s6,4(sp)
/home/allenjin/Codes/egraph_isa_compiler_codesign/benchmark/automotive/basicmath/basicmath_small_O3_clean.s:2001
   10174:	00001097          	auipc	ra,0x1
/home/allenjin/Codes/egraph_isa_compiler_codesign/benchmark/automotive/basicmath/basicmath_small_O3_clean.s:2002
   10178:	d30080e7          	jalr	-720(ra) # 10ea4 <SolveCubic>
/home/allenjin/Codes/egraph_isa_compiler_codesign/benchmark/automotive/basicmath/basicmath_small_O3_clean.s:2003
   1017c:	000267b7          	lui	a5,0x26
/home/allenjin/Codes/egraph_isa_compiler_codesign/benchmark/automotive/basicmath/basicmath_small_O3_clean.s:2004
   10180:	c3078513          	addi	a0,a5,-976 # 25c30 <__floatsitf+0x17c>
/home/allenjin/Codes/egraph_isa_compiler_codesign/benchmark/automotive/basicmath/basicmath_small_O3_clean.s:2006
   10184:	00009097          	auipc	ra,0x9
/home/allenjin/Codes/egraph_isa_compiler_codesign/benchmark/automotive/basicmath/basicmath_small_O3_clean.s:2007
   10188:	0c8080e7          	jalr	200(ra) # 1924c <printf>
/home/allenjin/Codes/egraph_isa_compiler_codesign/benchmark/automotive/basicmath/basicmath_small_O3_clean.s:2008
   1018c:	08412b83          	lw	s7,132(sp)
/home/allenjin/Codes/egraph_isa_compiler_codesign/benchmark/automotive/basicmath/basicmath_small_O3_clean.s:2009
   10190:	00000493          	li	s1,0
/home/allenjin/Codes/egraph_isa_compiler_codesign/benchmark/automotive/basicmath/basicmath_small_O3_clean.s:2010
   10194:	00000413          	li	s0,0
/home/allenjin/Codes/egraph_isa_compiler_codesign/benchmark/automotive/basicmath/basicmath_small_O3_clean.s:2011
   10198:	05705e63          	blez	s7,101f4 <main+0x108>
/home/allenjin/Codes/egraph_isa_compiler_codesign/benchmark/automotive/basicmath/basicmath_small_O3_clean.s:2012
   1019c:	000267b7          	lui	a5,0x26
/home/allenjin/Codes/egraph_isa_compiler_codesign/benchmark/automotive/basicmath/basicmath_small_O3_clean.s:2013
   101a0:	c3c78913          	addi	s2,a5,-964 # 25c3c <__floatsitf+0x188>
/home/allenjin/Codes/egraph_isa_compiler_codesign/benchmark/automotive/basicmath/basicmath_small_O3_clean.s:2014
   101a4:	000b0a13          	mv	s4,s6
/home/allenjin/Codes/egraph_isa_compiler_codesign/benchmark/automotive/basicmath/basicmath_small_O3_clean.s:2015
   101a8:	00000993          	li	s3,0
/home/allenjin/Codes/egraph_isa_compiler_codesign/benchmark/automotive/basicmath/basicmath_small_O3_clean.s:2017
   101ac:	000a2c03          	lw	s8,0(s4)
/home/allenjin/Codes/egraph_isa_compiler_codesign/benchmark/automotive/basicmath/basicmath_small_O3_clean.s:2018
   101b0:	004a2c83          	lw	s9,4(s4)
/home/allenjin/Codes/egraph_isa_compiler_codesign/benchmark/automotive/basicmath/basicmath_small_O3_clean.s:2019
   101b4:	00048513          	mv	a0,s1
/home/allenjin/Codes/egraph_isa_compiler_codesign/benchmark/automotive/basicmath/basicmath_small_O3_clean.s:2020
   101b8:	00040593          	mv	a1,s0
/home/allenjin/Codes/egraph_isa_compiler_codesign/benchmark/automotive/basicmath/basicmath_small_O3_clean.s:2021
   101bc:	000c0613          	mv	a2,s8
/home/allenjin/Codes/egraph_isa_compiler_codesign/benchmark/automotive/basicmath/basicmath_small_O3_clean.s:2022
   101c0:	000c8693          	mv	a3,s9
/home/allenjin/Codes/egraph_isa_compiler_codesign/benchmark/automotive/basicmath/basicmath_small_O3_clean.s:2024
   101c4:	00002097          	auipc	ra,0x2
/home/allenjin/Codes/egraph_isa_compiler_codesign/benchmark/automotive/basicmath/basicmath_small_O3_clean.s:2025
   101c8:	2f8080e7          	jalr	760(ra) # 124bc <__adddf3>
/home/allenjin/Codes/egraph_isa_compiler_codesign/benchmark/automotive/basicmath/basicmath_small_O3_clean.s:2026
   101cc:	00050493          	mv	s1,a0
/home/allenjin/Codes/egraph_isa_compiler_codesign/benchmark/automotive/basicmath/basicmath_small_O3_clean.s:2027
   101d0:	000c0613          	mv	a2,s8
/home/allenjin/Codes/egraph_isa_compiler_codesign/benchmark/automotive/basicmath/basicmath_small_O3_clean.s:2028
   101d4:	000c8693          	mv	a3,s9
/home/allenjin/Codes/egraph_isa_compiler_codesign/benchmark/automotive/basicmath/basicmath_small_O3_clean.s:2029
   101d8:	00090513          	mv	a0,s2
/home/allenjin/Codes/egraph_isa_compiler_codesign/benchmark/automotive/basicmath/basicmath_small_O3_clean.s:2030
   101dc:	00198993          	addi	s3,s3,1
/home/allenjin/Codes/egraph_isa_compiler_codesign/benchmark/automotive/basicmath/basicmath_small_O3_clean.s:2031
   101e0:	00058413          	mv	s0,a1
/home/allenjin/Codes/egraph_isa_compiler_codesign/benchmark/automotive/basicmath/basicmath_small_O3_clean.s:2032
   101e4:	008a0a13          	addi	s4,s4,8
/home/allenjin/Codes/egraph_isa_compiler_codesign/benchmark/automotive/basicmath/basicmath_small_O3_clean.s:2034
   101e8:	00009097          	auipc	ra,0x9
/home/allenjin/Codes/egraph_isa_compiler_codesign/benchmark/automotive/basicmath/basicmath_small_O3_clean.s:2035
   101ec:	064080e7          	jalr	100(ra) # 1924c <printf>
/home/allenjin/Codes/egraph_isa_compiler_codesign/benchmark/automotive/basicmath/basicmath_small_O3_clean.s:2036
   101f0:	fb799ee3          	bne	s3,s7,101ac <main+0xc0>
/home/allenjin/Codes/egraph_isa_compiler_codesign/benchmark/automotive/basicmath/basicmath_small_O3_clean.s:2038
   101f4:	00a00513          	li	a0,10
/home/allenjin/Codes/egraph_isa_compiler_codesign/benchmark/automotive/basicmath/basicmath_small_O3_clean.s:2040
   101f8:	00009097          	auipc	ra,0x9
/home/allenjin/Codes/egraph_isa_compiler_codesign/benchmark/automotive/basicmath/basicmath_small_O3_clean.s:2041
   101fc:	0b4080e7          	jalr	180(ra) # 192ac <putchar>
/home/allenjin/Codes/egraph_isa_compiler_codesign/benchmark/automotive/basicmath/basicmath_small_O3_clean.s:2042
   10200:	00027737          	lui	a4,0x27
/home/allenjin/Codes/egraph_isa_compiler_codesign/benchmark/automotive/basicmath/basicmath_small_O3_clean.s:2043
   10204:	000277b7          	lui	a5,0x27
/home/allenjin/Codes/egraph_isa_compiler_codesign/benchmark/automotive/basicmath/basicmath_small_O3_clean.s:2044
   10208:	000276b7          	lui	a3,0x27
/home/allenjin/Codes/egraph_isa_compiler_codesign/benchmark/automotive/basicmath/basicmath_small_O3_clean.s:2045
   1020c:	788aa803          	lw	a6,1928(s5)
/home/allenjin/Codes/egraph_isa_compiler_codesign/benchmark/automotive/basicmath/basicmath_small_O3_clean.s:2046
   10210:	78caa883          	lw	a7,1932(s5)
/home/allenjin/Codes/egraph_isa_compiler_codesign/benchmark/automotive/basicmath/basicmath_small_O3_clean.s:2047
   10214:	73872503          	lw	a0,1848(a4) # 27738 <__SDATA_BEGIN__+0x80>
/home/allenjin/Codes/egraph_isa_compiler_codesign/benchmark/automotive/basicmath/basicmath_small_O3_clean.s:2048
   10218:	73c72583          	lw	a1,1852(a4)
/home/allenjin/Codes/egraph_isa_compiler_codesign/benchmark/automotive/basicmath/basicmath_small_O3_clean.s:2049
   1021c:	7a86a603          	lw	a2,1960(a3) # 277a8 <__SDATA_BEGIN__+0xf0>
/home/allenjin/Codes/egraph_isa_compiler_codesign/benchmark/automotive/basicmath/basicmath_small_O3_clean.s:2050
   10220:	7a07a703          	lw	a4,1952(a5) # 277a0 <__SDATA_BEGIN__+0xe8>
/home/allenjin/Codes/egraph_isa_compiler_codesign/benchmark/automotive/basicmath/basicmath_small_O3_clean.s:2051
   10224:	7ac6a683          	lw	a3,1964(a3)
/home/allenjin/Codes/egraph_isa_compiler_codesign/benchmark/automotive/basicmath/basicmath_small_O3_clean.s:2052
   10228:	7a47a783          	lw	a5,1956(a5)
/home/allenjin/Codes/egraph_isa_compiler_codesign/benchmark/automotive/basicmath/basicmath_small_O3_clean.s:2053
   1022c:	08410313          	addi	t1,sp,132
/home/allenjin/Codes/egraph_isa_compiler_codesign/benchmark/automotive/basicmath/basicmath_small_O3_clean.s:2054
   10230:	00612023          	sw	t1,0(sp)
/home/allenjin/Codes/egraph_isa_compiler_codesign/benchmark/automotive/basicmath/basicmath_small_O3_clean.s:2055
   10234:	01612223          	sw	s6,4(sp)
/home/allenjin/Codes/egraph_isa_compiler_codesign/benchmark/automotive/basicmath/basicmath_small_O3_clean.s:2057
   10238:	00001097          	auipc	ra,0x1
/home/allenjin/Codes/egraph_isa_compiler_codesign/benchmark/automotive/basicmath/basicmath_small_O3_clean.s:2058
   1023c:	c6c080e7          	jalr	-916(ra) # 10ea4 <SolveCubic>
/home/allenjin/Codes/egraph_isa_compiler_codesign/benchmark/automotive/basicmath/basicmath_small_O3_clean.s:2059
   10240:	000267b7          	lui	a5,0x26
/home/allenjin/Codes/egraph_isa_compiler_codesign/benchmark/automotive/basicmath/basicmath_small_O3_clean.s:2060
   10244:	c3078513          	addi	a0,a5,-976 # 25c30 <__floatsitf+0x17c>
/home/allenjin/Codes/egraph_isa_compiler_codesign/benchmark/automotive/basicmath/basicmath_small_O3_clean.s:2062
   10248:	00009097          	auipc	ra,0x9
/home/allenjin/Codes/egraph_isa_compiler_codesign/benchmark/automotive/basicmath/basicmath_small_O3_clean.s:2063
   1024c:	004080e7          	jalr	4(ra) # 1924c <printf>
/home/allenjin/Codes/egraph_isa_compiler_codesign/benchmark/automotive/basicmath/basicmath_small_O3_clean.s:2064
   10250:	08412a83          	lw	s5,132(sp)
/home/allenjin/Codes/egraph_isa_compiler_codesign/benchmark/automotive/basicmath/basicmath_small_O3_clean.s:2065
   10254:	05505e63          	blez	s5,102b0 <main+0x1c4>
/home/allenjin/Codes/egraph_isa_compiler_codesign/benchmark/automotive/basicmath/basicmath_small_O3_clean.s:2066
   10258:	000267b7          	lui	a5,0x26
/home/allenjin/Codes/egraph_isa_compiler_codesign/benchmark/automotive/basicmath/basicmath_small_O3_clean.s:2067
   1025c:	c3c78913          	addi	s2,a5,-964 # 25c3c <__floatsitf+0x188>
/home/allenjin/Codes/egraph_isa_compiler_codesign/benchmark/automotive/basicmath/basicmath_small_O3_clean.s:2068
   10260:	000b0a13          	mv	s4,s6
/home/allenjin/Codes/egraph_isa_compiler_codesign/benchmark/automotive/basicmath/basicmath_small_O3_clean.s:2069
   10264:	00000993          	li	s3,0
/home/allenjin/Codes/egraph_isa_compiler_codesign/benchmark/automotive/basicmath/basicmath_small_O3_clean.s:2071
   10268:	000a2c03          	lw	s8,0(s4)
/home/allenjin/Codes/egraph_isa_compiler_codesign/benchmark/automotive/basicmath/basicmath_small_O3_clean.s:2072
   1026c:	004a2c83          	lw	s9,4(s4)
/home/allenjin/Codes/egraph_isa_compiler_codesign/benchmark/automotive/basicmath/basicmath_small_O3_clean.s:2073
   10270:	00048513          	mv	a0,s1
/home/allenjin/Codes/egraph_isa_compiler_codesign/benchmark/automotive/basicmath/basicmath_small_O3_clean.s:2074
   10274:	00040593          	mv	a1,s0
/home/allenjin/Codes/egraph_isa_compiler_codesign/benchmark/automotive/basicmath/basicmath_small_O3_clean.s:2075
   10278:	000c0613          	mv	a2,s8
/home/allenjin/Codes/egraph_isa_compiler_codesign/benchmark/automotive/basicmath/basicmath_small_O3_clean.s:2076
   1027c:	000c8693          	mv	a3,s9
/home/allenjin/Codes/egraph_isa_compiler_codesign/benchmark/automotive/basicmath/basicmath_small_O3_clean.s:2078
   10280:	00002097          	auipc	ra,0x2
/home/allenjin/Codes/egraph_isa_compiler_codesign/benchmark/automotive/basicmath/basicmath_small_O3_clean.s:2079
   10284:	23c080e7          	jalr	572(ra) # 124bc <__adddf3>
/home/allenjin/Codes/egraph_isa_compiler_codesign/benchmark/automotive/basicmath/basicmath_small_O3_clean.s:2080
   10288:	00050493          	mv	s1,a0
/home/allenjin/Codes/egraph_isa_compiler_codesign/benchmark/automotive/basicmath/basicmath_small_O3_clean.s:2081
   1028c:	000c0613          	mv	a2,s8
/home/allenjin/Codes/egraph_isa_compiler_codesign/benchmark/automotive/basicmath/basicmath_small_O3_clean.s:2082
   10290:	000c8693          	mv	a3,s9
/home/allenjin/Codes/egraph_isa_compiler_codesign/benchmark/automotive/basicmath/basicmath_small_O3_clean.s:2083
   10294:	00090513          	mv	a0,s2
/home/allenjin/Codes/egraph_isa_compiler_codesign/benchmark/automotive/basicmath/basicmath_small_O3_clean.s:2084
   10298:	00198993          	addi	s3,s3,1
/home/allenjin/Codes/egraph_isa_compiler_codesign/benchmark/automotive/basicmath/basicmath_small_O3_clean.s:2085
   1029c:	00058413          	mv	s0,a1
/home/allenjin/Codes/egraph_isa_compiler_codesign/benchmark/automotive/basicmath/basicmath_small_O3_clean.s:2086
   102a0:	008a0a13          	addi	s4,s4,8
/home/allenjin/Codes/egraph_isa_compiler_codesign/benchmark/automotive/basicmath/basicmath_small_O3_clean.s:2088
   102a4:	00009097          	auipc	ra,0x9
/home/allenjin/Codes/egraph_isa_compiler_codesign/benchmark/automotive/basicmath/basicmath_small_O3_clean.s:2089
   102a8:	fa8080e7          	jalr	-88(ra) # 1924c <printf>
/home/allenjin/Codes/egraph_isa_compiler_codesign/benchmark/automotive/basicmath/basicmath_small_O3_clean.s:2090
   102ac:	fb599ee3          	bne	s3,s5,10268 <main+0x17c>
/home/allenjin/Codes/egraph_isa_compiler_codesign/benchmark/automotive/basicmath/basicmath_small_O3_clean.s:2092
   102b0:	00a00513          	li	a0,10
/home/allenjin/Codes/egraph_isa_compiler_codesign/benchmark/automotive/basicmath/basicmath_small_O3_clean.s:2094
   102b4:	00009097          	auipc	ra,0x9
/home/allenjin/Codes/egraph_isa_compiler_codesign/benchmark/automotive/basicmath/basicmath_small_O3_clean.s:2095
   102b8:	ff8080e7          	jalr	-8(ra) # 192ac <putchar>
/home/allenjin/Codes/egraph_isa_compiler_codesign/benchmark/automotive/basicmath/basicmath_small_O3_clean.s:2096
   102bc:	00027737          	lui	a4,0x27
/home/allenjin/Codes/egraph_isa_compiler_codesign/benchmark/automotive/basicmath/basicmath_small_O3_clean.s:2097
   102c0:	00027637          	lui	a2,0x27
/home/allenjin/Codes/egraph_isa_compiler_codesign/benchmark/automotive/basicmath/basicmath_small_O3_clean.s:2098
   102c4:	000277b7          	lui	a5,0x27
/home/allenjin/Codes/egraph_isa_compiler_codesign/benchmark/automotive/basicmath/basicmath_small_O3_clean.s:2099
   102c8:	000276b7          	lui	a3,0x27
/home/allenjin/Codes/egraph_isa_compiler_codesign/benchmark/automotive/basicmath/basicmath_small_O3_clean.s:2100
   102cc:	73862503          	lw	a0,1848(a2) # 27738 <__SDATA_BEGIN__+0x80>
/home/allenjin/Codes/egraph_isa_compiler_codesign/benchmark/automotive/basicmath/basicmath_small_O3_clean.s:2101
   102d0:	73c62583          	lw	a1,1852(a2)
/home/allenjin/Codes/egraph_isa_compiler_codesign/benchmark/automotive/basicmath/basicmath_small_O3_clean.s:2102
   102d4:	7b072803          	lw	a6,1968(a4) # 277b0 <__SDATA_BEGIN__+0xf8>
/home/allenjin/Codes/egraph_isa_compiler_codesign/benchmark/automotive/basicmath/basicmath_small_O3_clean.s:2103
   102d8:	7b472883          	lw	a7,1972(a4)
/home/allenjin/Codes/egraph_isa_compiler_codesign/benchmark/automotive/basicmath/basicmath_small_O3_clean.s:2104
   102dc:	7c06a603          	lw	a2,1984(a3) # 277c0 <__SDATA_BEGIN__+0x108>
/home/allenjin/Codes/egraph_isa_compiler_codesign/benchmark/automotive/basicmath/basicmath_small_O3_clean.s:2105
   102e0:	7b87a703          	lw	a4,1976(a5) # 277b8 <__SDATA_BEGIN__+0x100>
/home/allenjin/Codes/egraph_isa_compiler_codesign/benchmark/automotive/basicmath/basicmath_small_O3_clean.s:2106
   102e4:	7c46a683          	lw	a3,1988(a3)
/home/allenjin/Codes/egraph_isa_compiler_codesign/benchmark/automotive/basicmath/basicmath_small_O3_clean.s:2107
   102e8:	7bc7a783          	lw	a5,1980(a5)
/home/allenjin/Codes/egraph_isa_compiler_codesign/benchmark/automotive/basicmath/basicmath_small_O3_clean.s:2108
   102ec:	08410313          	addi	t1,sp,132
/home/allenjin/Codes/egraph_isa_compiler_codesign/benchmark/automotive/basicmath/basicmath_small_O3_clean.s:2109
   102f0:	00612023          	sw	t1,0(sp)
/home/allenjin/Codes/egraph_isa_compiler_codesign/benchmark/automotive/basicmath/basicmath_small_O3_clean.s:2110
   102f4:	01612223          	sw	s6,4(sp)
/home/allenjin/Codes/egraph_isa_compiler_codesign/benchmark/automotive/basicmath/basicmath_small_O3_clean.s:2112
   102f8:	00001097          	auipc	ra,0x1
/home/allenjin/Codes/egraph_isa_compiler_codesign/benchmark/automotive/basicmath/basicmath_small_O3_clean.s:2113
   102fc:	bac080e7          	jalr	-1108(ra) # 10ea4 <SolveCubic>
/home/allenjin/Codes/egraph_isa_compiler_codesign/benchmark/automotive/basicmath/basicmath_small_O3_clean.s:2114
   10300:	000267b7          	lui	a5,0x26
/home/allenjin/Codes/egraph_isa_compiler_codesign/benchmark/automotive/basicmath/basicmath_small_O3_clean.s:2115
   10304:	c3078513          	addi	a0,a5,-976 # 25c30 <__floatsitf+0x17c>
/home/allenjin/Codes/egraph_isa_compiler_codesign/benchmark/automotive/basicmath/basicmath_small_O3_clean.s:2117
   10308:	00009097          	auipc	ra,0x9
/home/allenjin/Codes/egraph_isa_compiler_codesign/benchmark/automotive/basicmath/basicmath_small_O3_clean.s:2118
   1030c:	f44080e7          	jalr	-188(ra) # 1924c <printf>
/home/allenjin/Codes/egraph_isa_compiler_codesign/benchmark/automotive/basicmath/basicmath_small_O3_clean.s:2119
   10310:	08412a83          	lw	s5,132(sp)
/home/allenjin/Codes/egraph_isa_compiler_codesign/benchmark/automotive/basicmath/basicmath_small_O3_clean.s:2120
   10314:	05505e63          	blez	s5,10370 <main+0x284>
/home/allenjin/Codes/egraph_isa_compiler_codesign/benchmark/automotive/basicmath/basicmath_small_O3_clean.s:2121
   10318:	000267b7          	lui	a5,0x26
/home/allenjin/Codes/egraph_isa_compiler_codesign/benchmark/automotive/basicmath/basicmath_small_O3_clean.s:2122
   1031c:	c3c78913          	addi	s2,a5,-964 # 25c3c <__floatsitf+0x188>
/home/allenjin/Codes/egraph_isa_compiler_codesign/benchmark/automotive/basicmath/basicmath_small_O3_clean.s:2123
   10320:	000b0a13          	mv	s4,s6
/home/allenjin/Codes/egraph_isa_compiler_codesign/benchmark/automotive/basicmath/basicmath_small_O3_clean.s:2124
   10324:	00000993          	li	s3,0
/home/allenjin/Codes/egraph_isa_compiler_codesign/benchmark/automotive/basicmath/basicmath_small_O3_clean.s:2126
   10328:	000a2c03          	lw	s8,0(s4)
/home/allenjin/Codes/egraph_isa_compiler_codesign/benchmark/automotive/basicmath/basicmath_small_O3_clean.s:2127
   1032c:	004a2c83          	lw	s9,4(s4)
/home/allenjin/Codes/egraph_isa_compiler_codesign/benchmark/automotive/basicmath/basicmath_small_O3_clean.s:2128
   10330:	00048513          	mv	a0,s1
/home/allenjin/Codes/egraph_isa_compiler_codesign/benchmark/automotive/basicmath/basicmath_small_O3_clean.s:2129
   10334:	00040593          	mv	a1,s0
/home/allenjin/Codes/egraph_isa_compiler_codesign/benchmark/automotive/basicmath/basicmath_small_O3_clean.s:2130
   10338:	000c0613          	mv	a2,s8
/home/allenjin/Codes/egraph_isa_compiler_codesign/benchmark/automotive/basicmath/basicmath_small_O3_clean.s:2131
   1033c:	000c8693          	mv	a3,s9
/home/allenjin/Codes/egraph_isa_compiler_codesign/benchmark/automotive/basicmath/basicmath_small_O3_clean.s:2133
   10340:	00002097          	auipc	ra,0x2
/home/allenjin/Codes/egraph_isa_compiler_codesign/benchmark/automotive/basicmath/basicmath_small_O3_clean.s:2134
   10344:	17c080e7          	jalr	380(ra) # 124bc <__adddf3>
/home/allenjin/Codes/egraph_isa_compiler_codesign/benchmark/automotive/basicmath/basicmath_small_O3_clean.s:2135
   10348:	00050493          	mv	s1,a0
/home/allenjin/Codes/egraph_isa_compiler_codesign/benchmark/automotive/basicmath/basicmath_small_O3_clean.s:2136
   1034c:	000c0613          	mv	a2,s8
/home/allenjin/Codes/egraph_isa_compiler_codesign/benchmark/automotive/basicmath/basicmath_small_O3_clean.s:2137
   10350:	000c8693          	mv	a3,s9
/home/allenjin/Codes/egraph_isa_compiler_codesign/benchmark/automotive/basicmath/basicmath_small_O3_clean.s:2138
   10354:	00090513          	mv	a0,s2
/home/allenjin/Codes/egraph_isa_compiler_codesign/benchmark/automotive/basicmath/basicmath_small_O3_clean.s:2139
   10358:	00198993          	addi	s3,s3,1
/home/allenjin/Codes/egraph_isa_compiler_codesign/benchmark/automotive/basicmath/basicmath_small_O3_clean.s:2140
   1035c:	00058413          	mv	s0,a1
/home/allenjin/Codes/egraph_isa_compiler_codesign/benchmark/automotive/basicmath/basicmath_small_O3_clean.s:2141
   10360:	008a0a13          	addi	s4,s4,8
/home/allenjin/Codes/egraph_isa_compiler_codesign/benchmark/automotive/basicmath/basicmath_small_O3_clean.s:2143
   10364:	00009097          	auipc	ra,0x9
/home/allenjin/Codes/egraph_isa_compiler_codesign/benchmark/automotive/basicmath/basicmath_small_O3_clean.s:2144
   10368:	ee8080e7          	jalr	-280(ra) # 1924c <printf>
/home/allenjin/Codes/egraph_isa_compiler_codesign/benchmark/automotive/basicmath/basicmath_small_O3_clean.s:2145
   1036c:	fb599ee3          	bne	s3,s5,10328 <main+0x23c>
/home/allenjin/Codes/egraph_isa_compiler_codesign/benchmark/automotive/basicmath/basicmath_small_O3_clean.s:2147
   10370:	00a00513          	li	a0,10
/home/allenjin/Codes/egraph_isa_compiler_codesign/benchmark/automotive/basicmath/basicmath_small_O3_clean.s:2149
   10374:	00009097          	auipc	ra,0x9
/home/allenjin/Codes/egraph_isa_compiler_codesign/benchmark/automotive/basicmath/basicmath_small_O3_clean.s:2150
   10378:	f38080e7          	jalr	-200(ra) # 192ac <putchar>
/home/allenjin/Codes/egraph_isa_compiler_codesign/benchmark/automotive/basicmath/basicmath_small_O3_clean.s:2151
   1037c:	000277b7          	lui	a5,0x27
/home/allenjin/Codes/egraph_isa_compiler_codesign/benchmark/automotive/basicmath/basicmath_small_O3_clean.s:2152
   10380:	7387a703          	lw	a4,1848(a5) # 27738 <__SDATA_BEGIN__+0x80>
/home/allenjin/Codes/egraph_isa_compiler_codesign/benchmark/automotive/basicmath/basicmath_small_O3_clean.s:2153
   10384:	00027637          	lui	a2,0x27
/home/allenjin/Codes/egraph_isa_compiler_codesign/benchmark/automotive/basicmath/basicmath_small_O3_clean.s:2154
   10388:	73c7a783          	lw	a5,1852(a5)
/home/allenjin/Codes/egraph_isa_compiler_codesign/benchmark/automotive/basicmath/basicmath_small_O3_clean.s:2155
   1038c:	000276b7          	lui	a3,0x27
/home/allenjin/Codes/egraph_isa_compiler_codesign/benchmark/automotive/basicmath/basicmath_small_O3_clean.s:2156
   10390:	7c862803          	lw	a6,1992(a2) # 277c8 <__SDATA_BEGIN__+0x110>
/home/allenjin/Codes/egraph_isa_compiler_codesign/benchmark/automotive/basicmath/basicmath_small_O3_clean.s:2157
   10394:	7cc62883          	lw	a7,1996(a2)
/home/allenjin/Codes/egraph_isa_compiler_codesign/benchmark/automotive/basicmath/basicmath_small_O3_clean.s:2158
   10398:	7d06a603          	lw	a2,2000(a3) # 277d0 <__SDATA_BEGIN__+0x118>
/home/allenjin/Codes/egraph_isa_compiler_codesign/benchmark/automotive/basicmath/basicmath_small_O3_clean.s:2159
   1039c:	7d46a683          	lw	a3,2004(a3)
/home/allenjin/Codes/egraph_isa_compiler_codesign/benchmark/automotive/basicmath/basicmath_small_O3_clean.s:2160
   103a0:	08410313          	addi	t1,sp,132
/home/allenjin/Codes/egraph_isa_compiler_codesign/benchmark/automotive/basicmath/basicmath_small_O3_clean.s:2161
   103a4:	00070513          	mv	a0,a4
/home/allenjin/Codes/egraph_isa_compiler_codesign/benchmark/automotive/basicmath/basicmath_small_O3_clean.s:2162
   103a8:	00078593          	mv	a1,a5
/home/allenjin/Codes/egraph_isa_compiler_codesign/benchmark/automotive/basicmath/basicmath_small_O3_clean.s:2163
   103ac:	00612023          	sw	t1,0(sp)
/home/allenjin/Codes/egraph_isa_compiler_codesign/benchmark/automotive/basicmath/basicmath_small_O3_clean.s:2164
   103b0:	01612223          	sw	s6,4(sp)
/home/allenjin/Codes/egraph_isa_compiler_codesign/benchmark/automotive/basicmath/basicmath_small_O3_clean.s:2166
   103b4:	00001097          	auipc	ra,0x1
/home/allenjin/Codes/egraph_isa_compiler_codesign/benchmark/automotive/basicmath/basicmath_small_O3_clean.s:2167
   103b8:	af0080e7          	jalr	-1296(ra) # 10ea4 <SolveCubic>
/home/allenjin/Codes/egraph_isa_compiler_codesign/benchmark/automotive/basicmath/basicmath_small_O3_clean.s:2168
   103bc:	000267b7          	lui	a5,0x26
/home/allenjin/Codes/egraph_isa_compiler_codesign/benchmark/automotive/basicmath/basicmath_small_O3_clean.s:2169
   103c0:	c3078513          	addi	a0,a5,-976 # 25c30 <__floatsitf+0x17c>
/home/allenjin/Codes/egraph_isa_compiler_codesign/benchmark/automotive/basicmath/basicmath_small_O3_clean.s:2171
   103c4:	00009097          	auipc	ra,0x9
/home/allenjin/Codes/egraph_isa_compiler_codesign/benchmark/automotive/basicmath/basicmath_small_O3_clean.s:2172
   103c8:	e88080e7          	jalr	-376(ra) # 1924c <printf>
/home/allenjin/Codes/egraph_isa_compiler_codesign/benchmark/automotive/basicmath/basicmath_small_O3_clean.s:2173
   103cc:	08412a83          	lw	s5,132(sp)
/home/allenjin/Codes/egraph_isa_compiler_codesign/benchmark/automotive/basicmath/basicmath_small_O3_clean.s:2174
   103d0:	05505e63          	blez	s5,1042c <main+0x340>
/home/allenjin/Codes/egraph_isa_compiler_codesign/benchmark/automotive/basicmath/basicmath_small_O3_clean.s:2175
   103d4:	000267b7          	lui	a5,0x26
/home/allenjin/Codes/egraph_isa_compiler_codesign/benchmark/automotive/basicmath/basicmath_small_O3_clean.s:2176
   103d8:	c3c78913          	addi	s2,a5,-964 # 25c3c <__floatsitf+0x188>
/home/allenjin/Codes/egraph_isa_compiler_codesign/benchmark/automotive/basicmath/basicmath_small_O3_clean.s:2177
   103dc:	000b0a13          	mv	s4,s6
/home/allenjin/Codes/egraph_isa_compiler_codesign/benchmark/automotive/basicmath/basicmath_small_O3_clean.s:2178
   103e0:	00000993          	li	s3,0
/home/allenjin/Codes/egraph_isa_compiler_codesign/benchmark/automotive/basicmath/basicmath_small_O3_clean.s:2180
   103e4:	000a2c03          	lw	s8,0(s4)
/home/allenjin/Codes/egraph_isa_compiler_codesign/benchmark/automotive/basicmath/basicmath_small_O3_clean.s:2181
   103e8:	004a2c83          	lw	s9,4(s4)
/home/allenjin/Codes/egraph_isa_compiler_codesign/benchmark/automotive/basicmath/basicmath_small_O3_clean.s:2182
   103ec:	00048513          	mv	a0,s1
/home/allenjin/Codes/egraph_isa_compiler_codesign/benchmark/automotive/basicmath/basicmath_small_O3_clean.s:2183
   103f0:	00040593          	mv	a1,s0
/home/allenjin/Codes/egraph_isa_compiler_codesign/benchmark/automotive/basicmath/basicmath_small_O3_clean.s:2184
   103f4:	000c0613          	mv	a2,s8
/home/allenjin/Codes/egraph_isa_compiler_codesign/benchmark/automotive/basicmath/basicmath_small_O3_clean.s:2185
   103f8:	000c8693          	mv	a3,s9
/home/allenjin/Codes/egraph_isa_compiler_codesign/benchmark/automotive/basicmath/basicmath_small_O3_clean.s:2187
   103fc:	00002097          	auipc	ra,0x2
/home/allenjin/Codes/egraph_isa_compiler_codesign/benchmark/automotive/basicmath/basicmath_small_O3_clean.s:2188
   10400:	0c0080e7          	jalr	192(ra) # 124bc <__adddf3>
/home/allenjin/Codes/egraph_isa_compiler_codesign/benchmark/automotive/basicmath/basicmath_small_O3_clean.s:2189
   10404:	00050493          	mv	s1,a0
/home/allenjin/Codes/egraph_isa_compiler_codesign/benchmark/automotive/basicmath/basicmath_small_O3_clean.s:2190
   10408:	000c0613          	mv	a2,s8
/home/allenjin/Codes/egraph_isa_compiler_codesign/benchmark/automotive/basicmath/basicmath_small_O3_clean.s:2191
   1040c:	000c8693          	mv	a3,s9
/home/allenjin/Codes/egraph_isa_compiler_codesign/benchmark/automotive/basicmath/basicmath_small_O3_clean.s:2192
   10410:	00090513          	mv	a0,s2
/home/allenjin/Codes/egraph_isa_compiler_codesign/benchmark/automotive/basicmath/basicmath_small_O3_clean.s:2193
   10414:	00198993          	addi	s3,s3,1
/home/allenjin/Codes/egraph_isa_compiler_codesign/benchmark/automotive/basicmath/basicmath_small_O3_clean.s:2194
   10418:	00058413          	mv	s0,a1
/home/allenjin/Codes/egraph_isa_compiler_codesign/benchmark/automotive/basicmath/basicmath_small_O3_clean.s:2195
   1041c:	008a0a13          	addi	s4,s4,8
/home/allenjin/Codes/egraph_isa_compiler_codesign/benchmark/automotive/basicmath/basicmath_small_O3_clean.s:2197
   10420:	00009097          	auipc	ra,0x9
/home/allenjin/Codes/egraph_isa_compiler_codesign/benchmark/automotive/basicmath/basicmath_small_O3_clean.s:2198
   10424:	e2c080e7          	jalr	-468(ra) # 1924c <printf>
/home/allenjin/Codes/egraph_isa_compiler_codesign/benchmark/automotive/basicmath/basicmath_small_O3_clean.s:2199
   10428:	fb599ee3          	bne	s3,s5,103e4 <main+0x2f8>
/home/allenjin/Codes/egraph_isa_compiler_codesign/benchmark/automotive/basicmath/basicmath_small_O3_clean.s:2201
   1042c:	00a00513          	li	a0,10
/home/allenjin/Codes/egraph_isa_compiler_codesign/benchmark/automotive/basicmath/basicmath_small_O3_clean.s:2203
   10430:	00009097          	auipc	ra,0x9
/home/allenjin/Codes/egraph_isa_compiler_codesign/benchmark/automotive/basicmath/basicmath_small_O3_clean.s:2204
   10434:	e7c080e7          	jalr	-388(ra) # 192ac <putchar>
/home/allenjin/Codes/egraph_isa_compiler_codesign/benchmark/automotive/basicmath/basicmath_small_O3_clean.s:2205
   10438:	000277b7          	lui	a5,0x27
/home/allenjin/Codes/egraph_isa_compiler_codesign/benchmark/automotive/basicmath/basicmath_small_O3_clean.s:2206
   1043c:	7387a703          	lw	a4,1848(a5) # 27738 <__SDATA_BEGIN__+0x80>
/home/allenjin/Codes/egraph_isa_compiler_codesign/benchmark/automotive/basicmath/basicmath_small_O3_clean.s:2207
   10440:	73c7a783          	lw	a5,1852(a5)
/home/allenjin/Codes/egraph_isa_compiler_codesign/benchmark/automotive/basicmath/basicmath_small_O3_clean.s:2208
   10444:	00027637          	lui	a2,0x27
/home/allenjin/Codes/egraph_isa_compiler_codesign/benchmark/automotive/basicmath/basicmath_small_O3_clean.s:2209
   10448:	02e12623          	sw	a4,44(sp)
/home/allenjin/Codes/egraph_isa_compiler_codesign/benchmark/automotive/basicmath/basicmath_small_O3_clean.s:2210
   1044c:	02c12583          	lw	a1,44(sp)
/home/allenjin/Codes/egraph_isa_compiler_codesign/benchmark/automotive/basicmath/basicmath_small_O3_clean.s:2211
   10450:	02f12823          	sw	a5,48(sp)
/home/allenjin/Codes/egraph_isa_compiler_codesign/benchmark/automotive/basicmath/basicmath_small_O3_clean.s:2212
   10454:	000276b7          	lui	a3,0x27
/home/allenjin/Codes/egraph_isa_compiler_codesign/benchmark/automotive/basicmath/basicmath_small_O3_clean.s:2213
   10458:	02b12e23          	sw	a1,60(sp)
/home/allenjin/Codes/egraph_isa_compiler_codesign/benchmark/automotive/basicmath/basicmath_small_O3_clean.s:2214
   1045c:	06b12023          	sw	a1,96(sp)
/home/allenjin/Codes/egraph_isa_compiler_codesign/benchmark/automotive/basicmath/basicmath_small_O3_clean.s:2215
   10460:	00058a13          	mv	s4,a1
/home/allenjin/Codes/egraph_isa_compiler_codesign/benchmark/automotive/basicmath/basicmath_small_O3_clean.s:2216
   10464:	03012583          	lw	a1,48(sp)
/home/allenjin/Codes/egraph_isa_compiler_codesign/benchmark/automotive/basicmath/basicmath_small_O3_clean.s:2217
   10468:	00027737          	lui	a4,0x27
/home/allenjin/Codes/egraph_isa_compiler_codesign/benchmark/automotive/basicmath/basicmath_small_O3_clean.s:2218
   1046c:	000277b7          	lui	a5,0x27
/home/allenjin/Codes/egraph_isa_compiler_codesign/benchmark/automotive/basicmath/basicmath_small_O3_clean.s:2219
   10470:	04b12023          	sw	a1,64(sp)
/home/allenjin/Codes/egraph_isa_compiler_codesign/benchmark/automotive/basicmath/basicmath_small_O3_clean.s:2220
   10474:	06b12223          	sw	a1,100(sp)
/home/allenjin/Codes/egraph_isa_compiler_codesign/benchmark/automotive/basicmath/basicmath_small_O3_clean.s:2221
   10478:	06b12423          	sw	a1,104(sp)
/home/allenjin/Codes/egraph_isa_compiler_codesign/benchmark/automotive/basicmath/basicmath_small_O3_clean.s:2222
   1047c:	6c062583          	lw	a1,1728(a2) # 276c0 <__SDATA_BEGIN__+0x8>
/home/allenjin/Codes/egraph_isa_compiler_codesign/benchmark/automotive/basicmath/basicmath_small_O3_clean.s:2223
   10480:	6c462603          	lw	a2,1732(a2)
/home/allenjin/Codes/egraph_isa_compiler_codesign/benchmark/automotive/basicmath/basicmath_small_O3_clean.s:2224
   10484:	7546ac83          	lw	s9,1876(a3) # 27754 <__SDATA_BEGIN__+0x9c>
/home/allenjin/Codes/egraph_isa_compiler_codesign/benchmark/automotive/basicmath/basicmath_small_O3_clean.s:2225
   10488:	7807ab83          	lw	s7,1920(a5) # 27780 <__SDATA_BEGIN__+0xc8>
/home/allenjin/Codes/egraph_isa_compiler_codesign/benchmark/automotive/basicmath/basicmath_small_O3_clean.s:2226
   1048c:	04c12623          	sw	a2,76(sp)
/home/allenjin/Codes/egraph_isa_compiler_codesign/benchmark/automotive/basicmath/basicmath_small_O3_clean.s:2227
   10490:	7506a603          	lw	a2,1872(a3)
/home/allenjin/Codes/egraph_isa_compiler_codesign/benchmark/automotive/basicmath/basicmath_small_O3_clean.s:2228
   10494:	77872683          	lw	a3,1912(a4) # 27778 <__SDATA_BEGIN__+0xc0>
/home/allenjin/Codes/egraph_isa_compiler_codesign/benchmark/automotive/basicmath/basicmath_small_O3_clean.s:2229
   10498:	77c72703          	lw	a4,1916(a4)
/home/allenjin/Codes/egraph_isa_compiler_codesign/benchmark/automotive/basicmath/basicmath_small_O3_clean.s:2230
   1049c:	7847ad83          	lw	s11,1924(a5)
/home/allenjin/Codes/egraph_isa_compiler_codesign/benchmark/automotive/basicmath/basicmath_small_O3_clean.s:2231
   104a0:	000b8913          	mv	s2,s7
/home/allenjin/Codes/egraph_isa_compiler_codesign/benchmark/automotive/basicmath/basicmath_small_O3_clean.s:2232
   104a4:	04b12423          	sw	a1,72(sp)
/home/allenjin/Codes/egraph_isa_compiler_codesign/benchmark/automotive/basicmath/basicmath_small_O3_clean.s:2233
   104a8:	04c12823          	sw	a2,80(sp)
/home/allenjin/Codes/egraph_isa_compiler_codesign/benchmark/automotive/basicmath/basicmath_small_O3_clean.s:2234
   104ac:	04d12c23          	sw	a3,88(sp)
/home/allenjin/Codes/egraph_isa_compiler_codesign/benchmark/automotive/basicmath/basicmath_small_O3_clean.s:2235
   104b0:	04e12e23          	sw	a4,92(sp)
/home/allenjin/Codes/egraph_isa_compiler_codesign/benchmark/automotive/basicmath/basicmath_small_O3_clean.s:2236
   104b4:	05912a23          	sw	s9,84(sp)
/home/allenjin/Codes/egraph_isa_compiler_codesign/benchmark/automotive/basicmath/basicmath_small_O3_clean.s:2237
   104b8:	00900b93          	li	s7,9
/home/allenjin/Codes/egraph_isa_compiler_codesign/benchmark/automotive/basicmath/basicmath_small_O3_clean.s:2239
   104bc:	00026ab7          	lui	s5,0x26
/home/allenjin/Codes/egraph_isa_compiler_codesign/benchmark/automotive/basicmath/basicmath_small_O3_clean.s:2240
   104c0:	c3ca8a93          	addi	s5,s5,-964 # 25c3c <__floatsitf+0x188>
/home/allenjin/Codes/egraph_isa_compiler_codesign/benchmark/automotive/basicmath/basicmath_small_O3_clean.s:2241
   104c4:	00a00993          	li	s3,10
/home/allenjin/Codes/egraph_isa_compiler_codesign/benchmark/automotive/basicmath/basicmath_small_O3_clean.s:2242
   104c8:	03212a23          	sw	s2,52(sp)
/home/allenjin/Codes/egraph_isa_compiler_codesign/benchmark/automotive/basicmath/basicmath_small_O3_clean.s:2243
   104cc:	03b12c23          	sw	s11,56(sp)
/home/allenjin/Codes/egraph_isa_compiler_codesign/benchmark/automotive/basicmath/basicmath_small_O3_clean.s:2244
   104d0:	07712623          	sw	s7,108(sp)
/home/allenjin/Codes/egraph_isa_compiler_codesign/benchmark/automotive/basicmath/basicmath_small_O3_clean.s:2245
   104d4:	07212823          	sw	s2,112(sp)
/home/allenjin/Codes/egraph_isa_compiler_codesign/benchmark/automotive/basicmath/basicmath_small_O3_clean.s:2246
   104d8:	07b12a23          	sw	s11,116(sp)
/home/allenjin/Codes/egraph_isa_compiler_codesign/benchmark/automotive/basicmath/basicmath_small_O3_clean.s:2247
   104dc:	07412c23          	sw	s4,120(sp)
/home/allenjin/Codes/egraph_isa_compiler_codesign/benchmark/automotive/basicmath/basicmath_small_O3_clean.s:2249
   104e0:	05812b83          	lw	s7,88(sp)
/home/allenjin/Codes/egraph_isa_compiler_codesign/benchmark/automotive/basicmath/basicmath_small_O3_clean.s:2250
   104e4:	05c12c03          	lw	s8,92(sp)
/home/allenjin/Codes/egraph_isa_compiler_codesign/benchmark/automotive/basicmath/basicmath_small_O3_clean.s:2251
   104e8:	01400793          	li	a5,20
/home/allenjin/Codes/egraph_isa_compiler_codesign/benchmark/automotive/basicmath/basicmath_small_O3_clean.s:2252
   104ec:	04f12223          	sw	a5,68(sp)
/home/allenjin/Codes/egraph_isa_compiler_codesign/benchmark/automotive/basicmath/basicmath_small_O3_clean.s:2253
   104f0:	07312e23          	sw	s3,124(sp)
/home/allenjin/Codes/egraph_isa_compiler_codesign/benchmark/automotive/basicmath/basicmath_small_O3_clean.s:2255
   104f4:	05012983          	lw	s3,80(sp)
/home/allenjin/Codes/egraph_isa_compiler_codesign/benchmark/automotive/basicmath/basicmath_small_O3_clean.s:2256
   104f8:	05412903          	lw	s2,84(sp)
/home/allenjin/Codes/egraph_isa_compiler_codesign/benchmark/automotive/basicmath/basicmath_small_O3_clean.s:2257
   104fc:	00a00a13          	li	s4,10
/home/allenjin/Codes/egraph_isa_compiler_codesign/benchmark/automotive/basicmath/basicmath_small_O3_clean.s:2259
   10500:	03412603          	lw	a2,52(sp)
/home/allenjin/Codes/egraph_isa_compiler_codesign/benchmark/automotive/basicmath/basicmath_small_O3_clean.s:2260
   10504:	02c12503          	lw	a0,44(sp)
/home/allenjin/Codes/egraph_isa_compiler_codesign/benchmark/automotive/basicmath/basicmath_small_O3_clean.s:2261
   10508:	03812683          	lw	a3,56(sp)
/home/allenjin/Codes/egraph_isa_compiler_codesign/benchmark/automotive/basicmath/basicmath_small_O3_clean.s:2262
   1050c:	03012583          	lw	a1,48(sp)
/home/allenjin/Codes/egraph_isa_compiler_codesign/benchmark/automotive/basicmath/basicmath_small_O3_clean.s:2263
   10510:	08410313          	addi	t1,sp,132
/home/allenjin/Codes/egraph_isa_compiler_codesign/benchmark/automotive/basicmath/basicmath_small_O3_clean.s:2264
   10514:	00098813          	mv	a6,s3
/home/allenjin/Codes/egraph_isa_compiler_codesign/benchmark/automotive/basicmath/basicmath_small_O3_clean.s:2265
   10518:	000b8713          	mv	a4,s7
/home/allenjin/Codes/egraph_isa_compiler_codesign/benchmark/automotive/basicmath/basicmath_small_O3_clean.s:2266
   1051c:	00090893          	mv	a7,s2
/home/allenjin/Codes/egraph_isa_compiler_codesign/benchmark/automotive/basicmath/basicmath_small_O3_clean.s:2267
   10520:	000c0793          	mv	a5,s8
/home/allenjin/Codes/egraph_isa_compiler_codesign/benchmark/automotive/basicmath/basicmath_small_O3_clean.s:2268
   10524:	00612023          	sw	t1,0(sp)
/home/allenjin/Codes/egraph_isa_compiler_codesign/benchmark/automotive/basicmath/basicmath_small_O3_clean.s:2269
   10528:	01612223          	sw	s6,4(sp)
/home/allenjin/Codes/egraph_isa_compiler_codesign/benchmark/automotive/basicmath/basicmath_small_O3_clean.s:2271
   1052c:	00001097          	auipc	ra,0x1
/home/allenjin/Codes/egraph_isa_compiler_codesign/benchmark/automotive/basicmath/basicmath_small_O3_clean.s:2272
   10530:	978080e7          	jalr	-1672(ra) # 10ea4 <SolveCubic>
/home/allenjin/Codes/egraph_isa_compiler_codesign/benchmark/automotive/basicmath/basicmath_small_O3_clean.s:2273
   10534:	000267b7          	lui	a5,0x26
/home/allenjin/Codes/egraph_isa_compiler_codesign/benchmark/automotive/basicmath/basicmath_small_O3_clean.s:2274
   10538:	c3078513          	addi	a0,a5,-976 # 25c30 <__floatsitf+0x17c>
/home/allenjin/Codes/egraph_isa_compiler_codesign/benchmark/automotive/basicmath/basicmath_small_O3_clean.s:2276
   1053c:	00009097          	auipc	ra,0x9
/home/allenjin/Codes/egraph_isa_compiler_codesign/benchmark/automotive/basicmath/basicmath_small_O3_clean.s:2277
   10540:	d10080e7          	jalr	-752(ra) # 1924c <printf>
/home/allenjin/Codes/egraph_isa_compiler_codesign/benchmark/automotive/basicmath/basicmath_small_O3_clean.s:2278
   10544:	08412d83          	lw	s11,132(sp)
/home/allenjin/Codes/egraph_isa_compiler_codesign/benchmark/automotive/basicmath/basicmath_small_O3_clean.s:2279
   10548:	07b05463          	blez	s11,105b0 <main+0x4c4>
/home/allenjin/Codes/egraph_isa_compiler_codesign/benchmark/automotive/basicmath/basicmath_small_O3_clean.s:2280
   1054c:	01312c23          	sw	s3,24(sp)
/home/allenjin/Codes/egraph_isa_compiler_codesign/benchmark/automotive/basicmath/basicmath_small_O3_clean.s:2281
   10550:	03212023          	sw	s2,32(sp)
/home/allenjin/Codes/egraph_isa_compiler_codesign/benchmark/automotive/basicmath/basicmath_small_O3_clean.s:2282
   10554:	000b0993          	mv	s3,s6
/home/allenjin/Codes/egraph_isa_compiler_codesign/benchmark/automotive/basicmath/basicmath_small_O3_clean.s:2283
   10558:	00000913          	li	s2,0
/home/allenjin/Codes/egraph_isa_compiler_codesign/benchmark/automotive/basicmath/basicmath_small_O3_clean.s:2284
   1055c:	000d8c93          	mv	s9,s11
/home/allenjin/Codes/egraph_isa_compiler_codesign/benchmark/automotive/basicmath/basicmath_small_O3_clean.s:2286
   10560:	0009ad03          	lw	s10,0(s3)
/home/allenjin/Codes/egraph_isa_compiler_codesign/benchmark/automotive/basicmath/basicmath_small_O3_clean.s:2287
   10564:	0049ad83          	lw	s11,4(s3)
/home/allenjin/Codes/egraph_isa_compiler_codesign/benchmark/automotive/basicmath/basicmath_small_O3_clean.s:2288
   10568:	00048513          	mv	a0,s1
/home/allenjin/Codes/egraph_isa_compiler_codesign/benchmark/automotive/basicmath/basicmath_small_O3_clean.s:2289
   1056c:	00040593          	mv	a1,s0
/home/allenjin/Codes/egraph_isa_compiler_codesign/benchmark/automotive/basicmath/basicmath_small_O3_clean.s:2290
   10570:	000d0613          	mv	a2,s10
/home/allenjin/Codes/egraph_isa_compiler_codesign/benchmark/automotive/basicmath/basicmath_small_O3_clean.s:2291
   10574:	000d8693          	mv	a3,s11
/home/allenjin/Codes/egraph_isa_compiler_codesign/benchmark/automotive/basicmath/basicmath_small_O3_clean.s:2293
   10578:	00002097          	auipc	ra,0x2
/home/allenjin/Codes/egraph_isa_compiler_codesign/benchmark/automotive/basicmath/basicmath_small_O3_clean.s:2294
   1057c:	f44080e7          	jalr	-188(ra) # 124bc <__adddf3>
/home/allenjin/Codes/egraph_isa_compiler_codesign/benchmark/automotive/basicmath/basicmath_small_O3_clean.s:2295
   10580:	00050493          	mv	s1,a0
/home/allenjin/Codes/egraph_isa_compiler_codesign/benchmark/automotive/basicmath/basicmath_small_O3_clean.s:2296
   10584:	000d0613          	mv	a2,s10
/home/allenjin/Codes/egraph_isa_compiler_codesign/benchmark/automotive/basicmath/basicmath_small_O3_clean.s:2297
   10588:	000d8693          	mv	a3,s11
/home/allenjin/Codes/egraph_isa_compiler_codesign/benchmark/automotive/basicmath/basicmath_small_O3_clean.s:2298
   1058c:	000a8513          	mv	a0,s5
/home/allenjin/Codes/egraph_isa_compiler_codesign/benchmark/automotive/basicmath/basicmath_small_O3_clean.s:2299
   10590:	00190913          	addi	s2,s2,1
/home/allenjin/Codes/egraph_isa_compiler_codesign/benchmark/automotive/basicmath/basicmath_small_O3_clean.s:2300
   10594:	00058413          	mv	s0,a1
/home/allenjin/Codes/egraph_isa_compiler_codesign/benchmark/automotive/basicmath/basicmath_small_O3_clean.s:2301
   10598:	00898993          	addi	s3,s3,8
/home/allenjin/Codes/egraph_isa_compiler_codesign/benchmark/automotive/basicmath/basicmath_small_O3_clean.s:2303
   1059c:	00009097          	auipc	ra,0x9
/home/allenjin/Codes/egraph_isa_compiler_codesign/benchmark/automotive/basicmath/basicmath_small_O3_clean.s:2304
   105a0:	cb0080e7          	jalr	-848(ra) # 1924c <printf>
/home/allenjin/Codes/egraph_isa_compiler_codesign/benchmark/automotive/basicmath/basicmath_small_O3_clean.s:2305
   105a4:	fb991ee3          	bne	s2,s9,10560 <main+0x474>
/home/allenjin/Codes/egraph_isa_compiler_codesign/benchmark/automotive/basicmath/basicmath_small_O3_clean.s:2306
   105a8:	01812983          	lw	s3,24(sp)
/home/allenjin/Codes/egraph_isa_compiler_codesign/benchmark/automotive/basicmath/basicmath_small_O3_clean.s:2307
   105ac:	02012903          	lw	s2,32(sp)
/home/allenjin/Codes/egraph_isa_compiler_codesign/benchmark/automotive/basicmath/basicmath_small_O3_clean.s:2309
   105b0:	00a00513          	li	a0,10
/home/allenjin/Codes/egraph_isa_compiler_codesign/benchmark/automotive/basicmath/basicmath_small_O3_clean.s:2311
   105b4:	00009097          	auipc	ra,0x9
/home/allenjin/Codes/egraph_isa_compiler_codesign/benchmark/automotive/basicmath/basicmath_small_O3_clean.s:2312
   105b8:	cf8080e7          	jalr	-776(ra) # 192ac <putchar>
/home/allenjin/Codes/egraph_isa_compiler_codesign/benchmark/automotive/basicmath/basicmath_small_O3_clean.s:2313
   105bc:	03c12603          	lw	a2,60(sp)
/home/allenjin/Codes/egraph_isa_compiler_codesign/benchmark/automotive/basicmath/basicmath_small_O3_clean.s:2314
   105c0:	04012683          	lw	a3,64(sp)
/home/allenjin/Codes/egraph_isa_compiler_codesign/benchmark/automotive/basicmath/basicmath_small_O3_clean.s:2315
   105c4:	00098513          	mv	a0,s3
/home/allenjin/Codes/egraph_isa_compiler_codesign/benchmark/automotive/basicmath/basicmath_small_O3_clean.s:2316
   105c8:	00090593          	mv	a1,s2
/home/allenjin/Codes/egraph_isa_compiler_codesign/benchmark/automotive/basicmath/basicmath_small_O3_clean.s:2318
   105cc:	00003097          	auipc	ra,0x3
/home/allenjin/Codes/egraph_isa_compiler_codesign/benchmark/automotive/basicmath/basicmath_small_O3_clean.s:2319
   105d0:	538080e7          	jalr	1336(ra) # 13b04 <__subdf3>
/home/allenjin/Codes/egraph_isa_compiler_codesign/benchmark/automotive/basicmath/basicmath_small_O3_clean.s:2320
   105d4:	fffa0a13          	addi	s4,s4,-1
/home/allenjin/Codes/egraph_isa_compiler_codesign/benchmark/automotive/basicmath/basicmath_small_O3_clean.s:2321
   105d8:	00050993          	mv	s3,a0
/home/allenjin/Codes/egraph_isa_compiler_codesign/benchmark/automotive/basicmath/basicmath_small_O3_clean.s:2322
   105dc:	00058913          	mv	s2,a1
/home/allenjin/Codes/egraph_isa_compiler_codesign/benchmark/automotive/basicmath/basicmath_small_O3_clean.s:2323
   105e0:	f20a10e3          	bnez	s4,10500 <main+0x414>
/home/allenjin/Codes/egraph_isa_compiler_codesign/benchmark/automotive/basicmath/basicmath_small_O3_clean.s:2324
   105e4:	04812603          	lw	a2,72(sp)
/home/allenjin/Codes/egraph_isa_compiler_codesign/benchmark/automotive/basicmath/basicmath_small_O3_clean.s:2325
   105e8:	04c12683          	lw	a3,76(sp)
/home/allenjin/Codes/egraph_isa_compiler_codesign/benchmark/automotive/basicmath/basicmath_small_O3_clean.s:2326
   105ec:	000b8513          	mv	a0,s7
/home/allenjin/Codes/egraph_isa_compiler_codesign/benchmark/automotive/basicmath/basicmath_small_O3_clean.s:2327
   105f0:	000c0593          	mv	a1,s8
/home/allenjin/Codes/egraph_isa_compiler_codesign/benchmark/automotive/basicmath/basicmath_small_O3_clean.s:2329
   105f4:	00002097          	auipc	ra,0x2
/home/allenjin/Codes/egraph_isa_compiler_codesign/benchmark/automotive/basicmath/basicmath_small_O3_clean.s:2330
   105f8:	ec8080e7          	jalr	-312(ra) # 124bc <__adddf3>
/home/allenjin/Codes/egraph_isa_compiler_codesign/benchmark/automotive/basicmath/basicmath_small_O3_clean.s:2331
   105fc:	04412783          	lw	a5,68(sp)
/home/allenjin/Codes/egraph_isa_compiler_codesign/benchmark/automotive/basicmath/basicmath_small_O3_clean.s:2332
   10600:	00050b93          	mv	s7,a0
/home/allenjin/Codes/egraph_isa_compiler_codesign/benchmark/automotive/basicmath/basicmath_small_O3_clean.s:2333
   10604:	00058c13          	mv	s8,a1
/home/allenjin/Codes/egraph_isa_compiler_codesign/benchmark/automotive/basicmath/basicmath_small_O3_clean.s:2334
   10608:	fff78793          	addi	a5,a5,-1
/home/allenjin/Codes/egraph_isa_compiler_codesign/benchmark/automotive/basicmath/basicmath_small_O3_clean.s:2335
   1060c:	04f12223          	sw	a5,68(sp)
/home/allenjin/Codes/egraph_isa_compiler_codesign/benchmark/automotive/basicmath/basicmath_small_O3_clean.s:2336
   10610:	ee0792e3          	bnez	a5,104f4 <main+0x408>
/home/allenjin/Codes/egraph_isa_compiler_codesign/benchmark/automotive/basicmath/basicmath_small_O3_clean.s:2337
   10614:	03412503          	lw	a0,52(sp)
/home/allenjin/Codes/egraph_isa_compiler_codesign/benchmark/automotive/basicmath/basicmath_small_O3_clean.s:2338
   10618:	03812583          	lw	a1,56(sp)
/home/allenjin/Codes/egraph_isa_compiler_codesign/benchmark/automotive/basicmath/basicmath_small_O3_clean.s:2339
   1061c:	06012603          	lw	a2,96(sp)
/home/allenjin/Codes/egraph_isa_compiler_codesign/benchmark/automotive/basicmath/basicmath_small_O3_clean.s:2340
   10620:	06412683          	lw	a3,100(sp)
/home/allenjin/Codes/egraph_isa_compiler_codesign/benchmark/automotive/basicmath/basicmath_small_O3_clean.s:2341
   10624:	07c12983          	lw	s3,124(sp)
/home/allenjin/Codes/egraph_isa_compiler_codesign/benchmark/automotive/basicmath/basicmath_small_O3_clean.s:2343
   10628:	00003097          	auipc	ra,0x3
/home/allenjin/Codes/egraph_isa_compiler_codesign/benchmark/automotive/basicmath/basicmath_small_O3_clean.s:2344
   1062c:	4dc080e7          	jalr	1244(ra) # 13b04 <__subdf3>
/home/allenjin/Codes/egraph_isa_compiler_codesign/benchmark/automotive/basicmath/basicmath_small_O3_clean.s:2345
   10630:	fff98993          	addi	s3,s3,-1
/home/allenjin/Codes/egraph_isa_compiler_codesign/benchmark/automotive/basicmath/basicmath_small_O3_clean.s:2346
   10634:	02a12a23          	sw	a0,52(sp)
/home/allenjin/Codes/egraph_isa_compiler_codesign/benchmark/automotive/basicmath/basicmath_small_O3_clean.s:2347
   10638:	02b12c23          	sw	a1,56(sp)
/home/allenjin/Codes/egraph_isa_compiler_codesign/benchmark/automotive/basicmath/basicmath_small_O3_clean.s:2348
   1063c:	ea0992e3          	bnez	s3,104e0 <main+0x3f4>
/home/allenjin/Codes/egraph_isa_compiler_codesign/benchmark/automotive/basicmath/basicmath_small_O3_clean.s:2349
   10640:	07812a03          	lw	s4,120(sp)
/home/allenjin/Codes/egraph_isa_compiler_codesign/benchmark/automotive/basicmath/basicmath_small_O3_clean.s:2350
   10644:	02c12503          	lw	a0,44(sp)
/home/allenjin/Codes/egraph_isa_compiler_codesign/benchmark/automotive/basicmath/basicmath_small_O3_clean.s:2351
   10648:	03012583          	lw	a1,48(sp)
/home/allenjin/Codes/egraph_isa_compiler_codesign/benchmark/automotive/basicmath/basicmath_small_O3_clean.s:2352
   1064c:	06812683          	lw	a3,104(sp)
/home/allenjin/Codes/egraph_isa_compiler_codesign/benchmark/automotive/basicmath/basicmath_small_O3_clean.s:2353
   10650:	06c12b83          	lw	s7,108(sp)
/home/allenjin/Codes/egraph_isa_compiler_codesign/benchmark/automotive/basicmath/basicmath_small_O3_clean.s:2354
   10654:	000a0613          	mv	a2,s4
/home/allenjin/Codes/egraph_isa_compiler_codesign/benchmark/automotive/basicmath/basicmath_small_O3_clean.s:2356
   10658:	00002097          	auipc	ra,0x2
/home/allenjin/Codes/egraph_isa_compiler_codesign/benchmark/automotive/basicmath/basicmath_small_O3_clean.s:2357
   1065c:	e64080e7          	jalr	-412(ra) # 124bc <__adddf3>
/home/allenjin/Codes/egraph_isa_compiler_codesign/benchmark/automotive/basicmath/basicmath_small_O3_clean.s:2358
   10660:	fffb8b93          	addi	s7,s7,-1
/home/allenjin/Codes/egraph_isa_compiler_codesign/benchmark/automotive/basicmath/basicmath_small_O3_clean.s:2359
   10664:	02a12623          	sw	a0,44(sp)
/home/allenjin/Codes/egraph_isa_compiler_codesign/benchmark/automotive/basicmath/basicmath_small_O3_clean.s:2360
   10668:	02b12823          	sw	a1,48(sp)
/home/allenjin/Codes/egraph_isa_compiler_codesign/benchmark/automotive/basicmath/basicmath_small_O3_clean.s:2361
   1066c:	07012903          	lw	s2,112(sp)
/home/allenjin/Codes/egraph_isa_compiler_codesign/benchmark/automotive/basicmath/basicmath_small_O3_clean.s:2362
   10670:	07412d83          	lw	s11,116(sp)
/home/allenjin/Codes/egraph_isa_compiler_codesign/benchmark/automotive/basicmath/basicmath_small_O3_clean.s:2363
   10674:	e40b94e3          	bnez	s7,104bc <main+0x3d0>
/home/allenjin/Codes/egraph_isa_compiler_codesign/benchmark/automotive/basicmath/basicmath_small_O3_clean.s:2364
   10678:	00026537          	lui	a0,0x26
/home/allenjin/Codes/egraph_isa_compiler_codesign/benchmark/automotive/basicmath/basicmath_small_O3_clean.s:2365
   1067c:	c4050513          	addi	a0,a0,-960 # 25c40 <__floatsitf+0x18c>
/home/allenjin/Codes/egraph_isa_compiler_codesign/benchmark/automotive/basicmath/basicmath_small_O3_clean.s:2366
   10680:	00026a37          	lui	s4,0x26
/home/allenjin/Codes/egraph_isa_compiler_codesign/benchmark/automotive/basicmath/basicmath_small_O3_clean.s:2368
   10684:	00009097          	auipc	ra,0x9
/home/allenjin/Codes/egraph_isa_compiler_codesign/benchmark/automotive/basicmath/basicmath_small_O3_clean.s:2369
   10688:	d24080e7          	jalr	-732(ra) # 193a8 <puts>
/home/allenjin/Codes/egraph_isa_compiler_codesign/benchmark/automotive/basicmath/basicmath_small_O3_clean.s:2370
   1068c:	c68a0a13          	addi	s4,s4,-920 # 25c68 <__floatsitf+0x1b4>
/home/allenjin/Codes/egraph_isa_compiler_codesign/benchmark/automotive/basicmath/basicmath_small_O3_clean.s:2371
   10690:	00000a93          	li	s5,0
/home/allenjin/Codes/egraph_isa_compiler_codesign/benchmark/automotive/basicmath/basicmath_small_O3_clean.s:2372
   10694:	3e900b13          	li	s6,1001
/home/allenjin/Codes/egraph_isa_compiler_codesign/benchmark/automotive/basicmath/basicmath_small_O3_clean.s:2374
   10698:	000a8693          	mv	a3,s5
/home/allenjin/Codes/egraph_isa_compiler_codesign/benchmark/automotive/basicmath/basicmath_small_O3_clean.s:2375
   1069c:	00000913          	li	s2,0
/home/allenjin/Codes/egraph_isa_compiler_codesign/benchmark/automotive/basicmath/basicmath_small_O3_clean.s:2376
   106a0:	00000793          	li	a5,0
/home/allenjin/Codes/egraph_isa_compiler_codesign/benchmark/automotive/basicmath/basicmath_small_O3_clean.s:2377
   106a4:	02000993          	li	s3,32
/home/allenjin/Codes/egraph_isa_compiler_codesign/benchmark/automotive/basicmath/basicmath_small_O3_clean.s:2379
   106a8:	01e6d613          	srli	a2,a3,0x1e
/home/allenjin/Codes/egraph_isa_compiler_codesign/benchmark/automotive/basicmath/basicmath_small_O3_clean.s:2380
   106ac:	00291713          	slli	a4,s2,0x2
/home/allenjin/Codes/egraph_isa_compiler_codesign/benchmark/automotive/basicmath/basicmath_small_O3_clean.s:2381
   106b0:	00279793          	slli	a5,a5,0x2
/home/allenjin/Codes/egraph_isa_compiler_codesign/benchmark/automotive/basicmath/basicmath_small_O3_clean.s:2382
   106b4:	00f607b3          	add	a5,a2,a5
/home/allenjin/Codes/egraph_isa_compiler_codesign/benchmark/automotive/basicmath/basicmath_small_O3_clean.s:2383
   106b8:	00170713          	addi	a4,a4,1
/home/allenjin/Codes/egraph_isa_compiler_codesign/benchmark/automotive/basicmath/basicmath_small_O3_clean.s:2384
   106bc:	fff98993          	addi	s3,s3,-1
/home/allenjin/Codes/egraph_isa_compiler_codesign/benchmark/automotive/basicmath/basicmath_small_O3_clean.s:2385
   106c0:	00269693          	slli	a3,a3,0x2
/home/allenjin/Codes/egraph_isa_compiler_codesign/benchmark/automotive/basicmath/basicmath_small_O3_clean.s:2386
   106c4:	00191913          	slli	s2,s2,0x1
/home/allenjin/Codes/egraph_isa_compiler_codesign/benchmark/automotive/basicmath/basicmath_small_O3_clean.s:2387
   106c8:	00e7e663          	bltu	a5,a4,106d4 <main+0x5e8>
/home/allenjin/Codes/egraph_isa_compiler_codesign/benchmark/automotive/basicmath/basicmath_small_O3_clean.s:2388
   106cc:	40e787b3          	sub	a5,a5,a4
/home/allenjin/Codes/egraph_isa_compiler_codesign/benchmark/automotive/basicmath/basicmath_small_O3_clean.s:2389
   106d0:	00190913          	addi	s2,s2,1
/home/allenjin/Codes/egraph_isa_compiler_codesign/benchmark/automotive/basicmath/basicmath_small_O3_clean.s:2391
   106d4:	fc099ae3          	bnez	s3,106a8 <main+0x5bc>
/home/allenjin/Codes/egraph_isa_compiler_codesign/benchmark/automotive/basicmath/basicmath_small_O3_clean.s:2392
   106d8:	00090513          	mv	a0,s2
/home/allenjin/Codes/egraph_isa_compiler_codesign/benchmark/automotive/basicmath/basicmath_small_O3_clean.s:2394
   106dc:	00004097          	auipc	ra,0x4
/home/allenjin/Codes/egraph_isa_compiler_codesign/benchmark/automotive/basicmath/basicmath_small_O3_clean.s:2395
   106e0:	cb0080e7          	jalr	-848(ra) # 1438c <__floatunsidf>
/home/allenjin/Codes/egraph_isa_compiler_codesign/benchmark/automotive/basicmath/basicmath_small_O3_clean.s:2396
   106e4:	00050613          	mv	a2,a0
/home/allenjin/Codes/egraph_isa_compiler_codesign/benchmark/automotive/basicmath/basicmath_small_O3_clean.s:2397
   106e8:	00058693          	mv	a3,a1
/home/allenjin/Codes/egraph_isa_compiler_codesign/benchmark/automotive/basicmath/basicmath_small_O3_clean.s:2398
   106ec:	00048513          	mv	a0,s1
/home/allenjin/Codes/egraph_isa_compiler_codesign/benchmark/automotive/basicmath/basicmath_small_O3_clean.s:2399
   106f0:	00040593          	mv	a1,s0
/home/allenjin/Codes/egraph_isa_compiler_codesign/benchmark/automotive/basicmath/basicmath_small_O3_clean.s:2401
   106f4:	00002097          	auipc	ra,0x2
/home/allenjin/Codes/egraph_isa_compiler_codesign/benchmark/automotive/basicmath/basicmath_small_O3_clean.s:2402
   106f8:	dc8080e7          	jalr	-568(ra) # 124bc <__adddf3>
/home/allenjin/Codes/egraph_isa_compiler_codesign/benchmark/automotive/basicmath/basicmath_small_O3_clean.s:2403
   106fc:	00050493          	mv	s1,a0
/home/allenjin/Codes/egraph_isa_compiler_codesign/benchmark/automotive/basicmath/basicmath_small_O3_clean.s:2404
   10700:	00058413          	mv	s0,a1
/home/allenjin/Codes/egraph_isa_compiler_codesign/benchmark/automotive/basicmath/basicmath_small_O3_clean.s:2405
   10704:	00090613          	mv	a2,s2
/home/allenjin/Codes/egraph_isa_compiler_codesign/benchmark/automotive/basicmath/basicmath_small_O3_clean.s:2406
   10708:	000a8593          	mv	a1,s5
/home/allenjin/Codes/egraph_isa_compiler_codesign/benchmark/automotive/basicmath/basicmath_small_O3_clean.s:2407
   1070c:	000a0513          	mv	a0,s4
/home/allenjin/Codes/egraph_isa_compiler_codesign/benchmark/automotive/basicmath/basicmath_small_O3_clean.s:2408
   10710:	001a8a93          	addi	s5,s5,1
/home/allenjin/Codes/egraph_isa_compiler_codesign/benchmark/automotive/basicmath/basicmath_small_O3_clean.s:2410
   10714:	00009097          	auipc	ra,0x9
/home/allenjin/Codes/egraph_isa_compiler_codesign/benchmark/automotive/basicmath/basicmath_small_O3_clean.s:2411
   10718:	b38080e7          	jalr	-1224(ra) # 1924c <printf>
/home/allenjin/Codes/egraph_isa_compiler_codesign/benchmark/automotive/basicmath/basicmath_small_O3_clean.s:2412
   1071c:	f76a9ee3          	bne	s5,s6,10698 <main+0x5ac>
/home/allenjin/Codes/egraph_isa_compiler_codesign/benchmark/automotive/basicmath/basicmath_small_O3_clean.s:2413
   10720:	3fed07b7          	lui	a5,0x3fed0
/home/allenjin/Codes/egraph_isa_compiler_codesign/benchmark/automotive/basicmath/basicmath_small_O3_clean.s:2414
   10724:	16978793          	addi	a5,a5,361 # 3fed0169 <__BSS_END__+0x3fea860d>
/home/allenjin/Codes/egraph_isa_compiler_codesign/benchmark/automotive/basicmath/basicmath_small_O3_clean.s:2415
   10728:	00000913          	li	s2,0
/home/allenjin/Codes/egraph_isa_compiler_codesign/benchmark/automotive/basicmath/basicmath_small_O3_clean.s:2416
   1072c:	02000693          	li	a3,32
/home/allenjin/Codes/egraph_isa_compiler_codesign/benchmark/automotive/basicmath/basicmath_small_O3_clean.s:2418
   10730:	01e7d613          	srli	a2,a5,0x1e
/home/allenjin/Codes/egraph_isa_compiler_codesign/benchmark/automotive/basicmath/basicmath_small_O3_clean.s:2419
   10734:	00291713          	slli	a4,s2,0x2
/home/allenjin/Codes/egraph_isa_compiler_codesign/benchmark/automotive/basicmath/basicmath_small_O3_clean.s:2420
   10738:	00299993          	slli	s3,s3,0x2
/home/allenjin/Codes/egraph_isa_compiler_codesign/benchmark/automotive/basicmath/basicmath_small_O3_clean.s:2421
   1073c:	013609b3          	add	s3,a2,s3
/home/allenjin/Codes/egraph_isa_compiler_codesign/benchmark/automotive/basicmath/basicmath_small_O3_clean.s:2422
   10740:	00170713          	addi	a4,a4,1
/home/allenjin/Codes/egraph_isa_compiler_codesign/benchmark/automotive/basicmath/basicmath_small_O3_clean.s:2423
   10744:	fff68693          	addi	a3,a3,-1
/home/allenjin/Codes/egraph_isa_compiler_codesign/benchmark/automotive/basicmath/basicmath_small_O3_clean.s:2424
   10748:	00279793          	slli	a5,a5,0x2
/home/allenjin/Codes/egraph_isa_compiler_codesign/benchmark/automotive/basicmath/basicmath_small_O3_clean.s:2425
   1074c:	00191913          	slli	s2,s2,0x1
/home/allenjin/Codes/egraph_isa_compiler_codesign/benchmark/automotive/basicmath/basicmath_small_O3_clean.s:2426
   10750:	00e9e663          	bltu	s3,a4,1075c <main+0x670>
/home/allenjin/Codes/egraph_isa_compiler_codesign/benchmark/automotive/basicmath/basicmath_small_O3_clean.s:2427
   10754:	40e989b3          	sub	s3,s3,a4
/home/allenjin/Codes/egraph_isa_compiler_codesign/benchmark/automotive/basicmath/basicmath_small_O3_clean.s:2428
   10758:	00190913          	addi	s2,s2,1
/home/allenjin/Codes/egraph_isa_compiler_codesign/benchmark/automotive/basicmath/basicmath_small_O3_clean.s:2430
   1075c:	fc069ae3          	bnez	a3,10730 <main+0x644>
/home/allenjin/Codes/egraph_isa_compiler_codesign/benchmark/automotive/basicmath/basicmath_small_O3_clean.s:2431
   10760:	00090513          	mv	a0,s2
/home/allenjin/Codes/egraph_isa_compiler_codesign/benchmark/automotive/basicmath/basicmath_small_O3_clean.s:2433
   10764:	00004097          	auipc	ra,0x4
/home/allenjin/Codes/egraph_isa_compiler_codesign/benchmark/automotive/basicmath/basicmath_small_O3_clean.s:2434
   10768:	c28080e7          	jalr	-984(ra) # 1438c <__floatunsidf>
/home/allenjin/Codes/egraph_isa_compiler_codesign/benchmark/automotive/basicmath/basicmath_small_O3_clean.s:2435
   1076c:	00040693          	mv	a3,s0
/home/allenjin/Codes/egraph_isa_compiler_codesign/benchmark/automotive/basicmath/basicmath_small_O3_clean.s:2436
   10770:	00048613          	mv	a2,s1
/home/allenjin/Codes/egraph_isa_compiler_codesign/benchmark/automotive/basicmath/basicmath_small_O3_clean.s:2438
   10774:	00002097          	auipc	ra,0x2
/home/allenjin/Codes/egraph_isa_compiler_codesign/benchmark/automotive/basicmath/basicmath_small_O3_clean.s:2439
   10778:	d48080e7          	jalr	-696(ra) # 124bc <__adddf3>
/home/allenjin/Codes/egraph_isa_compiler_codesign/benchmark/automotive/basicmath/basicmath_small_O3_clean.s:2440
   1077c:	00050493          	mv	s1,a0
/home/allenjin/Codes/egraph_isa_compiler_codesign/benchmark/automotive/basicmath/basicmath_small_O3_clean.s:2441
   10780:	00058413          	mv	s0,a1
/home/allenjin/Codes/egraph_isa_compiler_codesign/benchmark/automotive/basicmath/basicmath_small_O3_clean.s:2442
   10784:	00026537          	lui	a0,0x26
/home/allenjin/Codes/egraph_isa_compiler_codesign/benchmark/automotive/basicmath/basicmath_small_O3_clean.s:2443
   10788:	3fed05b7          	lui	a1,0x3fed0
/home/allenjin/Codes/egraph_isa_compiler_codesign/benchmark/automotive/basicmath/basicmath_small_O3_clean.s:2444
   1078c:	00090613          	mv	a2,s2
/home/allenjin/Codes/egraph_isa_compiler_codesign/benchmark/automotive/basicmath/basicmath_small_O3_clean.s:2445
   10790:	16958593          	addi	a1,a1,361 # 3fed0169 <__BSS_END__+0x3fea860d>
/home/allenjin/Codes/egraph_isa_compiler_codesign/benchmark/automotive/basicmath/basicmath_small_O3_clean.s:2446
   10794:	c7c50513          	addi	a0,a0,-900 # 25c7c <__floatsitf+0x1c8>
/home/allenjin/Codes/egraph_isa_compiler_codesign/benchmark/automotive/basicmath/basicmath_small_O3_clean.s:2448
   10798:	00009097          	auipc	ra,0x9
/home/allenjin/Codes/egraph_isa_compiler_codesign/benchmark/automotive/basicmath/basicmath_small_O3_clean.s:2449
   1079c:	ab4080e7          	jalr	-1356(ra) # 1924c <printf>
/home/allenjin/Codes/egraph_isa_compiler_codesign/benchmark/automotive/basicmath/basicmath_small_O3_clean.s:2450
   107a0:	00026537          	lui	a0,0x26
/home/allenjin/Codes/egraph_isa_compiler_codesign/benchmark/automotive/basicmath/basicmath_small_O3_clean.s:2451
   107a4:	c9050513          	addi	a0,a0,-880 # 25c90 <__floatsitf+0x1dc>
/home/allenjin/Codes/egraph_isa_compiler_codesign/benchmark/automotive/basicmath/basicmath_small_O3_clean.s:2453
   107a8:	00009097          	auipc	ra,0x9
/home/allenjin/Codes/egraph_isa_compiler_codesign/benchmark/automotive/basicmath/basicmath_small_O3_clean.s:2454
   107ac:	c00080e7          	jalr	-1024(ra) # 193a8 <puts>
/home/allenjin/Codes/egraph_isa_compiler_codesign/benchmark/automotive/basicmath/basicmath_small_O3_clean.s:2455
   107b0:	00027737          	lui	a4,0x27
/home/allenjin/Codes/egraph_isa_compiler_codesign/benchmark/automotive/basicmath/basicmath_small_O3_clean.s:2456
   107b4:	000277b7          	lui	a5,0x27
/home/allenjin/Codes/egraph_isa_compiler_codesign/benchmark/automotive/basicmath/basicmath_small_O3_clean.s:2457
   107b8:	74472983          	lw	s3,1860(a4) # 27744 <__SDATA_BEGIN__+0x8c>
/home/allenjin/Codes/egraph_isa_compiler_codesign/benchmark/automotive/basicmath/basicmath_small_O3_clean.s:2458
   107bc:	7dc7aa83          	lw	s5,2012(a5) # 277dc <__SDATA_BEGIN__+0x124>
/home/allenjin/Codes/egraph_isa_compiler_codesign/benchmark/automotive/basicmath/basicmath_small_O3_clean.s:2459
   107c0:	000276b7          	lui	a3,0x27
/home/allenjin/Codes/egraph_isa_compiler_codesign/benchmark/automotive/basicmath/basicmath_small_O3_clean.s:2460
   107c4:	74072903          	lw	s2,1856(a4)
/home/allenjin/Codes/egraph_isa_compiler_codesign/benchmark/automotive/basicmath/basicmath_small_O3_clean.s:2461
   107c8:	7d87aa03          	lw	s4,2008(a5)
/home/allenjin/Codes/egraph_isa_compiler_codesign/benchmark/automotive/basicmath/basicmath_small_O3_clean.s:2462
   107cc:	7386ad03          	lw	s10,1848(a3) # 27738 <__SDATA_BEGIN__+0x80>
/home/allenjin/Codes/egraph_isa_compiler_codesign/benchmark/automotive/basicmath/basicmath_small_O3_clean.s:2463
   107d0:	73c6ad83          	lw	s11,1852(a3)
/home/allenjin/Codes/egraph_isa_compiler_codesign/benchmark/automotive/basicmath/basicmath_small_O3_clean.s:2464
   107d4:	00026bb7          	lui	s7,0x26
/home/allenjin/Codes/egraph_isa_compiler_codesign/benchmark/automotive/basicmath/basicmath_small_O3_clean.s:2465
   107d8:	01312e23          	sw	s3,28(sp)
/home/allenjin/Codes/egraph_isa_compiler_codesign/benchmark/automotive/basicmath/basicmath_small_O3_clean.s:2466
   107dc:	03512223          	sw	s5,36(sp)
/home/allenjin/Codes/egraph_isa_compiler_codesign/benchmark/automotive/basicmath/basicmath_small_O3_clean.s:2467
   107e0:	cb8b8b93          	addi	s7,s7,-840 # 25cb8 <__floatsitf+0x204>
/home/allenjin/Codes/egraph_isa_compiler_codesign/benchmark/automotive/basicmath/basicmath_small_O3_clean.s:2468
   107e4:	00000c13          	li	s8,0
/home/allenjin/Codes/egraph_isa_compiler_codesign/benchmark/automotive/basicmath/basicmath_small_O3_clean.s:2469
   107e8:	00000b13          	li	s6,0
/home/allenjin/Codes/egraph_isa_compiler_codesign/benchmark/automotive/basicmath/basicmath_small_O3_clean.s:2470
   107ec:	01212c23          	sw	s2,24(sp)
/home/allenjin/Codes/egraph_isa_compiler_codesign/benchmark/automotive/basicmath/basicmath_small_O3_clean.s:2471
   107f0:	16900993          	li	s3,361
/home/allenjin/Codes/egraph_isa_compiler_codesign/benchmark/automotive/basicmath/basicmath_small_O3_clean.s:2472
   107f4:	03412023          	sw	s4,32(sp)
/home/allenjin/Codes/egraph_isa_compiler_codesign/benchmark/automotive/basicmath/basicmath_small_O3_clean.s:2473
   107f8:	00048c93          	mv	s9,s1
/home/allenjin/Codes/egraph_isa_compiler_codesign/benchmark/automotive/basicmath/basicmath_small_O3_clean.s:2474
   107fc:	00040a93          	mv	s5,s0
/home/allenjin/Codes/egraph_isa_compiler_codesign/benchmark/automotive/basicmath/basicmath_small_O3_clean.s:2476
   10800:	01812603          	lw	a2,24(sp)
/home/allenjin/Codes/egraph_isa_compiler_codesign/benchmark/automotive/basicmath/basicmath_small_O3_clean.s:2477
   10804:	01c12683          	lw	a3,28(sp)
/home/allenjin/Codes/egraph_isa_compiler_codesign/benchmark/automotive/basicmath/basicmath_small_O3_clean.s:2478
   10808:	000c0513          	mv	a0,s8
/home/allenjin/Codes/egraph_isa_compiler_codesign/benchmark/automotive/basicmath/basicmath_small_O3_clean.s:2479
   1080c:	000b0593          	mv	a1,s6
/home/allenjin/Codes/egraph_isa_compiler_codesign/benchmark/automotive/basicmath/basicmath_small_O3_clean.s:2481
   10810:	00003097          	auipc	ra,0x3
/home/allenjin/Codes/egraph_isa_compiler_codesign/benchmark/automotive/basicmath/basicmath_small_O3_clean.s:2482
   10814:	cfc080e7          	jalr	-772(ra) # 1350c <__muldf3>
/home/allenjin/Codes/egraph_isa_compiler_codesign/benchmark/automotive/basicmath/basicmath_small_O3_clean.s:2483
   10818:	02012603          	lw	a2,32(sp)
/home/allenjin/Codes/egraph_isa_compiler_codesign/benchmark/automotive/basicmath/basicmath_small_O3_clean.s:2484
   1081c:	02412683          	lw	a3,36(sp)
/home/allenjin/Codes/egraph_isa_compiler_codesign/benchmark/automotive/basicmath/basicmath_small_O3_clean.s:2485
   10820:	fff98993          	addi	s3,s3,-1
/home/allenjin/Codes/egraph_isa_compiler_codesign/benchmark/automotive/basicmath/basicmath_small_O3_clean.s:2487
   10824:	00002097          	auipc	ra,0x2
/home/allenjin/Codes/egraph_isa_compiler_codesign/benchmark/automotive/basicmath/basicmath_small_O3_clean.s:2488
   10828:	3ec080e7          	jalr	1004(ra) # 12c10 <__divdf3>
/home/allenjin/Codes/egraph_isa_compiler_codesign/benchmark/automotive/basicmath/basicmath_small_O3_clean.s:2489
   1082c:	00050613          	mv	a2,a0
/home/allenjin/Codes/egraph_isa_compiler_codesign/benchmark/automotive/basicmath/basicmath_small_O3_clean.s:2490
   10830:	00058693          	mv	a3,a1
/home/allenjin/Codes/egraph_isa_compiler_codesign/benchmark/automotive/basicmath/basicmath_small_O3_clean.s:2491
   10834:	00050413          	mv	s0,a0
/home/allenjin/Codes/egraph_isa_compiler_codesign/benchmark/automotive/basicmath/basicmath_small_O3_clean.s:2492
   10838:	00058493          	mv	s1,a1
/home/allenjin/Codes/egraph_isa_compiler_codesign/benchmark/automotive/basicmath/basicmath_small_O3_clean.s:2493
   1083c:	000c8513          	mv	a0,s9
/home/allenjin/Codes/egraph_isa_compiler_codesign/benchmark/automotive/basicmath/basicmath_small_O3_clean.s:2494
   10840:	000a8593          	mv	a1,s5
/home/allenjin/Codes/egraph_isa_compiler_codesign/benchmark/automotive/basicmath/basicmath_small_O3_clean.s:2496
   10844:	00002097          	auipc	ra,0x2
/home/allenjin/Codes/egraph_isa_compiler_codesign/benchmark/automotive/basicmath/basicmath_small_O3_clean.s:2497
   10848:	c78080e7          	jalr	-904(ra) # 124bc <__adddf3>
/home/allenjin/Codes/egraph_isa_compiler_codesign/benchmark/automotive/basicmath/basicmath_small_O3_clean.s:2498
   1084c:	000c0613          	mv	a2,s8
/home/allenjin/Codes/egraph_isa_compiler_codesign/benchmark/automotive/basicmath/basicmath_small_O3_clean.s:2499
   10850:	000b0693          	mv	a3,s6
/home/allenjin/Codes/egraph_isa_compiler_codesign/benchmark/automotive/basicmath/basicmath_small_O3_clean.s:2500
   10854:	00040713          	mv	a4,s0
/home/allenjin/Codes/egraph_isa_compiler_codesign/benchmark/automotive/basicmath/basicmath_small_O3_clean.s:2501
   10858:	00048793          	mv	a5,s1
/home/allenjin/Codes/egraph_isa_compiler_codesign/benchmark/automotive/basicmath/basicmath_small_O3_clean.s:2502
   1085c:	00050c93          	mv	s9,a0
/home/allenjin/Codes/egraph_isa_compiler_codesign/benchmark/automotive/basicmath/basicmath_small_O3_clean.s:2503
   10860:	000b8513          	mv	a0,s7
/home/allenjin/Codes/egraph_isa_compiler_codesign/benchmark/automotive/basicmath/basicmath_small_O3_clean.s:2504
   10864:	00058a93          	mv	s5,a1
/home/allenjin/Codes/egraph_isa_compiler_codesign/benchmark/automotive/basicmath/basicmath_small_O3_clean.s:2506
   10868:	00009097          	auipc	ra,0x9
/home/allenjin/Codes/egraph_isa_compiler_codesign/benchmark/automotive/basicmath/basicmath_small_O3_clean.s:2507
   1086c:	9e4080e7          	jalr	-1564(ra) # 1924c <printf>
/home/allenjin/Codes/egraph_isa_compiler_codesign/benchmark/automotive/basicmath/basicmath_small_O3_clean.s:2508
   10870:	000c0513          	mv	a0,s8
/home/allenjin/Codes/egraph_isa_compiler_codesign/benchmark/automotive/basicmath/basicmath_small_O3_clean.s:2509
   10874:	000b0593          	mv	a1,s6
/home/allenjin/Codes/egraph_isa_compiler_codesign/benchmark/automotive/basicmath/basicmath_small_O3_clean.s:2510
   10878:	000d0613          	mv	a2,s10
/home/allenjin/Codes/egraph_isa_compiler_codesign/benchmark/automotive/basicmath/basicmath_small_O3_clean.s:2511
   1087c:	000d8693          	mv	a3,s11
/home/allenjin/Codes/egraph_isa_compiler_codesign/benchmark/automotive/basicmath/basicmath_small_O3_clean.s:2513
   10880:	00002097          	auipc	ra,0x2
/home/allenjin/Codes/egraph_isa_compiler_codesign/benchmark/automotive/basicmath/basicmath_small_O3_clean.s:2514
   10884:	c3c080e7          	jalr	-964(ra) # 124bc <__adddf3>
/home/allenjin/Codes/egraph_isa_compiler_codesign/benchmark/automotive/basicmath/basicmath_small_O3_clean.s:2515
   10888:	00050c13          	mv	s8,a0
/home/allenjin/Codes/egraph_isa_compiler_codesign/benchmark/automotive/basicmath/basicmath_small_O3_clean.s:2516
   1088c:	00058b13          	mv	s6,a1
/home/allenjin/Codes/egraph_isa_compiler_codesign/benchmark/automotive/basicmath/basicmath_small_O3_clean.s:2517
   10890:	f60998e3          	bnez	s3,10800 <main+0x714>
/home/allenjin/Codes/egraph_isa_compiler_codesign/benchmark/automotive/basicmath/basicmath_small_O3_clean.s:2518
   10894:	00a00513          	li	a0,10
/home/allenjin/Codes/egraph_isa_compiler_codesign/benchmark/automotive/basicmath/basicmath_small_O3_clean.s:2519
   10898:	01c12983          	lw	s3,28(sp)
/home/allenjin/Codes/egraph_isa_compiler_codesign/benchmark/automotive/basicmath/basicmath_small_O3_clean.s:2520
   1089c:	01812903          	lw	s2,24(sp)
/home/allenjin/Codes/egraph_isa_compiler_codesign/benchmark/automotive/basicmath/basicmath_small_O3_clean.s:2521
   108a0:	02012a03          	lw	s4,32(sp)
/home/allenjin/Codes/egraph_isa_compiler_codesign/benchmark/automotive/basicmath/basicmath_small_O3_clean.s:2522
   108a4:	000a8413          	mv	s0,s5
/home/allenjin/Codes/egraph_isa_compiler_codesign/benchmark/automotive/basicmath/basicmath_small_O3_clean.s:2523
   108a8:	02412a83          	lw	s5,36(sp)
/home/allenjin/Codes/egraph_isa_compiler_codesign/benchmark/automotive/basicmath/basicmath_small_O3_clean.s:2525
   108ac:	00009097          	auipc	ra,0x9
/home/allenjin/Codes/egraph_isa_compiler_codesign/benchmark/automotive/basicmath/basicmath_small_O3_clean.s:2526
   108b0:	a00080e7          	jalr	-1536(ra) # 192ac <putchar>
/home/allenjin/Codes/egraph_isa_compiler_codesign/benchmark/automotive/basicmath/basicmath_small_O3_clean.s:2527
   108b4:	000277b7          	lui	a5,0x27
/home/allenjin/Codes/egraph_isa_compiler_codesign/benchmark/automotive/basicmath/basicmath_small_O3_clean.s:2528
   108b8:	7e07ad03          	lw	s10,2016(a5) # 277e0 <__SDATA_BEGIN__+0x128>
/home/allenjin/Codes/egraph_isa_compiler_codesign/benchmark/automotive/basicmath/basicmath_small_O3_clean.s:2529
   108bc:	7e47ad83          	lw	s11,2020(a5)
/home/allenjin/Codes/egraph_isa_compiler_codesign/benchmark/automotive/basicmath/basicmath_small_O3_clean.s:2530
   108c0:	00026bb7          	lui	s7,0x26
/home/allenjin/Codes/egraph_isa_compiler_codesign/benchmark/automotive/basicmath/basicmath_small_O3_clean.s:2531
   108c4:	01312e23          	sw	s3,28(sp)
/home/allenjin/Codes/egraph_isa_compiler_codesign/benchmark/automotive/basicmath/basicmath_small_O3_clean.s:2532
   108c8:	03512223          	sw	s5,36(sp)
/home/allenjin/Codes/egraph_isa_compiler_codesign/benchmark/automotive/basicmath/basicmath_small_O3_clean.s:2533
   108cc:	cd8b8b93          	addi	s7,s7,-808 # 25cd8 <__floatsitf+0x224>
/home/allenjin/Codes/egraph_isa_compiler_codesign/benchmark/automotive/basicmath/basicmath_small_O3_clean.s:2534
   108d0:	00000c13          	li	s8,0
/home/allenjin/Codes/egraph_isa_compiler_codesign/benchmark/automotive/basicmath/basicmath_small_O3_clean.s:2535
   108d4:	00000b13          	li	s6,0
/home/allenjin/Codes/egraph_isa_compiler_codesign/benchmark/automotive/basicmath/basicmath_small_O3_clean.s:2536
   108d8:	01212c23          	sw	s2,24(sp)
/home/allenjin/Codes/egraph_isa_compiler_codesign/benchmark/automotive/basicmath/basicmath_small_O3_clean.s:2537
   108dc:	16900993          	li	s3,361
/home/allenjin/Codes/egraph_isa_compiler_codesign/benchmark/automotive/basicmath/basicmath_small_O3_clean.s:2538
   108e0:	03412023          	sw	s4,32(sp)
/home/allenjin/Codes/egraph_isa_compiler_codesign/benchmark/automotive/basicmath/basicmath_small_O3_clean.s:2539
   108e4:	00040a93          	mv	s5,s0
/home/allenjin/Codes/egraph_isa_compiler_codesign/benchmark/automotive/basicmath/basicmath_small_O3_clean.s:2541
   108e8:	02012603          	lw	a2,32(sp)
/home/allenjin/Codes/egraph_isa_compiler_codesign/benchmark/automotive/basicmath/basicmath_small_O3_clean.s:2542
   108ec:	02412683          	lw	a3,36(sp)
/home/allenjin/Codes/egraph_isa_compiler_codesign/benchmark/automotive/basicmath/basicmath_small_O3_clean.s:2543
   108f0:	000c0513          	mv	a0,s8
/home/allenjin/Codes/egraph_isa_compiler_codesign/benchmark/automotive/basicmath/basicmath_small_O3_clean.s:2544
   108f4:	000b0593          	mv	a1,s6
/home/allenjin/Codes/egraph_isa_compiler_codesign/benchmark/automotive/basicmath/basicmath_small_O3_clean.s:2546
   108f8:	00003097          	auipc	ra,0x3
/home/allenjin/Codes/egraph_isa_compiler_codesign/benchmark/automotive/basicmath/basicmath_small_O3_clean.s:2547
   108fc:	c14080e7          	jalr	-1004(ra) # 1350c <__muldf3>
/home/allenjin/Codes/egraph_isa_compiler_codesign/benchmark/automotive/basicmath/basicmath_small_O3_clean.s:2548
   10900:	01812603          	lw	a2,24(sp)
/home/allenjin/Codes/egraph_isa_compiler_codesign/benchmark/automotive/basicmath/basicmath_small_O3_clean.s:2549
   10904:	01c12683          	lw	a3,28(sp)
/home/allenjin/Codes/egraph_isa_compiler_codesign/benchmark/automotive/basicmath/basicmath_small_O3_clean.s:2550
   10908:	fff98993          	addi	s3,s3,-1
/home/allenjin/Codes/egraph_isa_compiler_codesign/benchmark/automotive/basicmath/basicmath_small_O3_clean.s:2552
   1090c:	00002097          	auipc	ra,0x2
/home/allenjin/Codes/egraph_isa_compiler_codesign/benchmark/automotive/basicmath/basicmath_small_O3_clean.s:2553
   10910:	304080e7          	jalr	772(ra) # 12c10 <__divdf3>
/home/allenjin/Codes/egraph_isa_compiler_codesign/benchmark/automotive/basicmath/basicmath_small_O3_clean.s:2554
   10914:	00050613          	mv	a2,a0
/home/allenjin/Codes/egraph_isa_compiler_codesign/benchmark/automotive/basicmath/basicmath_small_O3_clean.s:2555
   10918:	00058693          	mv	a3,a1
/home/allenjin/Codes/egraph_isa_compiler_codesign/benchmark/automotive/basicmath/basicmath_small_O3_clean.s:2556
   1091c:	00050413          	mv	s0,a0
/home/allenjin/Codes/egraph_isa_compiler_codesign/benchmark/automotive/basicmath/basicmath_small_O3_clean.s:2557
   10920:	00058493          	mv	s1,a1
/home/allenjin/Codes/egraph_isa_compiler_codesign/benchmark/automotive/basicmath/basicmath_small_O3_clean.s:2558
   10924:	000c8513          	mv	a0,s9
/home/allenjin/Codes/egraph_isa_compiler_codesign/benchmark/automotive/basicmath/basicmath_small_O3_clean.s:2559
   10928:	000a8593          	mv	a1,s5
/home/allenjin/Codes/egraph_isa_compiler_codesign/benchmark/automotive/basicmath/basicmath_small_O3_clean.s:2561
   1092c:	00002097          	auipc	ra,0x2
/home/allenjin/Codes/egraph_isa_compiler_codesign/benchmark/automotive/basicmath/basicmath_small_O3_clean.s:2562
   10930:	b90080e7          	jalr	-1136(ra) # 124bc <__adddf3>
/home/allenjin/Codes/egraph_isa_compiler_codesign/benchmark/automotive/basicmath/basicmath_small_O3_clean.s:2563
   10934:	000c0613          	mv	a2,s8
/home/allenjin/Codes/egraph_isa_compiler_codesign/benchmark/automotive/basicmath/basicmath_small_O3_clean.s:2564
   10938:	000b0693          	mv	a3,s6
/home/allenjin/Codes/egraph_isa_compiler_codesign/benchmark/automotive/basicmath/basicmath_small_O3_clean.s:2565
   1093c:	00040713          	mv	a4,s0
/home/allenjin/Codes/egraph_isa_compiler_codesign/benchmark/automotive/basicmath/basicmath_small_O3_clean.s:2566
   10940:	00048793          	mv	a5,s1
/home/allenjin/Codes/egraph_isa_compiler_codesign/benchmark/automotive/basicmath/basicmath_small_O3_clean.s:2567
   10944:	00050c93          	mv	s9,a0
/home/allenjin/Codes/egraph_isa_compiler_codesign/benchmark/automotive/basicmath/basicmath_small_O3_clean.s:2568
   10948:	000b8513          	mv	a0,s7
/home/allenjin/Codes/egraph_isa_compiler_codesign/benchmark/automotive/basicmath/basicmath_small_O3_clean.s:2569
   1094c:	00058a93          	mv	s5,a1
/home/allenjin/Codes/egraph_isa_compiler_codesign/benchmark/automotive/basicmath/basicmath_small_O3_clean.s:2571
   10950:	00009097          	auipc	ra,0x9
/home/allenjin/Codes/egraph_isa_compiler_codesign/benchmark/automotive/basicmath/basicmath_small_O3_clean.s:2572
   10954:	8fc080e7          	jalr	-1796(ra) # 1924c <printf>
/home/allenjin/Codes/egraph_isa_compiler_codesign/benchmark/automotive/basicmath/basicmath_small_O3_clean.s:2573
   10958:	000c0513          	mv	a0,s8
/home/allenjin/Codes/egraph_isa_compiler_codesign/benchmark/automotive/basicmath/basicmath_small_O3_clean.s:2574
   1095c:	000b0593          	mv	a1,s6
/home/allenjin/Codes/egraph_isa_compiler_codesign/benchmark/automotive/basicmath/basicmath_small_O3_clean.s:2575
   10960:	000d0613          	mv	a2,s10
/home/allenjin/Codes/egraph_isa_compiler_codesign/benchmark/automotive/basicmath/basicmath_small_O3_clean.s:2576
   10964:	000d8693          	mv	a3,s11
/home/allenjin/Codes/egraph_isa_compiler_codesign/benchmark/automotive/basicmath/basicmath_small_O3_clean.s:2578
   10968:	00002097          	auipc	ra,0x2
/home/allenjin/Codes/egraph_isa_compiler_codesign/benchmark/automotive/basicmath/basicmath_small_O3_clean.s:2579
   1096c:	b54080e7          	jalr	-1196(ra) # 124bc <__adddf3>
/home/allenjin/Codes/egraph_isa_compiler_codesign/benchmark/automotive/basicmath/basicmath_small_O3_clean.s:2580
   10970:	00050c13          	mv	s8,a0
/home/allenjin/Codes/egraph_isa_compiler_codesign/benchmark/automotive/basicmath/basicmath_small_O3_clean.s:2581
   10974:	00058b13          	mv	s6,a1
/home/allenjin/Codes/egraph_isa_compiler_codesign/benchmark/automotive/basicmath/basicmath_small_O3_clean.s:2582
   10978:	f60998e3          	bnez	s3,108e8 <main+0x7fc>
/home/allenjin/Codes/egraph_isa_compiler_codesign/benchmark/automotive/basicmath/basicmath_small_O3_clean.s:2583
   1097c:	000c8513          	mv	a0,s9
/home/allenjin/Codes/egraph_isa_compiler_codesign/benchmark/automotive/basicmath/basicmath_small_O3_clean.s:2584
   10980:	000a8593          	mv	a1,s5
/home/allenjin/Codes/egraph_isa_compiler_codesign/benchmark/automotive/basicmath/basicmath_small_O3_clean.s:2585
   10984:	00000613          	li	a2,0
/home/allenjin/Codes/egraph_isa_compiler_codesign/benchmark/automotive/basicmath/basicmath_small_O3_clean.s:2586
   10988:	00000693          	li	a3,0
/home/allenjin/Codes/egraph_isa_compiler_codesign/benchmark/automotive/basicmath/basicmath_small_O3_clean.s:2588
   1098c:	00003097          	auipc	ra,0x3
/home/allenjin/Codes/egraph_isa_compiler_codesign/benchmark/automotive/basicmath/basicmath_small_O3_clean.s:2589
   10990:	94c080e7          	jalr	-1716(ra) # 132d8 <__eqdf2>
/home/allenjin/Codes/egraph_isa_compiler_codesign/benchmark/automotive/basicmath/basicmath_small_O3_clean.s:2590
   10994:	0dc12083          	lw	ra,220(sp)
/home/allenjin/Codes/egraph_isa_compiler_codesign/benchmark/automotive/basicmath/basicmath_small_O3_clean.s:2591
   10998:	0d812403          	lw	s0,216(sp)
/home/allenjin/Codes/egraph_isa_compiler_codesign/benchmark/automotive/basicmath/basicmath_small_O3_clean.s:2592
   1099c:	0d412483          	lw	s1,212(sp)
/home/allenjin/Codes/egraph_isa_compiler_codesign/benchmark/automotive/basicmath/basicmath_small_O3_clean.s:2593
   109a0:	0d012903          	lw	s2,208(sp)
/home/allenjin/Codes/egraph_isa_compiler_codesign/benchmark/automotive/basicmath/basicmath_small_O3_clean.s:2594
   109a4:	0cc12983          	lw	s3,204(sp)
/home/allenjin/Codes/egraph_isa_compiler_codesign/benchmark/automotive/basicmath/basicmath_small_O3_clean.s:2595
   109a8:	0c812a03          	lw	s4,200(sp)
/home/allenjin/Codes/egraph_isa_compiler_codesign/benchmark/automotive/basicmath/basicmath_small_O3_clean.s:2596
   109ac:	0c412a83          	lw	s5,196(sp)
/home/allenjin/Codes/egraph_isa_compiler_codesign/benchmark/automotive/basicmath/basicmath_small_O3_clean.s:2597
   109b0:	0c012b03          	lw	s6,192(sp)
/home/allenjin/Codes/egraph_isa_compiler_codesign/benchmark/automotive/basicmath/basicmath_small_O3_clean.s:2598
   109b4:	0bc12b83          	lw	s7,188(sp)
/home/allenjin/Codes/egraph_isa_compiler_codesign/benchmark/automotive/basicmath/basicmath_small_O3_clean.s:2599
   109b8:	0b812c03          	lw	s8,184(sp)
/home/allenjin/Codes/egraph_isa_compiler_codesign/benchmark/automotive/basicmath/basicmath_small_O3_clean.s:2600
   109bc:	0b412c83          	lw	s9,180(sp)
/home/allenjin/Codes/egraph_isa_compiler_codesign/benchmark/automotive/basicmath/basicmath_small_O3_clean.s:2601
   109c0:	0b012d03          	lw	s10,176(sp)
/home/allenjin/Codes/egraph_isa_compiler_codesign/benchmark/automotive/basicmath/basicmath_small_O3_clean.s:2602
   109c4:	0ac12d83          	lw	s11,172(sp)
/home/allenjin/Codes/egraph_isa_compiler_codesign/benchmark/automotive/basicmath/basicmath_small_O3_clean.s:2603
   109c8:	00153513          	seqz	a0,a0
/home/allenjin/Codes/egraph_isa_compiler_codesign/benchmark/automotive/basicmath/basicmath_small_O3_clean.s:2604
   109cc:	0e010113          	addi	sp,sp,224
/home/allenjin/Codes/egraph_isa_compiler_codesign/benchmark/automotive/basicmath/basicmath_small_O3_clean.s:2605
   109d0:	00008067          	ret

000109d4 <register_fini>:
register_fini():
   109d4:	000007b7          	lui	a5,0x0
   109d8:	00078793          	mv	a5,a5
   109dc:	00078a63          	beqz	a5,109f0 <register_fini+0x1c>
   109e0:	0001f537          	lui	a0,0x1f
   109e4:	b4850513          	addi	a0,a0,-1208 # 1eb48 <__libc_fini_array>
   109e8:	00009317          	auipc	t1,0x9
   109ec:	12430067          	jr	292(t1) # 19b0c <atexit>
   109f0:	00008067          	ret

000109f4 <_start>:
_start():
   109f4:	00017197          	auipc	gp,0x17
   109f8:	e1c18193          	addi	gp,gp,-484 # 27810 <__global_pointer$>
   109fc:	00017517          	auipc	a0,0x17
   10a00:	e3450513          	addi	a0,a0,-460 # 27830 <__stdio_exit_handler>
   10a04:	00017617          	auipc	a2,0x17
   10a08:	15860613          	addi	a2,a2,344 # 27b5c <__BSS_END__>
   10a0c:	40a60633          	sub	a2,a2,a0
   10a10:	00000593          	li	a1,0
   10a14:	00009097          	auipc	ra,0x9
   10a18:	e58080e7          	jalr	-424(ra) # 1986c <memset>
   10a1c:	00009517          	auipc	a0,0x9
   10a20:	0f050513          	addi	a0,a0,240 # 19b0c <atexit>
   10a24:	00050a63          	beqz	a0,10a38 <_start+0x44>
   10a28:	0000e517          	auipc	a0,0xe
   10a2c:	12050513          	addi	a0,a0,288 # 1eb48 <__libc_fini_array>
   10a30:	00009097          	auipc	ra,0x9
   10a34:	0dc080e7          	jalr	220(ra) # 19b0c <atexit>
   10a38:	00009097          	auipc	ra,0x9
   10a3c:	da0080e7          	jalr	-608(ra) # 197d8 <__libc_init_array>
   10a40:	00012503          	lw	a0,0(sp)
   10a44:	00410593          	addi	a1,sp,4
   10a48:	00000613          	li	a2,0
   10a4c:	fffff097          	auipc	ra,0xfffff
   10a50:	6a0080e7          	jalr	1696(ra) # 100ec <main>
   10a54:	fffff317          	auipc	t1,0xfffff
   10a58:	66030067          	jr	1632(t1) # 100b4 <exit>

00010a5c <__do_global_dtors_aux>:
__do_global_dtors_aux():
   10a5c:	ff010113          	addi	sp,sp,-16
   10a60:	00812423          	sw	s0,8(sp)
   10a64:	00028437          	lui	s0,0x28
   10a68:	85044783          	lbu	a5,-1968(s0) # 27850 <completed.1>
   10a6c:	00112623          	sw	ra,12(sp)
   10a70:	02079463          	bnez	a5,10a98 <__do_global_dtors_aux+0x3c>
   10a74:	000007b7          	lui	a5,0x0
   10a78:	00078793          	mv	a5,a5
   10a7c:	00078a63          	beqz	a5,10a90 <__do_global_dtors_aux+0x34>
   10a80:	00026537          	lui	a0,0x26
   10a84:	52850513          	addi	a0,a0,1320 # 26528 <__EH_FRAME_BEGIN__>
   10a88:	00000097          	auipc	ra,0x0
   10a8c:	000000e7          	jalr	zero # 0 <exit-0x100b4>
   10a90:	00100793          	li	a5,1
   10a94:	84f40823          	sb	a5,-1968(s0)
   10a98:	00c12083          	lw	ra,12(sp)
   10a9c:	00812403          	lw	s0,8(sp)
   10aa0:	01010113          	addi	sp,sp,16
   10aa4:	00008067          	ret

00010aa8 <frame_dummy>:
frame_dummy():
   10aa8:	000007b7          	lui	a5,0x0
   10aac:	00078793          	mv	a5,a5
   10ab0:	00078e63          	beqz	a5,10acc <frame_dummy+0x24>
   10ab4:	000285b7          	lui	a1,0x28
   10ab8:	00026537          	lui	a0,0x26
   10abc:	85458593          	addi	a1,a1,-1964 # 27854 <object.0>
   10ac0:	52850513          	addi	a0,a0,1320 # 26528 <__EH_FRAME_BEGIN__>
   10ac4:	00000317          	auipc	t1,0x0
   10ac8:	00000067          	jr	zero # 0 <exit-0x100b4>
   10acc:	00008067          	ret

00010ad0 <my_cos>:
my_cos():
/home/allenjin/Codes/egraph_isa_compiler_codesign/benchmark/automotive/basicmath/basicmath_small_O3_clean.s:11
   10ad0:	000277b7          	lui	a5,0x27
/home/allenjin/Codes/egraph_isa_compiler_codesign/benchmark/automotive/basicmath/basicmath_small_O3_clean.s:12
   10ad4:	6b87a603          	lw	a2,1720(a5) # 276b8 <__SDATA_BEGIN__>
/home/allenjin/Codes/egraph_isa_compiler_codesign/benchmark/automotive/basicmath/basicmath_small_O3_clean.s:13
   10ad8:	6bc7a683          	lw	a3,1724(a5)
/home/allenjin/Codes/egraph_isa_compiler_codesign/benchmark/automotive/basicmath/basicmath_small_O3_clean.s:14
   10adc:	fd010113          	addi	sp,sp,-48
/home/allenjin/Codes/egraph_isa_compiler_codesign/benchmark/automotive/basicmath/basicmath_small_O3_clean.s:15
   10ae0:	02112623          	sw	ra,44(sp)
/home/allenjin/Codes/egraph_isa_compiler_codesign/benchmark/automotive/basicmath/basicmath_small_O3_clean.s:16
   10ae4:	02812423          	sw	s0,40(sp)
/home/allenjin/Codes/egraph_isa_compiler_codesign/benchmark/automotive/basicmath/basicmath_small_O3_clean.s:17
   10ae8:	02912223          	sw	s1,36(sp)
/home/allenjin/Codes/egraph_isa_compiler_codesign/benchmark/automotive/basicmath/basicmath_small_O3_clean.s:18
   10aec:	03212023          	sw	s2,32(sp)
/home/allenjin/Codes/egraph_isa_compiler_codesign/benchmark/automotive/basicmath/basicmath_small_O3_clean.s:19
   10af0:	01312e23          	sw	s3,28(sp)
/home/allenjin/Codes/egraph_isa_compiler_codesign/benchmark/automotive/basicmath/basicmath_small_O3_clean.s:20
   10af4:	01412c23          	sw	s4,24(sp)
/home/allenjin/Codes/egraph_isa_compiler_codesign/benchmark/automotive/basicmath/basicmath_small_O3_clean.s:21
   10af8:	01512a23          	sw	s5,20(sp)
/home/allenjin/Codes/egraph_isa_compiler_codesign/benchmark/automotive/basicmath/basicmath_small_O3_clean.s:22
   10afc:	01612823          	sw	s6,16(sp)
/home/allenjin/Codes/egraph_isa_compiler_codesign/benchmark/automotive/basicmath/basicmath_small_O3_clean.s:23
   10b00:	01712623          	sw	s7,12(sp)
/home/allenjin/Codes/egraph_isa_compiler_codesign/benchmark/automotive/basicmath/basicmath_small_O3_clean.s:24
   10b04:	01812423          	sw	s8,8(sp)
/home/allenjin/Codes/egraph_isa_compiler_codesign/benchmark/automotive/basicmath/basicmath_small_O3_clean.s:25
   10b08:	00050413          	mv	s0,a0
/home/allenjin/Codes/egraph_isa_compiler_codesign/benchmark/automotive/basicmath/basicmath_small_O3_clean.s:26
   10b0c:	00058493          	mv	s1,a1
/home/allenjin/Codes/egraph_isa_compiler_codesign/benchmark/automotive/basicmath/basicmath_small_O3_clean.s:28
   10b10:	00003097          	auipc	ra,0x3
/home/allenjin/Codes/egraph_isa_compiler_codesign/benchmark/automotive/basicmath/basicmath_small_O3_clean.s:29
   10b14:	9fc080e7          	jalr	-1540(ra) # 1350c <__muldf3>
/home/allenjin/Codes/egraph_isa_compiler_codesign/benchmark/automotive/basicmath/basicmath_small_O3_clean.s:30
   10b18:	00000613          	li	a2,0
/home/allenjin/Codes/egraph_isa_compiler_codesign/benchmark/automotive/basicmath/basicmath_small_O3_clean.s:31
   10b1c:	00000693          	li	a3,0
/home/allenjin/Codes/egraph_isa_compiler_codesign/benchmark/automotive/basicmath/basicmath_small_O3_clean.s:32
   10b20:	00050913          	mv	s2,a0
/home/allenjin/Codes/egraph_isa_compiler_codesign/benchmark/automotive/basicmath/basicmath_small_O3_clean.s:33
   10b24:	00058993          	mv	s3,a1
/home/allenjin/Codes/egraph_isa_compiler_codesign/benchmark/automotive/basicmath/basicmath_small_O3_clean.s:35
   10b28:	00003097          	auipc	ra,0x3
/home/allenjin/Codes/egraph_isa_compiler_codesign/benchmark/automotive/basicmath/basicmath_small_O3_clean.s:36
   10b2c:	834080e7          	jalr	-1996(ra) # 1335c <__gedf2>
/home/allenjin/Codes/egraph_isa_compiler_codesign/benchmark/automotive/basicmath/basicmath_small_O3_clean.s:37
   10b30:	00027a37          	lui	s4,0x27
/home/allenjin/Codes/egraph_isa_compiler_codesign/benchmark/automotive/basicmath/basicmath_small_O3_clean.s:38
   10b34:	34054063          	bltz	a0,10e74 <my_cos+0x3a4>
/home/allenjin/Codes/egraph_isa_compiler_codesign/benchmark/automotive/basicmath/basicmath_small_O3_clean.s:39
   10b38:	6c0a2603          	lw	a2,1728(s4) # 276c0 <__SDATA_BEGIN__+0x8>
/home/allenjin/Codes/egraph_isa_compiler_codesign/benchmark/automotive/basicmath/basicmath_small_O3_clean.s:40
   10b3c:	6c4a2683          	lw	a3,1732(s4)
/home/allenjin/Codes/egraph_isa_compiler_codesign/benchmark/automotive/basicmath/basicmath_small_O3_clean.s:41
   10b40:	00090513          	mv	a0,s2
/home/allenjin/Codes/egraph_isa_compiler_codesign/benchmark/automotive/basicmath/basicmath_small_O3_clean.s:42
   10b44:	00098593          	mv	a1,s3
/home/allenjin/Codes/egraph_isa_compiler_codesign/benchmark/automotive/basicmath/basicmath_small_O3_clean.s:44
   10b48:	00002097          	auipc	ra,0x2
/home/allenjin/Codes/egraph_isa_compiler_codesign/benchmark/automotive/basicmath/basicmath_small_O3_clean.s:45
   10b4c:	974080e7          	jalr	-1676(ra) # 124bc <__adddf3>
/home/allenjin/Codes/egraph_isa_compiler_codesign/benchmark/automotive/basicmath/basicmath_small_O3_clean.s:46
   10b50:	00050713          	mv	a4,a0
/home/allenjin/Codes/egraph_isa_compiler_codesign/benchmark/automotive/basicmath/basicmath_small_O3_clean.s:47
   10b54:	00058793          	mv	a5,a1
/home/allenjin/Codes/egraph_isa_compiler_codesign/benchmark/automotive/basicmath/basicmath_small_O3_clean.s:49
   10b58:	00070513          	mv	a0,a4
/home/allenjin/Codes/egraph_isa_compiler_codesign/benchmark/automotive/basicmath/basicmath_small_O3_clean.s:50
   10b5c:	00078593          	mv	a1,a5
/home/allenjin/Codes/egraph_isa_compiler_codesign/benchmark/automotive/basicmath/basicmath_small_O3_clean.s:52
   10b60:	00003097          	auipc	ra,0x3
/home/allenjin/Codes/egraph_isa_compiler_codesign/benchmark/automotive/basicmath/basicmath_small_O3_clean.s:53
   10b64:	70c080e7          	jalr	1804(ra) # 1426c <__fixdfsi>
/home/allenjin/Codes/egraph_isa_compiler_codesign/benchmark/automotive/basicmath/basicmath_small_O3_clean.s:54
   10b68:	00050b13          	mv	s6,a0
/home/allenjin/Codes/egraph_isa_compiler_codesign/benchmark/automotive/basicmath/basicmath_small_O3_clean.s:56
   10b6c:	00003097          	auipc	ra,0x3
/home/allenjin/Codes/egraph_isa_compiler_codesign/benchmark/automotive/basicmath/basicmath_small_O3_clean.s:57
   10b70:	77c080e7          	jalr	1916(ra) # 142e8 <__floatsidf>
/home/allenjin/Codes/egraph_isa_compiler_codesign/benchmark/automotive/basicmath/basicmath_small_O3_clean.s:58
   10b74:	000277b7          	lui	a5,0x27
/home/allenjin/Codes/egraph_isa_compiler_codesign/benchmark/automotive/basicmath/basicmath_small_O3_clean.s:59
   10b78:	6c87a603          	lw	a2,1736(a5) # 276c8 <__SDATA_BEGIN__+0x10>
/home/allenjin/Codes/egraph_isa_compiler_codesign/benchmark/automotive/basicmath/basicmath_small_O3_clean.s:60
   10b7c:	6cc7a683          	lw	a3,1740(a5)
/home/allenjin/Codes/egraph_isa_compiler_codesign/benchmark/automotive/basicmath/basicmath_small_O3_clean.s:61
   10b80:	00050913          	mv	s2,a0
/home/allenjin/Codes/egraph_isa_compiler_codesign/benchmark/automotive/basicmath/basicmath_small_O3_clean.s:62
   10b84:	00058993          	mv	s3,a1
/home/allenjin/Codes/egraph_isa_compiler_codesign/benchmark/automotive/basicmath/basicmath_small_O3_clean.s:64
   10b88:	00003097          	auipc	ra,0x3
/home/allenjin/Codes/egraph_isa_compiler_codesign/benchmark/automotive/basicmath/basicmath_small_O3_clean.s:65
   10b8c:	984080e7          	jalr	-1660(ra) # 1350c <__muldf3>
/home/allenjin/Codes/egraph_isa_compiler_codesign/benchmark/automotive/basicmath/basicmath_small_O3_clean.s:66
   10b90:	00050613          	mv	a2,a0
/home/allenjin/Codes/egraph_isa_compiler_codesign/benchmark/automotive/basicmath/basicmath_small_O3_clean.s:67
   10b94:	00058693          	mv	a3,a1
/home/allenjin/Codes/egraph_isa_compiler_codesign/benchmark/automotive/basicmath/basicmath_small_O3_clean.s:68
   10b98:	00040513          	mv	a0,s0
/home/allenjin/Codes/egraph_isa_compiler_codesign/benchmark/automotive/basicmath/basicmath_small_O3_clean.s:69
   10b9c:	00048593          	mv	a1,s1
/home/allenjin/Codes/egraph_isa_compiler_codesign/benchmark/automotive/basicmath/basicmath_small_O3_clean.s:71
   10ba0:	00003097          	auipc	ra,0x3
/home/allenjin/Codes/egraph_isa_compiler_codesign/benchmark/automotive/basicmath/basicmath_small_O3_clean.s:72
   10ba4:	f64080e7          	jalr	-156(ra) # 13b04 <__subdf3>
/home/allenjin/Codes/egraph_isa_compiler_codesign/benchmark/automotive/basicmath/basicmath_small_O3_clean.s:73
   10ba8:	000277b7          	lui	a5,0x27
/home/allenjin/Codes/egraph_isa_compiler_codesign/benchmark/automotive/basicmath/basicmath_small_O3_clean.s:74
   10bac:	6d07a603          	lw	a2,1744(a5) # 276d0 <__SDATA_BEGIN__+0x18>
/home/allenjin/Codes/egraph_isa_compiler_codesign/benchmark/automotive/basicmath/basicmath_small_O3_clean.s:75
   10bb0:	6d47a683          	lw	a3,1748(a5)
/home/allenjin/Codes/egraph_isa_compiler_codesign/benchmark/automotive/basicmath/basicmath_small_O3_clean.s:76
   10bb4:	00050413          	mv	s0,a0
/home/allenjin/Codes/egraph_isa_compiler_codesign/benchmark/automotive/basicmath/basicmath_small_O3_clean.s:77
   10bb8:	00058493          	mv	s1,a1
/home/allenjin/Codes/egraph_isa_compiler_codesign/benchmark/automotive/basicmath/basicmath_small_O3_clean.s:78
   10bbc:	00090513          	mv	a0,s2
/home/allenjin/Codes/egraph_isa_compiler_codesign/benchmark/automotive/basicmath/basicmath_small_O3_clean.s:79
   10bc0:	00098593          	mv	a1,s3
/home/allenjin/Codes/egraph_isa_compiler_codesign/benchmark/automotive/basicmath/basicmath_small_O3_clean.s:81
   10bc4:	00003097          	auipc	ra,0x3
/home/allenjin/Codes/egraph_isa_compiler_codesign/benchmark/automotive/basicmath/basicmath_small_O3_clean.s:82
   10bc8:	948080e7          	jalr	-1720(ra) # 1350c <__muldf3>
/home/allenjin/Codes/egraph_isa_compiler_codesign/benchmark/automotive/basicmath/basicmath_small_O3_clean.s:83
   10bcc:	00050613          	mv	a2,a0
/home/allenjin/Codes/egraph_isa_compiler_codesign/benchmark/automotive/basicmath/basicmath_small_O3_clean.s:84
   10bd0:	00058693          	mv	a3,a1
/home/allenjin/Codes/egraph_isa_compiler_codesign/benchmark/automotive/basicmath/basicmath_small_O3_clean.s:85
   10bd4:	00040513          	mv	a0,s0
/home/allenjin/Codes/egraph_isa_compiler_codesign/benchmark/automotive/basicmath/basicmath_small_O3_clean.s:86
   10bd8:	00048593          	mv	a1,s1
/home/allenjin/Codes/egraph_isa_compiler_codesign/benchmark/automotive/basicmath/basicmath_small_O3_clean.s:88
   10bdc:	00003097          	auipc	ra,0x3
/home/allenjin/Codes/egraph_isa_compiler_codesign/benchmark/automotive/basicmath/basicmath_small_O3_clean.s:89
   10be0:	f28080e7          	jalr	-216(ra) # 13b04 <__subdf3>
/home/allenjin/Codes/egraph_isa_compiler_codesign/benchmark/automotive/basicmath/basicmath_small_O3_clean.s:90
   10be4:	00050613          	mv	a2,a0
/home/allenjin/Codes/egraph_isa_compiler_codesign/benchmark/automotive/basicmath/basicmath_small_O3_clean.s:91
   10be8:	00058693          	mv	a3,a1
/home/allenjin/Codes/egraph_isa_compiler_codesign/benchmark/automotive/basicmath/basicmath_small_O3_clean.s:92
   10bec:	00050913          	mv	s2,a0
/home/allenjin/Codes/egraph_isa_compiler_codesign/benchmark/automotive/basicmath/basicmath_small_O3_clean.s:93
   10bf0:	00058993          	mv	s3,a1
/home/allenjin/Codes/egraph_isa_compiler_codesign/benchmark/automotive/basicmath/basicmath_small_O3_clean.s:95
   10bf4:	00003097          	auipc	ra,0x3
/home/allenjin/Codes/egraph_isa_compiler_codesign/benchmark/automotive/basicmath/basicmath_small_O3_clean.s:96
   10bf8:	918080e7          	jalr	-1768(ra) # 1350c <__muldf3>
/home/allenjin/Codes/egraph_isa_compiler_codesign/benchmark/automotive/basicmath/basicmath_small_O3_clean.s:97
   10bfc:	000277b7          	lui	a5,0x27
/home/allenjin/Codes/egraph_isa_compiler_codesign/benchmark/automotive/basicmath/basicmath_small_O3_clean.s:98
   10c00:	6d87a603          	lw	a2,1752(a5) # 276d8 <__SDATA_BEGIN__+0x20>
/home/allenjin/Codes/egraph_isa_compiler_codesign/benchmark/automotive/basicmath/basicmath_small_O3_clean.s:99
   10c04:	6dc7a683          	lw	a3,1756(a5)
/home/allenjin/Codes/egraph_isa_compiler_codesign/benchmark/automotive/basicmath/basicmath_small_O3_clean.s:100
   10c08:	00050413          	mv	s0,a0
/home/allenjin/Codes/egraph_isa_compiler_codesign/benchmark/automotive/basicmath/basicmath_small_O3_clean.s:101
   10c0c:	00058493          	mv	s1,a1
/home/allenjin/Codes/egraph_isa_compiler_codesign/benchmark/automotive/basicmath/basicmath_small_O3_clean.s:103
   10c10:	00003097          	auipc	ra,0x3
/home/allenjin/Codes/egraph_isa_compiler_codesign/benchmark/automotive/basicmath/basicmath_small_O3_clean.s:104
   10c14:	8fc080e7          	jalr	-1796(ra) # 1350c <__muldf3>
/home/allenjin/Codes/egraph_isa_compiler_codesign/benchmark/automotive/basicmath/basicmath_small_O3_clean.s:105
   10c18:	000277b7          	lui	a5,0x27
/home/allenjin/Codes/egraph_isa_compiler_codesign/benchmark/automotive/basicmath/basicmath_small_O3_clean.s:106
   10c1c:	6e07a603          	lw	a2,1760(a5) # 276e0 <__SDATA_BEGIN__+0x28>
/home/allenjin/Codes/egraph_isa_compiler_codesign/benchmark/automotive/basicmath/basicmath_small_O3_clean.s:107
   10c20:	6e47a683          	lw	a3,1764(a5)
/home/allenjin/Codes/egraph_isa_compiler_codesign/benchmark/automotive/basicmath/basicmath_small_O3_clean.s:109
   10c24:	00003097          	auipc	ra,0x3
/home/allenjin/Codes/egraph_isa_compiler_codesign/benchmark/automotive/basicmath/basicmath_small_O3_clean.s:110
   10c28:	ee0080e7          	jalr	-288(ra) # 13b04 <__subdf3>
/home/allenjin/Codes/egraph_isa_compiler_codesign/benchmark/automotive/basicmath/basicmath_small_O3_clean.s:111
   10c2c:	00040613          	mv	a2,s0
/home/allenjin/Codes/egraph_isa_compiler_codesign/benchmark/automotive/basicmath/basicmath_small_O3_clean.s:112
   10c30:	00048693          	mv	a3,s1
/home/allenjin/Codes/egraph_isa_compiler_codesign/benchmark/automotive/basicmath/basicmath_small_O3_clean.s:114
   10c34:	00003097          	auipc	ra,0x3
/home/allenjin/Codes/egraph_isa_compiler_codesign/benchmark/automotive/basicmath/basicmath_small_O3_clean.s:115
   10c38:	8d8080e7          	jalr	-1832(ra) # 1350c <__muldf3>
/home/allenjin/Codes/egraph_isa_compiler_codesign/benchmark/automotive/basicmath/basicmath_small_O3_clean.s:116
   10c3c:	000277b7          	lui	a5,0x27
/home/allenjin/Codes/egraph_isa_compiler_codesign/benchmark/automotive/basicmath/basicmath_small_O3_clean.s:117
   10c40:	6e87a603          	lw	a2,1768(a5) # 276e8 <__SDATA_BEGIN__+0x30>
/home/allenjin/Codes/egraph_isa_compiler_codesign/benchmark/automotive/basicmath/basicmath_small_O3_clean.s:118
   10c44:	6ec7a683          	lw	a3,1772(a5)
/home/allenjin/Codes/egraph_isa_compiler_codesign/benchmark/automotive/basicmath/basicmath_small_O3_clean.s:120
   10c48:	00002097          	auipc	ra,0x2
/home/allenjin/Codes/egraph_isa_compiler_codesign/benchmark/automotive/basicmath/basicmath_small_O3_clean.s:121
   10c4c:	874080e7          	jalr	-1932(ra) # 124bc <__adddf3>
/home/allenjin/Codes/egraph_isa_compiler_codesign/benchmark/automotive/basicmath/basicmath_small_O3_clean.s:122
   10c50:	00040613          	mv	a2,s0
/home/allenjin/Codes/egraph_isa_compiler_codesign/benchmark/automotive/basicmath/basicmath_small_O3_clean.s:123
   10c54:	00048693          	mv	a3,s1
/home/allenjin/Codes/egraph_isa_compiler_codesign/benchmark/automotive/basicmath/basicmath_small_O3_clean.s:125
   10c58:	00003097          	auipc	ra,0x3
/home/allenjin/Codes/egraph_isa_compiler_codesign/benchmark/automotive/basicmath/basicmath_small_O3_clean.s:126
   10c5c:	8b4080e7          	jalr	-1868(ra) # 1350c <__muldf3>
/home/allenjin/Codes/egraph_isa_compiler_codesign/benchmark/automotive/basicmath/basicmath_small_O3_clean.s:127
   10c60:	000277b7          	lui	a5,0x27
/home/allenjin/Codes/egraph_isa_compiler_codesign/benchmark/automotive/basicmath/basicmath_small_O3_clean.s:128
   10c64:	6f07a603          	lw	a2,1776(a5) # 276f0 <__SDATA_BEGIN__+0x38>
/home/allenjin/Codes/egraph_isa_compiler_codesign/benchmark/automotive/basicmath/basicmath_small_O3_clean.s:129
   10c68:	6f47a683          	lw	a3,1780(a5)
/home/allenjin/Codes/egraph_isa_compiler_codesign/benchmark/automotive/basicmath/basicmath_small_O3_clean.s:131
   10c6c:	00003097          	auipc	ra,0x3
/home/allenjin/Codes/egraph_isa_compiler_codesign/benchmark/automotive/basicmath/basicmath_small_O3_clean.s:132
   10c70:	e98080e7          	jalr	-360(ra) # 13b04 <__subdf3>
/home/allenjin/Codes/egraph_isa_compiler_codesign/benchmark/automotive/basicmath/basicmath_small_O3_clean.s:133
   10c74:	00040613          	mv	a2,s0
/home/allenjin/Codes/egraph_isa_compiler_codesign/benchmark/automotive/basicmath/basicmath_small_O3_clean.s:134
   10c78:	00048693          	mv	a3,s1
/home/allenjin/Codes/egraph_isa_compiler_codesign/benchmark/automotive/basicmath/basicmath_small_O3_clean.s:136
   10c7c:	00003097          	auipc	ra,0x3
/home/allenjin/Codes/egraph_isa_compiler_codesign/benchmark/automotive/basicmath/basicmath_small_O3_clean.s:137
   10c80:	890080e7          	jalr	-1904(ra) # 1350c <__muldf3>
/home/allenjin/Codes/egraph_isa_compiler_codesign/benchmark/automotive/basicmath/basicmath_small_O3_clean.s:138
   10c84:	000277b7          	lui	a5,0x27
/home/allenjin/Codes/egraph_isa_compiler_codesign/benchmark/automotive/basicmath/basicmath_small_O3_clean.s:139
   10c88:	6f87a603          	lw	a2,1784(a5) # 276f8 <__SDATA_BEGIN__+0x40>
/home/allenjin/Codes/egraph_isa_compiler_codesign/benchmark/automotive/basicmath/basicmath_small_O3_clean.s:140
   10c8c:	6fc7a683          	lw	a3,1788(a5)
/home/allenjin/Codes/egraph_isa_compiler_codesign/benchmark/automotive/basicmath/basicmath_small_O3_clean.s:142
   10c90:	00002097          	auipc	ra,0x2
/home/allenjin/Codes/egraph_isa_compiler_codesign/benchmark/automotive/basicmath/basicmath_small_O3_clean.s:143
   10c94:	82c080e7          	jalr	-2004(ra) # 124bc <__adddf3>
/home/allenjin/Codes/egraph_isa_compiler_codesign/benchmark/automotive/basicmath/basicmath_small_O3_clean.s:144
   10c98:	00040613          	mv	a2,s0
/home/allenjin/Codes/egraph_isa_compiler_codesign/benchmark/automotive/basicmath/basicmath_small_O3_clean.s:145
   10c9c:	00048693          	mv	a3,s1
/home/allenjin/Codes/egraph_isa_compiler_codesign/benchmark/automotive/basicmath/basicmath_small_O3_clean.s:147
   10ca0:	00003097          	auipc	ra,0x3
/home/allenjin/Codes/egraph_isa_compiler_codesign/benchmark/automotive/basicmath/basicmath_small_O3_clean.s:148
   10ca4:	86c080e7          	jalr	-1940(ra) # 1350c <__muldf3>
/home/allenjin/Codes/egraph_isa_compiler_codesign/benchmark/automotive/basicmath/basicmath_small_O3_clean.s:149
   10ca8:	000277b7          	lui	a5,0x27
/home/allenjin/Codes/egraph_isa_compiler_codesign/benchmark/automotive/basicmath/basicmath_small_O3_clean.s:150
   10cac:	7007a603          	lw	a2,1792(a5) # 27700 <__SDATA_BEGIN__+0x48>
/home/allenjin/Codes/egraph_isa_compiler_codesign/benchmark/automotive/basicmath/basicmath_small_O3_clean.s:151
   10cb0:	7047a683          	lw	a3,1796(a5)
/home/allenjin/Codes/egraph_isa_compiler_codesign/benchmark/automotive/basicmath/basicmath_small_O3_clean.s:153
   10cb4:	00003097          	auipc	ra,0x3
/home/allenjin/Codes/egraph_isa_compiler_codesign/benchmark/automotive/basicmath/basicmath_small_O3_clean.s:154
   10cb8:	e50080e7          	jalr	-432(ra) # 13b04 <__subdf3>
/home/allenjin/Codes/egraph_isa_compiler_codesign/benchmark/automotive/basicmath/basicmath_small_O3_clean.s:155
   10cbc:	00050b93          	mv	s7,a0
/home/allenjin/Codes/egraph_isa_compiler_codesign/benchmark/automotive/basicmath/basicmath_small_O3_clean.s:156
   10cc0:	00058c13          	mv	s8,a1
/home/allenjin/Codes/egraph_isa_compiler_codesign/benchmark/automotive/basicmath/basicmath_small_O3_clean.s:157
   10cc4:	00040613          	mv	a2,s0
/home/allenjin/Codes/egraph_isa_compiler_codesign/benchmark/automotive/basicmath/basicmath_small_O3_clean.s:158
   10cc8:	00048693          	mv	a3,s1
/home/allenjin/Codes/egraph_isa_compiler_codesign/benchmark/automotive/basicmath/basicmath_small_O3_clean.s:159
   10ccc:	00090513          	mv	a0,s2
/home/allenjin/Codes/egraph_isa_compiler_codesign/benchmark/automotive/basicmath/basicmath_small_O3_clean.s:160
   10cd0:	00098593          	mv	a1,s3
/home/allenjin/Codes/egraph_isa_compiler_codesign/benchmark/automotive/basicmath/basicmath_small_O3_clean.s:162
   10cd4:	00003097          	auipc	ra,0x3
/home/allenjin/Codes/egraph_isa_compiler_codesign/benchmark/automotive/basicmath/basicmath_small_O3_clean.s:163
   10cd8:	838080e7          	jalr	-1992(ra) # 1350c <__muldf3>
/home/allenjin/Codes/egraph_isa_compiler_codesign/benchmark/automotive/basicmath/basicmath_small_O3_clean.s:164
   10cdc:	00050613          	mv	a2,a0
/home/allenjin/Codes/egraph_isa_compiler_codesign/benchmark/automotive/basicmath/basicmath_small_O3_clean.s:165
   10ce0:	00058693          	mv	a3,a1
/home/allenjin/Codes/egraph_isa_compiler_codesign/benchmark/automotive/basicmath/basicmath_small_O3_clean.s:166
   10ce4:	000b8513          	mv	a0,s7
/home/allenjin/Codes/egraph_isa_compiler_codesign/benchmark/automotive/basicmath/basicmath_small_O3_clean.s:167
   10ce8:	000c0593          	mv	a1,s8
/home/allenjin/Codes/egraph_isa_compiler_codesign/benchmark/automotive/basicmath/basicmath_small_O3_clean.s:169
   10cec:	00003097          	auipc	ra,0x3
/home/allenjin/Codes/egraph_isa_compiler_codesign/benchmark/automotive/basicmath/basicmath_small_O3_clean.s:170
   10cf0:	820080e7          	jalr	-2016(ra) # 1350c <__muldf3>
/home/allenjin/Codes/egraph_isa_compiler_codesign/benchmark/automotive/basicmath/basicmath_small_O3_clean.s:171
   10cf4:	00090613          	mv	a2,s2
/home/allenjin/Codes/egraph_isa_compiler_codesign/benchmark/automotive/basicmath/basicmath_small_O3_clean.s:172
   10cf8:	00098693          	mv	a3,s3
/home/allenjin/Codes/egraph_isa_compiler_codesign/benchmark/automotive/basicmath/basicmath_small_O3_clean.s:174
   10cfc:	00001097          	auipc	ra,0x1
/home/allenjin/Codes/egraph_isa_compiler_codesign/benchmark/automotive/basicmath/basicmath_small_O3_clean.s:175
   10d00:	7c0080e7          	jalr	1984(ra) # 124bc <__adddf3>
/home/allenjin/Codes/egraph_isa_compiler_codesign/benchmark/automotive/basicmath/basicmath_small_O3_clean.s:176
   10d04:	003b7913          	andi	s2,s6,3
/home/allenjin/Codes/egraph_isa_compiler_codesign/benchmark/automotive/basicmath/basicmath_small_O3_clean.s:177
   10d08:	00100793          	li	a5,1
/home/allenjin/Codes/egraph_isa_compiler_codesign/benchmark/automotive/basicmath/basicmath_small_O3_clean.s:178
   10d0c:	00050993          	mv	s3,a0
/home/allenjin/Codes/egraph_isa_compiler_codesign/benchmark/automotive/basicmath/basicmath_small_O3_clean.s:179
   10d10:	00058a93          	mv	s5,a1
/home/allenjin/Codes/egraph_isa_compiler_codesign/benchmark/automotive/basicmath/basicmath_small_O3_clean.s:180
   10d14:	18f90263          	beq	s2,a5,10e98 <my_cos+0x3c8>
/home/allenjin/Codes/egraph_isa_compiler_codesign/benchmark/automotive/basicmath/basicmath_small_O3_clean.s:181
   10d18:	000277b7          	lui	a5,0x27
/home/allenjin/Codes/egraph_isa_compiler_codesign/benchmark/automotive/basicmath/basicmath_small_O3_clean.s:182
   10d1c:	7087a603          	lw	a2,1800(a5) # 27708 <__SDATA_BEGIN__+0x50>
/home/allenjin/Codes/egraph_isa_compiler_codesign/benchmark/automotive/basicmath/basicmath_small_O3_clean.s:183
   10d20:	70c7a683          	lw	a3,1804(a5)
/home/allenjin/Codes/egraph_isa_compiler_codesign/benchmark/automotive/basicmath/basicmath_small_O3_clean.s:184
   10d24:	00040513          	mv	a0,s0
/home/allenjin/Codes/egraph_isa_compiler_codesign/benchmark/automotive/basicmath/basicmath_small_O3_clean.s:185
   10d28:	00048593          	mv	a1,s1
/home/allenjin/Codes/egraph_isa_compiler_codesign/benchmark/automotive/basicmath/basicmath_small_O3_clean.s:187
   10d2c:	00002097          	auipc	ra,0x2
/home/allenjin/Codes/egraph_isa_compiler_codesign/benchmark/automotive/basicmath/basicmath_small_O3_clean.s:188
   10d30:	7e0080e7          	jalr	2016(ra) # 1350c <__muldf3>
/home/allenjin/Codes/egraph_isa_compiler_codesign/benchmark/automotive/basicmath/basicmath_small_O3_clean.s:189
   10d34:	000277b7          	lui	a5,0x27
/home/allenjin/Codes/egraph_isa_compiler_codesign/benchmark/automotive/basicmath/basicmath_small_O3_clean.s:190
   10d38:	7107a603          	lw	a2,1808(a5) # 27710 <__SDATA_BEGIN__+0x58>
/home/allenjin/Codes/egraph_isa_compiler_codesign/benchmark/automotive/basicmath/basicmath_small_O3_clean.s:191
   10d3c:	7147a683          	lw	a3,1812(a5)
/home/allenjin/Codes/egraph_isa_compiler_codesign/benchmark/automotive/basicmath/basicmath_small_O3_clean.s:193
   10d40:	00001097          	auipc	ra,0x1
/home/allenjin/Codes/egraph_isa_compiler_codesign/benchmark/automotive/basicmath/basicmath_small_O3_clean.s:194
   10d44:	77c080e7          	jalr	1916(ra) # 124bc <__adddf3>
/home/allenjin/Codes/egraph_isa_compiler_codesign/benchmark/automotive/basicmath/basicmath_small_O3_clean.s:195
   10d48:	00040613          	mv	a2,s0
/home/allenjin/Codes/egraph_isa_compiler_codesign/benchmark/automotive/basicmath/basicmath_small_O3_clean.s:196
   10d4c:	00048693          	mv	a3,s1
/home/allenjin/Codes/egraph_isa_compiler_codesign/benchmark/automotive/basicmath/basicmath_small_O3_clean.s:198
   10d50:	00002097          	auipc	ra,0x2
/home/allenjin/Codes/egraph_isa_compiler_codesign/benchmark/automotive/basicmath/basicmath_small_O3_clean.s:199
   10d54:	7bc080e7          	jalr	1980(ra) # 1350c <__muldf3>
/home/allenjin/Codes/egraph_isa_compiler_codesign/benchmark/automotive/basicmath/basicmath_small_O3_clean.s:200
   10d58:	000277b7          	lui	a5,0x27
/home/allenjin/Codes/egraph_isa_compiler_codesign/benchmark/automotive/basicmath/basicmath_small_O3_clean.s:201
   10d5c:	7187a603          	lw	a2,1816(a5) # 27718 <__SDATA_BEGIN__+0x60>
/home/allenjin/Codes/egraph_isa_compiler_codesign/benchmark/automotive/basicmath/basicmath_small_O3_clean.s:202
   10d60:	71c7a683          	lw	a3,1820(a5)
/home/allenjin/Codes/egraph_isa_compiler_codesign/benchmark/automotive/basicmath/basicmath_small_O3_clean.s:204
   10d64:	00003097          	auipc	ra,0x3
/home/allenjin/Codes/egraph_isa_compiler_codesign/benchmark/automotive/basicmath/basicmath_small_O3_clean.s:205
   10d68:	da0080e7          	jalr	-608(ra) # 13b04 <__subdf3>
/home/allenjin/Codes/egraph_isa_compiler_codesign/benchmark/automotive/basicmath/basicmath_small_O3_clean.s:206
   10d6c:	00040613          	mv	a2,s0
/home/allenjin/Codes/egraph_isa_compiler_codesign/benchmark/automotive/basicmath/basicmath_small_O3_clean.s:207
   10d70:	00048693          	mv	a3,s1
/home/allenjin/Codes/egraph_isa_compiler_codesign/benchmark/automotive/basicmath/basicmath_small_O3_clean.s:209
   10d74:	00002097          	auipc	ra,0x2
/home/allenjin/Codes/egraph_isa_compiler_codesign/benchmark/automotive/basicmath/basicmath_small_O3_clean.s:210
   10d78:	798080e7          	jalr	1944(ra) # 1350c <__muldf3>
/home/allenjin/Codes/egraph_isa_compiler_codesign/benchmark/automotive/basicmath/basicmath_small_O3_clean.s:211
   10d7c:	000277b7          	lui	a5,0x27
/home/allenjin/Codes/egraph_isa_compiler_codesign/benchmark/automotive/basicmath/basicmath_small_O3_clean.s:212
   10d80:	7207a603          	lw	a2,1824(a5) # 27720 <__SDATA_BEGIN__+0x68>
/home/allenjin/Codes/egraph_isa_compiler_codesign/benchmark/automotive/basicmath/basicmath_small_O3_clean.s:213
   10d84:	7247a683          	lw	a3,1828(a5)
/home/allenjin/Codes/egraph_isa_compiler_codesign/benchmark/automotive/basicmath/basicmath_small_O3_clean.s:215
   10d88:	00001097          	auipc	ra,0x1
/home/allenjin/Codes/egraph_isa_compiler_codesign/benchmark/automotive/basicmath/basicmath_small_O3_clean.s:216
   10d8c:	734080e7          	jalr	1844(ra) # 124bc <__adddf3>
/home/allenjin/Codes/egraph_isa_compiler_codesign/benchmark/automotive/basicmath/basicmath_small_O3_clean.s:217
   10d90:	00040613          	mv	a2,s0
/home/allenjin/Codes/egraph_isa_compiler_codesign/benchmark/automotive/basicmath/basicmath_small_O3_clean.s:218
   10d94:	00048693          	mv	a3,s1
/home/allenjin/Codes/egraph_isa_compiler_codesign/benchmark/automotive/basicmath/basicmath_small_O3_clean.s:220
   10d98:	00002097          	auipc	ra,0x2
/home/allenjin/Codes/egraph_isa_compiler_codesign/benchmark/automotive/basicmath/basicmath_small_O3_clean.s:221
   10d9c:	774080e7          	jalr	1908(ra) # 1350c <__muldf3>
/home/allenjin/Codes/egraph_isa_compiler_codesign/benchmark/automotive/basicmath/basicmath_small_O3_clean.s:222
   10da0:	000277b7          	lui	a5,0x27
/home/allenjin/Codes/egraph_isa_compiler_codesign/benchmark/automotive/basicmath/basicmath_small_O3_clean.s:223
   10da4:	7287a603          	lw	a2,1832(a5) # 27728 <__SDATA_BEGIN__+0x70>
/home/allenjin/Codes/egraph_isa_compiler_codesign/benchmark/automotive/basicmath/basicmath_small_O3_clean.s:224
   10da8:	72c7a683          	lw	a3,1836(a5)
/home/allenjin/Codes/egraph_isa_compiler_codesign/benchmark/automotive/basicmath/basicmath_small_O3_clean.s:226
   10dac:	00003097          	auipc	ra,0x3
/home/allenjin/Codes/egraph_isa_compiler_codesign/benchmark/automotive/basicmath/basicmath_small_O3_clean.s:227
   10db0:	d58080e7          	jalr	-680(ra) # 13b04 <__subdf3>
/home/allenjin/Codes/egraph_isa_compiler_codesign/benchmark/automotive/basicmath/basicmath_small_O3_clean.s:228
   10db4:	00040613          	mv	a2,s0
/home/allenjin/Codes/egraph_isa_compiler_codesign/benchmark/automotive/basicmath/basicmath_small_O3_clean.s:229
   10db8:	00048693          	mv	a3,s1
/home/allenjin/Codes/egraph_isa_compiler_codesign/benchmark/automotive/basicmath/basicmath_small_O3_clean.s:231
   10dbc:	00002097          	auipc	ra,0x2
/home/allenjin/Codes/egraph_isa_compiler_codesign/benchmark/automotive/basicmath/basicmath_small_O3_clean.s:232
   10dc0:	750080e7          	jalr	1872(ra) # 1350c <__muldf3>
/home/allenjin/Codes/egraph_isa_compiler_codesign/benchmark/automotive/basicmath/basicmath_small_O3_clean.s:233
   10dc4:	000277b7          	lui	a5,0x27
/home/allenjin/Codes/egraph_isa_compiler_codesign/benchmark/automotive/basicmath/basicmath_small_O3_clean.s:234
   10dc8:	7307a603          	lw	a2,1840(a5) # 27730 <__SDATA_BEGIN__+0x78>
/home/allenjin/Codes/egraph_isa_compiler_codesign/benchmark/automotive/basicmath/basicmath_small_O3_clean.s:235
   10dcc:	7347a683          	lw	a3,1844(a5)
/home/allenjin/Codes/egraph_isa_compiler_codesign/benchmark/automotive/basicmath/basicmath_small_O3_clean.s:237
   10dd0:	00001097          	auipc	ra,0x1
/home/allenjin/Codes/egraph_isa_compiler_codesign/benchmark/automotive/basicmath/basicmath_small_O3_clean.s:238
   10dd4:	6ec080e7          	jalr	1772(ra) # 124bc <__adddf3>
/home/allenjin/Codes/egraph_isa_compiler_codesign/benchmark/automotive/basicmath/basicmath_small_O3_clean.s:239
   10dd8:	00040613          	mv	a2,s0
/home/allenjin/Codes/egraph_isa_compiler_codesign/benchmark/automotive/basicmath/basicmath_small_O3_clean.s:240
   10ddc:	00048693          	mv	a3,s1
/home/allenjin/Codes/egraph_isa_compiler_codesign/benchmark/automotive/basicmath/basicmath_small_O3_clean.s:242
   10de0:	00002097          	auipc	ra,0x2
/home/allenjin/Codes/egraph_isa_compiler_codesign/benchmark/automotive/basicmath/basicmath_small_O3_clean.s:243
   10de4:	72c080e7          	jalr	1836(ra) # 1350c <__muldf3>
/home/allenjin/Codes/egraph_isa_compiler_codesign/benchmark/automotive/basicmath/basicmath_small_O3_clean.s:244
   10de8:	6c0a2603          	lw	a2,1728(s4)
/home/allenjin/Codes/egraph_isa_compiler_codesign/benchmark/automotive/basicmath/basicmath_small_O3_clean.s:245
   10dec:	6c4a2683          	lw	a3,1732(s4)
/home/allenjin/Codes/egraph_isa_compiler_codesign/benchmark/automotive/basicmath/basicmath_small_O3_clean.s:247
   10df0:	00003097          	auipc	ra,0x3
/home/allenjin/Codes/egraph_isa_compiler_codesign/benchmark/automotive/basicmath/basicmath_small_O3_clean.s:248
   10df4:	d14080e7          	jalr	-748(ra) # 13b04 <__subdf3>
/home/allenjin/Codes/egraph_isa_compiler_codesign/benchmark/automotive/basicmath/basicmath_small_O3_clean.s:249
   10df8:	00040613          	mv	a2,s0
/home/allenjin/Codes/egraph_isa_compiler_codesign/benchmark/automotive/basicmath/basicmath_small_O3_clean.s:250
   10dfc:	00048693          	mv	a3,s1
/home/allenjin/Codes/egraph_isa_compiler_codesign/benchmark/automotive/basicmath/basicmath_small_O3_clean.s:252
   10e00:	00002097          	auipc	ra,0x2
/home/allenjin/Codes/egraph_isa_compiler_codesign/benchmark/automotive/basicmath/basicmath_small_O3_clean.s:253
   10e04:	70c080e7          	jalr	1804(ra) # 1350c <__muldf3>
/home/allenjin/Codes/egraph_isa_compiler_codesign/benchmark/automotive/basicmath/basicmath_small_O3_clean.s:254
   10e08:	000277b7          	lui	a5,0x27
/home/allenjin/Codes/egraph_isa_compiler_codesign/benchmark/automotive/basicmath/basicmath_small_O3_clean.s:255
   10e0c:	73c7a683          	lw	a3,1852(a5) # 2773c <__SDATA_BEGIN__+0x84>
/home/allenjin/Codes/egraph_isa_compiler_codesign/benchmark/automotive/basicmath/basicmath_small_O3_clean.s:256
   10e10:	7387a603          	lw	a2,1848(a5)
/home/allenjin/Codes/egraph_isa_compiler_codesign/benchmark/automotive/basicmath/basicmath_small_O3_clean.s:258
   10e14:	00001097          	auipc	ra,0x1
/home/allenjin/Codes/egraph_isa_compiler_codesign/benchmark/automotive/basicmath/basicmath_small_O3_clean.s:259
   10e18:	6a8080e7          	jalr	1704(ra) # 124bc <__adddf3>
/home/allenjin/Codes/egraph_isa_compiler_codesign/benchmark/automotive/basicmath/basicmath_small_O3_clean.s:260
   10e1c:	00200693          	li	a3,2
/home/allenjin/Codes/egraph_isa_compiler_codesign/benchmark/automotive/basicmath/basicmath_small_O3_clean.s:261
   10e20:	00058793          	mv	a5,a1
/home/allenjin/Codes/egraph_isa_compiler_codesign/benchmark/automotive/basicmath/basicmath_small_O3_clean.s:262
   10e24:	04d90263          	beq	s2,a3,10e68 <my_cos+0x398>
/home/allenjin/Codes/egraph_isa_compiler_codesign/benchmark/automotive/basicmath/basicmath_small_O3_clean.s:263
   10e28:	00090663          	beqz	s2,10e34 <my_cos+0x364>
/home/allenjin/Codes/egraph_isa_compiler_codesign/benchmark/automotive/basicmath/basicmath_small_O3_clean.s:264
   10e2c:	00098513          	mv	a0,s3
/home/allenjin/Codes/egraph_isa_compiler_codesign/benchmark/automotive/basicmath/basicmath_small_O3_clean.s:265
   10e30:	000a8793          	mv	a5,s5
/home/allenjin/Codes/egraph_isa_compiler_codesign/benchmark/automotive/basicmath/basicmath_small_O3_clean.s:267
   10e34:	02c12083          	lw	ra,44(sp)
/home/allenjin/Codes/egraph_isa_compiler_codesign/benchmark/automotive/basicmath/basicmath_small_O3_clean.s:268
   10e38:	02812403          	lw	s0,40(sp)
/home/allenjin/Codes/egraph_isa_compiler_codesign/benchmark/automotive/basicmath/basicmath_small_O3_clean.s:269
   10e3c:	02412483          	lw	s1,36(sp)
/home/allenjin/Codes/egraph_isa_compiler_codesign/benchmark/automotive/basicmath/basicmath_small_O3_clean.s:270
   10e40:	02012903          	lw	s2,32(sp)
/home/allenjin/Codes/egraph_isa_compiler_codesign/benchmark/automotive/basicmath/basicmath_small_O3_clean.s:271
   10e44:	01c12983          	lw	s3,28(sp)
/home/allenjin/Codes/egraph_isa_compiler_codesign/benchmark/automotive/basicmath/basicmath_small_O3_clean.s:272
   10e48:	01812a03          	lw	s4,24(sp)
/home/allenjin/Codes/egraph_isa_compiler_codesign/benchmark/automotive/basicmath/basicmath_small_O3_clean.s:273
   10e4c:	01412a83          	lw	s5,20(sp)
/home/allenjin/Codes/egraph_isa_compiler_codesign/benchmark/automotive/basicmath/basicmath_small_O3_clean.s:274
   10e50:	01012b03          	lw	s6,16(sp)
/home/allenjin/Codes/egraph_isa_compiler_codesign/benchmark/automotive/basicmath/basicmath_small_O3_clean.s:275
   10e54:	00c12b83          	lw	s7,12(sp)
/home/allenjin/Codes/egraph_isa_compiler_codesign/benchmark/automotive/basicmath/basicmath_small_O3_clean.s:276
   10e58:	00812c03          	lw	s8,8(sp)
/home/allenjin/Codes/egraph_isa_compiler_codesign/benchmark/automotive/basicmath/basicmath_small_O3_clean.s:277
   10e5c:	00078593          	mv	a1,a5
/home/allenjin/Codes/egraph_isa_compiler_codesign/benchmark/automotive/basicmath/basicmath_small_O3_clean.s:278
   10e60:	03010113          	addi	sp,sp,48
/home/allenjin/Codes/egraph_isa_compiler_codesign/benchmark/automotive/basicmath/basicmath_small_O3_clean.s:279
   10e64:	00008067          	ret
/home/allenjin/Codes/egraph_isa_compiler_codesign/benchmark/automotive/basicmath/basicmath_small_O3_clean.s:281
   10e68:	800007b7          	lui	a5,0x80000
/home/allenjin/Codes/egraph_isa_compiler_codesign/benchmark/automotive/basicmath/basicmath_small_O3_clean.s:282
   10e6c:	00b7c7b3          	xor	a5,a5,a1
/home/allenjin/Codes/egraph_isa_compiler_codesign/benchmark/automotive/basicmath/basicmath_small_O3_clean.s:283
   10e70:	fc5ff06f          	j	10e34 <my_cos+0x364>
/home/allenjin/Codes/egraph_isa_compiler_codesign/benchmark/automotive/basicmath/basicmath_small_O3_clean.s:285
   10e74:	6c0a2603          	lw	a2,1728(s4)
/home/allenjin/Codes/egraph_isa_compiler_codesign/benchmark/automotive/basicmath/basicmath_small_O3_clean.s:286
   10e78:	6c4a2683          	lw	a3,1732(s4)
/home/allenjin/Codes/egraph_isa_compiler_codesign/benchmark/automotive/basicmath/basicmath_small_O3_clean.s:287
   10e7c:	00090513          	mv	a0,s2
/home/allenjin/Codes/egraph_isa_compiler_codesign/benchmark/automotive/basicmath/basicmath_small_O3_clean.s:288
   10e80:	00098593          	mv	a1,s3
/home/allenjin/Codes/egraph_isa_compiler_codesign/benchmark/automotive/basicmath/basicmath_small_O3_clean.s:290
   10e84:	00003097          	auipc	ra,0x3
/home/allenjin/Codes/egraph_isa_compiler_codesign/benchmark/automotive/basicmath/basicmath_small_O3_clean.s:291
   10e88:	c80080e7          	jalr	-896(ra) # 13b04 <__subdf3>
/home/allenjin/Codes/egraph_isa_compiler_codesign/benchmark/automotive/basicmath/basicmath_small_O3_clean.s:292
   10e8c:	00050713          	mv	a4,a0
/home/allenjin/Codes/egraph_isa_compiler_codesign/benchmark/automotive/basicmath/basicmath_small_O3_clean.s:293
   10e90:	00058793          	mv	a5,a1
/home/allenjin/Codes/egraph_isa_compiler_codesign/benchmark/automotive/basicmath/basicmath_small_O3_clean.s:294
   10e94:	cc5ff06f          	j	10b58 <my_cos+0x88>
/home/allenjin/Codes/egraph_isa_compiler_codesign/benchmark/automotive/basicmath/basicmath_small_O3_clean.s:296
   10e98:	800007b7          	lui	a5,0x80000
/home/allenjin/Codes/egraph_isa_compiler_codesign/benchmark/automotive/basicmath/basicmath_small_O3_clean.s:297
   10e9c:	00b7c7b3          	xor	a5,a5,a1
/home/allenjin/Codes/egraph_isa_compiler_codesign/benchmark/automotive/basicmath/basicmath_small_O3_clean.s:298
   10ea0:	f95ff06f          	j	10e34 <my_cos+0x364>

00010ea4 <SolveCubic>:
SolveCubic():
/home/allenjin/Codes/egraph_isa_compiler_codesign/benchmark/automotive/basicmath/basicmath_small_O3_clean.s:303
   10ea4:	ee010113          	addi	sp,sp,-288
/home/allenjin/Codes/egraph_isa_compiler_codesign/benchmark/automotive/basicmath/basicmath_small_O3_clean.s:304
   10ea8:	11212823          	sw	s2,272(sp)
/home/allenjin/Codes/egraph_isa_compiler_codesign/benchmark/automotive/basicmath/basicmath_small_O3_clean.s:305
   10eac:	11312623          	sw	s3,268(sp)
/home/allenjin/Codes/egraph_isa_compiler_codesign/benchmark/automotive/basicmath/basicmath_small_O3_clean.s:306
   10eb0:	00050913          	mv	s2,a0
/home/allenjin/Codes/egraph_isa_compiler_codesign/benchmark/automotive/basicmath/basicmath_small_O3_clean.s:307
   10eb4:	00058993          	mv	s3,a1
/home/allenjin/Codes/egraph_isa_compiler_codesign/benchmark/automotive/basicmath/basicmath_small_O3_clean.s:308
   10eb8:	00060513          	mv	a0,a2
/home/allenjin/Codes/egraph_isa_compiler_codesign/benchmark/automotive/basicmath/basicmath_small_O3_clean.s:309
   10ebc:	00068593          	mv	a1,a3
/home/allenjin/Codes/egraph_isa_compiler_codesign/benchmark/automotive/basicmath/basicmath_small_O3_clean.s:310
   10ec0:	00090613          	mv	a2,s2
/home/allenjin/Codes/egraph_isa_compiler_codesign/benchmark/automotive/basicmath/basicmath_small_O3_clean.s:311
   10ec4:	00098693          	mv	a3,s3
/home/allenjin/Codes/egraph_isa_compiler_codesign/benchmark/automotive/basicmath/basicmath_small_O3_clean.s:312
   10ec8:	10112e23          	sw	ra,284(sp)
/home/allenjin/Codes/egraph_isa_compiler_codesign/benchmark/automotive/basicmath/basicmath_small_O3_clean.s:313
   10ecc:	01012423          	sw	a6,8(sp)
/home/allenjin/Codes/egraph_isa_compiler_codesign/benchmark/automotive/basicmath/basicmath_small_O3_clean.s:314
   10ed0:	01112623          	sw	a7,12(sp)
/home/allenjin/Codes/egraph_isa_compiler_codesign/benchmark/automotive/basicmath/basicmath_small_O3_clean.s:315
   10ed4:	10812c23          	sw	s0,280(sp)
/home/allenjin/Codes/egraph_isa_compiler_codesign/benchmark/automotive/basicmath/basicmath_small_O3_clean.s:316
   10ed8:	10912a23          	sw	s1,276(sp)
/home/allenjin/Codes/egraph_isa_compiler_codesign/benchmark/automotive/basicmath/basicmath_small_O3_clean.s:317
   10edc:	00070413          	mv	s0,a4
/home/allenjin/Codes/egraph_isa_compiler_codesign/benchmark/automotive/basicmath/basicmath_small_O3_clean.s:318
   10ee0:	00078493          	mv	s1,a5
/home/allenjin/Codes/egraph_isa_compiler_codesign/benchmark/automotive/basicmath/basicmath_small_O3_clean.s:319
   10ee4:	11412423          	sw	s4,264(sp)
/home/allenjin/Codes/egraph_isa_compiler_codesign/benchmark/automotive/basicmath/basicmath_small_O3_clean.s:320
   10ee8:	11512223          	sw	s5,260(sp)
/home/allenjin/Codes/egraph_isa_compiler_codesign/benchmark/automotive/basicmath/basicmath_small_O3_clean.s:321
   10eec:	11612023          	sw	s6,256(sp)
/home/allenjin/Codes/egraph_isa_compiler_codesign/benchmark/automotive/basicmath/basicmath_small_O3_clean.s:322
   10ef0:	0f712e23          	sw	s7,252(sp)
/home/allenjin/Codes/egraph_isa_compiler_codesign/benchmark/automotive/basicmath/basicmath_small_O3_clean.s:323
   10ef4:	0f812c23          	sw	s8,248(sp)
/home/allenjin/Codes/egraph_isa_compiler_codesign/benchmark/automotive/basicmath/basicmath_small_O3_clean.s:324
   10ef8:	0f912a23          	sw	s9,244(sp)
/home/allenjin/Codes/egraph_isa_compiler_codesign/benchmark/automotive/basicmath/basicmath_small_O3_clean.s:325
   10efc:	0fa12823          	sw	s10,240(sp)
/home/allenjin/Codes/egraph_isa_compiler_codesign/benchmark/automotive/basicmath/basicmath_small_O3_clean.s:326
   10f00:	0fb12623          	sw	s11,236(sp)
/home/allenjin/Codes/egraph_isa_compiler_codesign/benchmark/automotive/basicmath/basicmath_small_O3_clean.s:328
   10f04:	00002097          	auipc	ra,0x2
/home/allenjin/Codes/egraph_isa_compiler_codesign/benchmark/automotive/basicmath/basicmath_small_O3_clean.s:329
   10f08:	d0c080e7          	jalr	-756(ra) # 12c10 <__divdf3>
/home/allenjin/Codes/egraph_isa_compiler_codesign/benchmark/automotive/basicmath/basicmath_small_O3_clean.s:330
   10f0c:	00058613          	mv	a2,a1
/home/allenjin/Codes/egraph_isa_compiler_codesign/benchmark/automotive/basicmath/basicmath_small_O3_clean.s:331
   10f10:	00a12823          	sw	a0,16(sp)
/home/allenjin/Codes/egraph_isa_compiler_codesign/benchmark/automotive/basicmath/basicmath_small_O3_clean.s:332
   10f14:	00050593          	mv	a1,a0
/home/allenjin/Codes/egraph_isa_compiler_codesign/benchmark/automotive/basicmath/basicmath_small_O3_clean.s:333
   10f18:	0d010513          	addi	a0,sp,208
/home/allenjin/Codes/egraph_isa_compiler_codesign/benchmark/automotive/basicmath/basicmath_small_O3_clean.s:334
   10f1c:	00c12a23          	sw	a2,20(sp)
/home/allenjin/Codes/egraph_isa_compiler_codesign/benchmark/automotive/basicmath/basicmath_small_O3_clean.s:336
   10f20:	00008097          	auipc	ra,0x8
/home/allenjin/Codes/egraph_isa_compiler_codesign/benchmark/automotive/basicmath/basicmath_small_O3_clean.s:337
   10f24:	8c4080e7          	jalr	-1852(ra) # 187e4 <__extenddftf2>
/home/allenjin/Codes/egraph_isa_compiler_codesign/benchmark/automotive/basicmath/basicmath_small_O3_clean.s:338
   10f28:	00098693          	mv	a3,s3
/home/allenjin/Codes/egraph_isa_compiler_codesign/benchmark/automotive/basicmath/basicmath_small_O3_clean.s:339
   10f2c:	00090613          	mv	a2,s2
/home/allenjin/Codes/egraph_isa_compiler_codesign/benchmark/automotive/basicmath/basicmath_small_O3_clean.s:340
   10f30:	00040513          	mv	a0,s0
/home/allenjin/Codes/egraph_isa_compiler_codesign/benchmark/automotive/basicmath/basicmath_small_O3_clean.s:341
   10f34:	00048593          	mv	a1,s1
/home/allenjin/Codes/egraph_isa_compiler_codesign/benchmark/automotive/basicmath/basicmath_small_O3_clean.s:342
   10f38:	01212023          	sw	s2,0(sp)
/home/allenjin/Codes/egraph_isa_compiler_codesign/benchmark/automotive/basicmath/basicmath_small_O3_clean.s:343
   10f3c:	01312223          	sw	s3,4(sp)
/home/allenjin/Codes/egraph_isa_compiler_codesign/benchmark/automotive/basicmath/basicmath_small_O3_clean.s:345
   10f40:	00002097          	auipc	ra,0x2
/home/allenjin/Codes/egraph_isa_compiler_codesign/benchmark/automotive/basicmath/basicmath_small_O3_clean.s:346
   10f44:	cd0080e7          	jalr	-816(ra) # 12c10 <__divdf3>
/home/allenjin/Codes/egraph_isa_compiler_codesign/benchmark/automotive/basicmath/basicmath_small_O3_clean.s:347
   10f48:	0d012c83          	lw	s9,208(sp)
/home/allenjin/Codes/egraph_isa_compiler_codesign/benchmark/automotive/basicmath/basicmath_small_O3_clean.s:348
   10f4c:	0d412c03          	lw	s8,212(sp)
/home/allenjin/Codes/egraph_isa_compiler_codesign/benchmark/automotive/basicmath/basicmath_small_O3_clean.s:349
   10f50:	0d812a83          	lw	s5,216(sp)
/home/allenjin/Codes/egraph_isa_compiler_codesign/benchmark/automotive/basicmath/basicmath_small_O3_clean.s:350
   10f54:	0dc12483          	lw	s1,220(sp)
/home/allenjin/Codes/egraph_isa_compiler_codesign/benchmark/automotive/basicmath/basicmath_small_O3_clean.s:351
   10f58:	00058613          	mv	a2,a1
/home/allenjin/Codes/egraph_isa_compiler_codesign/benchmark/automotive/basicmath/basicmath_small_O3_clean.s:352
   10f5c:	00050593          	mv	a1,a0
/home/allenjin/Codes/egraph_isa_compiler_codesign/benchmark/automotive/basicmath/basicmath_small_O3_clean.s:353
   10f60:	0d010513          	addi	a0,sp,208
/home/allenjin/Codes/egraph_isa_compiler_codesign/benchmark/automotive/basicmath/basicmath_small_O3_clean.s:355
   10f64:	00008097          	auipc	ra,0x8
/home/allenjin/Codes/egraph_isa_compiler_codesign/benchmark/automotive/basicmath/basicmath_small_O3_clean.s:356
   10f68:	880080e7          	jalr	-1920(ra) # 187e4 <__extenddftf2>
/home/allenjin/Codes/egraph_isa_compiler_codesign/benchmark/automotive/basicmath/basicmath_small_O3_clean.s:357
   10f6c:	0c010593          	addi	a1,sp,192
/home/allenjin/Codes/egraph_isa_compiler_codesign/benchmark/automotive/basicmath/basicmath_small_O3_clean.s:358
   10f70:	0d012d03          	lw	s10,208(sp)
/home/allenjin/Codes/egraph_isa_compiler_codesign/benchmark/automotive/basicmath/basicmath_small_O3_clean.s:359
   10f74:	0d412d83          	lw	s11,212(sp)
/home/allenjin/Codes/egraph_isa_compiler_codesign/benchmark/automotive/basicmath/basicmath_small_O3_clean.s:360
   10f78:	0d812b83          	lw	s7,216(sp)
/home/allenjin/Codes/egraph_isa_compiler_codesign/benchmark/automotive/basicmath/basicmath_small_O3_clean.s:361
   10f7c:	0dc12b03          	lw	s6,220(sp)
/home/allenjin/Codes/egraph_isa_compiler_codesign/benchmark/automotive/basicmath/basicmath_small_O3_clean.s:362
   10f80:	0b010613          	addi	a2,sp,176
/home/allenjin/Codes/egraph_isa_compiler_codesign/benchmark/automotive/basicmath/basicmath_small_O3_clean.s:363
   10f84:	0d010513          	addi	a0,sp,208
/home/allenjin/Codes/egraph_isa_compiler_codesign/benchmark/automotive/basicmath/basicmath_small_O3_clean.s:364
   10f88:	0d912023          	sw	s9,192(sp)
/home/allenjin/Codes/egraph_isa_compiler_codesign/benchmark/automotive/basicmath/basicmath_small_O3_clean.s:365
   10f8c:	0d812223          	sw	s8,196(sp)
/home/allenjin/Codes/egraph_isa_compiler_codesign/benchmark/automotive/basicmath/basicmath_small_O3_clean.s:366
   10f90:	0d512423          	sw	s5,200(sp)
/home/allenjin/Codes/egraph_isa_compiler_codesign/benchmark/automotive/basicmath/basicmath_small_O3_clean.s:367
   10f94:	0c912623          	sw	s1,204(sp)
/home/allenjin/Codes/egraph_isa_compiler_codesign/benchmark/automotive/basicmath/basicmath_small_O3_clean.s:368
   10f98:	0b912823          	sw	s9,176(sp)
/home/allenjin/Codes/egraph_isa_compiler_codesign/benchmark/automotive/basicmath/basicmath_small_O3_clean.s:369
   10f9c:	0b812a23          	sw	s8,180(sp)
/home/allenjin/Codes/egraph_isa_compiler_codesign/benchmark/automotive/basicmath/basicmath_small_O3_clean.s:370
   10fa0:	0b512c23          	sw	s5,184(sp)
/home/allenjin/Codes/egraph_isa_compiler_codesign/benchmark/automotive/basicmath/basicmath_small_O3_clean.s:371
   10fa4:	0a912e23          	sw	s1,188(sp)
/home/allenjin/Codes/egraph_isa_compiler_codesign/benchmark/automotive/basicmath/basicmath_small_O3_clean.s:373
   10fa8:	00005097          	auipc	ra,0x5
/home/allenjin/Codes/egraph_isa_compiler_codesign/benchmark/automotive/basicmath/basicmath_small_O3_clean.s:374
   10fac:	5b4080e7          	jalr	1460(ra) # 1655c <__multf3>
/home/allenjin/Codes/egraph_isa_compiler_codesign/benchmark/automotive/basicmath/basicmath_small_O3_clean.s:375
   10fb0:	400087b7          	lui	a5,0x40008
/home/allenjin/Codes/egraph_isa_compiler_codesign/benchmark/automotive/basicmath/basicmath_small_O3_clean.s:376
   10fb4:	0a010613          	addi	a2,sp,160
/home/allenjin/Codes/egraph_isa_compiler_codesign/benchmark/automotive/basicmath/basicmath_small_O3_clean.s:377
   10fb8:	0b010593          	addi	a1,sp,176
/home/allenjin/Codes/egraph_isa_compiler_codesign/benchmark/automotive/basicmath/basicmath_small_O3_clean.s:378
   10fbc:	0c010513          	addi	a0,sp,192
/home/allenjin/Codes/egraph_isa_compiler_codesign/benchmark/automotive/basicmath/basicmath_small_O3_clean.s:379
   10fc0:	0d012a03          	lw	s4,208(sp)
/home/allenjin/Codes/egraph_isa_compiler_codesign/benchmark/automotive/basicmath/basicmath_small_O3_clean.s:380
   10fc4:	0d412983          	lw	s3,212(sp)
/home/allenjin/Codes/egraph_isa_compiler_codesign/benchmark/automotive/basicmath/basicmath_small_O3_clean.s:381
   10fc8:	0d812903          	lw	s2,216(sp)
/home/allenjin/Codes/egraph_isa_compiler_codesign/benchmark/automotive/basicmath/basicmath_small_O3_clean.s:382
   10fcc:	0dc12403          	lw	s0,220(sp)
/home/allenjin/Codes/egraph_isa_compiler_codesign/benchmark/automotive/basicmath/basicmath_small_O3_clean.s:383
   10fd0:	0af12623          	sw	a5,172(sp)
/home/allenjin/Codes/egraph_isa_compiler_codesign/benchmark/automotive/basicmath/basicmath_small_O3_clean.s:384
   10fd4:	0ba12823          	sw	s10,176(sp)
/home/allenjin/Codes/egraph_isa_compiler_codesign/benchmark/automotive/basicmath/basicmath_small_O3_clean.s:385
   10fd8:	0bb12a23          	sw	s11,180(sp)
/home/allenjin/Codes/egraph_isa_compiler_codesign/benchmark/automotive/basicmath/basicmath_small_O3_clean.s:386
   10fdc:	0b712c23          	sw	s7,184(sp)
/home/allenjin/Codes/egraph_isa_compiler_codesign/benchmark/automotive/basicmath/basicmath_small_O3_clean.s:387
   10fe0:	0b612e23          	sw	s6,188(sp)
/home/allenjin/Codes/egraph_isa_compiler_codesign/benchmark/automotive/basicmath/basicmath_small_O3_clean.s:388
   10fe4:	0a012023          	sw	zero,160(sp)
/home/allenjin/Codes/egraph_isa_compiler_codesign/benchmark/automotive/basicmath/basicmath_small_O3_clean.s:389
   10fe8:	0a012223          	sw	zero,164(sp)
/home/allenjin/Codes/egraph_isa_compiler_codesign/benchmark/automotive/basicmath/basicmath_small_O3_clean.s:390
   10fec:	0a012423          	sw	zero,168(sp)
/home/allenjin/Codes/egraph_isa_compiler_codesign/benchmark/automotive/basicmath/basicmath_small_O3_clean.s:392
   10ff0:	00005097          	auipc	ra,0x5
/home/allenjin/Codes/egraph_isa_compiler_codesign/benchmark/automotive/basicmath/basicmath_small_O3_clean.s:393
   10ff4:	56c080e7          	jalr	1388(ra) # 1655c <__multf3>
/home/allenjin/Codes/egraph_isa_compiler_codesign/benchmark/automotive/basicmath/basicmath_small_O3_clean.s:394
   10ff8:	0c812783          	lw	a5,200(sp)
/home/allenjin/Codes/egraph_isa_compiler_codesign/benchmark/automotive/basicmath/basicmath_small_O3_clean.s:395
   10ffc:	0c012683          	lw	a3,192(sp)
/home/allenjin/Codes/egraph_isa_compiler_codesign/benchmark/automotive/basicmath/basicmath_small_O3_clean.s:396
   11000:	0c412703          	lw	a4,196(sp)
/home/allenjin/Codes/egraph_isa_compiler_codesign/benchmark/automotive/basicmath/basicmath_small_O3_clean.s:397
   11004:	08f12c23          	sw	a5,152(sp)
/home/allenjin/Codes/egraph_isa_compiler_codesign/benchmark/automotive/basicmath/basicmath_small_O3_clean.s:398
   11008:	0cc12783          	lw	a5,204(sp)
/home/allenjin/Codes/egraph_isa_compiler_codesign/benchmark/automotive/basicmath/basicmath_small_O3_clean.s:399
   1100c:	09010613          	addi	a2,sp,144
/home/allenjin/Codes/egraph_isa_compiler_codesign/benchmark/automotive/basicmath/basicmath_small_O3_clean.s:400
   11010:	0a010593          	addi	a1,sp,160
/home/allenjin/Codes/egraph_isa_compiler_codesign/benchmark/automotive/basicmath/basicmath_small_O3_clean.s:401
   11014:	0b010513          	addi	a0,sp,176
/home/allenjin/Codes/egraph_isa_compiler_codesign/benchmark/automotive/basicmath/basicmath_small_O3_clean.s:402
   11018:	0b412023          	sw	s4,160(sp)
/home/allenjin/Codes/egraph_isa_compiler_codesign/benchmark/automotive/basicmath/basicmath_small_O3_clean.s:403
   1101c:	0b312223          	sw	s3,164(sp)
/home/allenjin/Codes/egraph_isa_compiler_codesign/benchmark/automotive/basicmath/basicmath_small_O3_clean.s:404
   11020:	0b212423          	sw	s2,168(sp)
/home/allenjin/Codes/egraph_isa_compiler_codesign/benchmark/automotive/basicmath/basicmath_small_O3_clean.s:405
   11024:	0a812623          	sw	s0,172(sp)
/home/allenjin/Codes/egraph_isa_compiler_codesign/benchmark/automotive/basicmath/basicmath_small_O3_clean.s:406
   11028:	08d12823          	sw	a3,144(sp)
/home/allenjin/Codes/egraph_isa_compiler_codesign/benchmark/automotive/basicmath/basicmath_small_O3_clean.s:407
   1102c:	08e12a23          	sw	a4,148(sp)
/home/allenjin/Codes/egraph_isa_compiler_codesign/benchmark/automotive/basicmath/basicmath_small_O3_clean.s:408
   11030:	08f12e23          	sw	a5,156(sp)
/home/allenjin/Codes/egraph_isa_compiler_codesign/benchmark/automotive/basicmath/basicmath_small_O3_clean.s:410
   11034:	00006097          	auipc	ra,0x6
/home/allenjin/Codes/egraph_isa_compiler_codesign/benchmark/automotive/basicmath/basicmath_small_O3_clean.s:411
   11038:	488080e7          	jalr	1160(ra) # 174bc <__subtf3>
/home/allenjin/Codes/egraph_isa_compiler_codesign/benchmark/automotive/basicmath/basicmath_small_O3_clean.s:412
   1103c:	0b412703          	lw	a4,180(sp)
/home/allenjin/Codes/egraph_isa_compiler_codesign/benchmark/automotive/basicmath/basicmath_small_O3_clean.s:413
   11040:	0b812783          	lw	a5,184(sp)
/home/allenjin/Codes/egraph_isa_compiler_codesign/benchmark/automotive/basicmath/basicmath_small_O3_clean.s:414
   11044:	0b012683          	lw	a3,176(sp)
/home/allenjin/Codes/egraph_isa_compiler_codesign/benchmark/automotive/basicmath/basicmath_small_O3_clean.s:415
   11048:	08e12a23          	sw	a4,148(sp)
/home/allenjin/Codes/egraph_isa_compiler_codesign/benchmark/automotive/basicmath/basicmath_small_O3_clean.s:416
   1104c:	0bc12703          	lw	a4,188(sp)
/home/allenjin/Codes/egraph_isa_compiler_codesign/benchmark/automotive/basicmath/basicmath_small_O3_clean.s:417
   11050:	08f12c23          	sw	a5,152(sp)
/home/allenjin/Codes/egraph_isa_compiler_codesign/benchmark/automotive/basicmath/basicmath_small_O3_clean.s:418
   11054:	08010613          	addi	a2,sp,128
/home/allenjin/Codes/egraph_isa_compiler_codesign/benchmark/automotive/basicmath/basicmath_small_O3_clean.s:419
   11058:	400227b7          	lui	a5,0x40022
/home/allenjin/Codes/egraph_isa_compiler_codesign/benchmark/automotive/basicmath/basicmath_small_O3_clean.s:420
   1105c:	09010593          	addi	a1,sp,144
/home/allenjin/Codes/egraph_isa_compiler_codesign/benchmark/automotive/basicmath/basicmath_small_O3_clean.s:421
   11060:	0a010513          	addi	a0,sp,160
/home/allenjin/Codes/egraph_isa_compiler_codesign/benchmark/automotive/basicmath/basicmath_small_O3_clean.s:422
   11064:	08f12623          	sw	a5,140(sp)
/home/allenjin/Codes/egraph_isa_compiler_codesign/benchmark/automotive/basicmath/basicmath_small_O3_clean.s:423
   11068:	08d12823          	sw	a3,144(sp)
/home/allenjin/Codes/egraph_isa_compiler_codesign/benchmark/automotive/basicmath/basicmath_small_O3_clean.s:424
   1106c:	08e12e23          	sw	a4,156(sp)
/home/allenjin/Codes/egraph_isa_compiler_codesign/benchmark/automotive/basicmath/basicmath_small_O3_clean.s:425
   11070:	08012023          	sw	zero,128(sp)
/home/allenjin/Codes/egraph_isa_compiler_codesign/benchmark/automotive/basicmath/basicmath_small_O3_clean.s:426
   11074:	08012223          	sw	zero,132(sp)
/home/allenjin/Codes/egraph_isa_compiler_codesign/benchmark/automotive/basicmath/basicmath_small_O3_clean.s:427
   11078:	08012423          	sw	zero,136(sp)
/home/allenjin/Codes/egraph_isa_compiler_codesign/benchmark/automotive/basicmath/basicmath_small_O3_clean.s:429
   1107c:	00004097          	auipc	ra,0x4
/home/allenjin/Codes/egraph_isa_compiler_codesign/benchmark/automotive/basicmath/basicmath_small_O3_clean.s:430
   11080:	68c080e7          	jalr	1676(ra) # 15708 <__divtf3>
/home/allenjin/Codes/egraph_isa_compiler_codesign/benchmark/automotive/basicmath/basicmath_small_O3_clean.s:431
   11084:	0b010613          	addi	a2,sp,176
/home/allenjin/Codes/egraph_isa_compiler_codesign/benchmark/automotive/basicmath/basicmath_small_O3_clean.s:432
   11088:	0c010593          	addi	a1,sp,192
/home/allenjin/Codes/egraph_isa_compiler_codesign/benchmark/automotive/basicmath/basicmath_small_O3_clean.s:433
   1108c:	0d010513          	addi	a0,sp,208
/home/allenjin/Codes/egraph_isa_compiler_codesign/benchmark/automotive/basicmath/basicmath_small_O3_clean.s:434
   11090:	0a012a03          	lw	s4,160(sp)
/home/allenjin/Codes/egraph_isa_compiler_codesign/benchmark/automotive/basicmath/basicmath_small_O3_clean.s:435
   11094:	0a412983          	lw	s3,164(sp)
/home/allenjin/Codes/egraph_isa_compiler_codesign/benchmark/automotive/basicmath/basicmath_small_O3_clean.s:436
   11098:	0a812903          	lw	s2,168(sp)
/home/allenjin/Codes/egraph_isa_compiler_codesign/benchmark/automotive/basicmath/basicmath_small_O3_clean.s:437
   1109c:	0ac12403          	lw	s0,172(sp)
/home/allenjin/Codes/egraph_isa_compiler_codesign/benchmark/automotive/basicmath/basicmath_small_O3_clean.s:438
   110a0:	0d912023          	sw	s9,192(sp)
/home/allenjin/Codes/egraph_isa_compiler_codesign/benchmark/automotive/basicmath/basicmath_small_O3_clean.s:439
   110a4:	0d812223          	sw	s8,196(sp)
/home/allenjin/Codes/egraph_isa_compiler_codesign/benchmark/automotive/basicmath/basicmath_small_O3_clean.s:440
   110a8:	0d512423          	sw	s5,200(sp)
/home/allenjin/Codes/egraph_isa_compiler_codesign/benchmark/automotive/basicmath/basicmath_small_O3_clean.s:441
   110ac:	0c912623          	sw	s1,204(sp)
/home/allenjin/Codes/egraph_isa_compiler_codesign/benchmark/automotive/basicmath/basicmath_small_O3_clean.s:442
   110b0:	0b912823          	sw	s9,176(sp)
/home/allenjin/Codes/egraph_isa_compiler_codesign/benchmark/automotive/basicmath/basicmath_small_O3_clean.s:443
   110b4:	0b812a23          	sw	s8,180(sp)
/home/allenjin/Codes/egraph_isa_compiler_codesign/benchmark/automotive/basicmath/basicmath_small_O3_clean.s:444
   110b8:	0b512c23          	sw	s5,184(sp)
/home/allenjin/Codes/egraph_isa_compiler_codesign/benchmark/automotive/basicmath/basicmath_small_O3_clean.s:445
   110bc:	0a912e23          	sw	s1,188(sp)
/home/allenjin/Codes/egraph_isa_compiler_codesign/benchmark/automotive/basicmath/basicmath_small_O3_clean.s:447
   110c0:	00003097          	auipc	ra,0x3
/home/allenjin/Codes/egraph_isa_compiler_codesign/benchmark/automotive/basicmath/basicmath_small_O3_clean.s:448
   110c4:	34c080e7          	jalr	844(ra) # 1440c <__addtf3>
/home/allenjin/Codes/egraph_isa_compiler_codesign/benchmark/automotive/basicmath/basicmath_small_O3_clean.s:449
   110c8:	0d812703          	lw	a4,216(sp)
/home/allenjin/Codes/egraph_isa_compiler_codesign/benchmark/automotive/basicmath/basicmath_small_O3_clean.s:450
   110cc:	0d012603          	lw	a2,208(sp)
/home/allenjin/Codes/egraph_isa_compiler_codesign/benchmark/automotive/basicmath/basicmath_small_O3_clean.s:451
   110d0:	0d412683          	lw	a3,212(sp)
/home/allenjin/Codes/egraph_isa_compiler_codesign/benchmark/automotive/basicmath/basicmath_small_O3_clean.s:452
   110d4:	0ae12c23          	sw	a4,184(sp)
/home/allenjin/Codes/egraph_isa_compiler_codesign/benchmark/automotive/basicmath/basicmath_small_O3_clean.s:453
   110d8:	0dc12703          	lw	a4,220(sp)
/home/allenjin/Codes/egraph_isa_compiler_codesign/benchmark/automotive/basicmath/basicmath_small_O3_clean.s:454
   110dc:	0ac12823          	sw	a2,176(sp)
/home/allenjin/Codes/egraph_isa_compiler_codesign/benchmark/automotive/basicmath/basicmath_small_O3_clean.s:455
   110e0:	0b010593          	addi	a1,sp,176
/home/allenjin/Codes/egraph_isa_compiler_codesign/benchmark/automotive/basicmath/basicmath_small_O3_clean.s:456
   110e4:	0a010613          	addi	a2,sp,160
/home/allenjin/Codes/egraph_isa_compiler_codesign/benchmark/automotive/basicmath/basicmath_small_O3_clean.s:457
   110e8:	0c010513          	addi	a0,sp,192
/home/allenjin/Codes/egraph_isa_compiler_codesign/benchmark/automotive/basicmath/basicmath_small_O3_clean.s:458
   110ec:	0b912023          	sw	s9,160(sp)
/home/allenjin/Codes/egraph_isa_compiler_codesign/benchmark/automotive/basicmath/basicmath_small_O3_clean.s:459
   110f0:	0b812223          	sw	s8,164(sp)
/home/allenjin/Codes/egraph_isa_compiler_codesign/benchmark/automotive/basicmath/basicmath_small_O3_clean.s:460
   110f4:	0b512423          	sw	s5,168(sp)
/home/allenjin/Codes/egraph_isa_compiler_codesign/benchmark/automotive/basicmath/basicmath_small_O3_clean.s:461
   110f8:	0a912623          	sw	s1,172(sp)
/home/allenjin/Codes/egraph_isa_compiler_codesign/benchmark/automotive/basicmath/basicmath_small_O3_clean.s:462
   110fc:	0ad12a23          	sw	a3,180(sp)
/home/allenjin/Codes/egraph_isa_compiler_codesign/benchmark/automotive/basicmath/basicmath_small_O3_clean.s:463
   11100:	0ae12e23          	sw	a4,188(sp)
/home/allenjin/Codes/egraph_isa_compiler_codesign/benchmark/automotive/basicmath/basicmath_small_O3_clean.s:465
   11104:	00005097          	auipc	ra,0x5
/home/allenjin/Codes/egraph_isa_compiler_codesign/benchmark/automotive/basicmath/basicmath_small_O3_clean.s:466
   11108:	458080e7          	jalr	1112(ra) # 1655c <__multf3>
/home/allenjin/Codes/egraph_isa_compiler_codesign/benchmark/automotive/basicmath/basicmath_small_O3_clean.s:467
   1110c:	0c812703          	lw	a4,200(sp)
/home/allenjin/Codes/egraph_isa_compiler_codesign/benchmark/automotive/basicmath/basicmath_small_O3_clean.s:468
   11110:	0c012603          	lw	a2,192(sp)
/home/allenjin/Codes/egraph_isa_compiler_codesign/benchmark/automotive/basicmath/basicmath_small_O3_clean.s:469
   11114:	0c412683          	lw	a3,196(sp)
/home/allenjin/Codes/egraph_isa_compiler_codesign/benchmark/automotive/basicmath/basicmath_small_O3_clean.s:470
   11118:	0ae12423          	sw	a4,168(sp)
/home/allenjin/Codes/egraph_isa_compiler_codesign/benchmark/automotive/basicmath/basicmath_small_O3_clean.s:471
   1111c:	0cc12703          	lw	a4,204(sp)
/home/allenjin/Codes/egraph_isa_compiler_codesign/benchmark/automotive/basicmath/basicmath_small_O3_clean.s:472
   11120:	0ac12023          	sw	a2,160(sp)
/home/allenjin/Codes/egraph_isa_compiler_codesign/benchmark/automotive/basicmath/basicmath_small_O3_clean.s:473
   11124:	0a010593          	addi	a1,sp,160
/home/allenjin/Codes/egraph_isa_compiler_codesign/benchmark/automotive/basicmath/basicmath_small_O3_clean.s:474
   11128:	09010613          	addi	a2,sp,144
/home/allenjin/Codes/egraph_isa_compiler_codesign/benchmark/automotive/basicmath/basicmath_small_O3_clean.s:475
   1112c:	0b010513          	addi	a0,sp,176
/home/allenjin/Codes/egraph_isa_compiler_codesign/benchmark/automotive/basicmath/basicmath_small_O3_clean.s:476
   11130:	0ad12223          	sw	a3,164(sp)
/home/allenjin/Codes/egraph_isa_compiler_codesign/benchmark/automotive/basicmath/basicmath_small_O3_clean.s:477
   11134:	0ae12623          	sw	a4,172(sp)
/home/allenjin/Codes/egraph_isa_compiler_codesign/benchmark/automotive/basicmath/basicmath_small_O3_clean.s:478
   11138:	09912823          	sw	s9,144(sp)
/home/allenjin/Codes/egraph_isa_compiler_codesign/benchmark/automotive/basicmath/basicmath_small_O3_clean.s:479
   1113c:	09812a23          	sw	s8,148(sp)
/home/allenjin/Codes/egraph_isa_compiler_codesign/benchmark/automotive/basicmath/basicmath_small_O3_clean.s:480
   11140:	09512c23          	sw	s5,152(sp)
/home/allenjin/Codes/egraph_isa_compiler_codesign/benchmark/automotive/basicmath/basicmath_small_O3_clean.s:481
   11144:	08912e23          	sw	s1,156(sp)
/home/allenjin/Codes/egraph_isa_compiler_codesign/benchmark/automotive/basicmath/basicmath_small_O3_clean.s:483
   11148:	00005097          	auipc	ra,0x5
/home/allenjin/Codes/egraph_isa_compiler_codesign/benchmark/automotive/basicmath/basicmath_small_O3_clean.s:484
   1114c:	414080e7          	jalr	1044(ra) # 1655c <__multf3>
/home/allenjin/Codes/egraph_isa_compiler_codesign/benchmark/automotive/basicmath/basicmath_small_O3_clean.s:485
   11150:	400227b7          	lui	a5,0x40022
/home/allenjin/Codes/egraph_isa_compiler_codesign/benchmark/automotive/basicmath/basicmath_small_O3_clean.s:486
   11154:	08010613          	addi	a2,sp,128
/home/allenjin/Codes/egraph_isa_compiler_codesign/benchmark/automotive/basicmath/basicmath_small_O3_clean.s:487
   11158:	09010593          	addi	a1,sp,144
/home/allenjin/Codes/egraph_isa_compiler_codesign/benchmark/automotive/basicmath/basicmath_small_O3_clean.s:488
   1115c:	0a010513          	addi	a0,sp,160
/home/allenjin/Codes/egraph_isa_compiler_codesign/benchmark/automotive/basicmath/basicmath_small_O3_clean.s:489
   11160:	09912823          	sw	s9,144(sp)
/home/allenjin/Codes/egraph_isa_compiler_codesign/benchmark/automotive/basicmath/basicmath_small_O3_clean.s:490
   11164:	09812a23          	sw	s8,148(sp)
/home/allenjin/Codes/egraph_isa_compiler_codesign/benchmark/automotive/basicmath/basicmath_small_O3_clean.s:491
   11168:	0b012c83          	lw	s9,176(sp)
/home/allenjin/Codes/egraph_isa_compiler_codesign/benchmark/automotive/basicmath/basicmath_small_O3_clean.s:492
   1116c:	0b412c03          	lw	s8,180(sp)
/home/allenjin/Codes/egraph_isa_compiler_codesign/benchmark/automotive/basicmath/basicmath_small_O3_clean.s:493
   11170:	09512c23          	sw	s5,152(sp)
/home/allenjin/Codes/egraph_isa_compiler_codesign/benchmark/automotive/basicmath/basicmath_small_O3_clean.s:494
   11174:	08912e23          	sw	s1,156(sp)
/home/allenjin/Codes/egraph_isa_compiler_codesign/benchmark/automotive/basicmath/basicmath_small_O3_clean.s:495
   11178:	0b812a83          	lw	s5,184(sp)
/home/allenjin/Codes/egraph_isa_compiler_codesign/benchmark/automotive/basicmath/basicmath_small_O3_clean.s:496
   1117c:	0bc12483          	lw	s1,188(sp)
/home/allenjin/Codes/egraph_isa_compiler_codesign/benchmark/automotive/basicmath/basicmath_small_O3_clean.s:497
   11180:	08f12623          	sw	a5,140(sp)
/home/allenjin/Codes/egraph_isa_compiler_codesign/benchmark/automotive/basicmath/basicmath_small_O3_clean.s:498
   11184:	08012023          	sw	zero,128(sp)
/home/allenjin/Codes/egraph_isa_compiler_codesign/benchmark/automotive/basicmath/basicmath_small_O3_clean.s:499
   11188:	08012223          	sw	zero,132(sp)
/home/allenjin/Codes/egraph_isa_compiler_codesign/benchmark/automotive/basicmath/basicmath_small_O3_clean.s:500
   1118c:	08012423          	sw	zero,136(sp)
/home/allenjin/Codes/egraph_isa_compiler_codesign/benchmark/automotive/basicmath/basicmath_small_O3_clean.s:502
   11190:	00005097          	auipc	ra,0x5
/home/allenjin/Codes/egraph_isa_compiler_codesign/benchmark/automotive/basicmath/basicmath_small_O3_clean.s:503
   11194:	3cc080e7          	jalr	972(ra) # 1655c <__multf3>
/home/allenjin/Codes/egraph_isa_compiler_codesign/benchmark/automotive/basicmath/basicmath_small_O3_clean.s:504
   11198:	0a012603          	lw	a2,160(sp)
/home/allenjin/Codes/egraph_isa_compiler_codesign/benchmark/automotive/basicmath/basicmath_small_O3_clean.s:505
   1119c:	0a412683          	lw	a3,164(sp)
/home/allenjin/Codes/egraph_isa_compiler_codesign/benchmark/automotive/basicmath/basicmath_small_O3_clean.s:506
   111a0:	0a812703          	lw	a4,168(sp)
/home/allenjin/Codes/egraph_isa_compiler_codesign/benchmark/automotive/basicmath/basicmath_small_O3_clean.s:507
   111a4:	0ac12783          	lw	a5,172(sp)
/home/allenjin/Codes/egraph_isa_compiler_codesign/benchmark/automotive/basicmath/basicmath_small_O3_clean.s:508
   111a8:	09010513          	addi	a0,sp,144
/home/allenjin/Codes/egraph_isa_compiler_codesign/benchmark/automotive/basicmath/basicmath_small_O3_clean.s:509
   111ac:	08c12023          	sw	a2,128(sp)
/home/allenjin/Codes/egraph_isa_compiler_codesign/benchmark/automotive/basicmath/basicmath_small_O3_clean.s:510
   111b0:	08010593          	addi	a1,sp,128
/home/allenjin/Codes/egraph_isa_compiler_codesign/benchmark/automotive/basicmath/basicmath_small_O3_clean.s:511
   111b4:	07010613          	addi	a2,sp,112
/home/allenjin/Codes/egraph_isa_compiler_codesign/benchmark/automotive/basicmath/basicmath_small_O3_clean.s:512
   111b8:	07a12823          	sw	s10,112(sp)
/home/allenjin/Codes/egraph_isa_compiler_codesign/benchmark/automotive/basicmath/basicmath_small_O3_clean.s:513
   111bc:	07b12a23          	sw	s11,116(sp)
/home/allenjin/Codes/egraph_isa_compiler_codesign/benchmark/automotive/basicmath/basicmath_small_O3_clean.s:514
   111c0:	07712c23          	sw	s7,120(sp)
/home/allenjin/Codes/egraph_isa_compiler_codesign/benchmark/automotive/basicmath/basicmath_small_O3_clean.s:515
   111c4:	07612e23          	sw	s6,124(sp)
/home/allenjin/Codes/egraph_isa_compiler_codesign/benchmark/automotive/basicmath/basicmath_small_O3_clean.s:516
   111c8:	08d12223          	sw	a3,132(sp)
/home/allenjin/Codes/egraph_isa_compiler_codesign/benchmark/automotive/basicmath/basicmath_small_O3_clean.s:517
   111cc:	08e12423          	sw	a4,136(sp)
/home/allenjin/Codes/egraph_isa_compiler_codesign/benchmark/automotive/basicmath/basicmath_small_O3_clean.s:518
   111d0:	08f12623          	sw	a5,140(sp)
/home/allenjin/Codes/egraph_isa_compiler_codesign/benchmark/automotive/basicmath/basicmath_small_O3_clean.s:520
   111d4:	00005097          	auipc	ra,0x5
/home/allenjin/Codes/egraph_isa_compiler_codesign/benchmark/automotive/basicmath/basicmath_small_O3_clean.s:521
   111d8:	388080e7          	jalr	904(ra) # 1655c <__multf3>
/home/allenjin/Codes/egraph_isa_compiler_codesign/benchmark/automotive/basicmath/basicmath_small_O3_clean.s:522
   111dc:	09812783          	lw	a5,152(sp)
/home/allenjin/Codes/egraph_isa_compiler_codesign/benchmark/automotive/basicmath/basicmath_small_O3_clean.s:523
   111e0:	09412703          	lw	a4,148(sp)
/home/allenjin/Codes/egraph_isa_compiler_codesign/benchmark/automotive/basicmath/basicmath_small_O3_clean.s:524
   111e4:	09012683          	lw	a3,144(sp)
/home/allenjin/Codes/egraph_isa_compiler_codesign/benchmark/automotive/basicmath/basicmath_small_O3_clean.s:525
   111e8:	06f12423          	sw	a5,104(sp)
/home/allenjin/Codes/egraph_isa_compiler_codesign/benchmark/automotive/basicmath/basicmath_small_O3_clean.s:526
   111ec:	09c12783          	lw	a5,156(sp)
/home/allenjin/Codes/egraph_isa_compiler_codesign/benchmark/automotive/basicmath/basicmath_small_O3_clean.s:527
   111f0:	08010513          	addi	a0,sp,128
/home/allenjin/Codes/egraph_isa_compiler_codesign/benchmark/automotive/basicmath/basicmath_small_O3_clean.s:528
   111f4:	06010613          	addi	a2,sp,96
/home/allenjin/Codes/egraph_isa_compiler_codesign/benchmark/automotive/basicmath/basicmath_small_O3_clean.s:529
   111f8:	07010593          	addi	a1,sp,112
/home/allenjin/Codes/egraph_isa_compiler_codesign/benchmark/automotive/basicmath/basicmath_small_O3_clean.s:530
   111fc:	06e12223          	sw	a4,100(sp)
/home/allenjin/Codes/egraph_isa_compiler_codesign/benchmark/automotive/basicmath/basicmath_small_O3_clean.s:531
   11200:	06f12623          	sw	a5,108(sp)
/home/allenjin/Codes/egraph_isa_compiler_codesign/benchmark/automotive/basicmath/basicmath_small_O3_clean.s:532
   11204:	07912823          	sw	s9,112(sp)
/home/allenjin/Codes/egraph_isa_compiler_codesign/benchmark/automotive/basicmath/basicmath_small_O3_clean.s:533
   11208:	07812a23          	sw	s8,116(sp)
/home/allenjin/Codes/egraph_isa_compiler_codesign/benchmark/automotive/basicmath/basicmath_small_O3_clean.s:534
   1120c:	07512c23          	sw	s5,120(sp)
/home/allenjin/Codes/egraph_isa_compiler_codesign/benchmark/automotive/basicmath/basicmath_small_O3_clean.s:535
   11210:	06912e23          	sw	s1,124(sp)
/home/allenjin/Codes/egraph_isa_compiler_codesign/benchmark/automotive/basicmath/basicmath_small_O3_clean.s:536
   11214:	06d12023          	sw	a3,96(sp)
/home/allenjin/Codes/egraph_isa_compiler_codesign/benchmark/automotive/basicmath/basicmath_small_O3_clean.s:538
   11218:	00006097          	auipc	ra,0x6
/home/allenjin/Codes/egraph_isa_compiler_codesign/benchmark/automotive/basicmath/basicmath_small_O3_clean.s:539
   1121c:	2a4080e7          	jalr	676(ra) # 174bc <__subtf3>
/home/allenjin/Codes/egraph_isa_compiler_codesign/benchmark/automotive/basicmath/basicmath_small_O3_clean.s:540
   11220:	00812803          	lw	a6,8(sp)
/home/allenjin/Codes/egraph_isa_compiler_codesign/benchmark/automotive/basicmath/basicmath_small_O3_clean.s:541
   11224:	00c12883          	lw	a7,12(sp)
/home/allenjin/Codes/egraph_isa_compiler_codesign/benchmark/automotive/basicmath/basicmath_small_O3_clean.s:542
   11228:	00012603          	lw	a2,0(sp)
/home/allenjin/Codes/egraph_isa_compiler_codesign/benchmark/automotive/basicmath/basicmath_small_O3_clean.s:543
   1122c:	00412683          	lw	a3,4(sp)
/home/allenjin/Codes/egraph_isa_compiler_codesign/benchmark/automotive/basicmath/basicmath_small_O3_clean.s:544
   11230:	00080513          	mv	a0,a6
/home/allenjin/Codes/egraph_isa_compiler_codesign/benchmark/automotive/basicmath/basicmath_small_O3_clean.s:545
   11234:	00088593          	mv	a1,a7
/home/allenjin/Codes/egraph_isa_compiler_codesign/benchmark/automotive/basicmath/basicmath_small_O3_clean.s:547
   11238:	00002097          	auipc	ra,0x2
/home/allenjin/Codes/egraph_isa_compiler_codesign/benchmark/automotive/basicmath/basicmath_small_O3_clean.s:548
   1123c:	9d8080e7          	jalr	-1576(ra) # 12c10 <__divdf3>
/home/allenjin/Codes/egraph_isa_compiler_codesign/benchmark/automotive/basicmath/basicmath_small_O3_clean.s:549
   11240:	00058613          	mv	a2,a1
/home/allenjin/Codes/egraph_isa_compiler_codesign/benchmark/automotive/basicmath/basicmath_small_O3_clean.s:550
   11244:	00050593          	mv	a1,a0
/home/allenjin/Codes/egraph_isa_compiler_codesign/benchmark/automotive/basicmath/basicmath_small_O3_clean.s:551
   11248:	07010513          	addi	a0,sp,112
/home/allenjin/Codes/egraph_isa_compiler_codesign/benchmark/automotive/basicmath/basicmath_small_O3_clean.s:552
   1124c:	08012b83          	lw	s7,128(sp)
/home/allenjin/Codes/egraph_isa_compiler_codesign/benchmark/automotive/basicmath/basicmath_small_O3_clean.s:553
   11250:	08412b03          	lw	s6,132(sp)
/home/allenjin/Codes/egraph_isa_compiler_codesign/benchmark/automotive/basicmath/basicmath_small_O3_clean.s:554
   11254:	08812a83          	lw	s5,136(sp)
/home/allenjin/Codes/egraph_isa_compiler_codesign/benchmark/automotive/basicmath/basicmath_small_O3_clean.s:555
   11258:	08c12483          	lw	s1,140(sp)
/home/allenjin/Codes/egraph_isa_compiler_codesign/benchmark/automotive/basicmath/basicmath_small_O3_clean.s:557
   1125c:	00007097          	auipc	ra,0x7
/home/allenjin/Codes/egraph_isa_compiler_codesign/benchmark/automotive/basicmath/basicmath_small_O3_clean.s:558
   11260:	588080e7          	jalr	1416(ra) # 187e4 <__extenddftf2>
/home/allenjin/Codes/egraph_isa_compiler_codesign/benchmark/automotive/basicmath/basicmath_small_O3_clean.s:559
   11264:	07812783          	lw	a5,120(sp)
/home/allenjin/Codes/egraph_isa_compiler_codesign/benchmark/automotive/basicmath/basicmath_small_O3_clean.s:560
   11268:	07412703          	lw	a4,116(sp)
/home/allenjin/Codes/egraph_isa_compiler_codesign/benchmark/automotive/basicmath/basicmath_small_O3_clean.s:561
   1126c:	07012683          	lw	a3,112(sp)
/home/allenjin/Codes/egraph_isa_compiler_codesign/benchmark/automotive/basicmath/basicmath_small_O3_clean.s:562
   11270:	04f12c23          	sw	a5,88(sp)
/home/allenjin/Codes/egraph_isa_compiler_codesign/benchmark/automotive/basicmath/basicmath_small_O3_clean.s:563
   11274:	07c12783          	lw	a5,124(sp)
/home/allenjin/Codes/egraph_isa_compiler_codesign/benchmark/automotive/basicmath/basicmath_small_O3_clean.s:564
   11278:	04e12a23          	sw	a4,84(sp)
/home/allenjin/Codes/egraph_isa_compiler_codesign/benchmark/automotive/basicmath/basicmath_small_O3_clean.s:565
   1127c:	06010513          	addi	a0,sp,96
/home/allenjin/Codes/egraph_isa_compiler_codesign/benchmark/automotive/basicmath/basicmath_small_O3_clean.s:566
   11280:	4003b737          	lui	a4,0x4003b
/home/allenjin/Codes/egraph_isa_compiler_codesign/benchmark/automotive/basicmath/basicmath_small_O3_clean.s:567
   11284:	05010593          	addi	a1,sp,80
/home/allenjin/Codes/egraph_isa_compiler_codesign/benchmark/automotive/basicmath/basicmath_small_O3_clean.s:568
   11288:	04010613          	addi	a2,sp,64
/home/allenjin/Codes/egraph_isa_compiler_codesign/benchmark/automotive/basicmath/basicmath_small_O3_clean.s:569
   1128c:	04d12823          	sw	a3,80(sp)
/home/allenjin/Codes/egraph_isa_compiler_codesign/benchmark/automotive/basicmath/basicmath_small_O3_clean.s:570
   11290:	04e12623          	sw	a4,76(sp)
/home/allenjin/Codes/egraph_isa_compiler_codesign/benchmark/automotive/basicmath/basicmath_small_O3_clean.s:571
   11294:	04f12e23          	sw	a5,92(sp)
/home/allenjin/Codes/egraph_isa_compiler_codesign/benchmark/automotive/basicmath/basicmath_small_O3_clean.s:572
   11298:	04012023          	sw	zero,64(sp)
/home/allenjin/Codes/egraph_isa_compiler_codesign/benchmark/automotive/basicmath/basicmath_small_O3_clean.s:573
   1129c:	04012223          	sw	zero,68(sp)
/home/allenjin/Codes/egraph_isa_compiler_codesign/benchmark/automotive/basicmath/basicmath_small_O3_clean.s:574
   112a0:	04012423          	sw	zero,72(sp)
/home/allenjin/Codes/egraph_isa_compiler_codesign/benchmark/automotive/basicmath/basicmath_small_O3_clean.s:576
   112a4:	00005097          	auipc	ra,0x5
/home/allenjin/Codes/egraph_isa_compiler_codesign/benchmark/automotive/basicmath/basicmath_small_O3_clean.s:577
   112a8:	2b8080e7          	jalr	696(ra) # 1655c <__multf3>
/home/allenjin/Codes/egraph_isa_compiler_codesign/benchmark/automotive/basicmath/basicmath_small_O3_clean.s:578
   112ac:	06812783          	lw	a5,104(sp)
/home/allenjin/Codes/egraph_isa_compiler_codesign/benchmark/automotive/basicmath/basicmath_small_O3_clean.s:579
   112b0:	06012683          	lw	a3,96(sp)
/home/allenjin/Codes/egraph_isa_compiler_codesign/benchmark/automotive/basicmath/basicmath_small_O3_clean.s:580
   112b4:	06412703          	lw	a4,100(sp)
/home/allenjin/Codes/egraph_isa_compiler_codesign/benchmark/automotive/basicmath/basicmath_small_O3_clean.s:581
   112b8:	02f12c23          	sw	a5,56(sp)
/home/allenjin/Codes/egraph_isa_compiler_codesign/benchmark/automotive/basicmath/basicmath_small_O3_clean.s:582
   112bc:	06c12783          	lw	a5,108(sp)
/home/allenjin/Codes/egraph_isa_compiler_codesign/benchmark/automotive/basicmath/basicmath_small_O3_clean.s:583
   112c0:	05010513          	addi	a0,sp,80
/home/allenjin/Codes/egraph_isa_compiler_codesign/benchmark/automotive/basicmath/basicmath_small_O3_clean.s:584
   112c4:	03010613          	addi	a2,sp,48
/home/allenjin/Codes/egraph_isa_compiler_codesign/benchmark/automotive/basicmath/basicmath_small_O3_clean.s:585
   112c8:	04010593          	addi	a1,sp,64
/home/allenjin/Codes/egraph_isa_compiler_codesign/benchmark/automotive/basicmath/basicmath_small_O3_clean.s:586
   112cc:	05712023          	sw	s7,64(sp)
/home/allenjin/Codes/egraph_isa_compiler_codesign/benchmark/automotive/basicmath/basicmath_small_O3_clean.s:587
   112d0:	05612223          	sw	s6,68(sp)
/home/allenjin/Codes/egraph_isa_compiler_codesign/benchmark/automotive/basicmath/basicmath_small_O3_clean.s:588
   112d4:	05512423          	sw	s5,72(sp)
/home/allenjin/Codes/egraph_isa_compiler_codesign/benchmark/automotive/basicmath/basicmath_small_O3_clean.s:589
   112d8:	04912623          	sw	s1,76(sp)
/home/allenjin/Codes/egraph_isa_compiler_codesign/benchmark/automotive/basicmath/basicmath_small_O3_clean.s:590
   112dc:	02d12823          	sw	a3,48(sp)
/home/allenjin/Codes/egraph_isa_compiler_codesign/benchmark/automotive/basicmath/basicmath_small_O3_clean.s:591
   112e0:	02e12a23          	sw	a4,52(sp)
/home/allenjin/Codes/egraph_isa_compiler_codesign/benchmark/automotive/basicmath/basicmath_small_O3_clean.s:592
   112e4:	02f12e23          	sw	a5,60(sp)
/home/allenjin/Codes/egraph_isa_compiler_codesign/benchmark/automotive/basicmath/basicmath_small_O3_clean.s:594
   112e8:	00003097          	auipc	ra,0x3
/home/allenjin/Codes/egraph_isa_compiler_codesign/benchmark/automotive/basicmath/basicmath_small_O3_clean.s:595
   112ec:	124080e7          	jalr	292(ra) # 1440c <__addtf3>
/home/allenjin/Codes/egraph_isa_compiler_codesign/benchmark/automotive/basicmath/basicmath_small_O3_clean.s:596
   112f0:	05812783          	lw	a5,88(sp)
/home/allenjin/Codes/egraph_isa_compiler_codesign/benchmark/automotive/basicmath/basicmath_small_O3_clean.s:597
   112f4:	05412703          	lw	a4,84(sp)
/home/allenjin/Codes/egraph_isa_compiler_codesign/benchmark/automotive/basicmath/basicmath_small_O3_clean.s:598
   112f8:	05012683          	lw	a3,80(sp)
/home/allenjin/Codes/egraph_isa_compiler_codesign/benchmark/automotive/basicmath/basicmath_small_O3_clean.s:599
   112fc:	02f12c23          	sw	a5,56(sp)
/home/allenjin/Codes/egraph_isa_compiler_codesign/benchmark/automotive/basicmath/basicmath_small_O3_clean.s:600
   11300:	05c12783          	lw	a5,92(sp)
/home/allenjin/Codes/egraph_isa_compiler_codesign/benchmark/automotive/basicmath/basicmath_small_O3_clean.s:601
   11304:	02010613          	addi	a2,sp,32
/home/allenjin/Codes/egraph_isa_compiler_codesign/benchmark/automotive/basicmath/basicmath_small_O3_clean.s:602
   11308:	02e12a23          	sw	a4,52(sp)
/home/allenjin/Codes/egraph_isa_compiler_codesign/benchmark/automotive/basicmath/basicmath_small_O3_clean.s:603
   1130c:	03010593          	addi	a1,sp,48
/home/allenjin/Codes/egraph_isa_compiler_codesign/benchmark/automotive/basicmath/basicmath_small_O3_clean.s:604
   11310:	4004b737          	lui	a4,0x4004b
/home/allenjin/Codes/egraph_isa_compiler_codesign/benchmark/automotive/basicmath/basicmath_small_O3_clean.s:605
   11314:	04010513          	addi	a0,sp,64
/home/allenjin/Codes/egraph_isa_compiler_codesign/benchmark/automotive/basicmath/basicmath_small_O3_clean.s:606
   11318:	02d12823          	sw	a3,48(sp)
/home/allenjin/Codes/egraph_isa_compiler_codesign/benchmark/automotive/basicmath/basicmath_small_O3_clean.s:607
   1131c:	02e12623          	sw	a4,44(sp)
/home/allenjin/Codes/egraph_isa_compiler_codesign/benchmark/automotive/basicmath/basicmath_small_O3_clean.s:608
   11320:	02f12e23          	sw	a5,60(sp)
/home/allenjin/Codes/egraph_isa_compiler_codesign/benchmark/automotive/basicmath/basicmath_small_O3_clean.s:609
   11324:	02012023          	sw	zero,32(sp)
/home/allenjin/Codes/egraph_isa_compiler_codesign/benchmark/automotive/basicmath/basicmath_small_O3_clean.s:610
   11328:	02012223          	sw	zero,36(sp)
/home/allenjin/Codes/egraph_isa_compiler_codesign/benchmark/automotive/basicmath/basicmath_small_O3_clean.s:611
   1132c:	02012423          	sw	zero,40(sp)
/home/allenjin/Codes/egraph_isa_compiler_codesign/benchmark/automotive/basicmath/basicmath_small_O3_clean.s:613
   11330:	00004097          	auipc	ra,0x4
/home/allenjin/Codes/egraph_isa_compiler_codesign/benchmark/automotive/basicmath/basicmath_small_O3_clean.s:614
   11334:	3d8080e7          	jalr	984(ra) # 15708 <__divtf3>
/home/allenjin/Codes/egraph_isa_compiler_codesign/benchmark/automotive/basicmath/basicmath_small_O3_clean.s:615
   11338:	04012c03          	lw	s8,64(sp)
/home/allenjin/Codes/egraph_isa_compiler_codesign/benchmark/automotive/basicmath/basicmath_small_O3_clean.s:616
   1133c:	04412b83          	lw	s7,68(sp)
/home/allenjin/Codes/egraph_isa_compiler_codesign/benchmark/automotive/basicmath/basicmath_small_O3_clean.s:617
   11340:	04812b03          	lw	s6,72(sp)
/home/allenjin/Codes/egraph_isa_compiler_codesign/benchmark/automotive/basicmath/basicmath_small_O3_clean.s:618
   11344:	04c12483          	lw	s1,76(sp)
/home/allenjin/Codes/egraph_isa_compiler_codesign/benchmark/automotive/basicmath/basicmath_small_O3_clean.s:619
   11348:	0d010513          	addi	a0,sp,208
/home/allenjin/Codes/egraph_isa_compiler_codesign/benchmark/automotive/basicmath/basicmath_small_O3_clean.s:620
   1134c:	0d812823          	sw	s8,208(sp)
/home/allenjin/Codes/egraph_isa_compiler_codesign/benchmark/automotive/basicmath/basicmath_small_O3_clean.s:621
   11350:	0d712a23          	sw	s7,212(sp)
/home/allenjin/Codes/egraph_isa_compiler_codesign/benchmark/automotive/basicmath/basicmath_small_O3_clean.s:622
   11354:	0d612c23          	sw	s6,216(sp)
/home/allenjin/Codes/egraph_isa_compiler_codesign/benchmark/automotive/basicmath/basicmath_small_O3_clean.s:623
   11358:	0c912e23          	sw	s1,220(sp)
/home/allenjin/Codes/egraph_isa_compiler_codesign/benchmark/automotive/basicmath/basicmath_small_O3_clean.s:625
   1135c:	00007097          	auipc	ra,0x7
/home/allenjin/Codes/egraph_isa_compiler_codesign/benchmark/automotive/basicmath/basicmath_small_O3_clean.s:626
   11360:	688080e7          	jalr	1672(ra) # 189e4 <__trunctfdf2>
/home/allenjin/Codes/egraph_isa_compiler_codesign/benchmark/automotive/basicmath/basicmath_small_O3_clean.s:627
   11364:	00a12023          	sw	a0,0(sp)
/home/allenjin/Codes/egraph_isa_compiler_codesign/benchmark/automotive/basicmath/basicmath_small_O3_clean.s:628
   11368:	0d010513          	addi	a0,sp,208
/home/allenjin/Codes/egraph_isa_compiler_codesign/benchmark/automotive/basicmath/basicmath_small_O3_clean.s:629
   1136c:	0d412823          	sw	s4,208(sp)
/home/allenjin/Codes/egraph_isa_compiler_codesign/benchmark/automotive/basicmath/basicmath_small_O3_clean.s:630
   11370:	0d312a23          	sw	s3,212(sp)
/home/allenjin/Codes/egraph_isa_compiler_codesign/benchmark/automotive/basicmath/basicmath_small_O3_clean.s:631
   11374:	0d212c23          	sw	s2,216(sp)
/home/allenjin/Codes/egraph_isa_compiler_codesign/benchmark/automotive/basicmath/basicmath_small_O3_clean.s:632
   11378:	0c812e23          	sw	s0,220(sp)
/home/allenjin/Codes/egraph_isa_compiler_codesign/benchmark/automotive/basicmath/basicmath_small_O3_clean.s:633
   1137c:	00058a93          	mv	s5,a1
/home/allenjin/Codes/egraph_isa_compiler_codesign/benchmark/automotive/basicmath/basicmath_small_O3_clean.s:634
   11380:	00058d93          	mv	s11,a1
/home/allenjin/Codes/egraph_isa_compiler_codesign/benchmark/automotive/basicmath/basicmath_small_O3_clean.s:636
   11384:	00007097          	auipc	ra,0x7
/home/allenjin/Codes/egraph_isa_compiler_codesign/benchmark/automotive/basicmath/basicmath_small_O3_clean.s:637
   11388:	660080e7          	jalr	1632(ra) # 189e4 <__trunctfdf2>
/home/allenjin/Codes/egraph_isa_compiler_codesign/benchmark/automotive/basicmath/basicmath_small_O3_clean.s:638
   1138c:	00a12423          	sw	a0,8(sp)
/home/allenjin/Codes/egraph_isa_compiler_codesign/benchmark/automotive/basicmath/basicmath_small_O3_clean.s:639
   11390:	00b12e23          	sw	a1,28(sp)
/home/allenjin/Codes/egraph_isa_compiler_codesign/benchmark/automotive/basicmath/basicmath_small_O3_clean.s:640
   11394:	0b010613          	addi	a2,sp,176
/home/allenjin/Codes/egraph_isa_compiler_codesign/benchmark/automotive/basicmath/basicmath_small_O3_clean.s:641
   11398:	0c010593          	addi	a1,sp,192
/home/allenjin/Codes/egraph_isa_compiler_codesign/benchmark/automotive/basicmath/basicmath_small_O3_clean.s:642
   1139c:	0d010513          	addi	a0,sp,208
/home/allenjin/Codes/egraph_isa_compiler_codesign/benchmark/automotive/basicmath/basicmath_small_O3_clean.s:643
   113a0:	0d412023          	sw	s4,192(sp)
/home/allenjin/Codes/egraph_isa_compiler_codesign/benchmark/automotive/basicmath/basicmath_small_O3_clean.s:644
   113a4:	0d312223          	sw	s3,196(sp)
/home/allenjin/Codes/egraph_isa_compiler_codesign/benchmark/automotive/basicmath/basicmath_small_O3_clean.s:645
   113a8:	0d212423          	sw	s2,200(sp)
/home/allenjin/Codes/egraph_isa_compiler_codesign/benchmark/automotive/basicmath/basicmath_small_O3_clean.s:646
   113ac:	0c812623          	sw	s0,204(sp)
/home/allenjin/Codes/egraph_isa_compiler_codesign/benchmark/automotive/basicmath/basicmath_small_O3_clean.s:647
   113b0:	0b412823          	sw	s4,176(sp)
/home/allenjin/Codes/egraph_isa_compiler_codesign/benchmark/automotive/basicmath/basicmath_small_O3_clean.s:648
   113b4:	0b312a23          	sw	s3,180(sp)
/home/allenjin/Codes/egraph_isa_compiler_codesign/benchmark/automotive/basicmath/basicmath_small_O3_clean.s:649
   113b8:	0b212c23          	sw	s2,184(sp)
/home/allenjin/Codes/egraph_isa_compiler_codesign/benchmark/automotive/basicmath/basicmath_small_O3_clean.s:650
   113bc:	0a812e23          	sw	s0,188(sp)
/home/allenjin/Codes/egraph_isa_compiler_codesign/benchmark/automotive/basicmath/basicmath_small_O3_clean.s:652
   113c0:	00005097          	auipc	ra,0x5
/home/allenjin/Codes/egraph_isa_compiler_codesign/benchmark/automotive/basicmath/basicmath_small_O3_clean.s:653
   113c4:	19c080e7          	jalr	412(ra) # 1655c <__multf3>
/home/allenjin/Codes/egraph_isa_compiler_codesign/benchmark/automotive/basicmath/basicmath_small_O3_clean.s:654
   113c8:	0d812783          	lw	a5,216(sp)
/home/allenjin/Codes/egraph_isa_compiler_codesign/benchmark/automotive/basicmath/basicmath_small_O3_clean.s:655
   113cc:	0d012683          	lw	a3,208(sp)
/home/allenjin/Codes/egraph_isa_compiler_codesign/benchmark/automotive/basicmath/basicmath_small_O3_clean.s:656
   113d0:	0d412703          	lw	a4,212(sp)
/home/allenjin/Codes/egraph_isa_compiler_codesign/benchmark/automotive/basicmath/basicmath_small_O3_clean.s:657
   113d4:	0af12c23          	sw	a5,184(sp)
/home/allenjin/Codes/egraph_isa_compiler_codesign/benchmark/automotive/basicmath/basicmath_small_O3_clean.s:658
   113d8:	0dc12783          	lw	a5,220(sp)
/home/allenjin/Codes/egraph_isa_compiler_codesign/benchmark/automotive/basicmath/basicmath_small_O3_clean.s:659
   113dc:	0a010613          	addi	a2,sp,160
/home/allenjin/Codes/egraph_isa_compiler_codesign/benchmark/automotive/basicmath/basicmath_small_O3_clean.s:660
   113e0:	0b010593          	addi	a1,sp,176
/home/allenjin/Codes/egraph_isa_compiler_codesign/benchmark/automotive/basicmath/basicmath_small_O3_clean.s:661
   113e4:	0c010513          	addi	a0,sp,192
/home/allenjin/Codes/egraph_isa_compiler_codesign/benchmark/automotive/basicmath/basicmath_small_O3_clean.s:662
   113e8:	0ad12823          	sw	a3,176(sp)
/home/allenjin/Codes/egraph_isa_compiler_codesign/benchmark/automotive/basicmath/basicmath_small_O3_clean.s:663
   113ec:	0ae12a23          	sw	a4,180(sp)
/home/allenjin/Codes/egraph_isa_compiler_codesign/benchmark/automotive/basicmath/basicmath_small_O3_clean.s:664
   113f0:	0af12e23          	sw	a5,188(sp)
/home/allenjin/Codes/egraph_isa_compiler_codesign/benchmark/automotive/basicmath/basicmath_small_O3_clean.s:665
   113f4:	0b412023          	sw	s4,160(sp)
/home/allenjin/Codes/egraph_isa_compiler_codesign/benchmark/automotive/basicmath/basicmath_small_O3_clean.s:666
   113f8:	0b312223          	sw	s3,164(sp)
/home/allenjin/Codes/egraph_isa_compiler_codesign/benchmark/automotive/basicmath/basicmath_small_O3_clean.s:667
   113fc:	0b212423          	sw	s2,168(sp)
/home/allenjin/Codes/egraph_isa_compiler_codesign/benchmark/automotive/basicmath/basicmath_small_O3_clean.s:668
   11400:	0a812623          	sw	s0,172(sp)
/home/allenjin/Codes/egraph_isa_compiler_codesign/benchmark/automotive/basicmath/basicmath_small_O3_clean.s:670
   11404:	00005097          	auipc	ra,0x5
/home/allenjin/Codes/egraph_isa_compiler_codesign/benchmark/automotive/basicmath/basicmath_small_O3_clean.s:671
   11408:	158080e7          	jalr	344(ra) # 1655c <__multf3>
/home/allenjin/Codes/egraph_isa_compiler_codesign/benchmark/automotive/basicmath/basicmath_small_O3_clean.s:672
   1140c:	0b010613          	addi	a2,sp,176
/home/allenjin/Codes/egraph_isa_compiler_codesign/benchmark/automotive/basicmath/basicmath_small_O3_clean.s:673
   11410:	0c010593          	addi	a1,sp,192
/home/allenjin/Codes/egraph_isa_compiler_codesign/benchmark/automotive/basicmath/basicmath_small_O3_clean.s:674
   11414:	0d010513          	addi	a0,sp,208
/home/allenjin/Codes/egraph_isa_compiler_codesign/benchmark/automotive/basicmath/basicmath_small_O3_clean.s:675
   11418:	0c412a03          	lw	s4,196(sp)
/home/allenjin/Codes/egraph_isa_compiler_codesign/benchmark/automotive/basicmath/basicmath_small_O3_clean.s:676
   1141c:	0c812c83          	lw	s9,200(sp)
/home/allenjin/Codes/egraph_isa_compiler_codesign/benchmark/automotive/basicmath/basicmath_small_O3_clean.s:677
   11420:	0c012903          	lw	s2,192(sp)
/home/allenjin/Codes/egraph_isa_compiler_codesign/benchmark/automotive/basicmath/basicmath_small_O3_clean.s:678
   11424:	0cc12d03          	lw	s10,204(sp)
/home/allenjin/Codes/egraph_isa_compiler_codesign/benchmark/automotive/basicmath/basicmath_small_O3_clean.s:679
   11428:	0b812823          	sw	s8,176(sp)
/home/allenjin/Codes/egraph_isa_compiler_codesign/benchmark/automotive/basicmath/basicmath_small_O3_clean.s:680
   1142c:	0b712a23          	sw	s7,180(sp)
/home/allenjin/Codes/egraph_isa_compiler_codesign/benchmark/automotive/basicmath/basicmath_small_O3_clean.s:681
   11430:	0b612c23          	sw	s6,184(sp)
/home/allenjin/Codes/egraph_isa_compiler_codesign/benchmark/automotive/basicmath/basicmath_small_O3_clean.s:682
   11434:	0a912e23          	sw	s1,188(sp)
/home/allenjin/Codes/egraph_isa_compiler_codesign/benchmark/automotive/basicmath/basicmath_small_O3_clean.s:683
   11438:	0d812023          	sw	s8,192(sp)
/home/allenjin/Codes/egraph_isa_compiler_codesign/benchmark/automotive/basicmath/basicmath_small_O3_clean.s:684
   1143c:	0d712223          	sw	s7,196(sp)
/home/allenjin/Codes/egraph_isa_compiler_codesign/benchmark/automotive/basicmath/basicmath_small_O3_clean.s:685
   11440:	0d612423          	sw	s6,200(sp)
/home/allenjin/Codes/egraph_isa_compiler_codesign/benchmark/automotive/basicmath/basicmath_small_O3_clean.s:686
   11444:	0c912623          	sw	s1,204(sp)
/home/allenjin/Codes/egraph_isa_compiler_codesign/benchmark/automotive/basicmath/basicmath_small_O3_clean.s:688
   11448:	00005097          	auipc	ra,0x5
/home/allenjin/Codes/egraph_isa_compiler_codesign/benchmark/automotive/basicmath/basicmath_small_O3_clean.s:689
   1144c:	114080e7          	jalr	276(ra) # 1655c <__multf3>
/home/allenjin/Codes/egraph_isa_compiler_codesign/benchmark/automotive/basicmath/basicmath_small_O3_clean.s:690
   11450:	0d012583          	lw	a1,208(sp)
/home/allenjin/Codes/egraph_isa_compiler_codesign/benchmark/automotive/basicmath/basicmath_small_O3_clean.s:691
   11454:	0d412683          	lw	a3,212(sp)
/home/allenjin/Codes/egraph_isa_compiler_codesign/benchmark/automotive/basicmath/basicmath_small_O3_clean.s:692
   11458:	0d812703          	lw	a4,216(sp)
/home/allenjin/Codes/egraph_isa_compiler_codesign/benchmark/automotive/basicmath/basicmath_small_O3_clean.s:693
   1145c:	0dc12783          	lw	a5,220(sp)
/home/allenjin/Codes/egraph_isa_compiler_codesign/benchmark/automotive/basicmath/basicmath_small_O3_clean.s:694
   11460:	0a010613          	addi	a2,sp,160
/home/allenjin/Codes/egraph_isa_compiler_codesign/benchmark/automotive/basicmath/basicmath_small_O3_clean.s:695
   11464:	0ab12823          	sw	a1,176(sp)
/home/allenjin/Codes/egraph_isa_compiler_codesign/benchmark/automotive/basicmath/basicmath_small_O3_clean.s:696
   11468:	0c010513          	addi	a0,sp,192
/home/allenjin/Codes/egraph_isa_compiler_codesign/benchmark/automotive/basicmath/basicmath_small_O3_clean.s:697
   1146c:	0b010593          	addi	a1,sp,176
/home/allenjin/Codes/egraph_isa_compiler_codesign/benchmark/automotive/basicmath/basicmath_small_O3_clean.s:698
   11470:	0b412223          	sw	s4,164(sp)
/home/allenjin/Codes/egraph_isa_compiler_codesign/benchmark/automotive/basicmath/basicmath_small_O3_clean.s:699
   11474:	0b912423          	sw	s9,168(sp)
/home/allenjin/Codes/egraph_isa_compiler_codesign/benchmark/automotive/basicmath/basicmath_small_O3_clean.s:700
   11478:	0ad12a23          	sw	a3,180(sp)
/home/allenjin/Codes/egraph_isa_compiler_codesign/benchmark/automotive/basicmath/basicmath_small_O3_clean.s:701
   1147c:	0ae12c23          	sw	a4,184(sp)
/home/allenjin/Codes/egraph_isa_compiler_codesign/benchmark/automotive/basicmath/basicmath_small_O3_clean.s:702
   11480:	0af12e23          	sw	a5,188(sp)
/home/allenjin/Codes/egraph_isa_compiler_codesign/benchmark/automotive/basicmath/basicmath_small_O3_clean.s:703
   11484:	0b212023          	sw	s2,160(sp)
/home/allenjin/Codes/egraph_isa_compiler_codesign/benchmark/automotive/basicmath/basicmath_small_O3_clean.s:704
   11488:	0ba12623          	sw	s10,172(sp)
/home/allenjin/Codes/egraph_isa_compiler_codesign/benchmark/automotive/basicmath/basicmath_small_O3_clean.s:706
   1148c:	00006097          	auipc	ra,0x6
/home/allenjin/Codes/egraph_isa_compiler_codesign/benchmark/automotive/basicmath/basicmath_small_O3_clean.s:707
   11490:	030080e7          	jalr	48(ra) # 174bc <__subtf3>
/home/allenjin/Codes/egraph_isa_compiler_codesign/benchmark/automotive/basicmath/basicmath_small_O3_clean.s:708
   11494:	0c012603          	lw	a2,192(sp)
/home/allenjin/Codes/egraph_isa_compiler_codesign/benchmark/automotive/basicmath/basicmath_small_O3_clean.s:709
   11498:	0c412683          	lw	a3,196(sp)
/home/allenjin/Codes/egraph_isa_compiler_codesign/benchmark/automotive/basicmath/basicmath_small_O3_clean.s:710
   1149c:	0c812703          	lw	a4,200(sp)
/home/allenjin/Codes/egraph_isa_compiler_codesign/benchmark/automotive/basicmath/basicmath_small_O3_clean.s:711
   114a0:	0cc12783          	lw	a5,204(sp)
/home/allenjin/Codes/egraph_isa_compiler_codesign/benchmark/automotive/basicmath/basicmath_small_O3_clean.s:712
   114a4:	0b010513          	addi	a0,sp,176
/home/allenjin/Codes/egraph_isa_compiler_codesign/benchmark/automotive/basicmath/basicmath_small_O3_clean.s:713
   114a8:	0ac12823          	sw	a2,176(sp)
/home/allenjin/Codes/egraph_isa_compiler_codesign/benchmark/automotive/basicmath/basicmath_small_O3_clean.s:714
   114ac:	0ad12a23          	sw	a3,180(sp)
/home/allenjin/Codes/egraph_isa_compiler_codesign/benchmark/automotive/basicmath/basicmath_small_O3_clean.s:715
   114b0:	0ae12c23          	sw	a4,184(sp)
/home/allenjin/Codes/egraph_isa_compiler_codesign/benchmark/automotive/basicmath/basicmath_small_O3_clean.s:716
   114b4:	0af12e23          	sw	a5,188(sp)
/home/allenjin/Codes/egraph_isa_compiler_codesign/benchmark/automotive/basicmath/basicmath_small_O3_clean.s:718
   114b8:	00007097          	auipc	ra,0x7
/home/allenjin/Codes/egraph_isa_compiler_codesign/benchmark/automotive/basicmath/basicmath_small_O3_clean.s:719
   114bc:	52c080e7          	jalr	1324(ra) # 189e4 <__trunctfdf2>
/home/allenjin/Codes/egraph_isa_compiler_codesign/benchmark/automotive/basicmath/basicmath_small_O3_clean.s:720
   114c0:	00050993          	mv	s3,a0
/home/allenjin/Codes/egraph_isa_compiler_codesign/benchmark/automotive/basicmath/basicmath_small_O3_clean.s:721
   114c4:	0d010513          	addi	a0,sp,208
/home/allenjin/Codes/egraph_isa_compiler_codesign/benchmark/automotive/basicmath/basicmath_small_O3_clean.s:722
   114c8:	0d412a23          	sw	s4,212(sp)
/home/allenjin/Codes/egraph_isa_compiler_codesign/benchmark/automotive/basicmath/basicmath_small_O3_clean.s:723
   114cc:	0d912c23          	sw	s9,216(sp)
/home/allenjin/Codes/egraph_isa_compiler_codesign/benchmark/automotive/basicmath/basicmath_small_O3_clean.s:724
   114d0:	00058413          	mv	s0,a1
/home/allenjin/Codes/egraph_isa_compiler_codesign/benchmark/automotive/basicmath/basicmath_small_O3_clean.s:725
   114d4:	0d212823          	sw	s2,208(sp)
/home/allenjin/Codes/egraph_isa_compiler_codesign/benchmark/automotive/basicmath/basicmath_small_O3_clean.s:726
   114d8:	0da12e23          	sw	s10,220(sp)
/home/allenjin/Codes/egraph_isa_compiler_codesign/benchmark/automotive/basicmath/basicmath_small_O3_clean.s:728
   114dc:	00007097          	auipc	ra,0x7
/home/allenjin/Codes/egraph_isa_compiler_codesign/benchmark/automotive/basicmath/basicmath_small_O3_clean.s:729
   114e0:	508080e7          	jalr	1288(ra) # 189e4 <__trunctfdf2>
/home/allenjin/Codes/egraph_isa_compiler_codesign/benchmark/automotive/basicmath/basicmath_small_O3_clean.s:730
   114e4:	00000613          	li	a2,0
/home/allenjin/Codes/egraph_isa_compiler_codesign/benchmark/automotive/basicmath/basicmath_small_O3_clean.s:731
   114e8:	00000693          	li	a3,0
/home/allenjin/Codes/egraph_isa_compiler_codesign/benchmark/automotive/basicmath/basicmath_small_O3_clean.s:732
   114ec:	00050c93          	mv	s9,a0
/home/allenjin/Codes/egraph_isa_compiler_codesign/benchmark/automotive/basicmath/basicmath_small_O3_clean.s:733
   114f0:	00058a13          	mv	s4,a1
/home/allenjin/Codes/egraph_isa_compiler_codesign/benchmark/automotive/basicmath/basicmath_small_O3_clean.s:735
   114f4:	00002097          	auipc	ra,0x2
/home/allenjin/Codes/egraph_isa_compiler_codesign/benchmark/automotive/basicmath/basicmath_small_O3_clean.s:736
   114f8:	e68080e7          	jalr	-408(ra) # 1335c <__gedf2>
/home/allenjin/Codes/egraph_isa_compiler_codesign/benchmark/automotive/basicmath/basicmath_small_O3_clean.s:737
   114fc:	62a052e3          	blez	a0,12320 <SolveCubic+0x147c>
/home/allenjin/Codes/egraph_isa_compiler_codesign/benchmark/automotive/basicmath/basicmath_small_O3_clean.s:738
   11500:	00098513          	mv	a0,s3
/home/allenjin/Codes/egraph_isa_compiler_codesign/benchmark/automotive/basicmath/basicmath_small_O3_clean.s:739
   11504:	00040593          	mv	a1,s0
/home/allenjin/Codes/egraph_isa_compiler_codesign/benchmark/automotive/basicmath/basicmath_small_O3_clean.s:740
   11508:	00000613          	li	a2,0
/home/allenjin/Codes/egraph_isa_compiler_codesign/benchmark/automotive/basicmath/basicmath_small_O3_clean.s:741
   1150c:	00000693          	li	a3,0
/home/allenjin/Codes/egraph_isa_compiler_codesign/benchmark/automotive/basicmath/basicmath_small_O3_clean.s:743
   11510:	00002097          	auipc	ra,0x2
/home/allenjin/Codes/egraph_isa_compiler_codesign/benchmark/automotive/basicmath/basicmath_small_O3_clean.s:744
   11514:	f24080e7          	jalr	-220(ra) # 13434 <__ledf2>
/home/allenjin/Codes/egraph_isa_compiler_codesign/benchmark/automotive/basicmath/basicmath_small_O3_clean.s:745
   11518:	4ca05463          	blez	a0,119e0 <SolveCubic+0xb3c>
/home/allenjin/Codes/egraph_isa_compiler_codesign/benchmark/automotive/basicmath/basicmath_small_O3_clean.s:747
   1151c:	00027937          	lui	s2,0x27
/home/allenjin/Codes/egraph_isa_compiler_codesign/benchmark/automotive/basicmath/basicmath_small_O3_clean.s:748
   11520:	73c92a03          	lw	s4,1852(s2) # 2773c <__SDATA_BEGIN__+0x84>
/home/allenjin/Codes/egraph_isa_compiler_codesign/benchmark/automotive/basicmath/basicmath_small_O3_clean.s:749
   11524:	73892c83          	lw	s9,1848(s2)
/home/allenjin/Codes/egraph_isa_compiler_codesign/benchmark/automotive/basicmath/basicmath_small_O3_clean.s:750
   11528:	12012703          	lw	a4,288(sp)
/home/allenjin/Codes/egraph_isa_compiler_codesign/benchmark/automotive/basicmath/basicmath_small_O3_clean.s:751
   1152c:	00100793          	li	a5,1
/home/allenjin/Codes/egraph_isa_compiler_codesign/benchmark/automotive/basicmath/basicmath_small_O3_clean.s:752
   11530:	00098513          	mv	a0,s3
/home/allenjin/Codes/egraph_isa_compiler_codesign/benchmark/automotive/basicmath/basicmath_small_O3_clean.s:753
   11534:	000c8613          	mv	a2,s9
/home/allenjin/Codes/egraph_isa_compiler_codesign/benchmark/automotive/basicmath/basicmath_small_O3_clean.s:754
   11538:	00040593          	mv	a1,s0
/home/allenjin/Codes/egraph_isa_compiler_codesign/benchmark/automotive/basicmath/basicmath_small_O3_clean.s:755
   1153c:	000a0693          	mv	a3,s4
/home/allenjin/Codes/egraph_isa_compiler_codesign/benchmark/automotive/basicmath/basicmath_small_O3_clean.s:756
   11540:	00f72023          	sw	a5,0(a4) # 4004b000 <__BSS_END__+0x400234a4>
/home/allenjin/Codes/egraph_isa_compiler_codesign/benchmark/automotive/basicmath/basicmath_small_O3_clean.s:758
   11544:	00002097          	auipc	ra,0x2
/home/allenjin/Codes/egraph_isa_compiler_codesign/benchmark/automotive/basicmath/basicmath_small_O3_clean.s:759
   11548:	ef0080e7          	jalr	-272(ra) # 13434 <__ledf2>
/home/allenjin/Codes/egraph_isa_compiler_codesign/benchmark/automotive/basicmath/basicmath_small_O3_clean.s:760
   1154c:	00054663          	bltz	a0,11558 <SolveCubic+0x6b4>
/home/allenjin/Codes/egraph_isa_compiler_codesign/benchmark/automotive/basicmath/basicmath_small_O3_clean.s:761
   11550:	00098c93          	mv	s9,s3
/home/allenjin/Codes/egraph_isa_compiler_codesign/benchmark/automotive/basicmath/basicmath_small_O3_clean.s:762
   11554:	00040a13          	mv	s4,s0
/home/allenjin/Codes/egraph_isa_compiler_codesign/benchmark/automotive/basicmath/basicmath_small_O3_clean.s:764
   11558:	000c8613          	mv	a2,s9
/home/allenjin/Codes/egraph_isa_compiler_codesign/benchmark/automotive/basicmath/basicmath_small_O3_clean.s:765
   1155c:	000a0693          	mv	a3,s4
/home/allenjin/Codes/egraph_isa_compiler_codesign/benchmark/automotive/basicmath/basicmath_small_O3_clean.s:766
   11560:	00098513          	mv	a0,s3
/home/allenjin/Codes/egraph_isa_compiler_codesign/benchmark/automotive/basicmath/basicmath_small_O3_clean.s:767
   11564:	00040593          	mv	a1,s0
/home/allenjin/Codes/egraph_isa_compiler_codesign/benchmark/automotive/basicmath/basicmath_small_O3_clean.s:769
   11568:	00001097          	auipc	ra,0x1
/home/allenjin/Codes/egraph_isa_compiler_codesign/benchmark/automotive/basicmath/basicmath_small_O3_clean.s:770
   1156c:	6a8080e7          	jalr	1704(ra) # 12c10 <__divdf3>
/home/allenjin/Codes/egraph_isa_compiler_codesign/benchmark/automotive/basicmath/basicmath_small_O3_clean.s:771
   11570:	000c8613          	mv	a2,s9
/home/allenjin/Codes/egraph_isa_compiler_codesign/benchmark/automotive/basicmath/basicmath_small_O3_clean.s:772
   11574:	000a0693          	mv	a3,s4
/home/allenjin/Codes/egraph_isa_compiler_codesign/benchmark/automotive/basicmath/basicmath_small_O3_clean.s:774
   11578:	00001097          	auipc	ra,0x1
/home/allenjin/Codes/egraph_isa_compiler_codesign/benchmark/automotive/basicmath/basicmath_small_O3_clean.s:775
   1157c:	f44080e7          	jalr	-188(ra) # 124bc <__adddf3>
/home/allenjin/Codes/egraph_isa_compiler_codesign/benchmark/automotive/basicmath/basicmath_small_O3_clean.s:776
   11580:	00027a37          	lui	s4,0x27
/home/allenjin/Codes/egraph_isa_compiler_codesign/benchmark/automotive/basicmath/basicmath_small_O3_clean.s:777
   11584:	6c0a2603          	lw	a2,1728(s4) # 276c0 <__SDATA_BEGIN__+0x8>
/home/allenjin/Codes/egraph_isa_compiler_codesign/benchmark/automotive/basicmath/basicmath_small_O3_clean.s:778
   11588:	6c4a2683          	lw	a3,1732(s4)
/home/allenjin/Codes/egraph_isa_compiler_codesign/benchmark/automotive/basicmath/basicmath_small_O3_clean.s:780
   1158c:	00002097          	auipc	ra,0x2
/home/allenjin/Codes/egraph_isa_compiler_codesign/benchmark/automotive/basicmath/basicmath_small_O3_clean.s:781
   11590:	f80080e7          	jalr	-128(ra) # 1350c <__muldf3>
/home/allenjin/Codes/egraph_isa_compiler_codesign/benchmark/automotive/basicmath/basicmath_small_O3_clean.s:782
   11594:	00050c93          	mv	s9,a0
/home/allenjin/Codes/egraph_isa_compiler_codesign/benchmark/automotive/basicmath/basicmath_small_O3_clean.s:783
   11598:	00058d13          	mv	s10,a1
/home/allenjin/Codes/egraph_isa_compiler_codesign/benchmark/automotive/basicmath/basicmath_small_O3_clean.s:784
   1159c:	00050613          	mv	a2,a0
/home/allenjin/Codes/egraph_isa_compiler_codesign/benchmark/automotive/basicmath/basicmath_small_O3_clean.s:785
   115a0:	00058693          	mv	a3,a1
/home/allenjin/Codes/egraph_isa_compiler_codesign/benchmark/automotive/basicmath/basicmath_small_O3_clean.s:786
   115a4:	00098513          	mv	a0,s3
/home/allenjin/Codes/egraph_isa_compiler_codesign/benchmark/automotive/basicmath/basicmath_small_O3_clean.s:787
   115a8:	00040593          	mv	a1,s0
/home/allenjin/Codes/egraph_isa_compiler_codesign/benchmark/automotive/basicmath/basicmath_small_O3_clean.s:789
   115ac:	00001097          	auipc	ra,0x1
/home/allenjin/Codes/egraph_isa_compiler_codesign/benchmark/automotive/basicmath/basicmath_small_O3_clean.s:790
   115b0:	664080e7          	jalr	1636(ra) # 12c10 <__divdf3>
/home/allenjin/Codes/egraph_isa_compiler_codesign/benchmark/automotive/basicmath/basicmath_small_O3_clean.s:791
   115b4:	000c8613          	mv	a2,s9
/home/allenjin/Codes/egraph_isa_compiler_codesign/benchmark/automotive/basicmath/basicmath_small_O3_clean.s:792
   115b8:	000d0693          	mv	a3,s10
/home/allenjin/Codes/egraph_isa_compiler_codesign/benchmark/automotive/basicmath/basicmath_small_O3_clean.s:794
   115bc:	00001097          	auipc	ra,0x1
/home/allenjin/Codes/egraph_isa_compiler_codesign/benchmark/automotive/basicmath/basicmath_small_O3_clean.s:795
   115c0:	f00080e7          	jalr	-256(ra) # 124bc <__adddf3>
/home/allenjin/Codes/egraph_isa_compiler_codesign/benchmark/automotive/basicmath/basicmath_small_O3_clean.s:796
   115c4:	6c0a2603          	lw	a2,1728(s4)
/home/allenjin/Codes/egraph_isa_compiler_codesign/benchmark/automotive/basicmath/basicmath_small_O3_clean.s:797
   115c8:	6c4a2683          	lw	a3,1732(s4)
/home/allenjin/Codes/egraph_isa_compiler_codesign/benchmark/automotive/basicmath/basicmath_small_O3_clean.s:799
   115cc:	00002097          	auipc	ra,0x2
/home/allenjin/Codes/egraph_isa_compiler_codesign/benchmark/automotive/basicmath/basicmath_small_O3_clean.s:800
   115d0:	f40080e7          	jalr	-192(ra) # 1350c <__muldf3>
/home/allenjin/Codes/egraph_isa_compiler_codesign/benchmark/automotive/basicmath/basicmath_small_O3_clean.s:801
   115d4:	00050c93          	mv	s9,a0
/home/allenjin/Codes/egraph_isa_compiler_codesign/benchmark/automotive/basicmath/basicmath_small_O3_clean.s:802
   115d8:	00058d13          	mv	s10,a1
/home/allenjin/Codes/egraph_isa_compiler_codesign/benchmark/automotive/basicmath/basicmath_small_O3_clean.s:803
   115dc:	00050613          	mv	a2,a0
/home/allenjin/Codes/egraph_isa_compiler_codesign/benchmark/automotive/basicmath/basicmath_small_O3_clean.s:804
   115e0:	00058693          	mv	a3,a1
/home/allenjin/Codes/egraph_isa_compiler_codesign/benchmark/automotive/basicmath/basicmath_small_O3_clean.s:805
   115e4:	00098513          	mv	a0,s3
/home/allenjin/Codes/egraph_isa_compiler_codesign/benchmark/automotive/basicmath/basicmath_small_O3_clean.s:806
   115e8:	00040593          	mv	a1,s0
/home/allenjin/Codes/egraph_isa_compiler_codesign/benchmark/automotive/basicmath/basicmath_small_O3_clean.s:808
   115ec:	00001097          	auipc	ra,0x1
/home/allenjin/Codes/egraph_isa_compiler_codesign/benchmark/automotive/basicmath/basicmath_small_O3_clean.s:809
   115f0:	624080e7          	jalr	1572(ra) # 12c10 <__divdf3>
/home/allenjin/Codes/egraph_isa_compiler_codesign/benchmark/automotive/basicmath/basicmath_small_O3_clean.s:810
   115f4:	000c8613          	mv	a2,s9
/home/allenjin/Codes/egraph_isa_compiler_codesign/benchmark/automotive/basicmath/basicmath_small_O3_clean.s:811
   115f8:	000d0693          	mv	a3,s10
/home/allenjin/Codes/egraph_isa_compiler_codesign/benchmark/automotive/basicmath/basicmath_small_O3_clean.s:813
   115fc:	00001097          	auipc	ra,0x1
/home/allenjin/Codes/egraph_isa_compiler_codesign/benchmark/automotive/basicmath/basicmath_small_O3_clean.s:814
   11600:	ec0080e7          	jalr	-320(ra) # 124bc <__adddf3>
/home/allenjin/Codes/egraph_isa_compiler_codesign/benchmark/automotive/basicmath/basicmath_small_O3_clean.s:815
   11604:	6c0a2603          	lw	a2,1728(s4)
/home/allenjin/Codes/egraph_isa_compiler_codesign/benchmark/automotive/basicmath/basicmath_small_O3_clean.s:816
   11608:	6c4a2683          	lw	a3,1732(s4)
/home/allenjin/Codes/egraph_isa_compiler_codesign/benchmark/automotive/basicmath/basicmath_small_O3_clean.s:818
   1160c:	00002097          	auipc	ra,0x2
/home/allenjin/Codes/egraph_isa_compiler_codesign/benchmark/automotive/basicmath/basicmath_small_O3_clean.s:819
   11610:	f00080e7          	jalr	-256(ra) # 1350c <__muldf3>
/home/allenjin/Codes/egraph_isa_compiler_codesign/benchmark/automotive/basicmath/basicmath_small_O3_clean.s:820
   11614:	00050c93          	mv	s9,a0
/home/allenjin/Codes/egraph_isa_compiler_codesign/benchmark/automotive/basicmath/basicmath_small_O3_clean.s:821
   11618:	00058d13          	mv	s10,a1
/home/allenjin/Codes/egraph_isa_compiler_codesign/benchmark/automotive/basicmath/basicmath_small_O3_clean.s:822
   1161c:	00050613          	mv	a2,a0
/home/allenjin/Codes/egraph_isa_compiler_codesign/benchmark/automotive/basicmath/basicmath_small_O3_clean.s:823
   11620:	00058693          	mv	a3,a1
/home/allenjin/Codes/egraph_isa_compiler_codesign/benchmark/automotive/basicmath/basicmath_small_O3_clean.s:824
   11624:	00098513          	mv	a0,s3
/home/allenjin/Codes/egraph_isa_compiler_codesign/benchmark/automotive/basicmath/basicmath_small_O3_clean.s:825
   11628:	00040593          	mv	a1,s0
/home/allenjin/Codes/egraph_isa_compiler_codesign/benchmark/automotive/basicmath/basicmath_small_O3_clean.s:827
   1162c:	00001097          	auipc	ra,0x1
/home/allenjin/Codes/egraph_isa_compiler_codesign/benchmark/automotive/basicmath/basicmath_small_O3_clean.s:828
   11630:	5e4080e7          	jalr	1508(ra) # 12c10 <__divdf3>
/home/allenjin/Codes/egraph_isa_compiler_codesign/benchmark/automotive/basicmath/basicmath_small_O3_clean.s:829
   11634:	000c8613          	mv	a2,s9
/home/allenjin/Codes/egraph_isa_compiler_codesign/benchmark/automotive/basicmath/basicmath_small_O3_clean.s:830
   11638:	000d0693          	mv	a3,s10
/home/allenjin/Codes/egraph_isa_compiler_codesign/benchmark/automotive/basicmath/basicmath_small_O3_clean.s:832
   1163c:	00001097          	auipc	ra,0x1
/home/allenjin/Codes/egraph_isa_compiler_codesign/benchmark/automotive/basicmath/basicmath_small_O3_clean.s:833
   11640:	e80080e7          	jalr	-384(ra) # 124bc <__adddf3>
/home/allenjin/Codes/egraph_isa_compiler_codesign/benchmark/automotive/basicmath/basicmath_small_O3_clean.s:834
   11644:	6c0a2603          	lw	a2,1728(s4)
/home/allenjin/Codes/egraph_isa_compiler_codesign/benchmark/automotive/basicmath/basicmath_small_O3_clean.s:835
   11648:	6c4a2683          	lw	a3,1732(s4)
/home/allenjin/Codes/egraph_isa_compiler_codesign/benchmark/automotive/basicmath/basicmath_small_O3_clean.s:837
   1164c:	00002097          	auipc	ra,0x2
/home/allenjin/Codes/egraph_isa_compiler_codesign/benchmark/automotive/basicmath/basicmath_small_O3_clean.s:838
   11650:	ec0080e7          	jalr	-320(ra) # 1350c <__muldf3>
/home/allenjin/Codes/egraph_isa_compiler_codesign/benchmark/automotive/basicmath/basicmath_small_O3_clean.s:839
   11654:	00050c93          	mv	s9,a0
/home/allenjin/Codes/egraph_isa_compiler_codesign/benchmark/automotive/basicmath/basicmath_small_O3_clean.s:840
   11658:	00058d13          	mv	s10,a1
/home/allenjin/Codes/egraph_isa_compiler_codesign/benchmark/automotive/basicmath/basicmath_small_O3_clean.s:841
   1165c:	00050613          	mv	a2,a0
/home/allenjin/Codes/egraph_isa_compiler_codesign/benchmark/automotive/basicmath/basicmath_small_O3_clean.s:842
   11660:	00058693          	mv	a3,a1
/home/allenjin/Codes/egraph_isa_compiler_codesign/benchmark/automotive/basicmath/basicmath_small_O3_clean.s:843
   11664:	00098513          	mv	a0,s3
/home/allenjin/Codes/egraph_isa_compiler_codesign/benchmark/automotive/basicmath/basicmath_small_O3_clean.s:844
   11668:	00040593          	mv	a1,s0
/home/allenjin/Codes/egraph_isa_compiler_codesign/benchmark/automotive/basicmath/basicmath_small_O3_clean.s:846
   1166c:	00001097          	auipc	ra,0x1
/home/allenjin/Codes/egraph_isa_compiler_codesign/benchmark/automotive/basicmath/basicmath_small_O3_clean.s:847
   11670:	5a4080e7          	jalr	1444(ra) # 12c10 <__divdf3>
/home/allenjin/Codes/egraph_isa_compiler_codesign/benchmark/automotive/basicmath/basicmath_small_O3_clean.s:848
   11674:	000c8613          	mv	a2,s9
/home/allenjin/Codes/egraph_isa_compiler_codesign/benchmark/automotive/basicmath/basicmath_small_O3_clean.s:849
   11678:	000d0693          	mv	a3,s10
/home/allenjin/Codes/egraph_isa_compiler_codesign/benchmark/automotive/basicmath/basicmath_small_O3_clean.s:851
   1167c:	00001097          	auipc	ra,0x1
/home/allenjin/Codes/egraph_isa_compiler_codesign/benchmark/automotive/basicmath/basicmath_small_O3_clean.s:852
   11680:	e40080e7          	jalr	-448(ra) # 124bc <__adddf3>
/home/allenjin/Codes/egraph_isa_compiler_codesign/benchmark/automotive/basicmath/basicmath_small_O3_clean.s:853
   11684:	6c0a2603          	lw	a2,1728(s4)
/home/allenjin/Codes/egraph_isa_compiler_codesign/benchmark/automotive/basicmath/basicmath_small_O3_clean.s:854
   11688:	6c4a2683          	lw	a3,1732(s4)
/home/allenjin/Codes/egraph_isa_compiler_codesign/benchmark/automotive/basicmath/basicmath_small_O3_clean.s:856
   1168c:	00002097          	auipc	ra,0x2
/home/allenjin/Codes/egraph_isa_compiler_codesign/benchmark/automotive/basicmath/basicmath_small_O3_clean.s:857
   11690:	e80080e7          	jalr	-384(ra) # 1350c <__muldf3>
/home/allenjin/Codes/egraph_isa_compiler_codesign/benchmark/automotive/basicmath/basicmath_small_O3_clean.s:858
   11694:	00050c93          	mv	s9,a0
/home/allenjin/Codes/egraph_isa_compiler_codesign/benchmark/automotive/basicmath/basicmath_small_O3_clean.s:859
   11698:	00058d13          	mv	s10,a1
/home/allenjin/Codes/egraph_isa_compiler_codesign/benchmark/automotive/basicmath/basicmath_small_O3_clean.s:860
   1169c:	00050613          	mv	a2,a0
/home/allenjin/Codes/egraph_isa_compiler_codesign/benchmark/automotive/basicmath/basicmath_small_O3_clean.s:861
   116a0:	00058693          	mv	a3,a1
/home/allenjin/Codes/egraph_isa_compiler_codesign/benchmark/automotive/basicmath/basicmath_small_O3_clean.s:862
   116a4:	00098513          	mv	a0,s3
/home/allenjin/Codes/egraph_isa_compiler_codesign/benchmark/automotive/basicmath/basicmath_small_O3_clean.s:863
   116a8:	00040593          	mv	a1,s0
/home/allenjin/Codes/egraph_isa_compiler_codesign/benchmark/automotive/basicmath/basicmath_small_O3_clean.s:865
   116ac:	00001097          	auipc	ra,0x1
/home/allenjin/Codes/egraph_isa_compiler_codesign/benchmark/automotive/basicmath/basicmath_small_O3_clean.s:866
   116b0:	564080e7          	jalr	1380(ra) # 12c10 <__divdf3>
/home/allenjin/Codes/egraph_isa_compiler_codesign/benchmark/automotive/basicmath/basicmath_small_O3_clean.s:867
   116b4:	000c8613          	mv	a2,s9
/home/allenjin/Codes/egraph_isa_compiler_codesign/benchmark/automotive/basicmath/basicmath_small_O3_clean.s:868
   116b8:	000d0693          	mv	a3,s10
/home/allenjin/Codes/egraph_isa_compiler_codesign/benchmark/automotive/basicmath/basicmath_small_O3_clean.s:870
   116bc:	00001097          	auipc	ra,0x1
/home/allenjin/Codes/egraph_isa_compiler_codesign/benchmark/automotive/basicmath/basicmath_small_O3_clean.s:871
   116c0:	e00080e7          	jalr	-512(ra) # 124bc <__adddf3>
/home/allenjin/Codes/egraph_isa_compiler_codesign/benchmark/automotive/basicmath/basicmath_small_O3_clean.s:872
   116c4:	6c0a2603          	lw	a2,1728(s4)
/home/allenjin/Codes/egraph_isa_compiler_codesign/benchmark/automotive/basicmath/basicmath_small_O3_clean.s:873
   116c8:	6c4a2683          	lw	a3,1732(s4)
/home/allenjin/Codes/egraph_isa_compiler_codesign/benchmark/automotive/basicmath/basicmath_small_O3_clean.s:875
   116cc:	00002097          	auipc	ra,0x2
/home/allenjin/Codes/egraph_isa_compiler_codesign/benchmark/automotive/basicmath/basicmath_small_O3_clean.s:876
   116d0:	e40080e7          	jalr	-448(ra) # 1350c <__muldf3>
/home/allenjin/Codes/egraph_isa_compiler_codesign/benchmark/automotive/basicmath/basicmath_small_O3_clean.s:877
   116d4:	00050c93          	mv	s9,a0
/home/allenjin/Codes/egraph_isa_compiler_codesign/benchmark/automotive/basicmath/basicmath_small_O3_clean.s:878
   116d8:	00058d13          	mv	s10,a1
/home/allenjin/Codes/egraph_isa_compiler_codesign/benchmark/automotive/basicmath/basicmath_small_O3_clean.s:879
   116dc:	00050613          	mv	a2,a0
/home/allenjin/Codes/egraph_isa_compiler_codesign/benchmark/automotive/basicmath/basicmath_small_O3_clean.s:880
   116e0:	00058693          	mv	a3,a1
/home/allenjin/Codes/egraph_isa_compiler_codesign/benchmark/automotive/basicmath/basicmath_small_O3_clean.s:881
   116e4:	00098513          	mv	a0,s3
/home/allenjin/Codes/egraph_isa_compiler_codesign/benchmark/automotive/basicmath/basicmath_small_O3_clean.s:882
   116e8:	00040593          	mv	a1,s0
/home/allenjin/Codes/egraph_isa_compiler_codesign/benchmark/automotive/basicmath/basicmath_small_O3_clean.s:884
   116ec:	00001097          	auipc	ra,0x1
/home/allenjin/Codes/egraph_isa_compiler_codesign/benchmark/automotive/basicmath/basicmath_small_O3_clean.s:885
   116f0:	524080e7          	jalr	1316(ra) # 12c10 <__divdf3>
/home/allenjin/Codes/egraph_isa_compiler_codesign/benchmark/automotive/basicmath/basicmath_small_O3_clean.s:886
   116f4:	000c8613          	mv	a2,s9
/home/allenjin/Codes/egraph_isa_compiler_codesign/benchmark/automotive/basicmath/basicmath_small_O3_clean.s:887
   116f8:	000d0693          	mv	a3,s10
/home/allenjin/Codes/egraph_isa_compiler_codesign/benchmark/automotive/basicmath/basicmath_small_O3_clean.s:889
   116fc:	00001097          	auipc	ra,0x1
/home/allenjin/Codes/egraph_isa_compiler_codesign/benchmark/automotive/basicmath/basicmath_small_O3_clean.s:890
   11700:	dc0080e7          	jalr	-576(ra) # 124bc <__adddf3>
/home/allenjin/Codes/egraph_isa_compiler_codesign/benchmark/automotive/basicmath/basicmath_small_O3_clean.s:891
   11704:	6c0a2603          	lw	a2,1728(s4)
/home/allenjin/Codes/egraph_isa_compiler_codesign/benchmark/automotive/basicmath/basicmath_small_O3_clean.s:892
   11708:	6c4a2683          	lw	a3,1732(s4)
/home/allenjin/Codes/egraph_isa_compiler_codesign/benchmark/automotive/basicmath/basicmath_small_O3_clean.s:894
   1170c:	00002097          	auipc	ra,0x2
/home/allenjin/Codes/egraph_isa_compiler_codesign/benchmark/automotive/basicmath/basicmath_small_O3_clean.s:895
   11710:	e00080e7          	jalr	-512(ra) # 1350c <__muldf3>
/home/allenjin/Codes/egraph_isa_compiler_codesign/benchmark/automotive/basicmath/basicmath_small_O3_clean.s:896
   11714:	00050c93          	mv	s9,a0
/home/allenjin/Codes/egraph_isa_compiler_codesign/benchmark/automotive/basicmath/basicmath_small_O3_clean.s:897
   11718:	00058d13          	mv	s10,a1
/home/allenjin/Codes/egraph_isa_compiler_codesign/benchmark/automotive/basicmath/basicmath_small_O3_clean.s:898
   1171c:	00050613          	mv	a2,a0
/home/allenjin/Codes/egraph_isa_compiler_codesign/benchmark/automotive/basicmath/basicmath_small_O3_clean.s:899
   11720:	00058693          	mv	a3,a1
/home/allenjin/Codes/egraph_isa_compiler_codesign/benchmark/automotive/basicmath/basicmath_small_O3_clean.s:900
   11724:	00098513          	mv	a0,s3
/home/allenjin/Codes/egraph_isa_compiler_codesign/benchmark/automotive/basicmath/basicmath_small_O3_clean.s:901
   11728:	00040593          	mv	a1,s0
/home/allenjin/Codes/egraph_isa_compiler_codesign/benchmark/automotive/basicmath/basicmath_small_O3_clean.s:903
   1172c:	00001097          	auipc	ra,0x1
/home/allenjin/Codes/egraph_isa_compiler_codesign/benchmark/automotive/basicmath/basicmath_small_O3_clean.s:904
   11730:	4e4080e7          	jalr	1252(ra) # 12c10 <__divdf3>
/home/allenjin/Codes/egraph_isa_compiler_codesign/benchmark/automotive/basicmath/basicmath_small_O3_clean.s:905
   11734:	000c8613          	mv	a2,s9
/home/allenjin/Codes/egraph_isa_compiler_codesign/benchmark/automotive/basicmath/basicmath_small_O3_clean.s:906
   11738:	000d0693          	mv	a3,s10
/home/allenjin/Codes/egraph_isa_compiler_codesign/benchmark/automotive/basicmath/basicmath_small_O3_clean.s:908
   1173c:	00001097          	auipc	ra,0x1
/home/allenjin/Codes/egraph_isa_compiler_codesign/benchmark/automotive/basicmath/basicmath_small_O3_clean.s:909
   11740:	d80080e7          	jalr	-640(ra) # 124bc <__adddf3>
/home/allenjin/Codes/egraph_isa_compiler_codesign/benchmark/automotive/basicmath/basicmath_small_O3_clean.s:910
   11744:	6c0a2603          	lw	a2,1728(s4)
/home/allenjin/Codes/egraph_isa_compiler_codesign/benchmark/automotive/basicmath/basicmath_small_O3_clean.s:911
   11748:	6c4a2683          	lw	a3,1732(s4)
/home/allenjin/Codes/egraph_isa_compiler_codesign/benchmark/automotive/basicmath/basicmath_small_O3_clean.s:913
   1174c:	00002097          	auipc	ra,0x2
/home/allenjin/Codes/egraph_isa_compiler_codesign/benchmark/automotive/basicmath/basicmath_small_O3_clean.s:914
   11750:	dc0080e7          	jalr	-576(ra) # 1350c <__muldf3>
/home/allenjin/Codes/egraph_isa_compiler_codesign/benchmark/automotive/basicmath/basicmath_small_O3_clean.s:915
   11754:	00050c93          	mv	s9,a0
/home/allenjin/Codes/egraph_isa_compiler_codesign/benchmark/automotive/basicmath/basicmath_small_O3_clean.s:916
   11758:	00058d13          	mv	s10,a1
/home/allenjin/Codes/egraph_isa_compiler_codesign/benchmark/automotive/basicmath/basicmath_small_O3_clean.s:917
   1175c:	00050613          	mv	a2,a0
/home/allenjin/Codes/egraph_isa_compiler_codesign/benchmark/automotive/basicmath/basicmath_small_O3_clean.s:918
   11760:	00058693          	mv	a3,a1
/home/allenjin/Codes/egraph_isa_compiler_codesign/benchmark/automotive/basicmath/basicmath_small_O3_clean.s:919
   11764:	00098513          	mv	a0,s3
/home/allenjin/Codes/egraph_isa_compiler_codesign/benchmark/automotive/basicmath/basicmath_small_O3_clean.s:920
   11768:	00040593          	mv	a1,s0
/home/allenjin/Codes/egraph_isa_compiler_codesign/benchmark/automotive/basicmath/basicmath_small_O3_clean.s:922
   1176c:	00001097          	auipc	ra,0x1
/home/allenjin/Codes/egraph_isa_compiler_codesign/benchmark/automotive/basicmath/basicmath_small_O3_clean.s:923
   11770:	4a4080e7          	jalr	1188(ra) # 12c10 <__divdf3>
/home/allenjin/Codes/egraph_isa_compiler_codesign/benchmark/automotive/basicmath/basicmath_small_O3_clean.s:924
   11774:	000c8613          	mv	a2,s9
/home/allenjin/Codes/egraph_isa_compiler_codesign/benchmark/automotive/basicmath/basicmath_small_O3_clean.s:925
   11778:	000d0693          	mv	a3,s10
/home/allenjin/Codes/egraph_isa_compiler_codesign/benchmark/automotive/basicmath/basicmath_small_O3_clean.s:927
   1177c:	00001097          	auipc	ra,0x1
/home/allenjin/Codes/egraph_isa_compiler_codesign/benchmark/automotive/basicmath/basicmath_small_O3_clean.s:928
   11780:	d40080e7          	jalr	-704(ra) # 124bc <__adddf3>
/home/allenjin/Codes/egraph_isa_compiler_codesign/benchmark/automotive/basicmath/basicmath_small_O3_clean.s:929
   11784:	6c0a2603          	lw	a2,1728(s4)
/home/allenjin/Codes/egraph_isa_compiler_codesign/benchmark/automotive/basicmath/basicmath_small_O3_clean.s:930
   11788:	6c4a2683          	lw	a3,1732(s4)
/home/allenjin/Codes/egraph_isa_compiler_codesign/benchmark/automotive/basicmath/basicmath_small_O3_clean.s:932
   1178c:	00002097          	auipc	ra,0x2
/home/allenjin/Codes/egraph_isa_compiler_codesign/benchmark/automotive/basicmath/basicmath_small_O3_clean.s:933
   11790:	d80080e7          	jalr	-640(ra) # 1350c <__muldf3>
/home/allenjin/Codes/egraph_isa_compiler_codesign/benchmark/automotive/basicmath/basicmath_small_O3_clean.s:934
   11794:	00050c93          	mv	s9,a0
/home/allenjin/Codes/egraph_isa_compiler_codesign/benchmark/automotive/basicmath/basicmath_small_O3_clean.s:935
   11798:	00058d13          	mv	s10,a1
/home/allenjin/Codes/egraph_isa_compiler_codesign/benchmark/automotive/basicmath/basicmath_small_O3_clean.s:936
   1179c:	00050613          	mv	a2,a0
/home/allenjin/Codes/egraph_isa_compiler_codesign/benchmark/automotive/basicmath/basicmath_small_O3_clean.s:937
   117a0:	00058693          	mv	a3,a1
/home/allenjin/Codes/egraph_isa_compiler_codesign/benchmark/automotive/basicmath/basicmath_small_O3_clean.s:938
   117a4:	00098513          	mv	a0,s3
/home/allenjin/Codes/egraph_isa_compiler_codesign/benchmark/automotive/basicmath/basicmath_small_O3_clean.s:939
   117a8:	00040593          	mv	a1,s0
/home/allenjin/Codes/egraph_isa_compiler_codesign/benchmark/automotive/basicmath/basicmath_small_O3_clean.s:941
   117ac:	00001097          	auipc	ra,0x1
/home/allenjin/Codes/egraph_isa_compiler_codesign/benchmark/automotive/basicmath/basicmath_small_O3_clean.s:942
   117b0:	464080e7          	jalr	1124(ra) # 12c10 <__divdf3>
/home/allenjin/Codes/egraph_isa_compiler_codesign/benchmark/automotive/basicmath/basicmath_small_O3_clean.s:943
   117b4:	000c8613          	mv	a2,s9
/home/allenjin/Codes/egraph_isa_compiler_codesign/benchmark/automotive/basicmath/basicmath_small_O3_clean.s:944
   117b8:	000d0693          	mv	a3,s10
/home/allenjin/Codes/egraph_isa_compiler_codesign/benchmark/automotive/basicmath/basicmath_small_O3_clean.s:946
   117bc:	00001097          	auipc	ra,0x1
/home/allenjin/Codes/egraph_isa_compiler_codesign/benchmark/automotive/basicmath/basicmath_small_O3_clean.s:947
   117c0:	d00080e7          	jalr	-768(ra) # 124bc <__adddf3>
/home/allenjin/Codes/egraph_isa_compiler_codesign/benchmark/automotive/basicmath/basicmath_small_O3_clean.s:948
   117c4:	6c0a2603          	lw	a2,1728(s4)
/home/allenjin/Codes/egraph_isa_compiler_codesign/benchmark/automotive/basicmath/basicmath_small_O3_clean.s:949
   117c8:	6c4a2683          	lw	a3,1732(s4)
/home/allenjin/Codes/egraph_isa_compiler_codesign/benchmark/automotive/basicmath/basicmath_small_O3_clean.s:951
   117cc:	00002097          	auipc	ra,0x2
/home/allenjin/Codes/egraph_isa_compiler_codesign/benchmark/automotive/basicmath/basicmath_small_O3_clean.s:952
   117d0:	d40080e7          	jalr	-704(ra) # 1350c <__muldf3>
/home/allenjin/Codes/egraph_isa_compiler_codesign/benchmark/automotive/basicmath/basicmath_small_O3_clean.s:953
   117d4:	00050c93          	mv	s9,a0
/home/allenjin/Codes/egraph_isa_compiler_codesign/benchmark/automotive/basicmath/basicmath_small_O3_clean.s:954
   117d8:	00058d13          	mv	s10,a1
/home/allenjin/Codes/egraph_isa_compiler_codesign/benchmark/automotive/basicmath/basicmath_small_O3_clean.s:955
   117dc:	00050613          	mv	a2,a0
/home/allenjin/Codes/egraph_isa_compiler_codesign/benchmark/automotive/basicmath/basicmath_small_O3_clean.s:956
   117e0:	00058693          	mv	a3,a1
/home/allenjin/Codes/egraph_isa_compiler_codesign/benchmark/automotive/basicmath/basicmath_small_O3_clean.s:957
   117e4:	00098513          	mv	a0,s3
/home/allenjin/Codes/egraph_isa_compiler_codesign/benchmark/automotive/basicmath/basicmath_small_O3_clean.s:958
   117e8:	00040593          	mv	a1,s0
/home/allenjin/Codes/egraph_isa_compiler_codesign/benchmark/automotive/basicmath/basicmath_small_O3_clean.s:960
   117ec:	00001097          	auipc	ra,0x1
/home/allenjin/Codes/egraph_isa_compiler_codesign/benchmark/automotive/basicmath/basicmath_small_O3_clean.s:961
   117f0:	424080e7          	jalr	1060(ra) # 12c10 <__divdf3>
/home/allenjin/Codes/egraph_isa_compiler_codesign/benchmark/automotive/basicmath/basicmath_small_O3_clean.s:962
   117f4:	000c8613          	mv	a2,s9
/home/allenjin/Codes/egraph_isa_compiler_codesign/benchmark/automotive/basicmath/basicmath_small_O3_clean.s:963
   117f8:	000d0693          	mv	a3,s10
/home/allenjin/Codes/egraph_isa_compiler_codesign/benchmark/automotive/basicmath/basicmath_small_O3_clean.s:965
   117fc:	00001097          	auipc	ra,0x1
/home/allenjin/Codes/egraph_isa_compiler_codesign/benchmark/automotive/basicmath/basicmath_small_O3_clean.s:966
   11800:	cc0080e7          	jalr	-832(ra) # 124bc <__adddf3>
/home/allenjin/Codes/egraph_isa_compiler_codesign/benchmark/automotive/basicmath/basicmath_small_O3_clean.s:967
   11804:	6c0a2603          	lw	a2,1728(s4)
/home/allenjin/Codes/egraph_isa_compiler_codesign/benchmark/automotive/basicmath/basicmath_small_O3_clean.s:968
   11808:	6c4a2683          	lw	a3,1732(s4)
/home/allenjin/Codes/egraph_isa_compiler_codesign/benchmark/automotive/basicmath/basicmath_small_O3_clean.s:970
   1180c:	00002097          	auipc	ra,0x2
/home/allenjin/Codes/egraph_isa_compiler_codesign/benchmark/automotive/basicmath/basicmath_small_O3_clean.s:971
   11810:	d00080e7          	jalr	-768(ra) # 1350c <__muldf3>
/home/allenjin/Codes/egraph_isa_compiler_codesign/benchmark/automotive/basicmath/basicmath_small_O3_clean.s:972
   11814:	00050613          	mv	a2,a0
/home/allenjin/Codes/egraph_isa_compiler_codesign/benchmark/automotive/basicmath/basicmath_small_O3_clean.s:973
   11818:	00058693          	mv	a3,a1
/home/allenjin/Codes/egraph_isa_compiler_codesign/benchmark/automotive/basicmath/basicmath_small_O3_clean.s:974
   1181c:	00050c93          	mv	s9,a0
/home/allenjin/Codes/egraph_isa_compiler_codesign/benchmark/automotive/basicmath/basicmath_small_O3_clean.s:975
   11820:	00058d13          	mv	s10,a1
/home/allenjin/Codes/egraph_isa_compiler_codesign/benchmark/automotive/basicmath/basicmath_small_O3_clean.s:976
   11824:	00098513          	mv	a0,s3
/home/allenjin/Codes/egraph_isa_compiler_codesign/benchmark/automotive/basicmath/basicmath_small_O3_clean.s:977
   11828:	00040593          	mv	a1,s0
/home/allenjin/Codes/egraph_isa_compiler_codesign/benchmark/automotive/basicmath/basicmath_small_O3_clean.s:979
   1182c:	00001097          	auipc	ra,0x1
/home/allenjin/Codes/egraph_isa_compiler_codesign/benchmark/automotive/basicmath/basicmath_small_O3_clean.s:980
   11830:	3e4080e7          	jalr	996(ra) # 12c10 <__divdf3>
/home/allenjin/Codes/egraph_isa_compiler_codesign/benchmark/automotive/basicmath/basicmath_small_O3_clean.s:981
   11834:	000c8613          	mv	a2,s9
/home/allenjin/Codes/egraph_isa_compiler_codesign/benchmark/automotive/basicmath/basicmath_small_O3_clean.s:982
   11838:	000d0693          	mv	a3,s10
/home/allenjin/Codes/egraph_isa_compiler_codesign/benchmark/automotive/basicmath/basicmath_small_O3_clean.s:984
   1183c:	00001097          	auipc	ra,0x1
/home/allenjin/Codes/egraph_isa_compiler_codesign/benchmark/automotive/basicmath/basicmath_small_O3_clean.s:985
   11840:	c80080e7          	jalr	-896(ra) # 124bc <__adddf3>
/home/allenjin/Codes/egraph_isa_compiler_codesign/benchmark/automotive/basicmath/basicmath_small_O3_clean.s:986
   11844:	6c0a2603          	lw	a2,1728(s4)
/home/allenjin/Codes/egraph_isa_compiler_codesign/benchmark/automotive/basicmath/basicmath_small_O3_clean.s:987
   11848:	6c4a2683          	lw	a3,1732(s4)
/home/allenjin/Codes/egraph_isa_compiler_codesign/benchmark/automotive/basicmath/basicmath_small_O3_clean.s:989
   1184c:	00002097          	auipc	ra,0x2
/home/allenjin/Codes/egraph_isa_compiler_codesign/benchmark/automotive/basicmath/basicmath_small_O3_clean.s:990
   11850:	cc0080e7          	jalr	-832(ra) # 1350c <__muldf3>
/home/allenjin/Codes/egraph_isa_compiler_codesign/benchmark/automotive/basicmath/basicmath_small_O3_clean.s:991
   11854:	00050993          	mv	s3,a0
/home/allenjin/Codes/egraph_isa_compiler_codesign/benchmark/automotive/basicmath/basicmath_small_O3_clean.s:992
   11858:	00012503          	lw	a0,0(sp)
/home/allenjin/Codes/egraph_isa_compiler_codesign/benchmark/automotive/basicmath/basicmath_small_O3_clean.s:993
   1185c:	00058a13          	mv	s4,a1
/home/allenjin/Codes/egraph_isa_compiler_codesign/benchmark/automotive/basicmath/basicmath_small_O3_clean.s:994
   11860:	00000613          	li	a2,0
/home/allenjin/Codes/egraph_isa_compiler_codesign/benchmark/automotive/basicmath/basicmath_small_O3_clean.s:995
   11864:	000a8593          	mv	a1,s5
/home/allenjin/Codes/egraph_isa_compiler_codesign/benchmark/automotive/basicmath/basicmath_small_O3_clean.s:996
   11868:	00000693          	li	a3,0
/home/allenjin/Codes/egraph_isa_compiler_codesign/benchmark/automotive/basicmath/basicmath_small_O3_clean.s:998
   1186c:	00002097          	auipc	ra,0x2
/home/allenjin/Codes/egraph_isa_compiler_codesign/benchmark/automotive/basicmath/basicmath_small_O3_clean.s:999
   11870:	bc8080e7          	jalr	-1080(ra) # 13434 <__ledf2>
/home/allenjin/Codes/egraph_isa_compiler_codesign/benchmark/automotive/basicmath/basicmath_small_O3_clean.s:1000
   11874:	080548e3          	bltz	a0,12104 <SolveCubic+0x1260>
/home/allenjin/Codes/egraph_isa_compiler_codesign/benchmark/automotive/basicmath/basicmath_small_O3_clean.s:1002
   11878:	00012503          	lw	a0,0(sp)
/home/allenjin/Codes/egraph_isa_compiler_codesign/benchmark/automotive/basicmath/basicmath_small_O3_clean.s:1003
   1187c:	00098613          	mv	a2,s3
/home/allenjin/Codes/egraph_isa_compiler_codesign/benchmark/automotive/basicmath/basicmath_small_O3_clean.s:1004
   11880:	000a0693          	mv	a3,s4
/home/allenjin/Codes/egraph_isa_compiler_codesign/benchmark/automotive/basicmath/basicmath_small_O3_clean.s:1005
   11884:	000d8593          	mv	a1,s11
/home/allenjin/Codes/egraph_isa_compiler_codesign/benchmark/automotive/basicmath/basicmath_small_O3_clean.s:1007
   11888:	00001097          	auipc	ra,0x1
/home/allenjin/Codes/egraph_isa_compiler_codesign/benchmark/automotive/basicmath/basicmath_small_O3_clean.s:1008
   1188c:	c34080e7          	jalr	-972(ra) # 124bc <__adddf3>
/home/allenjin/Codes/egraph_isa_compiler_codesign/benchmark/automotive/basicmath/basicmath_small_O3_clean.s:1009
   11890:	00000613          	li	a2,0
/home/allenjin/Codes/egraph_isa_compiler_codesign/benchmark/automotive/basicmath/basicmath_small_O3_clean.s:1010
   11894:	00000693          	li	a3,0
/home/allenjin/Codes/egraph_isa_compiler_codesign/benchmark/automotive/basicmath/basicmath_small_O3_clean.s:1011
   11898:	00050d13          	mv	s10,a0
/home/allenjin/Codes/egraph_isa_compiler_codesign/benchmark/automotive/basicmath/basicmath_small_O3_clean.s:1012
   1189c:	00058c93          	mv	s9,a1
/home/allenjin/Codes/egraph_isa_compiler_codesign/benchmark/automotive/basicmath/basicmath_small_O3_clean.s:1014
   118a0:	00002097          	auipc	ra,0x2
/home/allenjin/Codes/egraph_isa_compiler_codesign/benchmark/automotive/basicmath/basicmath_small_O3_clean.s:1015
   118a4:	a38080e7          	jalr	-1480(ra) # 132d8 <__eqdf2>
/home/allenjin/Codes/egraph_isa_compiler_codesign/benchmark/automotive/basicmath/basicmath_small_O3_clean.s:1016
   118a8:	060504e3          	beqz	a0,12110 <SolveCubic+0x126c>
/home/allenjin/Codes/egraph_isa_compiler_codesign/benchmark/automotive/basicmath/basicmath_small_O3_clean.s:1017
   118ac:	73c92a03          	lw	s4,1852(s2)
/home/allenjin/Codes/egraph_isa_compiler_codesign/benchmark/automotive/basicmath/basicmath_small_O3_clean.s:1018
   118b0:	73892a83          	lw	s5,1848(s2)
/home/allenjin/Codes/egraph_isa_compiler_codesign/benchmark/automotive/basicmath/basicmath_small_O3_clean.s:1019
   118b4:	000d0513          	mv	a0,s10
/home/allenjin/Codes/egraph_isa_compiler_codesign/benchmark/automotive/basicmath/basicmath_small_O3_clean.s:1020
   118b8:	000c8593          	mv	a1,s9
/home/allenjin/Codes/egraph_isa_compiler_codesign/benchmark/automotive/basicmath/basicmath_small_O3_clean.s:1021
   118bc:	000a8613          	mv	a2,s5
/home/allenjin/Codes/egraph_isa_compiler_codesign/benchmark/automotive/basicmath/basicmath_small_O3_clean.s:1022
   118c0:	000a0693          	mv	a3,s4
/home/allenjin/Codes/egraph_isa_compiler_codesign/benchmark/automotive/basicmath/basicmath_small_O3_clean.s:1024
   118c4:	00002097          	auipc	ra,0x2
/home/allenjin/Codes/egraph_isa_compiler_codesign/benchmark/automotive/basicmath/basicmath_small_O3_clean.s:1025
   118c8:	b70080e7          	jalr	-1168(ra) # 13434 <__ledf2>
/home/allenjin/Codes/egraph_isa_compiler_codesign/benchmark/automotive/basicmath/basicmath_small_O3_clean.s:1026
   118cc:	00054663          	bltz	a0,118d8 <SolveCubic+0xa34>
/home/allenjin/Codes/egraph_isa_compiler_codesign/benchmark/automotive/basicmath/basicmath_small_O3_clean.s:1027
   118d0:	000d0a93          	mv	s5,s10
/home/allenjin/Codes/egraph_isa_compiler_codesign/benchmark/automotive/basicmath/basicmath_small_O3_clean.s:1028
   118d4:	000c8a13          	mv	s4,s9
/home/allenjin/Codes/egraph_isa_compiler_codesign/benchmark/automotive/basicmath/basicmath_small_O3_clean.s:1030
   118d8:	000279b7          	lui	s3,0x27
/home/allenjin/Codes/egraph_isa_compiler_codesign/benchmark/automotive/basicmath/basicmath_small_O3_clean.s:1031
   118dc:	01200413          	li	s0,18
/home/allenjin/Codes/egraph_isa_compiler_codesign/benchmark/automotive/basicmath/basicmath_small_O3_clean.s:1033
   118e0:	000a8613          	mv	a2,s5
/home/allenjin/Codes/egraph_isa_compiler_codesign/benchmark/automotive/basicmath/basicmath_small_O3_clean.s:1034
   118e4:	000a0693          	mv	a3,s4
/home/allenjin/Codes/egraph_isa_compiler_codesign/benchmark/automotive/basicmath/basicmath_small_O3_clean.s:1035
   118e8:	000a8513          	mv	a0,s5
/home/allenjin/Codes/egraph_isa_compiler_codesign/benchmark/automotive/basicmath/basicmath_small_O3_clean.s:1036
   118ec:	000a0593          	mv	a1,s4
/home/allenjin/Codes/egraph_isa_compiler_codesign/benchmark/automotive/basicmath/basicmath_small_O3_clean.s:1038
   118f0:	00002097          	auipc	ra,0x2
/home/allenjin/Codes/egraph_isa_compiler_codesign/benchmark/automotive/basicmath/basicmath_small_O3_clean.s:1039
   118f4:	c1c080e7          	jalr	-996(ra) # 1350c <__muldf3>
/home/allenjin/Codes/egraph_isa_compiler_codesign/benchmark/automotive/basicmath/basicmath_small_O3_clean.s:1040
   118f8:	00000613          	li	a2,0
/home/allenjin/Codes/egraph_isa_compiler_codesign/benchmark/automotive/basicmath/basicmath_small_O3_clean.s:1041
   118fc:	00000693          	li	a3,0
/home/allenjin/Codes/egraph_isa_compiler_codesign/benchmark/automotive/basicmath/basicmath_small_O3_clean.s:1042
   11900:	00a12023          	sw	a0,0(sp)
/home/allenjin/Codes/egraph_isa_compiler_codesign/benchmark/automotive/basicmath/basicmath_small_O3_clean.s:1043
   11904:	00b12223          	sw	a1,4(sp)
/home/allenjin/Codes/egraph_isa_compiler_codesign/benchmark/automotive/basicmath/basicmath_small_O3_clean.s:1045
   11908:	00002097          	auipc	ra,0x2
/home/allenjin/Codes/egraph_isa_compiler_codesign/benchmark/automotive/basicmath/basicmath_small_O3_clean.s:1046
   1190c:	9d0080e7          	jalr	-1584(ra) # 132d8 <__eqdf2>
/home/allenjin/Codes/egraph_isa_compiler_codesign/benchmark/automotive/basicmath/basicmath_small_O3_clean.s:1047
   11910:	000a8613          	mv	a2,s5
/home/allenjin/Codes/egraph_isa_compiler_codesign/benchmark/automotive/basicmath/basicmath_small_O3_clean.s:1048
   11914:	06050a63          	beqz	a0,11988 <SolveCubic+0xae4>
/home/allenjin/Codes/egraph_isa_compiler_codesign/benchmark/automotive/basicmath/basicmath_small_O3_clean.s:1049
   11918:	000a0693          	mv	a3,s4
/home/allenjin/Codes/egraph_isa_compiler_codesign/benchmark/automotive/basicmath/basicmath_small_O3_clean.s:1050
   1191c:	00060513          	mv	a0,a2
/home/allenjin/Codes/egraph_isa_compiler_codesign/benchmark/automotive/basicmath/basicmath_small_O3_clean.s:1051
   11920:	000a0593          	mv	a1,s4
/home/allenjin/Codes/egraph_isa_compiler_codesign/benchmark/automotive/basicmath/basicmath_small_O3_clean.s:1053
   11924:	00001097          	auipc	ra,0x1
/home/allenjin/Codes/egraph_isa_compiler_codesign/benchmark/automotive/basicmath/basicmath_small_O3_clean.s:1054
   11928:	b98080e7          	jalr	-1128(ra) # 124bc <__adddf3>
/home/allenjin/Codes/egraph_isa_compiler_codesign/benchmark/automotive/basicmath/basicmath_small_O3_clean.s:1055
   1192c:	00012603          	lw	a2,0(sp)
/home/allenjin/Codes/egraph_isa_compiler_codesign/benchmark/automotive/basicmath/basicmath_small_O3_clean.s:1056
   11930:	00412683          	lw	a3,4(sp)
/home/allenjin/Codes/egraph_isa_compiler_codesign/benchmark/automotive/basicmath/basicmath_small_O3_clean.s:1057
   11934:	00050a13          	mv	s4,a0
/home/allenjin/Codes/egraph_isa_compiler_codesign/benchmark/automotive/basicmath/basicmath_small_O3_clean.s:1058
   11938:	00058a93          	mv	s5,a1
/home/allenjin/Codes/egraph_isa_compiler_codesign/benchmark/automotive/basicmath/basicmath_small_O3_clean.s:1059
   1193c:	000d0513          	mv	a0,s10
/home/allenjin/Codes/egraph_isa_compiler_codesign/benchmark/automotive/basicmath/basicmath_small_O3_clean.s:1060
   11940:	000c8593          	mv	a1,s9
/home/allenjin/Codes/egraph_isa_compiler_codesign/benchmark/automotive/basicmath/basicmath_small_O3_clean.s:1062
   11944:	00001097          	auipc	ra,0x1
/home/allenjin/Codes/egraph_isa_compiler_codesign/benchmark/automotive/basicmath/basicmath_small_O3_clean.s:1063
   11948:	2cc080e7          	jalr	716(ra) # 12c10 <__divdf3>
/home/allenjin/Codes/egraph_isa_compiler_codesign/benchmark/automotive/basicmath/basicmath_small_O3_clean.s:1064
   1194c:	00050613          	mv	a2,a0
/home/allenjin/Codes/egraph_isa_compiler_codesign/benchmark/automotive/basicmath/basicmath_small_O3_clean.s:1065
   11950:	00058693          	mv	a3,a1
/home/allenjin/Codes/egraph_isa_compiler_codesign/benchmark/automotive/basicmath/basicmath_small_O3_clean.s:1066
   11954:	000a0513          	mv	a0,s4
/home/allenjin/Codes/egraph_isa_compiler_codesign/benchmark/automotive/basicmath/basicmath_small_O3_clean.s:1067
   11958:	000a8593          	mv	a1,s5
/home/allenjin/Codes/egraph_isa_compiler_codesign/benchmark/automotive/basicmath/basicmath_small_O3_clean.s:1069
   1195c:	00001097          	auipc	ra,0x1
/home/allenjin/Codes/egraph_isa_compiler_codesign/benchmark/automotive/basicmath/basicmath_small_O3_clean.s:1070
   11960:	b60080e7          	jalr	-1184(ra) # 124bc <__adddf3>
/home/allenjin/Codes/egraph_isa_compiler_codesign/benchmark/automotive/basicmath/basicmath_small_O3_clean.s:1071
   11964:	000277b7          	lui	a5,0x27
/home/allenjin/Codes/egraph_isa_compiler_codesign/benchmark/automotive/basicmath/basicmath_small_O3_clean.s:1072
   11968:	7607a603          	lw	a2,1888(a5) # 27760 <__SDATA_BEGIN__+0xa8>
/home/allenjin/Codes/egraph_isa_compiler_codesign/benchmark/automotive/basicmath/basicmath_small_O3_clean.s:1073
   1196c:	7647a683          	lw	a3,1892(a5)
/home/allenjin/Codes/egraph_isa_compiler_codesign/benchmark/automotive/basicmath/basicmath_small_O3_clean.s:1074
   11970:	fff40413          	addi	s0,s0,-1
/home/allenjin/Codes/egraph_isa_compiler_codesign/benchmark/automotive/basicmath/basicmath_small_O3_clean.s:1076
   11974:	00001097          	auipc	ra,0x1
/home/allenjin/Codes/egraph_isa_compiler_codesign/benchmark/automotive/basicmath/basicmath_small_O3_clean.s:1077
   11978:	29c080e7          	jalr	668(ra) # 12c10 <__divdf3>
/home/allenjin/Codes/egraph_isa_compiler_codesign/benchmark/automotive/basicmath/basicmath_small_O3_clean.s:1078
   1197c:	00050a93          	mv	s5,a0
/home/allenjin/Codes/egraph_isa_compiler_codesign/benchmark/automotive/basicmath/basicmath_small_O3_clean.s:1079
   11980:	00058a13          	mv	s4,a1
/home/allenjin/Codes/egraph_isa_compiler_codesign/benchmark/automotive/basicmath/basicmath_small_O3_clean.s:1080
   11984:	f4041ee3          	bnez	s0,118e0 <SolveCubic+0xa3c>
/home/allenjin/Codes/egraph_isa_compiler_codesign/benchmark/automotive/basicmath/basicmath_small_O3_clean.s:1082
   11988:	000a8513          	mv	a0,s5
/home/allenjin/Codes/egraph_isa_compiler_codesign/benchmark/automotive/basicmath/basicmath_small_O3_clean.s:1083
   1198c:	000a0593          	mv	a1,s4
/home/allenjin/Codes/egraph_isa_compiler_codesign/benchmark/automotive/basicmath/basicmath_small_O3_clean.s:1084
   11990:	00000613          	li	a2,0
/home/allenjin/Codes/egraph_isa_compiler_codesign/benchmark/automotive/basicmath/basicmath_small_O3_clean.s:1085
   11994:	00000693          	li	a3,0
/home/allenjin/Codes/egraph_isa_compiler_codesign/benchmark/automotive/basicmath/basicmath_small_O3_clean.s:1087
   11998:	00002097          	auipc	ra,0x2
/home/allenjin/Codes/egraph_isa_compiler_codesign/benchmark/automotive/basicmath/basicmath_small_O3_clean.s:1088
   1199c:	940080e7          	jalr	-1728(ra) # 132d8 <__eqdf2>
/home/allenjin/Codes/egraph_isa_compiler_codesign/benchmark/automotive/basicmath/basicmath_small_O3_clean.s:1089
   119a0:	76050e63          	beqz	a0,1211c <SolveCubic+0x1278>
/home/allenjin/Codes/egraph_isa_compiler_codesign/benchmark/automotive/basicmath/basicmath_small_O3_clean.s:1090
   119a4:	00812503          	lw	a0,8(sp)
/home/allenjin/Codes/egraph_isa_compiler_codesign/benchmark/automotive/basicmath/basicmath_small_O3_clean.s:1091
   119a8:	01c12583          	lw	a1,28(sp)
/home/allenjin/Codes/egraph_isa_compiler_codesign/benchmark/automotive/basicmath/basicmath_small_O3_clean.s:1092
   119ac:	000a8613          	mv	a2,s5
/home/allenjin/Codes/egraph_isa_compiler_codesign/benchmark/automotive/basicmath/basicmath_small_O3_clean.s:1093
   119b0:	000a0693          	mv	a3,s4
/home/allenjin/Codes/egraph_isa_compiler_codesign/benchmark/automotive/basicmath/basicmath_small_O3_clean.s:1095
   119b4:	00001097          	auipc	ra,0x1
/home/allenjin/Codes/egraph_isa_compiler_codesign/benchmark/automotive/basicmath/basicmath_small_O3_clean.s:1096
   119b8:	25c080e7          	jalr	604(ra) # 12c10 <__divdf3>
/home/allenjin/Codes/egraph_isa_compiler_codesign/benchmark/automotive/basicmath/basicmath_small_O3_clean.s:1097
   119bc:	00050613          	mv	a2,a0
/home/allenjin/Codes/egraph_isa_compiler_codesign/benchmark/automotive/basicmath/basicmath_small_O3_clean.s:1098
   119c0:	00058693          	mv	a3,a1
/home/allenjin/Codes/egraph_isa_compiler_codesign/benchmark/automotive/basicmath/basicmath_small_O3_clean.s:1099
   119c4:	000a8513          	mv	a0,s5
/home/allenjin/Codes/egraph_isa_compiler_codesign/benchmark/automotive/basicmath/basicmath_small_O3_clean.s:1100
   119c8:	000a0593          	mv	a1,s4
/home/allenjin/Codes/egraph_isa_compiler_codesign/benchmark/automotive/basicmath/basicmath_small_O3_clean.s:1102
   119cc:	00001097          	auipc	ra,0x1
/home/allenjin/Codes/egraph_isa_compiler_codesign/benchmark/automotive/basicmath/basicmath_small_O3_clean.s:1103
   119d0:	af0080e7          	jalr	-1296(ra) # 124bc <__adddf3>
/home/allenjin/Codes/egraph_isa_compiler_codesign/benchmark/automotive/basicmath/basicmath_small_O3_clean.s:1104
   119d4:	00050a93          	mv	s5,a0
/home/allenjin/Codes/egraph_isa_compiler_codesign/benchmark/automotive/basicmath/basicmath_small_O3_clean.s:1105
   119d8:	00058a13          	mv	s4,a1
/home/allenjin/Codes/egraph_isa_compiler_codesign/benchmark/automotive/basicmath/basicmath_small_O3_clean.s:1106
   119dc:	7400006f          	j	1211c <SolveCubic+0x1278>
/home/allenjin/Codes/egraph_isa_compiler_codesign/benchmark/automotive/basicmath/basicmath_small_O3_clean.s:1108
   119e0:	00027937          	lui	s2,0x27
/home/allenjin/Codes/egraph_isa_compiler_codesign/benchmark/automotive/basicmath/basicmath_small_O3_clean.s:1109
   119e4:	73c92403          	lw	s0,1852(s2) # 2773c <__SDATA_BEGIN__+0x84>
/home/allenjin/Codes/egraph_isa_compiler_codesign/benchmark/automotive/basicmath/basicmath_small_O3_clean.s:1110
   119e8:	73892483          	lw	s1,1848(s2)
/home/allenjin/Codes/egraph_isa_compiler_codesign/benchmark/automotive/basicmath/basicmath_small_O3_clean.s:1111
   119ec:	000c8513          	mv	a0,s9
/home/allenjin/Codes/egraph_isa_compiler_codesign/benchmark/automotive/basicmath/basicmath_small_O3_clean.s:1112
   119f0:	000a0593          	mv	a1,s4
/home/allenjin/Codes/egraph_isa_compiler_codesign/benchmark/automotive/basicmath/basicmath_small_O3_clean.s:1113
   119f4:	00048613          	mv	a2,s1
/home/allenjin/Codes/egraph_isa_compiler_codesign/benchmark/automotive/basicmath/basicmath_small_O3_clean.s:1114
   119f8:	00040693          	mv	a3,s0
/home/allenjin/Codes/egraph_isa_compiler_codesign/benchmark/automotive/basicmath/basicmath_small_O3_clean.s:1116
   119fc:	00002097          	auipc	ra,0x2
/home/allenjin/Codes/egraph_isa_compiler_codesign/benchmark/automotive/basicmath/basicmath_small_O3_clean.s:1117
   11a00:	a38080e7          	jalr	-1480(ra) # 13434 <__ledf2>
/home/allenjin/Codes/egraph_isa_compiler_codesign/benchmark/automotive/basicmath/basicmath_small_O3_clean.s:1118
   11a04:	00054663          	bltz	a0,11a10 <SolveCubic+0xb6c>
/home/allenjin/Codes/egraph_isa_compiler_codesign/benchmark/automotive/basicmath/basicmath_small_O3_clean.s:1119
   11a08:	000c8493          	mv	s1,s9
/home/allenjin/Codes/egraph_isa_compiler_codesign/benchmark/automotive/basicmath/basicmath_small_O3_clean.s:1120
   11a0c:	000a0413          	mv	s0,s4
/home/allenjin/Codes/egraph_isa_compiler_codesign/benchmark/automotive/basicmath/basicmath_small_O3_clean.s:1122
   11a10:	00048613          	mv	a2,s1
/home/allenjin/Codes/egraph_isa_compiler_codesign/benchmark/automotive/basicmath/basicmath_small_O3_clean.s:1123
   11a14:	00040693          	mv	a3,s0
/home/allenjin/Codes/egraph_isa_compiler_codesign/benchmark/automotive/basicmath/basicmath_small_O3_clean.s:1124
   11a18:	000c8513          	mv	a0,s9
/home/allenjin/Codes/egraph_isa_compiler_codesign/benchmark/automotive/basicmath/basicmath_small_O3_clean.s:1125
   11a1c:	000a0593          	mv	a1,s4
/home/allenjin/Codes/egraph_isa_compiler_codesign/benchmark/automotive/basicmath/basicmath_small_O3_clean.s:1127
   11a20:	00001097          	auipc	ra,0x1
/home/allenjin/Codes/egraph_isa_compiler_codesign/benchmark/automotive/basicmath/basicmath_small_O3_clean.s:1128
   11a24:	1f0080e7          	jalr	496(ra) # 12c10 <__divdf3>
/home/allenjin/Codes/egraph_isa_compiler_codesign/benchmark/automotive/basicmath/basicmath_small_O3_clean.s:1129
   11a28:	00048613          	mv	a2,s1
/home/allenjin/Codes/egraph_isa_compiler_codesign/benchmark/automotive/basicmath/basicmath_small_O3_clean.s:1130
   11a2c:	00040693          	mv	a3,s0
/home/allenjin/Codes/egraph_isa_compiler_codesign/benchmark/automotive/basicmath/basicmath_small_O3_clean.s:1131
   11a30:	00027db7          	lui	s11,0x27
/home/allenjin/Codes/egraph_isa_compiler_codesign/benchmark/automotive/basicmath/basicmath_small_O3_clean.s:1133
   11a34:	00001097          	auipc	ra,0x1
/home/allenjin/Codes/egraph_isa_compiler_codesign/benchmark/automotive/basicmath/basicmath_small_O3_clean.s:1134
   11a38:	a88080e7          	jalr	-1400(ra) # 124bc <__adddf3>
/home/allenjin/Codes/egraph_isa_compiler_codesign/benchmark/automotive/basicmath/basicmath_small_O3_clean.s:1135
   11a3c:	6c0da603          	lw	a2,1728(s11) # 276c0 <__SDATA_BEGIN__+0x8>
/home/allenjin/Codes/egraph_isa_compiler_codesign/benchmark/automotive/basicmath/basicmath_small_O3_clean.s:1136
   11a40:	6c4da683          	lw	a3,1732(s11)
/home/allenjin/Codes/egraph_isa_compiler_codesign/benchmark/automotive/basicmath/basicmath_small_O3_clean.s:1138
   11a44:	00002097          	auipc	ra,0x2
