
/tmp/tmp.WEC1KWOYuo/rijndael_Oz_clean:     file format elf32-littleriscv


Disassembly of section .text:

000100b4 <exit>:
exit():
   100b4:	ff010113          	addi	sp,sp,-16
   100b8:	00000593          	addi	a1,zero,0
   100bc:	00812423          	sw	s0,8(sp)
   100c0:	00112623          	sw	ra,12(sp)
   100c4:	00050413          	addi	s0,a0,0
   100c8:	5a1010ef          	jal	ra,11e68 <__call_exitprocs>
   100cc:	8841a783          	lw	a5,-1916(gp) # 6fed4 <__stdio_exit_handler>
   100d0:	00078463          	beq	a5,zero,100d8 <exit+0x24>
   100d4:	000780e7          	jalr	ra,0(a5)
   100d8:	00040513          	addi	a0,s0,0
   100dc:	6350c0ef          	jal	ra,1cf10 <_exit>

000100e0 <main>:
main():
   100e0:	dc010113          	addi	sp,sp,-576
   100e4:	22812c23          	sw	s0,568(sp)
   100e8:	00022437          	lui	s0,0x22
   100ec:	22912a23          	sw	s1,564(sp)
   100f0:	23312623          	sw	s3,556(sp)
   100f4:	23412423          	sw	s4,552(sp)
   100f8:	22112e23          	sw	ra,572(sp)
   100fc:	23212823          	sw	s2,560(sp)
   10100:	b2840413          	addi	s0,s0,-1240 # 21b28 <__clzsi2+0x50>
   10104:	00000493          	addi	s1,zero,0
   10108:	01410993          	addi	s3,sp,20
   1010c:	02000a13          	addi	s4,zero,32
   10110:	00044503          	lbu	a0,0(s0)
   10114:	00000097          	auipc	ra,0x0
   10118:	294080e7          	jalr	ra,660(ra) # 103a8 <hex_value>
   1011c:	00050913          	addi	s2,a0,0
   10120:	00144503          	lbu	a0,1(s0)
   10124:	00000097          	auipc	ra,0x0
   10128:	284080e7          	jalr	ra,644(ra) # 103a8 <hex_value>
   1012c:	00190793          	addi	a5,s2,1
   10130:	12078063          	beq	a5,zero,10250 <main+0x170>
   10134:	00150793          	addi	a5,a0,1
   10138:	10078c63          	beq	a5,zero,10250 <main+0x170>
   1013c:	00491913          	slli	s2,s2,0x4
   10140:	009987b3          	add	a5,s3,s1
   10144:	00a96933          	or	s2,s2,a0
   10148:	01278023          	sb	s2,0(a5)
   1014c:	00148493          	addi	s1,s1,1
   10150:	00240413          	addi	s0,s0,2
   10154:	fb449ee3          	bne	s1,s4,10110 <main+0x30>
   10158:	03410693          	addi	a3,sp,52
   1015c:	00100613          	addi	a2,zero,1
   10160:	00048593          	addi	a1,s1,0
   10164:	00098513          	addi	a0,s3,0
   10168:	00000097          	auipc	ra,0x0
   1016c:	2b0080e7          	jalr	ra,688(ra) # 10418 <set_key>
   10170:	00055737          	lui	a4,0x55
   10174:	000bea37          	lui	s4,0xbe
   10178:	0004c5b7          	lui	a1,0x4c
   1017c:	00022537          	lui	a0,0x22
   10180:	00c10793          	addi	a5,sp,12
   10184:	73070713          	addi	a4,a4,1840 # 55730 <input_small_data+0x33844>
   10188:	110a0693          	addi	a3,s4,272 # be110 <cipher_buffer.1>
   1018c:	03410613          	addi	a2,sp,52
   10190:	21058593          	addi	a1,a1,528 # 4c210 <input_small_data+0x2a324>
   10194:	eec50513          	addi	a0,a0,-276 # 21eec <input_small_data>
   10198:	00001097          	auipc	ra,0x1
   1019c:	e14080e7          	jalr	ra,-492(ra) # 10fac <enc_buffer>
   101a0:	ffe00413          	addi	s0,zero,-2
   101a4:	06051263          	bne	a0,zero,10208 <main+0x128>
   101a8:	03410693          	addi	a3,sp,52
   101ac:	00200613          	addi	a2,zero,2
   101b0:	00048593          	addi	a1,s1,0
   101b4:	00098513          	addi	a0,s3,0
   101b8:	00000097          	auipc	ra,0x0
   101bc:	260080e7          	jalr	ra,608(ra) # 10418 <set_key>
   101c0:	00c12583          	lw	a1,12(sp)
   101c4:	0004e737          	lui	a4,0x4e
   101c8:	00070937          	lui	s2,0x70
   101cc:	01010793          	addi	a5,sp,16
   101d0:	20070713          	addi	a4,a4,512 # 4e200 <input_small_data+0x2c314>
   101d4:	f1090693          	addi	a3,s2,-240 # 6ff10 <plain_buffer.0>
   101d8:	03410613          	addi	a2,sp,52
   101dc:	110a0513          	addi	a0,s4,272
   101e0:	00001097          	auipc	ra,0x1
   101e4:	f9c080e7          	jalr	ra,-100(ra) # 1117c <dec_buffer>
   101e8:	00050413          	addi	s0,a0,0
   101ec:	04051e63          	bne	a0,zero,10248 <main+0x168>
   101f0:	000229b7          	lui	s3,0x22
   101f4:	00000493          	addi	s1,zero,0
   101f8:	f1090913          	addi	s2,s2,-240
   101fc:	b6c98993          	addi	s3,s3,-1172 # 21b6c <__clzsi2+0x94>
   10200:	01012783          	lw	a5,16(sp)
   10204:	02f4e463          	bltu	s1,a5,1022c <main+0x14c>
   10208:	23c12083          	lw	ra,572(sp)
   1020c:	00040513          	addi	a0,s0,0
   10210:	23812403          	lw	s0,568(sp)
   10214:	23412483          	lw	s1,564(sp)
   10218:	23012903          	lw	s2,560(sp)
   1021c:	22c12983          	lw	s3,556(sp)
   10220:	22812a03          	lw	s4,552(sp)
   10224:	24010113          	addi	sp,sp,576
   10228:	00008067          	jalr	zero,0(ra)
   1022c:	012487b3          	add	a5,s1,s2
   10230:	0007c583          	lbu	a1,0(a5)
   10234:	00098513          	addi	a0,s3,0
   10238:	00148493          	addi	s1,s1,1
   1023c:	00001097          	auipc	ra,0x1
   10240:	6a0080e7          	jalr	ra,1696(ra) # 118dc <printf>
   10244:	fbdff06f          	jal	zero,10200 <main+0x120>
   10248:	ffd00413          	addi	s0,zero,-3
   1024c:	fbdff06f          	jal	zero,10208 <main+0x128>
   10250:	00022537          	lui	a0,0x22
   10254:	b7050513          	addi	a0,a0,-1168 # 21b70 <__clzsi2+0x98>
   10258:	00001097          	auipc	ra,0x1
   1025c:	684080e7          	jalr	ra,1668(ra) # 118dc <printf>
   10260:	fff00413          	addi	s0,zero,-1
   10264:	fa5ff06f          	jal	zero,10208 <main+0x128>

00010268 <register_fini>:
register_fini():
   10268:	00000793          	addi	a5,zero,0
   1026c:	00078863          	beq	a5,zero,1027c <register_fini+0x14>
   10270:	00017537          	lui	a0,0x17
   10274:	a3450513          	addi	a0,a0,-1484 # 16a34 <__libc_fini_array>
   10278:	5250106f          	jal	zero,11f9c <atexit>
   1027c:	00008067          	jalr	zero,0(ra)

00010280 <_start>:
_start():
   10280:	00060197          	auipc	gp,0x60
   10284:	3d018193          	addi	gp,gp,976 # 70650 <__global_pointer$>
   10288:	00060517          	auipc	a0,0x60
   1028c:	c4850513          	addi	a0,a0,-952 # 6fed0 <r.2>
   10290:	00104617          	auipc	a2,0x104
   10294:	8a060613          	addi	a2,a2,-1888 # 113b30 <__BSS_END__>
   10298:	40a60633          	sub	a2,a2,a0
   1029c:	00000593          	addi	a1,zero,0
   102a0:	2ed010ef          	jal	ra,11d8c <memset>
   102a4:	00002517          	auipc	a0,0x2
   102a8:	cf850513          	addi	a0,a0,-776 # 11f9c <atexit>
   102ac:	00050863          	beq	a0,zero,102bc <_start+0x3c>
   102b0:	00006517          	auipc	a0,0x6
   102b4:	78450513          	addi	a0,a0,1924 # 16a34 <__libc_fini_array>
   102b8:	4e5010ef          	jal	ra,11f9c <atexit>
   102bc:	23d010ef          	jal	ra,11cf8 <__libc_init_array>
   102c0:	00012503          	lw	a0,0(sp)
   102c4:	00410593          	addi	a1,sp,4
   102c8:	00000613          	addi	a2,zero,0
   102cc:	e15ff0ef          	jal	ra,100e0 <main>
   102d0:	de5ff06f          	jal	zero,100b4 <exit>

000102d4 <__do_global_dtors_aux>:
__do_global_dtors_aux():
   102d4:	ff010113          	addi	sp,sp,-16
   102d8:	00812423          	sw	s0,8(sp)
   102dc:	8a41c783          	lbu	a5,-1884(gp) # 6fef4 <completed.1>
   102e0:	00112623          	sw	ra,12(sp)
   102e4:	02079263          	bne	a5,zero,10308 <__do_global_dtors_aux+0x34>
   102e8:	00000793          	addi	a5,zero,0
   102ec:	00078a63          	beq	a5,zero,10300 <__do_global_dtors_aux+0x2c>
   102f0:	0006e537          	lui	a0,0x6e
   102f4:	79450513          	addi	a0,a0,1940 # 6e794 <__EH_FRAME_BEGIN__>
   102f8:	00000097          	auipc	ra,0x0
   102fc:	000000e7          	jalr	ra,0(zero) # 0 <exit-0x100b4>
   10300:	00100793          	addi	a5,zero,1
   10304:	8af18223          	sb	a5,-1884(gp) # 6fef4 <completed.1>
   10308:	00c12083          	lw	ra,12(sp)
   1030c:	00812403          	lw	s0,8(sp)
   10310:	01010113          	addi	sp,sp,16
   10314:	00008067          	jalr	zero,0(ra) # 102f8 <__do_global_dtors_aux+0x24>

00010318 <frame_dummy>:
frame_dummy():
   10318:	00000793          	addi	a5,zero,0
   1031c:	00078c63          	beq	a5,zero,10334 <frame_dummy+0x1c>
   10320:	0006e537          	lui	a0,0x6e
   10324:	8a818593          	addi	a1,gp,-1880 # 6fef8 <object.0>
   10328:	79450513          	addi	a0,a0,1940 # 6e794 <__EH_FRAME_BEGIN__>
   1032c:	00000317          	auipc	t1,0x0
   10330:	00000067          	jalr	zero,0(zero) # 0 <exit-0x100b4>
   10334:	00008067          	jalr	zero,0(ra)

00010338 <gmul>:
gmul():
   10338:	00755693          	srli	a3,a0,0x7
   1033c:	40d006b3          	sub	a3,zero,a3
   10340:	00151793          	slli	a5,a0,0x1
   10344:	01b6f693          	andi	a3,a3,27
   10348:	00f6c6b3          	xor	a3,a3,a5
   1034c:	01869793          	slli	a5,a3,0x18
   10350:	41f7d713          	srai	a4,a5,0x1f
   10354:	01b77713          	andi	a4,a4,27
   10358:	00169793          	slli	a5,a3,0x1
   1035c:	00f74733          	xor	a4,a4,a5
   10360:	0015d793          	srli	a5,a1,0x1
   10364:	0017f793          	andi	a5,a5,1
   10368:	02d787b3          	mul	a5,a5,a3
   1036c:	0015f693          	andi	a3,a1,1
   10370:	0025d593          	srli	a1,a1,0x2
   10374:	0015f593          	andi	a1,a1,1
   10378:	01871613          	slli	a2,a4,0x18
   1037c:	02d50533          	mul	a0,a0,a3
   10380:	41f65693          	srai	a3,a2,0x1f
   10384:	01b6f693          	andi	a3,a3,27
   10388:	02e585b3          	mul	a1,a1,a4
   1038c:	00a7c7b3          	xor	a5,a5,a0
   10390:	00171713          	slli	a4,a4,0x1
   10394:	00e6c733          	xor	a4,a3,a4
   10398:	00b7c7b3          	xor	a5,a5,a1
   1039c:	00e7c533          	xor	a0,a5,a4
   103a0:	0ff57513          	andi	a0,a0,255
   103a4:	00008067          	jalr	zero,0(ra)

000103a8 <hex_value>:
hex_value():
   103a8:	fd050793          	addi	a5,a0,-48
   103ac:	0ff7f613          	andi	a2,a5,255
   103b0:	00900693          	addi	a3,zero,9
   103b4:	00050713          	addi	a4,a0,0
   103b8:	00c6e663          	bltu	a3,a2,103c4 <hex_value+0x1c>
   103bc:	00078513          	addi	a0,a5,0
   103c0:	00008067          	jalr	zero,0(ra)
   103c4:	fbf50793          	addi	a5,a0,-65
   103c8:	0ff7f793          	andi	a5,a5,255
   103cc:	00500693          	addi	a3,zero,5
   103d0:	00f6e663          	bltu	a3,a5,103dc <hex_value+0x34>
   103d4:	fc950513          	addi	a0,a0,-55
   103d8:	00008067          	jalr	zero,0(ra)
   103dc:	f9f50793          	addi	a5,a0,-97
   103e0:	0ff7f793          	andi	a5,a5,255
   103e4:	fff00513          	addi	a0,zero,-1
   103e8:	00f6e463          	bltu	a3,a5,103f0 <hex_value+0x48>
   103ec:	fa970513          	addi	a0,a4,-87
   103f0:	00008067          	jalr	zero,0(ra)

000103f4 <my_memcpy.isra.0>:
my_memcpy.isra.0():
   103f4:	00000793          	addi	a5,zero,0
   103f8:	00f61463          	bne	a2,a5,10400 <my_memcpy.isra.0+0xc>
   103fc:	00008067          	jalr	zero,0(ra)
   10400:	00f58733          	add	a4,a1,a5
   10404:	00074683          	lbu	a3,0(a4)
   10408:	00f50733          	add	a4,a0,a5
   1040c:	00178793          	addi	a5,a5,1
   10410:	00d70023          	sb	a3,0(a4)
   10414:	fe5ff06f          	jal	zero,103f8 <my_memcpy.isra.0+0x4>

00010418 <set_key>:
set_key():
   10418:	fb010113          	addi	sp,sp,-80
   1041c:	03312e23          	sw	s3,60(sp)
   10420:	0025d993          	srli	s3,a1,0x2
   10424:	05212023          	sw	s2,64(sp)
   10428:	04112623          	sw	ra,76(sp)
   1042c:	04812423          	sw	s0,72(sp)
   10430:	04912223          	sw	s1,68(sp)
   10434:	03412c23          	sw	s4,56(sp)
   10438:	03512a23          	sw	s5,52(sp)
   1043c:	03612823          	sw	s6,48(sp)
   10440:	03712623          	sw	s7,44(sp)
   10444:	03812423          	sw	s8,40(sp)
   10448:	03912223          	sw	s9,36(sp)
   1044c:	03a12023          	sw	s10,32(sp)
   10450:	01b12e23          	sw	s11,28(sp)
   10454:	00698793          	addi	a5,s3,6
   10458:	0136a023          	sw	s3,0(a3)
   1045c:	00f6a223          	sw	a5,4(a3)
   10460:	1ec68423          	sb	a2,488(a3)
   10464:	00299813          	slli	a6,s3,0x2
   10468:	00000913          	addi	s2,zero,0
   1046c:	2b281a63          	bne	a6,s2,10720 <set_key+0x308>
   10470:	0079b313          	sltiu	t1,s3,7
   10474:	00868b93          	addi	s7,a3,8
   10478:	00022537          	lui	a0,0x22
   1047c:	01c90e13          	addi	t3,s2,28
   10480:	00000793          	addi	a5,zero,0
   10484:	00134313          	xori	t1,t1,1
   10488:	012b88b3          	add	a7,s7,s2
   1048c:	41200eb3          	sub	t4,zero,s2
   10490:	00098813          	addi	a6,s3,0
   10494:	cc450513          	addi	a0,a0,-828 # 21cc4 <s_box>
   10498:	2dc86263          	bltu	a6,t3,1075c <set_key+0x344>
   1049c:	00267613          	andi	a2,a2,2
   104a0:	00078413          	addi	s0,a5,0
   104a4:	22060e63          	beq	a2,zero,106e0 <set_key+0x2c8>
   104a8:	0f868793          	addi	a5,a3,248
   104ac:	10868713          	addi	a4,a3,264
   104b0:	00499993          	slli	s3,s3,0x4
   104b4:	01378633          	add	a2,a5,s3
   104b8:	f7062603          	lw	a2,-144(a2)
   104bc:	00478793          	addi	a5,a5,4
   104c0:	fec7ae23          	sw	a2,-4(a5)
   104c4:	fef718e3          	bne	a4,a5,104b4 <set_key+0x9c>
   104c8:	ffff0ab7          	lui	s5,0xffff0
   104cc:	ff010b37          	lui	s6,0xff010
   104d0:	00068493          	addi	s1,a3,0
   104d4:	01490913          	addi	s2,s2,20
   104d8:	00400d13          	addi	s10,zero,4
   104dc:	0ffa8a93          	addi	s5,s5,255 # ffff00ff <__BSS_END__+0xffedc5cf>
   104e0:	fffb0b13          	addi	s6,s6,-1 # ff00ffff <__BSS_END__+0xfeefc4cf>
   104e4:	00291c93          	slli	s9,s2,0x2
   104e8:	002d1c13          	slli	s8,s10,0x2
   104ec:	01948cb3          	add	s9,s1,s9
   104f0:	01848c33          	add	s8,s1,s8
   104f4:	00000d93          	addi	s11,zero,0
   104f8:	008ca783          	lw	a5,8(s9)
   104fc:	00e00593          	addi	a1,zero,14
   10500:	001d8d93          	addi	s11,s11,1
   10504:	0ff7f713          	andi	a4,a5,255
   10508:	00e12623          	sw	a4,12(sp)
   1050c:	0087d613          	srli	a2,a5,0x8
   10510:	00c12503          	lw	a0,12(sp)
   10514:	0ff67713          	andi	a4,a2,255
   10518:	0107d613          	srli	a2,a5,0x10
   1051c:	00e12423          	sw	a4,8(sp)
   10520:	0187d793          	srli	a5,a5,0x18
   10524:	0ff67713          	andi	a4,a2,255
   10528:	00e12223          	sw	a4,4(sp)
   1052c:	00f12023          	sw	a5,0(sp)
   10530:	00000097          	auipc	ra,0x0
   10534:	e08080e7          	jalr	ra,-504(ra) # 10338 <gmul>
   10538:	00050a13          	addi	s4,a0,0
   1053c:	00812503          	lw	a0,8(sp)
   10540:	00b00593          	addi	a1,zero,11
   10544:	004c8c93          	addi	s9,s9,4
   10548:	00000097          	auipc	ra,0x0
   1054c:	df0080e7          	jalr	ra,-528(ra) # 10338 <gmul>
   10550:	00aa4a33          	xor	s4,s4,a0
   10554:	00412503          	lw	a0,4(sp)
   10558:	00d00593          	addi	a1,zero,13
   1055c:	004c0c13          	addi	s8,s8,4
   10560:	00000097          	auipc	ra,0x0
   10564:	dd8080e7          	jalr	ra,-552(ra) # 10338 <gmul>
   10568:	00aa4a33          	xor	s4,s4,a0
   1056c:	00012503          	lw	a0,0(sp)
   10570:	00900593          	addi	a1,zero,9
   10574:	00000097          	auipc	ra,0x0
   10578:	dc4080e7          	jalr	ra,-572(ra) # 10338 <gmul>
   1057c:	00aa4a33          	xor	s4,s4,a0
   10580:	00c12503          	lw	a0,12(sp)
   10584:	f0047793          	andi	a5,s0,-256
   10588:	0ffa7a13          	andi	s4,s4,255
   1058c:	00900593          	addi	a1,zero,9
   10590:	0147e433          	or	s0,a5,s4
   10594:	00000097          	auipc	ra,0x0
   10598:	da4080e7          	jalr	ra,-604(ra) # 10338 <gmul>
   1059c:	00050a13          	addi	s4,a0,0
   105a0:	00812503          	lw	a0,8(sp)
   105a4:	00e00593          	addi	a1,zero,14
   105a8:	00000097          	auipc	ra,0x0
   105ac:	d90080e7          	jalr	ra,-624(ra) # 10338 <gmul>
   105b0:	00aa4a33          	xor	s4,s4,a0
   105b4:	00412503          	lw	a0,4(sp)
   105b8:	00b00593          	addi	a1,zero,11
   105bc:	00000097          	auipc	ra,0x0
   105c0:	d7c080e7          	jalr	ra,-644(ra) # 10338 <gmul>
   105c4:	00aa4a33          	xor	s4,s4,a0
   105c8:	00012503          	lw	a0,0(sp)
   105cc:	00d00593          	addi	a1,zero,13
   105d0:	00000097          	auipc	ra,0x0
   105d4:	d68080e7          	jalr	ra,-664(ra) # 10338 <gmul>
   105d8:	00aa4a33          	xor	s4,s4,a0
   105dc:	00c12503          	lw	a0,12(sp)
   105e0:	0ffa7a13          	andi	s4,s4,255
   105e4:	015477b3          	and	a5,s0,s5
   105e8:	008a1a13          	slli	s4,s4,0x8
   105ec:	00d00593          	addi	a1,zero,13
   105f0:	0147e433          	or	s0,a5,s4
   105f4:	00000097          	auipc	ra,0x0
   105f8:	d44080e7          	jalr	ra,-700(ra) # 10338 <gmul>
   105fc:	00050a13          	addi	s4,a0,0
   10600:	00812503          	lw	a0,8(sp)
   10604:	00900593          	addi	a1,zero,9
   10608:	00000097          	auipc	ra,0x0
   1060c:	d30080e7          	jalr	ra,-720(ra) # 10338 <gmul>
   10610:	00aa4a33          	xor	s4,s4,a0
   10614:	00412503          	lw	a0,4(sp)
   10618:	00e00593          	addi	a1,zero,14
   1061c:	00000097          	auipc	ra,0x0
   10620:	d1c080e7          	jalr	ra,-740(ra) # 10338 <gmul>
   10624:	00aa4a33          	xor	s4,s4,a0
   10628:	00012503          	lw	a0,0(sp)
   1062c:	00b00593          	addi	a1,zero,11
   10630:	00000097          	auipc	ra,0x0
   10634:	d08080e7          	jalr	ra,-760(ra) # 10338 <gmul>
   10638:	00aa4a33          	xor	s4,s4,a0
   1063c:	00c12503          	lw	a0,12(sp)
   10640:	0ffa7a13          	andi	s4,s4,255
   10644:	016477b3          	and	a5,s0,s6
   10648:	010a1a13          	slli	s4,s4,0x10
   1064c:	00b00593          	addi	a1,zero,11
   10650:	0147e433          	or	s0,a5,s4
   10654:	00000097          	auipc	ra,0x0
   10658:	ce4080e7          	jalr	ra,-796(ra) # 10338 <gmul>
   1065c:	00050a13          	addi	s4,a0,0
   10660:	00812503          	lw	a0,8(sp)
   10664:	00d00593          	addi	a1,zero,13
   10668:	00000097          	auipc	ra,0x0
   1066c:	cd0080e7          	jalr	ra,-816(ra) # 10338 <gmul>
   10670:	00aa4a33          	xor	s4,s4,a0
   10674:	00412503          	lw	a0,4(sp)
   10678:	00900593          	addi	a1,zero,9
   1067c:	00000097          	auipc	ra,0x0
   10680:	cbc080e7          	jalr	ra,-836(ra) # 10338 <gmul>
   10684:	00aa4a33          	xor	s4,s4,a0
   10688:	00012503          	lw	a0,0(sp)
   1068c:	00e00593          	addi	a1,zero,14
   10690:	00000097          	auipc	ra,0x0
   10694:	ca8080e7          	jalr	ra,-856(ra) # 10338 <gmul>
   10698:	010007b7          	lui	a5,0x1000
   1069c:	00aa4a33          	xor	s4,s4,a0
   106a0:	fff78713          	addi	a4,a5,-1 # ffffff <__BSS_END__+0xeec4cf>
   106a4:	018a1a13          	slli	s4,s4,0x18
   106a8:	00e477b3          	and	a5,s0,a4
   106ac:	0147e433          	or	s0,a5,s4
   106b0:	0e8c2a23          	sw	s0,244(s8)
   106b4:	00400693          	addi	a3,zero,4
   106b8:	e4dd90e3          	bne	s11,a3,104f8 <set_key+0xe0>
   106bc:	ffc90913          	addi	s2,s2,-4
   106c0:	00dd0d33          	add	s10,s10,a3
   106c4:	e20910e3          	bne	s2,zero,104e4 <set_key+0xcc>
   106c8:	01848493          	addi	s1,s1,24
   106cc:	000ba703          	lw	a4,0(s7)
   106d0:	013b87b3          	add	a5,s7,s3
   106d4:	004b8b93          	addi	s7,s7,4
   106d8:	14e7a823          	sw	a4,336(a5)
   106dc:	fe9b98e3          	bne	s7,s1,106cc <set_key+0x2b4>
   106e0:	04c12083          	lw	ra,76(sp)
   106e4:	04812403          	lw	s0,72(sp)
   106e8:	04412483          	lw	s1,68(sp)
   106ec:	04012903          	lw	s2,64(sp)
   106f0:	03c12983          	lw	s3,60(sp)
   106f4:	03812a03          	lw	s4,56(sp)
   106f8:	03412a83          	lw	s5,52(sp)
   106fc:	03012b03          	lw	s6,48(sp)
   10700:	02c12b83          	lw	s7,44(sp)
   10704:	02812c03          	lw	s8,40(sp)
   10708:	02412c83          	lw	s9,36(sp)
   1070c:	02012d03          	lw	s10,32(sp)
   10710:	01c12d83          	lw	s11,28(sp)
   10714:	00100513          	addi	a0,zero,1
   10718:	05010113          	addi	sp,sp,80
   1071c:	00008067          	jalr	zero,0(ra)
   10720:	012505b3          	add	a1,a0,s2
   10724:	0015c783          	lbu	a5,1(a1)
   10728:	0005c703          	lbu	a4,0(a1)
   1072c:	00879793          	slli	a5,a5,0x8
   10730:	00e7e7b3          	or	a5,a5,a4
   10734:	0025c703          	lbu	a4,2(a1)
   10738:	01071713          	slli	a4,a4,0x10
   1073c:	00f76733          	or	a4,a4,a5
   10740:	0035c783          	lbu	a5,3(a1)
   10744:	01879793          	slli	a5,a5,0x18
   10748:	00e7e7b3          	or	a5,a5,a4
   1074c:	01268733          	add	a4,a3,s2
   10750:	00f72423          	sw	a5,8(a4)
   10754:	00490913          	addi	s2,s2,4
   10758:	d15ff06f          	jal	zero,1046c <set_key+0x54>
   1075c:	03387733          	remu	a4,a6,s3
   10760:	ffc8a783          	lw	a5,-4(a7)
   10764:	08071463          	bne	a4,zero,107ec <set_key+0x3d4>
   10768:	0107d713          	srli	a4,a5,0x10
   1076c:	0187d593          	srli	a1,a5,0x18
   10770:	0ff77713          	andi	a4,a4,255
   10774:	00e50733          	add	a4,a0,a4
   10778:	00b505b3          	add	a1,a0,a1
   1077c:	00074703          	lbu	a4,0(a4)
   10780:	0005c583          	lbu	a1,0(a1)
   10784:	00871713          	slli	a4,a4,0x8
   10788:	01059593          	slli	a1,a1,0x10
   1078c:	00b76733          	or	a4,a4,a1
   10790:	0087d593          	srli	a1,a5,0x8
   10794:	0ff5f593          	andi	a1,a1,255
   10798:	0ff7f793          	andi	a5,a5,255
   1079c:	00b505b3          	add	a1,a0,a1
   107a0:	00f507b3          	add	a5,a0,a5
   107a4:	0005c583          	lbu	a1,0(a1)
   107a8:	0007c783          	lbu	a5,0(a5)
   107ac:	00b76733          	or	a4,a4,a1
   107b0:	01879793          	slli	a5,a5,0x18
   107b4:	00f76733          	or	a4,a4,a5
   107b8:	033857b3          	divu	a5,a6,s3
   107bc:	fff78793          	addi	a5,a5,-1
   107c0:	00279793          	slli	a5,a5,0x2
   107c4:	00f507b3          	add	a5,a0,a5
   107c8:	1007a783          	lw	a5,256(a5)
   107cc:	00f747b3          	xor	a5,a4,a5
   107d0:	01d88733          	add	a4,a7,t4
   107d4:	00072703          	lw	a4,0(a4)
   107d8:	00180813          	addi	a6,a6,1
   107dc:	00488893          	addi	a7,a7,4
   107e0:	00f74733          	xor	a4,a4,a5
   107e4:	fee8ae23          	sw	a4,-4(a7)
   107e8:	cb1ff06f          	jal	zero,10498 <set_key+0x80>
   107ec:	ffc70713          	addi	a4,a4,-4
   107f0:	fe0710e3          	bne	a4,zero,107d0 <set_key+0x3b8>
   107f4:	fc030ee3          	beq	t1,zero,107d0 <set_key+0x3b8>
   107f8:	0087d593          	srli	a1,a5,0x8
   107fc:	0107df13          	srli	t5,a5,0x10
   10800:	00022737          	lui	a4,0x22
   10804:	cc470713          	addi	a4,a4,-828 # 21cc4 <s_box>
   10808:	0ff5f593          	andi	a1,a1,255
   1080c:	0fff7f13          	andi	t5,t5,255
   10810:	00b705b3          	add	a1,a4,a1
   10814:	01e70f33          	add	t5,a4,t5
   10818:	0005c583          	lbu	a1,0(a1)
   1081c:	000f4f03          	lbu	t5,0(t5)
   10820:	00859593          	slli	a1,a1,0x8
   10824:	010f1f13          	slli	t5,t5,0x10
   10828:	01e5e5b3          	or	a1,a1,t5
   1082c:	0ff7ff13          	andi	t5,a5,255
   10830:	0187d793          	srli	a5,a5,0x18
   10834:	01e70f33          	add	t5,a4,t5
   10838:	00f70733          	add	a4,a4,a5
   1083c:	000f4f03          	lbu	t5,0(t5)
   10840:	00074783          	lbu	a5,0(a4)
   10844:	01e5e5b3          	or	a1,a1,t5
   10848:	01879793          	slli	a5,a5,0x18
   1084c:	00f5e7b3          	or	a5,a1,a5
   10850:	f81ff06f          	jal	zero,107d0 <set_key+0x3b8>

00010854 <encrypt>:
encrypt():
   10854:	fc010113          	addi	sp,sp,-64
   10858:	00050313          	addi	t1,a0,0
   1085c:	02112e23          	sw	ra,60(sp)
   10860:	00058513          	addi	a0,a1,0
   10864:	02812c23          	sw	s0,56(sp)
   10868:	02912a23          	sw	s1,52(sp)
   1086c:	03212823          	sw	s2,48(sp)
   10870:	03312623          	sw	s3,44(sp)
   10874:	00000793          	addi	a5,zero,0
   10878:	00010593          	addi	a1,sp,0
   1087c:	01000693          	addi	a3,zero,16
   10880:	00f30733          	add	a4,t1,a5
   10884:	00f608b3          	add	a7,a2,a5
   10888:	00072703          	lw	a4,0(a4)
   1088c:	0088a883          	lw	a7,8(a7)
   10890:	00f58833          	add	a6,a1,a5
   10894:	00478793          	addi	a5,a5,4
   10898:	01174733          	xor	a4,a4,a7
   1089c:	00e82023          	sw	a4,0(a6)
   108a0:	fed790e3          	bne	a5,a3,10880 <encrypt+0x2c>
   108a4:	00462f83          	lw	t6,4(a2)
   108a8:	000227b7          	lui	a5,0x22
   108ac:	01860e93          	addi	t4,a2,24
   108b0:	00100f13          	addi	t5,zero,1
   108b4:	cc478793          	addi	a5,a5,-828 # 21cc4 <s_box>
   108b8:	01010293          	addi	t0,sp,16
   108bc:	01000393          	addi	t2,zero,16
   108c0:	03eff863          	bgeu	t6,t5,108f0 <encrypt+0x9c>
   108c4:	01000613          	addi	a2,zero,16
   108c8:	00000097          	auipc	ra,0x0
   108cc:	b2c080e7          	jalr	ra,-1236(ra) # 103f4 <my_memcpy.isra.0>
   108d0:	03c12083          	lw	ra,60(sp)
   108d4:	03812403          	lw	s0,56(sp)
   108d8:	03412483          	lw	s1,52(sp)
   108dc:	03012903          	lw	s2,48(sp)
   108e0:	02c12983          	lw	s3,44(sp)
   108e4:	00100513          	addi	a0,zero,1
   108e8:	04010113          	addi	sp,sp,64
   108ec:	00008067          	jalr	zero,0(ra)
   108f0:	00014703          	lbu	a4,0(sp)
   108f4:	00e78733          	add	a4,a5,a4
   108f8:	00074703          	lbu	a4,0(a4)
   108fc:	00e10823          	sb	a4,16(sp)
   10900:	00514703          	lbu	a4,5(sp)
   10904:	00e78733          	add	a4,a5,a4
   10908:	00074703          	lbu	a4,0(a4)
   1090c:	00e108a3          	sb	a4,17(sp)
   10910:	00a14703          	lbu	a4,10(sp)
   10914:	00e78733          	add	a4,a5,a4
   10918:	00074703          	lbu	a4,0(a4)
   1091c:	00e10923          	sb	a4,18(sp)
   10920:	00f14703          	lbu	a4,15(sp)
   10924:	00e78733          	add	a4,a5,a4
   10928:	00074703          	lbu	a4,0(a4)
   1092c:	00e109a3          	sb	a4,19(sp)
   10930:	00414703          	lbu	a4,4(sp)
   10934:	00e78733          	add	a4,a5,a4
   10938:	00074703          	lbu	a4,0(a4)
   1093c:	00e10a23          	sb	a4,20(sp)
   10940:	00914703          	lbu	a4,9(sp)
   10944:	00e78733          	add	a4,a5,a4
   10948:	00074703          	lbu	a4,0(a4)
   1094c:	00e10aa3          	sb	a4,21(sp)
   10950:	00e14703          	lbu	a4,14(sp)
   10954:	00e78733          	add	a4,a5,a4
   10958:	00074703          	lbu	a4,0(a4)
   1095c:	00e10b23          	sb	a4,22(sp)
   10960:	00314703          	lbu	a4,3(sp)
   10964:	00e78733          	add	a4,a5,a4
   10968:	00074703          	lbu	a4,0(a4)
   1096c:	00e10ba3          	sb	a4,23(sp)
   10970:	00814703          	lbu	a4,8(sp)
   10974:	00e78733          	add	a4,a5,a4
   10978:	00074703          	lbu	a4,0(a4)
   1097c:	00e10c23          	sb	a4,24(sp)
   10980:	00d14703          	lbu	a4,13(sp)
   10984:	00e78733          	add	a4,a5,a4
   10988:	00074703          	lbu	a4,0(a4)
   1098c:	00e10ca3          	sb	a4,25(sp)
   10990:	00214703          	lbu	a4,2(sp)
   10994:	00e78733          	add	a4,a5,a4
   10998:	00074703          	lbu	a4,0(a4)
   1099c:	00e10d23          	sb	a4,26(sp)
   109a0:	00714703          	lbu	a4,7(sp)
   109a4:	00e78733          	add	a4,a5,a4
   109a8:	00074703          	lbu	a4,0(a4)
   109ac:	00e10da3          	sb	a4,27(sp)
   109b0:	00c14703          	lbu	a4,12(sp)
   109b4:	00e78733          	add	a4,a5,a4
   109b8:	00074703          	lbu	a4,0(a4)
   109bc:	00e10e23          	sb	a4,28(sp)
   109c0:	00114703          	lbu	a4,1(sp)
   109c4:	00e78733          	add	a4,a5,a4
   109c8:	00074703          	lbu	a4,0(a4)
   109cc:	00e10ea3          	sb	a4,29(sp)
   109d0:	00614703          	lbu	a4,6(sp)
   109d4:	00e78733          	add	a4,a5,a4
   109d8:	00074703          	lbu	a4,0(a4)
   109dc:	00e10f23          	sb	a4,30(sp)
   109e0:	00b14703          	lbu	a4,11(sp)
   109e4:	00e78733          	add	a4,a5,a4
   109e8:	00074703          	lbu	a4,0(a4)
   109ec:	00e10fa3          	sb	a4,31(sp)
   109f0:	0fff7c63          	bgeu	t5,t6,10ae8 <encrypt+0x294>
   109f4:	00028313          	addi	t1,t0,0
   109f8:	00058e13          	addi	t3,a1,0
   109fc:	00034803          	lbu	a6,0(t1) # 1032c <frame_dummy+0x14>
   10a00:	00134403          	lbu	s0,1(t1)
   10a04:	00234903          	lbu	s2,2(t1)
   10a08:	00785693          	srli	a3,a6,0x7
   10a0c:	40d006b3          	sub	a3,zero,a3
   10a10:	00181713          	slli	a4,a6,0x1
   10a14:	01b6f693          	andi	a3,a3,27
   10a18:	00e6c6b3          	xor	a3,a3,a4
   10a1c:	00745713          	srli	a4,s0,0x7
   10a20:	00334883          	lbu	a7,3(t1)
   10a24:	40e00733          	sub	a4,zero,a4
   10a28:	00141613          	slli	a2,s0,0x1
   10a2c:	01b77713          	andi	a4,a4,27
   10a30:	012444b3          	xor	s1,s0,s2
   10a34:	00c74733          	xor	a4,a4,a2
   10a38:	00e6c9b3          	xor	s3,a3,a4
   10a3c:	0098c633          	xor	a2,a7,s1
   10a40:	01364633          	xor	a2,a2,s3
   10a44:	00ce0023          	sb	a2,0(t3)
   10a48:	00795613          	srli	a2,s2,0x7
   10a4c:	40c00633          	sub	a2,zero,a2
   10a50:	00191993          	slli	s3,s2,0x1
   10a54:	01b67613          	andi	a2,a2,27
   10a58:	01364633          	xor	a2,a2,s3
   10a5c:	00c74733          	xor	a4,a4,a2
   10a60:	01194933          	xor	s2,s2,a7
   10a64:	00e84733          	xor	a4,a6,a4
   10a68:	01274733          	xor	a4,a4,s2
   10a6c:	00ee00a3          	sb	a4,1(t3)
   10a70:	0078d713          	srli	a4,a7,0x7
   10a74:	40e00733          	sub	a4,zero,a4
   10a78:	00189913          	slli	s2,a7,0x1
   10a7c:	01b77713          	andi	a4,a4,27
   10a80:	01274733          	xor	a4,a4,s2
   10a84:	00884433          	xor	s0,a6,s0
   10a88:	00e64633          	xor	a2,a2,a4
   10a8c:	00e6c6b3          	xor	a3,a3,a4
   10a90:	0088c8b3          	xor	a7,a7,s0
   10a94:	00984833          	xor	a6,a6,s1
   10a98:	00c8c8b3          	xor	a7,a7,a2
   10a9c:	00d84833          	xor	a6,a6,a3
   10aa0:	011e0123          	sb	a7,2(t3)
   10aa4:	010e01a3          	sb	a6,3(t3)
   10aa8:	00430313          	addi	t1,t1,4
   10aac:	02010713          	addi	a4,sp,32
   10ab0:	004e0e13          	addi	t3,t3,4
   10ab4:	f46714e3          	bne	a4,t1,109fc <encrypt+0x1a8>
   10ab8:	000e8713          	addi	a4,t4,0
   10abc:	00058693          	addi	a3,a1,0
   10ac0:	010e8e93          	addi	t4,t4,16
   10ac4:	0006a603          	lw	a2,0(a3)
   10ac8:	00072803          	lw	a6,0(a4)
   10acc:	00470713          	addi	a4,a4,4
   10ad0:	00468693          	addi	a3,a3,4
   10ad4:	01064633          	xor	a2,a2,a6
   10ad8:	fec6ae23          	sw	a2,-4(a3)
   10adc:	feee94e3          	bne	t4,a4,10ac4 <encrypt+0x270>
   10ae0:	001f0f13          	addi	t5,t5,1
   10ae4:	dddff06f          	jal	zero,108c0 <encrypt+0x6c>
   10ae8:	00000713          	addi	a4,zero,0
   10aec:	00e28633          	add	a2,t0,a4
   10af0:	00064603          	lbu	a2,0(a2)
   10af4:	00e586b3          	add	a3,a1,a4
   10af8:	00170713          	addi	a4,a4,1
   10afc:	00c68023          	sb	a2,0(a3)
   10b00:	fe7716e3          	bne	a4,t2,10aec <encrypt+0x298>
   10b04:	fb5ff06f          	jal	zero,10ab8 <encrypt+0x264>

00010b08 <decrypt>:
decrypt():
   10b08:	f9010113          	addi	sp,sp,-112
   10b0c:	05412c23          	sw	s4,88(sp)
   10b10:	06112623          	sw	ra,108(sp)
   10b14:	06812423          	sw	s0,104(sp)
   10b18:	06912223          	sw	s1,100(sp)
   10b1c:	07212023          	sw	s2,96(sp)
   10b20:	05312e23          	sw	s3,92(sp)
   10b24:	05512a23          	sw	s5,84(sp)
   10b28:	05612823          	sw	s6,80(sp)
   10b2c:	05712623          	sw	s7,76(sp)
   10b30:	05812423          	sw	s8,72(sp)
   10b34:	05912223          	sw	s9,68(sp)
   10b38:	05a12023          	sw	s10,64(sp)
   10b3c:	03b12e23          	sw	s11,60(sp)
   10b40:	00b12623          	sw	a1,12(sp)
   10b44:	00000793          	addi	a5,zero,0
   10b48:	01010a13          	addi	s4,sp,16
   10b4c:	01000693          	addi	a3,zero,16
   10b50:	00f50733          	add	a4,a0,a5
   10b54:	00f60833          	add	a6,a2,a5
   10b58:	00072703          	lw	a4,0(a4)
   10b5c:	0f882803          	lw	a6,248(a6)
   10b60:	00fa05b3          	add	a1,s4,a5
   10b64:	00478793          	addi	a5,a5,4
   10b68:	01074733          	xor	a4,a4,a6
   10b6c:	00e5a023          	sw	a4,0(a1)
   10b70:	fed790e3          	bne	a5,a3,10b50 <decrypt+0x48>
   10b74:	00462b83          	lw	s7,4(a2)
   10b78:	00022437          	lui	s0,0x22
   10b7c:	10860a93          	addi	s5,a2,264
   10b80:	00100b13          	addi	s6,zero,1
   10b84:	cc440413          	addi	s0,s0,-828 # 21cc4 <s_box>
   10b88:	02010c13          	addi	s8,sp,32
   10b8c:	01000c93          	addi	s9,zero,16
   10b90:	056bfc63          	bgeu	s7,s6,10be8 <decrypt+0xe0>
   10b94:	00c12503          	lw	a0,12(sp)
   10b98:	000a0593          	addi	a1,s4,0
   10b9c:	01000613          	addi	a2,zero,16
   10ba0:	00000097          	auipc	ra,0x0
   10ba4:	854080e7          	jalr	ra,-1964(ra) # 103f4 <my_memcpy.isra.0>
   10ba8:	06c12083          	lw	ra,108(sp)
   10bac:	06812403          	lw	s0,104(sp)
   10bb0:	06412483          	lw	s1,100(sp)
   10bb4:	06012903          	lw	s2,96(sp)
   10bb8:	05c12983          	lw	s3,92(sp)
   10bbc:	05812a03          	lw	s4,88(sp)
   10bc0:	05412a83          	lw	s5,84(sp)
   10bc4:	05012b03          	lw	s6,80(sp)
   10bc8:	04c12b83          	lw	s7,76(sp)
   10bcc:	04812c03          	lw	s8,72(sp)
   10bd0:	04412c83          	lw	s9,68(sp)
   10bd4:	04012d03          	lw	s10,64(sp)
   10bd8:	03c12d83          	lw	s11,60(sp)
   10bdc:	00100513          	addi	a0,zero,1
   10be0:	07010113          	addi	sp,sp,112
   10be4:	00008067          	jalr	zero,0(ra)
   10be8:	01014783          	lbu	a5,16(sp)
   10bec:	00f407b3          	add	a5,s0,a5
   10bf0:	1287c783          	lbu	a5,296(a5)
   10bf4:	02f10023          	sb	a5,32(sp)
   10bf8:	01d14783          	lbu	a5,29(sp)
   10bfc:	00f407b3          	add	a5,s0,a5
   10c00:	1287c783          	lbu	a5,296(a5)
   10c04:	02f100a3          	sb	a5,33(sp)
   10c08:	01a14783          	lbu	a5,26(sp)
   10c0c:	00f407b3          	add	a5,s0,a5
   10c10:	1287c783          	lbu	a5,296(a5)
   10c14:	02f10123          	sb	a5,34(sp)
   10c18:	01714783          	lbu	a5,23(sp)
   10c1c:	00f407b3          	add	a5,s0,a5
   10c20:	1287c783          	lbu	a5,296(a5)
   10c24:	02f101a3          	sb	a5,35(sp)
   10c28:	01414783          	lbu	a5,20(sp)
   10c2c:	00f407b3          	add	a5,s0,a5
   10c30:	1287c783          	lbu	a5,296(a5)
   10c34:	02f10223          	sb	a5,36(sp)
   10c38:	01114783          	lbu	a5,17(sp)
   10c3c:	00f407b3          	add	a5,s0,a5
   10c40:	1287c783          	lbu	a5,296(a5)
   10c44:	02f102a3          	sb	a5,37(sp)
   10c48:	01e14783          	lbu	a5,30(sp)
   10c4c:	00f407b3          	add	a5,s0,a5
   10c50:	1287c783          	lbu	a5,296(a5)
   10c54:	02f10323          	sb	a5,38(sp)
   10c58:	01b14783          	lbu	a5,27(sp)
   10c5c:	00f407b3          	add	a5,s0,a5
   10c60:	1287c783          	lbu	a5,296(a5)
   10c64:	02f103a3          	sb	a5,39(sp)
   10c68:	01814783          	lbu	a5,24(sp)
   10c6c:	00f407b3          	add	a5,s0,a5
   10c70:	1287c783          	lbu	a5,296(a5)
   10c74:	02f10423          	sb	a5,40(sp)
   10c78:	01514783          	lbu	a5,21(sp)
   10c7c:	00f407b3          	add	a5,s0,a5
   10c80:	1287c783          	lbu	a5,296(a5)
   10c84:	02f104a3          	sb	a5,41(sp)
   10c88:	01214783          	lbu	a5,18(sp)
   10c8c:	00f407b3          	add	a5,s0,a5
   10c90:	1287c783          	lbu	a5,296(a5)
   10c94:	02f10523          	sb	a5,42(sp)
   10c98:	01f14783          	lbu	a5,31(sp)
   10c9c:	00f407b3          	add	a5,s0,a5
   10ca0:	1287c783          	lbu	a5,296(a5)
   10ca4:	02f105a3          	sb	a5,43(sp)
   10ca8:	01c14783          	lbu	a5,28(sp)
   10cac:	00f407b3          	add	a5,s0,a5
   10cb0:	1287c783          	lbu	a5,296(a5)
   10cb4:	02f10623          	sb	a5,44(sp)
   10cb8:	01914783          	lbu	a5,25(sp)
   10cbc:	00f407b3          	add	a5,s0,a5
   10cc0:	1287c783          	lbu	a5,296(a5)
   10cc4:	02f106a3          	sb	a5,45(sp)
   10cc8:	01614783          	lbu	a5,22(sp)
   10ccc:	00f407b3          	add	a5,s0,a5
   10cd0:	1287c783          	lbu	a5,296(a5)
   10cd4:	02f10723          	sb	a5,46(sp)
   10cd8:	01314783          	lbu	a5,19(sp)
   10cdc:	00f407b3          	add	a5,s0,a5
   10ce0:	1287c783          	lbu	a5,296(a5)
   10ce4:	02f107a3          	sb	a5,47(sp)
   10ce8:	1b7b7e63          	bgeu	s6,s7,10ea4 <decrypt+0x39c>
   10cec:	000c0493          	addi	s1,s8,0
   10cf0:	000a0993          	addi	s3,s4,0
   10cf4:	0004c783          	lbu	a5,0(s1)
   10cf8:	00e00593          	addi	a1,zero,14
   10cfc:	00448493          	addi	s1,s1,4
   10d00:	00078d13          	addi	s10,a5,0
   10d04:	ffd4c783          	lbu	a5,-3(s1)
   10d08:	000d0513          	addi	a0,s10,0
   10d0c:	00498993          	addi	s3,s3,4
   10d10:	00078d93          	addi	s11,a5,0
   10d14:	ffe4c783          	lbu	a5,-2(s1)
   10d18:	00f12223          	sw	a5,4(sp)
   10d1c:	fff4c783          	lbu	a5,-1(s1)
   10d20:	00f12423          	sw	a5,8(sp)
   10d24:	fffff097          	auipc	ra,0xfffff
   10d28:	614080e7          	jalr	ra,1556(ra) # 10338 <gmul>
   10d2c:	00050913          	addi	s2,a0,0
   10d30:	00b00593          	addi	a1,zero,11
   10d34:	000d8513          	addi	a0,s11,0
   10d38:	fffff097          	auipc	ra,0xfffff
   10d3c:	600080e7          	jalr	ra,1536(ra) # 10338 <gmul>
   10d40:	00a94933          	xor	s2,s2,a0
   10d44:	00412503          	lw	a0,4(sp)
   10d48:	00d00593          	addi	a1,zero,13
   10d4c:	fffff097          	auipc	ra,0xfffff
   10d50:	5ec080e7          	jalr	ra,1516(ra) # 10338 <gmul>
   10d54:	00a94933          	xor	s2,s2,a0
   10d58:	00812503          	lw	a0,8(sp)
   10d5c:	00900593          	addi	a1,zero,9
   10d60:	fffff097          	auipc	ra,0xfffff
   10d64:	5d8080e7          	jalr	ra,1496(ra) # 10338 <gmul>
   10d68:	00a94933          	xor	s2,s2,a0
   10d6c:	ff298e23          	sb	s2,-4(s3)
   10d70:	00900593          	addi	a1,zero,9
   10d74:	000d0513          	addi	a0,s10,0
   10d78:	fffff097          	auipc	ra,0xfffff
   10d7c:	5c0080e7          	jalr	ra,1472(ra) # 10338 <gmul>
   10d80:	00050913          	addi	s2,a0,0
   10d84:	00e00593          	addi	a1,zero,14
   10d88:	000d8513          	addi	a0,s11,0
   10d8c:	fffff097          	auipc	ra,0xfffff
   10d90:	5ac080e7          	jalr	ra,1452(ra) # 10338 <gmul>
   10d94:	00a94933          	xor	s2,s2,a0
   10d98:	00412503          	lw	a0,4(sp)
   10d9c:	00b00593          	addi	a1,zero,11
   10da0:	fffff097          	auipc	ra,0xfffff
   10da4:	598080e7          	jalr	ra,1432(ra) # 10338 <gmul>
   10da8:	00a94933          	xor	s2,s2,a0
   10dac:	00812503          	lw	a0,8(sp)
   10db0:	00d00593          	addi	a1,zero,13
   10db4:	fffff097          	auipc	ra,0xfffff
   10db8:	584080e7          	jalr	ra,1412(ra) # 10338 <gmul>
   10dbc:	00a94933          	xor	s2,s2,a0
   10dc0:	ff298ea3          	sb	s2,-3(s3)
   10dc4:	00d00593          	addi	a1,zero,13
   10dc8:	000d0513          	addi	a0,s10,0
   10dcc:	fffff097          	auipc	ra,0xfffff
   10dd0:	56c080e7          	jalr	ra,1388(ra) # 10338 <gmul>
   10dd4:	00050913          	addi	s2,a0,0
   10dd8:	00900593          	addi	a1,zero,9
   10ddc:	000d8513          	addi	a0,s11,0
   10de0:	fffff097          	auipc	ra,0xfffff
   10de4:	558080e7          	jalr	ra,1368(ra) # 10338 <gmul>
   10de8:	00a94933          	xor	s2,s2,a0
   10dec:	00412503          	lw	a0,4(sp)
   10df0:	00e00593          	addi	a1,zero,14
   10df4:	fffff097          	auipc	ra,0xfffff
   10df8:	544080e7          	jalr	ra,1348(ra) # 10338 <gmul>
   10dfc:	00a94933          	xor	s2,s2,a0
   10e00:	00812503          	lw	a0,8(sp)
   10e04:	00b00593          	addi	a1,zero,11
   10e08:	fffff097          	auipc	ra,0xfffff
   10e0c:	530080e7          	jalr	ra,1328(ra) # 10338 <gmul>
   10e10:	00a94933          	xor	s2,s2,a0
   10e14:	ff298f23          	sb	s2,-2(s3)
   10e18:	00b00593          	addi	a1,zero,11
   10e1c:	000d0513          	addi	a0,s10,0
   10e20:	fffff097          	auipc	ra,0xfffff
   10e24:	518080e7          	jalr	ra,1304(ra) # 10338 <gmul>
   10e28:	00050913          	addi	s2,a0,0
   10e2c:	00d00593          	addi	a1,zero,13
   10e30:	000d8513          	addi	a0,s11,0
   10e34:	fffff097          	auipc	ra,0xfffff
   10e38:	504080e7          	jalr	ra,1284(ra) # 10338 <gmul>
   10e3c:	00a94933          	xor	s2,s2,a0
   10e40:	00412503          	lw	a0,4(sp)
   10e44:	00900593          	addi	a1,zero,9
   10e48:	fffff097          	auipc	ra,0xfffff
   10e4c:	4f0080e7          	jalr	ra,1264(ra) # 10338 <gmul>
   10e50:	00a94933          	xor	s2,s2,a0
   10e54:	00812503          	lw	a0,8(sp)
   10e58:	00e00593          	addi	a1,zero,14
   10e5c:	fffff097          	auipc	ra,0xfffff
   10e60:	4dc080e7          	jalr	ra,1244(ra) # 10338 <gmul>
   10e64:	00a94933          	xor	s2,s2,a0
   10e68:	ff298fa3          	sb	s2,-1(s3)
   10e6c:	03010793          	addi	a5,sp,48
   10e70:	e89792e3          	bne	a5,s1,10cf4 <decrypt+0x1ec>
   10e74:	000a8793          	addi	a5,s5,0
   10e78:	000a0713          	addi	a4,s4,0
   10e7c:	010a8a93          	addi	s5,s5,16
   10e80:	00072683          	lw	a3,0(a4)
   10e84:	0007a603          	lw	a2,0(a5)
   10e88:	00478793          	addi	a5,a5,4
   10e8c:	00470713          	addi	a4,a4,4
   10e90:	00c6c6b3          	xor	a3,a3,a2
   10e94:	fed72e23          	sw	a3,-4(a4)
   10e98:	fefa94e3          	bne	s5,a5,10e80 <decrypt+0x378>
   10e9c:	001b0b13          	addi	s6,s6,1
   10ea0:	cf1ff06f          	jal	zero,10b90 <decrypt+0x88>
   10ea4:	00000793          	addi	a5,zero,0
   10ea8:	00fc06b3          	add	a3,s8,a5
   10eac:	0006c683          	lbu	a3,0(a3)
   10eb0:	00fa0733          	add	a4,s4,a5
   10eb4:	00178793          	addi	a5,a5,1
   10eb8:	00d70023          	sb	a3,0(a4)
   10ebc:	ff9796e3          	bne	a5,s9,10ea8 <decrypt+0x3a0>
   10ec0:	fb5ff06f          	jal	zero,10e74 <decrypt+0x36c>

00010ec4 <fillrand>:
fillrand():
   10ec4:	00070637          	lui	a2,0x70
   10ec8:	eb860613          	addi	a2,a2,-328 # 6feb8 <a.3>
   10ecc:	00070e37          	lui	t3,0x70
   10ed0:	00070fb7          	lui	t6,0x70
   10ed4:	000098b7          	lui	a7,0x9
   10ed8:	00004337          	lui	t1,0x4
   10edc:	00000813          	addi	a6,zero,0
   10ee0:	00062783          	lw	a5,0(a2)
   10ee4:	00462703          	lw	a4,4(a2)
   10ee8:	ec0e2683          	lw	a3,-320(t3) # 6fec0 <count.4>
   10eec:	00000f13          	addi	t5,zero,0
   10ef0:	00000e93          	addi	t4,zero,0
   10ef4:	00400293          	addi	t0,zero,4
   10ef8:	06988893          	addi	a7,a7,105 # 9069 <exit-0x704b>
   10efc:	65030313          	addi	t1,t1,1616 # 4650 <exit-0xba64>
   10f00:	ed0f8393          	addi	t2,t6,-304 # 6fed0 <r.2>
   10f04:	02b84063          	blt	a6,a1,10f24 <fillrand+0x60>
   10f08:	000f0663          	beq	t5,zero,10f14 <fillrand+0x50>
   10f0c:	00e62223          	sw	a4,4(a2)
   10f10:	00f62023          	sw	a5,0(a2)
   10f14:	000e8663          	beq	t4,zero,10f20 <fillrand+0x5c>
   10f18:	ecde2023          	sw	a3,-320(t3)
   10f1c:	00008067          	jalr	zero,0(ra)
   10f20:	00008067          	jalr	zero,0(ra)
   10f24:	ff010113          	addi	sp,sp,-16
   10f28:	00812623          	sw	s0,12(sp)
   10f2c:	04569063          	bne	a3,t0,10f6c <fillrand+0xa8>
   10f30:	01079693          	slli	a3,a5,0x10
   10f34:	0106d693          	srli	a3,a3,0x10
   10f38:	031686b3          	mul	a3,a3,a7
   10f3c:	0107d793          	srli	a5,a5,0x10
   10f40:	00100f13          	addi	t5,zero,1
   10f44:	00f687b3          	add	a5,a3,a5
   10f48:	01071693          	slli	a3,a4,0x10
   10f4c:	0106d693          	srli	a3,a3,0x10
   10f50:	026686b3          	mul	a3,a3,t1
   10f54:	01075713          	srli	a4,a4,0x10
   10f58:	00e68733          	add	a4,a3,a4
   10f5c:	01079693          	slli	a3,a5,0x10
   10f60:	00e686b3          	add	a3,a3,a4
   10f64:	ecdfa823          	sw	a3,-304(t6)
   10f68:	00000693          	addi	a3,zero,0
   10f6c:	00768eb3          	add	t4,a3,t2
   10f70:	000ec403          	lbu	s0,0(t4)
   10f74:	01050eb3          	add	t4,a0,a6
   10f78:	00180813          	addi	a6,a6,1
   10f7c:	008e8023          	sb	s0,0(t4)
   10f80:	00168693          	addi	a3,a3,1
   10f84:	00100e93          	addi	t4,zero,1
   10f88:	fab842e3          	blt	a6,a1,10f2c <fillrand+0x68>
   10f8c:	000f0663          	beq	t5,zero,10f98 <fillrand+0xd4>
   10f90:	00e62223          	sw	a4,4(a2)
   10f94:	00f62023          	sw	a5,0(a2)
   10f98:	000e8463          	beq	t4,zero,10fa0 <fillrand+0xdc>
   10f9c:	ecde2023          	sw	a3,-320(t3)
   10fa0:	00c12403          	lw	s0,12(sp)
   10fa4:	01010113          	addi	sp,sp,16
   10fa8:	00008067          	jalr	zero,0(ra)

00010fac <enc_buffer>:
enc_buffer():
   10fac:	00f58813          	addi	a6,a1,15
   10fb0:	ff087813          	andi	a6,a6,-16
   10fb4:	03080813          	addi	a6,a6,48
   10fb8:	1b076e63          	bltu	a4,a6,11174 <enc_buffer+0x1c8>
   10fbc:	f9010113          	addi	sp,sp,-112
   10fc0:	06812423          	sw	s0,104(sp)
   10fc4:	05912223          	sw	s9,68(sp)
   10fc8:	00058413          	addi	s0,a1,0
   10fcc:	00050c93          	addi	s9,a0,0
   10fd0:	01000593          	addi	a1,zero,16
   10fd4:	00068513          	addi	a0,a3,0
   10fd8:	06112623          	sw	ra,108(sp)
   10fdc:	06912223          	sw	s1,100(sp)
   10fe0:	07212023          	sw	s2,96(sp)
   10fe4:	05312e23          	sw	s3,92(sp)
   10fe8:	05412c23          	sw	s4,88(sp)
   10fec:	05612823          	sw	s6,80(sp)
   10ff0:	05712623          	sw	s7,76(sp)
   10ff4:	05812423          	sw	s8,72(sp)
   10ff8:	05a12023          	sw	s10,64(sp)
   10ffc:	03b12e23          	sw	s11,60(sp)
   11000:	00078c13          	addi	s8,a5,0
   11004:	00d12223          	sw	a3,4(sp)
   11008:	00c12423          	sw	a2,8(sp)
   1100c:	05512a23          	sw	s5,84(sp)
   11010:	00000097          	auipc	ra,0x0
   11014:	eb4080e7          	jalr	ra,-332(ra) # 10ec4 <fillrand>
   11018:	00412583          	lw	a1,4(sp)
   1101c:	01010b13          	addi	s6,sp,16
   11020:	01000613          	addi	a2,zero,16
   11024:	000b0513          	addi	a0,s6,0
   11028:	00f00d93          	addi	s11,zero,15
   1102c:	01000993          	addi	s3,zero,16
   11030:	fffff097          	auipc	ra,0xfffff
   11034:	3c4080e7          	jalr	ra,964(ra) # 103f4 <my_memcpy.isra.0>
   11038:	00100493          	addi	s1,zero,1
   1103c:	00000913          	addi	s2,zero,0
   11040:	02010a13          	addi	s4,sp,32
   11044:	00098b93          	addi	s7,s3,0
   11048:	01b47d33          	and	s10,s0,s11
   1104c:	04896663          	bltu	s2,s0,11098 <enc_buffer+0xec>
   11050:	04049463          	bne	s1,zero,11098 <enc_buffer+0xec>
   11054:	06c12083          	lw	ra,108(sp)
   11058:	06812403          	lw	s0,104(sp)
   1105c:	013c2023          	sw	s3,0(s8)
   11060:	06412483          	lw	s1,100(sp)
   11064:	06012903          	lw	s2,96(sp)
   11068:	05c12983          	lw	s3,92(sp)
   1106c:	05812a03          	lw	s4,88(sp)
   11070:	05412a83          	lw	s5,84(sp)
   11074:	05012b03          	lw	s6,80(sp)
   11078:	04c12b83          	lw	s7,76(sp)
   1107c:	04812c03          	lw	s8,72(sp)
   11080:	04412c83          	lw	s9,68(sp)
   11084:	04012d03          	lw	s10,64(sp)
   11088:	03c12d83          	lw	s11,60(sp)
   1108c:	00000513          	addi	a0,zero,0
   11090:	07010113          	addi	sp,sp,112
   11094:	00008067          	jalr	zero,0(ra)
   11098:	00000a93          	addi	s5,zero,0
   1109c:	015a0733          	add	a4,s4,s5
   110a0:	00070023          	sb	zero,0(a4)
   110a4:	001a8a93          	addi	s5,s5,1
   110a8:	ff7a9ae3          	bne	s5,s7,1109c <enc_buffer+0xf0>
   110ac:	02048263          	beq	s1,zero,110d0 <enc_buffer+0x124>
   110b0:	00100593          	addi	a1,zero,1
   110b4:	000a0513          	addi	a0,s4,0
   110b8:	00000097          	auipc	ra,0x0
   110bc:	e0c080e7          	jalr	ra,-500(ra) # 10ec4 <fillrand>
   110c0:	02014703          	lbu	a4,32(sp)
   110c4:	ff077713          	andi	a4,a4,-16
   110c8:	01a76733          	or	a4,a4,s10
   110cc:	02e10023          	sb	a4,32(sp)
   110d0:	41240633          	sub	a2,s0,s2
   110d4:	00cdf463          	bgeu	s11,a2,110dc <enc_buffer+0x130>
   110d8:	000d8613          	addi	a2,s11,0
   110dc:	41bb8533          	sub	a0,s7,s11
   110e0:	012c85b3          	add	a1,s9,s2
   110e4:	00aa0533          	add	a0,s4,a0
   110e8:	00c12623          	sw	a2,12(sp)
   110ec:	fffff097          	auipc	ra,0xfffff
   110f0:	308080e7          	jalr	ra,776(ra) # 103f4 <my_memcpy.isra.0>
   110f4:	00c12603          	lw	a2,12(sp)
   110f8:	000a0693          	addi	a3,s4,0
   110fc:	00000713          	addi	a4,zero,0
   11100:	00c90933          	add	s2,s2,a2
   11104:	00eb0633          	add	a2,s6,a4
   11108:	0006c583          	lbu	a1,0(a3)
   1110c:	00064603          	lbu	a2,0(a2)
   11110:	00170713          	addi	a4,a4,1
   11114:	00168693          	addi	a3,a3,1
   11118:	00b64633          	xor	a2,a2,a1
   1111c:	fec68fa3          	sb	a2,-1(a3)
   11120:	ff7712e3          	bne	a4,s7,11104 <enc_buffer+0x158>
   11124:	00812603          	lw	a2,8(sp)
   11128:	000b0593          	addi	a1,s6,0
   1112c:	000a0513          	addi	a0,s4,0
   11130:	fffff097          	auipc	ra,0xfffff
   11134:	724080e7          	jalr	ra,1828(ra) # 10854 <encrypt>
   11138:	00412783          	lw	a5,4(sp)
   1113c:	000b8613          	addi	a2,s7,0
   11140:	000b0593          	addi	a1,s6,0
   11144:	01378533          	add	a0,a5,s3
   11148:	fffff097          	auipc	ra,0xfffff
   1114c:	2ac080e7          	jalr	ra,684(ra) # 103f4 <my_memcpy.isra.0>
   11150:	00893733          	sltu	a4,s2,s0
   11154:	0014c493          	xori	s1,s1,1
   11158:	00173713          	sltiu	a4,a4,1
   1115c:	00977733          	and	a4,a4,s1
   11160:	01098993          	addi	s3,s3,16
   11164:	00000493          	addi	s1,zero,0
   11168:	ee0716e3          	bne	a4,zero,11054 <enc_buffer+0xa8>
   1116c:	000a8d93          	addi	s11,s5,0
   11170:	eddff06f          	jal	zero,1104c <enc_buffer+0xa0>
   11174:	f9c00513          	addi	a0,zero,-100
   11178:	00008067          	jalr	zero,0(ra)

0001117c <dec_buffer>:
dec_buffer():
   1117c:	01f00813          	addi	a6,zero,31
   11180:	1cb87c63          	bgeu	a6,a1,11358 <dec_buffer+0x1dc>
   11184:	f8010113          	addi	sp,sp,-128
   11188:	07612023          	sw	s6,96(sp)
   1118c:	00c12423          	sw	a2,8(sp)
   11190:	01010b13          	addi	s6,sp,16
   11194:	01000613          	addi	a2,zero,16
   11198:	06912a23          	sw	s1,116(sp)
   1119c:	07412423          	sw	s4,104(sp)
   111a0:	00050493          	addi	s1,a0,0
   111a4:	00058a13          	addi	s4,a1,0
   111a8:	00c505b3          	add	a1,a0,a2
   111ac:	000b0513          	addi	a0,s6,0
   111b0:	06112e23          	sw	ra,124(sp)
   111b4:	06812c23          	sw	s0,120(sp)
   111b8:	07212823          	sw	s2,112(sp)
   111bc:	07312623          	sw	s3,108(sp)
   111c0:	05712e23          	sw	s7,92(sp)
   111c4:	00070993          	addi	s3,a4,0
   111c8:	00078b93          	addi	s7,a5,0
   111cc:	00068913          	addi	s2,a3,0
   111d0:	07512223          	sw	s5,100(sp)
   111d4:	05812c23          	sw	s8,88(sp)
   111d8:	05912a23          	sw	s9,84(sp)
   111dc:	05a12823          	sw	s10,80(sp)
   111e0:	05b12623          	sw	s11,76(sp)
   111e4:	fffff097          	auipc	ra,0xfffff
   111e8:	210080e7          	jalr	ra,528(ra) # 103f4 <my_memcpy.isra.0>
   111ec:	00812603          	lw	a2,8(sp)
   111f0:	03010413          	addi	s0,sp,48
   111f4:	00040593          	addi	a1,s0,0
   111f8:	000b0513          	addi	a0,s6,0
   111fc:	00000097          	auipc	ra,0x0
   11200:	90c080e7          	jalr	ra,-1780(ra) # 10b08 <decrypt>
   11204:	00040713          	addi	a4,s0,0
   11208:	00000793          	addi	a5,zero,0
   1120c:	01000613          	addi	a2,zero,16
   11210:	00f486b3          	add	a3,s1,a5
   11214:	00074583          	lbu	a1,0(a4)
   11218:	0006c683          	lbu	a3,0(a3)
   1121c:	00178793          	addi	a5,a5,1
   11220:	00170713          	addi	a4,a4,1
   11224:	00b6c6b3          	xor	a3,a3,a1
   11228:	fed70fa3          	sb	a3,-1(a4)
   1122c:	fec792e3          	bne	a5,a2,11210 <dec_buffer+0x94>
   11230:	03014c03          	lbu	s8,48(sp)
   11234:	00f00d93          	addi	s11,zero,15
   11238:	00000793          	addi	a5,zero,0
   1123c:	02000a93          	addi	s5,zero,32
   11240:	01000c93          	addi	s9,zero,16
   11244:	074aee63          	bltu	s5,s4,112c0 <dec_buffer+0x144>
   11248:	ff1d8d93          	addi	s11,s11,-15
   1124c:	00fc7c13          	andi	s8,s8,15
   11250:	01b03633          	sltu	a2,zero,s11
   11254:	01860633          	add	a2,a2,s8
   11258:	02060263          	beq	a2,zero,1127c <dec_buffer+0x100>
   1125c:	00f604b3          	add	s1,a2,a5
   11260:	0099ee63          	bltu	s3,s1,1127c <dec_buffer+0x100>
   11264:	001dbd93          	sltiu	s11,s11,1
   11268:	00f90533          	add	a0,s2,a5
   1126c:	01b405b3          	add	a1,s0,s11
   11270:	fffff097          	auipc	ra,0xfffff
   11274:	184080e7          	jalr	ra,388(ra) # 103f4 <my_memcpy.isra.0>
   11278:	00048793          	addi	a5,s1,0
   1127c:	00fba023          	sw	a5,0(s7)
   11280:	00000513          	addi	a0,zero,0
   11284:	07c12083          	lw	ra,124(sp)
   11288:	07812403          	lw	s0,120(sp)
   1128c:	07412483          	lw	s1,116(sp)
   11290:	07012903          	lw	s2,112(sp)
   11294:	06c12983          	lw	s3,108(sp)
   11298:	06812a03          	lw	s4,104(sp)
   1129c:	06412a83          	lw	s5,100(sp)
   112a0:	06012b03          	lw	s6,96(sp)
   112a4:	05c12b83          	lw	s7,92(sp)
   112a8:	05812c03          	lw	s8,88(sp)
   112ac:	05412c83          	lw	s9,84(sp)
   112b0:	05012d03          	lw	s10,80(sp)
   112b4:	04c12d83          	lw	s11,76(sp)
   112b8:	08010113          	addi	sp,sp,128
   112bc:	00008067          	jalr	zero,0(ra)
   112c0:	01000613          	addi	a2,zero,16
   112c4:	015485b3          	add	a1,s1,s5
   112c8:	02010513          	addi	a0,sp,32
   112cc:	00f12623          	sw	a5,12(sp)
   112d0:	fffff097          	auipc	ra,0xfffff
   112d4:	124080e7          	jalr	ra,292(ra) # 103f4 <my_memcpy.isra.0>
   112d8:	00c12783          	lw	a5,12(sp)
   112dc:	00fd8d33          	add	s10,s11,a5
   112e0:	09a9e063          	bltu	s3,s10,11360 <dec_buffer+0x1e4>
   112e4:	41bc85b3          	sub	a1,s9,s11
   112e8:	00f90533          	add	a0,s2,a5
   112ec:	000d8613          	addi	a2,s11,0
   112f0:	00b405b3          	add	a1,s0,a1
   112f4:	fffff097          	auipc	ra,0xfffff
   112f8:	100080e7          	jalr	ra,256(ra) # 103f4 <my_memcpy.isra.0>
   112fc:	00812603          	lw	a2,8(sp)
   11300:	00040593          	addi	a1,s0,0
   11304:	02010513          	addi	a0,sp,32
   11308:	00000097          	auipc	ra,0x0
   1130c:	800080e7          	jalr	ra,-2048(ra) # 10b08 <decrypt>
   11310:	010a8a93          	addi	s5,s5,16
   11314:	00040793          	addi	a5,s0,0
   11318:	00000d93          	addi	s11,zero,0
   1131c:	01bb0733          	add	a4,s6,s11
   11320:	0007c683          	lbu	a3,0(a5)
   11324:	00074703          	lbu	a4,0(a4)
   11328:	001d8d93          	addi	s11,s11,1
   1132c:	00178793          	addi	a5,a5,1
   11330:	00d74733          	xor	a4,a4,a3
   11334:	fee78fa3          	sb	a4,-1(a5)
   11338:	ff9d92e3          	bne	s11,s9,1131c <dec_buffer+0x1a0>
   1133c:	000d8613          	addi	a2,s11,0
   11340:	02010593          	addi	a1,sp,32
   11344:	000b0513          	addi	a0,s6,0
   11348:	fffff097          	auipc	ra,0xfffff
   1134c:	0ac080e7          	jalr	ra,172(ra) # 103f4 <my_memcpy.isra.0>
   11350:	000d0793          	addi	a5,s10,0
   11354:	ef1ff06f          	jal	zero,11244 <dec_buffer+0xc8>
   11358:	f3800513          	addi	a0,zero,-200
   1135c:	00008067          	jalr	zero,0(ra)
   11360:	f3700513          	addi	a0,zero,-201
   11364:	f21ff06f          	jal	zero,11284 <dec_buffer+0x108>

00011368 <__mul>:
__mul():
   11368:	00050633          	add	a2,a0,zero
   1136c:	00000513          	addi	a0,zero,0

00011370 <.Mul_loop>:
.Mul_loop():
   11370:	0015f693          	andi	a3,a1,1
   11374:	00068463          	beq	a3,zero,1137c <.Mul_skip>
   11378:	00c50533          	add	a0,a0,a2

0001137c <.Mul_skip>:
.Mul_skip():
   1137c:	0015d593          	srli	a1,a1,0x1
   11380:	00161613          	slli	a2,a2,0x1
   11384:	fe0596e3          	bne	a1,zero,11370 <.Mul_loop>
   11388:	00008067          	jalr	zero,0(ra)

0001138c <__riscv_div_lib_divsi3>:
__riscv_div_lib_divsi3():
   1138c:	06054263          	blt	a0,zero,113f0 <__riscv_div_lib_L10>
   11390:	0605c863          	blt	a1,zero,11400 <__riscv_div_lib_L11>

00011394 <__riscv_div_lib_udivsi3>:
__riscv_div_lib_udivsi3():
   11394:	00058613          	addi	a2,a1,0
   11398:	00050593          	addi	a1,a0,0
   1139c:	fff00513          	addi	a0,zero,-1
   113a0:	02060c63          	beq	a2,zero,113d8 <__riscv_div_lib_L5>
   113a4:	00100693          	addi	a3,zero,1
   113a8:	00b67a63          	bgeu	a2,a1,113bc <__riscv_div_lib_L2>

000113ac <__riscv_div_lib_L1>:
__riscv_div_lib_L1():
   113ac:	00c05863          	bge	zero,a2,113bc <__riscv_div_lib_L2>
   113b0:	00161613          	slli	a2,a2,0x1
   113b4:	00169693          	slli	a3,a3,0x1
   113b8:	feb66ae3          	bltu	a2,a1,113ac <__riscv_div_lib_L1>

000113bc <__riscv_div_lib_L2>:
__riscv_div_lib_L2():
   113bc:	00000513          	addi	a0,zero,0

000113c0 <__riscv_div_lib_L3>:
__riscv_div_lib_L3():
   113c0:	00c5e663          	bltu	a1,a2,113cc <__riscv_div_lib_L4>
   113c4:	40c585b3          	sub	a1,a1,a2
   113c8:	00d56533          	or	a0,a0,a3

000113cc <__riscv_div_lib_L4>:
__riscv_div_lib_L4():
   113cc:	0016d693          	srli	a3,a3,0x1
   113d0:	00165613          	srli	a2,a2,0x1
   113d4:	fe0696e3          	bne	a3,zero,113c0 <__riscv_div_lib_L3>

000113d8 <__riscv_div_lib_L5>:
__riscv_div_lib_L5():
   113d8:	00008067          	jalr	zero,0(ra)

000113dc <__riscv_div_lib_umodsi3>:
__riscv_div_lib_umodsi3():
   113dc:	00008293          	addi	t0,ra,0
   113e0:	00000097          	auipc	ra,0x0
   113e4:	fb4080e7          	jalr	ra,-76(ra) # 11394 <__riscv_div_lib_udivsi3>
   113e8:	00058513          	addi	a0,a1,0
   113ec:	00028067          	jalr	zero,0(t0)

000113f0 <__riscv_div_lib_L10>:
__riscv_div_lib_L10():
   113f0:	40a00533          	sub	a0,zero,a0
   113f4:	00b04863          	blt	zero,a1,11404 <__riscv_div_lib_L12>
   113f8:	40b005b3          	sub	a1,zero,a1
   113fc:	f99ff06f          	jal	zero,11394 <__riscv_div_lib_udivsi3>

00011400 <__riscv_div_lib_L11>:
__riscv_div_lib_L11():
   11400:	40b005b3          	sub	a1,zero,a1

00011404 <__riscv_div_lib_L12>:
__riscv_div_lib_L12():
   11404:	00008293          	addi	t0,ra,0
   11408:	00000097          	auipc	ra,0x0
   1140c:	f8c080e7          	jalr	ra,-116(ra) # 11394 <__riscv_div_lib_udivsi3>
   11410:	40a00533          	sub	a0,zero,a0
   11414:	00028067          	jalr	zero,0(t0)

00011418 <__riscv_div_lib_modsi3>:
__riscv_div_lib_modsi3():
   11418:	00008293          	addi	t0,ra,0
   1141c:	0005cc63          	blt	a1,zero,11434 <__riscv_div_lib_L31>
   11420:	00054e63          	blt	a0,zero,1143c <__riscv_div_lib_L32>

00011424 <__riscv_div_lib_L30>:
__riscv_div_lib_L30():
   11424:	00000097          	auipc	ra,0x0
   11428:	f70080e7          	jalr	ra,-144(ra) # 11394 <__riscv_div_lib_udivsi3>
   1142c:	00058513          	addi	a0,a1,0
   11430:	00028067          	jalr	zero,0(t0)

00011434 <__riscv_div_lib_L31>:
__riscv_div_lib_L31():
   11434:	40b005b3          	sub	a1,zero,a1
   11438:	fe0556e3          	bge	a0,zero,11424 <__riscv_div_lib_L30>

0001143c <__riscv_div_lib_L32>:
__riscv_div_lib_L32():
   1143c:	40a00533          	sub	a0,zero,a0
   11440:	00000097          	auipc	ra,0x0
   11444:	f54080e7          	jalr	ra,-172(ra) # 11394 <__riscv_div_lib_udivsi3>
   11448:	40b00533          	sub	a0,zero,a1
   1144c:	00028067          	jalr	zero,0(t0)

00011450 <__fp_lock>:
__fp_lock():
   11450:	00000513          	addi	a0,zero,0
   11454:	00008067          	jalr	zero,0(ra)

00011458 <stdio_exit_handler>:
stdio_exit_handler():
   11458:	0006f637          	lui	a2,0x6f
   1145c:	000165b7          	lui	a1,0x16
   11460:	0006f537          	lui	a0,0x6f
   11464:	7a860613          	addi	a2,a2,1960 # 6f7a8 <__sglue>
   11468:	de458593          	addi	a1,a1,-540 # 15de4 <_fclose_r>
   1146c:	7b850513          	addi	a0,a0,1976 # 6f7b8 <_impure_data>
   11470:	3700006f          	jal	zero,117e0 <_fwalk_sglue>

00011474 <cleanup_stdio>:
cleanup_stdio():
   11474:	00452583          	lw	a1,4(a0)
   11478:	ff010113          	addi	sp,sp,-16
   1147c:	001147b7          	lui	a5,0x114
   11480:	00812423          	sw	s0,8(sp)
   11484:	00112623          	sw	ra,12(sp)
   11488:	84078793          	addi	a5,a5,-1984 # 113840 <__sf>
   1148c:	00050413          	addi	s0,a0,0
   11490:	00f58463          	beq	a1,a5,11498 <cleanup_stdio+0x24>
   11494:	151040ef          	jal	ra,15de4 <_fclose_r>
   11498:	00842583          	lw	a1,8(s0)
   1149c:	001147b7          	lui	a5,0x114
   114a0:	8a878793          	addi	a5,a5,-1880 # 1138a8 <__sf+0x68>
   114a4:	00f58663          	beq	a1,a5,114b0 <cleanup_stdio+0x3c>
   114a8:	00040513          	addi	a0,s0,0
   114ac:	139040ef          	jal	ra,15de4 <_fclose_r>
   114b0:	00c42583          	lw	a1,12(s0)
   114b4:	001147b7          	lui	a5,0x114
   114b8:	91078793          	addi	a5,a5,-1776 # 113910 <__sf+0xd0>
   114bc:	00f58c63          	beq	a1,a5,114d4 <cleanup_stdio+0x60>
   114c0:	00040513          	addi	a0,s0,0
   114c4:	00812403          	lw	s0,8(sp)
   114c8:	00c12083          	lw	ra,12(sp)
   114cc:	01010113          	addi	sp,sp,16
   114d0:	1150406f          	jal	zero,15de4 <_fclose_r>
   114d4:	00c12083          	lw	ra,12(sp)
   114d8:	00812403          	lw	s0,8(sp)
   114dc:	01010113          	addi	sp,sp,16
   114e0:	00008067          	jalr	zero,0(ra)

000114e4 <__fp_unlock>:
__fp_unlock():
   114e4:	00000513          	addi	a0,zero,0
   114e8:	00008067          	jalr	zero,0(ra)

000114ec <global_stdio_init.part.0>:
global_stdio_init.part.0():
   114ec:	fe010113          	addi	sp,sp,-32
   114f0:	000117b7          	lui	a5,0x11
   114f4:	00812c23          	sw	s0,24(sp)
   114f8:	45878793          	addi	a5,a5,1112 # 11458 <stdio_exit_handler>
   114fc:	00114437          	lui	s0,0x114
   11500:	00114537          	lui	a0,0x114
   11504:	84040413          	addi	s0,s0,-1984 # 113840 <__sf>
   11508:	00112e23          	sw	ra,28(sp)
   1150c:	00912a23          	sw	s1,20(sp)
   11510:	01212823          	sw	s2,16(sp)
   11514:	01312623          	sw	s3,12(sp)
   11518:	01412423          	sw	s4,8(sp)
   1151c:	88f1a223          	sw	a5,-1916(gp) # 6fed4 <__stdio_exit_handler>
   11520:	00800613          	addi	a2,zero,8
   11524:	00400793          	addi	a5,zero,4
   11528:	00000593          	addi	a1,zero,0
   1152c:	89c50513          	addi	a0,a0,-1892 # 11389c <__sf+0x5c>
   11530:	00f42623          	sw	a5,12(s0)
   11534:	00042023          	sw	zero,0(s0)
   11538:	00042223          	sw	zero,4(s0)
   1153c:	00042423          	sw	zero,8(s0)
   11540:	06042223          	sw	zero,100(s0)
   11544:	00042823          	sw	zero,16(s0)
   11548:	00042a23          	sw	zero,20(s0)
   1154c:	00042c23          	sw	zero,24(s0)
   11550:	03d000ef          	jal	ra,11d8c <memset>
   11554:	00012a37          	lui	s4,0x12
   11558:	000129b7          	lui	s3,0x12
   1155c:	00012937          	lui	s2,0x12
   11560:	000124b7          	lui	s1,0x12
   11564:	00114537          	lui	a0,0x114
   11568:	000107b7          	lui	a5,0x10
   1156c:	928a0a13          	addi	s4,s4,-1752 # 11928 <__sread>
   11570:	98c98993          	addi	s3,s3,-1652 # 1198c <__swrite>
   11574:	a1490913          	addi	s2,s2,-1516 # 11a14 <__sseek>
   11578:	a7848493          	addi	s1,s1,-1416 # 11a78 <__sclose>
   1157c:	00978793          	addi	a5,a5,9 # 10009 <exit-0xab>
   11580:	00800613          	addi	a2,zero,8
   11584:	00000593          	addi	a1,zero,0
   11588:	90450513          	addi	a0,a0,-1788 # 113904 <__sf+0xc4>
   1158c:	06f42a23          	sw	a5,116(s0)
   11590:	03442023          	sw	s4,32(s0)
   11594:	03342223          	sw	s3,36(s0)
   11598:	03242423          	sw	s2,40(s0)
   1159c:	02942623          	sw	s1,44(s0)
   115a0:	00842e23          	sw	s0,28(s0)
   115a4:	06042423          	sw	zero,104(s0)
   115a8:	06042623          	sw	zero,108(s0)
   115ac:	06042823          	sw	zero,112(s0)
   115b0:	0c042623          	sw	zero,204(s0)
   115b4:	06042c23          	sw	zero,120(s0)
   115b8:	06042e23          	sw	zero,124(s0)
   115bc:	08042023          	sw	zero,128(s0)
   115c0:	7cc000ef          	jal	ra,11d8c <memset>
   115c4:	00114737          	lui	a4,0x114
   115c8:	00114537          	lui	a0,0x114
   115cc:	000207b7          	lui	a5,0x20
   115d0:	01278793          	addi	a5,a5,18 # 20012 <__multf3+0xc56>
   115d4:	8a870713          	addi	a4,a4,-1880 # 1138a8 <__sf+0x68>
   115d8:	96c50513          	addi	a0,a0,-1684 # 11396c <__sf+0x12c>
   115dc:	00800613          	addi	a2,zero,8
   115e0:	00000593          	addi	a1,zero,0
   115e4:	09442423          	sw	s4,136(s0)
   115e8:	09342623          	sw	s3,140(s0)
   115ec:	09242823          	sw	s2,144(s0)
   115f0:	08942a23          	sw	s1,148(s0)
   115f4:	0cf42e23          	sw	a5,220(s0)
   115f8:	0c042823          	sw	zero,208(s0)
   115fc:	0c042a23          	sw	zero,212(s0)
   11600:	0c042c23          	sw	zero,216(s0)
   11604:	12042a23          	sw	zero,308(s0)
   11608:	0e042023          	sw	zero,224(s0)
   1160c:	0e042223          	sw	zero,228(s0)
   11610:	0e042423          	sw	zero,232(s0)
   11614:	08e42223          	sw	a4,132(s0)
   11618:	774000ef          	jal	ra,11d8c <memset>
   1161c:	001147b7          	lui	a5,0x114
   11620:	91078793          	addi	a5,a5,-1776 # 113910 <__sf+0xd0>
   11624:	0f442823          	sw	s4,240(s0)
   11628:	0f342a23          	sw	s3,244(s0)
   1162c:	0f242c23          	sw	s2,248(s0)
   11630:	0e942e23          	sw	s1,252(s0)
   11634:	01c12083          	lw	ra,28(sp)
   11638:	0ef42623          	sw	a5,236(s0)
   1163c:	01812403          	lw	s0,24(sp)
   11640:	01412483          	lw	s1,20(sp)
   11644:	01012903          	lw	s2,16(sp)
   11648:	00c12983          	lw	s3,12(sp)
   1164c:	00812a03          	lw	s4,8(sp)
   11650:	02010113          	addi	sp,sp,32
   11654:	00008067          	jalr	zero,0(ra)

00011658 <__sfp>:
__sfp():
   11658:	8841a783          	lw	a5,-1916(gp) # 6fed4 <__stdio_exit_handler>
   1165c:	fe010113          	addi	sp,sp,-32
   11660:	00912a23          	sw	s1,20(sp)
   11664:	00112e23          	sw	ra,28(sp)
   11668:	00812c23          	sw	s0,24(sp)
   1166c:	00050493          	addi	s1,a0,0
   11670:	0e078e63          	beq	a5,zero,1176c <__sfp+0x114>
   11674:	0006f837          	lui	a6,0x6f
   11678:	7a880813          	addi	a6,a6,1960 # 6f7a8 <__sglue>
   1167c:	fff00693          	addi	a3,zero,-1
   11680:	00482783          	lw	a5,4(a6)
   11684:	fff78793          	addi	a5,a5,-1
   11688:	0807c063          	blt	a5,zero,11708 <__sfp+0xb0>
   1168c:	00882403          	lw	s0,8(a6)
   11690:	00c0006f          	jal	zero,1169c <__sfp+0x44>
   11694:	06840413          	addi	s0,s0,104
   11698:	06d78863          	beq	a5,a3,11708 <__sfp+0xb0>
   1169c:	00c41703          	lh	a4,12(s0)
   116a0:	fff78793          	addi	a5,a5,-1
   116a4:	fe0718e3          	bne	a4,zero,11694 <__sfp+0x3c>
   116a8:	ffff07b7          	lui	a5,0xffff0
   116ac:	00178793          	addi	a5,a5,1 # ffff0001 <__BSS_END__+0xffedc4d1>
   116b0:	00f42623          	sw	a5,12(s0)
   116b4:	06042223          	sw	zero,100(s0)
   116b8:	00042023          	sw	zero,0(s0)
   116bc:	00042423          	sw	zero,8(s0)
   116c0:	00042223          	sw	zero,4(s0)
   116c4:	00042823          	sw	zero,16(s0)
   116c8:	00042a23          	sw	zero,20(s0)
   116cc:	00042c23          	sw	zero,24(s0)
   116d0:	00800613          	addi	a2,zero,8
   116d4:	00000593          	addi	a1,zero,0
   116d8:	05c40513          	addi	a0,s0,92
   116dc:	6b0000ef          	jal	ra,11d8c <memset>
   116e0:	02042823          	sw	zero,48(s0)
   116e4:	02042a23          	sw	zero,52(s0)
   116e8:	04042223          	sw	zero,68(s0)
   116ec:	04042423          	sw	zero,72(s0)
   116f0:	01c12083          	lw	ra,28(sp)
   116f4:	00040513          	addi	a0,s0,0
   116f8:	01812403          	lw	s0,24(sp)
   116fc:	01412483          	lw	s1,20(sp)
   11700:	02010113          	addi	sp,sp,32
   11704:	00008067          	jalr	zero,0(ra)
   11708:	00082403          	lw	s0,0(a6)
   1170c:	00040663          	beq	s0,zero,11718 <__sfp+0xc0>
   11710:	00040813          	addi	a6,s0,0
   11714:	f6dff06f          	jal	zero,11680 <__sfp+0x28>
   11718:	1ac00593          	addi	a1,zero,428
   1171c:	00048513          	addi	a0,s1,0
   11720:	01012623          	sw	a6,12(sp)
   11724:	4a1000ef          	jal	ra,123c4 <_malloc_r>
   11728:	00c12803          	lw	a6,12(sp)
   1172c:	00050413          	addi	s0,a0,0
   11730:	04050263          	beq	a0,zero,11774 <__sfp+0x11c>
   11734:	00400793          	addi	a5,zero,4
   11738:	00f52223          	sw	a5,4(a0)
   1173c:	00c50513          	addi	a0,a0,12
   11740:	00042023          	sw	zero,0(s0)
   11744:	00a42423          	sw	a0,8(s0)
   11748:	1a000613          	addi	a2,zero,416
   1174c:	00000593          	addi	a1,zero,0
   11750:	01012623          	sw	a6,12(sp)
   11754:	638000ef          	jal	ra,11d8c <memset>
   11758:	00c12803          	lw	a6,12(sp)
   1175c:	fff00693          	addi	a3,zero,-1
   11760:	00882023          	sw	s0,0(a6)
   11764:	00040813          	addi	a6,s0,0
   11768:	f19ff06f          	jal	zero,11680 <__sfp+0x28>
   1176c:	d81ff0ef          	jal	ra,114ec <global_stdio_init.part.0>
   11770:	f05ff06f          	jal	zero,11674 <__sfp+0x1c>
   11774:	00082023          	sw	zero,0(a6)
   11778:	00c00793          	addi	a5,zero,12
   1177c:	00f4a023          	sw	a5,0(s1)
   11780:	f71ff06f          	jal	zero,116f0 <__sfp+0x98>

00011784 <__sinit>:
__sinit():
   11784:	03452783          	lw	a5,52(a0)
   11788:	00078463          	beq	a5,zero,11790 <__sinit+0xc>
   1178c:	00008067          	jalr	zero,0(ra)
   11790:	000117b7          	lui	a5,0x11
   11794:	8841a703          	lw	a4,-1916(gp) # 6fed4 <__stdio_exit_handler>
   11798:	47478793          	addi	a5,a5,1140 # 11474 <cleanup_stdio>
   1179c:	02f52a23          	sw	a5,52(a0)
   117a0:	fe0716e3          	bne	a4,zero,1178c <__sinit+0x8>
   117a4:	d49ff06f          	jal	zero,114ec <global_stdio_init.part.0>

000117a8 <__sfp_lock_acquire>:
__sfp_lock_acquire():
   117a8:	00008067          	jalr	zero,0(ra)

000117ac <__sfp_lock_release>:
__sfp_lock_release():
   117ac:	00008067          	jalr	zero,0(ra)

000117b0 <__fp_lock_all>:
__fp_lock_all():
   117b0:	0006f637          	lui	a2,0x6f
   117b4:	000115b7          	lui	a1,0x11
   117b8:	7a860613          	addi	a2,a2,1960 # 6f7a8 <__sglue>
   117bc:	45058593          	addi	a1,a1,1104 # 11450 <__fp_lock>
   117c0:	00000513          	addi	a0,zero,0
   117c4:	01c0006f          	jal	zero,117e0 <_fwalk_sglue>

000117c8 <__fp_unlock_all>:
__fp_unlock_all():
   117c8:	0006f637          	lui	a2,0x6f
   117cc:	000115b7          	lui	a1,0x11
   117d0:	7a860613          	addi	a2,a2,1960 # 6f7a8 <__sglue>
   117d4:	4e458593          	addi	a1,a1,1252 # 114e4 <__fp_unlock>
   117d8:	00000513          	addi	a0,zero,0
   117dc:	0040006f          	jal	zero,117e0 <_fwalk_sglue>

000117e0 <_fwalk_sglue>:
_fwalk_sglue():
   117e0:	fd010113          	addi	sp,sp,-48
   117e4:	03212023          	sw	s2,32(sp)
   117e8:	01312e23          	sw	s3,28(sp)
   117ec:	01412c23          	sw	s4,24(sp)
   117f0:	01512a23          	sw	s5,20(sp)
   117f4:	01612823          	sw	s6,16(sp)
   117f8:	01712623          	sw	s7,12(sp)
   117fc:	02112623          	sw	ra,44(sp)
   11800:	02812423          	sw	s0,40(sp)
   11804:	02912223          	sw	s1,36(sp)
   11808:	00060a93          	addi	s5,a2,0
   1180c:	00050b13          	addi	s6,a0,0
   11810:	00058b93          	addi	s7,a1,0
   11814:	00000a13          	addi	s4,zero,0
   11818:	00100993          	addi	s3,zero,1
   1181c:	fff00913          	addi	s2,zero,-1
   11820:	004aa483          	lw	s1,4(s5)
   11824:	fff48493          	addi	s1,s1,-1
   11828:	0204ca63          	blt	s1,zero,1185c <_fwalk_sglue+0x7c>
   1182c:	008aa403          	lw	s0,8(s5)
   11830:	00c45783          	lhu	a5,12(s0)
   11834:	00f9fe63          	bgeu	s3,a5,11850 <_fwalk_sglue+0x70>
   11838:	00e41783          	lh	a5,14(s0)
   1183c:	00040593          	addi	a1,s0,0
   11840:	000b0513          	addi	a0,s6,0
   11844:	01278663          	beq	a5,s2,11850 <_fwalk_sglue+0x70>
   11848:	000b80e7          	jalr	ra,0(s7)
   1184c:	00aa6a33          	or	s4,s4,a0
   11850:	fff48493          	addi	s1,s1,-1
   11854:	06840413          	addi	s0,s0,104
   11858:	fd249ce3          	bne	s1,s2,11830 <_fwalk_sglue+0x50>
   1185c:	000aaa83          	lw	s5,0(s5)
   11860:	fc0a90e3          	bne	s5,zero,11820 <_fwalk_sglue+0x40>
   11864:	02c12083          	lw	ra,44(sp)
   11868:	02812403          	lw	s0,40(sp)
   1186c:	02412483          	lw	s1,36(sp)
   11870:	02012903          	lw	s2,32(sp)
   11874:	01c12983          	lw	s3,28(sp)
   11878:	01412a83          	lw	s5,20(sp)
   1187c:	01012b03          	lw	s6,16(sp)
   11880:	00c12b83          	lw	s7,12(sp)
   11884:	000a0513          	addi	a0,s4,0
   11888:	01812a03          	lw	s4,24(sp)
   1188c:	03010113          	addi	sp,sp,48
   11890:	00008067          	jalr	zero,0(ra)

00011894 <_printf_r>:
_printf_r():
   11894:	fc010113          	addi	sp,sp,-64
   11898:	00058e13          	addi	t3,a1,0
   1189c:	00852583          	lw	a1,8(a0)
   118a0:	02810313          	addi	t1,sp,40
   118a4:	02c12423          	sw	a2,40(sp)
   118a8:	02d12623          	sw	a3,44(sp)
   118ac:	000e0613          	addi	a2,t3,0
   118b0:	00030693          	addi	a3,t1,0
   118b4:	00112e23          	sw	ra,28(sp)
   118b8:	02e12823          	sw	a4,48(sp)
   118bc:	02f12a23          	sw	a5,52(sp)
   118c0:	03012c23          	sw	a6,56(sp)
   118c4:	03112e23          	sw	a7,60(sp)
   118c8:	00612623          	sw	t1,12(sp)
   118cc:	380010ef          	jal	ra,12c4c <_vfprintf_r>
   118d0:	01c12083          	lw	ra,28(sp)
   118d4:	04010113          	addi	sp,sp,64
   118d8:	00008067          	jalr	zero,0(ra)

000118dc <printf>:
printf():
   118dc:	8741a303          	lw	t1,-1932(gp) # 6fec4 <_impure_ptr>
   118e0:	fc010113          	addi	sp,sp,-64
   118e4:	02c12423          	sw	a2,40(sp)
   118e8:	02d12623          	sw	a3,44(sp)
   118ec:	02b12223          	sw	a1,36(sp)
   118f0:	02e12823          	sw	a4,48(sp)
   118f4:	02f12a23          	sw	a5,52(sp)
   118f8:	03012c23          	sw	a6,56(sp)
   118fc:	03112e23          	sw	a7,60(sp)
   11900:	00832583          	lw	a1,8(t1)
   11904:	02410693          	addi	a3,sp,36
   11908:	00050613          	addi	a2,a0,0
   1190c:	00030513          	addi	a0,t1,0
   11910:	00112e23          	sw	ra,28(sp)
   11914:	00d12623          	sw	a3,12(sp)
   11918:	334010ef          	jal	ra,12c4c <_vfprintf_r>
   1191c:	01c12083          	lw	ra,28(sp)
   11920:	04010113          	addi	sp,sp,64
   11924:	00008067          	jalr	zero,0(ra)

00011928 <__sread>:
__sread():
   11928:	ff010113          	addi	sp,sp,-16
   1192c:	00812423          	sw	s0,8(sp)
   11930:	00058413          	addi	s0,a1,0
   11934:	00e59583          	lh	a1,14(a1)
   11938:	00112623          	sw	ra,12(sp)
   1193c:	2ec000ef          	jal	ra,11c28 <_read_r>
   11940:	02054063          	blt	a0,zero,11960 <__sread+0x38>
   11944:	05042783          	lw	a5,80(s0)
   11948:	00c12083          	lw	ra,12(sp)
   1194c:	00a787b3          	add	a5,a5,a0
   11950:	04f42823          	sw	a5,80(s0)
   11954:	00812403          	lw	s0,8(sp)
   11958:	01010113          	addi	sp,sp,16
   1195c:	00008067          	jalr	zero,0(ra)
   11960:	00c45783          	lhu	a5,12(s0)
   11964:	fffff737          	lui	a4,0xfffff
   11968:	fff70713          	addi	a4,a4,-1 # ffffefff <__BSS_END__+0xffeeb4cf>
   1196c:	00e7f7b3          	and	a5,a5,a4
   11970:	00c12083          	lw	ra,12(sp)
   11974:	00f41623          	sh	a5,12(s0)
   11978:	00812403          	lw	s0,8(sp)
   1197c:	01010113          	addi	sp,sp,16
   11980:	00008067          	jalr	zero,0(ra)

00011984 <__seofread>:
__seofread():
   11984:	00000513          	addi	a0,zero,0
   11988:	00008067          	jalr	zero,0(ra)

0001198c <__swrite>:
__swrite():
   1198c:	00c59783          	lh	a5,12(a1)
   11990:	fe010113          	addi	sp,sp,-32
   11994:	00068313          	addi	t1,a3,0
   11998:	00112e23          	sw	ra,28(sp)
   1199c:	1007f693          	andi	a3,a5,256
   119a0:	00058713          	addi	a4,a1,0
   119a4:	00060893          	addi	a7,a2,0
   119a8:	00050813          	addi	a6,a0,0
   119ac:	02069863          	bne	a3,zero,119dc <__swrite+0x50>
   119b0:	fffff6b7          	lui	a3,0xfffff
   119b4:	fff68693          	addi	a3,a3,-1 # ffffefff <__BSS_END__+0xffeeb4cf>
   119b8:	01c12083          	lw	ra,28(sp)
   119bc:	00d7f7b3          	and	a5,a5,a3
   119c0:	00e71583          	lh	a1,14(a4)
   119c4:	00f71623          	sh	a5,12(a4)
   119c8:	00030693          	addi	a3,t1,0
   119cc:	00088613          	addi	a2,a7,0
   119d0:	00080513          	addi	a0,a6,0
   119d4:	02010113          	addi	sp,sp,32
   119d8:	2b80006f          	jal	zero,11c90 <_write_r>
   119dc:	00e59583          	lh	a1,14(a1)
   119e0:	00c12423          	sw	a2,8(sp)
   119e4:	00200693          	addi	a3,zero,2
   119e8:	00000613          	addi	a2,zero,0
   119ec:	00612623          	sw	t1,12(sp)
   119f0:	00e12023          	sw	a4,0(sp)
   119f4:	00a12223          	sw	a0,4(sp)
   119f8:	1c8000ef          	jal	ra,11bc0 <_lseek_r>
   119fc:	00012703          	lw	a4,0(sp)
   11a00:	00c12303          	lw	t1,12(sp)
   11a04:	00812883          	lw	a7,8(sp)
   11a08:	00c71783          	lh	a5,12(a4)
   11a0c:	00412803          	lw	a6,4(sp)
   11a10:	fa1ff06f          	jal	zero,119b0 <__swrite+0x24>

00011a14 <__sseek>:
__sseek():
   11a14:	ff010113          	addi	sp,sp,-16
   11a18:	00812423          	sw	s0,8(sp)
   11a1c:	00058413          	addi	s0,a1,0
   11a20:	00e59583          	lh	a1,14(a1)
   11a24:	00112623          	sw	ra,12(sp)
   11a28:	198000ef          	jal	ra,11bc0 <_lseek_r>
   11a2c:	fff00713          	addi	a4,zero,-1
   11a30:	00c41783          	lh	a5,12(s0)
   11a34:	02e50263          	beq	a0,a4,11a58 <__sseek+0x44>
   11a38:	00001737          	lui	a4,0x1
   11a3c:	00e7e7b3          	or	a5,a5,a4
   11a40:	00c12083          	lw	ra,12(sp)
   11a44:	04a42823          	sw	a0,80(s0)
   11a48:	00f41623          	sh	a5,12(s0)
   11a4c:	00812403          	lw	s0,8(sp)
   11a50:	01010113          	addi	sp,sp,16
   11a54:	00008067          	jalr	zero,0(ra)
   11a58:	80050713          	addi	a4,a0,-2048
   11a5c:	80070713          	addi	a4,a4,-2048 # 800 <exit-0xf8b4>
   11a60:	00e7f7b3          	and	a5,a5,a4
   11a64:	00c12083          	lw	ra,12(sp)
   11a68:	00f41623          	sh	a5,12(s0)
   11a6c:	00812403          	lw	s0,8(sp)
   11a70:	01010113          	addi	sp,sp,16
   11a74:	00008067          	jalr	zero,0(ra)

00011a78 <__sclose>:
__sclose():
   11a78:	00e59583          	lh	a1,14(a1)
   11a7c:	0040006f          	jal	zero,11a80 <_close_r>

00011a80 <_close_r>:
_close_r():
   11a80:	ff010113          	addi	sp,sp,-16
   11a84:	00812423          	sw	s0,8(sp)
   11a88:	00912223          	sw	s1,4(sp)
   11a8c:	00050493          	addi	s1,a0,0
   11a90:	00058513          	addi	a0,a1,0
   11a94:	00112623          	sw	ra,12(sp)
   11a98:	8801a423          	sw	zero,-1912(gp) # 6fed8 <errno>
   11a9c:	4340b0ef          	jal	ra,1ced0 <_close>
   11aa0:	fff00793          	addi	a5,zero,-1
   11aa4:	00f50c63          	beq	a0,a5,11abc <_close_r+0x3c>
   11aa8:	00c12083          	lw	ra,12(sp)
   11aac:	00812403          	lw	s0,8(sp)
   11ab0:	00412483          	lw	s1,4(sp)
   11ab4:	01010113          	addi	sp,sp,16
   11ab8:	00008067          	jalr	zero,0(ra)
   11abc:	8881a783          	lw	a5,-1912(gp) # 6fed8 <errno>
   11ac0:	fe0784e3          	beq	a5,zero,11aa8 <_close_r+0x28>
   11ac4:	00c12083          	lw	ra,12(sp)
   11ac8:	00812403          	lw	s0,8(sp)
   11acc:	00f4a023          	sw	a5,0(s1)
   11ad0:	00412483          	lw	s1,4(sp)
   11ad4:	01010113          	addi	sp,sp,16
   11ad8:	00008067          	jalr	zero,0(ra)

00011adc <_reclaim_reent>:
_reclaim_reent():
   11adc:	8741a783          	lw	a5,-1932(gp) # 6fec4 <_impure_ptr>
   11ae0:	0ca78e63          	beq	a5,a0,11bbc <_reclaim_reent+0xe0>
   11ae4:	04452583          	lw	a1,68(a0)
   11ae8:	fe010113          	addi	sp,sp,-32
   11aec:	00912a23          	sw	s1,20(sp)
   11af0:	00112e23          	sw	ra,28(sp)
   11af4:	00812c23          	sw	s0,24(sp)
   11af8:	00050493          	addi	s1,a0,0
   11afc:	04058863          	beq	a1,zero,11b4c <_reclaim_reent+0x70>
   11b00:	01212823          	sw	s2,16(sp)
   11b04:	01312623          	sw	s3,12(sp)
   11b08:	00000913          	addi	s2,zero,0
   11b0c:	08000993          	addi	s3,zero,128
   11b10:	012587b3          	add	a5,a1,s2
   11b14:	0007a403          	lw	s0,0(a5)
   11b18:	00040e63          	beq	s0,zero,11b34 <_reclaim_reent+0x58>
   11b1c:	00040593          	addi	a1,s0,0
   11b20:	00042403          	lw	s0,0(s0)
   11b24:	00048513          	addi	a0,s1,0
   11b28:	5b4000ef          	jal	ra,120dc <_free_r>
   11b2c:	fe0418e3          	bne	s0,zero,11b1c <_reclaim_reent+0x40>
   11b30:	0444a583          	lw	a1,68(s1)
   11b34:	00490913          	addi	s2,s2,4
   11b38:	fd391ce3          	bne	s2,s3,11b10 <_reclaim_reent+0x34>
   11b3c:	00048513          	addi	a0,s1,0
   11b40:	59c000ef          	jal	ra,120dc <_free_r>
   11b44:	01012903          	lw	s2,16(sp)
   11b48:	00c12983          	lw	s3,12(sp)
   11b4c:	0384a583          	lw	a1,56(s1)
   11b50:	00058663          	beq	a1,zero,11b5c <_reclaim_reent+0x80>
   11b54:	00048513          	addi	a0,s1,0
   11b58:	584000ef          	jal	ra,120dc <_free_r>
   11b5c:	0404a403          	lw	s0,64(s1)
   11b60:	00040c63          	beq	s0,zero,11b78 <_reclaim_reent+0x9c>
   11b64:	00040593          	addi	a1,s0,0
   11b68:	00042403          	lw	s0,0(s0)
   11b6c:	00048513          	addi	a0,s1,0
   11b70:	56c000ef          	jal	ra,120dc <_free_r>
   11b74:	fe0418e3          	bne	s0,zero,11b64 <_reclaim_reent+0x88>
   11b78:	04c4a583          	lw	a1,76(s1)
   11b7c:	00058663          	beq	a1,zero,11b88 <_reclaim_reent+0xac>
   11b80:	00048513          	addi	a0,s1,0
   11b84:	558000ef          	jal	ra,120dc <_free_r>
   11b88:	0344a783          	lw	a5,52(s1)
   11b8c:	00078e63          	beq	a5,zero,11ba8 <_reclaim_reent+0xcc>
   11b90:	01812403          	lw	s0,24(sp)
   11b94:	01c12083          	lw	ra,28(sp)
   11b98:	00048513          	addi	a0,s1,0
   11b9c:	01412483          	lw	s1,20(sp)
   11ba0:	02010113          	addi	sp,sp,32
   11ba4:	00078067          	jalr	zero,0(a5)
   11ba8:	01c12083          	lw	ra,28(sp)
   11bac:	01812403          	lw	s0,24(sp)
   11bb0:	01412483          	lw	s1,20(sp)
   11bb4:	02010113          	addi	sp,sp,32
   11bb8:	00008067          	jalr	zero,0(ra)
   11bbc:	00008067          	jalr	zero,0(ra)

00011bc0 <_lseek_r>:
_lseek_r():
   11bc0:	ff010113          	addi	sp,sp,-16
   11bc4:	00058793          	addi	a5,a1,0
   11bc8:	00812423          	sw	s0,8(sp)
   11bcc:	00912223          	sw	s1,4(sp)
   11bd0:	00060593          	addi	a1,a2,0
   11bd4:	00050493          	addi	s1,a0,0
   11bd8:	00068613          	addi	a2,a3,0
   11bdc:	00078513          	addi	a0,a5,0
   11be0:	00112623          	sw	ra,12(sp)
   11be4:	8801a423          	sw	zero,-1912(gp) # 6fed8 <errno>
   11be8:	4240b0ef          	jal	ra,1d00c <_lseek>
   11bec:	fff00793          	addi	a5,zero,-1
   11bf0:	00f50c63          	beq	a0,a5,11c08 <_lseek_r+0x48>
   11bf4:	00c12083          	lw	ra,12(sp)
   11bf8:	00812403          	lw	s0,8(sp)
   11bfc:	00412483          	lw	s1,4(sp)
   11c00:	01010113          	addi	sp,sp,16
   11c04:	00008067          	jalr	zero,0(ra)
   11c08:	8881a783          	lw	a5,-1912(gp) # 6fed8 <errno>
   11c0c:	fe0784e3          	beq	a5,zero,11bf4 <_lseek_r+0x34>
   11c10:	00c12083          	lw	ra,12(sp)
   11c14:	00812403          	lw	s0,8(sp)
   11c18:	00f4a023          	sw	a5,0(s1)
   11c1c:	00412483          	lw	s1,4(sp)
   11c20:	01010113          	addi	sp,sp,16
   11c24:	00008067          	jalr	zero,0(ra)

00011c28 <_read_r>:
_read_r():
   11c28:	ff010113          	addi	sp,sp,-16
   11c2c:	00058793          	addi	a5,a1,0
   11c30:	00812423          	sw	s0,8(sp)
   11c34:	00912223          	sw	s1,4(sp)
   11c38:	00060593          	addi	a1,a2,0
   11c3c:	00050493          	addi	s1,a0,0
   11c40:	00068613          	addi	a2,a3,0
   11c44:	00078513          	addi	a0,a5,0
   11c48:	00112623          	sw	ra,12(sp)
   11c4c:	8801a423          	sw	zero,-1912(gp) # 6fed8 <errno>
   11c50:	3fc0b0ef          	jal	ra,1d04c <_read>
   11c54:	fff00793          	addi	a5,zero,-1
   11c58:	00f50c63          	beq	a0,a5,11c70 <_read_r+0x48>
   11c5c:	00c12083          	lw	ra,12(sp)
   11c60:	00812403          	lw	s0,8(sp)
   11c64:	00412483          	lw	s1,4(sp)
   11c68:	01010113          	addi	sp,sp,16
   11c6c:	00008067          	jalr	zero,0(ra)
   11c70:	8881a783          	lw	a5,-1912(gp) # 6fed8 <errno>
   11c74:	fe0784e3          	beq	a5,zero,11c5c <_read_r+0x34>
   11c78:	00c12083          	lw	ra,12(sp)
   11c7c:	00812403          	lw	s0,8(sp)
   11c80:	00f4a023          	sw	a5,0(s1)
   11c84:	00412483          	lw	s1,4(sp)
   11c88:	01010113          	addi	sp,sp,16
   11c8c:	00008067          	jalr	zero,0(ra)

00011c90 <_write_r>:
_write_r():
   11c90:	ff010113          	addi	sp,sp,-16
   11c94:	00058793          	addi	a5,a1,0
   11c98:	00812423          	sw	s0,8(sp)
   11c9c:	00912223          	sw	s1,4(sp)
   11ca0:	00060593          	addi	a1,a2,0
   11ca4:	00050493          	addi	s1,a0,0
   11ca8:	00068613          	addi	a2,a3,0
   11cac:	00078513          	addi	a0,a5,0
   11cb0:	00112623          	sw	ra,12(sp)
   11cb4:	8801a423          	sw	zero,-1912(gp) # 6fed8 <errno>
   11cb8:	44c0b0ef          	jal	ra,1d104 <_write>
   11cbc:	fff00793          	addi	a5,zero,-1
   11cc0:	00f50c63          	beq	a0,a5,11cd8 <_write_r+0x48>
   11cc4:	00c12083          	lw	ra,12(sp)
   11cc8:	00812403          	lw	s0,8(sp)
   11ccc:	00412483          	lw	s1,4(sp)
   11cd0:	01010113          	addi	sp,sp,16
   11cd4:	00008067          	jalr	zero,0(ra)
   11cd8:	8881a783          	lw	a5,-1912(gp) # 6fed8 <errno>
   11cdc:	fe0784e3          	beq	a5,zero,11cc4 <_write_r+0x34>
   11ce0:	00c12083          	lw	ra,12(sp)
   11ce4:	00812403          	lw	s0,8(sp)
   11ce8:	00f4a023          	sw	a5,0(s1)
   11cec:	00412483          	lw	s1,4(sp)
   11cf0:	01010113          	addi	sp,sp,16
   11cf4:	00008067          	jalr	zero,0(ra)

00011cf8 <__libc_init_array>:
__libc_init_array():
   11cf8:	ff010113          	addi	sp,sp,-16
   11cfc:	00812423          	sw	s0,8(sp)
   11d00:	01212023          	sw	s2,0(sp)
   11d04:	0006f437          	lui	s0,0x6f
   11d08:	0006f937          	lui	s2,0x6f
   11d0c:	00112623          	sw	ra,12(sp)
   11d10:	00912223          	sw	s1,4(sp)
   11d14:	79890913          	addi	s2,s2,1944 # 6f798 <__init_array_start>
   11d18:	79840413          	addi	s0,s0,1944 # 6f798 <__init_array_start>
   11d1c:	02890263          	beq	s2,s0,11d40 <__libc_init_array+0x48>
   11d20:	40890933          	sub	s2,s2,s0
   11d24:	40295913          	srai	s2,s2,0x2
   11d28:	00000493          	addi	s1,zero,0
   11d2c:	00042783          	lw	a5,0(s0)
   11d30:	00148493          	addi	s1,s1,1
   11d34:	00440413          	addi	s0,s0,4
   11d38:	000780e7          	jalr	ra,0(a5)
   11d3c:	ff24e8e3          	bltu	s1,s2,11d2c <__libc_init_array+0x34>
   11d40:	0006f937          	lui	s2,0x6f
   11d44:	0006f437          	lui	s0,0x6f
   11d48:	7a090913          	addi	s2,s2,1952 # 6f7a0 <__do_global_dtors_aux_fini_array_entry>
   11d4c:	79840413          	addi	s0,s0,1944 # 6f798 <__init_array_start>
   11d50:	02890263          	beq	s2,s0,11d74 <__libc_init_array+0x7c>
   11d54:	40890933          	sub	s2,s2,s0
   11d58:	40295913          	srai	s2,s2,0x2
   11d5c:	00000493          	addi	s1,zero,0
   11d60:	00042783          	lw	a5,0(s0)
   11d64:	00148493          	addi	s1,s1,1
   11d68:	00440413          	addi	s0,s0,4
   11d6c:	000780e7          	jalr	ra,0(a5)
   11d70:	ff24e8e3          	bltu	s1,s2,11d60 <__libc_init_array+0x68>
   11d74:	00c12083          	lw	ra,12(sp)
   11d78:	00812403          	lw	s0,8(sp)
   11d7c:	00412483          	lw	s1,4(sp)
   11d80:	00012903          	lw	s2,0(sp)
   11d84:	01010113          	addi	sp,sp,16
   11d88:	00008067          	jalr	zero,0(ra)

00011d8c <memset>:
memset():
   11d8c:	00f00313          	addi	t1,zero,15
   11d90:	00050713          	addi	a4,a0,0
   11d94:	02c37e63          	bgeu	t1,a2,11dd0 <memset+0x44>
   11d98:	00f77793          	andi	a5,a4,15
   11d9c:	0a079063          	bne	a5,zero,11e3c <memset+0xb0>
   11da0:	08059263          	bne	a1,zero,11e24 <memset+0x98>
   11da4:	ff067693          	andi	a3,a2,-16
   11da8:	00f67613          	andi	a2,a2,15
   11dac:	00e686b3          	add	a3,a3,a4
   11db0:	00b72023          	sw	a1,0(a4)
   11db4:	00b72223          	sw	a1,4(a4)
   11db8:	00b72423          	sw	a1,8(a4)
   11dbc:	00b72623          	sw	a1,12(a4)
   11dc0:	01070713          	addi	a4,a4,16
   11dc4:	fed766e3          	bltu	a4,a3,11db0 <memset+0x24>
   11dc8:	00061463          	bne	a2,zero,11dd0 <memset+0x44>
   11dcc:	00008067          	jalr	zero,0(ra)
   11dd0:	40c306b3          	sub	a3,t1,a2
   11dd4:	00269693          	slli	a3,a3,0x2
   11dd8:	00000297          	auipc	t0,0x0
   11ddc:	005686b3          	add	a3,a3,t0
   11de0:	00c68067          	jalr	zero,12(a3)
   11de4:	00b70723          	sb	a1,14(a4)
   11de8:	00b706a3          	sb	a1,13(a4)
   11dec:	00b70623          	sb	a1,12(a4)
   11df0:	00b705a3          	sb	a1,11(a4)
   11df4:	00b70523          	sb	a1,10(a4)
   11df8:	00b704a3          	sb	a1,9(a4)
   11dfc:	00b70423          	sb	a1,8(a4)
   11e00:	00b703a3          	sb	a1,7(a4)
   11e04:	00b70323          	sb	a1,6(a4)
   11e08:	00b702a3          	sb	a1,5(a4)
   11e0c:	00b70223          	sb	a1,4(a4)
   11e10:	00b701a3          	sb	a1,3(a4)
   11e14:	00b70123          	sb	a1,2(a4)
   11e18:	00b700a3          	sb	a1,1(a4)
   11e1c:	00b70023          	sb	a1,0(a4)
   11e20:	00008067          	jalr	zero,0(ra)
   11e24:	0ff5f593          	andi	a1,a1,255
   11e28:	00859693          	slli	a3,a1,0x8
   11e2c:	00d5e5b3          	or	a1,a1,a3
   11e30:	01059693          	slli	a3,a1,0x10
   11e34:	00d5e5b3          	or	a1,a1,a3
   11e38:	f6dff06f          	jal	zero,11da4 <memset+0x18>
   11e3c:	00279693          	slli	a3,a5,0x2
   11e40:	00000297          	auipc	t0,0x0
   11e44:	005686b3          	add	a3,a3,t0
   11e48:	00008293          	addi	t0,ra,0
   11e4c:	fa0680e7          	jalr	ra,-96(a3)
   11e50:	00028093          	addi	ra,t0,0 # 11e40 <memset+0xb4>
   11e54:	ff078793          	addi	a5,a5,-16
   11e58:	40f70733          	sub	a4,a4,a5
   11e5c:	00f60633          	add	a2,a2,a5
   11e60:	f6c378e3          	bgeu	t1,a2,11dd0 <memset+0x44>
   11e64:	f3dff06f          	jal	zero,11da0 <memset+0x14>

00011e68 <__call_exitprocs>:
__call_exitprocs():
   11e68:	fd010113          	addi	sp,sp,-48
   11e6c:	01412c23          	sw	s4,24(sp)
   11e70:	03212023          	sw	s2,32(sp)
   11e74:	88c1a903          	lw	s2,-1908(gp) # 6fedc <__atexit>
   11e78:	02112623          	sw	ra,44(sp)
   11e7c:	06090c63          	beq	s2,zero,11ef4 <__call_exitprocs+0x8c>
   11e80:	01312e23          	sw	s3,28(sp)
   11e84:	01512a23          	sw	s5,20(sp)
   11e88:	01612823          	sw	s6,16(sp)
   11e8c:	01712623          	sw	s7,12(sp)
   11e90:	02812423          	sw	s0,40(sp)
   11e94:	02912223          	sw	s1,36(sp)
   11e98:	01812423          	sw	s8,8(sp)
   11e9c:	00050b13          	addi	s6,a0,0
   11ea0:	00058b93          	addi	s7,a1,0
   11ea4:	fff00993          	addi	s3,zero,-1
   11ea8:	00100a93          	addi	s5,zero,1
   11eac:	00492483          	lw	s1,4(s2)
   11eb0:	fff48413          	addi	s0,s1,-1
   11eb4:	02044263          	blt	s0,zero,11ed8 <__call_exitprocs+0x70>
   11eb8:	00249493          	slli	s1,s1,0x2
   11ebc:	009904b3          	add	s1,s2,s1
   11ec0:	040b8463          	beq	s7,zero,11f08 <__call_exitprocs+0xa0>
   11ec4:	1044a783          	lw	a5,260(s1)
   11ec8:	05778063          	beq	a5,s7,11f08 <__call_exitprocs+0xa0>
   11ecc:	fff40413          	addi	s0,s0,-1
   11ed0:	ffc48493          	addi	s1,s1,-4
   11ed4:	ff3418e3          	bne	s0,s3,11ec4 <__call_exitprocs+0x5c>
   11ed8:	02812403          	lw	s0,40(sp)
   11edc:	02412483          	lw	s1,36(sp)
   11ee0:	01c12983          	lw	s3,28(sp)
   11ee4:	01412a83          	lw	s5,20(sp)
   11ee8:	01012b03          	lw	s6,16(sp)
   11eec:	00c12b83          	lw	s7,12(sp)
   11ef0:	00812c03          	lw	s8,8(sp)
   11ef4:	02c12083          	lw	ra,44(sp)
   11ef8:	02012903          	lw	s2,32(sp)
   11efc:	01812a03          	lw	s4,24(sp)
   11f00:	03010113          	addi	sp,sp,48
   11f04:	00008067          	jalr	zero,0(ra)
   11f08:	00492783          	lw	a5,4(s2)
   11f0c:	0044a683          	lw	a3,4(s1)
   11f10:	fff78793          	addi	a5,a5,-1
   11f14:	06878a63          	beq	a5,s0,11f88 <__call_exitprocs+0x120>
   11f18:	0004a223          	sw	zero,4(s1)
   11f1c:	02068663          	beq	a3,zero,11f48 <__call_exitprocs+0xe0>
   11f20:	18892783          	lw	a5,392(s2)
   11f24:	008a9733          	sll	a4,s5,s0
   11f28:	00492c03          	lw	s8,4(s2)
   11f2c:	00f777b3          	and	a5,a4,a5
   11f30:	02079463          	bne	a5,zero,11f58 <__call_exitprocs+0xf0>
   11f34:	000680e7          	jalr	ra,0(a3)
   11f38:	00492703          	lw	a4,4(s2)
   11f3c:	88c1a783          	lw	a5,-1908(gp) # 6fedc <__atexit>
   11f40:	03871e63          	bne	a4,s8,11f7c <__call_exitprocs+0x114>
   11f44:	03279c63          	bne	a5,s2,11f7c <__call_exitprocs+0x114>
   11f48:	fff40413          	addi	s0,s0,-1
   11f4c:	ffc48493          	addi	s1,s1,-4
   11f50:	f73418e3          	bne	s0,s3,11ec0 <__call_exitprocs+0x58>
   11f54:	f85ff06f          	jal	zero,11ed8 <__call_exitprocs+0x70>
   11f58:	18c92783          	lw	a5,396(s2)
   11f5c:	0844a583          	lw	a1,132(s1)
   11f60:	00f77733          	and	a4,a4,a5
   11f64:	02071663          	bne	a4,zero,11f90 <__call_exitprocs+0x128>
   11f68:	000b0513          	addi	a0,s6,0
   11f6c:	000680e7          	jalr	ra,0(a3)
   11f70:	00492703          	lw	a4,4(s2)
   11f74:	88c1a783          	lw	a5,-1908(gp) # 6fedc <__atexit>
   11f78:	fd8706e3          	beq	a4,s8,11f44 <__call_exitprocs+0xdc>
   11f7c:	f4078ee3          	beq	a5,zero,11ed8 <__call_exitprocs+0x70>
   11f80:	00078913          	addi	s2,a5,0
   11f84:	f29ff06f          	jal	zero,11eac <__call_exitprocs+0x44>
   11f88:	00892223          	sw	s0,4(s2)
   11f8c:	f91ff06f          	jal	zero,11f1c <__call_exitprocs+0xb4>
   11f90:	00058513          	addi	a0,a1,0
   11f94:	000680e7          	jalr	ra,0(a3)
   11f98:	fa1ff06f          	jal	zero,11f38 <__call_exitprocs+0xd0>

00011f9c <atexit>:
atexit():
   11f9c:	00050593          	addi	a1,a0,0
   11fa0:	00000693          	addi	a3,zero,0
   11fa4:	00000613          	addi	a2,zero,0
   11fa8:	00000513          	addi	a0,zero,0
   11fac:	7410406f          	jal	zero,16eec <__register_exitproc>

00011fb0 <_malloc_trim_r>:
_malloc_trim_r():
   11fb0:	fe010113          	addi	sp,sp,-32
   11fb4:	01212823          	sw	s2,16(sp)
   11fb8:	00070937          	lui	s2,0x70
   11fbc:	00812c23          	sw	s0,24(sp)
   11fc0:	00912a23          	sw	s1,20(sp)
   11fc4:	01312623          	sw	s3,12(sp)
   11fc8:	00058413          	addi	s0,a1,0
   11fcc:	00112e23          	sw	ra,28(sp)
   11fd0:	00050993          	addi	s3,a0,0
   11fd4:	8d890913          	addi	s2,s2,-1832 # 6f8d8 <__malloc_av_>
   11fd8:	46d000ef          	jal	ra,12c44 <__malloc_lock>
   11fdc:	00892783          	lw	a5,8(s2)
   11fe0:	00001737          	lui	a4,0x1
   11fe4:	0047a483          	lw	s1,4(a5)
   11fe8:	ffc4f493          	andi	s1,s1,-4
   11fec:	7ff48793          	addi	a5,s1,2047
   11ff0:	7f078793          	addi	a5,a5,2032
   11ff4:	40878433          	sub	s0,a5,s0
   11ff8:	00c45413          	srli	s0,s0,0xc
   11ffc:	fff40413          	addi	s0,s0,-1
   12000:	00c41413          	slli	s0,s0,0xc
   12004:	00e44e63          	blt	s0,a4,12020 <_malloc_trim_r+0x70>
   12008:	00000593          	addi	a1,zero,0
   1200c:	00098513          	addi	a0,s3,0
   12010:	1c9040ef          	jal	ra,169d8 <_sbrk_r>
   12014:	00892783          	lw	a5,8(s2)
   12018:	009787b3          	add	a5,a5,s1
   1201c:	02f50663          	beq	a0,a5,12048 <_malloc_trim_r+0x98>
   12020:	00098513          	addi	a0,s3,0
   12024:	425000ef          	jal	ra,12c48 <__malloc_unlock>
   12028:	01c12083          	lw	ra,28(sp)
   1202c:	01812403          	lw	s0,24(sp)
   12030:	01412483          	lw	s1,20(sp)
   12034:	01012903          	lw	s2,16(sp)
   12038:	00c12983          	lw	s3,12(sp)
   1203c:	00000513          	addi	a0,zero,0
   12040:	02010113          	addi	sp,sp,32
   12044:	00008067          	jalr	zero,0(ra)
   12048:	408005b3          	sub	a1,zero,s0
   1204c:	00098513          	addi	a0,s3,0
   12050:	189040ef          	jal	ra,169d8 <_sbrk_r>
   12054:	fff00793          	addi	a5,zero,-1
   12058:	04f50663          	beq	a0,a5,120a4 <_malloc_trim_r+0xf4>
   1205c:	00114737          	lui	a4,0x114
   12060:	00892683          	lw	a3,8(s2)
   12064:	97872783          	lw	a5,-1672(a4) # 113978 <__malloc_current_mallinfo>
   12068:	408484b3          	sub	s1,s1,s0
   1206c:	0014e493          	ori	s1,s1,1
   12070:	00098513          	addi	a0,s3,0
   12074:	408787b3          	sub	a5,a5,s0
   12078:	0096a223          	sw	s1,4(a3)
   1207c:	96f72c23          	sw	a5,-1672(a4)
   12080:	3c9000ef          	jal	ra,12c48 <__malloc_unlock>
   12084:	01c12083          	lw	ra,28(sp)
   12088:	01812403          	lw	s0,24(sp)
   1208c:	01412483          	lw	s1,20(sp)
   12090:	01012903          	lw	s2,16(sp)
   12094:	00c12983          	lw	s3,12(sp)
   12098:	00100513          	addi	a0,zero,1
   1209c:	02010113          	addi	sp,sp,32
   120a0:	00008067          	jalr	zero,0(ra)
   120a4:	00000593          	addi	a1,zero,0
   120a8:	00098513          	addi	a0,s3,0
   120ac:	12d040ef          	jal	ra,169d8 <_sbrk_r>
   120b0:	00892703          	lw	a4,8(s2)
   120b4:	00f00693          	addi	a3,zero,15
   120b8:	40e507b3          	sub	a5,a0,a4
   120bc:	f6f6d2e3          	bge	a3,a5,12020 <_malloc_trim_r+0x70>
   120c0:	8781a603          	lw	a2,-1928(gp) # 6fec8 <__malloc_sbrk_base>
   120c4:	0017e793          	ori	a5,a5,1
   120c8:	001146b7          	lui	a3,0x114
   120cc:	40c50533          	sub	a0,a0,a2
   120d0:	00f72223          	sw	a5,4(a4)
   120d4:	96a6ac23          	sw	a0,-1672(a3) # 113978 <__malloc_current_mallinfo>
   120d8:	f49ff06f          	jal	zero,12020 <_malloc_trim_r+0x70>

000120dc <_free_r>:
_free_r():
   120dc:	12058463          	beq	a1,zero,12204 <_free_r+0x128>
   120e0:	fe010113          	addi	sp,sp,-32
   120e4:	00812c23          	sw	s0,24(sp)
   120e8:	00b12623          	sw	a1,12(sp)
   120ec:	00050413          	addi	s0,a0,0
   120f0:	00112e23          	sw	ra,28(sp)
   120f4:	351000ef          	jal	ra,12c44 <__malloc_lock>
   120f8:	00c12583          	lw	a1,12(sp)
   120fc:	00070837          	lui	a6,0x70
   12100:	8d880813          	addi	a6,a6,-1832 # 6f8d8 <__malloc_av_>
   12104:	ffc5a503          	lw	a0,-4(a1)
   12108:	ff858713          	addi	a4,a1,-8
   1210c:	00882883          	lw	a7,8(a6)
   12110:	ffe57793          	andi	a5,a0,-2
   12114:	00f70633          	add	a2,a4,a5
   12118:	00462683          	lw	a3,4(a2)
   1211c:	00157313          	andi	t1,a0,1
   12120:	ffc6f693          	andi	a3,a3,-4
   12124:	18c88863          	beq	a7,a2,122b4 <_free_r+0x1d8>
   12128:	00d62223          	sw	a3,4(a2)
   1212c:	00d608b3          	add	a7,a2,a3
   12130:	0048a883          	lw	a7,4(a7)
   12134:	0018f893          	andi	a7,a7,1
   12138:	08031a63          	bne	t1,zero,121cc <_free_r+0xf0>
   1213c:	ff85a303          	lw	t1,-8(a1)
   12140:	000705b7          	lui	a1,0x70
   12144:	8e058593          	addi	a1,a1,-1824 # 6f8e0 <__malloc_av_+0x8>
   12148:	40670733          	sub	a4,a4,t1
   1214c:	00872503          	lw	a0,8(a4)
   12150:	006787b3          	add	a5,a5,t1
   12154:	12b50a63          	beq	a0,a1,12288 <_free_r+0x1ac>
   12158:	00c72303          	lw	t1,12(a4)
   1215c:	00652623          	sw	t1,12(a0)
   12160:	00a32423          	sw	a0,8(t1)
   12164:	18088c63          	beq	a7,zero,122fc <_free_r+0x220>
   12168:	0017e693          	ori	a3,a5,1
   1216c:	00d72223          	sw	a3,4(a4)
   12170:	00f62023          	sw	a5,0(a2)
   12174:	1ff00693          	addi	a3,zero,511
   12178:	0af6e263          	bltu	a3,a5,1221c <_free_r+0x140>
   1217c:	ff87f693          	andi	a3,a5,-8
   12180:	00868693          	addi	a3,a3,8
   12184:	00482583          	lw	a1,4(a6)
   12188:	00d806b3          	add	a3,a6,a3
   1218c:	0006a603          	lw	a2,0(a3)
   12190:	0057d513          	srli	a0,a5,0x5
   12194:	00100793          	addi	a5,zero,1
   12198:	00a797b3          	sll	a5,a5,a0
   1219c:	00b7e7b3          	or	a5,a5,a1
   121a0:	ff868593          	addi	a1,a3,-8
   121a4:	00c72423          	sw	a2,8(a4)
   121a8:	00b72623          	sw	a1,12(a4)
   121ac:	00f82223          	sw	a5,4(a6)
   121b0:	00e6a023          	sw	a4,0(a3)
   121b4:	00e62623          	sw	a4,12(a2)
   121b8:	00040513          	addi	a0,s0,0
   121bc:	01812403          	lw	s0,24(sp)
   121c0:	01c12083          	lw	ra,28(sp)
   121c4:	02010113          	addi	sp,sp,32
   121c8:	2810006f          	jal	zero,12c48 <__malloc_unlock>
   121cc:	02089e63          	bne	a7,zero,12208 <_free_r+0x12c>
   121d0:	000705b7          	lui	a1,0x70
   121d4:	00d787b3          	add	a5,a5,a3
   121d8:	8e058593          	addi	a1,a1,-1824 # 6f8e0 <__malloc_av_+0x8>
   121dc:	00862683          	lw	a3,8(a2)
   121e0:	0017e893          	ori	a7,a5,1
   121e4:	00f70533          	add	a0,a4,a5
   121e8:	16b68063          	beq	a3,a1,12348 <_free_r+0x26c>
   121ec:	00c62603          	lw	a2,12(a2)
   121f0:	00c6a623          	sw	a2,12(a3)
   121f4:	00d62423          	sw	a3,8(a2)
   121f8:	01172223          	sw	a7,4(a4)
   121fc:	00f52023          	sw	a5,0(a0)
   12200:	f75ff06f          	jal	zero,12174 <_free_r+0x98>
   12204:	00008067          	jalr	zero,0(ra)
   12208:	00156513          	ori	a0,a0,1
   1220c:	fea5ae23          	sw	a0,-4(a1)
   12210:	00f62023          	sw	a5,0(a2)
   12214:	1ff00693          	addi	a3,zero,511
   12218:	f6f6f2e3          	bgeu	a3,a5,1217c <_free_r+0xa0>
   1221c:	0097d693          	srli	a3,a5,0x9
   12220:	00400613          	addi	a2,zero,4
   12224:	0ed66063          	bltu	a2,a3,12304 <_free_r+0x228>
   12228:	0067d693          	srli	a3,a5,0x6
   1222c:	03968593          	addi	a1,a3,57
   12230:	00359593          	slli	a1,a1,0x3
   12234:	03868613          	addi	a2,a3,56
   12238:	00b805b3          	add	a1,a6,a1
   1223c:	0005a683          	lw	a3,0(a1)
   12240:	ff858593          	addi	a1,a1,-8
   12244:	00d59863          	bne	a1,a3,12254 <_free_r+0x178>
   12248:	11c0006f          	jal	zero,12364 <_free_r+0x288>
   1224c:	0086a683          	lw	a3,8(a3)
   12250:	00d58863          	beq	a1,a3,12260 <_free_r+0x184>
   12254:	0046a603          	lw	a2,4(a3)
   12258:	ffc67613          	andi	a2,a2,-4
   1225c:	fec7e8e3          	bltu	a5,a2,1224c <_free_r+0x170>
   12260:	00c6a583          	lw	a1,12(a3)
   12264:	00b72623          	sw	a1,12(a4)
   12268:	00d72423          	sw	a3,8(a4)
   1226c:	00040513          	addi	a0,s0,0
   12270:	01812403          	lw	s0,24(sp)
   12274:	01c12083          	lw	ra,28(sp)
   12278:	00e5a423          	sw	a4,8(a1)
   1227c:	00e6a623          	sw	a4,12(a3)
   12280:	02010113          	addi	sp,sp,32
   12284:	1c50006f          	jal	zero,12c48 <__malloc_unlock>
   12288:	0a089063          	bne	a7,zero,12328 <_free_r+0x24c>
   1228c:	00c62583          	lw	a1,12(a2)
   12290:	00862603          	lw	a2,8(a2)
   12294:	00f686b3          	add	a3,a3,a5
   12298:	0016e793          	ori	a5,a3,1
   1229c:	00b62623          	sw	a1,12(a2)
   122a0:	00c5a423          	sw	a2,8(a1)
   122a4:	00f72223          	sw	a5,4(a4)
   122a8:	00d70733          	add	a4,a4,a3
   122ac:	00d72023          	sw	a3,0(a4)
   122b0:	f09ff06f          	jal	zero,121b8 <_free_r+0xdc>
   122b4:	00d786b3          	add	a3,a5,a3
   122b8:	02031063          	bne	t1,zero,122d8 <_free_r+0x1fc>
   122bc:	ff85a783          	lw	a5,-8(a1)
   122c0:	40f70733          	sub	a4,a4,a5
   122c4:	00872603          	lw	a2,8(a4)
   122c8:	00f686b3          	add	a3,a3,a5
   122cc:	00c72783          	lw	a5,12(a4)
   122d0:	00f62623          	sw	a5,12(a2)
   122d4:	00c7a423          	sw	a2,8(a5)
   122d8:	0016e613          	ori	a2,a3,1
   122dc:	87c1a783          	lw	a5,-1924(gp) # 6fecc <__malloc_trim_threshold>
   122e0:	00c72223          	sw	a2,4(a4)
   122e4:	00e82423          	sw	a4,8(a6)
   122e8:	ecf6e8e3          	bltu	a3,a5,121b8 <_free_r+0xdc>
   122ec:	8981a583          	lw	a1,-1896(gp) # 6fee8 <__malloc_top_pad>
   122f0:	00040513          	addi	a0,s0,0
   122f4:	cbdff0ef          	jal	ra,11fb0 <_malloc_trim_r>
   122f8:	ec1ff06f          	jal	zero,121b8 <_free_r+0xdc>
   122fc:	00d787b3          	add	a5,a5,a3
   12300:	eddff06f          	jal	zero,121dc <_free_r+0x100>
   12304:	01400613          	addi	a2,zero,20
   12308:	02d67863          	bgeu	a2,a3,12338 <_free_r+0x25c>
   1230c:	05400613          	addi	a2,zero,84
   12310:	06d66863          	bltu	a2,a3,12380 <_free_r+0x2a4>
   12314:	00c7d693          	srli	a3,a5,0xc
   12318:	06f68593          	addi	a1,a3,111
   1231c:	00359593          	slli	a1,a1,0x3
   12320:	06e68613          	addi	a2,a3,110
   12324:	f15ff06f          	jal	zero,12238 <_free_r+0x15c>
   12328:	0017e693          	ori	a3,a5,1
   1232c:	00d72223          	sw	a3,4(a4)
   12330:	00f62023          	sw	a5,0(a2)
   12334:	e85ff06f          	jal	zero,121b8 <_free_r+0xdc>
   12338:	05c68593          	addi	a1,a3,92
   1233c:	00359593          	slli	a1,a1,0x3
   12340:	05b68613          	addi	a2,a3,91
   12344:	ef5ff06f          	jal	zero,12238 <_free_r+0x15c>
   12348:	00e82a23          	sw	a4,20(a6)
   1234c:	00e82823          	sw	a4,16(a6)
   12350:	00b72623          	sw	a1,12(a4)
   12354:	00b72423          	sw	a1,8(a4)
   12358:	01172223          	sw	a7,4(a4)
   1235c:	00f52023          	sw	a5,0(a0)
   12360:	e59ff06f          	jal	zero,121b8 <_free_r+0xdc>
   12364:	00482503          	lw	a0,4(a6)
   12368:	40265613          	srai	a2,a2,0x2
   1236c:	00100793          	addi	a5,zero,1
   12370:	00c797b3          	sll	a5,a5,a2
   12374:	00a7e7b3          	or	a5,a5,a0
   12378:	00f82223          	sw	a5,4(a6)
   1237c:	ee9ff06f          	jal	zero,12264 <_free_r+0x188>
   12380:	15400613          	addi	a2,zero,340
   12384:	00d66c63          	bltu	a2,a3,1239c <_free_r+0x2c0>
   12388:	00f7d693          	srli	a3,a5,0xf
   1238c:	07868593          	addi	a1,a3,120
   12390:	00359593          	slli	a1,a1,0x3
   12394:	07768613          	addi	a2,a3,119
   12398:	ea1ff06f          	jal	zero,12238 <_free_r+0x15c>
   1239c:	55400613          	addi	a2,zero,1364
   123a0:	00d66c63          	bltu	a2,a3,123b8 <_free_r+0x2dc>
   123a4:	0127d693          	srli	a3,a5,0x12
   123a8:	07d68593          	addi	a1,a3,125
   123ac:	00359593          	slli	a1,a1,0x3
   123b0:	07c68613          	addi	a2,a3,124
   123b4:	e85ff06f          	jal	zero,12238 <_free_r+0x15c>
   123b8:	3f800593          	addi	a1,zero,1016
   123bc:	07e00613          	addi	a2,zero,126
   123c0:	e79ff06f          	jal	zero,12238 <_free_r+0x15c>

000123c4 <_malloc_r>:
_malloc_r():
   123c4:	fc010113          	addi	sp,sp,-64
   123c8:	02812c23          	sw	s0,56(sp)
   123cc:	02112e23          	sw	ra,60(sp)
   123d0:	00b58793          	addi	a5,a1,11
   123d4:	01600713          	addi	a4,zero,22
   123d8:	00050413          	addi	s0,a0,0
   123dc:	08f76e63          	bltu	a4,a5,12478 <_malloc_r+0xb4>
   123e0:	01000693          	addi	a3,zero,16
   123e4:	06b6ec63          	bltu	a3,a1,1245c <_malloc_r+0x98>
   123e8:	05d000ef          	jal	ra,12c44 <__malloc_lock>
   123ec:	01000693          	addi	a3,zero,16
   123f0:	01800713          	addi	a4,zero,24
   123f4:	00200893          	addi	a7,zero,2
   123f8:	00070837          	lui	a6,0x70
   123fc:	8d880813          	addi	a6,a6,-1832 # 6f8d8 <__malloc_av_>
   12400:	00e80733          	add	a4,a6,a4
   12404:	00472783          	lw	a5,4(a4)
   12408:	ff870613          	addi	a2,a4,-8
   1240c:	44c78e63          	beq	a5,a2,12868 <_malloc_r+0x4a4>
   12410:	0047a703          	lw	a4,4(a5)
   12414:	00c7a603          	lw	a2,12(a5)
   12418:	0087a583          	lw	a1,8(a5)
   1241c:	ffc77713          	andi	a4,a4,-4
   12420:	00e78733          	add	a4,a5,a4
   12424:	00472683          	lw	a3,4(a4)
   12428:	00c5a623          	sw	a2,12(a1)
   1242c:	00f12623          	sw	a5,12(sp)
   12430:	00b62423          	sw	a1,8(a2)
   12434:	0016e693          	ori	a3,a3,1
   12438:	00040513          	addi	a0,s0,0
   1243c:	00d72223          	sw	a3,4(a4)
   12440:	009000ef          	jal	ra,12c48 <__malloc_unlock>
   12444:	00c12783          	lw	a5,12(sp)
   12448:	03c12083          	lw	ra,60(sp)
   1244c:	03812403          	lw	s0,56(sp)
   12450:	00878513          	addi	a0,a5,8
   12454:	04010113          	addi	sp,sp,64
   12458:	00008067          	jalr	zero,0(ra)
   1245c:	00c00793          	addi	a5,zero,12
   12460:	00f42023          	sw	a5,0(s0)
   12464:	00000513          	addi	a0,zero,0
   12468:	03c12083          	lw	ra,60(sp)
   1246c:	03812403          	lw	s0,56(sp)
   12470:	04010113          	addi	sp,sp,64
   12474:	00008067          	jalr	zero,0(ra)
   12478:	ff87f693          	andi	a3,a5,-8
   1247c:	fe07c0e3          	blt	a5,zero,1245c <_malloc_r+0x98>
   12480:	fcb6eee3          	bltu	a3,a1,1245c <_malloc_r+0x98>
   12484:	00d12623          	sw	a3,12(sp)
   12488:	7bc000ef          	jal	ra,12c44 <__malloc_lock>
   1248c:	00c12683          	lw	a3,12(sp)
   12490:	1f700793          	addi	a5,zero,503
   12494:	4cd7f863          	bgeu	a5,a3,12964 <_malloc_r+0x5a0>
   12498:	0096d793          	srli	a5,a3,0x9
   1249c:	16078e63          	beq	a5,zero,12618 <_malloc_r+0x254>
   124a0:	00400713          	addi	a4,zero,4
   124a4:	42f76a63          	bltu	a4,a5,128d8 <_malloc_r+0x514>
   124a8:	0066d793          	srli	a5,a3,0x6
   124ac:	03978893          	addi	a7,a5,57
   124b0:	03878e13          	addi	t3,a5,56
   124b4:	00389513          	slli	a0,a7,0x3
   124b8:	00070837          	lui	a6,0x70
   124bc:	8d880813          	addi	a6,a6,-1832 # 6f8d8 <__malloc_av_>
   124c0:	00a80533          	add	a0,a6,a0
   124c4:	00452783          	lw	a5,4(a0)
   124c8:	ff850513          	addi	a0,a0,-8
   124cc:	02f50863          	beq	a0,a5,124fc <_malloc_r+0x138>
   124d0:	00f00313          	addi	t1,zero,15
   124d4:	0140006f          	jal	zero,124e8 <_malloc_r+0x124>
   124d8:	00c7a583          	lw	a1,12(a5)
   124dc:	34065663          	bge	a2,zero,12828 <_malloc_r+0x464>
   124e0:	00b50e63          	beq	a0,a1,124fc <_malloc_r+0x138>
   124e4:	00058793          	addi	a5,a1,0
   124e8:	0047a703          	lw	a4,4(a5)
   124ec:	ffc77713          	andi	a4,a4,-4
   124f0:	40d70633          	sub	a2,a4,a3
   124f4:	fec352e3          	bge	t1,a2,124d8 <_malloc_r+0x114>
   124f8:	000e0893          	addi	a7,t3,0
   124fc:	01082783          	lw	a5,16(a6)
   12500:	00070e37          	lui	t3,0x70
   12504:	8e0e0e13          	addi	t3,t3,-1824 # 6f8e0 <__malloc_av_+0x8>
   12508:	2dc78e63          	beq	a5,t3,127e4 <_malloc_r+0x420>
   1250c:	0047a703          	lw	a4,4(a5)
   12510:	00f00593          	addi	a1,zero,15
   12514:	ffc77713          	andi	a4,a4,-4
   12518:	40d70633          	sub	a2,a4,a3
   1251c:	46c5ce63          	blt	a1,a2,12998 <_malloc_r+0x5d4>
   12520:	01c82a23          	sw	t3,20(a6)
   12524:	01c82823          	sw	t3,16(a6)
   12528:	44065463          	bge	a2,zero,12970 <_malloc_r+0x5ac>
   1252c:	1ff00613          	addi	a2,zero,511
   12530:	00482303          	lw	t1,4(a6)
   12534:	34e66263          	bltu	a2,a4,12878 <_malloc_r+0x4b4>
   12538:	ff877613          	andi	a2,a4,-8
   1253c:	00860613          	addi	a2,a2,8
   12540:	00c80633          	add	a2,a6,a2
   12544:	00062583          	lw	a1,0(a2)
   12548:	00575513          	srli	a0,a4,0x5
   1254c:	00100713          	addi	a4,zero,1
   12550:	00a71733          	sll	a4,a4,a0
   12554:	00e36333          	or	t1,t1,a4
   12558:	ff860713          	addi	a4,a2,-8
   1255c:	00b7a423          	sw	a1,8(a5)
   12560:	00e7a623          	sw	a4,12(a5)
   12564:	00682223          	sw	t1,4(a6)
   12568:	00f62023          	sw	a5,0(a2)
   1256c:	00f5a623          	sw	a5,12(a1)
   12570:	4028d793          	srai	a5,a7,0x2
   12574:	00100513          	addi	a0,zero,1
   12578:	00f51533          	sll	a0,a0,a5
   1257c:	0aa36663          	bltu	t1,a0,12628 <_malloc_r+0x264>
   12580:	006577b3          	and	a5,a0,t1
   12584:	02079463          	bne	a5,zero,125ac <_malloc_r+0x1e8>
   12588:	00151513          	slli	a0,a0,0x1
   1258c:	ffc8f893          	andi	a7,a7,-4
   12590:	006577b3          	and	a5,a0,t1
   12594:	00488893          	addi	a7,a7,4
   12598:	00079a63          	bne	a5,zero,125ac <_malloc_r+0x1e8>
   1259c:	00151513          	slli	a0,a0,0x1
   125a0:	006577b3          	and	a5,a0,t1
   125a4:	00488893          	addi	a7,a7,4
   125a8:	fe078ae3          	beq	a5,zero,1259c <_malloc_r+0x1d8>
   125ac:	00f00e93          	addi	t4,zero,15
   125b0:	00389f13          	slli	t5,a7,0x3
   125b4:	01e80f33          	add	t5,a6,t5
   125b8:	000f0313          	addi	t1,t5,0
   125bc:	00c32703          	lw	a4,12(t1)
   125c0:	00088f93          	addi	t6,a7,0
   125c4:	32e30c63          	beq	t1,a4,128fc <_malloc_r+0x538>
   125c8:	00472603          	lw	a2,4(a4)
   125cc:	00070793          	addi	a5,a4,0
   125d0:	00c72703          	lw	a4,12(a4)
   125d4:	ffc67613          	andi	a2,a2,-4
   125d8:	40d605b3          	sub	a1,a2,a3
   125dc:	32becc63          	blt	t4,a1,12914 <_malloc_r+0x550>
   125e0:	fe05c2e3          	blt	a1,zero,125c4 <_malloc_r+0x200>
   125e4:	00c78633          	add	a2,a5,a2
   125e8:	00462683          	lw	a3,4(a2)
   125ec:	0087a583          	lw	a1,8(a5)
   125f0:	00040513          	addi	a0,s0,0
   125f4:	0016e693          	ori	a3,a3,1
   125f8:	00d62223          	sw	a3,4(a2)
   125fc:	00e5a623          	sw	a4,12(a1)
   12600:	00b72423          	sw	a1,8(a4)
   12604:	00f12623          	sw	a5,12(sp)
   12608:	640000ef          	jal	ra,12c48 <__malloc_unlock>
   1260c:	00c12783          	lw	a5,12(sp)
   12610:	00878513          	addi	a0,a5,8
   12614:	e55ff06f          	jal	zero,12468 <_malloc_r+0xa4>
   12618:	20000513          	addi	a0,zero,512
   1261c:	04000893          	addi	a7,zero,64
   12620:	03f00e13          	addi	t3,zero,63
   12624:	e95ff06f          	jal	zero,124b8 <_malloc_r+0xf4>
   12628:	00882783          	lw	a5,8(a6)
   1262c:	0047a703          	lw	a4,4(a5)
   12630:	ffc77713          	andi	a4,a4,-4
   12634:	40d70633          	sub	a2,a4,a3
   12638:	00d76663          	bltu	a4,a3,12644 <_malloc_r+0x280>
   1263c:	01062593          	slti	a1,a2,16
   12640:	1a058663          	beq	a1,zero,127ec <_malloc_r+0x428>
   12644:	8981a583          	lw	a1,-1896(gp) # 6fee8 <__malloc_top_pad>
   12648:	8781a503          	lw	a0,-1928(gp) # 6fec8 <__malloc_sbrk_base>
   1264c:	fff00613          	addi	a2,zero,-1
   12650:	00b685b3          	add	a1,a3,a1
   12654:	42c50663          	beq	a0,a2,12a80 <_malloc_r+0x6bc>
   12658:	00001637          	lui	a2,0x1
   1265c:	00f60613          	addi	a2,a2,15 # 100f <exit-0xf0a5>
   12660:	00c585b3          	add	a1,a1,a2
   12664:	fffff637          	lui	a2,0xfffff
   12668:	00c5f5b3          	and	a1,a1,a2
   1266c:	00040513          	addi	a0,s0,0
   12670:	01012e23          	sw	a6,28(sp)
   12674:	00f12c23          	sw	a5,24(sp)
   12678:	00d12a23          	sw	a3,20(sp)
   1267c:	00e12823          	sw	a4,16(sp)
   12680:	00b12623          	sw	a1,12(sp)
   12684:	354040ef          	jal	ra,169d8 <_sbrk_r>
   12688:	fff00613          	addi	a2,zero,-1
   1268c:	00c12583          	lw	a1,12(sp)
   12690:	01012703          	lw	a4,16(sp)
   12694:	01412683          	lw	a3,20(sp)
   12698:	01812783          	lw	a5,24(sp)
   1269c:	01c12803          	lw	a6,28(sp)
   126a0:	00050893          	addi	a7,a0,0
   126a4:	34c50863          	beq	a0,a2,129f4 <_malloc_r+0x630>
   126a8:	00e78533          	add	a0,a5,a4
   126ac:	34a8e263          	bltu	a7,a0,129f0 <_malloc_r+0x62c>
   126b0:	00114e37          	lui	t3,0x114
   126b4:	978e0e13          	addi	t3,t3,-1672 # 113978 <__malloc_current_mallinfo>
   126b8:	000e2603          	lw	a2,0(t3)
   126bc:	00c58633          	add	a2,a1,a2
   126c0:	00ce2023          	sw	a2,0(t3)
   126c4:	00060e93          	addi	t4,a2,0 # fffff000 <__BSS_END__+0xffeeb4d0>
   126c8:	49150863          	beq	a0,a7,12b58 <_malloc_r+0x794>
   126cc:	8781af03          	lw	t5,-1928(gp) # 6fec8 <__malloc_sbrk_base>
   126d0:	fff00613          	addi	a2,zero,-1
   126d4:	4acf0063          	beq	t5,a2,12b74 <_malloc_r+0x7b0>
   126d8:	40a88633          	sub	a2,a7,a0
   126dc:	01d60633          	add	a2,a2,t4
   126e0:	00ce2023          	sw	a2,0(t3)
   126e4:	0078fe93          	andi	t4,a7,7
   126e8:	3a0e8c63          	beq	t4,zero,12aa0 <_malloc_r+0x6dc>
   126ec:	ff88f893          	andi	a7,a7,-8
   126f0:	00001637          	lui	a2,0x1
   126f4:	00888893          	addi	a7,a7,8
   126f8:	00860613          	addi	a2,a2,8 # 1008 <exit-0xf0ac>
   126fc:	00b88333          	add	t1,a7,a1
   12700:	41d60633          	sub	a2,a2,t4
   12704:	40660633          	sub	a2,a2,t1
   12708:	01461613          	slli	a2,a2,0x14
   1270c:	01465593          	srli	a1,a2,0x14
   12710:	00040513          	addi	a0,s0,0
   12714:	03012623          	sw	a6,44(sp)
   12718:	03c12423          	sw	t3,40(sp)
   1271c:	02f12223          	sw	a5,36(sp)
   12720:	02d12023          	sw	a3,32(sp)
   12724:	00e12e23          	sw	a4,28(sp)
   12728:	01112c23          	sw	a7,24(sp)
   1272c:	01d12a23          	sw	t4,20(sp)
   12730:	00612823          	sw	t1,16(sp)
   12734:	00b12623          	sw	a1,12(sp)
   12738:	2a0040ef          	jal	ra,169d8 <_sbrk_r>
   1273c:	fff00613          	addi	a2,zero,-1
   12740:	00c12583          	lw	a1,12(sp)
   12744:	01012303          	lw	t1,16(sp)
   12748:	01412e83          	lw	t4,20(sp)
   1274c:	01812883          	lw	a7,24(sp)
   12750:	01c12703          	lw	a4,28(sp)
   12754:	02012683          	lw	a3,32(sp)
   12758:	02412783          	lw	a5,36(sp)
   1275c:	02812e03          	lw	t3,40(sp)
   12760:	02c12803          	lw	a6,44(sp)
   12764:	44c50e63          	beq	a0,a2,12bc0 <_malloc_r+0x7fc>
   12768:	000e2603          	lw	a2,0(t3)
   1276c:	41150533          	sub	a0,a0,a7
   12770:	00b50533          	add	a0,a0,a1
   12774:	00156513          	ori	a0,a0,1
   12778:	01182423          	sw	a7,8(a6)
   1277c:	00c58633          	add	a2,a1,a2
   12780:	00a8a223          	sw	a0,4(a7)
   12784:	00ce2023          	sw	a2,0(t3)
   12788:	03078e63          	beq	a5,a6,127c4 <_malloc_r+0x400>
   1278c:	00f00513          	addi	a0,zero,15
   12790:	3ee57663          	bgeu	a0,a4,12b7c <_malloc_r+0x7b8>
   12794:	0047a583          	lw	a1,4(a5)
   12798:	ff470713          	addi	a4,a4,-12
   1279c:	ff877713          	andi	a4,a4,-8
   127a0:	0015f593          	andi	a1,a1,1
   127a4:	00e5e5b3          	or	a1,a1,a4
   127a8:	00b7a223          	sw	a1,4(a5)
   127ac:	00500313          	addi	t1,zero,5
   127b0:	00e785b3          	add	a1,a5,a4
   127b4:	0065a223          	sw	t1,4(a1)
   127b8:	0065a423          	sw	t1,8(a1)
   127bc:	40e56a63          	bltu	a0,a4,12bd0 <_malloc_r+0x80c>
   127c0:	0048a503          	lw	a0,4(a7)
   127c4:	8941a703          	lw	a4,-1900(gp) # 6fee4 <__malloc_max_sbrked_mem>
   127c8:	00c77463          	bgeu	a4,a2,127d0 <_malloc_r+0x40c>
   127cc:	88c1aa23          	sw	a2,-1900(gp) # 6fee4 <__malloc_max_sbrked_mem>
   127d0:	8901a703          	lw	a4,-1904(gp) # 6fee0 <__malloc_max_total_mem>
   127d4:	00c77463          	bgeu	a4,a2,127dc <_malloc_r+0x418>
   127d8:	88c1a823          	sw	a2,-1904(gp) # 6fee0 <__malloc_max_total_mem>
   127dc:	00088793          	addi	a5,a7,0
   127e0:	21c0006f          	jal	zero,129fc <_malloc_r+0x638>
   127e4:	00482303          	lw	t1,4(a6)
   127e8:	d89ff06f          	jal	zero,12570 <_malloc_r+0x1ac>
   127ec:	0016e713          	ori	a4,a3,1
   127f0:	00e7a223          	sw	a4,4(a5)
   127f4:	00d786b3          	add	a3,a5,a3
   127f8:	00166613          	ori	a2,a2,1
   127fc:	00d82423          	sw	a3,8(a6)
   12800:	00040513          	addi	a0,s0,0
   12804:	00c6a223          	sw	a2,4(a3)
   12808:	00f12623          	sw	a5,12(sp)
   1280c:	43c000ef          	jal	ra,12c48 <__malloc_unlock>
   12810:	00c12783          	lw	a5,12(sp)
   12814:	03c12083          	lw	ra,60(sp)
   12818:	03812403          	lw	s0,56(sp)
   1281c:	00878513          	addi	a0,a5,8
   12820:	04010113          	addi	sp,sp,64
   12824:	00008067          	jalr	zero,0(ra)
   12828:	0087a603          	lw	a2,8(a5)
   1282c:	00e78733          	add	a4,a5,a4
   12830:	00472683          	lw	a3,4(a4)
   12834:	00b62623          	sw	a1,12(a2)
   12838:	00f12623          	sw	a5,12(sp)
   1283c:	0016e693          	ori	a3,a3,1
   12840:	00c5a423          	sw	a2,8(a1)
   12844:	00040513          	addi	a0,s0,0
   12848:	00d72223          	sw	a3,4(a4)
   1284c:	3fc000ef          	jal	ra,12c48 <__malloc_unlock>
   12850:	00c12783          	lw	a5,12(sp)
   12854:	03c12083          	lw	ra,60(sp)
   12858:	03812403          	lw	s0,56(sp)
   1285c:	00878513          	addi	a0,a5,8
   12860:	04010113          	addi	sp,sp,64
   12864:	00008067          	jalr	zero,0(ra)
   12868:	00c72783          	lw	a5,12(a4)
   1286c:	00288893          	addi	a7,a7,2
   12870:	c8f706e3          	beq	a4,a5,124fc <_malloc_r+0x138>
   12874:	b9dff06f          	jal	zero,12410 <_malloc_r+0x4c>
   12878:	00975613          	srli	a2,a4,0x9
   1287c:	00400593          	addi	a1,zero,4
   12880:	14c5fe63          	bgeu	a1,a2,129dc <_malloc_r+0x618>
   12884:	01400593          	addi	a1,zero,20
   12888:	28c5e063          	bltu	a1,a2,12b08 <_malloc_r+0x744>
   1288c:	05c60513          	addi	a0,a2,92
   12890:	00351513          	slli	a0,a0,0x3
   12894:	05b60593          	addi	a1,a2,91
   12898:	00a80533          	add	a0,a6,a0
   1289c:	00052603          	lw	a2,0(a0)
   128a0:	ff850513          	addi	a0,a0,-8
   128a4:	00c51863          	bne	a0,a2,128b4 <_malloc_r+0x4f0>
   128a8:	1e00006f          	jal	zero,12a88 <_malloc_r+0x6c4>
   128ac:	00862603          	lw	a2,8(a2)
   128b0:	00c50863          	beq	a0,a2,128c0 <_malloc_r+0x4fc>
   128b4:	00462583          	lw	a1,4(a2)
   128b8:	ffc5f593          	andi	a1,a1,-4
   128bc:	feb768e3          	bltu	a4,a1,128ac <_malloc_r+0x4e8>
   128c0:	00c62503          	lw	a0,12(a2)
   128c4:	00a7a623          	sw	a0,12(a5)
   128c8:	00c7a423          	sw	a2,8(a5)
   128cc:	00f52423          	sw	a5,8(a0)
   128d0:	00f62623          	sw	a5,12(a2)
   128d4:	c9dff06f          	jal	zero,12570 <_malloc_r+0x1ac>
   128d8:	01400713          	addi	a4,zero,20
   128dc:	14f77063          	bgeu	a4,a5,12a1c <_malloc_r+0x658>
   128e0:	05400713          	addi	a4,zero,84
   128e4:	24f76063          	bltu	a4,a5,12b24 <_malloc_r+0x760>
   128e8:	00c6d793          	srli	a5,a3,0xc
   128ec:	06f78893          	addi	a7,a5,111
   128f0:	06e78e13          	addi	t3,a5,110
   128f4:	00389513          	slli	a0,a7,0x3
   128f8:	bc1ff06f          	jal	zero,124b8 <_malloc_r+0xf4>
   128fc:	001f8f93          	addi	t6,t6,1
   12900:	003ff793          	andi	a5,t6,3
   12904:	00830313          	addi	t1,t1,8
   12908:	12078863          	beq	a5,zero,12a38 <_malloc_r+0x674>
   1290c:	00c32703          	lw	a4,12(t1)
   12910:	cb5ff06f          	jal	zero,125c4 <_malloc_r+0x200>
   12914:	0087a503          	lw	a0,8(a5)
   12918:	0016e893          	ori	a7,a3,1
   1291c:	0117a223          	sw	a7,4(a5)
   12920:	00e52623          	sw	a4,12(a0)
   12924:	00a72423          	sw	a0,8(a4)
   12928:	00d786b3          	add	a3,a5,a3
   1292c:	00d82a23          	sw	a3,20(a6)
   12930:	00d82823          	sw	a3,16(a6)
   12934:	0015e713          	ori	a4,a1,1
   12938:	00c78633          	add	a2,a5,a2
   1293c:	01c6a623          	sw	t3,12(a3)
   12940:	01c6a423          	sw	t3,8(a3)
   12944:	00e6a223          	sw	a4,4(a3)
   12948:	00040513          	addi	a0,s0,0
   1294c:	00b62023          	sw	a1,0(a2)
   12950:	00f12623          	sw	a5,12(sp)
   12954:	2f4000ef          	jal	ra,12c48 <__malloc_unlock>
   12958:	00c12783          	lw	a5,12(sp)
   1295c:	00878513          	addi	a0,a5,8
   12960:	b09ff06f          	jal	zero,12468 <_malloc_r+0xa4>
   12964:	0036d893          	srli	a7,a3,0x3
   12968:	00868713          	addi	a4,a3,8
   1296c:	a8dff06f          	jal	zero,123f8 <_malloc_r+0x34>
   12970:	00e78733          	add	a4,a5,a4
   12974:	00472683          	lw	a3,4(a4)
   12978:	00f12623          	sw	a5,12(sp)
   1297c:	00040513          	addi	a0,s0,0
   12980:	0016e693          	ori	a3,a3,1
   12984:	00d72223          	sw	a3,4(a4)
   12988:	2c0000ef          	jal	ra,12c48 <__malloc_unlock>
   1298c:	00c12783          	lw	a5,12(sp)
   12990:	00878513          	addi	a0,a5,8
   12994:	ad5ff06f          	jal	zero,12468 <_malloc_r+0xa4>
   12998:	0016e593          	ori	a1,a3,1
   1299c:	00b7a223          	sw	a1,4(a5)
   129a0:	00d786b3          	add	a3,a5,a3
   129a4:	00d82a23          	sw	a3,20(a6)
   129a8:	00d82823          	sw	a3,16(a6)
   129ac:	00166593          	ori	a1,a2,1
   129b0:	00e78733          	add	a4,a5,a4
   129b4:	01c6a623          	sw	t3,12(a3)
   129b8:	01c6a423          	sw	t3,8(a3)
   129bc:	00b6a223          	sw	a1,4(a3)
   129c0:	00040513          	addi	a0,s0,0
   129c4:	00c72023          	sw	a2,0(a4)
   129c8:	00f12623          	sw	a5,12(sp)
   129cc:	27c000ef          	jal	ra,12c48 <__malloc_unlock>
   129d0:	00c12783          	lw	a5,12(sp)
   129d4:	00878513          	addi	a0,a5,8
   129d8:	a91ff06f          	jal	zero,12468 <_malloc_r+0xa4>
   129dc:	00675613          	srli	a2,a4,0x6
   129e0:	03960513          	addi	a0,a2,57
   129e4:	00351513          	slli	a0,a0,0x3
   129e8:	03860593          	addi	a1,a2,56
   129ec:	eadff06f          	jal	zero,12898 <_malloc_r+0x4d4>
   129f0:	15078863          	beq	a5,a6,12b40 <_malloc_r+0x77c>
   129f4:	00882783          	lw	a5,8(a6)
   129f8:	0047a503          	lw	a0,4(a5)
   129fc:	ffc57513          	andi	a0,a0,-4
   12a00:	40d50633          	sub	a2,a0,a3
   12a04:	00d56663          	bltu	a0,a3,12a10 <_malloc_r+0x64c>
   12a08:	01062713          	slti	a4,a2,16
   12a0c:	de0700e3          	beq	a4,zero,127ec <_malloc_r+0x428>
   12a10:	00040513          	addi	a0,s0,0
   12a14:	234000ef          	jal	ra,12c48 <__malloc_unlock>
   12a18:	a4dff06f          	jal	zero,12464 <_malloc_r+0xa0>
   12a1c:	05c78893          	addi	a7,a5,92
   12a20:	05b78e13          	addi	t3,a5,91
   12a24:	00389513          	slli	a0,a7,0x3
   12a28:	a91ff06f          	jal	zero,124b8 <_malloc_r+0xf4>
   12a2c:	008f2783          	lw	a5,8(t5)
   12a30:	fff88893          	addi	a7,a7,-1
   12a34:	21e79463          	bne	a5,t5,12c3c <_malloc_r+0x878>
   12a38:	0038f793          	andi	a5,a7,3
   12a3c:	ff8f0f13          	addi	t5,t5,-8
   12a40:	fe0796e3          	bne	a5,zero,12a2c <_malloc_r+0x668>
   12a44:	00482703          	lw	a4,4(a6)
   12a48:	fff54793          	xori	a5,a0,-1
   12a4c:	00e7f7b3          	and	a5,a5,a4
   12a50:	00f82223          	sw	a5,4(a6)
   12a54:	00151513          	slli	a0,a0,0x1
   12a58:	fff50713          	addi	a4,a0,-1
   12a5c:	bcf776e3          	bgeu	a4,a5,12628 <_malloc_r+0x264>
   12a60:	00f57733          	and	a4,a0,a5
   12a64:	00071a63          	bne	a4,zero,12a78 <_malloc_r+0x6b4>
   12a68:	00151513          	slli	a0,a0,0x1
   12a6c:	00f57733          	and	a4,a0,a5
   12a70:	004f8f93          	addi	t6,t6,4
   12a74:	fe070ae3          	beq	a4,zero,12a68 <_malloc_r+0x6a4>
   12a78:	000f8893          	addi	a7,t6,0
   12a7c:	b35ff06f          	jal	zero,125b0 <_malloc_r+0x1ec>
   12a80:	01058593          	addi	a1,a1,16
   12a84:	be9ff06f          	jal	zero,1266c <_malloc_r+0x2a8>
   12a88:	4025d593          	srai	a1,a1,0x2
   12a8c:	00100713          	addi	a4,zero,1
   12a90:	00b71733          	sll	a4,a4,a1
   12a94:	00e36333          	or	t1,t1,a4
   12a98:	00682223          	sw	t1,4(a6)
   12a9c:	e29ff06f          	jal	zero,128c4 <_malloc_r+0x500>
   12aa0:	00b88333          	add	t1,a7,a1
   12aa4:	40600633          	sub	a2,zero,t1
   12aa8:	01461613          	slli	a2,a2,0x14
   12aac:	01465593          	srli	a1,a2,0x14
   12ab0:	00040513          	addi	a0,s0,0
   12ab4:	03012423          	sw	a6,40(sp)
   12ab8:	03c12223          	sw	t3,36(sp)
   12abc:	02f12023          	sw	a5,32(sp)
   12ac0:	00d12e23          	sw	a3,28(sp)
   12ac4:	00e12c23          	sw	a4,24(sp)
   12ac8:	01112a23          	sw	a7,20(sp)
   12acc:	00b12623          	sw	a1,12(sp)
   12ad0:	00612823          	sw	t1,16(sp)
   12ad4:	705030ef          	jal	ra,169d8 <_sbrk_r>
   12ad8:	fff00613          	addi	a2,zero,-1
   12adc:	00c12583          	lw	a1,12(sp)
   12ae0:	01412883          	lw	a7,20(sp)
   12ae4:	01812703          	lw	a4,24(sp)
   12ae8:	01c12683          	lw	a3,28(sp)
   12aec:	02012783          	lw	a5,32(sp)
   12af0:	02412e03          	lw	t3,36(sp)
   12af4:	02812803          	lw	a6,40(sp)
   12af8:	c6c518e3          	bne	a0,a2,12768 <_malloc_r+0x3a4>
   12afc:	01012503          	lw	a0,16(sp)
   12b00:	00000593          	addi	a1,zero,0
   12b04:	c65ff06f          	jal	zero,12768 <_malloc_r+0x3a4>
   12b08:	05400593          	addi	a1,zero,84
   12b0c:	06c5ee63          	bltu	a1,a2,12b88 <_malloc_r+0x7c4>
   12b10:	00c75613          	srli	a2,a4,0xc
   12b14:	06f60513          	addi	a0,a2,111
   12b18:	00351513          	slli	a0,a0,0x3
   12b1c:	06e60593          	addi	a1,a2,110
   12b20:	d79ff06f          	jal	zero,12898 <_malloc_r+0x4d4>
   12b24:	15400713          	addi	a4,zero,340
   12b28:	06f76e63          	bltu	a4,a5,12ba4 <_malloc_r+0x7e0>
   12b2c:	00f6d793          	srli	a5,a3,0xf
   12b30:	07878893          	addi	a7,a5,120
   12b34:	07778e13          	addi	t3,a5,119
   12b38:	00389513          	slli	a0,a7,0x3
   12b3c:	97dff06f          	jal	zero,124b8 <_malloc_r+0xf4>
   12b40:	00114e37          	lui	t3,0x114
   12b44:	978e0e13          	addi	t3,t3,-1672 # 113978 <__malloc_current_mallinfo>
   12b48:	000e2e83          	lw	t4,0(t3)
   12b4c:	01d58eb3          	add	t4,a1,t4
   12b50:	01de2023          	sw	t4,0(t3)
   12b54:	b79ff06f          	jal	zero,126cc <_malloc_r+0x308>
   12b58:	01489f13          	slli	t5,a7,0x14
   12b5c:	b60f18e3          	bne	t5,zero,126cc <_malloc_r+0x308>
   12b60:	00882883          	lw	a7,8(a6)
   12b64:	00b705b3          	add	a1,a4,a1
   12b68:	0015e513          	ori	a0,a1,1
   12b6c:	00a8a223          	sw	a0,4(a7)
   12b70:	c55ff06f          	jal	zero,127c4 <_malloc_r+0x400>
   12b74:	8711ac23          	sw	a7,-1928(gp) # 6fec8 <__malloc_sbrk_base>
   12b78:	b6dff06f          	jal	zero,126e4 <_malloc_r+0x320>
   12b7c:	00100793          	addi	a5,zero,1
   12b80:	00f8a223          	sw	a5,4(a7)
   12b84:	e8dff06f          	jal	zero,12a10 <_malloc_r+0x64c>
   12b88:	15400593          	addi	a1,zero,340
   12b8c:	06c5ec63          	bltu	a1,a2,12c04 <_malloc_r+0x840>
   12b90:	00f75613          	srli	a2,a4,0xf
   12b94:	07860513          	addi	a0,a2,120
   12b98:	00351513          	slli	a0,a0,0x3
   12b9c:	07760593          	addi	a1,a2,119
   12ba0:	cf9ff06f          	jal	zero,12898 <_malloc_r+0x4d4>
   12ba4:	55400713          	addi	a4,zero,1364
   12ba8:	06f76c63          	bltu	a4,a5,12c20 <_malloc_r+0x85c>
   12bac:	0126d793          	srli	a5,a3,0x12
   12bb0:	07d78893          	addi	a7,a5,125
   12bb4:	07c78e13          	addi	t3,a5,124
   12bb8:	00389513          	slli	a0,a7,0x3
   12bbc:	8fdff06f          	jal	zero,124b8 <_malloc_r+0xf4>
   12bc0:	ff8e8e93          	addi	t4,t4,-8
   12bc4:	01d30533          	add	a0,t1,t4
   12bc8:	00000593          	addi	a1,zero,0
   12bcc:	b9dff06f          	jal	zero,12768 <_malloc_r+0x3a4>
   12bd0:	00040513          	addi	a0,s0,0
   12bd4:	00878593          	addi	a1,a5,8
   12bd8:	01012a23          	sw	a6,20(sp)
   12bdc:	01c12823          	sw	t3,16(sp)
   12be0:	00d12623          	sw	a3,12(sp)
   12be4:	cf8ff0ef          	jal	ra,120dc <_free_r>
   12be8:	01412803          	lw	a6,20(sp)
   12bec:	01012e03          	lw	t3,16(sp)
   12bf0:	00c12683          	lw	a3,12(sp)
   12bf4:	00882883          	lw	a7,8(a6)
   12bf8:	000e2603          	lw	a2,0(t3)
   12bfc:	0048a503          	lw	a0,4(a7)
   12c00:	bc5ff06f          	jal	zero,127c4 <_malloc_r+0x400>
   12c04:	55400593          	addi	a1,zero,1364
   12c08:	02c5e463          	bltu	a1,a2,12c30 <_malloc_r+0x86c>
   12c0c:	01275613          	srli	a2,a4,0x12
   12c10:	07d60513          	addi	a0,a2,125
   12c14:	00351513          	slli	a0,a0,0x3
   12c18:	07c60593          	addi	a1,a2,124
   12c1c:	c7dff06f          	jal	zero,12898 <_malloc_r+0x4d4>
   12c20:	3f800513          	addi	a0,zero,1016
   12c24:	07f00893          	addi	a7,zero,127
   12c28:	07e00e13          	addi	t3,zero,126
   12c2c:	88dff06f          	jal	zero,124b8 <_malloc_r+0xf4>
   12c30:	3f800513          	addi	a0,zero,1016
   12c34:	07e00593          	addi	a1,zero,126
   12c38:	c61ff06f          	jal	zero,12898 <_malloc_r+0x4d4>
   12c3c:	00482783          	lw	a5,4(a6)
   12c40:	e15ff06f          	jal	zero,12a54 <_malloc_r+0x690>

00012c44 <__malloc_lock>:
__malloc_lock():
   12c44:	00008067          	jalr	zero,0(ra)

00012c48 <__malloc_unlock>:
__malloc_unlock():
   12c48:	00008067          	jalr	zero,0(ra)

00012c4c <_vfprintf_r>:
_vfprintf_r():
   12c4c:	e4010113          	addi	sp,sp,-448
   12c50:	1a112e23          	sw	ra,444(sp)
   12c54:	1a912a23          	sw	s1,436(sp)
   12c58:	1b212823          	sw	s2,432(sp)
   12c5c:	19a12823          	sw	s10,400(sp)
   12c60:	00d12623          	sw	a3,12(sp)
   12c64:	00060d13          	addi	s10,a2,0
   12c68:	00058493          	addi	s1,a1,0
   12c6c:	00050913          	addi	s2,a0,0
   12c70:	551030ef          	jal	ra,169c0 <_localeconv_r>
   12c74:	00052783          	lw	a5,0(a0)
   12c78:	00078513          	addi	a0,a5,0
   12c7c:	02f12423          	sw	a5,40(sp)
   12c80:	060040ef          	jal	ra,16ce0 <strlen>
   12c84:	02a12223          	sw	a0,36(sp)
   12c88:	0c012023          	sw	zero,192(sp)
   12c8c:	00090863          	beq	s2,zero,12c9c <_vfprintf_r+0x50>
   12c90:	03492783          	lw	a5,52(s2)
   12c94:	00079463          	bne	a5,zero,12c9c <_vfprintf_r+0x50>
   12c98:	5c90106f          	jal	zero,14a60 <_vfprintf_r+0x1e14>
   12c9c:	00c49783          	lh	a5,12(s1)
   12ca0:	0644a703          	lw	a4,100(s1)
   12ca4:	00002637          	lui	a2,0x2
   12ca8:	01279693          	slli	a3,a5,0x12
   12cac:	3606c463          	blt	a3,zero,13014 <_vfprintf_r+0x3c8>
   12cb0:	ffffe6b7          	lui	a3,0xffffe
   12cb4:	00c7e7b3          	or	a5,a5,a2
   12cb8:	fff68693          	addi	a3,a3,-1 # ffffdfff <__BSS_END__+0xffeea4cf>
   12cbc:	00d77733          	and	a4,a4,a3
   12cc0:	00f49623          	sh	a5,12(s1)
   12cc4:	01079793          	slli	a5,a5,0x10
   12cc8:	4107d793          	srai	a5,a5,0x10
   12ccc:	06e4a223          	sw	a4,100(s1)
   12cd0:	0087f713          	andi	a4,a5,8
   12cd4:	2c070463          	beq	a4,zero,12f9c <_vfprintf_r+0x350>
   12cd8:	0104a703          	lw	a4,16(s1)
   12cdc:	2c070063          	beq	a4,zero,12f9c <_vfprintf_r+0x350>
   12ce0:	01a7f793          	andi	a5,a5,26
   12ce4:	00a00713          	addi	a4,zero,10
   12ce8:	2ce78a63          	beq	a5,a4,12fbc <_vfprintf_r+0x370>
   12cec:	0006e7b7          	lui	a5,0x6e
   12cf0:	1b312623          	sw	s3,428(sp)
   12cf4:	1b412423          	sw	s4,424(sp)
   12cf8:	0dc10993          	addi	s3,sp,220
   12cfc:	0006ea37          	lui	s4,0x6e
   12d00:	10078793          	addi	a5,a5,256 # 6e100 <input_small_data+0x4c214>
   12d04:	1a812c23          	sw	s0,440(sp)
   12d08:	1b612023          	sw	s6,416(sp)
   12d0c:	1b512223          	sw	s5,420(sp)
   12d10:	19712e23          	sw	s7,412(sp)
   12d14:	19812c23          	sw	s8,408(sp)
   12d18:	19912a23          	sw	s9,404(sp)
   12d1c:	19b12623          	sw	s11,396(sp)
   12d20:	0a012e23          	sw	zero,188(sp)
   12d24:	0a012c23          	sw	zero,184(sp)
   12d28:	0b312a23          	sw	s3,180(sp)
   12d2c:	00098b13          	addi	s6,s3,0
   12d30:	00f12a23          	sw	a5,20(sp)
   12d34:	26ca0a13          	addi	s4,s4,620 # 6e26c <zeroes.0>
   12d38:	00012c23          	sw	zero,24(sp)
   12d3c:	02012623          	sw	zero,44(sp)
   12d40:	02012823          	sw	zero,48(sp)
   12d44:	04012223          	sw	zero,68(sp)
   12d48:	02012a23          	sw	zero,52(sp)
   12d4c:	00012423          	sw	zero,8(sp)
   12d50:	01000413          	addi	s0,zero,16
   12d54:	00912223          	sw	s1,4(sp)
   12d58:	000d4783          	lbu	a5,0(s10)
   12d5c:	000d0a93          	addi	s5,s10,0
   12d60:	fdb78713          	addi	a4,a5,-37
   12d64:	06070263          	beq	a4,zero,12dc8 <_vfprintf_r+0x17c>
   12d68:	06078063          	beq	a5,zero,12dc8 <_vfprintf_r+0x17c>
   12d6c:	000a8c13          	addi	s8,s5,0
   12d70:	001ac783          	lbu	a5,1(s5)
   12d74:	001a8a93          	addi	s5,s5,1
   12d78:	00078663          	beq	a5,zero,12d84 <_vfprintf_r+0x138>
   12d7c:	fdb78713          	addi	a4,a5,-37
   12d80:	fe0716e3          	bne	a4,zero,12d6c <_vfprintf_r+0x120>
   12d84:	41aa8cb3          	sub	s9,s5,s10
   12d88:	05aa8063          	beq	s5,s10,12dc8 <_vfprintf_r+0x17c>
   12d8c:	0bc12783          	lw	a5,188(sp)
   12d90:	0b812503          	lw	a0,184(sp)
   12d94:	01ab2023          	sw	s10,0(s6)
   12d98:	019787b3          	add	a5,a5,s9
   12d9c:	00150513          	addi	a0,a0,1
   12da0:	019b2223          	sw	s9,4(s6)
   12da4:	0af12e23          	sw	a5,188(sp)
   12da8:	0aa12c23          	sw	a0,184(sp)
   12dac:	00700793          	addi	a5,zero,7
   12db0:	008b0b13          	addi	s6,s6,8
   12db4:	24a7c063          	blt	a5,a0,12ff4 <_vfprintf_r+0x3a8>
   12db8:	00812783          	lw	a5,8(sp)
   12dbc:	019787b3          	add	a5,a5,s9
   12dc0:	00f12423          	sw	a5,8(sp)
   12dc4:	001c4783          	lbu	a5,1(s8)
   12dc8:	00079463          	bne	a5,zero,12dd0 <_vfprintf_r+0x184>
   12dcc:	5cd0106f          	jal	zero,14b98 <_vfprintf_r+0x1f4c>
   12dd0:	001ac883          	lbu	a7,1(s5)
   12dd4:	001a8d13          	addi	s10,s5,1
   12dd8:	080109a3          	sb	zero,147(sp)
   12ddc:	fff00a93          	addi	s5,zero,-1
   12de0:	00012023          	sw	zero,0(sp)
   12de4:	00000b93          	addi	s7,zero,0
   12de8:	05a00c13          	addi	s8,zero,90
   12dec:	001d0d13          	addi	s10,s10,1
   12df0:	fe088793          	addi	a5,a7,-32
   12df4:	04fc6c63          	bltu	s8,a5,12e4c <_vfprintf_r+0x200>
   12df8:	01412703          	lw	a4,20(sp)
   12dfc:	00279793          	slli	a5,a5,0x2
   12e00:	00e787b3          	add	a5,a5,a4
   12e04:	0007a783          	lw	a5,0(a5)
   12e08:	00078067          	jalr	zero,0(a5)
   12e0c:	fd088793          	addi	a5,a7,-48
   12e10:	00012023          	sw	zero,0(sp)
   12e14:	00900693          	addi	a3,zero,9
   12e18:	00012703          	lw	a4,0(sp)
   12e1c:	00012603          	lw	a2,0(sp)
   12e20:	000d4883          	lbu	a7,0(s10)
   12e24:	00271713          	slli	a4,a4,0x2
   12e28:	00c70733          	add	a4,a4,a2
   12e2c:	00171713          	slli	a4,a4,0x1
   12e30:	00e787b3          	add	a5,a5,a4
   12e34:	00f12023          	sw	a5,0(sp)
   12e38:	fd088793          	addi	a5,a7,-48
   12e3c:	001d0d13          	addi	s10,s10,1
   12e40:	fcf6fce3          	bgeu	a3,a5,12e18 <_vfprintf_r+0x1cc>
   12e44:	fe088793          	addi	a5,a7,-32
   12e48:	fafc78e3          	bgeu	s8,a5,12df8 <_vfprintf_r+0x1ac>
   12e4c:	00089463          	bne	a7,zero,12e54 <_vfprintf_r+0x208>
   12e50:	5490106f          	jal	zero,14b98 <_vfprintf_r+0x1f4c>
   12e54:	00100c93          	addi	s9,zero,1
   12e58:	11110e23          	sb	a7,284(sp)
   12e5c:	080109a3          	sb	zero,147(sp)
   12e60:	000c8c13          	addi	s8,s9,0
   12e64:	00012823          	sw	zero,16(sp)
   12e68:	00000a93          	addi	s5,zero,0
   12e6c:	02012023          	sw	zero,32(sp)
   12e70:	00012e23          	sw	zero,28(sp)
   12e74:	00000313          	addi	t1,zero,0
   12e78:	11c10793          	addi	a5,sp,284
   12e7c:	0bc12603          	lw	a2,188(sp)
   12e80:	084bfd93          	andi	s11,s7,132
   12e84:	00060813          	addi	a6,a2,0 # 2000 <exit-0xe0b4>
   12e88:	7e0d8663          	beq	s11,zero,13674 <_vfprintf_r+0xa28>
   12e8c:	09314703          	lbu	a4,147(sp)
   12e90:	06070863          	beq	a4,zero,12f00 <_vfprintf_r+0x2b4>
   12e94:	0b812583          	lw	a1,184(sp)
   12e98:	00000713          	addi	a4,zero,0
   12e9c:	09310513          	addi	a0,sp,147
   12ea0:	00ab2023          	sw	a0,0(s6)
   12ea4:	00160613          	addi	a2,a2,1
   12ea8:	00100513          	addi	a0,zero,1
   12eac:	00158593          	addi	a1,a1,1
   12eb0:	00ab2223          	sw	a0,4(s6)
   12eb4:	0ac12e23          	sw	a2,188(sp)
   12eb8:	0ab12c23          	sw	a1,184(sp)
   12ebc:	00700513          	addi	a0,zero,7
   12ec0:	008b0b13          	addi	s6,s6,8
   12ec4:	58b54e63          	blt	a0,a1,13460 <_vfprintf_r+0x814>
   12ec8:	02070c63          	beq	a4,zero,12f00 <_vfprintf_r+0x2b4>
   12ecc:	0b812583          	lw	a1,184(sp)
   12ed0:	09410713          	addi	a4,sp,148
   12ed4:	00eb2023          	sw	a4,0(s6)
   12ed8:	00260613          	addi	a2,a2,2
   12edc:	00200713          	addi	a4,zero,2
   12ee0:	00158593          	addi	a1,a1,1
   12ee4:	00eb2223          	sw	a4,4(s6)
   12ee8:	0ac12e23          	sw	a2,188(sp)
   12eec:	0ab12c23          	sw	a1,184(sp)
   12ef0:	00700713          	addi	a4,zero,7
   12ef4:	008b0b13          	addi	s6,s6,8
   12ef8:	00b75463          	bge	a4,a1,12f00 <_vfprintf_r+0x2b4>
   12efc:	1b40106f          	jal	zero,140b0 <_vfprintf_r+0x1464>
   12f00:	08000713          	addi	a4,zero,128
   12f04:	00ed9463          	bne	s11,a4,12f0c <_vfprintf_r+0x2c0>
   12f08:	7d10006f          	jal	zero,13ed8 <_vfprintf_r+0x128c>
   12f0c:	419a8ab3          	sub	s5,s5,s9
   12f10:	79504063          	blt	zero,s5,13690 <_vfprintf_r+0xa44>
   12f14:	100bf713          	andi	a4,s7,256
   12f18:	060718e3          	bne	a4,zero,13788 <_vfprintf_r+0xb3c>
   12f1c:	00fb2023          	sw	a5,0(s6)
   12f20:	0b812783          	lw	a5,184(sp)
   12f24:	01960633          	add	a2,a2,s9
   12f28:	0ac12e23          	sw	a2,188(sp)
   12f2c:	00178793          	addi	a5,a5,1
   12f30:	019b2223          	sw	s9,4(s6)
   12f34:	00700713          	addi	a4,zero,7
   12f38:	0af12c23          	sw	a5,184(sp)
   12f3c:	68f74263          	blt	a4,a5,135c0 <_vfprintf_r+0x974>
   12f40:	008b0b13          	addi	s6,s6,8
   12f44:	004bfe13          	andi	t3,s7,4
   12f48:	000e0a63          	beq	t3,zero,12f5c <_vfprintf_r+0x310>
   12f4c:	00012783          	lw	a5,0(sp)
   12f50:	41878ab3          	sub	s5,a5,s8
   12f54:	01505463          	bge	zero,s5,12f5c <_vfprintf_r+0x310>
   12f58:	1900106f          	jal	zero,140e8 <_vfprintf_r+0x149c>
   12f5c:	00012303          	lw	t1,0(sp)
   12f60:	01835463          	bge	t1,s8,12f68 <_vfprintf_r+0x31c>
   12f64:	000c0313          	addi	t1,s8,0
   12f68:	00812783          	lw	a5,8(sp)
   12f6c:	006787b3          	add	a5,a5,t1
   12f70:	00f12423          	sw	a5,8(sp)
   12f74:	00060463          	beq	a2,zero,12f7c <_vfprintf_r+0x330>
   12f78:	0940106f          	jal	zero,1400c <_vfprintf_r+0x13c0>
   12f7c:	01012783          	lw	a5,16(sp)
   12f80:	0a012c23          	sw	zero,184(sp)
   12f84:	00078863          	beq	a5,zero,12f94 <_vfprintf_r+0x348>
   12f88:	01012583          	lw	a1,16(sp)
   12f8c:	00090513          	addi	a0,s2,0
   12f90:	94cff0ef          	jal	ra,120dc <_free_r>
   12f94:	00098b13          	addi	s6,s3,0
   12f98:	dc1ff06f          	jal	zero,12d58 <_vfprintf_r+0x10c>
   12f9c:	00048593          	addi	a1,s1,0
   12fa0:	00090513          	addi	a0,s2,0
   12fa4:	764030ef          	jal	ra,16708 <__swsetup_r>
   12fa8:	06051a63          	bne	a0,zero,1301c <_vfprintf_r+0x3d0>
   12fac:	00c49783          	lh	a5,12(s1)
   12fb0:	00a00713          	addi	a4,zero,10
   12fb4:	01a7f793          	andi	a5,a5,26
   12fb8:	d2e79ae3          	bne	a5,a4,12cec <_vfprintf_r+0xa0>
   12fbc:	00e49783          	lh	a5,14(s1)
   12fc0:	d207c6e3          	blt	a5,zero,12cec <_vfprintf_r+0xa0>
   12fc4:	00c12683          	lw	a3,12(sp)
   12fc8:	000d0613          	addi	a2,s10,0
   12fcc:	00048593          	addi	a1,s1,0
   12fd0:	00090513          	addi	a0,s2,0
   12fd4:	515020ef          	jal	ra,15ce8 <__sbprintf>
   12fd8:	00a12423          	sw	a0,8(sp)
   12fdc:	0900106f          	jal	zero,1406c <_vfprintf_r+0x1420>
   12fe0:	000d4883          	lbu	a7,0(s10)
   12fe4:	e09ff06f          	jal	zero,12dec <_vfprintf_r+0x1a0>
   12fe8:	000d4883          	lbu	a7,0(s10)
   12fec:	020beb93          	ori	s7,s7,32
   12ff0:	dfdff06f          	jal	zero,12dec <_vfprintf_r+0x1a0>
   12ff4:	00412583          	lw	a1,4(sp)
   12ff8:	0b410613          	addi	a2,sp,180
   12ffc:	00090513          	addi	a0,s2,0
   13000:	5a9020ef          	jal	ra,15da8 <__sprint_r>
   13004:	00050463          	beq	a0,zero,1300c <_vfprintf_r+0x3c0>
   13008:	1b50206f          	jal	zero,159bc <_vfprintf_r+0x2d70>
   1300c:	00098b13          	addi	s6,s3,0
   13010:	da9ff06f          	jal	zero,12db8 <_vfprintf_r+0x16c>
   13014:	01271693          	slli	a3,a4,0x12
   13018:	ca06dce3          	bge	a3,zero,12cd0 <_vfprintf_r+0x84>
   1301c:	fff00793          	addi	a5,zero,-1
   13020:	00f12423          	sw	a5,8(sp)
   13024:	0480106f          	jal	zero,1406c <_vfprintf_r+0x1420>
   13028:	008bf793          	andi	a5,s7,8
   1302c:	00078463          	beq	a5,zero,13034 <_vfprintf_r+0x3e8>
   13030:	5bc0106f          	jal	zero,145ec <_vfprintf_r+0x19a0>
   13034:	00c12783          	lw	a5,12(sp)
   13038:	08010513          	addi	a0,sp,128
   1303c:	01112823          	sw	a7,16(sp)
   13040:	00778793          	addi	a5,a5,7
   13044:	ff87f793          	andi	a5,a5,-8
   13048:	0047a603          	lw	a2,4(a5)
   1304c:	0007a583          	lw	a1,0(a5)
   13050:	00878793          	addi	a5,a5,8
   13054:	00f12623          	sw	a5,12(sp)
   13058:	0890e0ef          	jal	ra,218e0 <__extenddftf2>
   1305c:	08012603          	lw	a2,128(sp)
   13060:	08412683          	lw	a3,132(sp)
   13064:	08812703          	lw	a4,136(sp)
   13068:	08c12783          	lw	a5,140(sp)
   1306c:	01012883          	lw	a7,16(sp)
   13070:	0c010513          	addi	a0,sp,192
   13074:	01112823          	sw	a7,16(sp)
   13078:	0cf12623          	sw	a5,204(sp)
   1307c:	0cc12023          	sw	a2,192(sp)
   13080:	0cd12223          	sw	a3,196(sp)
   13084:	0ce12423          	sw	a4,200(sp)
   13088:	188040ef          	jal	ra,17210 <_ldcheck>
   1308c:	08a12c23          	sw	a0,152(sp)
   13090:	00200793          	addi	a5,zero,2
   13094:	01012883          	lw	a7,16(sp)
   13098:	00f51463          	bne	a0,a5,130a0 <_vfprintf_r+0x454>
   1309c:	25d0106f          	jal	zero,14af8 <_vfprintf_r+0x1eac>
   130a0:	00100793          	addi	a5,zero,1
   130a4:	00f51463          	bne	a0,a5,130ac <_vfprintf_r+0x460>
   130a8:	4110106f          	jal	zero,14cb8 <_vfprintf_r+0x206c>
   130ac:	fdf8fc13          	andi	s8,a7,-33
   130b0:	04100793          	addi	a5,zero,65
   130b4:	00fc0463          	beq	s8,a5,130bc <_vfprintf_r+0x470>
   130b8:	3c90106f          	jal	zero,14c80 <_vfprintf_r+0x2034>
   130bc:	03000793          	addi	a5,zero,48
   130c0:	08f10a23          	sb	a5,148(sp)
   130c4:	06100713          	addi	a4,zero,97
   130c8:	05800793          	addi	a5,zero,88
   130cc:	00e89463          	bne	a7,a4,130d4 <_vfprintf_r+0x488>
   130d0:	12c0206f          	jal	zero,151fc <_vfprintf_r+0x25b0>
   130d4:	08f10aa3          	sb	a5,149(sp)
   130d8:	06300793          	addi	a5,zero,99
   130dc:	0157d463          	bge	a5,s5,130e4 <_vfprintf_r+0x498>
   130e0:	2440206f          	jal	zero,15324 <_vfprintf_r+0x26d8>
   130e4:	0cc12703          	lw	a4,204(sp)
   130e8:	0c012683          	lw	a3,192(sp)
   130ec:	0c412603          	lw	a2,196(sp)
   130f0:	0c812583          	lw	a1,200(sp)
   130f4:	00075463          	bge	a4,zero,130fc <_vfprintf_r+0x4b0>
   130f8:	09d0206f          	jal	zero,15994 <_vfprintf_r+0x2d48>
   130fc:	02012c23          	sw	zero,56(sp)
   13100:	00012823          	sw	zero,16(sp)
   13104:	11c10793          	addi	a5,sp,284
   13108:	08010d93          	addi	s11,sp,128
   1310c:	04f12023          	sw	a5,64(sp)
   13110:	06c12a23          	sw	a2,116(sp)
   13114:	002be793          	ori	a5,s7,2
   13118:	06b12c23          	sw	a1,120(sp)
   1311c:	000d8513          	addi	a0,s11,0
   13120:	07010593          	addi	a1,sp,112
   13124:	09810613          	addi	a2,sp,152
   13128:	03112e23          	sw	a7,60(sp)
   1312c:	00f12e23          	sw	a5,28(sp)
   13130:	06d12823          	sw	a3,112(sp)
   13134:	06e12e23          	sw	a4,124(sp)
   13138:	435030ef          	jal	ra,16d6c <frexpl>
   1313c:	08812703          	lw	a4,136(sp)
   13140:	08012603          	lw	a2,128(sp)
   13144:	08412683          	lw	a3,132(sp)
   13148:	06e12c23          	sw	a4,120(sp)
   1314c:	08c12703          	lw	a4,140(sp)
   13150:	06c12823          	sw	a2,112(sp)
   13154:	06d12a23          	sw	a3,116(sp)
   13158:	06010613          	addi	a2,sp,96
   1315c:	3ffc06b7          	lui	a3,0x3ffc0
   13160:	07010593          	addi	a1,sp,112
   13164:	000d8513          	addi	a0,s11,0
   13168:	06d12623          	sw	a3,108(sp)
   1316c:	06e12e23          	sw	a4,124(sp)
   13170:	06012023          	sw	zero,96(sp)
   13174:	06012223          	sw	zero,100(sp)
   13178:	06012423          	sw	zero,104(sp)
   1317c:	2400c0ef          	jal	ra,1f3bc <__multf3>
   13180:	08012e03          	lw	t3,128(sp)
   13184:	08412803          	lw	a6,132(sp)
   13188:	08812603          	lw	a2,136(sp)
   1318c:	07010593          	addi	a1,sp,112
   13190:	000d8513          	addi	a0,s11,0
   13194:	03c12623          	sw	t3,44(sp)
   13198:	03012023          	sw	a6,32(sp)
   1319c:	00c12c23          	sw	a2,24(sp)
   131a0:	06012823          	sw	zero,112(sp)
   131a4:	06012a23          	sw	zero,116(sp)
   131a8:	06012c23          	sw	zero,120(sp)
   131ac:	06012e23          	sw	zero,124(sp)
   131b0:	6b50b0ef          	jal	ra,1f064 <__eqtf2>
   131b4:	08c12b83          	lw	s7,140(sp)
   131b8:	01812603          	lw	a2,24(sp)
   131bc:	02012803          	lw	a6,32(sp)
   131c0:	02c12e03          	lw	t3,44(sp)
   131c4:	03c12883          	lw	a7,60(sp)
   131c8:	04012783          	lw	a5,64(sp)
   131cc:	00051663          	bne	a0,zero,131d8 <_vfprintf_r+0x58c>
   131d0:	00100693          	addi	a3,zero,1
   131d4:	08d12c23          	sw	a3,152(sp)
   131d8:	06100693          	addi	a3,zero,97
   131dc:	00d89463          	bne	a7,a3,131e4 <_vfprintf_r+0x598>
   131e0:	1990206f          	jal	zero,15b78 <_vfprintf_r+0x2f2c>
   131e4:	000226b7          	lui	a3,0x22
   131e8:	ba468713          	addi	a4,a3,-1116 # 21ba4 <__clzsi2+0xcc>
   131ec:	00e12c23          	sw	a4,24(sp)
   131f0:	03612023          	sw	s6,32(sp)
   131f4:	000b8c93          	addi	s9,s7,0
   131f8:	05212423          	sw	s2,72(sp)
   131fc:	01812483          	lw	s1,24(sp)
   13200:	00078c13          	addi	s8,a5,0
   13204:	03112623          	sw	a7,44(sp)
   13208:	02f12e23          	sw	a5,60(sp)
   1320c:	05a12023          	sw	s10,64(sp)
   13210:	00080b13          	addi	s6,a6,0
   13214:	00060b93          	addi	s7,a2,0
   13218:	000e0913          	addi	s2,t3,0
   1321c:	03c0006f          	jal	zero,13258 <_vfprintf_r+0x60c>
   13220:	07010593          	addi	a1,sp,112
   13224:	000d8513          	addi	a0,s11,0
   13228:	09212023          	sw	s2,128(sp)
   1322c:	09612223          	sw	s6,132(sp)
   13230:	09712423          	sw	s7,136(sp)
   13234:	09912623          	sw	s9,140(sp)
   13238:	06012823          	sw	zero,112(sp)
   1323c:	06012a23          	sw	zero,116(sp)
   13240:	06012c23          	sw	zero,120(sp)
   13244:	06012e23          	sw	zero,124(sp)
   13248:	61d0b0ef          	jal	ra,1f064 <__eqtf2>
   1324c:	00051463          	bne	a0,zero,13254 <_vfprintf_r+0x608>
   13250:	0210206f          	jal	zero,15a70 <_vfprintf_r+0x2e24>
   13254:	fffa8a93          	addi	s5,s5,-1
   13258:	400307b7          	lui	a5,0x40030
   1325c:	06010613          	addi	a2,sp,96
   13260:	07010593          	addi	a1,sp,112
   13264:	000d8513          	addi	a0,s11,0
   13268:	06f12623          	sw	a5,108(sp)
   1326c:	07212823          	sw	s2,112(sp)
   13270:	07612a23          	sw	s6,116(sp)
   13274:	07712c23          	sw	s7,120(sp)
   13278:	07912e23          	sw	s9,124(sp)
   1327c:	06012023          	sw	zero,96(sp)
   13280:	06012223          	sw	zero,100(sp)
   13284:	06012423          	sw	zero,104(sp)
   13288:	1340c0ef          	jal	ra,1f3bc <__multf3>
   1328c:	000d8513          	addi	a0,s11,0
   13290:	4100e0ef          	jal	ra,216a0 <__fixtfsi>
   13294:	00050593          	addi	a1,a0,0
   13298:	00050d13          	addi	s10,a0,0
   1329c:	000d8513          	addi	a0,s11,0
   132a0:	08012c83          	lw	s9,128(sp)
   132a4:	08412b83          	lw	s7,132(sp)
   132a8:	08812b03          	lw	s6,136(sp)
   132ac:	08c12903          	lw	s2,140(sp)
   132b0:	4e40e0ef          	jal	ra,21794 <__floatsitf>
   132b4:	08812783          	lw	a5,136(sp)
   132b8:	08012603          	lw	a2,128(sp)
   132bc:	08412683          	lw	a3,132(sp)
   132c0:	04f12c23          	sw	a5,88(sp)
   132c4:	08c12783          	lw	a5,140(sp)
   132c8:	04c12823          	sw	a2,80(sp)
   132cc:	06010593          	addi	a1,sp,96
   132d0:	05010613          	addi	a2,sp,80
   132d4:	07010513          	addi	a0,sp,112
   132d8:	07912023          	sw	s9,96(sp)
   132dc:	07712223          	sw	s7,100(sp)
   132e0:	07612423          	sw	s6,104(sp)
   132e4:	07212623          	sw	s2,108(sp)
   132e8:	04d12a23          	sw	a3,84(sp)
   132ec:	04f12e23          	sw	a5,92(sp)
   132f0:	00c0d0ef          	jal	ra,202fc <__subtf3>
   132f4:	01a487b3          	add	a5,s1,s10
   132f8:	0007c683          	lbu	a3,0(a5) # 40030000 <__BSS_END__+0x3ff1c4d0>
   132fc:	000c0593          	addi	a1,s8,0
   13300:	001c0c13          	addi	s8,s8,1
   13304:	07012903          	lw	s2,112(sp)
   13308:	07412b03          	lw	s6,116(sp)
   1330c:	07812b83          	lw	s7,120(sp)
   13310:	07c12c83          	lw	s9,124(sp)
   13314:	fedc0fa3          	sb	a3,-1(s8)
   13318:	f00a94e3          	bne	s5,zero,13220 <_vfprintf_r+0x5d4>
   1331c:	02c12883          	lw	a7,44(sp)
   13320:	03c12783          	lw	a5,60(sp)
   13324:	00090e13          	addi	t3,s2,0
   13328:	000b0813          	addi	a6,s6,0
   1332c:	000b8613          	addi	a2,s7,0
   13330:	00058493          	addi	s1,a1,0
   13334:	000c8b93          	addi	s7,s9,0
   13338:	3ffe0ab7          	lui	s5,0x3ffe0
   1333c:	07010593          	addi	a1,sp,112
   13340:	000d8513          	addi	a0,s11,0
   13344:	05112623          	sw	a7,76(sp)
   13348:	02f12623          	sw	a5,44(sp)
   1334c:	04812903          	lw	s2,72(sp)
   13350:	000d0c93          	addi	s9,s10,0
   13354:	09c12023          	sw	t3,128(sp)
   13358:	04012d03          	lw	s10,64(sp)
   1335c:	05c12423          	sw	t3,72(sp)
   13360:	09012223          	sw	a6,132(sp)
   13364:	05012023          	sw	a6,64(sp)
   13368:	08c12423          	sw	a2,136(sp)
   1336c:	02c12e23          	sw	a2,60(sp)
   13370:	09712623          	sw	s7,140(sp)
   13374:	06012823          	sw	zero,112(sp)
   13378:	06012a23          	sw	zero,116(sp)
   1337c:	06012c23          	sw	zero,120(sp)
   13380:	07512e23          	sw	s5,124(sp)
   13384:	5d10b0ef          	jal	ra,1f154 <__getf2>
   13388:	02012b03          	lw	s6,32(sp)
   1338c:	02c12783          	lw	a5,44(sp)
   13390:	04c12883          	lw	a7,76(sp)
   13394:	02a04463          	blt	zero,a0,133bc <_vfprintf_r+0x770>
   13398:	07010593          	addi	a1,sp,112
   1339c:	000d8513          	addi	a0,s11,0
   133a0:	03112023          	sw	a7,32(sp)
   133a4:	4c10b0ef          	jal	ra,1f064 <__eqtf2>
   133a8:	02012883          	lw	a7,32(sp)
   133ac:	02c12783          	lw	a5,44(sp)
   133b0:	04051c63          	bne	a0,zero,13408 <_vfprintf_r+0x7bc>
   133b4:	001cfc93          	andi	s9,s9,1
   133b8:	040c8863          	beq	s9,zero,13408 <_vfprintf_r+0x7bc>
   133bc:	01812703          	lw	a4,24(sp)
   133c0:	0a912023          	sw	s1,160(sp)
   133c4:	fffc4603          	lbu	a2,-1(s8)
   133c8:	00f74583          	lbu	a1,15(a4)
   133cc:	000c0713          	addi	a4,s8,0
   133d0:	02c59063          	bne	a1,a2,133f0 <_vfprintf_r+0x7a4>
   133d4:	03000513          	addi	a0,zero,48
   133d8:	fea70fa3          	sb	a0,-1(a4)
   133dc:	0a012703          	lw	a4,160(sp)
   133e0:	fff70693          	addi	a3,a4,-1
   133e4:	0ad12023          	sw	a3,160(sp)
   133e8:	fff74603          	lbu	a2,-1(a4)
   133ec:	fec586e3          	beq	a1,a2,133d8 <_vfprintf_r+0x78c>
   133f0:	00160593          	addi	a1,a2,1
   133f4:	03900513          	addi	a0,zero,57
   133f8:	0ff5f593          	andi	a1,a1,255
   133fc:	00a61463          	bne	a2,a0,13404 <_vfprintf_r+0x7b8>
   13400:	1980206f          	jal	zero,15598 <_vfprintf_r+0x294c>
   13404:	feb70fa3          	sb	a1,-1(a4)
   13408:	09812603          	lw	a2,152(sp)
   1340c:	00f88713          	addi	a4,a7,15
   13410:	0ae10223          	sb	a4,164(sp)
   13414:	40fc06b3          	sub	a3,s8,a5
   13418:	fff60713          	addi	a4,a2,-1
   1341c:	08e12c23          	sw	a4,152(sp)
   13420:	00d12c23          	sw	a3,24(sp)
   13424:	00075463          	bge	a4,zero,1342c <_vfprintf_r+0x7e0>
   13428:	7340206f          	jal	zero,15b5c <_vfprintf_r+0x2f10>
   1342c:	02b00693          	addi	a3,zero,43
   13430:	0ad102a3          	sb	a3,165(sp)
   13434:	00900693          	addi	a3,zero,9
   13438:	00e6d463          	bge	a3,a4,13440 <_vfprintf_r+0x7f4>
   1343c:	07c0206f          	jal	zero,154b8 <_vfprintf_r+0x286c>
   13440:	0a610693          	addi	a3,sp,166
   13444:	03070713          	addi	a4,a4,48
   13448:	00e68023          	sb	a4,0(a3)
   1344c:	18010713          	addi	a4,sp,384
   13450:	40e686b3          	sub	a3,a3,a4
   13454:	0dd68713          	addi	a4,a3,221
   13458:	02e12623          	sw	a4,44(sp)
   1345c:	0e80206f          	jal	zero,15544 <_vfprintf_r+0x28f8>
   13460:	00412583          	lw	a1,4(sp)
   13464:	0b410613          	addi	a2,sp,180
   13468:	00090513          	addi	a0,s2,0
   1346c:	04612423          	sw	t1,72(sp)
   13470:	04f12023          	sw	a5,64(sp)
   13474:	03112e23          	sw	a7,60(sp)
   13478:	02e12c23          	sw	a4,56(sp)
   1347c:	12d020ef          	jal	ra,15da8 <__sprint_r>
   13480:	3a0512e3          	bne	a0,zero,14024 <_vfprintf_r+0x13d8>
   13484:	0bc12603          	lw	a2,188(sp)
   13488:	04812303          	lw	t1,72(sp)
   1348c:	04012783          	lw	a5,64(sp)
   13490:	03c12883          	lw	a7,60(sp)
   13494:	03812703          	lw	a4,56(sp)
   13498:	00098b13          	addi	s6,s3,0
   1349c:	a2dff06f          	jal	zero,12ec8 <_vfprintf_r+0x27c>
   134a0:	0b812a83          	lw	s5,184(sp)
   134a4:	01812683          	lw	a3,24(sp)
   134a8:	00100713          	addi	a4,zero,1
   134ac:	00e60633          	add	a2,a2,a4
   134b0:	00ea8ab3          	add	s5,s5,a4
   134b4:	008b0d93          	addi	s11,s6,8
   134b8:	78d758e3          	bge	a4,a3,14448 <_vfprintf_r+0x17fc>
   134bc:	00100713          	addi	a4,zero,1
   134c0:	00eb2223          	sw	a4,4(s6)
   134c4:	00fb2023          	sw	a5,0(s6)
   134c8:	0ac12e23          	sw	a2,188(sp)
   134cc:	0b512c23          	sw	s5,184(sp)
   134d0:	00700713          	addi	a4,zero,7
   134d4:	01575463          	bge	a4,s5,134dc <_vfprintf_r+0x890>
   134d8:	3f80106f          	jal	zero,148d0 <_vfprintf_r+0x1c84>
   134dc:	02412703          	lw	a4,36(sp)
   134e0:	001a8a93          	addi	s5,s5,1 # 3ffe0001 <__BSS_END__+0x3fecc4d1>
   134e4:	0b512c23          	sw	s5,184(sp)
   134e8:	00e60633          	add	a2,a2,a4
   134ec:	02812703          	lw	a4,40(sp)
   134f0:	0ac12e23          	sw	a2,188(sp)
   134f4:	008d8d93          	addi	s11,s11,8
   134f8:	feedac23          	sw	a4,-8(s11)
   134fc:	02412703          	lw	a4,36(sp)
   13500:	feedae23          	sw	a4,-4(s11)
   13504:	00700713          	addi	a4,zero,7
   13508:	01575463          	bge	a4,s5,13510 <_vfprintf_r+0x8c4>
   1350c:	3f00106f          	jal	zero,148fc <_vfprintf_r+0x1cb0>
   13510:	0c812703          	lw	a4,200(sp)
   13514:	0c012503          	lw	a0,192(sp)
   13518:	0c412583          	lw	a1,196(sp)
   1351c:	02f12023          	sw	a5,32(sp)
   13520:	08e12423          	sw	a4,136(sp)
   13524:	01812783          	lw	a5,24(sp)
   13528:	0cc12703          	lw	a4,204(sp)
   1352c:	08a12023          	sw	a0,128(sp)
   13530:	08b12223          	sw	a1,132(sp)
   13534:	08010513          	addi	a0,sp,128
   13538:	07010593          	addi	a1,sp,112
   1353c:	00c12e23          	sw	a2,28(sp)
   13540:	06012823          	sw	zero,112(sp)
   13544:	06012a23          	sw	zero,116(sp)
   13548:	06012c23          	sw	zero,120(sp)
   1354c:	06012e23          	sw	zero,124(sp)
   13550:	08e12623          	sw	a4,140(sp)
   13554:	fff78b13          	addi	s6,a5,-1
   13558:	30d0b0ef          	jal	ra,1f064 <__eqtf2>
   1355c:	01c12603          	lw	a2,28(sp)
   13560:	720506e3          	beq	a0,zero,1448c <_vfprintf_r+0x1840>
   13564:	02012783          	lw	a5,32(sp)
   13568:	001a8a93          	addi	s5,s5,1
   1356c:	01660633          	add	a2,a2,s6
   13570:	00178793          	addi	a5,a5,1
   13574:	0b512c23          	sw	s5,184(sp)
   13578:	0ac12e23          	sw	a2,188(sp)
   1357c:	00fda023          	sw	a5,0(s11)
   13580:	016da223          	sw	s6,4(s11)
   13584:	00700793          	addi	a5,zero,7
   13588:	6f57c0e3          	blt	a5,s5,14468 <_vfprintf_r+0x181c>
   1358c:	008d8d93          	addi	s11,s11,8
   13590:	02c12783          	lw	a5,44(sp)
   13594:	02c12683          	lw	a3,44(sp)
   13598:	0a410713          	addi	a4,sp,164
   1359c:	00c78633          	add	a2,a5,a2
   135a0:	001a8793          	addi	a5,s5,1
   135a4:	00eda023          	sw	a4,0(s11)
   135a8:	0ac12e23          	sw	a2,188(sp)
   135ac:	0af12c23          	sw	a5,184(sp)
   135b0:	00dda223          	sw	a3,4(s11)
   135b4:	00700713          	addi	a4,zero,7
   135b8:	008d8b13          	addi	s6,s11,8
   135bc:	98f754e3          	bge	a4,a5,12f44 <_vfprintf_r+0x2f8>
   135c0:	00412583          	lw	a1,4(sp)
   135c4:	0b410613          	addi	a2,sp,180
   135c8:	00090513          	addi	a0,s2,0
   135cc:	7dc020ef          	jal	ra,15da8 <__sprint_r>
   135d0:	24051ae3          	bne	a0,zero,14024 <_vfprintf_r+0x13d8>
   135d4:	0bc12603          	lw	a2,188(sp)
   135d8:	00098b13          	addi	s6,s3,0
   135dc:	969ff06f          	jal	zero,12f44 <_vfprintf_r+0x2f8>
   135e0:	00c12783          	lw	a5,12(sp)
   135e4:	00c12703          	lw	a4,12(sp)
   135e8:	080109a3          	sb	zero,147(sp)
   135ec:	0007a783          	lw	a5,0(a5)
   135f0:	00470493          	addi	s1,a4,4
   135f4:	00079463          	bne	a5,zero,135fc <_vfprintf_r+0x9b0>
   135f8:	16c0106f          	jal	zero,14764 <_vfprintf_r+0x1b18>
   135fc:	000ad463          	bge	s5,zero,13604 <_vfprintf_r+0x9b8>
   13600:	2600106f          	jal	zero,14860 <_vfprintf_r+0x1c14>
   13604:	00078513          	addi	a0,a5,0
   13608:	000a8613          	addi	a2,s5,0
   1360c:	00000593          	addi	a1,zero,0
   13610:	01112e23          	sw	a7,28(sp)
   13614:	00f12623          	sw	a5,12(sp)
   13618:	254030ef          	jal	ra,1686c <memchr>
   1361c:	00a12823          	sw	a0,16(sp)
   13620:	09314703          	lbu	a4,147(sp)
   13624:	00c12783          	lw	a5,12(sp)
   13628:	01c12883          	lw	a7,28(sp)
   1362c:	00051463          	bne	a0,zero,13634 <_vfprintf_r+0x9e8>
   13630:	17c0206f          	jal	zero,157ac <_vfprintf_r+0x2b60>
   13634:	40f50cb3          	sub	s9,a0,a5
   13638:	fffcc693          	xori	a3,s9,-1
   1363c:	41f6d693          	srai	a3,a3,0x1f
   13640:	00dcfc33          	and	s8,s9,a3
   13644:	00070463          	beq	a4,zero,1364c <_vfprintf_r+0xa00>
   13648:	24c0106f          	jal	zero,14894 <_vfprintf_r+0x1c48>
   1364c:	00912623          	sw	s1,12(sp)
   13650:	0bc12603          	lw	a2,188(sp)
   13654:	00012823          	sw	zero,16(sp)
   13658:	02012023          	sw	zero,32(sp)
   1365c:	00012e23          	sw	zero,28(sp)
   13660:	084bfd93          	andi	s11,s7,132
   13664:	00000a93          	addi	s5,zero,0
   13668:	00000313          	addi	t1,zero,0
   1366c:	00060813          	addi	a6,a2,0
   13670:	800d9ee3          	bne	s11,zero,12e8c <_vfprintf_r+0x240>
   13674:	00012703          	lw	a4,0(sp)
   13678:	41870733          	sub	a4,a4,s8
   1367c:	5ae042e3          	blt	zero,a4,14420 <_vfprintf_r+0x17d4>
   13680:	09314703          	lbu	a4,147(sp)
   13684:	800718e3          	bne	a4,zero,12e94 <_vfprintf_r+0x248>
   13688:	419a8ab3          	sub	s5,s5,s9
   1368c:	895054e3          	bge	zero,s5,12f14 <_vfprintf_r+0x2c8>
   13690:	0006e837          	lui	a6,0x6e
   13694:	0b812583          	lw	a1,184(sp)
   13698:	26c80813          	addi	a6,a6,620 # 6e26c <zeroes.0>
   1369c:	09545663          	bge	s0,s5,13728 <_vfprintf_r+0xadc>
   136a0:	000a8493          	addi	s1,s5,0
   136a4:	02f12e23          	sw	a5,60(sp)
   136a8:	00700d93          	addi	s11,zero,7
   136ac:	000b0793          	addi	a5,s6,0
   136b0:	03112c23          	sw	a7,56(sp)
   136b4:	00030a93          	addi	s5,t1,0
   136b8:	000a0b13          	addi	s6,s4,0
   136bc:	00c0006f          	jal	zero,136c8 <_vfprintf_r+0xa7c>
   136c0:	ff048493          	addi	s1,s1,-16
   136c4:	04945663          	bge	s0,s1,13710 <_vfprintf_r+0xac4>
   136c8:	01060613          	addi	a2,a2,16
   136cc:	00158593          	addi	a1,a1,1
   136d0:	0147a023          	sw	s4,0(a5)
   136d4:	0087a223          	sw	s0,4(a5)
   136d8:	0ac12e23          	sw	a2,188(sp)
   136dc:	0ab12c23          	sw	a1,184(sp)
   136e0:	00878793          	addi	a5,a5,8
   136e4:	fcbddee3          	bge	s11,a1,136c0 <_vfprintf_r+0xa74>
   136e8:	00412583          	lw	a1,4(sp)
   136ec:	0b410613          	addi	a2,sp,180
   136f0:	00090513          	addi	a0,s2,0
   136f4:	6b4020ef          	jal	ra,15da8 <__sprint_r>
   136f8:	120516e3          	bne	a0,zero,14024 <_vfprintf_r+0x13d8>
   136fc:	ff048493          	addi	s1,s1,-16
   13700:	0bc12603          	lw	a2,188(sp)
   13704:	0b812583          	lw	a1,184(sp)
   13708:	00098793          	addi	a5,s3,0
   1370c:	fa944ee3          	blt	s0,s1,136c8 <_vfprintf_r+0xa7c>
   13710:	000b0813          	addi	a6,s6,0
   13714:	03812883          	lw	a7,56(sp)
   13718:	00078b13          	addi	s6,a5,0
   1371c:	03c12783          	lw	a5,60(sp)
   13720:	000a8313          	addi	t1,s5,0
   13724:	00048a93          	addi	s5,s1,0
   13728:	01560633          	add	a2,a2,s5
   1372c:	00158593          	addi	a1,a1,1
   13730:	010b2023          	sw	a6,0(s6)
   13734:	015b2223          	sw	s5,4(s6)
   13738:	0ac12e23          	sw	a2,188(sp)
   1373c:	0ab12c23          	sw	a1,184(sp)
   13740:	00700713          	addi	a4,zero,7
   13744:	008b0b13          	addi	s6,s6,8
   13748:	fcb75663          	bge	a4,a1,12f14 <_vfprintf_r+0x2c8>
   1374c:	00412583          	lw	a1,4(sp)
   13750:	0b410613          	addi	a2,sp,180
   13754:	00090513          	addi	a0,s2,0
   13758:	04612023          	sw	t1,64(sp)
   1375c:	02f12e23          	sw	a5,60(sp)
   13760:	03112c23          	sw	a7,56(sp)
   13764:	644020ef          	jal	ra,15da8 <__sprint_r>
   13768:	0a051ee3          	bne	a0,zero,14024 <_vfprintf_r+0x13d8>
   1376c:	100bf713          	andi	a4,s7,256
   13770:	0bc12603          	lw	a2,188(sp)
   13774:	04012303          	lw	t1,64(sp)
   13778:	03c12783          	lw	a5,60(sp)
   1377c:	03812883          	lw	a7,56(sp)
   13780:	00098b13          	addi	s6,s3,0
   13784:	f8070c63          	beq	a4,zero,12f1c <_vfprintf_r+0x2d0>
   13788:	06500713          	addi	a4,zero,101
   1378c:	d1175ae3          	bge	a4,a7,134a0 <_vfprintf_r+0x854>
   13790:	0c412703          	lw	a4,196(sp)
   13794:	0c012583          	lw	a1,192(sp)
   13798:	0c812503          	lw	a0,200(sp)
   1379c:	08e12223          	sw	a4,132(sp)
   137a0:	0cc12703          	lw	a4,204(sp)
   137a4:	08b12023          	sw	a1,128(sp)
   137a8:	08a12423          	sw	a0,136(sp)
   137ac:	07010593          	addi	a1,sp,112
   137b0:	08010513          	addi	a0,sp,128
   137b4:	02c12e23          	sw	a2,60(sp)
   137b8:	02f12c23          	sw	a5,56(sp)
   137bc:	04612023          	sw	t1,64(sp)
   137c0:	06012823          	sw	zero,112(sp)
   137c4:	06012a23          	sw	zero,116(sp)
   137c8:	06012c23          	sw	zero,120(sp)
   137cc:	06012e23          	sw	zero,124(sp)
   137d0:	08e12623          	sw	a4,140(sp)
   137d4:	0910b0ef          	jal	ra,1f064 <__eqtf2>
   137d8:	03812783          	lw	a5,56(sp)
   137dc:	03c12603          	lw	a2,60(sp)
   137e0:	04012303          	lw	t1,64(sp)
   137e4:	220510e3          	bne	a0,zero,14204 <_vfprintf_r+0x15b8>
   137e8:	0b812783          	lw	a5,184(sp)
   137ec:	00022737          	lui	a4,0x22
   137f0:	bc070713          	addi	a4,a4,-1088 # 21bc0 <__clzsi2+0xe8>
   137f4:	00eb2023          	sw	a4,0(s6)
   137f8:	00160613          	addi	a2,a2,1
   137fc:	00100713          	addi	a4,zero,1
   13800:	00178793          	addi	a5,a5,1
   13804:	00eb2223          	sw	a4,4(s6)
   13808:	0ac12e23          	sw	a2,188(sp)
   1380c:	0af12c23          	sw	a5,184(sp)
   13810:	00700713          	addi	a4,zero,7
   13814:	008b0b13          	addi	s6,s6,8
   13818:	00f75463          	bge	a4,a5,13820 <_vfprintf_r+0xbd4>
   1381c:	2500106f          	jal	zero,14a6c <_vfprintf_r+0x1e20>
   13820:	09812783          	lw	a5,152(sp)
   13824:	01812703          	lw	a4,24(sp)
   13828:	4ee7d0e3          	bge	a5,a4,14508 <_vfprintf_r+0x18bc>
   1382c:	02412703          	lw	a4,36(sp)
   13830:	0b812783          	lw	a5,184(sp)
   13834:	008b0b13          	addi	s6,s6,8
   13838:	00e60633          	add	a2,a2,a4
   1383c:	02812703          	lw	a4,40(sp)
   13840:	00178793          	addi	a5,a5,1
   13844:	0ac12e23          	sw	a2,188(sp)
   13848:	feeb2c23          	sw	a4,-8(s6)
   1384c:	02412703          	lw	a4,36(sp)
   13850:	0af12c23          	sw	a5,184(sp)
   13854:	feeb2e23          	sw	a4,-4(s6)
   13858:	00700713          	addi	a4,zero,7
   1385c:	68f740e3          	blt	a4,a5,146dc <_vfprintf_r+0x1a90>
   13860:	01812783          	lw	a5,24(sp)
   13864:	fff78a93          	addi	s5,a5,-1
   13868:	ed505e63          	bge	zero,s5,12f44 <_vfprintf_r+0x2f8>
   1386c:	0006e837          	lui	a6,0x6e
   13870:	01000c93          	addi	s9,zero,16
   13874:	0b812783          	lw	a5,184(sp)
   13878:	00700d93          	addi	s11,zero,7
   1387c:	26c80493          	addi	s1,a6,620 # 6e26c <zeroes.0>
   13880:	015cca63          	blt	s9,s5,13894 <_vfprintf_r+0xc48>
   13884:	2a50006f          	jal	zero,14328 <_vfprintf_r+0x16dc>
   13888:	ff0a8a93          	addi	s5,s5,-16
   1388c:	015cc463          	blt	s9,s5,13894 <_vfprintf_r+0xc48>
   13890:	23c0106f          	jal	zero,14acc <_vfprintf_r+0x1e80>
   13894:	01060613          	addi	a2,a2,16
   13898:	00178793          	addi	a5,a5,1
   1389c:	009b2023          	sw	s1,0(s6)
   138a0:	019b2223          	sw	s9,4(s6)
   138a4:	0ac12e23          	sw	a2,188(sp)
   138a8:	0af12c23          	sw	a5,184(sp)
   138ac:	008b0b13          	addi	s6,s6,8
   138b0:	fcfddce3          	bge	s11,a5,13888 <_vfprintf_r+0xc3c>
   138b4:	00412583          	lw	a1,4(sp)
   138b8:	0b410613          	addi	a2,sp,180
   138bc:	00090513          	addi	a0,s2,0
   138c0:	4e8020ef          	jal	ra,15da8 <__sprint_r>
   138c4:	76051063          	bne	a0,zero,14024 <_vfprintf_r+0x13d8>
   138c8:	0bc12603          	lw	a2,188(sp)
   138cc:	0b812783          	lw	a5,184(sp)
   138d0:	00098b13          	addi	s6,s3,0
   138d4:	fb5ff06f          	jal	zero,13888 <_vfprintf_r+0xc3c>
   138d8:	020bf793          	andi	a5,s7,32
   138dc:	0e079863          	bne	a5,zero,139cc <_vfprintf_r+0xd80>
   138e0:	00c12783          	lw	a5,12(sp)
   138e4:	010bf713          	andi	a4,s7,16
   138e8:	00478793          	addi	a5,a5,4
   138ec:	00070463          	beq	a4,zero,138f4 <_vfprintf_r+0xca8>
   138f0:	7ad0106f          	jal	zero,1589c <_vfprintf_r+0x2c50>
   138f4:	00c12683          	lw	a3,12(sp)
   138f8:	040bf713          	andi	a4,s7,64
   138fc:	0006ac03          	lw	s8,0(a3)
   13900:	00071463          	bne	a4,zero,13908 <_vfprintf_r+0xcbc>
   13904:	33c0106f          	jal	zero,14c40 <_vfprintf_r+0x1ff4>
   13908:	010c1c13          	slli	s8,s8,0x10
   1390c:	410c5c13          	srai	s8,s8,0x10
   13910:	41fc5e93          	srai	t4,s8,0x1f
   13914:	00f12623          	sw	a5,12(sp)
   13918:	000e8713          	addi	a4,t4,0
   1391c:	0c074a63          	blt	a4,zero,139f0 <_vfprintf_r+0xda4>
   13920:	0e0ac863          	blt	s5,zero,13a10 <_vfprintf_r+0xdc4>
   13924:	01dc67b3          	or	a5,s8,t4
   13928:	f7fbfb93          	andi	s7,s7,-129
   1392c:	0e079263          	bne	a5,zero,13a10 <_vfprintf_r+0xdc4>
   13930:	0e0a9063          	bne	s5,zero,13a10 <_vfprintf_r+0xdc4>
   13934:	09314e83          	lbu	t4,147(sp)
   13938:	000e9463          	bne	t4,zero,13940 <_vfprintf_r+0xcf4>
   1393c:	3240106f          	jal	zero,14c60 <_vfprintf_r+0x2014>
   13940:	00000c13          	addi	s8,zero,0
   13944:	00000313          	addi	t1,zero,0
   13948:	00012823          	sw	zero,16(sp)
   1394c:	00000c93          	addi	s9,zero,0
   13950:	00000a93          	addi	s5,zero,0
   13954:	18010793          	addi	a5,sp,384
   13958:	001c0c13          	addi	s8,s8,1
   1395c:	00031463          	bne	t1,zero,13964 <_vfprintf_r+0xd18>
   13960:	2f80206f          	jal	zero,15c58 <_vfprintf_r+0x300c>
   13964:	0bc12603          	lw	a2,188(sp)
   13968:	0b812583          	lw	a1,184(sp)
   1396c:	084bfd93          	andi	s11,s7,132
   13970:	002c0c13          	addi	s8,s8,2
   13974:	00060813          	addi	a6,a2,0
   13978:	00058513          	addi	a0,a1,0
   1397c:	700d8663          	beq	s11,zero,14088 <_vfprintf_r+0x143c>
   13980:	02012023          	sw	zero,32(sp)
   13984:	00012e23          	sw	zero,28(sp)
   13988:	00000313          	addi	t1,zero,0
   1398c:	d40e8263          	beq	t4,zero,12ed0 <_vfprintf_r+0x284>
   13990:	00200713          	addi	a4,zero,2
   13994:	d08ff06f          	jal	zero,12e9c <_vfprintf_r+0x250>
   13998:	00c12783          	lw	a5,12(sp)
   1399c:	00100c93          	addi	s9,zero,1
   139a0:	080109a3          	sb	zero,147(sp)
   139a4:	0007a783          	lw	a5,0(a5)
   139a8:	10f10e23          	sb	a5,284(sp)
   139ac:	00c12783          	lw	a5,12(sp)
   139b0:	00478793          	addi	a5,a5,4
   139b4:	00f12623          	sw	a5,12(sp)
   139b8:	ca8ff06f          	jal	zero,12e60 <_vfprintf_r+0x214>
   139bc:	020bf793          	andi	a5,s7,32
   139c0:	010bee13          	ori	t3,s7,16
   139c4:	400782e3          	beq	a5,zero,145c8 <_vfprintf_r+0x197c>
   139c8:	000e0b93          	addi	s7,t3,0
   139cc:	00c12783          	lw	a5,12(sp)
   139d0:	00778793          	addi	a5,a5,7
   139d4:	ff87f793          	andi	a5,a5,-8
   139d8:	0047a703          	lw	a4,4(a5)
   139dc:	00878693          	addi	a3,a5,8
   139e0:	00d12623          	sw	a3,12(sp)
   139e4:	0007ac03          	lw	s8,0(a5)
   139e8:	00070e93          	addi	t4,a4,0
   139ec:	f2075ae3          	bge	a4,zero,13920 <_vfprintf_r+0xcd4>
   139f0:	018037b3          	sltu	a5,zero,s8
   139f4:	41d00eb3          	sub	t4,zero,t4
   139f8:	40fe8eb3          	sub	t4,t4,a5
   139fc:	02d00793          	addi	a5,zero,45
   13a00:	08f109a3          	sb	a5,147(sp)
   13a04:	41800c33          	sub	s8,zero,s8
   13a08:	000ac463          	blt	s5,zero,13a10 <_vfprintf_r+0xdc4>
   13a0c:	f7fbfb93          	andi	s7,s7,-129
   13a10:	260e9e63          	bne	t4,zero,13c8c <_vfprintf_r+0x1040>
   13a14:	00900793          	addi	a5,zero,9
   13a18:	2787ea63          	bltu	a5,s8,13c8c <_vfprintf_r+0x1040>
   13a1c:	030c0c13          	addi	s8,s8,48
   13a20:	17810fa3          	sb	s8,383(sp)
   13a24:	000a8c13          	addi	s8,s5,0
   13a28:	3f505ae3          	bge	zero,s5,1461c <_vfprintf_r+0x19d0>
   13a2c:	09314e83          	lbu	t4,147(sp)
   13a30:	00000313          	addi	t1,zero,0
   13a34:	00100c93          	addi	s9,zero,1
   13a38:	17f10793          	addi	a5,sp,383
   13a3c:	00012823          	sw	zero,16(sp)
   13a40:	f00e8ee3          	beq	t4,zero,1395c <_vfprintf_r+0xd10>
   13a44:	001c0c13          	addi	s8,s8,1
   13a48:	f15ff06f          	jal	zero,1395c <_vfprintf_r+0xd10>
   13a4c:	00c12783          	lw	a5,12(sp)
   13a50:	0007a783          	lw	a5,0(a5)
   13a54:	00f12023          	sw	a5,0(sp)
   13a58:	2c07d0e3          	bge	a5,zero,14518 <_vfprintf_r+0x18cc>
   13a5c:	00012783          	lw	a5,0(sp)
   13a60:	40f007b3          	sub	a5,zero,a5
   13a64:	00f12023          	sw	a5,0(sp)
   13a68:	00c12783          	lw	a5,12(sp)
   13a6c:	00478793          	addi	a5,a5,4
   13a70:	00f12623          	sw	a5,12(sp)
   13a74:	000d4883          	lbu	a7,0(s10)
   13a78:	004beb93          	ori	s7,s7,4
   13a7c:	b70ff06f          	jal	zero,12dec <_vfprintf_r+0x1a0>
   13a80:	02b00793          	addi	a5,zero,43
   13a84:	000d4883          	lbu	a7,0(s10)
   13a88:	08f109a3          	sb	a5,147(sp)
   13a8c:	b60ff06f          	jal	zero,12dec <_vfprintf_r+0x1a0>
   13a90:	000d4883          	lbu	a7,0(s10)
   13a94:	080beb93          	ori	s7,s7,128
   13a98:	b54ff06f          	jal	zero,12dec <_vfprintf_r+0x1a0>
   13a9c:	000d4883          	lbu	a7,0(s10)
   13aa0:	02a00793          	addi	a5,zero,42
   13aa4:	001d0693          	addi	a3,s10,1
   13aa8:	00f89463          	bne	a7,a5,13ab0 <_vfprintf_r+0xe64>
   13aac:	0dc0206f          	jal	zero,15b88 <_vfprintf_r+0x2f3c>
   13ab0:	fd088793          	addi	a5,a7,-48
   13ab4:	00900613          	addi	a2,zero,9
   13ab8:	00000a93          	addi	s5,zero,0
   13abc:	02f66463          	bltu	a2,a5,13ae4 <_vfprintf_r+0xe98>
   13ac0:	002a9713          	slli	a4,s5,0x2
   13ac4:	0006c883          	lbu	a7,0(a3)
   13ac8:	01570ab3          	add	s5,a4,s5
   13acc:	001a9a93          	slli	s5,s5,0x1
   13ad0:	00fa8ab3          	add	s5,s5,a5
   13ad4:	fd088793          	addi	a5,a7,-48
   13ad8:	00168693          	addi	a3,a3,1
   13adc:	fef672e3          	bgeu	a2,a5,13ac0 <_vfprintf_r+0xe74>
   13ae0:	3c0ac8e3          	blt	s5,zero,146b0 <_vfprintf_r+0x1a64>
   13ae4:	00068d13          	addi	s10,a3,0
   13ae8:	b08ff06f          	jal	zero,12df0 <_vfprintf_r+0x1a4>
   13aec:	00090513          	addi	a0,s2,0
   13af0:	6d1020ef          	jal	ra,169c0 <_localeconv_r>
   13af4:	00452783          	lw	a5,4(a0)
   13af8:	00078513          	addi	a0,a5,0
   13afc:	02f12a23          	sw	a5,52(sp)
   13b00:	1e0030ef          	jal	ra,16ce0 <strlen>
   13b04:	00050493          	addi	s1,a0,0
   13b08:	00090513          	addi	a0,s2,0
   13b0c:	04912223          	sw	s1,68(sp)
   13b10:	6b1020ef          	jal	ra,169c0 <_localeconv_r>
   13b14:	00852703          	lw	a4,8(a0)
   13b18:	000d4883          	lbu	a7,0(s10)
   13b1c:	02e12823          	sw	a4,48(sp)
   13b20:	ac048663          	beq	s1,zero,12dec <_vfprintf_r+0x1a0>
   13b24:	ac070463          	beq	a4,zero,12dec <_vfprintf_r+0x1a0>
   13b28:	00074783          	lbu	a5,0(a4)
   13b2c:	ac078063          	beq	a5,zero,12dec <_vfprintf_r+0x1a0>
   13b30:	400beb93          	ori	s7,s7,1024
   13b34:	ab8ff06f          	jal	zero,12dec <_vfprintf_r+0x1a0>
   13b38:	000d4883          	lbu	a7,0(s10)
   13b3c:	001beb93          	ori	s7,s7,1
   13b40:	aacff06f          	jal	zero,12dec <_vfprintf_r+0x1a0>
   13b44:	09314783          	lbu	a5,147(sp)
   13b48:	000d4883          	lbu	a7,0(s10)
   13b4c:	aa079063          	bne	a5,zero,12dec <_vfprintf_r+0x1a0>
   13b50:	02000793          	addi	a5,zero,32
   13b54:	08f109a3          	sb	a5,147(sp)
   13b58:	a94ff06f          	jal	zero,12dec <_vfprintf_r+0x1a0>
   13b5c:	020bf793          	andi	a5,s7,32
   13b60:	010be693          	ori	a3,s7,16
   13b64:	220782e3          	beq	a5,zero,14588 <_vfprintf_r+0x193c>
   13b68:	00c12783          	lw	a5,12(sp)
   13b6c:	00778793          	addi	a5,a5,7
   13b70:	ff87f793          	andi	a5,a5,-8
   13b74:	00878713          	addi	a4,a5,8
   13b78:	00e12623          	sw	a4,12(sp)
   13b7c:	0047a603          	lw	a2,4(a5)
   13b80:	0007a703          	lw	a4,0(a5)
   13b84:	080109a3          	sb	zero,147(sp)
   13b88:	bff6fb93          	andi	s7,a3,-1025
   13b8c:	600aca63          	blt	s5,zero,141a0 <_vfprintf_r+0x1554>
   13b90:	00c767b3          	or	a5,a4,a2
   13b94:	b7f6fb93          	andi	s7,a3,-1153
   13b98:	60079463          	bne	a5,zero,141a0 <_vfprintf_r+0x1554>
   13b9c:	600a9263          	bne	s5,zero,141a0 <_vfprintf_r+0x1554>
   13ba0:	0016fc13          	andi	s8,a3,1
   13ba4:	080c02e3          	beq	s8,zero,14428 <_vfprintf_r+0x17dc>
   13ba8:	03000793          	addi	a5,zero,48
   13bac:	16f10fa3          	sb	a5,383(sp)
   13bb0:	000c0c93          	addi	s9,s8,0
   13bb4:	00012823          	sw	zero,16(sp)
   13bb8:	02012023          	sw	zero,32(sp)
   13bbc:	00012e23          	sw	zero,28(sp)
   13bc0:	00000313          	addi	t1,zero,0
   13bc4:	17f10793          	addi	a5,sp,383
   13bc8:	ab4ff06f          	jal	zero,12e7c <_vfprintf_r+0x230>
   13bcc:	000d4883          	lbu	a7,0(s10)
   13bd0:	06800793          	addi	a5,zero,104
   13bd4:	2ef88ce3          	beq	a7,a5,146cc <_vfprintf_r+0x1a80>
   13bd8:	040beb93          	ori	s7,s7,64
   13bdc:	a10ff06f          	jal	zero,12dec <_vfprintf_r+0x1a0>
   13be0:	00c12703          	lw	a4,12(sp)
   13be4:	020bf793          	andi	a5,s7,32
   13be8:	00470713          	addi	a4,a4,4
   13bec:	1a079ce3          	bne	a5,zero,145a4 <_vfprintf_r+0x1958>
   13bf0:	010bf793          	andi	a5,s7,16
   13bf4:	760798e3          	bne	a5,zero,14b64 <_vfprintf_r+0x1f18>
   13bf8:	040bf793          	andi	a5,s7,64
   13bfc:	00078463          	beq	a5,zero,13c04 <_vfprintf_r+0xfb8>
   13c00:	44c0106f          	jal	zero,1504c <_vfprintf_r+0x2400>
   13c04:	200bfe13          	andi	t3,s7,512
   13c08:	740e0ee3          	beq	t3,zero,14b64 <_vfprintf_r+0x1f18>
   13c0c:	00c12783          	lw	a5,12(sp)
   13c10:	00812683          	lw	a3,8(sp)
   13c14:	00e12623          	sw	a4,12(sp)
   13c18:	0007a783          	lw	a5,0(a5)
   13c1c:	00d78023          	sb	a3,0(a5)
   13c20:	938ff06f          	jal	zero,12d58 <_vfprintf_r+0x10c>
   13c24:	000d4883          	lbu	a7,0(s10)
   13c28:	06c00793          	addi	a5,zero,108
   13c2c:	28f888e3          	beq	a7,a5,146bc <_vfprintf_r+0x1a70>
   13c30:	010beb93          	ori	s7,s7,16
   13c34:	9b8ff06f          	jal	zero,12dec <_vfprintf_r+0x1a0>
   13c38:	020bf793          	andi	a5,s7,32
   13c3c:	24079863          	bne	a5,zero,13e8c <_vfprintf_r+0x1240>
   13c40:	010bf793          	andi	a5,s7,16
   13c44:	00078463          	beq	a5,zero,13c4c <_vfprintf_r+0x1000>
   13c48:	44d0106f          	jal	zero,15894 <_vfprintf_r+0x2c48>
   13c4c:	00c12703          	lw	a4,12(sp)
   13c50:	040bf793          	andi	a5,s7,64
   13c54:	00072c03          	lw	s8,0(a4)
   13c58:	00470713          	addi	a4,a4,4
   13c5c:	00e12623          	sw	a4,12(sp)
   13c60:	00079463          	bne	a5,zero,13c68 <_vfprintf_r+0x101c>
   13c64:	7b10006f          	jal	zero,14c14 <_vfprintf_r+0x1fc8>
   13c68:	010c1c13          	slli	s8,s8,0x10
   13c6c:	080109a3          	sb	zero,147(sp)
   13c70:	010c5c13          	srli	s8,s8,0x10
   13c74:	00000e93          	addi	t4,zero,0
   13c78:	d80acce3          	blt	s5,zero,13a10 <_vfprintf_r+0xdc4>
   13c7c:	018ae333          	or	t1,s5,s8
   13c80:	f7fbfb93          	andi	s7,s7,-129
   13c84:	16030463          	beq	t1,zero,13dec <_vfprintf_r+0x11a0>
   13c88:	d80e86e3          	beq	t4,zero,13a14 <_vfprintf_r+0xdc8>
   13c8c:	ccccdcb7          	lui	s9,0xccccd
   13c90:	ccccddb7          	lui	s11,0xccccd
   13c94:	ccdc8c93          	addi	s9,s9,-819 # cccccccd <__BSS_END__+0xccbb919d>
   13c98:	cccd8d93          	addi	s11,s11,-820 # cccccccc <__BSS_END__+0xccbb919c>
   13c9c:	400bf813          	andi	a6,s7,1024
   13ca0:	00000593          	addi	a1,zero,0
   13ca4:	18010613          	addi	a2,sp,384
   13ca8:	00088493          	addi	s1,a7,0
   13cac:	0800006f          	jal	zero,13d2c <_vfprintf_r+0x10e0>
   13cb0:	03012703          	lw	a4,48(sp)
   13cb4:	00074703          	lbu	a4,0(a4)
   13cb8:	f0170693          	addi	a3,a4,-255
   13cbc:	00068463          	beq	a3,zero,13cc4 <_vfprintf_r+0x1078>
   13cc0:	5cb70ae3          	beq	a4,a1,14a94 <_vfprintf_r+0x1e48>
   13cc4:	000c0313          	addi	t1,s8,0
   13cc8:	000e8513          	addi	a0,t4,0
   13ccc:	00078613          	addi	a2,a5,0
   13cd0:	01dc0733          	add	a4,s8,t4
   13cd4:	018736b3          	sltu	a3,a4,s8
   13cd8:	00d70733          	add	a4,a4,a3
   13cdc:	039736b3          	mulhu	a3,a4,s9
   13ce0:	0026de13          	srli	t3,a3,0x2
   13ce4:	ffc6f693          	andi	a3,a3,-4
   13ce8:	01c686b3          	add	a3,a3,t3
   13cec:	40d70733          	sub	a4,a4,a3
   13cf0:	40ec0733          	sub	a4,s8,a4
   13cf4:	00ec36b3          	sltu	a3,s8,a4
   13cf8:	40de86b3          	sub	a3,t4,a3
   13cfc:	039686b3          	mul	a3,a3,s9
   13d00:	03b70eb3          	mul	t4,a4,s11
   13d04:	03973e33          	mulhu	t3,a4,s9
   13d08:	01d686b3          	add	a3,a3,t4
   13d0c:	03970733          	mul	a4,a4,s9
   13d10:	01c686b3          	add	a3,a3,t3
   13d14:	01f69e13          	slli	t3,a3,0x1f
   13d18:	0016de93          	srli	t4,a3,0x1
   13d1c:	00175713          	srli	a4,a4,0x1
   13d20:	00ee0c33          	add	s8,t3,a4
   13d24:	00051463          	bne	a0,zero,13d2c <_vfprintf_r+0x10e0>
   13d28:	2750106f          	jal	zero,1579c <_vfprintf_r+0x2b50>
   13d2c:	01dc0733          	add	a4,s8,t4
   13d30:	018736b3          	sltu	a3,a4,s8
   13d34:	00d706b3          	add	a3,a4,a3
   13d38:	0396b533          	mulhu	a0,a3,s9
   13d3c:	00158593          	addi	a1,a1,1
   13d40:	fff60793          	addi	a5,a2,-1
   13d44:	00255313          	srli	t1,a0,0x2
   13d48:	ffc57513          	andi	a0,a0,-4
   13d4c:	00650533          	add	a0,a0,t1
   13d50:	40a686b3          	sub	a3,a3,a0
   13d54:	40dc06b3          	sub	a3,s8,a3
   13d58:	00dc3533          	sltu	a0,s8,a3
   13d5c:	40ae8533          	sub	a0,t4,a0
   13d60:	0396b333          	mulhu	t1,a3,s9
   13d64:	03950533          	mul	a0,a0,s9
   13d68:	039686b3          	mul	a3,a3,s9
   13d6c:	00650533          	add	a0,a0,t1
   13d70:	01f51513          	slli	a0,a0,0x1f
   13d74:	0016d693          	srli	a3,a3,0x1
   13d78:	00d506b3          	add	a3,a0,a3
   13d7c:	00269513          	slli	a0,a3,0x2
   13d80:	00d506b3          	add	a3,a0,a3
   13d84:	00169693          	slli	a3,a3,0x1
   13d88:	40dc06b3          	sub	a3,s8,a3
   13d8c:	03068693          	addi	a3,a3,48
   13d90:	fed60fa3          	sb	a3,-1(a2)
   13d94:	f0081ee3          	bne	a6,zero,13cb0 <_vfprintf_r+0x1064>
   13d98:	000c0313          	addi	t1,s8,0
   13d9c:	000e8513          	addi	a0,t4,0
   13da0:	00078613          	addi	a2,a5,0
   13da4:	f31ff06f          	jal	zero,13cd4 <_vfprintf_r+0x1088>
   13da8:	000087b7          	lui	a5,0x8
   13dac:	83078793          	addi	a5,a5,-2000 # 7830 <exit-0x8884>
   13db0:	00c12703          	lw	a4,12(sp)
   13db4:	08f11a23          	sh	a5,148(sp)
   13db8:	00c12783          	lw	a5,12(sp)
   13dbc:	080109a3          	sb	zero,147(sp)
   13dc0:	00072703          	lw	a4,0(a4)
   13dc4:	00478793          	addi	a5,a5,4
   13dc8:	00000613          	addi	a2,zero,0
   13dcc:	060ac8e3          	blt	s5,zero,1463c <_vfprintf_r+0x19f0>
   13dd0:	f7fbfe13          	andi	t3,s7,-129
   13dd4:	002e6b93          	ori	s7,t3,2
   13dd8:	5a0a92e3          	bne	s5,zero,14b7c <_vfprintf_r+0x1f30>
   13ddc:	5a0710e3          	bne	a4,zero,14b7c <_vfprintf_r+0x1f30>
   13de0:	00f12623          	sw	a5,12(sp)
   13de4:	00200313          	addi	t1,zero,2
   13de8:	07800893          	addi	a7,zero,120
   13dec:	09314e83          	lbu	t4,147(sp)
   13df0:	00000a93          	addi	s5,zero,0
   13df4:	00000c13          	addi	s8,zero,0
   13df8:	00000c93          	addi	s9,zero,0
   13dfc:	18010793          	addi	a5,sp,384
   13e00:	00012823          	sw	zero,16(sp)
   13e04:	c3dff06f          	jal	zero,13a40 <_vfprintf_r+0xdf4>
   13e08:	020bf793          	andi	a5,s7,32
   13e0c:	000794e3          	bne	a5,zero,14614 <_vfprintf_r+0x19c8>
   13e10:	00c12783          	lw	a5,12(sp)
   13e14:	010bf713          	andi	a4,s7,16
   13e18:	00478793          	addi	a5,a5,4
   13e1c:	00070463          	beq	a4,zero,13e24 <_vfprintf_r+0x11d8>
   13e20:	2650106f          	jal	zero,15884 <_vfprintf_r+0x2c38>
   13e24:	00c12703          	lw	a4,12(sp)
   13e28:	040bf693          	andi	a3,s7,64
   13e2c:	00072703          	lw	a4,0(a4)
   13e30:	5c0684e3          	beq	a3,zero,14bf8 <_vfprintf_r+0x1fac>
   13e34:	01071713          	slli	a4,a4,0x10
   13e38:	01075713          	srli	a4,a4,0x10
   13e3c:	00f12623          	sw	a5,12(sp)
   13e40:	000b8693          	addi	a3,s7,0
   13e44:	00000613          	addi	a2,zero,0
   13e48:	d3dff06f          	jal	zero,13b84 <_vfprintf_r+0xf38>
   13e4c:	020bf793          	andi	a5,s7,32
   13e50:	010bee13          	ori	t3,s7,16
   13e54:	02079e63          	bne	a5,zero,13e90 <_vfprintf_r+0x1244>
   13e58:	00c12783          	lw	a5,12(sp)
   13e5c:	00c12703          	lw	a4,12(sp)
   13e60:	080109a3          	sb	zero,147(sp)
   13e64:	00478793          	addi	a5,a5,4
   13e68:	00072c03          	lw	s8,0(a4)
   13e6c:	00000e93          	addi	t4,zero,0
   13e70:	680acae3          	blt	s5,zero,14d04 <_vfprintf_r+0x20b8>
   13e74:	00f12623          	sw	a5,12(sp)
   13e78:	f7fe7b93          	andi	s7,t3,-129
   13e7c:	b80c1ce3          	bne	s8,zero,13a14 <_vfprintf_r+0xdc8>
   13e80:	b80a9ae3          	bne	s5,zero,13a14 <_vfprintf_r+0xdc8>
   13e84:	00000313          	addi	t1,zero,0
   13e88:	f65ff06f          	jal	zero,13dec <_vfprintf_r+0x11a0>
   13e8c:	000b8e13          	addi	t3,s7,0
   13e90:	00c12783          	lw	a5,12(sp)
   13e94:	080109a3          	sb	zero,147(sp)
   13e98:	00778793          	addi	a5,a5,7
   13e9c:	ff87f793          	andi	a5,a5,-8
   13ea0:	00878713          	addi	a4,a5,8
   13ea4:	00e12623          	sw	a4,12(sp)
   13ea8:	0007ac03          	lw	s8,0(a5)
   13eac:	0047ae83          	lw	t4,4(a5)
   13eb0:	780ac263          	blt	s5,zero,14634 <_vfprintf_r+0x19e8>
   13eb4:	f7fe7b93          	andi	s7,t3,-129
   13eb8:	b40a9ce3          	bne	s5,zero,13a10 <_vfprintf_r+0xdc4>
   13ebc:	01dc67b3          	or	a5,s8,t4
   13ec0:	b40798e3          	bne	a5,zero,13a10 <_vfprintf_r+0xdc4>
   13ec4:	00000313          	addi	t1,zero,0
   13ec8:	f25ff06f          	jal	zero,13dec <_vfprintf_r+0x11a0>
   13ecc:	000d4883          	lbu	a7,0(s10)
   13ed0:	008beb93          	ori	s7,s7,8
   13ed4:	f19fe06f          	jal	zero,12dec <_vfprintf_r+0x1a0>
   13ed8:	00012703          	lw	a4,0(sp)
   13edc:	41870db3          	sub	s11,a4,s8
   13ee0:	01b04463          	blt	zero,s11,13ee8 <_vfprintf_r+0x129c>
   13ee4:	828ff06f          	jal	zero,12f0c <_vfprintf_r+0x2c0>
   13ee8:	01000e93          	addi	t4,zero,16
   13eec:	0b812583          	lw	a1,184(sp)
   13ef0:	0006e837          	lui	a6,0x6e
   13ef4:	01bec463          	blt	t4,s11,13efc <_vfprintf_r+0x12b0>
   13ef8:	2050106f          	jal	zero,158fc <_vfprintf_r+0x2cb0>
   13efc:	000d8493          	addi	s1,s11,0
   13f00:	02f12e23          	sw	a5,60(sp)
   13f04:	000d0d93          	addi	s11,s10,0
   13f08:	000b0793          	addi	a5,s6,0
   13f0c:	000c8d13          	addi	s10,s9,0
   13f10:	00700293          	addi	t0,zero,7
   13f14:	000c0c93          	addi	s9,s8,0
   13f18:	03112c23          	sw	a7,56(sp)
   13f1c:	000a8c13          	addi	s8,s5,0
   13f20:	00030b13          	addi	s6,t1,0
   13f24:	26c80a93          	addi	s5,a6,620 # 6e26c <zeroes.0>
   13f28:	00c0006f          	jal	zero,13f34 <_vfprintf_r+0x12e8>
   13f2c:	ff048493          	addi	s1,s1,-16
   13f30:	049eda63          	bge	t4,s1,13f84 <_vfprintf_r+0x1338>
   13f34:	01060613          	addi	a2,a2,16
   13f38:	00158593          	addi	a1,a1,1
   13f3c:	0157a023          	sw	s5,0(a5)
   13f40:	01d7a223          	sw	t4,4(a5)
   13f44:	0ac12e23          	sw	a2,188(sp)
   13f48:	0ab12c23          	sw	a1,184(sp)
   13f4c:	00878793          	addi	a5,a5,8
   13f50:	fcb2dee3          	bge	t0,a1,13f2c <_vfprintf_r+0x12e0>
   13f54:	00412583          	lw	a1,4(sp)
   13f58:	0b410613          	addi	a2,sp,180
   13f5c:	00090513          	addi	a0,s2,0
   13f60:	649010ef          	jal	ra,15da8 <__sprint_r>
   13f64:	0c051063          	bne	a0,zero,14024 <_vfprintf_r+0x13d8>
   13f68:	01000e93          	addi	t4,zero,16
   13f6c:	ff048493          	addi	s1,s1,-16
   13f70:	0bc12603          	lw	a2,188(sp)
   13f74:	0b812583          	lw	a1,184(sp)
   13f78:	00098793          	addi	a5,s3,0
   13f7c:	00700293          	addi	t0,zero,7
   13f80:	fa9ecae3          	blt	t4,s1,13f34 <_vfprintf_r+0x12e8>
   13f84:	000b0313          	addi	t1,s6,0
   13f88:	03812883          	lw	a7,56(sp)
   13f8c:	00078b13          	addi	s6,a5,0
   13f90:	03c12783          	lw	a5,60(sp)
   13f94:	000a8813          	addi	a6,s5,0
   13f98:	000c0a93          	addi	s5,s8,0
   13f9c:	000c8c13          	addi	s8,s9,0
   13fa0:	000d0c93          	addi	s9,s10,0
   13fa4:	000d8d13          	addi	s10,s11,0
   13fa8:	00048d93          	addi	s11,s1,0
   13fac:	01b60633          	add	a2,a2,s11
   13fb0:	00158593          	addi	a1,a1,1
   13fb4:	010b2023          	sw	a6,0(s6)
   13fb8:	01bb2223          	sw	s11,4(s6)
   13fbc:	0ac12e23          	sw	a2,188(sp)
   13fc0:	0ab12c23          	sw	a1,184(sp)
   13fc4:	00700713          	addi	a4,zero,7
   13fc8:	008b0b13          	addi	s6,s6,8
   13fcc:	00b74463          	blt	a4,a1,13fd4 <_vfprintf_r+0x1388>
   13fd0:	f3dfe06f          	jal	zero,12f0c <_vfprintf_r+0x2c0>
   13fd4:	00412583          	lw	a1,4(sp)
   13fd8:	0b410613          	addi	a2,sp,180
   13fdc:	00090513          	addi	a0,s2,0
   13fe0:	04612023          	sw	t1,64(sp)
   13fe4:	02f12e23          	sw	a5,60(sp)
   13fe8:	03112c23          	sw	a7,56(sp)
   13fec:	5bd010ef          	jal	ra,15da8 <__sprint_r>
   13ff0:	02051a63          	bne	a0,zero,14024 <_vfprintf_r+0x13d8>
   13ff4:	0bc12603          	lw	a2,188(sp)
   13ff8:	03812883          	lw	a7,56(sp)
   13ffc:	03c12783          	lw	a5,60(sp)
   14000:	04012303          	lw	t1,64(sp)
   14004:	00098b13          	addi	s6,s3,0
   14008:	f05fe06f          	jal	zero,12f0c <_vfprintf_r+0x2c0>
   1400c:	00412583          	lw	a1,4(sp)
   14010:	0b410613          	addi	a2,sp,180
   14014:	00090513          	addi	a0,s2,0
   14018:	591010ef          	jal	ra,15da8 <__sprint_r>
   1401c:	00051463          	bne	a0,zero,14024 <_vfprintf_r+0x13d8>
   14020:	f5dfe06f          	jal	zero,12f7c <_vfprintf_r+0x330>
   14024:	01012583          	lw	a1,16(sp)
   14028:	00412483          	lw	s1,4(sp)
   1402c:	00058663          	beq	a1,zero,14038 <_vfprintf_r+0x13ec>
   14030:	00090513          	addi	a0,s2,0
   14034:	8a8fe0ef          	jal	ra,120dc <_free_r>
   14038:	00c4d783          	lhu	a5,12(s1)
   1403c:	1b812403          	lw	s0,440(sp)
   14040:	1ac12983          	lw	s3,428(sp)
   14044:	0407f793          	andi	a5,a5,64
   14048:	1a812a03          	lw	s4,424(sp)
   1404c:	1a412a83          	lw	s5,420(sp)
   14050:	1a012b03          	lw	s6,416(sp)
   14054:	19c12b83          	lw	s7,412(sp)
   14058:	19812c03          	lw	s8,408(sp)
   1405c:	19412c83          	lw	s9,404(sp)
   14060:	18c12d83          	lw	s11,396(sp)
   14064:	00078463          	beq	a5,zero,1406c <_vfprintf_r+0x1420>
   14068:	fb5fe06f          	jal	zero,1301c <_vfprintf_r+0x3d0>
   1406c:	1bc12083          	lw	ra,444(sp)
   14070:	00812503          	lw	a0,8(sp)
   14074:	1b412483          	lw	s1,436(sp)
   14078:	1b012903          	lw	s2,432(sp)
   1407c:	19012d03          	lw	s10,400(sp)
   14080:	1c010113          	addi	sp,sp,448
   14084:	00008067          	jalr	zero,0(ra)
   14088:	00012703          	lw	a4,0(sp)
   1408c:	02012023          	sw	zero,32(sp)
   14090:	00012e23          	sw	zero,28(sp)
   14094:	41870733          	sub	a4,a4,s8
   14098:	00000313          	addi	t1,zero,0
   1409c:	28e04a63          	blt	zero,a4,14330 <_vfprintf_r+0x16e4>
   140a0:	000e9463          	bne	t4,zero,140a8 <_vfprintf_r+0x145c>
   140a4:	e2dfe06f          	jal	zero,12ed0 <_vfprintf_r+0x284>
   140a8:	00200713          	addi	a4,zero,2
   140ac:	df1fe06f          	jal	zero,12e9c <_vfprintf_r+0x250>
   140b0:	00412583          	lw	a1,4(sp)
   140b4:	0b410613          	addi	a2,sp,180
   140b8:	00090513          	addi	a0,s2,0
   140bc:	04612023          	sw	t1,64(sp)
   140c0:	02f12e23          	sw	a5,60(sp)
   140c4:	03112c23          	sw	a7,56(sp)
   140c8:	4e1010ef          	jal	ra,15da8 <__sprint_r>
   140cc:	f4051ce3          	bne	a0,zero,14024 <_vfprintf_r+0x13d8>
   140d0:	0bc12603          	lw	a2,188(sp)
   140d4:	04012303          	lw	t1,64(sp)
   140d8:	03c12783          	lw	a5,60(sp)
   140dc:	03812883          	lw	a7,56(sp)
   140e0:	00098b13          	addi	s6,s3,0
   140e4:	e1dfe06f          	jal	zero,12f00 <_vfprintf_r+0x2b4>
   140e8:	01000c93          	addi	s9,zero,16
   140ec:	0b812783          	lw	a5,184(sp)
   140f0:	0006e837          	lui	a6,0x6e
   140f4:	015cc463          	blt	s9,s5,140fc <_vfprintf_r+0x14b0>
   140f8:	7940106f          	jal	zero,1588c <_vfprintf_r+0x2c40>
   140fc:	00412483          	lw	s1,4(sp)
   14100:	00700d93          	addi	s11,zero,7
   14104:	27c80b93          	addi	s7,a6,636 # 6e27c <blanks.1>
   14108:	00c0006f          	jal	zero,14114 <_vfprintf_r+0x14c8>
   1410c:	ff0a8a93          	addi	s5,s5,-16
   14110:	055cd663          	bge	s9,s5,1415c <_vfprintf_r+0x1510>
   14114:	01060613          	addi	a2,a2,16
   14118:	00178793          	addi	a5,a5,1
   1411c:	017b2023          	sw	s7,0(s6)
   14120:	019b2223          	sw	s9,4(s6)
   14124:	0ac12e23          	sw	a2,188(sp)
   14128:	0af12c23          	sw	a5,184(sp)
   1412c:	008b0b13          	addi	s6,s6,8
   14130:	fcfddee3          	bge	s11,a5,1410c <_vfprintf_r+0x14c0>
   14134:	0b410613          	addi	a2,sp,180
   14138:	00048593          	addi	a1,s1,0
   1413c:	00090513          	addi	a0,s2,0
   14140:	469010ef          	jal	ra,15da8 <__sprint_r>
   14144:	140514e3          	bne	a0,zero,14a8c <_vfprintf_r+0x1e40>
   14148:	ff0a8a93          	addi	s5,s5,-16
   1414c:	0bc12603          	lw	a2,188(sp)
   14150:	0b812783          	lw	a5,184(sp)
   14154:	00098b13          	addi	s6,s3,0
   14158:	fb5ccee3          	blt	s9,s5,14114 <_vfprintf_r+0x14c8>
   1415c:	000b8813          	addi	a6,s7,0
   14160:	01560633          	add	a2,a2,s5
   14164:	00178793          	addi	a5,a5,1
   14168:	0ac12e23          	sw	a2,188(sp)
   1416c:	0af12c23          	sw	a5,184(sp)
   14170:	010b2023          	sw	a6,0(s6)
   14174:	015b2223          	sw	s5,4(s6)
   14178:	00700713          	addi	a4,zero,7
   1417c:	00f74463          	blt	a4,a5,14184 <_vfprintf_r+0x1538>
   14180:	dddfe06f          	jal	zero,12f5c <_vfprintf_r+0x310>
   14184:	00412583          	lw	a1,4(sp)
   14188:	0b410613          	addi	a2,sp,180
   1418c:	00090513          	addi	a0,s2,0
   14190:	419010ef          	jal	ra,15da8 <__sprint_r>
   14194:	e80518e3          	bne	a0,zero,14024 <_vfprintf_r+0x13d8>
   14198:	0bc12603          	lw	a2,188(sp)
   1419c:	dc1fe06f          	jal	zero,12f5c <_vfprintf_r+0x310>
   141a0:	18010793          	addi	a5,sp,384
   141a4:	01d61593          	slli	a1,a2,0x1d
   141a8:	00777693          	andi	a3,a4,7
   141ac:	00375713          	srli	a4,a4,0x3
   141b0:	00078513          	addi	a0,a5,0
   141b4:	00e58733          	add	a4,a1,a4
   141b8:	03068693          	addi	a3,a3,48
   141bc:	00365613          	srli	a2,a2,0x3
   141c0:	00c765b3          	or	a1,a4,a2
   141c4:	fed78fa3          	sb	a3,-1(a5)
   141c8:	fff78793          	addi	a5,a5,-1
   141cc:	fc059ce3          	bne	a1,zero,141a4 <_vfprintf_r+0x1558>
   141d0:	fd068693          	addi	a3,a3,-48
   141d4:	00068663          	beq	a3,zero,141e0 <_vfprintf_r+0x1594>
   141d8:	001bf713          	andi	a4,s7,1
   141dc:	36071a63          	bne	a4,zero,14550 <_vfprintf_r+0x1904>
   141e0:	18010713          	addi	a4,sp,384
   141e4:	40f70cb3          	sub	s9,a4,a5
   141e8:	000a8c13          	addi	s8,s5,0
   141ec:	359ac663          	blt	s5,s9,14538 <_vfprintf_r+0x18ec>
   141f0:	00012823          	sw	zero,16(sp)
   141f4:	02012023          	sw	zero,32(sp)
   141f8:	00012e23          	sw	zero,28(sp)
   141fc:	00000313          	addi	t1,zero,0
   14200:	c7dfe06f          	jal	zero,12e7c <_vfprintf_r+0x230>
   14204:	09812503          	lw	a0,152(sp)
   14208:	78a05663          	bge	zero,a0,14994 <_vfprintf_r+0x1d48>
   1420c:	01812703          	lw	a4,24(sp)
   14210:	00030a93          	addi	s5,t1,0
   14214:	48674863          	blt	a4,t1,146a4 <_vfprintf_r+0x1a58>
   14218:	03505663          	bge	zero,s5,14244 <_vfprintf_r+0x15f8>
   1421c:	0b812703          	lw	a4,184(sp)
   14220:	01560633          	add	a2,a2,s5
   14224:	00fb2023          	sw	a5,0(s6)
   14228:	00170713          	addi	a4,a4,1
   1422c:	015b2223          	sw	s5,4(s6)
   14230:	0ac12e23          	sw	a2,188(sp)
   14234:	0ae12c23          	sw	a4,184(sp)
   14238:	00700593          	addi	a1,zero,7
   1423c:	008b0b13          	addi	s6,s6,8
   14240:	54e5c4e3          	blt	a1,a4,14f88 <_vfprintf_r+0x233c>
   14244:	fffac713          	xori	a4,s5,-1
   14248:	41f75713          	srai	a4,a4,0x1f
   1424c:	00eafab3          	and	s5,s5,a4
   14250:	41530ab3          	sub	s5,t1,s5
   14254:	55504263          	blt	zero,s5,14798 <_vfprintf_r+0x1b4c>
   14258:	400bf713          	andi	a4,s7,1024
   1425c:	00678db3          	add	s11,a5,t1
   14260:	2c0712e3          	bne	a4,zero,14d24 <_vfprintf_r+0x20d8>
   14264:	09812a83          	lw	s5,152(sp)
   14268:	01812703          	lw	a4,24(sp)
   1426c:	00eac663          	blt	s5,a4,14278 <_vfprintf_r+0x162c>
   14270:	001bf713          	andi	a4,s7,1
   14274:	5a070ae3          	beq	a4,zero,15028 <_vfprintf_r+0x23dc>
   14278:	02412683          	lw	a3,36(sp)
   1427c:	0b812703          	lw	a4,184(sp)
   14280:	00700593          	addi	a1,zero,7
   14284:	00d60633          	add	a2,a2,a3
   14288:	02812683          	lw	a3,40(sp)
   1428c:	00170713          	addi	a4,a4,1
   14290:	0ac12e23          	sw	a2,188(sp)
   14294:	00db2023          	sw	a3,0(s6)
   14298:	02412683          	lw	a3,36(sp)
   1429c:	0ae12c23          	sw	a4,184(sp)
   142a0:	008b0b13          	addi	s6,s6,8
   142a4:	fedb2e23          	sw	a3,-4(s6)
   142a8:	00e5d463          	bge	a1,a4,142b0 <_vfprintf_r+0x1664>
   142ac:	4b80106f          	jal	zero,15764 <_vfprintf_r+0x2b18>
   142b0:	01812703          	lw	a4,24(sp)
   142b4:	00e787b3          	add	a5,a5,a4
   142b8:	41b78cb3          	sub	s9,a5,s11
   142bc:	41570ab3          	sub	s5,a4,s5
   142c0:	019ad463          	bge	s5,s9,142c8 <_vfprintf_r+0x167c>
   142c4:	000a8c93          	addi	s9,s5,0
   142c8:	03905863          	bge	zero,s9,142f8 <_vfprintf_r+0x16ac>
   142cc:	0b812703          	lw	a4,184(sp)
   142d0:	01960633          	add	a2,a2,s9
   142d4:	01bb2023          	sw	s11,0(s6)
   142d8:	00170713          	addi	a4,a4,1
   142dc:	019b2223          	sw	s9,4(s6)
   142e0:	0ac12e23          	sw	a2,188(sp)
   142e4:	0ae12c23          	sw	a4,184(sp)
   142e8:	00700793          	addi	a5,zero,7
   142ec:	008b0b13          	addi	s6,s6,8
   142f0:	00e7d463          	bge	a5,a4,142f8 <_vfprintf_r+0x16ac>
   142f4:	4ec0106f          	jal	zero,157e0 <_vfprintf_r+0x2b94>
   142f8:	fffcc713          	xori	a4,s9,-1
   142fc:	41f75713          	srai	a4,a4,0x1f
   14300:	00ecf7b3          	and	a5,s9,a4
   14304:	40fa8ab3          	sub	s5,s5,a5
   14308:	01504463          	blt	zero,s5,14310 <_vfprintf_r+0x16c4>
   1430c:	c39fe06f          	jal	zero,12f44 <_vfprintf_r+0x2f8>
   14310:	0006e837          	lui	a6,0x6e
   14314:	01000c93          	addi	s9,zero,16
   14318:	0b812783          	lw	a5,184(sp)
   1431c:	00700d93          	addi	s11,zero,7
   14320:	26c80493          	addi	s1,a6,620 # 6e26c <zeroes.0>
   14324:	515ccc63          	blt	s9,s5,1483c <_vfprintf_r+0x1bf0>
   14328:	26c80813          	addi	a6,a6,620
   1432c:	7a40006f          	jal	zero,14ad0 <_vfprintf_r+0x1e84>
   14330:	00200d93          	addi	s11,zero,2
   14334:	01000e93          	addi	t4,zero,16
   14338:	00080613          	addi	a2,a6,0
   1433c:	00050593          	addi	a1,a0,0
   14340:	0006e837          	lui	a6,0x6e
   14344:	00eec463          	blt	t4,a4,1434c <_vfprintf_r+0x1700>
   14348:	44c0106f          	jal	zero,15794 <_vfprintf_r+0x2b48>
   1434c:	02f12e23          	sw	a5,60(sp)
   14350:	00700393          	addi	t2,zero,7
   14354:	000b0793          	addi	a5,s6,0
   14358:	00070493          	addi	s1,a4,0
   1435c:	000a8b13          	addi	s6,s5,0
   14360:	03112c23          	sw	a7,56(sp)
   14364:	04612023          	sw	t1,64(sp)
   14368:	27c80a93          	addi	s5,a6,636 # 6e27c <blanks.1>
   1436c:	00c0006f          	jal	zero,14378 <_vfprintf_r+0x172c>
   14370:	ff048493          	addi	s1,s1,-16
   14374:	049eda63          	bge	t4,s1,143c8 <_vfprintf_r+0x177c>
   14378:	01060613          	addi	a2,a2,16
   1437c:	00158593          	addi	a1,a1,1
   14380:	0157a023          	sw	s5,0(a5)
   14384:	01d7a223          	sw	t4,4(a5)
   14388:	0ac12e23          	sw	a2,188(sp)
   1438c:	0ab12c23          	sw	a1,184(sp)
   14390:	00878793          	addi	a5,a5,8
   14394:	fcb3dee3          	bge	t2,a1,14370 <_vfprintf_r+0x1724>
   14398:	00412583          	lw	a1,4(sp)
   1439c:	0b410613          	addi	a2,sp,180
   143a0:	00090513          	addi	a0,s2,0
   143a4:	205010ef          	jal	ra,15da8 <__sprint_r>
   143a8:	c6051ee3          	bne	a0,zero,14024 <_vfprintf_r+0x13d8>
   143ac:	01000e93          	addi	t4,zero,16
   143b0:	ff048493          	addi	s1,s1,-16
   143b4:	0bc12603          	lw	a2,188(sp)
   143b8:	0b812583          	lw	a1,184(sp)
   143bc:	00098793          	addi	a5,s3,0
   143c0:	00700393          	addi	t2,zero,7
   143c4:	fa9ecae3          	blt	t4,s1,14378 <_vfprintf_r+0x172c>
   143c8:	000a8813          	addi	a6,s5,0
   143cc:	03812883          	lw	a7,56(sp)
   143d0:	000b0a93          	addi	s5,s6,0
   143d4:	04012303          	lw	t1,64(sp)
   143d8:	00078b13          	addi	s6,a5,0
   143dc:	03c12783          	lw	a5,60(sp)
   143e0:	00048713          	addi	a4,s1,0
   143e4:	00c70633          	add	a2,a4,a2
   143e8:	00158593          	addi	a1,a1,1
   143ec:	00eb2223          	sw	a4,4(s6)
   143f0:	0ac12e23          	sw	a2,188(sp)
   143f4:	0ab12c23          	sw	a1,184(sp)
   143f8:	010b2023          	sw	a6,0(s6)
   143fc:	00700713          	addi	a4,zero,7
   14400:	54b74463          	blt	a4,a1,14948 <_vfprintf_r+0x1cfc>
   14404:	09314703          	lbu	a4,147(sp)
   14408:	008b0b13          	addi	s6,s6,8
   1440c:	12071063          	bne	a4,zero,1452c <_vfprintf_r+0x18e0>
   14410:	000d9463          	bne	s11,zero,14418 <_vfprintf_r+0x17cc>
   14414:	af9fe06f          	jal	zero,12f0c <_vfprintf_r+0x2c0>
   14418:	00000d93          	addi	s11,zero,0
   1441c:	ab5fe06f          	jal	zero,12ed0 <_vfprintf_r+0x284>
   14420:	0b812503          	lw	a0,184(sp)
   14424:	f11ff06f          	jal	zero,14334 <_vfprintf_r+0x16e8>
   14428:	00000c93          	addi	s9,zero,0
   1442c:	00000a93          	addi	s5,zero,0
   14430:	02012023          	sw	zero,32(sp)
   14434:	00012e23          	sw	zero,28(sp)
   14438:	00000313          	addi	t1,zero,0
   1443c:	00012823          	sw	zero,16(sp)
   14440:	18010793          	addi	a5,sp,384
   14444:	a39fe06f          	jal	zero,12e7c <_vfprintf_r+0x230>
   14448:	00ebf5b3          	and	a1,s7,a4
   1444c:	86059863          	bne	a1,zero,134bc <_vfprintf_r+0x870>
   14450:	00fb2023          	sw	a5,0(s6)
   14454:	00eb2223          	sw	a4,4(s6)
   14458:	0ac12e23          	sw	a2,188(sp)
   1445c:	0b512c23          	sw	s5,184(sp)
   14460:	00700793          	addi	a5,zero,7
   14464:	9357d663          	bge	a5,s5,13590 <_vfprintf_r+0x944>
   14468:	00412583          	lw	a1,4(sp)
   1446c:	0b410613          	addi	a2,sp,180
   14470:	00090513          	addi	a0,s2,0
   14474:	135010ef          	jal	ra,15da8 <__sprint_r>
   14478:	ba0516e3          	bne	a0,zero,14024 <_vfprintf_r+0x13d8>
   1447c:	0bc12603          	lw	a2,188(sp)
   14480:	0b812a83          	lw	s5,184(sp)
   14484:	00098d93          	addi	s11,s3,0
   14488:	908ff06f          	jal	zero,13590 <_vfprintf_r+0x944>
   1448c:	01812703          	lw	a4,24(sp)
   14490:	00100793          	addi	a5,zero,1
   14494:	8ee7de63          	bge	a5,a4,13590 <_vfprintf_r+0x944>
   14498:	01100793          	addi	a5,zero,17
   1449c:	0006e837          	lui	a6,0x6e
   144a0:	00e7c463          	blt	a5,a4,144a8 <_vfprintf_r+0x185c>
   144a4:	7800106f          	jal	zero,15c24 <_vfprintf_r+0x2fd8>
   144a8:	01000c93          	addi	s9,zero,16
   144ac:	00700793          	addi	a5,zero,7
   144b0:	26c80493          	addi	s1,a6,620 # 6e26c <zeroes.0>
   144b4:	00c0006f          	jal	zero,144c0 <_vfprintf_r+0x1874>
   144b8:	ff0b0b13          	addi	s6,s6,-16
   144bc:	716cd863          	bge	s9,s6,14bcc <_vfprintf_r+0x1f80>
   144c0:	01060613          	addi	a2,a2,16
   144c4:	001a8a93          	addi	s5,s5,1
   144c8:	009da023          	sw	s1,0(s11)
   144cc:	019da223          	sw	s9,4(s11)
   144d0:	0ac12e23          	sw	a2,188(sp)
   144d4:	0b512c23          	sw	s5,184(sp)
   144d8:	008d8d93          	addi	s11,s11,8
   144dc:	fd57dee3          	bge	a5,s5,144b8 <_vfprintf_r+0x186c>
   144e0:	00412583          	lw	a1,4(sp)
   144e4:	0b410613          	addi	a2,sp,180
   144e8:	00090513          	addi	a0,s2,0
   144ec:	0bd010ef          	jal	ra,15da8 <__sprint_r>
   144f0:	b2051ae3          	bne	a0,zero,14024 <_vfprintf_r+0x13d8>
   144f4:	0bc12603          	lw	a2,188(sp)
   144f8:	0b812a83          	lw	s5,184(sp)
   144fc:	00098d93          	addi	s11,s3,0
   14500:	00700793          	addi	a5,zero,7
   14504:	fb5ff06f          	jal	zero,144b8 <_vfprintf_r+0x186c>
   14508:	001bf793          	andi	a5,s7,1
   1450c:	00079463          	bne	a5,zero,14514 <_vfprintf_r+0x18c8>
   14510:	a35fe06f          	jal	zero,12f44 <_vfprintf_r+0x2f8>
   14514:	b18ff06f          	jal	zero,1382c <_vfprintf_r+0xbe0>
   14518:	00c12783          	lw	a5,12(sp)
   1451c:	000d4883          	lbu	a7,0(s10)
   14520:	00478793          	addi	a5,a5,4
   14524:	00f12623          	sw	a5,12(sp)
   14528:	8c5fe06f          	jal	zero,12dec <_vfprintf_r+0x1a0>
   1452c:	000d8713          	addi	a4,s11,0
   14530:	00000d93          	addi	s11,zero,0
   14534:	969fe06f          	jal	zero,12e9c <_vfprintf_r+0x250>
   14538:	000c8c13          	addi	s8,s9,0
   1453c:	00012823          	sw	zero,16(sp)
   14540:	02012023          	sw	zero,32(sp)
   14544:	00012e23          	sw	zero,28(sp)
   14548:	00000313          	addi	t1,zero,0
   1454c:	931fe06f          	jal	zero,12e7c <_vfprintf_r+0x230>
   14550:	ffe50513          	addi	a0,a0,-2
   14554:	03000713          	addi	a4,zero,48
   14558:	18010693          	addi	a3,sp,384
   1455c:	40a68cb3          	sub	s9,a3,a0
   14560:	fee78fa3          	sb	a4,-1(a5)
   14564:	000a8c13          	addi	s8,s5,0
   14568:	019ad463          	bge	s5,s9,14570 <_vfprintf_r+0x1924>
   1456c:	000c8c13          	addi	s8,s9,0
   14570:	00050793          	addi	a5,a0,0
   14574:	00012823          	sw	zero,16(sp)
   14578:	02012023          	sw	zero,32(sp)
   1457c:	00012e23          	sw	zero,28(sp)
   14580:	00000313          	addi	t1,zero,0
   14584:	8f9fe06f          	jal	zero,12e7c <_vfprintf_r+0x230>
   14588:	00c12783          	lw	a5,12(sp)
   1458c:	00478793          	addi	a5,a5,4
   14590:	00c12703          	lw	a4,12(sp)
   14594:	00000613          	addi	a2,zero,0
   14598:	00f12623          	sw	a5,12(sp)
   1459c:	00072703          	lw	a4,0(a4)
   145a0:	de4ff06f          	jal	zero,13b84 <_vfprintf_r+0xf38>
   145a4:	00c12783          	lw	a5,12(sp)
   145a8:	00812683          	lw	a3,8(sp)
   145ac:	00812603          	lw	a2,8(sp)
   145b0:	0007a783          	lw	a5,0(a5)
   145b4:	41f6d693          	srai	a3,a3,0x1f
   145b8:	00e12623          	sw	a4,12(sp)
   145bc:	00c7a023          	sw	a2,0(a5)
   145c0:	00d7a223          	sw	a3,4(a5)
   145c4:	f94fe06f          	jal	zero,12d58 <_vfprintf_r+0x10c>
   145c8:	00c12783          	lw	a5,12(sp)
   145cc:	00478793          	addi	a5,a5,4
   145d0:	00c12703          	lw	a4,12(sp)
   145d4:	000e0b93          	addi	s7,t3,0
   145d8:	00f12623          	sw	a5,12(sp)
   145dc:	00072c03          	lw	s8,0(a4)
   145e0:	41fc5e93          	srai	t4,s8,0x1f
   145e4:	000e8713          	addi	a4,t4,0
   145e8:	b34ff06f          	jal	zero,1391c <_vfprintf_r+0xcd0>
   145ec:	00c12783          	lw	a5,12(sp)
   145f0:	00c12703          	lw	a4,12(sp)
   145f4:	0007a783          	lw	a5,0(a5)
   145f8:	00470713          	addi	a4,a4,4
   145fc:	00e12623          	sw	a4,12(sp)
   14600:	0007a603          	lw	a2,0(a5)
   14604:	0047a683          	lw	a3,4(a5)
   14608:	0087a703          	lw	a4,8(a5)
   1460c:	00c7a783          	lw	a5,12(a5)
   14610:	a61fe06f          	jal	zero,13070 <_vfprintf_r+0x424>
   14614:	000b8693          	addi	a3,s7,0
   14618:	d50ff06f          	jal	zero,13b68 <_vfprintf_r+0xf1c>
   1461c:	09314e83          	lbu	t4,147(sp)
   14620:	00100c13          	addi	s8,zero,1
   14624:	00000313          	addi	t1,zero,0
   14628:	00100c93          	addi	s9,zero,1
   1462c:	17f10793          	addi	a5,sp,383
   14630:	c0cff06f          	jal	zero,13a3c <_vfprintf_r+0xdf0>
   14634:	000e0b93          	addi	s7,t3,0
   14638:	bd8ff06f          	jal	zero,13a10 <_vfprintf_r+0xdc4>
   1463c:	000225b7          	lui	a1,0x22
   14640:	002beb93          	ori	s7,s7,2
   14644:	00f12623          	sw	a5,12(sp)
   14648:	b9058593          	addi	a1,a1,-1136 # 21b90 <__clzsi2+0xb8>
   1464c:	00200313          	addi	t1,zero,2
   14650:	00000e93          	addi	t4,zero,0
   14654:	07800893          	addi	a7,zero,120
   14658:	18010793          	addi	a5,sp,384
   1465c:	00f77693          	andi	a3,a4,15
   14660:	00d586b3          	add	a3,a1,a3
   14664:	0006c683          	lbu	a3,0(a3)
   14668:	00475713          	srli	a4,a4,0x4
   1466c:	fff78793          	addi	a5,a5,-1
   14670:	00d78023          	sb	a3,0(a5)
   14674:	01c61693          	slli	a3,a2,0x1c
   14678:	00e68733          	add	a4,a3,a4
   1467c:	00465613          	srli	a2,a2,0x4
   14680:	00c766b3          	or	a3,a4,a2
   14684:	fc069ce3          	bne	a3,zero,1465c <_vfprintf_r+0x1a10>
   14688:	18010713          	addi	a4,sp,384
   1468c:	40f70cb3          	sub	s9,a4,a5
   14690:	000a8c13          	addi	s8,s5,0
   14694:	bb9ad463          	bge	s5,s9,13a3c <_vfprintf_r+0xdf0>
   14698:	000c8c13          	addi	s8,s9,0
   1469c:	00012823          	sw	zero,16(sp)
   146a0:	ba0ff06f          	jal	zero,13a40 <_vfprintf_r+0xdf4>
   146a4:	00070a93          	addi	s5,a4,0
   146a8:	b7504ae3          	blt	zero,s5,1421c <_vfprintf_r+0x15d0>
   146ac:	b99ff06f          	jal	zero,14244 <_vfprintf_r+0x15f8>
   146b0:	fff00a93          	addi	s5,zero,-1
   146b4:	00068d13          	addi	s10,a3,0
   146b8:	f38fe06f          	jal	zero,12df0 <_vfprintf_r+0x1a4>
   146bc:	001d4883          	lbu	a7,1(s10)
   146c0:	020beb93          	ori	s7,s7,32
   146c4:	001d0d13          	addi	s10,s10,1
   146c8:	f24fe06f          	jal	zero,12dec <_vfprintf_r+0x1a0>
   146cc:	001d4883          	lbu	a7,1(s10)
   146d0:	200beb93          	ori	s7,s7,512
   146d4:	001d0d13          	addi	s10,s10,1
   146d8:	f14fe06f          	jal	zero,12dec <_vfprintf_r+0x1a0>
   146dc:	00412583          	lw	a1,4(sp)
   146e0:	0b410613          	addi	a2,sp,180
   146e4:	00090513          	addi	a0,s2,0
   146e8:	6c0010ef          	jal	ra,15da8 <__sprint_r>
   146ec:	92051ce3          	bne	a0,zero,14024 <_vfprintf_r+0x13d8>
   146f0:	0bc12603          	lw	a2,188(sp)
   146f4:	00098b13          	addi	s6,s3,0
   146f8:	968ff06f          	jal	zero,13860 <_vfprintf_r+0xc14>
   146fc:	000225b7          	lui	a1,0x22
   14700:	ba458593          	addi	a1,a1,-1116 # 21ba4 <__clzsi2+0xcc>
   14704:	020bf793          	andi	a5,s7,32
   14708:	18078a63          	beq	a5,zero,1489c <_vfprintf_r+0x1c50>
   1470c:	00c12783          	lw	a5,12(sp)
   14710:	00778793          	addi	a5,a5,7
   14714:	ff87f793          	andi	a5,a5,-8
   14718:	00878713          	addi	a4,a5,8
   1471c:	00e12623          	sw	a4,12(sp)
   14720:	0047a603          	lw	a2,4(a5)
   14724:	0007a703          	lw	a4,0(a5)
   14728:	001bf793          	andi	a5,s7,1
   1472c:	00c766b3          	or	a3,a4,a2
   14730:	00078463          	beq	a5,zero,14738 <_vfprintf_r+0x1aec>
   14734:	30069263          	bne	a3,zero,14a38 <_vfprintf_r+0x1dec>
   14738:	080109a3          	sb	zero,147(sp)
   1473c:	1e0ace63          	blt	s5,zero,14938 <_vfprintf_r+0x1cec>
   14740:	b7fbfb93          	andi	s7,s7,-1153
   14744:	00000313          	addi	t1,zero,0
   14748:	000a9463          	bne	s5,zero,14750 <_vfprintf_r+0x1b04>
   1474c:	ea068063          	beq	a3,zero,13dec <_vfprintf_r+0x11a0>
   14750:	09314e83          	lbu	t4,147(sp)
   14754:	f05ff06f          	jal	zero,14658 <_vfprintf_r+0x1a0c>
   14758:	000225b7          	lui	a1,0x22
   1475c:	b9058593          	addi	a1,a1,-1136 # 21b90 <__clzsi2+0xb8>
   14760:	fa5ff06f          	jal	zero,14704 <_vfprintf_r+0x1ab8>
   14764:	00600793          	addi	a5,zero,6
   14768:	000a8c13          	addi	s8,s5,0
   1476c:	0157eae3          	bltu	a5,s5,14f80 <_vfprintf_r+0x2334>
   14770:	000227b7          	lui	a5,0x22
   14774:	00912623          	sw	s1,12(sp)
   14778:	bb878793          	addi	a5,a5,-1096 # 21bb8 <__clzsi2+0xe0>
   1477c:	00012823          	sw	zero,16(sp)
   14780:	000c0c93          	addi	s9,s8,0
   14784:	00000a93          	addi	s5,zero,0
   14788:	02012023          	sw	zero,32(sp)
   1478c:	00012e23          	sw	zero,28(sp)
   14790:	00000313          	addi	t1,zero,0
   14794:	ee8fe06f          	jal	zero,12e7c <_vfprintf_r+0x230>
   14798:	01000893          	addi	a7,zero,16
   1479c:	0b812703          	lw	a4,184(sp)
   147a0:	0006e837          	lui	a6,0x6e
   147a4:	0158c463          	blt	a7,s5,147ac <_vfprintf_r+0x1b60>
   147a8:	4a80106f          	jal	zero,15c50 <_vfprintf_r+0x3004>
   147ac:	000a8493          	addi	s1,s5,0
   147b0:	00700c93          	addi	s9,zero,7
   147b4:	00078d93          	addi	s11,a5,0
   147b8:	02612c23          	sw	t1,56(sp)
   147bc:	26c80a93          	addi	s5,a6,620 # 6e26c <zeroes.0>
   147c0:	00c0006f          	jal	zero,147cc <_vfprintf_r+0x1b80>
   147c4:	ff048493          	addi	s1,s1,-16
   147c8:	7498da63          	bge	a7,s1,14f1c <_vfprintf_r+0x22d0>
   147cc:	01060613          	addi	a2,a2,16
   147d0:	00170713          	addi	a4,a4,1
   147d4:	015b2023          	sw	s5,0(s6)
   147d8:	011b2223          	sw	a7,4(s6)
   147dc:	0ac12e23          	sw	a2,188(sp)
   147e0:	0ae12c23          	sw	a4,184(sp)
   147e4:	008b0b13          	addi	s6,s6,8
   147e8:	fcecdee3          	bge	s9,a4,147c4 <_vfprintf_r+0x1b78>
   147ec:	00412583          	lw	a1,4(sp)
   147f0:	0b410613          	addi	a2,sp,180
   147f4:	00090513          	addi	a0,s2,0
   147f8:	5b0010ef          	jal	ra,15da8 <__sprint_r>
   147fc:	820514e3          	bne	a0,zero,14024 <_vfprintf_r+0x13d8>
   14800:	0bc12603          	lw	a2,188(sp)
   14804:	0b812703          	lw	a4,184(sp)
   14808:	00098b13          	addi	s6,s3,0
   1480c:	01000893          	addi	a7,zero,16
   14810:	fb5ff06f          	jal	zero,147c4 <_vfprintf_r+0x1b78>
   14814:	00412583          	lw	a1,4(sp)
   14818:	0b410613          	addi	a2,sp,180
   1481c:	00090513          	addi	a0,s2,0
   14820:	588010ef          	jal	ra,15da8 <__sprint_r>
   14824:	800510e3          	bne	a0,zero,14024 <_vfprintf_r+0x13d8>
   14828:	0bc12603          	lw	a2,188(sp)
   1482c:	0b812783          	lw	a5,184(sp)
   14830:	00098b13          	addi	s6,s3,0
   14834:	ff0a8a93          	addi	s5,s5,-16
   14838:	295cda63          	bge	s9,s5,14acc <_vfprintf_r+0x1e80>
   1483c:	01060613          	addi	a2,a2,16
   14840:	00178793          	addi	a5,a5,1
   14844:	009b2023          	sw	s1,0(s6)
   14848:	019b2223          	sw	s9,4(s6)
   1484c:	0ac12e23          	sw	a2,188(sp)
   14850:	0af12c23          	sw	a5,184(sp)
   14854:	008b0b13          	addi	s6,s6,8
   14858:	fcfddee3          	bge	s11,a5,14834 <_vfprintf_r+0x1be8>
   1485c:	fb9ff06f          	jal	zero,14814 <_vfprintf_r+0x1bc8>
   14860:	00078513          	addi	a0,a5,0
   14864:	01112823          	sw	a7,16(sp)
   14868:	00f12623          	sw	a5,12(sp)
   1486c:	474020ef          	jal	ra,16ce0 <strlen>
   14870:	09314703          	lbu	a4,147(sp)
   14874:	fff54693          	xori	a3,a0,-1
   14878:	41f6d693          	srai	a3,a3,0x1f
   1487c:	00c12783          	lw	a5,12(sp)
   14880:	01012883          	lw	a7,16(sp)
   14884:	00050c93          	addi	s9,a0,0
   14888:	00d57c33          	and	s8,a0,a3
   1488c:	00071463          	bne	a4,zero,14894 <_vfprintf_r+0x1c48>
   14890:	dbdfe06f          	jal	zero,1364c <_vfprintf_r+0xa00>
   14894:	001c0c13          	addi	s8,s8,1
   14898:	db5fe06f          	jal	zero,1364c <_vfprintf_r+0xa00>
   1489c:	00c12683          	lw	a3,12(sp)
   148a0:	00c12703          	lw	a4,12(sp)
   148a4:	010bf793          	andi	a5,s7,16
   148a8:	00468693          	addi	a3,a3,4
   148ac:	00d12623          	sw	a3,12(sp)
   148b0:	00072703          	lw	a4,0(a4)
   148b4:	06079e63          	bne	a5,zero,14930 <_vfprintf_r+0x1ce4>
   148b8:	040bf793          	andi	a5,s7,64
   148bc:	06078663          	beq	a5,zero,14928 <_vfprintf_r+0x1cdc>
   148c0:	01071713          	slli	a4,a4,0x10
   148c4:	01075713          	srli	a4,a4,0x10
   148c8:	00000613          	addi	a2,zero,0
   148cc:	e5dff06f          	jal	zero,14728 <_vfprintf_r+0x1adc>
   148d0:	00412583          	lw	a1,4(sp)
   148d4:	0b410613          	addi	a2,sp,180
   148d8:	00090513          	addi	a0,s2,0
   148dc:	00f12e23          	sw	a5,28(sp)
   148e0:	4c8010ef          	jal	ra,15da8 <__sprint_r>
   148e4:	f4051063          	bne	a0,zero,14024 <_vfprintf_r+0x13d8>
   148e8:	0bc12603          	lw	a2,188(sp)
   148ec:	0b812a83          	lw	s5,184(sp)
   148f0:	01c12783          	lw	a5,28(sp)
   148f4:	00098d93          	addi	s11,s3,0
   148f8:	be5fe06f          	jal	zero,134dc <_vfprintf_r+0x890>
   148fc:	00412583          	lw	a1,4(sp)
   14900:	0b410613          	addi	a2,sp,180
   14904:	00090513          	addi	a0,s2,0
   14908:	00f12e23          	sw	a5,28(sp)
   1490c:	49c010ef          	jal	ra,15da8 <__sprint_r>
   14910:	f0051a63          	bne	a0,zero,14024 <_vfprintf_r+0x13d8>
   14914:	0bc12603          	lw	a2,188(sp)
   14918:	0b812a83          	lw	s5,184(sp)
   1491c:	01c12783          	lw	a5,28(sp)
   14920:	00098d93          	addi	s11,s3,0
   14924:	bedfe06f          	jal	zero,13510 <_vfprintf_r+0x8c4>
   14928:	200bf793          	andi	a5,s7,512
   1492c:	74079e63          	bne	a5,zero,15088 <_vfprintf_r+0x243c>
   14930:	00000613          	addi	a2,zero,0
   14934:	df5ff06f          	jal	zero,14728 <_vfprintf_r+0x1adc>
   14938:	bffbfb93          	andi	s7,s7,-1025
   1493c:	00000313          	addi	t1,zero,0
   14940:	00000e93          	addi	t4,zero,0
   14944:	d15ff06f          	jal	zero,14658 <_vfprintf_r+0x1a0c>
   14948:	00412583          	lw	a1,4(sp)
   1494c:	0b410613          	addi	a2,sp,180
   14950:	00090513          	addi	a0,s2,0
   14954:	04612023          	sw	t1,64(sp)
   14958:	02f12e23          	sw	a5,60(sp)
   1495c:	03112c23          	sw	a7,56(sp)
   14960:	448010ef          	jal	ra,15da8 <__sprint_r>
   14964:	ec051063          	bne	a0,zero,14024 <_vfprintf_r+0x13d8>
   14968:	09314703          	lbu	a4,147(sp)
   1496c:	0bc12603          	lw	a2,188(sp)
   14970:	03812883          	lw	a7,56(sp)
   14974:	03c12783          	lw	a5,60(sp)
   14978:	04012303          	lw	t1,64(sp)
   1497c:	22070e63          	beq	a4,zero,14bb8 <_vfprintf_r+0x1f6c>
   14980:	000d8713          	addi	a4,s11,0
   14984:	0b812583          	lw	a1,184(sp)
   14988:	00000d93          	addi	s11,zero,0
   1498c:	00098b13          	addi	s6,s3,0
   14990:	d0cfe06f          	jal	zero,12e9c <_vfprintf_r+0x250>
   14994:	0b812703          	lw	a4,184(sp)
   14998:	000225b7          	lui	a1,0x22
   1499c:	bc058593          	addi	a1,a1,-1088 # 21bc0 <__clzsi2+0xe8>
   149a0:	00bb2023          	sw	a1,0(s6)
   149a4:	00160613          	addi	a2,a2,1
   149a8:	00100593          	addi	a1,zero,1
   149ac:	00170713          	addi	a4,a4,1
   149b0:	00bb2223          	sw	a1,4(s6)
   149b4:	0ac12e23          	sw	a2,188(sp)
   149b8:	0ae12c23          	sw	a4,184(sp)
   149bc:	00700593          	addi	a1,zero,7
   149c0:	008b0b13          	addi	s6,s6,8
   149c4:	44e5c0e3          	blt	a1,a4,15604 <_vfprintf_r+0x29b8>
   149c8:	01812703          	lw	a4,24(sp)
   149cc:	00a76733          	or	a4,a4,a0
   149d0:	5e070463          	beq	a4,zero,14fb8 <_vfprintf_r+0x236c>
   149d4:	02412683          	lw	a3,36(sp)
   149d8:	0b812703          	lw	a4,184(sp)
   149dc:	00700593          	addi	a1,zero,7
   149e0:	00c68633          	add	a2,a3,a2
   149e4:	02812683          	lw	a3,40(sp)
   149e8:	00170713          	addi	a4,a4,1
   149ec:	0ac12e23          	sw	a2,188(sp)
   149f0:	00db2023          	sw	a3,0(s6)
   149f4:	02412683          	lw	a3,36(sp)
   149f8:	0ae12c23          	sw	a4,184(sp)
   149fc:	008b0b13          	addi	s6,s6,8
   14a00:	fedb2e23          	sw	a3,-4(s6)
   14a04:	5ee5c863          	blt	a1,a4,14ff4 <_vfprintf_r+0x23a8>
   14a08:	600544e3          	blt	a0,zero,15810 <_vfprintf_r+0x2bc4>
   14a0c:	01812683          	lw	a3,24(sp)
   14a10:	00170713          	addi	a4,a4,1
   14a14:	00fb2023          	sw	a5,0(s6)
   14a18:	00c68633          	add	a2,a3,a2
   14a1c:	0ac12e23          	sw	a2,188(sp)
   14a20:	0ae12c23          	sw	a4,184(sp)
   14a24:	00db2223          	sw	a3,4(s6)
   14a28:	00700793          	addi	a5,zero,7
   14a2c:	00e7c463          	blt	a5,a4,14a34 <_vfprintf_r+0x1de8>
   14a30:	d10fe06f          	jal	zero,12f40 <_vfprintf_r+0x2f4>
   14a34:	b8dfe06f          	jal	zero,135c0 <_vfprintf_r+0x974>
   14a38:	03000793          	addi	a5,zero,48
   14a3c:	09110aa3          	sb	a7,149(sp)
   14a40:	080109a3          	sb	zero,147(sp)
   14a44:	08f10a23          	sb	a5,148(sp)
   14a48:	2c0ac463          	blt	s5,zero,14d10 <_vfprintf_r+0x20c4>
   14a4c:	b7fbfe13          	andi	t3,s7,-1153
   14a50:	09314e83          	lbu	t4,147(sp)
   14a54:	002e6b93          	ori	s7,t3,2
   14a58:	00200313          	addi	t1,zero,2
   14a5c:	bfdff06f          	jal	zero,14658 <_vfprintf_r+0x1a0c>
   14a60:	00090513          	addi	a0,s2,0
   14a64:	d21fc0ef          	jal	ra,11784 <__sinit>
   14a68:	a34fe06f          	jal	zero,12c9c <_vfprintf_r+0x50>
   14a6c:	00412583          	lw	a1,4(sp)
   14a70:	0b410613          	addi	a2,sp,180
   14a74:	00090513          	addi	a0,s2,0
   14a78:	330010ef          	jal	ra,15da8 <__sprint_r>
   14a7c:	da051463          	bne	a0,zero,14024 <_vfprintf_r+0x13d8>
   14a80:	0bc12603          	lw	a2,188(sp)
   14a84:	00098b13          	addi	s6,s3,0
   14a88:	d99fe06f          	jal	zero,13820 <_vfprintf_r+0xbd4>
   14a8c:	01012583          	lw	a1,16(sp)
   14a90:	d9cff06f          	jal	zero,1402c <_vfprintf_r+0x13e0>
   14a94:	640e9863          	bne	t4,zero,150e4 <_vfprintf_r+0x2498>
   14a98:	00900713          	addi	a4,zero,9
   14a9c:	65876463          	bltu	a4,s8,150e4 <_vfprintf_r+0x2498>
   14aa0:	18010713          	addi	a4,sp,384
   14aa4:	00b12c23          	sw	a1,24(sp)
   14aa8:	40f70cb3          	sub	s9,a4,a5
   14aac:	00048893          	addi	a7,s1,0
   14ab0:	000a8c13          	addi	s8,s5,0
   14ab4:	019ad463          	bge	s5,s9,14abc <_vfprintf_r+0x1e70>
   14ab8:	000c8c13          	addi	s8,s9,0
   14abc:	09314e83          	lbu	t4,147(sp)
   14ac0:	00000313          	addi	t1,zero,0
   14ac4:	00012823          	sw	zero,16(sp)
   14ac8:	f79fe06f          	jal	zero,13a40 <_vfprintf_r+0xdf4>
   14acc:	00048813          	addi	a6,s1,0
   14ad0:	01560633          	add	a2,a2,s5
   14ad4:	00178793          	addi	a5,a5,1
   14ad8:	0ac12e23          	sw	a2,188(sp)
   14adc:	0af12c23          	sw	a5,184(sp)
   14ae0:	010b2023          	sw	a6,0(s6)
   14ae4:	015b2223          	sw	s5,4(s6)
   14ae8:	00700713          	addi	a4,zero,7
   14aec:	00f74463          	blt	a4,a5,14af4 <_vfprintf_r+0x1ea8>
   14af0:	c50fe06f          	jal	zero,12f40 <_vfprintf_r+0x2f4>
   14af4:	acdfe06f          	jal	zero,135c0 <_vfprintf_r+0x974>
   14af8:	0c012703          	lw	a4,192(sp)
   14afc:	0c412783          	lw	a5,196(sp)
   14b00:	07010593          	addi	a1,sp,112
   14b04:	08e12023          	sw	a4,128(sp)
   14b08:	08f12223          	sw	a5,132(sp)
   14b0c:	0c812703          	lw	a4,200(sp)
   14b10:	0cc12783          	lw	a5,204(sp)
   14b14:	08010513          	addi	a0,sp,128
   14b18:	06012823          	sw	zero,112(sp)
   14b1c:	06012a23          	sw	zero,116(sp)
   14b20:	06012c23          	sw	zero,120(sp)
   14b24:	06012e23          	sw	zero,124(sp)
   14b28:	08e12423          	sw	a4,136(sp)
   14b2c:	08f12623          	sw	a5,140(sp)
   14b30:	7580a0ef          	jal	ra,1f288 <__letf2>
   14b34:	01012883          	lw	a7,16(sp)
   14b38:	f7fbfb93          	andi	s7,s7,-129
   14b3c:	400546e3          	blt	a0,zero,15748 <_vfprintf_r+0x2afc>
   14b40:	04700793          	addi	a5,zero,71
   14b44:	09314703          	lbu	a4,147(sp)
   14b48:	5917c863          	blt	a5,a7,150d8 <_vfprintf_r+0x248c>
   14b4c:	000227b7          	lui	a5,0x22
   14b50:	b8078793          	addi	a5,a5,-1152 # 21b80 <__clzsi2+0xa8>
   14b54:	18071863          	bne	a4,zero,14ce4 <_vfprintf_r+0x2098>
   14b58:	00300c93          	addi	s9,zero,3
   14b5c:	000c8c13          	addi	s8,s9,0
   14b60:	af1fe06f          	jal	zero,13650 <_vfprintf_r+0xa04>
   14b64:	00c12783          	lw	a5,12(sp)
   14b68:	00812683          	lw	a3,8(sp)
   14b6c:	0007a783          	lw	a5,0(a5)
   14b70:	00d7a023          	sw	a3,0(a5)
   14b74:	00e12623          	sw	a4,12(sp)
   14b78:	9e0fe06f          	jal	zero,12d58 <_vfprintf_r+0x10c>
   14b7c:	000225b7          	lui	a1,0x22
   14b80:	09314e83          	lbu	t4,147(sp)
   14b84:	00f12623          	sw	a5,12(sp)
   14b88:	b9058593          	addi	a1,a1,-1136 # 21b90 <__clzsi2+0xb8>
   14b8c:	07800893          	addi	a7,zero,120
   14b90:	00200313          	addi	t1,zero,2
   14b94:	ac5ff06f          	jal	zero,14658 <_vfprintf_r+0x1a0c>
   14b98:	0bc12783          	lw	a5,188(sp)
   14b9c:	00412483          	lw	s1,4(sp)
   14ba0:	c8078c63          	beq	a5,zero,14038 <_vfprintf_r+0x13ec>
   14ba4:	00090513          	addi	a0,s2,0
   14ba8:	0b410613          	addi	a2,sp,180
   14bac:	00048593          	addi	a1,s1,0
   14bb0:	1f8010ef          	jal	ra,15da8 <__sprint_r>
   14bb4:	c84ff06f          	jal	zero,14038 <_vfprintf_r+0x13ec>
   14bb8:	480d8663          	beq	s11,zero,15044 <_vfprintf_r+0x23f8>
   14bbc:	0b812583          	lw	a1,184(sp)
   14bc0:	00000d93          	addi	s11,zero,0
   14bc4:	00098b13          	addi	s6,s3,0
   14bc8:	b08fe06f          	jal	zero,12ed0 <_vfprintf_r+0x284>
   14bcc:	00048813          	addi	a6,s1,0
   14bd0:	01660633          	add	a2,a2,s6
   14bd4:	001a8a93          	addi	s5,s5,1
   14bd8:	0ac12e23          	sw	a2,188(sp)
   14bdc:	0b512c23          	sw	s5,184(sp)
   14be0:	010da023          	sw	a6,0(s11)
   14be4:	016da223          	sw	s6,4(s11)
   14be8:	00700793          	addi	a5,zero,7
   14bec:	0157c463          	blt	a5,s5,14bf4 <_vfprintf_r+0x1fa8>
   14bf0:	99dfe06f          	jal	zero,1358c <_vfprintf_r+0x940>
   14bf4:	875ff06f          	jal	zero,14468 <_vfprintf_r+0x181c>
   14bf8:	200bf693          	andi	a3,s7,512
   14bfc:	48068c63          	beq	a3,zero,15094 <_vfprintf_r+0x2448>
   14c00:	0ff77713          	andi	a4,a4,255
   14c04:	00f12623          	sw	a5,12(sp)
   14c08:	000b8693          	addi	a3,s7,0
   14c0c:	00000613          	addi	a2,zero,0
   14c10:	f75fe06f          	jal	zero,13b84 <_vfprintf_r+0xf38>
   14c14:	200bf313          	andi	t1,s7,512
   14c18:	080109a3          	sb	zero,147(sp)
   14c1c:	44031c63          	bne	t1,zero,15074 <_vfprintf_r+0x2428>
   14c20:	00000e93          	addi	t4,zero,0
   14c24:	000ad463          	bge	s5,zero,14c2c <_vfprintf_r+0x1fe0>
   14c28:	dedfe06f          	jal	zero,13a14 <_vfprintf_r+0xdc8>
   14c2c:	f7fbfb93          	andi	s7,s7,-129
   14c30:	000a8463          	beq	s5,zero,14c38 <_vfprintf_r+0x1fec>
   14c34:	de1fe06f          	jal	zero,13a14 <_vfprintf_r+0xdc8>
   14c38:	9a0c0a63          	beq	s8,zero,13dec <_vfprintf_r+0x11a0>
   14c3c:	dd9fe06f          	jal	zero,13a14 <_vfprintf_r+0xdc8>
   14c40:	200bf713          	andi	a4,s7,512
   14c44:	42070063          	beq	a4,zero,15064 <_vfprintf_r+0x2418>
   14c48:	018c1c13          	slli	s8,s8,0x18
   14c4c:	418c5c13          	srai	s8,s8,0x18
   14c50:	41fc5e93          	srai	t4,s8,0x1f
   14c54:	00f12623          	sw	a5,12(sp)
   14c58:	000e8713          	addi	a4,t4,0
   14c5c:	cc1fe06f          	jal	zero,1391c <_vfprintf_r+0xcd0>
   14c60:	00012823          	sw	zero,16(sp)
   14c64:	00000c93          	addi	s9,zero,0
   14c68:	02012023          	sw	zero,32(sp)
   14c6c:	00012e23          	sw	zero,28(sp)
   14c70:	00000313          	addi	t1,zero,0
   14c74:	18010793          	addi	a5,sp,384
   14c78:	00000c13          	addi	s8,zero,0
   14c7c:	a00fe06f          	jal	zero,12e7c <_vfprintf_r+0x230>
   14c80:	100be713          	ori	a4,s7,256
   14c84:	fff00793          	addi	a5,zero,-1
   14c88:	00e12823          	sw	a4,16(sp)
   14c8c:	0c012e83          	lw	t4,192(sp)
   14c90:	0c412f03          	lw	t5,196(sp)
   14c94:	0c812283          	lw	t0,200(sp)
   14c98:	0cc12c83          	lw	s9,204(sp)
   14c9c:	56fa8463          	beq	s5,a5,15204 <_vfprintf_r+0x25b8>
   14ca0:	fb9c0793          	addi	a5,s8,-71
   14ca4:	00079463          	bne	a5,zero,14cac <_vfprintf_r+0x2060>
   14ca8:	6e0a8263          	beq	s5,zero,1538c <_vfprintf_r+0x2740>
   14cac:	420ccee3          	blt	s9,zero,158e8 <_vfprintf_r+0x2c9c>
   14cb0:	02012c23          	sw	zero,56(sp)
   14cb4:	55c0006f          	jal	zero,15210 <_vfprintf_r+0x25c4>
   14cb8:	0cc12f83          	lw	t6,204(sp)
   14cbc:	800007b7          	lui	a5,0x80000
   14cc0:	f7fbfb93          	andi	s7,s7,-129
   14cc4:	00fff333          	and	t1,t6,a5
   14cc8:	3c030e63          	beq	t1,zero,150a4 <_vfprintf_r+0x2458>
   14ccc:	02d00793          	addi	a5,zero,45
   14cd0:	08f109a3          	sb	a5,147(sp)
   14cd4:	04700793          	addi	a5,zero,71
   14cd8:	4f17d6e3          	bge	a5,a7,159c4 <_vfprintf_r+0x2d78>
   14cdc:	000227b7          	lui	a5,0x22
   14ce0:	b8c78793          	addi	a5,a5,-1140 # 21b8c <__clzsi2+0xb4>
   14ce4:	00012823          	sw	zero,16(sp)
   14ce8:	00300c93          	addi	s9,zero,3
   14cec:	00000a93          	addi	s5,zero,0
   14cf0:	02012023          	sw	zero,32(sp)
   14cf4:	00012e23          	sw	zero,28(sp)
   14cf8:	00000313          	addi	t1,zero,0
   14cfc:	00400c13          	addi	s8,zero,4
   14d00:	97cfe06f          	jal	zero,12e7c <_vfprintf_r+0x230>
   14d04:	00f12623          	sw	a5,12(sp)
   14d08:	000e0b93          	addi	s7,t3,0
   14d0c:	d09fe06f          	jal	zero,13a14 <_vfprintf_r+0xdc8>
   14d10:	bffbfe13          	andi	t3,s7,-1025
   14d14:	002e6b93          	ori	s7,t3,2
   14d18:	00200313          	addi	t1,zero,2
   14d1c:	00000e93          	addi	t4,zero,0
   14d20:	939ff06f          	jal	zero,14658 <_vfprintf_r+0x1a0c>
   14d24:	01c12703          	lw	a4,28(sp)
   14d28:	02012683          	lw	a3,32(sp)
   14d2c:	00d76733          	or	a4,a4,a3
   14d30:	72070ee3          	beq	a4,zero,15c6c <_vfprintf_r+0x3020>
   14d34:	01812703          	lw	a4,24(sp)
   14d38:	03712e23          	sw	s7,60(sp)
   14d3c:	05812023          	sw	s8,64(sp)
   14d40:	000d8b93          	addi	s7,s11,0
   14d44:	05a12423          	sw	s10,72(sp)
   14d48:	01c12a83          	lw	s5,28(sp)
   14d4c:	02012d83          	lw	s11,32(sp)
   14d50:	04412c03          	lw	s8,68(sp)
   14d54:	03012d03          	lw	s10,48(sp)
   14d58:	0006e8b7          	lui	a7,0x6e
   14d5c:	000b0693          	addi	a3,s6,0
   14d60:	26c88893          	addi	a7,a7,620 # 6e26c <zeroes.0>
   14d64:	00700813          	addi	a6,zero,7
   14d68:	01000c93          	addi	s9,zero,16
   14d6c:	02f12c23          	sw	a5,56(sp)
   14d70:	00e78b33          	add	s6,a5,a4
   14d74:	09b04a63          	blt	zero,s11,14e08 <_vfprintf_r+0x21bc>
   14d78:	fffd0d13          	addi	s10,s10,-1
   14d7c:	fffa8a93          	addi	s5,s5,-1
   14d80:	0b812783          	lw	a5,184(sp)
   14d84:	03412703          	lw	a4,52(sp)
   14d88:	01860633          	add	a2,a2,s8
   14d8c:	00178793          	addi	a5,a5,1
   14d90:	00e6a023          	sw	a4,0(a3)
   14d94:	0186a223          	sw	s8,4(a3)
   14d98:	0ac12e23          	sw	a2,188(sp)
   14d9c:	0af12c23          	sw	a5,184(sp)
   14da0:	00868693          	addi	a3,a3,8
   14da4:	10f84a63          	blt	a6,a5,14eb8 <_vfprintf_r+0x226c>
   14da8:	000d4583          	lbu	a1,0(s10)
   14dac:	417b04b3          	sub	s1,s6,s7
   14db0:	000b0713          	addi	a4,s6,0
   14db4:	0095d463          	bge	a1,s1,14dbc <_vfprintf_r+0x2170>
   14db8:	00058493          	addi	s1,a1,0
   14dbc:	02905663          	bge	zero,s1,14de8 <_vfprintf_r+0x219c>
   14dc0:	0b812583          	lw	a1,184(sp)
   14dc4:	00960633          	add	a2,a2,s1
   14dc8:	0ac12e23          	sw	a2,188(sp)
   14dcc:	00158593          	addi	a1,a1,1
   14dd0:	0176a023          	sw	s7,0(a3)
   14dd4:	0096a223          	sw	s1,4(a3)
   14dd8:	0ab12c23          	sw	a1,184(sp)
   14ddc:	10b84463          	blt	a6,a1,14ee4 <_vfprintf_r+0x2298>
   14de0:	000d4583          	lbu	a1,0(s10)
   14de4:	00868693          	addi	a3,a3,8
   14de8:	fff4c513          	xori	a0,s1,-1
   14dec:	41f55513          	srai	a0,a0,0x1f
   14df0:	00a4f7b3          	and	a5,s1,a0
   14df4:	40f584b3          	sub	s1,a1,a5
   14df8:	00904c63          	blt	zero,s1,14e10 <_vfprintf_r+0x21c4>
   14dfc:	00bb8bb3          	add	s7,s7,a1
   14e00:	f7504ae3          	blt	zero,s5,14d74 <_vfprintf_r+0x2128>
   14e04:	55b05e63          	bge	zero,s11,15360 <_vfprintf_r+0x2714>
   14e08:	fffd8d93          	addi	s11,s11,-1
   14e0c:	f75ff06f          	jal	zero,14d80 <_vfprintf_r+0x2134>
   14e10:	0006e2b7          	lui	t0,0x6e
   14e14:	0b812583          	lw	a1,184(sp)
   14e18:	26c28293          	addi	t0,t0,620 # 6e26c <zeroes.0>
   14e1c:	069cda63          	bge	s9,s1,14e90 <_vfprintf_r+0x2244>
   14e20:	00e12e23          	sw	a4,28(sp)
   14e24:	03112023          	sw	a7,32(sp)
   14e28:	00c0006f          	jal	zero,14e34 <_vfprintf_r+0x21e8>
   14e2c:	ff048493          	addi	s1,s1,-16
   14e30:	049cdc63          	bge	s9,s1,14e88 <_vfprintf_r+0x223c>
   14e34:	01060613          	addi	a2,a2,16
   14e38:	00158593          	addi	a1,a1,1
   14e3c:	0116a023          	sw	a7,0(a3)
   14e40:	0196a223          	sw	s9,4(a3)
   14e44:	0ac12e23          	sw	a2,188(sp)
   14e48:	0ab12c23          	sw	a1,184(sp)
   14e4c:	00868693          	addi	a3,a3,8
   14e50:	fcb85ee3          	bge	a6,a1,14e2c <_vfprintf_r+0x21e0>
   14e54:	00412583          	lw	a1,4(sp)
   14e58:	0b410613          	addi	a2,sp,180
   14e5c:	00090513          	addi	a0,s2,0
   14e60:	749000ef          	jal	ra,15da8 <__sprint_r>
   14e64:	9c051063          	bne	a0,zero,14024 <_vfprintf_r+0x13d8>
   14e68:	0006e7b7          	lui	a5,0x6e
   14e6c:	ff048493          	addi	s1,s1,-16
   14e70:	0bc12603          	lw	a2,188(sp)
   14e74:	0b812583          	lw	a1,184(sp)
   14e78:	00098693          	addi	a3,s3,0
   14e7c:	26c78893          	addi	a7,a5,620 # 6e26c <zeroes.0>
   14e80:	00700813          	addi	a6,zero,7
   14e84:	fa9cc8e3          	blt	s9,s1,14e34 <_vfprintf_r+0x21e8>
   14e88:	01c12703          	lw	a4,28(sp)
   14e8c:	02012283          	lw	t0,32(sp)
   14e90:	00960633          	add	a2,a2,s1
   14e94:	00158593          	addi	a1,a1,1
   14e98:	0ac12e23          	sw	a2,188(sp)
   14e9c:	0ab12c23          	sw	a1,184(sp)
   14ea0:	0056a023          	sw	t0,0(a3)
   14ea4:	0096a223          	sw	s1,4(a3)
   14ea8:	78b84663          	blt	a6,a1,15634 <_vfprintf_r+0x29e8>
   14eac:	000d4583          	lbu	a1,0(s10)
   14eb0:	00868693          	addi	a3,a3,8
   14eb4:	f49ff06f          	jal	zero,14dfc <_vfprintf_r+0x21b0>
   14eb8:	00412583          	lw	a1,4(sp)
   14ebc:	0b410613          	addi	a2,sp,180
   14ec0:	00090513          	addi	a0,s2,0
   14ec4:	6e5000ef          	jal	ra,15da8 <__sprint_r>
   14ec8:	94051e63          	bne	a0,zero,14024 <_vfprintf_r+0x13d8>
   14ecc:	0006e7b7          	lui	a5,0x6e
   14ed0:	0bc12603          	lw	a2,188(sp)
   14ed4:	00098693          	addi	a3,s3,0
   14ed8:	26c78893          	addi	a7,a5,620 # 6e26c <zeroes.0>
   14edc:	00700813          	addi	a6,zero,7
   14ee0:	ec9ff06f          	jal	zero,14da8 <_vfprintf_r+0x215c>
   14ee4:	00412583          	lw	a1,4(sp)
   14ee8:	0b410613          	addi	a2,sp,180
   14eec:	00090513          	addi	a0,s2,0
   14ef0:	00e12e23          	sw	a4,28(sp)
   14ef4:	6b5000ef          	jal	ra,15da8 <__sprint_r>
   14ef8:	92051663          	bne	a0,zero,14024 <_vfprintf_r+0x13d8>
   14efc:	0006e7b7          	lui	a5,0x6e
   14f00:	000d4583          	lbu	a1,0(s10)
   14f04:	0bc12603          	lw	a2,188(sp)
   14f08:	01c12703          	lw	a4,28(sp)
   14f0c:	00098693          	addi	a3,s3,0
   14f10:	26c78893          	addi	a7,a5,620 # 6e26c <zeroes.0>
   14f14:	00700813          	addi	a6,zero,7
   14f18:	ed1ff06f          	jal	zero,14de8 <_vfprintf_r+0x219c>
   14f1c:	03812303          	lw	t1,56(sp)
   14f20:	000a8813          	addi	a6,s5,0
   14f24:	000d8793          	addi	a5,s11,0
   14f28:	00048a93          	addi	s5,s1,0
   14f2c:	01560633          	add	a2,a2,s5
   14f30:	00170713          	addi	a4,a4,1
   14f34:	010b2023          	sw	a6,0(s6)
   14f38:	015b2223          	sw	s5,4(s6)
   14f3c:	0ac12e23          	sw	a2,188(sp)
   14f40:	0ae12c23          	sw	a4,184(sp)
   14f44:	00700593          	addi	a1,zero,7
   14f48:	008b0b13          	addi	s6,s6,8
   14f4c:	b0e5d663          	bge	a1,a4,14258 <_vfprintf_r+0x160c>
   14f50:	00412583          	lw	a1,4(sp)
   14f54:	0b410613          	addi	a2,sp,180
   14f58:	00090513          	addi	a0,s2,0
   14f5c:	02612e23          	sw	t1,60(sp)
   14f60:	02f12c23          	sw	a5,56(sp)
   14f64:	645000ef          	jal	ra,15da8 <__sprint_r>
   14f68:	8a051e63          	bne	a0,zero,14024 <_vfprintf_r+0x13d8>
   14f6c:	0bc12603          	lw	a2,188(sp)
   14f70:	03c12303          	lw	t1,60(sp)
   14f74:	03812783          	lw	a5,56(sp)
   14f78:	00098b13          	addi	s6,s3,0
   14f7c:	adcff06f          	jal	zero,14258 <_vfprintf_r+0x160c>
   14f80:	00078c13          	addi	s8,a5,0
   14f84:	fecff06f          	jal	zero,14770 <_vfprintf_r+0x1b24>
   14f88:	00412583          	lw	a1,4(sp)
   14f8c:	0b410613          	addi	a2,sp,180
   14f90:	00090513          	addi	a0,s2,0
   14f94:	02612e23          	sw	t1,60(sp)
   14f98:	02f12c23          	sw	a5,56(sp)
   14f9c:	60d000ef          	jal	ra,15da8 <__sprint_r>
   14fa0:	88051263          	bne	a0,zero,14024 <_vfprintf_r+0x13d8>
   14fa4:	0bc12603          	lw	a2,188(sp)
   14fa8:	03c12303          	lw	t1,60(sp)
   14fac:	03812783          	lw	a5,56(sp)
   14fb0:	00098b13          	addi	s6,s3,0
   14fb4:	a90ff06f          	jal	zero,14244 <_vfprintf_r+0x15f8>
   14fb8:	001bf713          	andi	a4,s7,1
   14fbc:	00071463          	bne	a4,zero,14fc4 <_vfprintf_r+0x2378>
   14fc0:	f85fd06f          	jal	zero,12f44 <_vfprintf_r+0x2f8>
   14fc4:	02412683          	lw	a3,36(sp)
   14fc8:	0b812703          	lw	a4,184(sp)
   14fcc:	00700593          	addi	a1,zero,7
   14fd0:	00c68633          	add	a2,a3,a2
   14fd4:	02812683          	lw	a3,40(sp)
   14fd8:	00170713          	addi	a4,a4,1
   14fdc:	0ac12e23          	sw	a2,188(sp)
   14fe0:	00db2023          	sw	a3,0(s6)
   14fe4:	02412683          	lw	a3,36(sp)
   14fe8:	0ae12c23          	sw	a4,184(sp)
   14fec:	00db2223          	sw	a3,4(s6)
   14ff0:	74e5d863          	bge	a1,a4,15740 <_vfprintf_r+0x2af4>
   14ff4:	00412583          	lw	a1,4(sp)
   14ff8:	0b410613          	addi	a2,sp,180
   14ffc:	00090513          	addi	a0,s2,0
   15000:	00f12e23          	sw	a5,28(sp)
   15004:	5a5000ef          	jal	ra,15da8 <__sprint_r>
   15008:	00050463          	beq	a0,zero,15010 <_vfprintf_r+0x23c4>
   1500c:	818ff06f          	jal	zero,14024 <_vfprintf_r+0x13d8>
   15010:	09812503          	lw	a0,152(sp)
   15014:	0bc12603          	lw	a2,188(sp)
   15018:	0b812703          	lw	a4,184(sp)
   1501c:	01c12783          	lw	a5,28(sp)
   15020:	00098b13          	addi	s6,s3,0
   15024:	9e5ff06f          	jal	zero,14a08 <_vfprintf_r+0x1dbc>
   15028:	01812703          	lw	a4,24(sp)
   1502c:	00e787b3          	add	a5,a5,a4
   15030:	41b78cb3          	sub	s9,a5,s11
   15034:	41570ab3          	sub	s5,a4,s5
   15038:	ad9ad063          	bge	s5,s9,142f8 <_vfprintf_r+0x16ac>
   1503c:	000a8c93          	addi	s9,s5,0
   15040:	ab8ff06f          	jal	zero,142f8 <_vfprintf_r+0x16ac>
   15044:	00098b13          	addi	s6,s3,0
   15048:	ec5fd06f          	jal	zero,12f0c <_vfprintf_r+0x2c0>
   1504c:	00c12783          	lw	a5,12(sp)
   15050:	00812683          	lw	a3,8(sp)
   15054:	00e12623          	sw	a4,12(sp)
   15058:	0007a783          	lw	a5,0(a5)
   1505c:	00d79023          	sh	a3,0(a5)
   15060:	cf9fd06f          	jal	zero,12d58 <_vfprintf_r+0x10c>
   15064:	41fc5e93          	srai	t4,s8,0x1f
   15068:	00f12623          	sw	a5,12(sp)
   1506c:	000e8713          	addi	a4,t4,0
   15070:	8adfe06f          	jal	zero,1391c <_vfprintf_r+0xcd0>
   15074:	0ffc7c13          	andi	s8,s8,255
   15078:	00000e93          	addi	t4,zero,0
   1507c:	000ac463          	blt	s5,zero,15084 <_vfprintf_r+0x2438>
   15080:	bfdfe06f          	jal	zero,13c7c <_vfprintf_r+0x1030>
   15084:	98dfe06f          	jal	zero,13a10 <_vfprintf_r+0xdc4>
   15088:	0ff77713          	andi	a4,a4,255
   1508c:	00000613          	addi	a2,zero,0
   15090:	e98ff06f          	jal	zero,14728 <_vfprintf_r+0x1adc>
   15094:	00f12623          	sw	a5,12(sp)
   15098:	000b8693          	addi	a3,s7,0
   1509c:	00000613          	addi	a2,zero,0
   150a0:	ae5fe06f          	jal	zero,13b84 <_vfprintf_r+0xf38>
   150a4:	04700793          	addi	a5,zero,71
   150a8:	09314703          	lbu	a4,147(sp)
   150ac:	1117d2e3          	bge	a5,a7,159b0 <_vfprintf_r+0x2d64>
   150b0:	000227b7          	lui	a5,0x22
   150b4:	b8c78793          	addi	a5,a5,-1140 # 21b8c <__clzsi2+0xb4>
   150b8:	3e0712e3          	bne	a4,zero,15c9c <_vfprintf_r+0x3050>
   150bc:	00300c93          	addi	s9,zero,3
   150c0:	000c8c13          	addi	s8,s9,0
   150c4:	00000a93          	addi	s5,zero,0
   150c8:	02012023          	sw	zero,32(sp)
   150cc:	00012e23          	sw	zero,28(sp)
   150d0:	00012823          	sw	zero,16(sp)
   150d4:	da9fd06f          	jal	zero,12e7c <_vfprintf_r+0x230>
   150d8:	000227b7          	lui	a5,0x22
   150dc:	b8478793          	addi	a5,a5,-1148 # 21b84 <__clzsi2+0xac>
   150e0:	a75ff06f          	jal	zero,14b54 <_vfprintf_r+0x1f08>
   150e4:	04412703          	lw	a4,68(sp)
   150e8:	03412583          	lw	a1,52(sp)
   150ec:	01d12e23          	sw	t4,28(sp)
   150f0:	40e786b3          	sub	a3,a5,a4
   150f4:	00070613          	addi	a2,a4,0
   150f8:	00068513          	addi	a0,a3,0
   150fc:	01012c23          	sw	a6,24(sp)
   15100:	00d12823          	sw	a3,16(sp)
   15104:	00d010ef          	jal	ra,16910 <strncpy>
   15108:	01c12e83          	lw	t4,28(sp)
   1510c:	ccccd637          	lui	a2,0xccccd
   15110:	ccd60613          	addi	a2,a2,-819 # cccccccd <__BSS_END__+0xccbb919d>
   15114:	01dc0733          	add	a4,s8,t4
   15118:	018737b3          	sltu	a5,a4,s8
   1511c:	00f70733          	add	a4,a4,a5
   15120:	02c735b3          	mulhu	a1,a4,a2
   15124:	ccccd537          	lui	a0,0xccccd
   15128:	ccc50513          	addi	a0,a0,-820 # cccccccc <__BSS_END__+0xccbb919c>
   1512c:	03012783          	lw	a5,48(sp)
   15130:	03012683          	lw	a3,48(sp)
   15134:	01812803          	lw	a6,24(sp)
   15138:	0017c783          	lbu	a5,1(a5)
   1513c:	00f037b3          	sltu	a5,zero,a5
   15140:	0025d893          	srli	a7,a1,0x2
   15144:	ffc5f593          	andi	a1,a1,-4
   15148:	011585b3          	add	a1,a1,a7
   1514c:	40b70733          	sub	a4,a4,a1
   15150:	40ec0733          	sub	a4,s8,a4
   15154:	00ec35b3          	sltu	a1,s8,a4
   15158:	40be85b3          	sub	a1,t4,a1
   1515c:	02a70533          	mul	a0,a4,a0
   15160:	00f687b3          	add	a5,a3,a5
   15164:	01012683          	lw	a3,16(sp)
   15168:	02f12823          	sw	a5,48(sp)
   1516c:	fff68793          	addi	a5,a3,-1
   15170:	02c585b3          	mul	a1,a1,a2
   15174:	00a585b3          	add	a1,a1,a0
   15178:	02c73533          	mulhu	a0,a4,a2
   1517c:	02c70733          	mul	a4,a4,a2
   15180:	00a585b3          	add	a1,a1,a0
   15184:	01f59513          	slli	a0,a1,0x1f
   15188:	0015de93          	srli	t4,a1,0x1
   1518c:	00100593          	addi	a1,zero,1
   15190:	00175713          	srli	a4,a4,0x1
   15194:	00e50c33          	add	s8,a0,a4
   15198:	01dc0733          	add	a4,s8,t4
   1519c:	01873533          	sltu	a0,a4,s8
   151a0:	00a70733          	add	a4,a4,a0
   151a4:	02c73533          	mulhu	a0,a4,a2
   151a8:	00255893          	srli	a7,a0,0x2
   151ac:	ffc57513          	andi	a0,a0,-4
   151b0:	01150533          	add	a0,a0,a7
   151b4:	40a70733          	sub	a4,a4,a0
   151b8:	40ec0733          	sub	a4,s8,a4
   151bc:	00ec3533          	sltu	a0,s8,a4
   151c0:	40ae8533          	sub	a0,t4,a0
   151c4:	02c738b3          	mulhu	a7,a4,a2
   151c8:	02c50533          	mul	a0,a0,a2
   151cc:	02c70733          	mul	a4,a4,a2
   151d0:	01150633          	add	a2,a0,a7
   151d4:	01f61613          	slli	a2,a2,0x1f
   151d8:	00175713          	srli	a4,a4,0x1
   151dc:	00e60733          	add	a4,a2,a4
   151e0:	00271613          	slli	a2,a4,0x2
   151e4:	00e60733          	add	a4,a2,a4
   151e8:	00171713          	slli	a4,a4,0x1
   151ec:	40ec0733          	sub	a4,s8,a4
   151f0:	03070713          	addi	a4,a4,48
   151f4:	fee68fa3          	sb	a4,-1(a3)
   151f8:	ab9fe06f          	jal	zero,13cb0 <_vfprintf_r+0x1064>
   151fc:	07800793          	addi	a5,zero,120
   15200:	ed5fd06f          	jal	zero,130d4 <_vfprintf_r+0x488>
   15204:	6e0cc063          	blt	s9,zero,158e4 <_vfprintf_r+0x2c98>
   15208:	02012c23          	sw	zero,56(sp)
   1520c:	00600a93          	addi	s5,zero,6
   15210:	04600793          	addi	a5,zero,70
   15214:	44fc1e63          	bne	s8,a5,15670 <_vfprintf_r+0x2a24>
   15218:	09c10793          	addi	a5,sp,156
   1521c:	09810713          	addi	a4,sp,152
   15220:	000a8693          	addi	a3,s5,0
   15224:	08010593          	addi	a1,sp,128
   15228:	0a010813          	addi	a6,sp,160
   1522c:	00300613          	addi	a2,zero,3
   15230:	00090513          	addi	a0,s2,0
   15234:	03112e23          	sw	a7,60(sp)
   15238:	09d12023          	sw	t4,128(sp)
   1523c:	03d12023          	sw	t4,32(sp)
   15240:	09e12223          	sw	t5,132(sp)
   15244:	01e12e23          	sw	t5,28(sp)
   15248:	08512423          	sw	t0,136(sp)
   1524c:	00512c23          	sw	t0,24(sp)
   15250:	09912623          	sw	s9,140(sp)
