
./rijndael_O3:     file format elf32-littleriscv


Disassembly of section .text:

000100b4 <exit>:
   100b4:	ff010113          	addi	sp,sp,-16
   100b8:	00000593          	addi	a1,zero,0
   100bc:	00812423          	sw	s0,8(sp)
   100c0:	00112623          	sw	ra,12(sp)
   100c4:	00050413          	addi	s0,a0,0
   100c8:	5d0030ef          	jal	ra,13698 <__call_exitprocs>
   100cc:	8841a783          	lw	a5,-1916(gp) # 7073c <__stdio_exit_handler>
   100d0:	00078463          	beq	a5,zero,100d8 <exit+0x24>
   100d4:	000780e7          	jalr	ra,0(a5)
   100d8:	00040513          	addi	a0,s0,0
   100dc:	6640e0ef          	jal	ra,1e740 <_exit>

000100e0 <main>:
   100e0:	000236b7          	lui	a3,0x23
   100e4:	dc010113          	addi	sp,sp,-576
   100e8:	35868693          	addi	a3,a3,856 # 23358 <__clzsi2+0x50>
   100ec:	22112e23          	sw	ra,572(sp)
   100f0:	23312623          	sw	s3,556(sp)
   100f4:	04068893          	addi	a7,a3,64
   100f8:	01410613          	addi	a2,sp,20
   100fc:	00900513          	addi	a0,zero,9
   10100:	00500593          	addi	a1,zero,5
   10104:	0640006f          	jal	zero,10168 <main+0x88>
   10108:	fbf70793          	addi	a5,a4,-65
   1010c:	0ff7f793          	andi	a5,a5,255
   10110:	3cf5f263          	bgeu	a1,a5,104d4 <main+0x3f4>
   10114:	f9f70793          	addi	a5,a4,-97
   10118:	0ff7f793          	andi	a5,a5,255
   1011c:	06f5e6e3          	bltu	a1,a5,10988 <main+0x8a8>
   10120:	0016c803          	lbu	a6,1(a3)
   10124:	fa970793          	addi	a5,a4,-87
   10128:	fd080713          	addi	a4,a6,-48
   1012c:	0ff77313          	andi	t1,a4,255
   10130:	02657063          	bgeu	a0,t1,10150 <main+0x70>
   10134:	fbf80713          	addi	a4,a6,-65
   10138:	0ff77713          	andi	a4,a4,255
   1013c:	04e5fc63          	bgeu	a1,a4,10194 <main+0xb4>
   10140:	f9f80713          	addi	a4,a6,-97
   10144:	0ff77713          	andi	a4,a4,255
   10148:	04e5e0e3          	bltu	a1,a4,10988 <main+0x8a8>
   1014c:	fa980713          	addi	a4,a6,-87
   10150:	00479793          	slli	a5,a5,0x4
   10154:	00e7e7b3          	or	a5,a5,a4
   10158:	00f60023          	sb	a5,0(a2)
   1015c:	00268693          	addi	a3,a3,2
   10160:	00160613          	addi	a2,a2,1
   10164:	04d88663          	beq	a7,a3,101b0 <main+0xd0>
   10168:	0006c703          	lbu	a4,0(a3)
   1016c:	fd070793          	addi	a5,a4,-48
   10170:	0ff7f813          	andi	a6,a5,255
   10174:	f9056ae3          	bltu	a0,a6,10108 <main+0x28>
   10178:	0016c803          	lbu	a6,1(a3)
   1017c:	fd080713          	addi	a4,a6,-48
   10180:	0ff77313          	andi	t1,a4,255
   10184:	fc6576e3          	bgeu	a0,t1,10150 <main+0x70>
   10188:	fbf80713          	addi	a4,a6,-65
   1018c:	0ff77713          	andi	a4,a4,255
   10190:	fae5e8e3          	bltu	a1,a4,10140 <main+0x60>
   10194:	fc980713          	addi	a4,a6,-55
   10198:	00479793          	slli	a5,a5,0x4
   1019c:	00e7e7b3          	or	a5,a5,a4
   101a0:	00f60023          	sb	a5,0(a2)
   101a4:	00268693          	addi	a3,a3,2
   101a8:	00160613          	addi	a2,a2,1
   101ac:	fad89ee3          	bne	a7,a3,10168 <main+0x88>
   101b0:	03410693          	addi	a3,sp,52
   101b4:	00100613          	addi	a2,zero,1
   101b8:	02000593          	addi	a1,zero,32
   101bc:	01410513          	addi	a0,sp,20
   101c0:	22812c23          	sw	s0,568(sp)
   101c4:	22912a23          	sw	s1,564(sp)
   101c8:	23212823          	sw	s2,560(sp)
   101cc:	0bd000ef          	jal	ra,10a88 <set_key>
   101d0:	8701a683          	lw	a3,-1936(gp) # 70728 <count.4>
   101d4:	86818813          	addi	a6,gp,-1944 # 70720 <a.3>
   101d8:	00400893          	addi	a7,zero,4
   101dc:	00082783          	lw	a5,0(a6)
   101e0:	00482703          	lw	a4,4(a6)
   101e4:	53168663          	beq	a3,a7,10710 <main+0x630>
   101e8:	88018593          	addi	a1,gp,-1920 # 70738 <r.2>
   101ec:	00d58633          	add	a2,a1,a3
   101f0:	00064e03          	lbu	t3,0(a2)
   101f4:	000bf4b7          	lui	s1,0xbf
   101f8:	00168613          	addi	a2,a3,1
   101fc:	97c48c23          	sb	t3,-1672(s1) # be978 <cipher_buffer.1>
   10200:	2f161663          	bne	a2,a7,104ec <main+0x40c>
   10204:	01079e13          	slli	t3,a5,0x10
   10208:	000096b7          	lui	a3,0x9
   1020c:	01071e93          	slli	t4,a4,0x10
   10210:	06968693          	addi	a3,a3,105 # 9069 <exit-0x704b>
   10214:	010e5e13          	srli	t3,t3,0x10
   10218:	00004f37          	lui	t5,0x4
   1021c:	02de0e33          	mul	t3,t3,a3
   10220:	010ede93          	srli	t4,t4,0x10
   10224:	650f0f13          	addi	t5,t5,1616 # 4650 <exit-0xba64>
   10228:	0107d793          	srli	a5,a5,0x10
   1022c:	01075713          	srli	a4,a4,0x10
   10230:	97848613          	addi	a2,s1,-1672
   10234:	00200693          	addi	a3,zero,2
   10238:	00100893          	addi	a7,zero,1
   1023c:	03ee8eb3          	mul	t4,t4,t5
   10240:	00fe07b3          	add	a5,t3,a5
   10244:	01079e13          	slli	t3,a5,0x10
   10248:	00ee8733          	add	a4,t4,a4
   1024c:	00ee0e33          	add	t3,t3,a4
   10250:	89c1a023          	sw	t3,-1920(gp) # 70738 <r.2>
   10254:	0015ce83          	lbu	t4,1(a1)
   10258:	01c600a3          	sb	t3,1(a2)
   1025c:	01d60123          	sb	t4,2(a2)
   10260:	00d58e33          	add	t3,a1,a3
   10264:	000e4e83          	lbu	t4,0(t3)
   10268:	00168693          	addi	a3,a3,1
   1026c:	00400e13          	addi	t3,zero,4
   10270:	01d601a3          	sb	t4,3(a2)
   10274:	2fc69063          	bne	a3,t3,10554 <main+0x474>
   10278:	01079e13          	slli	t3,a5,0x10
   1027c:	000096b7          	lui	a3,0x9
   10280:	01071e93          	slli	t4,a4,0x10
   10284:	06968693          	addi	a3,a3,105 # 9069 <exit-0x704b>
   10288:	010e5e13          	srli	t3,t3,0x10
   1028c:	00004f37          	lui	t5,0x4
   10290:	02de0e33          	mul	t3,t3,a3
   10294:	010ede93          	srli	t4,t4,0x10
   10298:	650f0f13          	addi	t5,t5,1616 # 4650 <exit-0xba64>
   1029c:	0107d793          	srli	a5,a5,0x10
   102a0:	01075713          	srli	a4,a4,0x10
   102a4:	00200693          	addi	a3,zero,2
   102a8:	00100893          	addi	a7,zero,1
   102ac:	03ee8eb3          	mul	t4,t4,t5
   102b0:	00fe07b3          	add	a5,t3,a5
   102b4:	01079e13          	slli	t3,a5,0x10
   102b8:	00ee8733          	add	a4,t4,a4
   102bc:	00ee0e33          	add	t3,t3,a4
   102c0:	89c1a023          	sw	t3,-1920(gp) # 70738 <r.2>
   102c4:	01c61223          	sh	t3,4(a2)
   102c8:	00d58e33          	add	t3,a1,a3
   102cc:	000e4e83          	lbu	t4,0(t3)
   102d0:	00168693          	addi	a3,a3,1
   102d4:	00400e13          	addi	t3,zero,4
   102d8:	01d60323          	sb	t4,6(a2)
   102dc:	2fc69463          	bne	a3,t3,105c4 <main+0x4e4>
   102e0:	01079e13          	slli	t3,a5,0x10
   102e4:	000096b7          	lui	a3,0x9
   102e8:	01071e93          	slli	t4,a4,0x10
   102ec:	06968693          	addi	a3,a3,105 # 9069 <exit-0x704b>
   102f0:	010e5e13          	srli	t3,t3,0x10
   102f4:	00004f37          	lui	t5,0x4
   102f8:	02de0e33          	mul	t3,t3,a3
   102fc:	010ede93          	srli	t4,t4,0x10
   10300:	650f0f13          	addi	t5,t5,1616 # 4650 <exit-0xba64>
   10304:	0107d793          	srli	a5,a5,0x10
   10308:	01075713          	srli	a4,a4,0x10
   1030c:	00200693          	addi	a3,zero,2
   10310:	00100893          	addi	a7,zero,1
   10314:	03ee8eb3          	mul	t4,t4,t5
   10318:	00fe07b3          	add	a5,t3,a5
   1031c:	01079e13          	slli	t3,a5,0x10
   10320:	00ee8733          	add	a4,t4,a4
   10324:	00ee0e33          	add	t3,t3,a4
   10328:	89c1a023          	sw	t3,-1920(gp) # 70738 <r.2>
   1032c:	0015ce83          	lbu	t4,1(a1)
   10330:	01c603a3          	sb	t3,7(a2)
   10334:	01d60423          	sb	t4,8(a2)
   10338:	00d58e33          	add	t3,a1,a3
   1033c:	000e4e83          	lbu	t4,0(t3)
   10340:	00168693          	addi	a3,a3,1
   10344:	00400e13          	addi	t3,zero,4
   10348:	01d604a3          	sb	t4,9(a2)
   1034c:	2fc69063          	bne	a3,t3,1062c <main+0x54c>
   10350:	01079e13          	slli	t3,a5,0x10
   10354:	000096b7          	lui	a3,0x9
   10358:	01071e93          	slli	t4,a4,0x10
   1035c:	06968693          	addi	a3,a3,105 # 9069 <exit-0x704b>
   10360:	010e5e13          	srli	t3,t3,0x10
   10364:	00004f37          	lui	t5,0x4
   10368:	02de0e33          	mul	t3,t3,a3
   1036c:	010ede93          	srli	t4,t4,0x10
   10370:	650f0f13          	addi	t5,t5,1616 # 4650 <exit-0xba64>
   10374:	0107d793          	srli	a5,a5,0x10
   10378:	01075713          	srli	a4,a4,0x10
   1037c:	00200693          	addi	a3,zero,2
   10380:	00100893          	addi	a7,zero,1
   10384:	03ee8eb3          	mul	t4,t4,t5
   10388:	00fe07b3          	add	a5,t3,a5
   1038c:	01079e13          	slli	t3,a5,0x10
   10390:	00ee8733          	add	a4,t4,a4
   10394:	00ee0e33          	add	t3,t3,a4
   10398:	89c1a023          	sw	t3,-1920(gp) # 70738 <r.2>
   1039c:	01c61523          	sh	t3,10(a2)
   103a0:	00d58e33          	add	t3,a1,a3
   103a4:	000e4e83          	lbu	t4,0(t3)
   103a8:	00168693          	addi	a3,a3,1
   103ac:	00400e13          	addi	t3,zero,4
   103b0:	01d60623          	sb	t4,12(a2)
   103b4:	2fc69463          	bne	a3,t3,1069c <main+0x5bc>
   103b8:	01079e13          	slli	t3,a5,0x10
   103bc:	000096b7          	lui	a3,0x9
   103c0:	01071e93          	slli	t4,a4,0x10
   103c4:	06968693          	addi	a3,a3,105 # 9069 <exit-0x704b>
   103c8:	010e5e13          	srli	t3,t3,0x10
   103cc:	00004f37          	lui	t5,0x4
   103d0:	02de0e33          	mul	t3,t3,a3
   103d4:	010ede93          	srli	t4,t4,0x10
   103d8:	650f0f13          	addi	t5,t5,1616 # 4650 <exit-0xba64>
   103dc:	0107d793          	srli	a5,a5,0x10
   103e0:	01075713          	srli	a4,a4,0x10
   103e4:	00200693          	addi	a3,zero,2
   103e8:	00100893          	addi	a7,zero,1
   103ec:	03ee8eb3          	mul	t4,t4,t5
   103f0:	00fe07b3          	add	a5,t3,a5
   103f4:	01079e13          	slli	t3,a5,0x10
   103f8:	00ee8733          	add	a4,t4,a4
   103fc:	00ee0e33          	add	t3,t3,a4
   10400:	89c1a023          	sw	t3,-1920(gp) # 70738 <r.2>
   10404:	0015c503          	lbu	a0,1(a1)
   10408:	01c606a3          	sb	t3,13(a2)
   1040c:	00a60723          	sb	a0,14(a2)
   10410:	00d585b3          	add	a1,a1,a3
   10414:	0005c583          	lbu	a1,0(a1)
   10418:	00168693          	addi	a3,a3,1
   1041c:	86d1a823          	sw	a3,-1936(gp) # 70728 <count.4>
   10420:	00b607a3          	sb	a1,15(a2)
   10424:	2e089063          	bne	a7,zero,10704 <main+0x624>
   10428:	00023537          	lui	a0,0x23
   1042c:	0004c5b7          	lui	a1,0x4c
   10430:	00c10713          	addi	a4,sp,12
   10434:	21058593          	addi	a1,a1,528 # 4c210 <input_small_data+0x28af4>
   10438:	97848693          	addi	a3,s1,-1672
   1043c:	03410613          	addi	a2,sp,52
   10440:	71c50513          	addi	a0,a0,1820 # 2371c <input_small_data>
   10444:	034010ef          	jal	ra,11478 <enc_buffer.part.0>
   10448:	03410693          	addi	a3,sp,52
   1044c:	00200613          	addi	a2,zero,2
   10450:	02000593          	addi	a1,zero,32
   10454:	01410513          	addi	a0,sp,20
   10458:	630000ef          	jal	ra,10a88 <set_key>
   1045c:	00c12583          	lw	a1,12(sp)
   10460:	00070437          	lui	s0,0x70
   10464:	0004e737          	lui	a4,0x4e
   10468:	03410613          	addi	a2,sp,52
   1046c:	97848513          	addi	a0,s1,-1672
   10470:	01010793          	addi	a5,sp,16
   10474:	20070713          	addi	a4,a4,512 # 4e200 <input_small_data+0x2aae4>
   10478:	77840693          	addi	a3,s0,1912 # 70778 <plain_buffer.0>
   1047c:	278020ef          	jal	ra,126f4 <dec_buffer>
   10480:	00050993          	addi	s3,a0,0
   10484:	50051c63          	bne	a0,zero,1099c <main+0x8bc>
   10488:	01012483          	lw	s1,16(sp)
   1048c:	02048463          	beq	s1,zero,104b4 <main+0x3d4>
   10490:	77840413          	addi	s0,s0,1912
   10494:	00023937          	lui	s2,0x23
   10498:	008484b3          	add	s1,s1,s0
   1049c:	39c90913          	addi	s2,s2,924 # 2339c <__clzsi2+0x94>
   104a0:	00044583          	lbu	a1,0(s0)
   104a4:	00090513          	addi	a0,s2,0
   104a8:	00140413          	addi	s0,s0,1
   104ac:	461020ef          	jal	ra,1310c <printf>
   104b0:	fe8498e3          	bne	s1,s0,104a0 <main+0x3c0>
   104b4:	23812403          	lw	s0,568(sp)
   104b8:	23412483          	lw	s1,564(sp)
   104bc:	23012903          	lw	s2,560(sp)
   104c0:	23c12083          	lw	ra,572(sp)
   104c4:	00098513          	addi	a0,s3,0
   104c8:	22c12983          	lw	s3,556(sp)
   104cc:	24010113          	addi	sp,sp,576
   104d0:	00008067          	jalr	zero,0(ra)
   104d4:	0016c803          	lbu	a6,1(a3)
   104d8:	fc970793          	addi	a5,a4,-55
   104dc:	fd080713          	addi	a4,a6,-48
   104e0:	0ff77313          	andi	t1,a4,255
   104e4:	c46568e3          	bltu	a0,t1,10134 <main+0x54>
   104e8:	c69ff06f          	jal	zero,10150 <main+0x70>
   104ec:	00c58633          	add	a2,a1,a2
   104f0:	00064e03          	lbu	t3,0(a2)
   104f4:	97848613          	addi	a2,s1,-1672
   104f8:	00268693          	addi	a3,a3,2
   104fc:	01c600a3          	sb	t3,1(a2)
   10500:	4b169863          	bne	a3,a7,109b0 <main+0x8d0>
   10504:	01079e13          	slli	t3,a5,0x10
   10508:	000096b7          	lui	a3,0x9
   1050c:	01071e93          	slli	t4,a4,0x10
   10510:	06968693          	addi	a3,a3,105 # 9069 <exit-0x704b>
   10514:	010e5e13          	srli	t3,t3,0x10
   10518:	00004f37          	lui	t5,0x4
   1051c:	02de0e33          	mul	t3,t3,a3
   10520:	010ede93          	srli	t4,t4,0x10
   10524:	650f0f13          	addi	t5,t5,1616 # 4650 <exit-0xba64>
   10528:	0107d793          	srli	a5,a5,0x10
   1052c:	01075713          	srli	a4,a4,0x10
   10530:	00200693          	addi	a3,zero,2
   10534:	00100893          	addi	a7,zero,1
   10538:	03ee8eb3          	mul	t4,t4,t5
   1053c:	00fe07b3          	add	a5,t3,a5
   10540:	01079e13          	slli	t3,a5,0x10
   10544:	00ee8733          	add	a4,t4,a4
   10548:	00ee0e33          	add	t3,t3,a4
   1054c:	89c1a023          	sw	t3,-1920(gp) # 70738 <r.2>
   10550:	01c61123          	sh	t3,2(a2)
   10554:	00d58e33          	add	t3,a1,a3
   10558:	000e4e83          	lbu	t4,0(t3)
   1055c:	00168693          	addi	a3,a3,1
   10560:	00400e13          	addi	t3,zero,4
   10564:	01d60223          	sb	t4,4(a2)
   10568:	27c69a63          	bne	a3,t3,107dc <main+0x6fc>
   1056c:	01079e13          	slli	t3,a5,0x10
   10570:	000096b7          	lui	a3,0x9
   10574:	01071e93          	slli	t4,a4,0x10
   10578:	06968693          	addi	a3,a3,105 # 9069 <exit-0x704b>
   1057c:	010e5e13          	srli	t3,t3,0x10
   10580:	00004f37          	lui	t5,0x4
   10584:	02de0e33          	mul	t3,t3,a3
   10588:	010ede93          	srli	t4,t4,0x10
   1058c:	650f0f13          	addi	t5,t5,1616 # 4650 <exit-0xba64>
   10590:	0107d793          	srli	a5,a5,0x10
   10594:	01075713          	srli	a4,a4,0x10
   10598:	00200693          	addi	a3,zero,2
   1059c:	00100893          	addi	a7,zero,1
   105a0:	03ee8eb3          	mul	t4,t4,t5
   105a4:	00fe07b3          	add	a5,t3,a5
   105a8:	01079e13          	slli	t3,a5,0x10
   105ac:	00ee8733          	add	a4,t4,a4
   105b0:	00ee0e33          	add	t3,t3,a4
   105b4:	89c1a023          	sw	t3,-1920(gp) # 70738 <r.2>
   105b8:	0015ce83          	lbu	t4,1(a1)
   105bc:	01c602a3          	sb	t3,5(a2)
   105c0:	01d60323          	sb	t4,6(a2)
   105c4:	00d58e33          	add	t3,a1,a3
   105c8:	000e4e83          	lbu	t4,0(t3)
   105cc:	00168693          	addi	a3,a3,1
   105d0:	00400e13          	addi	t3,zero,4
   105d4:	01d603a3          	sb	t4,7(a2)
   105d8:	27c69663          	bne	a3,t3,10844 <main+0x764>
   105dc:	01079e13          	slli	t3,a5,0x10
   105e0:	000096b7          	lui	a3,0x9
   105e4:	01071e93          	slli	t4,a4,0x10
   105e8:	06968693          	addi	a3,a3,105 # 9069 <exit-0x704b>
   105ec:	010e5e13          	srli	t3,t3,0x10
   105f0:	00004f37          	lui	t5,0x4
   105f4:	02de0e33          	mul	t3,t3,a3
   105f8:	010ede93          	srli	t4,t4,0x10
   105fc:	650f0f13          	addi	t5,t5,1616 # 4650 <exit-0xba64>
   10600:	0107d793          	srli	a5,a5,0x10
   10604:	01075713          	srli	a4,a4,0x10
   10608:	00200693          	addi	a3,zero,2
   1060c:	00100893          	addi	a7,zero,1
   10610:	03ee8eb3          	mul	t4,t4,t5
   10614:	00fe07b3          	add	a5,t3,a5
   10618:	01079e13          	slli	t3,a5,0x10
   1061c:	00ee8733          	add	a4,t4,a4
   10620:	00ee0e33          	add	t3,t3,a4
   10624:	89c1a023          	sw	t3,-1920(gp) # 70738 <r.2>
   10628:	01c61423          	sh	t3,8(a2)
   1062c:	00d58e33          	add	t3,a1,a3
   10630:	000e4e83          	lbu	t4,0(t3)
   10634:	00168693          	addi	a3,a3,1
   10638:	00400e13          	addi	t3,zero,4
   1063c:	01d60523          	sb	t4,10(a2)
   10640:	27c69a63          	bne	a3,t3,108b4 <main+0x7d4>
   10644:	01079e13          	slli	t3,a5,0x10
   10648:	000096b7          	lui	a3,0x9
   1064c:	01071e93          	slli	t4,a4,0x10
   10650:	06968693          	addi	a3,a3,105 # 9069 <exit-0x704b>
   10654:	010e5e13          	srli	t3,t3,0x10
   10658:	00004f37          	lui	t5,0x4
   1065c:	02de0e33          	mul	t3,t3,a3
   10660:	010ede93          	srli	t4,t4,0x10
   10664:	650f0f13          	addi	t5,t5,1616 # 4650 <exit-0xba64>
   10668:	0107d793          	srli	a5,a5,0x10
   1066c:	01075713          	srli	a4,a4,0x10
   10670:	00200693          	addi	a3,zero,2
   10674:	00100893          	addi	a7,zero,1
   10678:	03ee8eb3          	mul	t4,t4,t5
   1067c:	00fe07b3          	add	a5,t3,a5
   10680:	01079e13          	slli	t3,a5,0x10
   10684:	00ee8733          	add	a4,t4,a4
   10688:	00ee0e33          	add	t3,t3,a4
   1068c:	89c1a023          	sw	t3,-1920(gp) # 70738 <r.2>
   10690:	0015ce83          	lbu	t4,1(a1)
   10694:	01c605a3          	sb	t3,11(a2)
   10698:	01d60623          	sb	t4,12(a2)
   1069c:	00d58e33          	add	t3,a1,a3
   106a0:	000e4e83          	lbu	t4,0(t3)
   106a4:	00168693          	addi	a3,a3,1
   106a8:	00400e13          	addi	t3,zero,4
   106ac:	01d606a3          	sb	t4,13(a2)
   106b0:	27c69663          	bne	a3,t3,1091c <main+0x83c>
   106b4:	01079693          	slli	a3,a5,0x10
   106b8:	00009e37          	lui	t3,0x9
   106bc:	01071593          	slli	a1,a4,0x10
   106c0:	069e0e13          	addi	t3,t3,105 # 9069 <exit-0x704b>
   106c4:	0106d693          	srli	a3,a3,0x10
   106c8:	000048b7          	lui	a7,0x4
   106cc:	03c686b3          	mul	a3,a3,t3
   106d0:	0105d593          	srli	a1,a1,0x10
   106d4:	65088893          	addi	a7,a7,1616 # 4650 <exit-0xba64>
   106d8:	0107d793          	srli	a5,a5,0x10
   106dc:	01075713          	srli	a4,a4,0x10
   106e0:	00200e13          	addi	t3,zero,2
   106e4:	87c1a823          	sw	t3,-1936(gp) # 70728 <count.4>
   106e8:	031585b3          	mul	a1,a1,a7
   106ec:	00f687b3          	add	a5,a3,a5
   106f0:	01079693          	slli	a3,a5,0x10
   106f4:	00e58733          	add	a4,a1,a4
   106f8:	00e686b3          	add	a3,a3,a4
   106fc:	88d1a023          	sw	a3,-1920(gp) # 70738 <r.2>
   10700:	00d61723          	sh	a3,14(a2)
   10704:	00e82223          	sw	a4,4(a6)
   10708:	00f82023          	sw	a5,0(a6)
   1070c:	d1dff06f          	jal	zero,10428 <main+0x348>
   10710:	01079893          	slli	a7,a5,0x10
   10714:	000096b7          	lui	a3,0x9
   10718:	01071e93          	slli	t4,a4,0x10
   1071c:	06968693          	addi	a3,a3,105 # 9069 <exit-0x704b>
   10720:	0108d893          	srli	a7,a7,0x10
   10724:	00004e37          	lui	t3,0x4
   10728:	02d888b3          	mul	a7,a7,a3
   1072c:	650e0e13          	addi	t3,t3,1616 # 4650 <exit-0xba64>
   10730:	010ede93          	srli	t4,t4,0x10
   10734:	0107d793          	srli	a5,a5,0x10
   10738:	01075713          	srli	a4,a4,0x10
   1073c:	000bf4b7          	lui	s1,0xbf
   10740:	88018593          	addi	a1,gp,-1920 # 70738 <r.2>
   10744:	97848613          	addi	a2,s1,-1672 # be978 <cipher_buffer.1>
   10748:	00200693          	addi	a3,zero,2
   1074c:	03ce8eb3          	mul	t4,t4,t3
   10750:	00f887b3          	add	a5,a7,a5
   10754:	01079e13          	slli	t3,a5,0x10
   10758:	00100893          	addi	a7,zero,1
   1075c:	00ee8733          	add	a4,t4,a4
   10760:	00ee0e33          	add	t3,t3,a4
   10764:	89c1a023          	sw	t3,-1920(gp) # 70738 <r.2>
   10768:	97c49c23          	sh	t3,-1672(s1)
   1076c:	00d58e33          	add	t3,a1,a3
   10770:	000e4e83          	lbu	t4,0(t3)
   10774:	00168693          	addi	a3,a3,1
   10778:	00400e13          	addi	t3,zero,4
   1077c:	01d60123          	sb	t4,2(a2)
   10780:	afc690e3          	bne	a3,t3,10260 <main+0x180>
   10784:	01079e13          	slli	t3,a5,0x10
   10788:	000096b7          	lui	a3,0x9
   1078c:	01071e93          	slli	t4,a4,0x10
   10790:	06968693          	addi	a3,a3,105 # 9069 <exit-0x704b>
   10794:	010e5e13          	srli	t3,t3,0x10
   10798:	00004f37          	lui	t5,0x4
   1079c:	02de0e33          	mul	t3,t3,a3
   107a0:	010ede93          	srli	t4,t4,0x10
   107a4:	650f0f13          	addi	t5,t5,1616 # 4650 <exit-0xba64>
   107a8:	0107d793          	srli	a5,a5,0x10
   107ac:	01075713          	srli	a4,a4,0x10
   107b0:	00200693          	addi	a3,zero,2
   107b4:	00100893          	addi	a7,zero,1
   107b8:	03ee8eb3          	mul	t4,t4,t5
   107bc:	00fe07b3          	add	a5,t3,a5
   107c0:	01079e13          	slli	t3,a5,0x10
   107c4:	00ee8733          	add	a4,t4,a4
   107c8:	00ee0e33          	add	t3,t3,a4
   107cc:	89c1a023          	sw	t3,-1920(gp) # 70738 <r.2>
   107d0:	0015ce83          	lbu	t4,1(a1)
   107d4:	01c601a3          	sb	t3,3(a2)
   107d8:	01d60223          	sb	t4,4(a2)
   107dc:	00d58e33          	add	t3,a1,a3
   107e0:	000e4e83          	lbu	t4,0(t3)
   107e4:	00168693          	addi	a3,a3,1
   107e8:	00400e13          	addi	t3,zero,4
   107ec:	01d602a3          	sb	t4,5(a2)
   107f0:	adc69ce3          	bne	a3,t3,102c8 <main+0x1e8>
   107f4:	01079e13          	slli	t3,a5,0x10
   107f8:	000096b7          	lui	a3,0x9
   107fc:	01071e93          	slli	t4,a4,0x10
   10800:	06968693          	addi	a3,a3,105 # 9069 <exit-0x704b>
   10804:	010e5e13          	srli	t3,t3,0x10
   10808:	00004f37          	lui	t5,0x4
   1080c:	02de0e33          	mul	t3,t3,a3
   10810:	010ede93          	srli	t4,t4,0x10
   10814:	650f0f13          	addi	t5,t5,1616 # 4650 <exit-0xba64>
   10818:	0107d793          	srli	a5,a5,0x10
   1081c:	01075713          	srli	a4,a4,0x10
   10820:	00200693          	addi	a3,zero,2
   10824:	00100893          	addi	a7,zero,1
   10828:	03ee8eb3          	mul	t4,t4,t5
   1082c:	00fe07b3          	add	a5,t3,a5
   10830:	01079e13          	slli	t3,a5,0x10
   10834:	00ee8733          	add	a4,t4,a4
   10838:	00ee0e33          	add	t3,t3,a4
   1083c:	89c1a023          	sw	t3,-1920(gp) # 70738 <r.2>
   10840:	01c61323          	sh	t3,6(a2)
   10844:	00d58e33          	add	t3,a1,a3
   10848:	000e4e83          	lbu	t4,0(t3)
   1084c:	00168693          	addi	a3,a3,1
   10850:	00400e13          	addi	t3,zero,4
   10854:	01d60423          	sb	t4,8(a2)
   10858:	afc690e3          	bne	a3,t3,10338 <main+0x258>
   1085c:	01079e13          	slli	t3,a5,0x10
   10860:	000096b7          	lui	a3,0x9
   10864:	01071e93          	slli	t4,a4,0x10
   10868:	06968693          	addi	a3,a3,105 # 9069 <exit-0x704b>
   1086c:	010e5e13          	srli	t3,t3,0x10
   10870:	00004f37          	lui	t5,0x4
   10874:	02de0e33          	mul	t3,t3,a3
   10878:	010ede93          	srli	t4,t4,0x10
   1087c:	650f0f13          	addi	t5,t5,1616 # 4650 <exit-0xba64>
   10880:	0107d793          	srli	a5,a5,0x10
   10884:	01075713          	srli	a4,a4,0x10
   10888:	00200693          	addi	a3,zero,2
   1088c:	00100893          	addi	a7,zero,1
   10890:	03ee8eb3          	mul	t4,t4,t5
   10894:	00fe07b3          	add	a5,t3,a5
   10898:	01079e13          	slli	t3,a5,0x10
   1089c:	00ee8733          	add	a4,t4,a4
   108a0:	00ee0e33          	add	t3,t3,a4
   108a4:	89c1a023          	sw	t3,-1920(gp) # 70738 <r.2>
   108a8:	0015ce83          	lbu	t4,1(a1)
   108ac:	01c604a3          	sb	t3,9(a2)
   108b0:	01d60523          	sb	t4,10(a2)
   108b4:	00d58e33          	add	t3,a1,a3
   108b8:	000e4e83          	lbu	t4,0(t3)
   108bc:	00168693          	addi	a3,a3,1
   108c0:	00400e13          	addi	t3,zero,4
   108c4:	01d605a3          	sb	t4,11(a2)
   108c8:	adc69ce3          	bne	a3,t3,103a0 <main+0x2c0>
   108cc:	01079e13          	slli	t3,a5,0x10
   108d0:	000096b7          	lui	a3,0x9
   108d4:	01071e93          	slli	t4,a4,0x10
   108d8:	06968693          	addi	a3,a3,105 # 9069 <exit-0x704b>
   108dc:	010e5e13          	srli	t3,t3,0x10
   108e0:	00004f37          	lui	t5,0x4
   108e4:	02de0e33          	mul	t3,t3,a3
   108e8:	010ede93          	srli	t4,t4,0x10
   108ec:	650f0f13          	addi	t5,t5,1616 # 4650 <exit-0xba64>
   108f0:	0107d793          	srli	a5,a5,0x10
   108f4:	01075713          	srli	a4,a4,0x10
   108f8:	00200693          	addi	a3,zero,2
   108fc:	00100893          	addi	a7,zero,1
   10900:	03ee8eb3          	mul	t4,t4,t5
   10904:	00fe07b3          	add	a5,t3,a5
   10908:	01079e13          	slli	t3,a5,0x10
   1090c:	00ee8733          	add	a4,t4,a4
   10910:	00ee0e33          	add	t3,t3,a4
   10914:	89c1a023          	sw	t3,-1920(gp) # 70738 <r.2>
   10918:	01c61623          	sh	t3,12(a2)
   1091c:	00d58e33          	add	t3,a1,a3
   10920:	000e4e83          	lbu	t4,0(t3)
   10924:	00168693          	addi	a3,a3,1
   10928:	00400e13          	addi	t3,zero,4
   1092c:	01d60723          	sb	t4,14(a2)
   10930:	afc690e3          	bne	a3,t3,10410 <main+0x330>
   10934:	01079693          	slli	a3,a5,0x10
   10938:	00009e37          	lui	t3,0x9
   1093c:	01071593          	slli	a1,a4,0x10
   10940:	069e0e13          	addi	t3,t3,105 # 9069 <exit-0x704b>
   10944:	0106d693          	srli	a3,a3,0x10
   10948:	000048b7          	lui	a7,0x4
   1094c:	03c686b3          	mul	a3,a3,t3
   10950:	0105d593          	srli	a1,a1,0x10
   10954:	65088893          	addi	a7,a7,1616 # 4650 <exit-0xba64>
   10958:	0107d793          	srli	a5,a5,0x10
   1095c:	01075713          	srli	a4,a4,0x10
   10960:	00100e13          	addi	t3,zero,1
   10964:	87c1a823          	sw	t3,-1936(gp) # 70728 <count.4>
   10968:	031585b3          	mul	a1,a1,a7
   1096c:	00f687b3          	add	a5,a3,a5
   10970:	01079693          	slli	a3,a5,0x10
   10974:	00e58733          	add	a4,a1,a4
   10978:	00e686b3          	add	a3,a3,a4
   1097c:	88d1a023          	sw	a3,-1920(gp) # 70738 <r.2>
   10980:	00d607a3          	sb	a3,15(a2)
   10984:	d81ff06f          	jal	zero,10704 <main+0x624>
   10988:	00023537          	lui	a0,0x23
   1098c:	3a050513          	addi	a0,a0,928 # 233a0 <__clzsi2+0x98>
   10990:	77c020ef          	jal	ra,1310c <printf>
   10994:	fff00993          	addi	s3,zero,-1
   10998:	b29ff06f          	jal	zero,104c0 <main+0x3e0>
   1099c:	23812403          	lw	s0,568(sp)
   109a0:	23412483          	lw	s1,564(sp)
   109a4:	23012903          	lw	s2,560(sp)
   109a8:	ffd00993          	addi	s3,zero,-3
   109ac:	b15ff06f          	jal	zero,104c0 <main+0x3e0>
   109b0:	00000893          	addi	a7,zero,0
   109b4:	db9ff06f          	jal	zero,1076c <main+0x68c>

000109b8 <register_fini>:
   109b8:	00000793          	addi	a5,zero,0
   109bc:	00078863          	beq	a5,zero,109cc <register_fini+0x14>
   109c0:	00018537          	lui	a0,0x18
   109c4:	26450513          	addi	a0,a0,612 # 18264 <__libc_fini_array>
   109c8:	6050206f          	jal	zero,137cc <atexit>
   109cc:	00008067          	jalr	zero,0(ra)

000109d0 <_start>:
   109d0:	00060197          	auipc	gp,0x60
   109d4:	4e818193          	addi	gp,gp,1256 # 70eb8 <__global_pointer$>
   109d8:	00060517          	auipc	a0,0x60
   109dc:	d6050513          	addi	a0,a0,-672 # 70738 <r.2>
   109e0:	00104617          	auipc	a2,0x104
   109e4:	9b860613          	addi	a2,a2,-1608 # 114398 <__BSS_END__>
   109e8:	40a60633          	sub	a2,a2,a0
   109ec:	00000593          	addi	a1,zero,0
   109f0:	3cd020ef          	jal	ra,135bc <memset>
   109f4:	00003517          	auipc	a0,0x3
   109f8:	dd850513          	addi	a0,a0,-552 # 137cc <atexit>
   109fc:	00050863          	beq	a0,zero,10a0c <_start+0x3c>
   10a00:	00008517          	auipc	a0,0x8
   10a04:	86450513          	addi	a0,a0,-1948 # 18264 <__libc_fini_array>
   10a08:	5c5020ef          	jal	ra,137cc <atexit>
   10a0c:	31d020ef          	jal	ra,13528 <__libc_init_array>
   10a10:	00012503          	lw	a0,0(sp)
   10a14:	00410593          	addi	a1,sp,4
   10a18:	00000613          	addi	a2,zero,0
   10a1c:	ec4ff0ef          	jal	ra,100e0 <main>
   10a20:	e94ff06f          	jal	zero,100b4 <exit>

00010a24 <__do_global_dtors_aux>:
   10a24:	ff010113          	addi	sp,sp,-16
   10a28:	00812423          	sw	s0,8(sp)
   10a2c:	8a41c783          	lbu	a5,-1884(gp) # 7075c <completed.1>
   10a30:	00112623          	sw	ra,12(sp)
   10a34:	02079263          	bne	a5,zero,10a58 <__do_global_dtors_aux+0x34>
   10a38:	00000793          	addi	a5,zero,0
   10a3c:	00078a63          	beq	a5,zero,10a50 <__do_global_dtors_aux+0x2c>
   10a40:	00070537          	lui	a0,0x70
   10a44:	fc450513          	addi	a0,a0,-60 # 6ffc4 <__EH_FRAME_BEGIN__>
   10a48:	00000097          	auipc	ra,0x0
   10a4c:	000000e7          	jalr	ra,0(zero) # 0 <exit-0x100b4>
   10a50:	00100793          	addi	a5,zero,1
   10a54:	8af18223          	sb	a5,-1884(gp) # 7075c <completed.1>
   10a58:	00c12083          	lw	ra,12(sp)
   10a5c:	00812403          	lw	s0,8(sp)
   10a60:	01010113          	addi	sp,sp,16
   10a64:	00008067          	jalr	zero,0(ra) # 10a48 <__do_global_dtors_aux+0x24>

00010a68 <frame_dummy>:
   10a68:	00000793          	addi	a5,zero,0
   10a6c:	00078c63          	beq	a5,zero,10a84 <frame_dummy+0x1c>
   10a70:	00070537          	lui	a0,0x70
   10a74:	8a818593          	addi	a1,gp,-1880 # 70760 <object.0>
   10a78:	fc450513          	addi	a0,a0,-60 # 6ffc4 <__EH_FRAME_BEGIN__>
   10a7c:	00000317          	auipc	t1,0x0
   10a80:	00000067          	jalr	zero,0(zero) # 0 <exit-0x100b4>
   10a84:	00008067          	jalr	zero,0(ra)

00010a88 <set_key>:
   10a88:	fd010113          	addi	sp,sp,-48
   10a8c:	0025d593          	srli	a1,a1,0x2
   10a90:	02812623          	sw	s0,44(sp)
   10a94:	02912423          	sw	s1,40(sp)
   10a98:	00658713          	addi	a4,a1,6
   10a9c:	00758f93          	addi	t6,a1,7
   10aa0:	00b6a023          	sw	a1,0(a3)
   10aa4:	1ec68423          	sb	a2,488(a3)
   10aa8:	00e6a223          	sw	a4,4(a3)
   10aac:	002f9f93          	slli	t6,t6,0x2
   10ab0:	46058a63          	beq	a1,zero,10f24 <set_key+0x49c>
   10ab4:	00259313          	slli	t1,a1,0x2
   10ab8:	00868e93          	addi	t4,a3,8
   10abc:	006502b3          	add	t0,a0,t1
   10ac0:	000e8e13          	addi	t3,t4,0
   10ac4:	00154883          	lbu	a7,1(a0)
   10ac8:	00054f03          	lbu	t5,0(a0)
   10acc:	00254803          	lbu	a6,2(a0)
   10ad0:	00354703          	lbu	a4,3(a0)
   10ad4:	00889893          	slli	a7,a7,0x8
   10ad8:	01e8e8b3          	or	a7,a7,t5
   10adc:	01081813          	slli	a6,a6,0x10
   10ae0:	01186833          	or	a6,a6,a7
   10ae4:	01871713          	slli	a4,a4,0x18
   10ae8:	01076733          	or	a4,a4,a6
   10aec:	00ee2023          	sw	a4,0(t3)
   10af0:	00450513          	addi	a0,a0,4
   10af4:	004e0e13          	addi	t3,t3,4
   10af8:	fca296e3          	bne	t0,a0,10ac4 <set_key+0x3c>
   10afc:	13f5f863          	bgeu	a1,t6,10c2c <set_key+0x1a4>
   10b00:	0075bf13          	sltiu	t5,a1,7
   10b04:	006687b3          	add	a5,a3,t1
   10b08:	000238b7          	lui	a7,0x23
   10b0c:	0047a703          	lw	a4,4(a5)
   10b10:	001f4f13          	xori	t5,t5,1
   10b14:	4f488893          	addi	a7,a7,1268 # 234f4 <s_box>
   10b18:	00058e13          	addi	t3,a1,0
   10b1c:	05c0006f          	jal	zero,10b78 <set_key+0xf0>
   10b20:	02be5733          	divu	a4,t3,a1
   10b24:	0003c783          	lbu	a5,0(t2)
   10b28:	0002c283          	lbu	t0,0(t0)
   10b2c:	00084383          	lbu	t2,0(a6)
   10b30:	00054503          	lbu	a0,0(a0)
   10b34:	00879793          	slli	a5,a5,0x8
   10b38:	01029813          	slli	a6,t0,0x10
   10b3c:	0107e7b3          	or	a5,a5,a6
   10b40:	0077e7b3          	or	a5,a5,t2
   10b44:	01851513          	slli	a0,a0,0x18
   10b48:	00a7e7b3          	or	a5,a5,a0
   10b4c:	00271713          	slli	a4,a4,0x2
   10b50:	00e88733          	add	a4,a7,a4
   10b54:	0fc72703          	lw	a4,252(a4)
   10b58:	00e7c7b3          	xor	a5,a5,a4
   10b5c:	000ea703          	lw	a4,0(t4)
   10b60:	006e8533          	add	a0,t4,t1
   10b64:	001e0e13          	addi	t3,t3,1
   10b68:	00e7c733          	xor	a4,a5,a4
   10b6c:	00e52023          	sw	a4,0(a0)
   10b70:	004e8e93          	addi	t4,t4,4
   10b74:	0bfe7c63          	bgeu	t3,t6,10c2c <set_key+0x1a4>
   10b78:	02be7433          	remu	s0,t3,a1
   10b7c:	01075513          	srli	a0,a4,0x10
   10b80:	0ff57513          	andi	a0,a0,255
   10b84:	01875793          	srli	a5,a4,0x18
   10b88:	00a883b3          	add	t2,a7,a0
   10b8c:	00875513          	srli	a0,a4,0x8
   10b90:	0ff57513          	andi	a0,a0,255
   10b94:	00f882b3          	add	t0,a7,a5
   10b98:	0ff77793          	andi	a5,a4,255
   10b9c:	00a88833          	add	a6,a7,a0
   10ba0:	00f88533          	add	a0,a7,a5
   10ba4:	00070793          	addi	a5,a4,0
   10ba8:	ffc40493          	addi	s1,s0,-4
   10bac:	f6040ae3          	beq	s0,zero,10b20 <set_key+0x98>
   10bb0:	fa0496e3          	bne	s1,zero,10b5c <set_key+0xd4>
   10bb4:	fa0f04e3          	beq	t5,zero,10b5c <set_key+0xd4>
   10bb8:	00875793          	srli	a5,a4,0x8
   10bbc:	01075813          	srli	a6,a4,0x10
   10bc0:	00023537          	lui	a0,0x23
   10bc4:	4f450513          	addi	a0,a0,1268 # 234f4 <s_box>
   10bc8:	0ff7f793          	andi	a5,a5,255
   10bcc:	0ff87813          	andi	a6,a6,255
   10bd0:	00f507b3          	add	a5,a0,a5
   10bd4:	01050833          	add	a6,a0,a6
   10bd8:	0ff77293          	andi	t0,a4,255
   10bdc:	0007c783          	lbu	a5,0(a5)
   10be0:	01875713          	srli	a4,a4,0x18
   10be4:	00084803          	lbu	a6,0(a6)
   10be8:	005502b3          	add	t0,a0,t0
   10bec:	00e50533          	add	a0,a0,a4
   10bf0:	00054703          	lbu	a4,0(a0)
   10bf4:	0002c283          	lbu	t0,0(t0)
   10bf8:	01081513          	slli	a0,a6,0x10
   10bfc:	00879793          	slli	a5,a5,0x8
   10c00:	00a7e7b3          	or	a5,a5,a0
   10c04:	01871713          	slli	a4,a4,0x18
   10c08:	0057e7b3          	or	a5,a5,t0
   10c0c:	00e7e7b3          	or	a5,a5,a4
   10c10:	000ea703          	lw	a4,0(t4)
   10c14:	006e8533          	add	a0,t4,t1
   10c18:	001e0e13          	addi	t3,t3,1
   10c1c:	00e7c733          	xor	a4,a5,a4
   10c20:	00e52023          	sw	a4,0(a0)
   10c24:	004e8e93          	addi	t4,t4,4
   10c28:	f5fe68e3          	bltu	t3,t6,10b78 <set_key+0xf0>
   10c2c:	00267613          	andi	a2,a2,2
   10c30:	2e060063          	beq	a2,zero,10f10 <set_key+0x488>
   10c34:	ffcf8f93          	addi	t6,t6,-4
   10c38:	002f9713          	slli	a4,t6,0x2
   10c3c:	00e68733          	add	a4,a3,a4
   10c40:	00872803          	lw	a6,8(a4)
   10c44:	00c72503          	lw	a0,12(a4)
   10c48:	01072603          	lw	a2,16(a4)
   10c4c:	01472703          	lw	a4,20(a4)
   10c50:	40b005b3          	sub	a1,zero,a1
   10c54:	03212223          	sw	s2,36(sp)
   10c58:	03312023          	sw	s3,32(sp)
   10c5c:	01412e23          	sw	s4,28(sp)
   10c60:	01512c23          	sw	s5,24(sp)
   10c64:	01612a23          	sw	s6,20(sp)
   10c68:	01712823          	sw	s7,16(sp)
   10c6c:	01812623          	sw	s8,12(sp)
   10c70:	01912423          	sw	s9,8(sp)
   10c74:	01a12223          	sw	s10,4(sp)
   10c78:	01b12023          	sw	s11,0(sp)
   10c7c:	00459593          	slli	a1,a1,0x4
   10c80:	06068893          	addi	a7,a3,96
   10c84:	01000e37          	lui	t3,0x1000
   10c88:	ffff0f37          	lui	t5,0xffff0
   10c8c:	ff010eb7          	lui	t4,0xff010
   10c90:	0f06ac23          	sw	a6,248(a3)
   10c94:	0ea6ae23          	sw	a0,252(a3)
   10c98:	10c6a023          	sw	a2,256(a3)
   10c9c:	10e6a223          	sw	a4,260(a3)
   10ca0:	fb058813          	addi	a6,a1,-80
   10ca4:	40b888b3          	sub	a7,a7,a1
   10ca8:	0fff0f13          	addi	t5,t5,255 # ffff00ff <__BSS_END__+0xffedbd67>
   10cac:	fffe8e93          	addi	t4,t4,-1 # ff00ffff <__BSS_END__+0xfeefbc67>
   10cb0:	fffe0e13          	addi	t3,t3,-1 # ffffff <__BSS_END__+0xeebc67>
   10cb4:	01000313          	addi	t1,zero,16
   10cb8:	410685b3          	sub	a1,a3,a6
   10cbc:	0085aa03          	lw	s4,8(a1)
   10cc0:	f007f913          	andi	s2,a5,-256
   10cc4:	00b80533          	add	a0,a6,a1
   10cc8:	0ffa7993          	andi	s3,s4,255
   10ccc:	008a5c13          	srli	s8,s4,0x8
   10cd0:	0ffc7c13          	andi	s8,s8,255
   10cd4:	0079d793          	srli	a5,s3,0x7
   10cd8:	001a1b93          	slli	s7,s4,0x1
   10cdc:	007c5293          	srli	t0,s8,0x7
   10ce0:	40f007b3          	sub	a5,zero,a5
   10ce4:	010a5b13          	srli	s6,s4,0x10
   10ce8:	01b7f793          	andi	a5,a5,27
   10cec:	1febfb93          	andi	s7,s7,510
   10cf0:	405002b3          	sub	t0,zero,t0
   10cf4:	0ffb7b13          	andi	s6,s6,255
   10cf8:	00fbcbb3          	xor	s7,s7,a5
   10cfc:	01b2f293          	andi	t0,t0,27
   10d00:	001c1793          	slli	a5,s8,0x1
   10d04:	00f2c2b3          	xor	t0,t0,a5
   10d08:	007b5613          	srli	a2,s6,0x7
   10d0c:	018b9793          	slli	a5,s7,0x18
   10d10:	41f7d413          	srai	s0,a5,0x1f
   10d14:	40c00633          	sub	a2,zero,a2
   10d18:	018a5393          	srli	t2,s4,0x18
   10d1c:	018b47b3          	xor	a5,s6,s8
   10d20:	001b1713          	slli	a4,s6,0x1
   10d24:	001b9493          	slli	s1,s7,0x1
   10d28:	41fa5a13          	srai	s4,s4,0x1f
   10d2c:	01b67613          	andi	a2,a2,27
   10d30:	01b47413          	andi	s0,s0,27
   10d34:	00944433          	xor	s0,s0,s1
   10d38:	00e64633          	xor	a2,a2,a4
   10d3c:	013b4cb3          	xor	s9,s6,s3
   10d40:	00139713          	slli	a4,t2,0x1
   10d44:	01829493          	slli	s1,t0,0x18
   10d48:	00f3c7b3          	xor	a5,t2,a5
   10d4c:	01ba7a13          	andi	s4,s4,27
   10d50:	00ea4a33          	xor	s4,s4,a4
   10d54:	0193ccb3          	xor	s9,t2,s9
   10d58:	01841d13          	slli	s10,s0,0x18
   10d5c:	41f4da93          	srai	s5,s1,0x1f
   10d60:	00fbc7b3          	xor	a5,s7,a5
   10d64:	01861493          	slli	s1,a2,0x18
   10d68:	013c4c33          	xor	s8,s8,s3
   10d6c:	41f4d713          	srai	a4,s1,0x1f
   10d70:	00129993          	slli	s3,t0,0x1
   10d74:	41fd5493          	srai	s1,s10,0x1f
   10d78:	00f2c7b3          	xor	a5,t0,a5
   10d7c:	01bafa93          	andi	s5,s5,27
   10d80:	0192c2b3          	xor	t0,t0,s9
   10d84:	018a1c93          	slli	s9,s4,0x18
   10d88:	013acab3          	xor	s5,s5,s3
   10d8c:	00161d93          	slli	s11,a2,0x1
   10d90:	41fcd993          	srai	s3,s9,0x1f
   10d94:	01b77713          	andi	a4,a4,27
   10d98:	00141c93          	slli	s9,s0,0x1
   10d9c:	01b4f493          	andi	s1,s1,27
   10da0:	01b74733          	xor	a4,a4,s11
   10da4:	0194c4b3          	xor	s1,s1,s9
   10da8:	018a9d93          	slli	s11,s5,0x18
   10dac:	001a1c93          	slli	s9,s4,0x1
   10db0:	01b9f993          	andi	s3,s3,27
   10db4:	0199c9b3          	xor	s3,s3,s9
   10db8:	0183cd33          	xor	s10,t2,s8
   10dbc:	00f447b3          	xor	a5,s0,a5
   10dc0:	005642b3          	xor	t0,a2,t0
   10dc4:	41fdd393          	srai	t2,s11,0x1f
   10dc8:	01871d93          	slli	s11,a4,0x18
   10dcc:	01a64633          	xor	a2,a2,s10
   10dd0:	00f747b3          	xor	a5,a4,a5
   10dd4:	001a9d13          	slli	s10,s5,0x1
   10dd8:	005ac2b3          	xor	t0,s5,t0
   10ddc:	41fddc93          	srai	s9,s11,0x1f
   10de0:	01b3f393          	andi	t2,t2,27
   10de4:	01899d93          	slli	s11,s3,0x18
   10de8:	01a3c3b3          	xor	t2,t2,s10
   10dec:	00ca4633          	xor	a2,s4,a2
   10df0:	0059c2b3          	xor	t0,s3,t0
   10df4:	00f4c7b3          	xor	a5,s1,a5
   10df8:	01bcfc93          	andi	s9,s9,27
   10dfc:	00171d13          	slli	s10,a4,0x1
   10e00:	018b4b33          	xor	s6,s6,s8
   10e04:	41fddc13          	srai	s8,s11,0x1f
   10e08:	00f3c7b3          	xor	a5,t2,a5
   10e0c:	00c44db3          	xor	s11,s0,a2
   10e10:	01acc433          	xor	s0,s9,s10
   10e14:	0054c633          	xor	a2,s1,t0
   10e18:	00199c93          	slli	s9,s3,0x1
   10e1c:	01bc7293          	andi	t0,s8,27
   10e20:	0192c2b3          	xor	t0,t0,s9
   10e24:	00f447b3          	xor	a5,s0,a5
   10e28:	00c3c633          	xor	a2,t2,a2
   10e2c:	016bcb33          	xor	s6,s7,s6
   10e30:	01b74733          	xor	a4,a4,s11
   10e34:	00e4c733          	xor	a4,s1,a4
   10e38:	00c44633          	xor	a2,s0,a2
   10e3c:	00f2c7b3          	xor	a5,t0,a5
   10e40:	016a4a33          	xor	s4,s4,s6
   10e44:	00e3c733          	xor	a4,t2,a4
   10e48:	00c2c633          	xor	a2,t0,a2
   10e4c:	014acab3          	xor	s5,s5,s4
   10e50:	0ff7f793          	andi	a5,a5,255
   10e54:	00e44733          	xor	a4,s0,a4
   10e58:	0159c9b3          	xor	s3,s3,s5
   10e5c:	00f967b3          	or	a5,s2,a5
   10e60:	0ff67613          	andi	a2,a2,255
   10e64:	00e2c733          	xor	a4,t0,a4
   10e68:	0134c4b3          	xor	s1,s1,s3
   10e6c:	01e7f7b3          	and	a5,a5,t5
   10e70:	00861613          	slli	a2,a2,0x8
   10e74:	0093c3b3          	xor	t2,t2,s1
   10e78:	00c7e7b3          	or	a5,a5,a2
   10e7c:	0ff77713          	andi	a4,a4,255
   10e80:	00744433          	xor	s0,s0,t2
   10e84:	01d7f7b3          	and	a5,a5,t4
   10e88:	01071713          	slli	a4,a4,0x10
   10e8c:	00e7e7b3          	or	a5,a5,a4
   10e90:	0082c2b3          	xor	t0,t0,s0
   10e94:	01c7f7b3          	and	a5,a5,t3
   10e98:	01829293          	slli	t0,t0,0x18
   10e9c:	0057e7b3          	or	a5,a5,t0
   10ea0:	00650533          	add	a0,a0,t1
   10ea4:	0ef52c23          	sw	a5,248(a0)
   10ea8:	00458593          	addi	a1,a1,4
   10eac:	e0b898e3          	bne	a7,a1,10cbc <set_key+0x234>
   10eb0:	01080813          	addi	a6,a6,16
   10eb4:	01030313          	addi	t1,t1,16 # 10a8c <set_key+0x4>
   10eb8:	ff088893          	addi	a7,a7,-16
   10ebc:	de081ee3          	bne	a6,zero,10cb8 <set_key+0x230>
   10ec0:	0086a583          	lw	a1,8(a3)
   10ec4:	00c6a603          	lw	a2,12(a3)
   10ec8:	0106a703          	lw	a4,16(a3)
   10ecc:	0146a783          	lw	a5,20(a3)
   10ed0:	002f9f93          	slli	t6,t6,0x2
   10ed4:	02412903          	lw	s2,36(sp)
   10ed8:	02012983          	lw	s3,32(sp)
   10edc:	01c12a03          	lw	s4,28(sp)
   10ee0:	01812a83          	lw	s5,24(sp)
   10ee4:	01412b03          	lw	s6,20(sp)
   10ee8:	01012b83          	lw	s7,16(sp)
   10eec:	00c12c03          	lw	s8,12(sp)
   10ef0:	00812c83          	lw	s9,8(sp)
   10ef4:	00412d03          	lw	s10,4(sp)
   10ef8:	00012d83          	lw	s11,0(sp)
   10efc:	01f686b3          	add	a3,a3,t6
   10f00:	0eb6ac23          	sw	a1,248(a3)
   10f04:	0ec6ae23          	sw	a2,252(a3)
   10f08:	10e6a023          	sw	a4,256(a3)
   10f0c:	10f6a223          	sw	a5,260(a3)
   10f10:	02c12403          	lw	s0,44(sp)
   10f14:	02812483          	lw	s1,40(sp)
   10f18:	00100513          	addi	a0,zero,1
   10f1c:	03010113          	addi	sp,sp,48
   10f20:	00008067          	jalr	zero,0(ra)
   10f24:	00000313          	addi	t1,zero,0
   10f28:	00868e93          	addi	t4,a3,8
   10f2c:	bd5ff06f          	jal	zero,10b00 <set_key+0x78>

00010f30 <encrypt>:
   10f30:	00452803          	lw	a6,4(a0)
   10f34:	00852683          	lw	a3,8(a0)
   10f38:	00c52883          	lw	a7,12(a0)
   10f3c:	00c62e03          	lw	t3,12(a2)
   10f40:	01062303          	lw	t1,16(a2)
   10f44:	01462703          	lw	a4,20(a2)
   10f48:	00052503          	lw	a0,0(a0)
   10f4c:	00862783          	lw	a5,8(a2)
   10f50:	fc010113          	addi	sp,sp,-64
   10f54:	03612223          	sw	s6,36(sp)
   10f58:	00462b03          	lw	s6,4(a2)
   10f5c:	01c84833          	xor	a6,a6,t3
   10f60:	0066c6b3          	xor	a3,a3,t1
   10f64:	01174733          	xor	a4,a4,a7
   10f68:	00a7c7b3          	xor	a5,a5,a0
   10f6c:	01b12823          	sw	s11,16(sp)
   10f70:	01012223          	sw	a6,4(sp)
   10f74:	00d12423          	sw	a3,8(sp)
   10f78:	00e12623          	sw	a4,12(sp)
   10f7c:	00f12023          	sw	a5,0(sp)
   10f80:	00058d93          	addi	s11,a1,0
   10f84:	420b0263          	beq	s6,zero,113a8 <encrypt+0x478>
   10f88:	000237b7          	lui	a5,0x23
   10f8c:	03312823          	sw	s3,48(sp)
   10f90:	02812e23          	sw	s0,60(sp)
   10f94:	02912c23          	sw	s1,56(sp)
   10f98:	03212a23          	sw	s2,52(sp)
   10f9c:	03412623          	sw	s4,44(sp)
   10fa0:	03512423          	sw	s5,40(sp)
   10fa4:	03712023          	sw	s7,32(sp)
   10fa8:	01812e23          	sw	s8,28(sp)
   10fac:	01912c23          	sw	s9,24(sp)
   10fb0:	01a12a23          	sw	s10,20(sp)
   10fb4:	01860513          	addi	a0,a2,24
   10fb8:	4f478793          	addi	a5,a5,1268 # 234f4 <s_box>
   10fbc:	00100993          	addi	s3,zero,1
   10fc0:	00014403          	lbu	s0,0(sp)
   10fc4:	00514903          	lbu	s2,5(sp)
   10fc8:	00a14f03          	lbu	t5,10(sp)
   10fcc:	00f14583          	lbu	a1,15(sp)
   10fd0:	00414383          	lbu	t2,4(sp)
   10fd4:	00914483          	lbu	s1,9(sp)
   10fd8:	00e14e83          	lbu	t4,14(sp)
   10fdc:	00314603          	lbu	a2,3(sp)
   10fe0:	00814283          	lbu	t0,8(sp)
   10fe4:	00d14683          	lbu	a3,13(sp)
   10fe8:	00214e03          	lbu	t3,2(sp)
   10fec:	00714303          	lbu	t1,7(sp)
   10ff0:	00c14f83          	lbu	t6,12(sp)
   10ff4:	00114703          	lbu	a4,1(sp)
   10ff8:	00614883          	lbu	a7,6(sp)
   10ffc:	00b14803          	lbu	a6,11(sp)
   11000:	00878433          	add	s0,a5,s0
   11004:	01278933          	add	s2,a5,s2
   11008:	01e78f33          	add	t5,a5,t5
   1100c:	00b785b3          	add	a1,a5,a1
   11010:	007783b3          	add	t2,a5,t2
   11014:	009784b3          	add	s1,a5,s1
   11018:	01d78eb3          	add	t4,a5,t4
   1101c:	00c78633          	add	a2,a5,a2
   11020:	005782b3          	add	t0,a5,t0
   11024:	00d786b3          	add	a3,a5,a3
   11028:	01c78e33          	add	t3,a5,t3
   1102c:	00678333          	add	t1,a5,t1
   11030:	01f78fb3          	add	t6,a5,t6
   11034:	00e78733          	add	a4,a5,a4
   11038:	011788b3          	add	a7,a5,a7
   1103c:	01078833          	add	a6,a5,a6
   11040:	00044403          	lbu	s0,0(s0)
   11044:	00094903          	lbu	s2,0(s2)
   11048:	000f4f03          	lbu	t5,0(t5)
   1104c:	0005c583          	lbu	a1,0(a1)
   11050:	0003c383          	lbu	t2,0(t2)
   11054:	0004c483          	lbu	s1,0(s1)
   11058:	000ece83          	lbu	t4,0(t4)
   1105c:	00064603          	lbu	a2,0(a2)
   11060:	0002c283          	lbu	t0,0(t0)
   11064:	0006c683          	lbu	a3,0(a3)
   11068:	000e4e03          	lbu	t3,0(t3)
   1106c:	00034303          	lbu	t1,0(t1)
   11070:	000fcf83          	lbu	t6,0(t6)
   11074:	00074703          	lbu	a4,0(a4)
   11078:	0008c883          	lbu	a7,0(a7)
   1107c:	00084803          	lbu	a6,0(a6)
   11080:	2769fa63          	bgeu	s3,s6,112f4 <encrypt+0x3c4>
   11084:	00795a93          	srli	s5,s2,0x7
   11088:	007f5a13          	srli	s4,t5,0x7
   1108c:	41500ab3          	sub	s5,zero,s5
   11090:	00191b93          	slli	s7,s2,0x1
   11094:	41400a33          	sub	s4,zero,s4
   11098:	01bafa93          	andi	s5,s5,27
   1109c:	017acab3          	xor	s5,s5,s7
   110a0:	01ba7a13          	andi	s4,s4,27
   110a4:	001f1b93          	slli	s7,t5,0x1
   110a8:	00745c13          	srli	s8,s0,0x7
   110ac:	017a4a33          	xor	s4,s4,s7
   110b0:	015a4bb3          	xor	s7,s4,s5
   110b4:	41800c33          	sub	s8,zero,s8
   110b8:	01244d33          	xor	s10,s0,s2
   110bc:	00bf4cb3          	xor	s9,t5,a1
   110c0:	01bc7c13          	andi	s8,s8,27
   110c4:	01744bb3          	xor	s7,s0,s7
   110c8:	00141413          	slli	s0,s0,0x1
   110cc:	019bcbb3          	xor	s7,s7,s9
   110d0:	012f4cb3          	xor	s9,t5,s2
   110d4:	008c4933          	xor	s2,s8,s0
   110d8:	012acab3          	xor	s5,s5,s2
   110dc:	0195c433          	xor	s0,a1,s9
   110e0:	01544433          	xor	s0,s0,s5
   110e4:	0075da93          	srli	s5,a1,0x7
   110e8:	41500ab3          	sub	s5,zero,s5
   110ec:	01af4cb3          	xor	s9,t5,s10
   110f0:	01bafa93          	andi	s5,s5,27
   110f4:	00bd4f33          	xor	t5,s10,a1
   110f8:	00159593          	slli	a1,a1,0x1
   110fc:	00bac5b3          	xor	a1,s5,a1
   11100:	0074dc13          	srli	s8,s1,0x7
   11104:	007eda93          	srli	s5,t4,0x7
   11108:	0145ca33          	xor	s4,a1,s4
   1110c:	41800c33          	sub	s8,zero,s8
   11110:	41500ab3          	sub	s5,zero,s5
   11114:	01bc7c13          	andi	s8,s8,27
   11118:	01bafa93          	andi	s5,s5,27
   1111c:	0125c5b3          	xor	a1,a1,s2
   11120:	014f4f33          	xor	t5,t5,s4
   11124:	001e9913          	slli	s2,t4,0x1
   11128:	00149a13          	slli	s4,s1,0x1
   1112c:	014c4a33          	xor	s4,s8,s4
   11130:	0195c5b3          	xor	a1,a1,s9
   11134:	012ac933          	xor	s2,s5,s2
   11138:	0073dc93          	srli	s9,t2,0x7
   1113c:	01494ab3          	xor	s5,s2,s4
   11140:	41900c33          	sub	s8,zero,s9
   11144:	0093cd33          	xor	s10,t2,s1
   11148:	00ceccb3          	xor	s9,t4,a2
   1114c:	01bc7c13          	andi	s8,s8,27
   11150:	0153cab3          	xor	s5,t2,s5
   11154:	00139393          	slli	t2,t2,0x1
   11158:	019acab3          	xor	s5,s5,s9
   1115c:	009eccb3          	xor	s9,t4,s1
   11160:	007c44b3          	xor	s1,s8,t2
   11164:	009a4a33          	xor	s4,s4,s1
   11168:	019643b3          	xor	t2,a2,s9
   1116c:	0143c3b3          	xor	t2,t2,s4
   11170:	00765a13          	srli	s4,a2,0x7
   11174:	41400a33          	sub	s4,zero,s4
   11178:	01dd4cb3          	xor	s9,s10,t4
   1117c:	01ba7a13          	andi	s4,s4,27
   11180:	00cd4eb3          	xor	t4,s10,a2
   11184:	00161613          	slli	a2,a2,0x1
   11188:	00ca4633          	xor	a2,s4,a2
   1118c:	0076dc13          	srli	s8,a3,0x7
   11190:	01264933          	xor	s2,a2,s2
   11194:	007e5a13          	srli	s4,t3,0x7
   11198:	41800c33          	sub	s8,zero,s8
   1119c:	012eceb3          	xor	t4,t4,s2
   111a0:	01bc7c13          	andi	s8,s8,27
   111a4:	00169913          	slli	s2,a3,0x1
   111a8:	41400a33          	sub	s4,zero,s4
   111ac:	012c4c33          	xor	s8,s8,s2
   111b0:	01ba7a13          	andi	s4,s4,27
   111b4:	001e1913          	slli	s2,t3,0x1
   111b8:	00964633          	xor	a2,a2,s1
   111bc:	012a4933          	xor	s2,s4,s2
   111c0:	0072d493          	srli	s1,t0,0x7
   111c4:	01894a33          	xor	s4,s2,s8
   111c8:	409004b3          	sub	s1,zero,s1
   111cc:	00de4d33          	xor	s10,t3,a3
   111d0:	0142ca33          	xor	s4,t0,s4
   111d4:	0056c6b3          	xor	a3,a3,t0
   111d8:	01b4f493          	andi	s1,s1,27
   111dc:	00129293          	slli	t0,t0,0x1
   111e0:	0054c4b3          	xor	s1,s1,t0
   111e4:	01a34d33          	xor	s10,t1,s10
   111e8:	009c4c33          	xor	s8,s8,s1
   111ec:	018d42b3          	xor	t0,s10,s8
   111f0:	00735c13          	srli	s8,t1,0x7
   111f4:	41800c33          	sub	s8,zero,s8
   111f8:	01964633          	xor	a2,a2,s9
   111fc:	01bc7c13          	andi	s8,s8,27
   11200:	01c34cb3          	xor	s9,t1,t3
   11204:	01c6ce33          	xor	t3,a3,t3
   11208:	0066c6b3          	xor	a3,a3,t1
   1120c:	00131313          	slli	t1,t1,0x1
   11210:	006c4333          	xor	t1,s8,t1
   11214:	019a4a33          	xor	s4,s4,s9
   11218:	0078dd13          	srli	s10,a7,0x7
   1121c:	00775c93          	srli	s9,a4,0x7
   11220:	009344b3          	xor	s1,t1,s1
   11224:	01234933          	xor	s2,t1,s2
   11228:	41900cb3          	sub	s9,zero,s9
   1122c:	41a00d33          	sub	s10,zero,s10
   11230:	0126c333          	xor	t1,a3,s2
   11234:	009e4c33          	xor	s8,t3,s1
   11238:	01bcfc93          	andi	s9,s9,27
   1123c:	01bd7d13          	andi	s10,s10,27
   11240:	00171913          	slli	s2,a4,0x1
   11244:	00189493          	slli	s1,a7,0x1
   11248:	012cc933          	xor	s2,s9,s2
   1124c:	009d44b3          	xor	s1,s10,s1
   11250:	0124c6b3          	xor	a3,s1,s2
   11254:	00dfc6b3          	xor	a3,t6,a3
   11258:	01184cb3          	xor	s9,a6,a7
   1125c:	007fde13          	srli	t3,t6,0x7
   11260:	0196ccb3          	xor	s9,a3,s9
   11264:	41c00e33          	sub	t3,zero,t3
   11268:	00785693          	srli	a3,a6,0x7
   1126c:	00e8cd33          	xor	s10,a7,a4
   11270:	01be7e13          	andi	t3,t3,27
   11274:	01f74733          	xor	a4,a4,t6
   11278:	40d006b3          	sub	a3,zero,a3
   1127c:	001f9f93          	slli	t6,t6,0x1
   11280:	01fe4e33          	xor	t3,t3,t6
   11284:	01a84d33          	xor	s10,a6,s10
   11288:	01174fb3          	xor	t6,a4,a7
   1128c:	01b6f693          	andi	a3,a3,27
   11290:	01074733          	xor	a4,a4,a6
   11294:	00181813          	slli	a6,a6,0x1
   11298:	0106c6b3          	xor	a3,a3,a6
   1129c:	01c94933          	xor	s2,s2,t3
   112a0:	0096c4b3          	xor	s1,a3,s1
   112a4:	01c6c6b3          	xor	a3,a3,t3
   112a8:	012d4833          	xor	a6,s10,s2
   112ac:	00e4c8b3          	xor	a7,s1,a4
   112b0:	00dfcd33          	xor	s10,t6,a3
   112b4:	0ff37e13          	andi	t3,t1,255
   112b8:	0ff87f93          	andi	t6,a6,255
   112bc:	0ffbf913          	andi	s2,s7,255
   112c0:	0ff47413          	andi	s0,s0,255
   112c4:	0fff7f13          	andi	t5,t5,255
   112c8:	0ff5f593          	andi	a1,a1,255
   112cc:	0ffaf493          	andi	s1,s5,255
   112d0:	0ff3f393          	andi	t2,t2,255
   112d4:	0ffefe93          	andi	t4,t4,255
   112d8:	0ff67613          	andi	a2,a2,255
   112dc:	0ffa7693          	andi	a3,s4,255
   112e0:	0ff2f293          	andi	t0,t0,255
   112e4:	0ffc7313          	andi	t1,s8,255
   112e8:	0ffcf713          	andi	a4,s9,255
   112ec:	0ff8f893          	andi	a7,a7,255
   112f0:	0ffd7813          	andi	a6,s10,255
   112f4:	00b101a3          	sb	a1,3(sp)
   112f8:	00c103a3          	sb	a2,7(sp)
   112fc:	00d104a3          	sb	a3,9(sp)
   11300:	01c10523          	sb	t3,10(sp)
   11304:	006105a3          	sb	t1,11(sp)
   11308:	00e106a3          	sb	a4,13(sp)
   1130c:	010107a3          	sb	a6,15(sp)
   11310:	00810023          	sb	s0,0(sp)
   11314:	012100a3          	sb	s2,1(sp)
   11318:	01e10123          	sb	t5,2(sp)
   1131c:	00710223          	sb	t2,4(sp)
   11320:	009102a3          	sb	s1,5(sp)
   11324:	01d10323          	sb	t4,6(sp)
   11328:	00510423          	sb	t0,8(sp)
   1132c:	01f10623          	sb	t6,12(sp)
   11330:	01110723          	sb	a7,14(sp)
   11334:	00412583          	lw	a1,4(sp)
   11338:	00452e03          	lw	t3,4(a0)
   1133c:	00812603          	lw	a2,8(sp)
   11340:	00852303          	lw	t1,8(a0)
   11344:	00c12883          	lw	a7,12(sp)
   11348:	00c52683          	lw	a3,12(a0)
   1134c:	00012803          	lw	a6,0(sp)
   11350:	00052703          	lw	a4,0(a0)
   11354:	01c5c5b3          	xor	a1,a1,t3
   11358:	00664633          	xor	a2,a2,t1
   1135c:	0116c6b3          	xor	a3,a3,a7
   11360:	01074733          	xor	a4,a4,a6
   11364:	00198993          	addi	s3,s3,1
   11368:	00b12223          	sw	a1,4(sp)
   1136c:	00c12423          	sw	a2,8(sp)
   11370:	00d12623          	sw	a3,12(sp)
   11374:	00e12023          	sw	a4,0(sp)
   11378:	01050513          	addi	a0,a0,16
   1137c:	c53b72e3          	bgeu	s6,s3,10fc0 <encrypt+0x90>
   11380:	03c12403          	lw	s0,60(sp)
   11384:	03812483          	lw	s1,56(sp)
   11388:	03412903          	lw	s2,52(sp)
   1138c:	03012983          	lw	s3,48(sp)
   11390:	02c12a03          	lw	s4,44(sp)
   11394:	02812a83          	lw	s5,40(sp)
   11398:	02012b83          	lw	s7,32(sp)
   1139c:	01c12c03          	lw	s8,28(sp)
   113a0:	01812c83          	lw	s9,24(sp)
   113a4:	01412d03          	lw	s10,20(sp)
   113a8:	003df793          	andi	a5,s11,3
   113ac:	02079c63          	bne	a5,zero,113e4 <encrypt+0x4b4>
   113b0:	00012603          	lw	a2,0(sp)
   113b4:	00412683          	lw	a3,4(sp)
   113b8:	00812703          	lw	a4,8(sp)
   113bc:	00c12783          	lw	a5,12(sp)
   113c0:	00cda023          	sw	a2,0(s11)
   113c4:	00dda223          	sw	a3,4(s11)
   113c8:	00eda423          	sw	a4,8(s11)
   113cc:	00fda623          	sw	a5,12(s11)
   113d0:	02412b03          	lw	s6,36(sp)
   113d4:	01012d83          	lw	s11,16(sp)
   113d8:	00100513          	addi	a0,zero,1
   113dc:	04010113          	addi	sp,sp,64
   113e0:	00008067          	jalr	zero,0(ra)
   113e4:	00014683          	lbu	a3,0(sp)
   113e8:	00114703          	lbu	a4,1(sp)
   113ec:	00214783          	lbu	a5,2(sp)
   113f0:	00a14503          	lbu	a0,10(sp)
   113f4:	00314f83          	lbu	t6,3(sp)
   113f8:	00414f03          	lbu	t5,4(sp)
   113fc:	00514e83          	lbu	t4,5(sp)
   11400:	00614e03          	lbu	t3,6(sp)
   11404:	00714303          	lbu	t1,7(sp)
   11408:	00814883          	lbu	a7,8(sp)
   1140c:	00914803          	lbu	a6,9(sp)
   11410:	00b14583          	lbu	a1,11(sp)
   11414:	00c14603          	lbu	a2,12(sp)
   11418:	00dd8023          	sb	a3,0(s11)
   1141c:	00ed80a3          	sb	a4,1(s11)
   11420:	00d14683          	lbu	a3,13(sp)
   11424:	00e14703          	lbu	a4,14(sp)
   11428:	00fd8123          	sb	a5,2(s11)
   1142c:	00f14783          	lbu	a5,15(sp)
   11430:	00ad8523          	sb	a0,10(s11)
   11434:	01fd81a3          	sb	t6,3(s11)
   11438:	01ed8223          	sb	t5,4(s11)
   1143c:	01dd82a3          	sb	t4,5(s11)
   11440:	01cd8323          	sb	t3,6(s11)
   11444:	006d83a3          	sb	t1,7(s11)
   11448:	011d8423          	sb	a7,8(s11)
   1144c:	010d84a3          	sb	a6,9(s11)
   11450:	00bd85a3          	sb	a1,11(s11)
   11454:	00cd8623          	sb	a2,12(s11)
   11458:	00dd86a3          	sb	a3,13(s11)
   1145c:	00ed8723          	sb	a4,14(s11)
   11460:	00fd87a3          	sb	a5,15(s11)
   11464:	02412b03          	lw	s6,36(sp)
   11468:	00100513          	addi	a0,zero,1
   1146c:	01012d83          	lw	s11,16(sp)
   11470:	04010113          	addi	sp,sp,64
   11474:	00008067          	jalr	zero,0(ra)

00011478 <enc_buffer.part.0>:
   11478:	f9010113          	addi	sp,sp,-112
   1147c:	07212023          	sw	s2,96(sp)
   11480:	05412c23          	sw	s4,88(sp)
   11484:	03b12e23          	sw	s11,60(sp)
   11488:	06112623          	sw	ra,108(sp)
   1148c:	06812423          	sw	s0,104(sp)
   11490:	06912223          	sw	s1,100(sp)
   11494:	05312e23          	sw	s3,92(sp)
   11498:	05512a23          	sw	s5,84(sp)
   1149c:	05612823          	sw	s6,80(sp)
   114a0:	05712623          	sw	s7,76(sp)
   114a4:	05812423          	sw	s8,72(sp)
   114a8:	05912223          	sw	s9,68(sp)
   114ac:	05a12023          	sw	s10,64(sp)
   114b0:	0036f793          	andi	a5,a3,3
   114b4:	00e12623          	sw	a4,12(sp)
   114b8:	00050a13          	addi	s4,a0,0
   114bc:	00058d93          	addi	s11,a1,0
   114c0:	00060913          	addi	s2,a2,0
   114c4:	44079263          	bne	a5,zero,11908 <enc_buffer.part.0+0x490>
   114c8:	0006a583          	lw	a1,0(a3)
   114cc:	0046a603          	lw	a2,4(a3)
   114d0:	0086a703          	lw	a4,8(a3)
   114d4:	00c6a783          	lw	a5,12(a3)
   114d8:	00b12823          	sw	a1,16(sp)
   114dc:	00c12a23          	sw	a2,20(sp)
   114e0:	00e12c23          	sw	a4,24(sp)
   114e4:	00f12e23          	sw	a5,28(sp)
   114e8:	01000c13          	addi	s8,zero,16
   114ec:	88018793          	addi	a5,gp,-1920 # 70738 <r.2>
   114f0:	00f00713          	addi	a4,zero,15
   114f4:	01868433          	add	s0,a3,s8
   114f8:	000c0993          	addi	s3,s8,0
   114fc:	00f12423          	sw	a5,8(sp)
   11500:	00100c93          	addi	s9,zero,1
   11504:	00000d13          	addi	s10,zero,0
   11508:	01b036b3          	sltu	a3,zero,s11
   1150c:	00400a93          	addi	s5,zero,4
   11510:	00edfbb3          	and	s7,s11,a4
   11514:	02010493          	addi	s1,sp,32
   11518:	00069463          	bne	a3,zero,11520 <enc_buffer.part.0+0xa8>
   1151c:	180c8063          	beq	s9,zero,1169c <enc_buffer.part.0+0x224>
   11520:	02012023          	sw	zero,32(sp)
   11524:	02012223          	sw	zero,36(sp)
   11528:	02012423          	sw	zero,40(sp)
   1152c:	02012623          	sw	zero,44(sp)
   11530:	00000793          	addi	a5,zero,0
   11534:	1e0c9c63          	bne	s9,zero,1172c <enc_buffer.part.0+0x2b4>
   11538:	41ad86b3          	sub	a3,s11,s10
   1153c:	00d77463          	bgeu	a4,a3,11544 <enc_buffer.part.0+0xcc>
   11540:	00070693          	addi	a3,a4,0
   11544:	28068a63          	beq	a3,zero,117d8 <enc_buffer.part.0+0x360>
   11548:	40e987b3          	sub	a5,s3,a4
   1154c:	fff68893          	addi	a7,a3,-1
   11550:	00500613          	addi	a2,zero,5
   11554:	00f487b3          	add	a5,s1,a5
   11558:	00048513          	addi	a0,s1,0
   1155c:	01aa05b3          	add	a1,s4,s10
   11560:	29167663          	bgeu	a2,a7,117ec <enc_buffer.part.0+0x374>
   11564:	00f5e733          	or	a4,a1,a5
   11568:	00377713          	andi	a4,a4,3
   1156c:	36071e63          	bne	a4,zero,118e8 <enc_buffer.part.0+0x470>
   11570:	0005a303          	lw	t1,0(a1)
   11574:	0026d613          	srli	a2,a3,0x2
   11578:	00100713          	addi	a4,zero,1
   1157c:	0067a023          	sw	t1,0(a5)
   11580:	1ce60c63          	beq	a2,a4,11758 <enc_buffer.part.0+0x2e0>
   11584:	0045a303          	lw	t1,4(a1)
   11588:	00200713          	addi	a4,zero,2
   1158c:	0067a223          	sw	t1,4(a5)
   11590:	14e60a63          	beq	a2,a4,116e4 <enc_buffer.part.0+0x26c>
   11594:	0085a703          	lw	a4,8(a1)
   11598:	00e7a423          	sw	a4,8(a5)
   1159c:	15561463          	bne	a2,s5,116e4 <enc_buffer.part.0+0x26c>
   115a0:	00c5a703          	lw	a4,12(a1)
   115a4:	00e7a623          	sw	a4,12(a5)
   115a8:	02012783          	lw	a5,32(sp)
   115ac:	02412303          	lw	t1,36(sp)
   115b0:	02812883          	lw	a7,40(sp)
   115b4:	02c12703          	lw	a4,44(sp)
   115b8:	01412e83          	lw	t4,20(sp)
   115bc:	01812e03          	lw	t3,24(sp)
   115c0:	01c12583          	lw	a1,28(sp)
   115c4:	01012603          	lw	a2,16(sp)
   115c8:	01d34333          	xor	t1,t1,t4
   115cc:	01c8c8b3          	xor	a7,a7,t3
   115d0:	00b74733          	xor	a4,a4,a1
   115d4:	00c7c7b3          	xor	a5,a5,a2
   115d8:	01010593          	addi	a1,sp,16
   115dc:	00090613          	addi	a2,s2,0
   115e0:	00dd0d33          	add	s10,s10,a3
   115e4:	02612223          	sw	t1,36(sp)
   115e8:	03112423          	sw	a7,40(sp)
   115ec:	02e12623          	sw	a4,44(sp)
   115f0:	02f12023          	sw	a5,32(sp)
   115f4:	93dff0ef          	jal	ra,10f30 <encrypt>
   115f8:	01014303          	lbu	t1,16(sp)
   115fc:	01114883          	lbu	a7,17(sp)
   11600:	01214503          	lbu	a0,18(sp)
   11604:	01314583          	lbu	a1,19(sp)
   11608:	01414603          	lbu	a2,20(sp)
   1160c:	01514703          	lbu	a4,21(sp)
   11610:	00640023          	sb	t1,0(s0)
   11614:	011400a3          	sb	a7,1(s0)
   11618:	00a40123          	sb	a0,2(s0)
   1161c:	00b401a3          	sb	a1,3(s0)
   11620:	00c40223          	sb	a2,4(s0)
   11624:	00e402a3          	sb	a4,5(s0)
   11628:	01614f83          	lbu	t6,22(sp)
   1162c:	01f14703          	lbu	a4,31(sp)
   11630:	01714f03          	lbu	t5,23(sp)
   11634:	01814e83          	lbu	t4,24(sp)
   11638:	01914e03          	lbu	t3,25(sp)
   1163c:	01a14303          	lbu	t1,26(sp)
   11640:	01b14883          	lbu	a7,27(sp)
   11644:	01c14503          	lbu	a0,28(sp)
   11648:	01d14583          	lbu	a1,29(sp)
   1164c:	01e14603          	lbu	a2,30(sp)
   11650:	01bd36b3          	sltu	a3,s10,s11
   11654:	001ccc93          	xori	s9,s9,1
   11658:	0016b793          	sltiu	a5,a3,1
   1165c:	00e407a3          	sb	a4,15(s0)
   11660:	0197f7b3          	and	a5,a5,s9
   11664:	01f40323          	sb	t6,6(s0)
   11668:	01e403a3          	sb	t5,7(s0)
   1166c:	01d40423          	sb	t4,8(s0)
   11670:	01c404a3          	sb	t3,9(s0)
   11674:	00640523          	sb	t1,10(s0)
   11678:	011405a3          	sb	a7,11(s0)
   1167c:	00a40623          	sb	a0,12(s0)
   11680:	00b406a3          	sb	a1,13(s0)
   11684:	00c40723          	sb	a2,14(s0)
   11688:	010c0c13          	addi	s8,s8,16
   1168c:	01040413          	addi	s0,s0,16
   11690:	01000713          	addi	a4,zero,16
   11694:	00000c93          	addi	s9,zero,0
   11698:	e80780e3          	beq	a5,zero,11518 <enc_buffer.part.0+0xa0>
   1169c:	00c12783          	lw	a5,12(sp)
   116a0:	06c12083          	lw	ra,108(sp)
   116a4:	06812403          	lw	s0,104(sp)
   116a8:	0187a023          	sw	s8,0(a5)
   116ac:	06412483          	lw	s1,100(sp)
   116b0:	06012903          	lw	s2,96(sp)
   116b4:	05c12983          	lw	s3,92(sp)
   116b8:	05812a03          	lw	s4,88(sp)
   116bc:	05412a83          	lw	s5,84(sp)
   116c0:	05012b03          	lw	s6,80(sp)
   116c4:	04c12b83          	lw	s7,76(sp)
   116c8:	04812c03          	lw	s8,72(sp)
   116cc:	04412c83          	lw	s9,68(sp)
   116d0:	04012d03          	lw	s10,64(sp)
   116d4:	03c12d83          	lw	s11,60(sp)
   116d8:	00000513          	addi	a0,zero,0
   116dc:	07010113          	addi	sp,sp,112
   116e0:	00008067          	jalr	zero,0(ra)
   116e4:	ffc6f713          	andi	a4,a3,-4
   116e8:	40e88633          	sub	a2,a7,a4
   116ec:	00e788b3          	add	a7,a5,a4
   116f0:	0036f793          	andi	a5,a3,3
   116f4:	00e58733          	add	a4,a1,a4
   116f8:	ea0788e3          	beq	a5,zero,115a8 <enc_buffer.part.0+0x130>
   116fc:	00074783          	lbu	a5,0(a4)
   11700:	00f88023          	sb	a5,0(a7)
   11704:	ea0602e3          	beq	a2,zero,115a8 <enc_buffer.part.0+0x130>
   11708:	fff60613          	addi	a2,a2,-1
   1170c:	00170793          	addi	a5,a4,1
   11710:	00188313          	addi	t1,a7,1
   11714:	0007c783          	lbu	a5,0(a5)
   11718:	00f30023          	sb	a5,0(t1)
   1171c:	e80606e3          	beq	a2,zero,115a8 <enc_buffer.part.0+0x130>
   11720:	00274783          	lbu	a5,2(a4)
   11724:	00f88123          	sb	a5,2(a7)
   11728:	e81ff06f          	jal	zero,115a8 <enc_buffer.part.0+0x130>
   1172c:	8701a783          	lw	a5,-1936(gp) # 70728 <count.4>
   11730:	05578263          	beq	a5,s5,11774 <enc_buffer.part.0+0x2fc>
   11734:	00812683          	lw	a3,8(sp)
   11738:	00d785b3          	add	a1,a5,a3
   1173c:	00178693          	addi	a3,a5,1
   11740:	0005c783          	lbu	a5,0(a1)
   11744:	86d1a823          	sw	a3,-1936(gp) # 70728 <count.4>
   11748:	ff07f793          	andi	a5,a5,-16
   1174c:	0177e7b3          	or	a5,a5,s7
   11750:	02f10023          	sb	a5,32(sp)
   11754:	de5ff06f          	jal	zero,11538 <enc_buffer.part.0+0xc0>
   11758:	0045c703          	lbu	a4,4(a1)
   1175c:	00478893          	addi	a7,a5,4
   11760:	00578313          	addi	t1,a5,5
   11764:	00e78223          	sb	a4,4(a5)
   11768:	00458713          	addi	a4,a1,4
   1176c:	00558793          	addi	a5,a1,5
   11770:	fa5ff06f          	jal	zero,11714 <enc_buffer.part.0+0x29c>
   11774:	86818613          	addi	a2,gp,-1944 # 70720 <a.3>
   11778:	00062783          	lw	a5,0(a2)
   1177c:	00462503          	lw	a0,4(a2)
   11780:	000098b7          	lui	a7,0x9
   11784:	01079693          	slli	a3,a5,0x10
   11788:	06988893          	addi	a7,a7,105 # 9069 <exit-0x704b>
   1178c:	0106d693          	srli	a3,a3,0x10
   11790:	0107d593          	srli	a1,a5,0x10
   11794:	031686b3          	mul	a3,a3,a7
   11798:	01051793          	slli	a5,a0,0x10
   1179c:	000048b7          	lui	a7,0x4
   117a0:	65088893          	addi	a7,a7,1616 # 4650 <exit-0xba64>
   117a4:	0107d793          	srli	a5,a5,0x10
   117a8:	01055513          	srli	a0,a0,0x10
   117ac:	031787b3          	mul	a5,a5,a7
   117b0:	00b686b3          	add	a3,a3,a1
   117b4:	01069893          	slli	a7,a3,0x10
   117b8:	00d62023          	sw	a3,0(a2)
   117bc:	88018593          	addi	a1,gp,-1920 # 70738 <r.2>
   117c0:	000c8693          	addi	a3,s9,0
   117c4:	00a787b3          	add	a5,a5,a0
   117c8:	00f62223          	sw	a5,4(a2)
   117cc:	00f887b3          	add	a5,a7,a5
   117d0:	88f1a023          	sw	a5,-1920(gp) # 70738 <r.2>
   117d4:	f6dff06f          	jal	zero,11740 <enc_buffer.part.0+0x2c8>
   117d8:	00000713          	addi	a4,zero,0
   117dc:	00000893          	addi	a7,zero,0
   117e0:	00000313          	addi	t1,zero,0
   117e4:	02010513          	addi	a0,sp,32
   117e8:	dd1ff06f          	jal	zero,115b8 <enc_buffer.part.0+0x140>
   117ec:	0005c703          	lbu	a4,0(a1)
   117f0:	00e78023          	sb	a4,0(a5)
   117f4:	da088ae3          	beq	a7,zero,115a8 <enc_buffer.part.0+0x130>
   117f8:	0015c603          	lbu	a2,1(a1)
   117fc:	00200713          	addi	a4,zero,2
   11800:	00c780a3          	sb	a2,1(a5)
   11804:	dae682e3          	beq	a3,a4,115a8 <enc_buffer.part.0+0x130>
   11808:	00e58733          	add	a4,a1,a4
   1180c:	00278893          	addi	a7,a5,2
   11810:	ffd68613          	addi	a2,a3,-3
   11814:	00074703          	lbu	a4,0(a4)
   11818:	00e88023          	sb	a4,0(a7)
   1181c:	d80606e3          	beq	a2,zero,115a8 <enc_buffer.part.0+0x130>
   11820:	0035c703          	lbu	a4,3(a1)
   11824:	00e781a3          	sb	a4,3(a5)
   11828:	d95680e3          	beq	a3,s5,115a8 <enc_buffer.part.0+0x130>
   1182c:	0045c603          	lbu	a2,4(a1)
   11830:	00500713          	addi	a4,zero,5
   11834:	00c78223          	sb	a2,4(a5)
   11838:	d6e688e3          	beq	a3,a4,115a8 <enc_buffer.part.0+0x130>
   1183c:	0055c603          	lbu	a2,5(a1)
   11840:	00600713          	addi	a4,zero,6
   11844:	00c782a3          	sb	a2,5(a5)
   11848:	d6e680e3          	beq	a3,a4,115a8 <enc_buffer.part.0+0x130>
   1184c:	0065c603          	lbu	a2,6(a1)
   11850:	00700713          	addi	a4,zero,7
   11854:	00c78323          	sb	a2,6(a5)
   11858:	d4e688e3          	beq	a3,a4,115a8 <enc_buffer.part.0+0x130>
   1185c:	0075c603          	lbu	a2,7(a1)
   11860:	00800713          	addi	a4,zero,8
   11864:	00c783a3          	sb	a2,7(a5)
   11868:	d4e680e3          	beq	a3,a4,115a8 <enc_buffer.part.0+0x130>
   1186c:	0085c603          	lbu	a2,8(a1)
   11870:	00900713          	addi	a4,zero,9
   11874:	00c78423          	sb	a2,8(a5)
   11878:	d2e688e3          	beq	a3,a4,115a8 <enc_buffer.part.0+0x130>
   1187c:	0095c603          	lbu	a2,9(a1)
   11880:	00a00713          	addi	a4,zero,10
   11884:	00c784a3          	sb	a2,9(a5)
   11888:	d2e680e3          	beq	a3,a4,115a8 <enc_buffer.part.0+0x130>
   1188c:	00a5c603          	lbu	a2,10(a1)
   11890:	00b00713          	addi	a4,zero,11
   11894:	00c78523          	sb	a2,10(a5)
   11898:	d0e688e3          	beq	a3,a4,115a8 <enc_buffer.part.0+0x130>
   1189c:	00b5c603          	lbu	a2,11(a1)
   118a0:	00c00713          	addi	a4,zero,12
   118a4:	00c785a3          	sb	a2,11(a5)
   118a8:	d0e680e3          	beq	a3,a4,115a8 <enc_buffer.part.0+0x130>
   118ac:	00c5c603          	lbu	a2,12(a1)
   118b0:	00d00713          	addi	a4,zero,13
   118b4:	00c78623          	sb	a2,12(a5)
   118b8:	cee688e3          	beq	a3,a4,115a8 <enc_buffer.part.0+0x130>
   118bc:	00d5c603          	lbu	a2,13(a1)
   118c0:	00e00713          	addi	a4,zero,14
   118c4:	00c786a3          	sb	a2,13(a5)
   118c8:	cee680e3          	beq	a3,a4,115a8 <enc_buffer.part.0+0x130>
   118cc:	00e5c603          	lbu	a2,14(a1)
   118d0:	00f00713          	addi	a4,zero,15
   118d4:	00c78723          	sb	a2,14(a5)
   118d8:	cce688e3          	beq	a3,a4,115a8 <enc_buffer.part.0+0x130>
   118dc:	00f5c703          	lbu	a4,15(a1)
   118e0:	00e787a3          	sb	a4,15(a5)
   118e4:	cc5ff06f          	jal	zero,115a8 <enc_buffer.part.0+0x130>
   118e8:	0005c883          	lbu	a7,0(a1)
   118ec:	0015c603          	lbu	a2,1(a1)
   118f0:	00258713          	addi	a4,a1,2
   118f4:	01178023          	sb	a7,0(a5)
   118f8:	00c780a3          	sb	a2,1(a5)
   118fc:	00278893          	addi	a7,a5,2
   11900:	ffd68613          	addi	a2,a3,-3
   11904:	f11ff06f          	jal	zero,11814 <enc_buffer.part.0+0x39c>
   11908:	0006c883          	lbu	a7,0(a3)
   1190c:	0016c803          	lbu	a6,1(a3)
   11910:	0026c503          	lbu	a0,2(a3)
   11914:	0036c583          	lbu	a1,3(a3)
   11918:	0046c603          	lbu	a2,4(a3)
   1191c:	0056c703          	lbu	a4,5(a3)
   11920:	0066c783          	lbu	a5,6(a3)
   11924:	0076ce03          	lbu	t3,7(a3)
   11928:	0086c303          	lbu	t1,8(a3)
   1192c:	01110823          	sb	a7,16(sp)
   11930:	010108a3          	sb	a6,17(sp)
   11934:	0096c883          	lbu	a7,9(a3)
   11938:	00a6c803          	lbu	a6,10(a3)
   1193c:	00a10923          	sb	a0,18(sp)
   11940:	00b109a3          	sb	a1,19(sp)
   11944:	00b6c503          	lbu	a0,11(a3)
   11948:	00c6c583          	lbu	a1,12(a3)
   1194c:	00c10a23          	sb	a2,20(sp)
   11950:	00e10aa3          	sb	a4,21(sp)
   11954:	00d6c603          	lbu	a2,13(a3)
   11958:	00e6c703          	lbu	a4,14(a3)
   1195c:	00f10b23          	sb	a5,22(sp)
   11960:	00f6c783          	lbu	a5,15(a3)
   11964:	01c10ba3          	sb	t3,23(sp)
   11968:	00610c23          	sb	t1,24(sp)
   1196c:	01110ca3          	sb	a7,25(sp)
   11970:	01010d23          	sb	a6,26(sp)
   11974:	00a10da3          	sb	a0,27(sp)
   11978:	00b10e23          	sb	a1,28(sp)
   1197c:	00c10ea3          	sb	a2,29(sp)
   11980:	00e10f23          	sb	a4,30(sp)
   11984:	00f10fa3          	sb	a5,31(sp)
   11988:	b61ff06f          	jal	zero,114e8 <enc_buffer.part.0+0x70>

0001198c <decrypt>:
   1198c:	00452803          	lw	a6,4(a0)
   11990:	00852683          	lw	a3,8(a0)
   11994:	00c52703          	lw	a4,12(a0)
   11998:	00052783          	lw	a5,0(a0)
   1199c:	0fc62e83          	lw	t4,252(a2)
   119a0:	10062303          	lw	t1,256(a2)
   119a4:	10462883          	lw	a7,260(a2)
   119a8:	0f862503          	lw	a0,248(a2)
   119ac:	00462e03          	lw	t3,4(a2)
   119b0:	fc010113          	addi	sp,sp,-64
   119b4:	01d84833          	xor	a6,a6,t4
   119b8:	0066c6b3          	xor	a3,a3,t1
   119bc:	01174733          	xor	a4,a4,a7
   119c0:	00a7c7b3          	xor	a5,a5,a0
   119c4:	01012223          	sw	a6,4(sp)
   119c8:	00d12423          	sw	a3,8(sp)
   119cc:	00e12623          	sw	a4,12(sp)
   119d0:	00f12023          	sw	a5,0(sp)
   119d4:	3a0e0063          	beq	t3,zero,11d74 <decrypt+0x3e8>
   119d8:	000237b7          	lui	a5,0x23
   119dc:	10860893          	addi	a7,a2,264
   119e0:	02812e23          	sw	s0,60(sp)
   119e4:	02912c23          	sw	s1,56(sp)
   119e8:	03212a23          	sw	s2,52(sp)
   119ec:	03312823          	sw	s3,48(sp)
   119f0:	03412623          	sw	s4,44(sp)
   119f4:	03512423          	sw	s5,40(sp)
   119f8:	4f478613          	addi	a2,a5,1268 # 234f4 <s_box>
   119fc:	00100313          	addi	t1,zero,1
   11a00:	0900006f          	jal	zero,11a90 <decrypt+0x104>
   11a04:	00810023          	sb	s0,0(sp)
   11a08:	007100a3          	sb	t2,1(sp)
   11a0c:	00510123          	sb	t0,2(sp)
   11a10:	01f101a3          	sb	t6,3(sp)
   11a14:	01e10223          	sb	t5,4(sp)
   11a18:	01d102a3          	sb	t4,5(sp)
   11a1c:	00910323          	sb	s1,6(sp)
   11a20:	012103a3          	sb	s2,7(sp)
   11a24:	01310423          	sb	s3,8(sp)
   11a28:	014104a3          	sb	s4,9(sp)
   11a2c:	01510523          	sb	s5,10(sp)
   11a30:	010105a3          	sb	a6,11(sp)
   11a34:	00a10623          	sb	a0,12(sp)
   11a38:	00d106a3          	sb	a3,13(sp)
   11a3c:	00e10723          	sb	a4,14(sp)
   11a40:	00f107a3          	sb	a5,15(sp)
   11a44:	0048a503          	lw	a0,4(a7)
   11a48:	00412f83          	lw	t6,4(sp)
   11a4c:	0088a683          	lw	a3,8(a7)
   11a50:	00812f03          	lw	t5,8(sp)
   11a54:	00c8a703          	lw	a4,12(a7)
   11a58:	00c12e83          	lw	t4,12(sp)
   11a5c:	00012783          	lw	a5,0(sp)
   11a60:	0008a803          	lw	a6,0(a7)
   11a64:	01f54533          	xor	a0,a0,t6
   11a68:	01e6c6b3          	xor	a3,a3,t5
   11a6c:	01d74733          	xor	a4,a4,t4
   11a70:	0107c7b3          	xor	a5,a5,a6
   11a74:	00130313          	addi	t1,t1,1
   11a78:	00a12223          	sw	a0,4(sp)
   11a7c:	00d12423          	sw	a3,8(sp)
   11a80:	00e12623          	sw	a4,12(sp)
   11a84:	00f12023          	sw	a5,0(sp)
   11a88:	01088893          	addi	a7,a7,16
   11a8c:	2c6e6863          	bltu	t3,t1,11d5c <decrypt+0x3d0>
   11a90:	00014403          	lbu	s0,0(sp)
   11a94:	00d14383          	lbu	t2,13(sp)
   11a98:	00a14283          	lbu	t0,10(sp)
   11a9c:	00714f83          	lbu	t6,7(sp)
   11aa0:	00414f03          	lbu	t5,4(sp)
   11aa4:	00114e83          	lbu	t4,1(sp)
   11aa8:	00e14803          	lbu	a6,14(sp)
   11aac:	00b14503          	lbu	a0,11(sp)
   11ab0:	00814683          	lbu	a3,8(sp)
   11ab4:	00514703          	lbu	a4,5(sp)
   11ab8:	00214783          	lbu	a5,2(sp)
   11abc:	01060833          	add	a6,a2,a6
   11ac0:	00a60533          	add	a0,a2,a0
   11ac4:	00d606b3          	add	a3,a2,a3
   11ac8:	00e60733          	add	a4,a2,a4
   11acc:	00860433          	add	s0,a2,s0
   11ad0:	007603b3          	add	t2,a2,t2
   11ad4:	005602b3          	add	t0,a2,t0
   11ad8:	01f60fb3          	add	t6,a2,t6
   11adc:	01e60f33          	add	t5,a2,t5
   11ae0:	01d60eb3          	add	t4,a2,t4
   11ae4:	12884483          	lbu	s1,296(a6)
   11ae8:	12854903          	lbu	s2,296(a0)
   11aec:	1286c983          	lbu	s3,296(a3)
   11af0:	12874a03          	lbu	s4,296(a4)
   11af4:	12844403          	lbu	s0,296(s0)
   11af8:	1283c383          	lbu	t2,296(t2)
   11afc:	1282c283          	lbu	t0,296(t0)
   11b00:	128fcf83          	lbu	t6,296(t6)
   11b04:	128f4f03          	lbu	t5,296(t5)
   11b08:	128ece83          	lbu	t4,296(t4)
   11b0c:	00f607b3          	add	a5,a2,a5
   11b10:	1287ca83          	lbu	s5,296(a5)
   11b14:	00810823          	sb	s0,16(sp)
   11b18:	007108a3          	sb	t2,17(sp)
   11b1c:	00510923          	sb	t0,18(sp)
   11b20:	01f109a3          	sb	t6,19(sp)
   11b24:	01e10a23          	sb	t5,20(sp)
   11b28:	01d10aa3          	sb	t4,21(sp)
   11b2c:	00910b23          	sb	s1,22(sp)
   11b30:	01210ba3          	sb	s2,23(sp)
   11b34:	01310c23          	sb	s3,24(sp)
   11b38:	01410ca3          	sb	s4,25(sp)
   11b3c:	01510d23          	sb	s5,26(sp)
   11b40:	00f14803          	lbu	a6,15(sp)
   11b44:	00c14503          	lbu	a0,12(sp)
   11b48:	00914683          	lbu	a3,9(sp)
   11b4c:	00614703          	lbu	a4,6(sp)
   11b50:	00314783          	lbu	a5,3(sp)
   11b54:	01060833          	add	a6,a2,a6
   11b58:	00a60533          	add	a0,a2,a0
   11b5c:	00d606b3          	add	a3,a2,a3
   11b60:	00e60733          	add	a4,a2,a4
   11b64:	00f607b3          	add	a5,a2,a5
   11b68:	12884803          	lbu	a6,296(a6)
   11b6c:	12854503          	lbu	a0,296(a0)
   11b70:	1286c683          	lbu	a3,296(a3)
   11b74:	12874703          	lbu	a4,296(a4)
   11b78:	1287c783          	lbu	a5,296(a5)
   11b7c:	01010da3          	sb	a6,27(sp)
   11b80:	00a10e23          	sb	a0,28(sp)
   11b84:	00d10ea3          	sb	a3,29(sp)
   11b88:	00e10f23          	sb	a4,30(sp)
   11b8c:	00f10fa3          	sb	a5,31(sp)
   11b90:	e7c37ae3          	bgeu	t1,t3,11a04 <decrypt+0x78>
   11b94:	01010513          	addi	a0,sp,16
   11b98:	00010813          	addi	a6,sp,0
   11b9c:	00054f03          	lbu	t5,0(a0)
   11ba0:	00154703          	lbu	a4,1(a0)
   11ba4:	00354783          	lbu	a5,3(a0)
   11ba8:	007f5e93          	srli	t4,t5,0x7
   11bac:	00254f83          	lbu	t6,2(a0)
   11bb0:	41d00eb3          	sub	t4,zero,t4
   11bb4:	001f1293          	slli	t0,t5,0x1
   11bb8:	01befe93          	andi	t4,t4,27
   11bbc:	005ec4b3          	xor	s1,t4,t0
   11bc0:	00775693          	srli	a3,a4,0x7
   11bc4:	01849913          	slli	s2,s1,0x18
   11bc8:	007fd393          	srli	t2,t6,0x7
   11bcc:	0077d293          	srli	t0,a5,0x7
   11bd0:	40d006b3          	sub	a3,zero,a3
   11bd4:	00171413          	slli	s0,a4,0x1
   11bd8:	01b6f693          	andi	a3,a3,27
   11bdc:	41f95e93          	srai	t4,s2,0x1f
   11be0:	407003b3          	sub	t2,zero,t2
   11be4:	405002b3          	sub	t0,zero,t0
   11be8:	0086c9b3          	xor	s3,a3,s0
   11bec:	01ff4a33          	xor	s4,t5,t6
   11bf0:	01f746b3          	xor	a3,a4,t6
   11bf4:	00179913          	slli	s2,a5,0x1
   11bf8:	00ef4733          	xor	a4,t5,a4
   11bfc:	00149413          	slli	s0,s1,0x1
   11c00:	01b3f393          	andi	t2,t2,27
   11c04:	001f9f93          	slli	t6,t6,0x1
   11c08:	01b2f293          	andi	t0,t0,27
   11c0c:	01befe93          	andi	t4,t4,27
   11c10:	008eceb3          	xor	t4,t4,s0
   11c14:	00df4f33          	xor	t5,t5,a3
   11c18:	00e7c433          	xor	s0,a5,a4
   11c1c:	00d7c733          	xor	a4,a5,a3
   11c20:	0147c6b3          	xor	a3,a5,s4
   11c24:	01f3c7b3          	xor	a5,t2,t6
   11c28:	0122ca33          	xor	s4,t0,s2
   11c2c:	01899f93          	slli	t6,s3,0x18
   11c30:	01e4c3b3          	xor	t2,s1,t5
   11c34:	41ffd913          	srai	s2,t6,0x1f
   11c38:	01879f13          	slli	t5,a5,0x18
   11c3c:	00e4c733          	xor	a4,s1,a4
   11c40:	018a1493          	slli	s1,s4,0x18
   11c44:	0087c2b3          	xor	t0,a5,s0
   11c48:	00d9c6b3          	xor	a3,s3,a3
   11c4c:	41ff5413          	srai	s0,t5,0x1f
   11c50:	41f4df93          	srai	t6,s1,0x1f
   11c54:	00199f13          	slli	t5,s3,0x1
   11c58:	018e9a93          	slli	s5,t4,0x18
   11c5c:	01b97913          	andi	s2,s2,27
   11c60:	01e94933          	xor	s2,s2,t5
   11c64:	00e9c733          	xor	a4,s3,a4
   11c68:	00d7c6b3          	xor	a3,a5,a3
   11c6c:	005a42b3          	xor	t0,s4,t0
   11c70:	00179793          	slli	a5,a5,0x1
   11c74:	001a1f13          	slli	t5,s4,0x1
   11c78:	41fad493          	srai	s1,s5,0x1f
   11c7c:	01b47413          	andi	s0,s0,27
   11c80:	007a43b3          	xor	t2,s4,t2
   11c84:	01bfff93          	andi	t6,t6,27
   11c88:	00f44433          	xor	s0,s0,a5
   11c8c:	01efcfb3          	xor	t6,t6,t5
   11c90:	005ec7b3          	xor	a5,t4,t0
   11c94:	001e9993          	slli	s3,t4,0x1
   11c98:	00eec733          	xor	a4,t4,a4
   11c9c:	00d946b3          	xor	a3,s2,a3
   11ca0:	01891e93          	slli	t4,s2,0x18
   11ca4:	007943b3          	xor	t2,s2,t2
   11ca8:	01b4f493          	andi	s1,s1,27
   11cac:	0134c4b3          	xor	s1,s1,s3
   11cb0:	41fed293          	srai	t0,t4,0x1f
   11cb4:	00e44733          	xor	a4,s0,a4
   11cb8:	00191e93          	slli	t4,s2,0x1
   11cbc:	00f447b3          	xor	a5,s0,a5
   11cc0:	01841913          	slli	s2,s0,0x18
   11cc4:	00dfc6b3          	xor	a3,t6,a3
   11cc8:	007fc3b3          	xor	t2,t6,t2
   11ccc:	00e4c733          	xor	a4,s1,a4
   11cd0:	00f4c7b3          	xor	a5,s1,a5
   11cd4:	00d4c6b3          	xor	a3,s1,a3
   11cd8:	0074c3b3          	xor	t2,s1,t2
   11cdc:	01b2f293          	andi	t0,t0,27
   11ce0:	018f9493          	slli	s1,t6,0x18
   11ce4:	41f95f13          	srai	t5,s2,0x1f
   11ce8:	01d2c2b3          	xor	t0,t0,t4
   11cec:	01bf7f13          	andi	t5,t5,27
   11cf0:	00141413          	slli	s0,s0,0x1
   11cf4:	41f4de93          	srai	t4,s1,0x1f
   11cf8:	008f4f33          	xor	t5,t5,s0
   11cfc:	00e2c733          	xor	a4,t0,a4
   11d00:	00f2c7b3          	xor	a5,t0,a5
   11d04:	00d2c6b3          	xor	a3,t0,a3
   11d08:	01befe93          	andi	t4,t4,27
   11d0c:	0072c2b3          	xor	t0,t0,t2
   11d10:	001f9f93          	slli	t6,t6,0x1
   11d14:	01feceb3          	xor	t4,t4,t6
   11d18:	00ef4733          	xor	a4,t5,a4
   11d1c:	00ff47b3          	xor	a5,t5,a5
   11d20:	00df46b3          	xor	a3,t5,a3
   11d24:	005f4f33          	xor	t5,t5,t0
   11d28:	00fec7b3          	xor	a5,t4,a5
   11d2c:	00eec733          	xor	a4,t4,a4
   11d30:	00dec6b3          	xor	a3,t4,a3
   11d34:	01eeceb3          	xor	t4,t4,t5
   11d38:	00f80123          	sb	a5,2(a6)
   11d3c:	00e80023          	sb	a4,0(a6)
   11d40:	00d800a3          	sb	a3,1(a6)
   11d44:	01d801a3          	sb	t4,3(a6)
   11d48:	00450513          	addi	a0,a0,4
   11d4c:	02010793          	addi	a5,sp,32
   11d50:	00480813          	addi	a6,a6,4
   11d54:	e4a794e3          	bne	a5,a0,11b9c <decrypt+0x210>
   11d58:	cedff06f          	jal	zero,11a44 <decrypt+0xb8>
   11d5c:	03c12403          	lw	s0,60(sp)
   11d60:	03812483          	lw	s1,56(sp)
   11d64:	03412903          	lw	s2,52(sp)
   11d68:	03012983          	lw	s3,48(sp)
   11d6c:	02c12a03          	lw	s4,44(sp)
   11d70:	02812a83          	lw	s5,40(sp)
   11d74:	0035f793          	andi	a5,a1,3
   11d78:	02079863          	bne	a5,zero,11da8 <decrypt+0x41c>
   11d7c:	00012603          	lw	a2,0(sp)
   11d80:	00412683          	lw	a3,4(sp)
   11d84:	00812703          	lw	a4,8(sp)
   11d88:	00c12783          	lw	a5,12(sp)
   11d8c:	00c5a023          	sw	a2,0(a1)
   11d90:	00d5a223          	sw	a3,4(a1)
   11d94:	00e5a423          	sw	a4,8(a1)
   11d98:	00f5a623          	sw	a5,12(a1)
   11d9c:	00100513          	addi	a0,zero,1
   11da0:	04010113          	addi	sp,sp,64
   11da4:	00008067          	jalr	zero,0(ra)
   11da8:	00014683          	lbu	a3,0(sp)
   11dac:	00114703          	lbu	a4,1(sp)
   11db0:	00214783          	lbu	a5,2(sp)
   11db4:	00b14503          	lbu	a0,11(sp)
   11db8:	00314283          	lbu	t0,3(sp)
   11dbc:	00414f83          	lbu	t6,4(sp)
   11dc0:	00514f03          	lbu	t5,5(sp)
   11dc4:	00614e83          	lbu	t4,6(sp)
   11dc8:	00714e03          	lbu	t3,7(sp)
   11dcc:	00814303          	lbu	t1,8(sp)
   11dd0:	00914883          	lbu	a7,9(sp)
   11dd4:	00a14803          	lbu	a6,10(sp)
   11dd8:	00c14603          	lbu	a2,12(sp)
   11ddc:	00d58023          	sb	a3,0(a1)
   11de0:	00e580a3          	sb	a4,1(a1)
   11de4:	00d14683          	lbu	a3,13(sp)
   11de8:	00e14703          	lbu	a4,14(sp)
   11dec:	00f58123          	sb	a5,2(a1)
   11df0:	00f14783          	lbu	a5,15(sp)
   11df4:	00a585a3          	sb	a0,11(a1)
   11df8:	005581a3          	sb	t0,3(a1)
   11dfc:	01f58223          	sb	t6,4(a1)
   11e00:	01e582a3          	sb	t5,5(a1)
   11e04:	01d58323          	sb	t4,6(a1)
   11e08:	01c583a3          	sb	t3,7(a1)
   11e0c:	00658423          	sb	t1,8(a1)
   11e10:	011584a3          	sb	a7,9(a1)
   11e14:	01058523          	sb	a6,10(a1)
   11e18:	00c58623          	sb	a2,12(a1)
   11e1c:	00d586a3          	sb	a3,13(a1)
   11e20:	00e58723          	sb	a4,14(a1)
   11e24:	00f587a3          	sb	a5,15(a1)
   11e28:	00100513          	addi	a0,zero,1
   11e2c:	04010113          	addi	sp,sp,64
   11e30:	00008067          	jalr	zero,0(ra)

00011e34 <fillrand>:
   11e34:	10b05263          	bge	zero,a1,11f38 <fillrand+0x104>
   11e38:	ff010113          	addi	sp,sp,-16
   11e3c:	86818f13          	addi	t5,gp,-1944 # 70720 <a.3>
   11e40:	01212223          	sw	s2,4(sp)
   11e44:	000f2683          	lw	a3,0(t5)
   11e48:	004f2703          	lw	a4,4(t5)
   11e4c:	8701a783          	lw	a5,-1936(gp) # 70728 <count.4>
   11e50:	000092b7          	lui	t0,0x9
   11e54:	00004fb7          	lui	t6,0x4
   11e58:	00812623          	sw	s0,12(sp)
   11e5c:	00912423          	sw	s1,8(sp)
   11e60:	00b505b3          	add	a1,a0,a1
   11e64:	88018e93          	addi	t4,gp,-1920 # 70738 <r.2>
   11e68:	06928293          	addi	t0,t0,105 # 9069 <exit-0x704b>
   11e6c:	650f8f93          	addi	t6,t6,1616 # 4650 <exit-0xba64>
   11e70:	00000413          	addi	s0,zero,0
   11e74:	00400493          	addi	s1,zero,4
   11e78:	01069813          	slli	a6,a3,0x10
   11e7c:	01071613          	slli	a2,a4,0x10
   11e80:	01085813          	srli	a6,a6,0x10
   11e84:	01065613          	srli	a2,a2,0x10
   11e88:	0106de13          	srli	t3,a3,0x10
   11e8c:	01075313          	srli	t1,a4,0x10
   11e90:	00150893          	addi	a7,a0,1
   11e94:	08979e63          	bne	a5,s1,11f30 <fillrand+0xfc>
   11e98:	025806b3          	mul	a3,a6,t0
   11e9c:	00200793          	addi	a5,zero,2
   11ea0:	000e8813          	addi	a6,t4,0
   11ea4:	00100413          	addi	s0,zero,1
   11ea8:	03f60733          	mul	a4,a2,t6
   11eac:	01c686b3          	add	a3,a3,t3
   11eb0:	01069613          	slli	a2,a3,0x10
   11eb4:	00670733          	add	a4,a4,t1
   11eb8:	00e60633          	add	a2,a2,a4
   11ebc:	88c1a023          	sw	a2,-1920(gp) # 70738 <r.2>
   11ec0:	00c50023          	sb	a2,0(a0)
   11ec4:	04b88463          	beq	a7,a1,11f0c <fillrand+0xd8>
   11ec8:	001ec603          	lbu	a2,1(t4)
   11ecc:	00c500a3          	sb	a2,1(a0)
   11ed0:	00f50533          	add	a0,a0,a5
   11ed4:	00b50e63          	beq	a0,a1,11ef0 <fillrand+0xbc>
   11ed8:	00f80833          	add	a6,a6,a5
   11edc:	00084603          	lbu	a2,0(a6)
   11ee0:	00150513          	addi	a0,a0,1
   11ee4:	00178793          	addi	a5,a5,1
   11ee8:	fec50fa3          	sb	a2,-1(a0)
   11eec:	f8a596e3          	bne	a1,a0,11e78 <fillrand+0x44>
   11ef0:	86f1a823          	sw	a5,-1936(gp) # 70728 <count.4>
   11ef4:	02041063          	bne	s0,zero,11f14 <fillrand+0xe0>
   11ef8:	00c12403          	lw	s0,12(sp)
   11efc:	00812483          	lw	s1,8(sp)
   11f00:	00412903          	lw	s2,4(sp)
   11f04:	01010113          	addi	sp,sp,16
   11f08:	00008067          	jalr	zero,0(ra)
   11f0c:	00100793          	addi	a5,zero,1
   11f10:	86f1a823          	sw	a5,-1936(gp) # 70728 <count.4>
   11f14:	00c12403          	lw	s0,12(sp)
   11f18:	00ef2223          	sw	a4,4(t5)
   11f1c:	00df2023          	sw	a3,0(t5)
   11f20:	00812483          	lw	s1,8(sp)
   11f24:	00412903          	lw	s2,4(sp)
   11f28:	01010113          	addi	sp,sp,16
   11f2c:	00008067          	jalr	zero,0(ra)
   11f30:	88018813          	addi	a6,gp,-1920 # 70738 <r.2>
   11f34:	fa5ff06f          	jal	zero,11ed8 <fillrand+0xa4>
   11f38:	00008067          	jalr	zero,0(ra)

00011f3c <enc_buffer>:
   11f3c:	00f58813          	addi	a6,a1,15
   11f40:	ff087813          	andi	a6,a6,-16
   11f44:	03080813          	addi	a6,a6,48
   11f48:	5d076663          	bltu	a4,a6,12514 <enc_buffer+0x5d8>
   11f4c:	8701ae03          	lw	t3,-1936(gp) # 70728 <count.4>
   11f50:	86818f13          	addi	t5,gp,-1944 # 70720 <a.3>
   11f54:	00400f93          	addi	t6,zero,4
   11f58:	000f2803          	lw	a6,0(t5)
   11f5c:	004f2883          	lw	a7,4(t5)
   11f60:	3dfe0663          	beq	t3,t6,1232c <enc_buffer+0x3f0>
   11f64:	88018313          	addi	t1,gp,-1920 # 70738 <r.2>
   11f68:	01c302b3          	add	t0,t1,t3
   11f6c:	0002c383          	lbu	t2,0(t0)
   11f70:	001e0293          	addi	t0,t3,1
   11f74:	00768023          	sb	t2,0(a3)
   11f78:	1df29863          	bne	t0,t6,12148 <enc_buffer+0x20c>
   11f7c:	01081f93          	slli	t6,a6,0x10
   11f80:	00009e37          	lui	t3,0x9
   11f84:	01089393          	slli	t2,a7,0x10
   11f88:	069e0e13          	addi	t3,t3,105 # 9069 <exit-0x704b>
   11f8c:	010fdf93          	srli	t6,t6,0x10
   11f90:	000042b7          	lui	t0,0x4
   11f94:	03cf8fb3          	mul	t6,t6,t3
   11f98:	65028293          	addi	t0,t0,1616 # 4650 <exit-0xba64>
   11f9c:	0103d393          	srli	t2,t2,0x10
   11fa0:	01085813          	srli	a6,a6,0x10
   11fa4:	0108d893          	srli	a7,a7,0x10
   11fa8:	00300e13          	addi	t3,zero,3
   11fac:	025383b3          	mul	t2,t2,t0
   11fb0:	010f8833          	add	a6,t6,a6
   11fb4:	01081293          	slli	t0,a6,0x10
   11fb8:	00100f93          	addi	t6,zero,1
   11fbc:	011388b3          	add	a7,t2,a7
   11fc0:	011282b3          	add	t0,t0,a7
   11fc4:	8851a023          	sw	t0,-1920(gp) # 70738 <r.2>
   11fc8:	005680a3          	sb	t0,1(a3)
   11fcc:	00134283          	lbu	t0,1(t1)
   11fd0:	00568123          	sb	t0,2(a3)
   11fd4:	00234283          	lbu	t0,2(t1)
   11fd8:	005681a3          	sb	t0,3(a3)
   11fdc:	01c302b3          	add	t0,t1,t3
   11fe0:	0002c383          	lbu	t2,0(t0)
   11fe4:	001e0e13          	addi	t3,t3,1
   11fe8:	00400293          	addi	t0,zero,4
   11fec:	00768223          	sb	t2,4(a3)
   11ff0:	1c5e1663          	bne	t3,t0,121bc <enc_buffer+0x280>
   11ff4:	01081f93          	slli	t6,a6,0x10
   11ff8:	00009e37          	lui	t3,0x9
   11ffc:	01089393          	slli	t2,a7,0x10
   12000:	069e0e13          	addi	t3,t3,105 # 9069 <exit-0x704b>
   12004:	010fdf93          	srli	t6,t6,0x10
   12008:	000042b7          	lui	t0,0x4
   1200c:	03cf8fb3          	mul	t6,t6,t3
   12010:	65028293          	addi	t0,t0,1616 # 4650 <exit-0xba64>
   12014:	0103d393          	srli	t2,t2,0x10
   12018:	01085813          	srli	a6,a6,0x10
   1201c:	0108d893          	srli	a7,a7,0x10
   12020:	00300e13          	addi	t3,zero,3
   12024:	025383b3          	mul	t2,t2,t0
   12028:	010f8833          	add	a6,t6,a6
   1202c:	01081293          	slli	t0,a6,0x10
   12030:	00100f93          	addi	t6,zero,1
   12034:	011388b3          	add	a7,t2,a7
   12038:	011282b3          	add	t0,t0,a7
   1203c:	8851a023          	sw	t0,-1920(gp) # 70738 <r.2>
   12040:	00134383          	lbu	t2,1(t1)
   12044:	005682a3          	sb	t0,5(a3)
   12048:	00234283          	lbu	t0,2(t1)
   1204c:	00768323          	sb	t2,6(a3)
   12050:	005683a3          	sb	t0,7(a3)
   12054:	01c302b3          	add	t0,t1,t3
   12058:	0002c383          	lbu	t2,0(t0)
   1205c:	001e0e13          	addi	t3,t3,1
   12060:	00400293          	addi	t0,zero,4
   12064:	00768423          	sb	t2,8(a3)
   12068:	1c5e1663          	bne	t3,t0,12234 <enc_buffer+0x2f8>
   1206c:	01081f93          	slli	t6,a6,0x10
   12070:	00009e37          	lui	t3,0x9
   12074:	01089393          	slli	t2,a7,0x10
   12078:	069e0e13          	addi	t3,t3,105 # 9069 <exit-0x704b>
   1207c:	010fdf93          	srli	t6,t6,0x10
   12080:	000042b7          	lui	t0,0x4
   12084:	03cf8fb3          	mul	t6,t6,t3
   12088:	65028293          	addi	t0,t0,1616 # 4650 <exit-0xba64>
   1208c:	0103d393          	srli	t2,t2,0x10
   12090:	01085813          	srli	a6,a6,0x10
   12094:	0108d893          	srli	a7,a7,0x10
   12098:	00300e13          	addi	t3,zero,3
   1209c:	025383b3          	mul	t2,t2,t0
   120a0:	010f8833          	add	a6,t6,a6
   120a4:	01081293          	slli	t0,a6,0x10
   120a8:	00100f93          	addi	t6,zero,1
   120ac:	011388b3          	add	a7,t2,a7
   120b0:	011282b3          	add	t0,t0,a7
   120b4:	8851a023          	sw	t0,-1920(gp) # 70738 <r.2>
   120b8:	00134383          	lbu	t2,1(t1)
   120bc:	005684a3          	sb	t0,9(a3)
   120c0:	00234283          	lbu	t0,2(t1)
   120c4:	00768523          	sb	t2,10(a3)
   120c8:	005685a3          	sb	t0,11(a3)
   120cc:	01c302b3          	add	t0,t1,t3
   120d0:	0002c383          	lbu	t2,0(t0)
   120d4:	001e0e13          	addi	t3,t3,1
   120d8:	00400293          	addi	t0,zero,4
   120dc:	00768623          	sb	t2,12(a3)
   120e0:	1c5e1663          	bne	t3,t0,122ac <enc_buffer+0x370>
   120e4:	01081f93          	slli	t6,a6,0x10
   120e8:	000092b7          	lui	t0,0x9
   120ec:	06928293          	addi	t0,t0,105 # 9069 <exit-0x704b>
   120f0:	010fdf93          	srli	t6,t6,0x10
   120f4:	025f8fb3          	mul	t6,t6,t0
   120f8:	01089e13          	slli	t3,a7,0x10
   120fc:	000042b7          	lui	t0,0x4
   12100:	010e5e13          	srli	t3,t3,0x10
   12104:	65028293          	addi	t0,t0,1616 # 4650 <exit-0xba64>
   12108:	01085813          	srli	a6,a6,0x10
   1210c:	0108d893          	srli	a7,a7,0x10
   12110:	00300393          	addi	t2,zero,3
   12114:	8671a823          	sw	t2,-1936(gp) # 70728 <count.4>
   12118:	025e0e33          	mul	t3,t3,t0
   1211c:	010f8833          	add	a6,t6,a6
   12120:	01081713          	slli	a4,a6,0x10
   12124:	011e08b3          	add	a7,t3,a7
   12128:	01170733          	add	a4,a4,a7
   1212c:	88e1a023          	sw	a4,-1920(gp) # 70738 <r.2>
   12130:	00134e03          	lbu	t3,1(t1)
   12134:	00234303          	lbu	t1,2(t1)
   12138:	00e686a3          	sb	a4,13(a3)
   1213c:	01c68723          	sb	t3,14(a3)
   12140:	006687a3          	sb	t1,15(a3)
   12144:	1d80006f          	jal	zero,1231c <enc_buffer+0x3e0>
   12148:	005302b3          	add	t0,t1,t0
   1214c:	0002c383          	lbu	t2,0(t0)
   12150:	002e0293          	addi	t0,t3,2
   12154:	007680a3          	sb	t2,1(a3)
   12158:	3df29263          	bne	t0,t6,1251c <enc_buffer+0x5e0>
   1215c:	01081f93          	slli	t6,a6,0x10
   12160:	00009e37          	lui	t3,0x9
   12164:	01089393          	slli	t2,a7,0x10
   12168:	069e0e13          	addi	t3,t3,105 # 9069 <exit-0x704b>
   1216c:	010fdf93          	srli	t6,t6,0x10
   12170:	000042b7          	lui	t0,0x4
   12174:	03cf8fb3          	mul	t6,t6,t3
   12178:	65028293          	addi	t0,t0,1616 # 4650 <exit-0xba64>
   1217c:	0103d393          	srli	t2,t2,0x10
   12180:	01085813          	srli	a6,a6,0x10
   12184:	0108d893          	srli	a7,a7,0x10
   12188:	00300e13          	addi	t3,zero,3
   1218c:	025383b3          	mul	t2,t2,t0
   12190:	010f8833          	add	a6,t6,a6
   12194:	01081293          	slli	t0,a6,0x10
   12198:	00100f93          	addi	t6,zero,1
   1219c:	011388b3          	add	a7,t2,a7
   121a0:	011282b3          	add	t0,t0,a7
   121a4:	8851a023          	sw	t0,-1920(gp) # 70738 <r.2>
   121a8:	00568123          	sb	t0,2(a3)
   121ac:	00134383          	lbu	t2,1(t1)
   121b0:	00234283          	lbu	t0,2(t1)
   121b4:	007681a3          	sb	t2,3(a3)
   121b8:	00568223          	sb	t0,4(a3)
   121bc:	01c302b3          	add	t0,t1,t3
   121c0:	0002c383          	lbu	t2,0(t0)
   121c4:	001e0e13          	addi	t3,t3,1
   121c8:	00400293          	addi	t0,zero,4
   121cc:	007682a3          	sb	t2,5(a3)
   121d0:	3c5e1063          	bne	t3,t0,12590 <enc_buffer+0x654>
   121d4:	01081f93          	slli	t6,a6,0x10
   121d8:	00009e37          	lui	t3,0x9
   121dc:	01089393          	slli	t2,a7,0x10
   121e0:	069e0e13          	addi	t3,t3,105 # 9069 <exit-0x704b>
   121e4:	010fdf93          	srli	t6,t6,0x10
   121e8:	000042b7          	lui	t0,0x4
   121ec:	03cf8fb3          	mul	t6,t6,t3
   121f0:	65028293          	addi	t0,t0,1616 # 4650 <exit-0xba64>
   121f4:	0103d393          	srli	t2,t2,0x10
   121f8:	01085813          	srli	a6,a6,0x10
   121fc:	0108d893          	srli	a7,a7,0x10
   12200:	00300e13          	addi	t3,zero,3
   12204:	025383b3          	mul	t2,t2,t0
   12208:	010f8833          	add	a6,t6,a6
   1220c:	01081293          	slli	t0,a6,0x10
   12210:	00100f93          	addi	t6,zero,1
   12214:	011388b3          	add	a7,t2,a7
   12218:	011282b3          	add	t0,t0,a7
   1221c:	8851a023          	sw	t0,-1920(gp) # 70738 <r.2>
   12220:	00134383          	lbu	t2,1(t1)
   12224:	00568323          	sb	t0,6(a3)
   12228:	00234283          	lbu	t0,2(t1)
   1222c:	007683a3          	sb	t2,7(a3)
   12230:	00568423          	sb	t0,8(a3)
   12234:	01c302b3          	add	t0,t1,t3
   12238:	0002c383          	lbu	t2,0(t0)
   1223c:	001e0e13          	addi	t3,t3,1
   12240:	00400293          	addi	t0,zero,4
   12244:	007684a3          	sb	t2,9(a3)
   12248:	3c5e1063          	bne	t3,t0,12608 <enc_buffer+0x6cc>
   1224c:	01081f93          	slli	t6,a6,0x10
   12250:	00009e37          	lui	t3,0x9
   12254:	01089393          	slli	t2,a7,0x10
   12258:	069e0e13          	addi	t3,t3,105 # 9069 <exit-0x704b>
   1225c:	010fdf93          	srli	t6,t6,0x10
   12260:	000042b7          	lui	t0,0x4
   12264:	03cf8fb3          	mul	t6,t6,t3
   12268:	65028293          	addi	t0,t0,1616 # 4650 <exit-0xba64>
   1226c:	0103d393          	srli	t2,t2,0x10
   12270:	01085813          	srli	a6,a6,0x10
   12274:	0108d893          	srli	a7,a7,0x10
   12278:	00300e13          	addi	t3,zero,3
   1227c:	025383b3          	mul	t2,t2,t0
   12280:	010f8833          	add	a6,t6,a6
   12284:	01081293          	slli	t0,a6,0x10
   12288:	00100f93          	addi	t6,zero,1
   1228c:	011388b3          	add	a7,t2,a7
   12290:	011282b3          	add	t0,t0,a7
   12294:	8851a023          	sw	t0,-1920(gp) # 70738 <r.2>
   12298:	00134383          	lbu	t2,1(t1)
   1229c:	00568523          	sb	t0,10(a3)
   122a0:	00234283          	lbu	t0,2(t1)
   122a4:	007685a3          	sb	t2,11(a3)
   122a8:	00568623          	sb	t0,12(a3)
   122ac:	01c302b3          	add	t0,t1,t3
   122b0:	0002c383          	lbu	t2,0(t0)
   122b4:	001e0e13          	addi	t3,t3,1
   122b8:	00400293          	addi	t0,zero,4
   122bc:	007686a3          	sb	t2,13(a3)
   122c0:	3c5e1063          	bne	t3,t0,12680 <enc_buffer+0x744>
   122c4:	01081f93          	slli	t6,a6,0x10
   122c8:	000092b7          	lui	t0,0x9
   122cc:	06928293          	addi	t0,t0,105 # 9069 <exit-0x704b>
   122d0:	010fdf93          	srli	t6,t6,0x10
   122d4:	025f8fb3          	mul	t6,t6,t0
   122d8:	01089e13          	slli	t3,a7,0x10
   122dc:	000042b7          	lui	t0,0x4
   122e0:	010e5e13          	srli	t3,t3,0x10
   122e4:	65028293          	addi	t0,t0,1616 # 4650 <exit-0xba64>
   122e8:	01085813          	srli	a6,a6,0x10
   122ec:	0108d893          	srli	a7,a7,0x10
   122f0:	00200393          	addi	t2,zero,2
   122f4:	8671a823          	sw	t2,-1936(gp) # 70728 <count.4>
   122f8:	025e0e33          	mul	t3,t3,t0
   122fc:	010f8833          	add	a6,t6,a6
   12300:	01081713          	slli	a4,a6,0x10
   12304:	011e08b3          	add	a7,t3,a7
   12308:	01170733          	add	a4,a4,a7
   1230c:	88e1a023          	sw	a4,-1920(gp) # 70738 <r.2>
   12310:	00134303          	lbu	t1,1(t1)
   12314:	00e68723          	sb	a4,14(a3)
   12318:	006687a3          	sb	t1,15(a3)
   1231c:	011f2223          	sw	a7,4(t5)
   12320:	010f2023          	sw	a6,0(t5)
   12324:	00078713          	addi	a4,a5,0
   12328:	950ff06f          	jal	zero,11478 <enc_buffer.part.0>
   1232c:	01081f93          	slli	t6,a6,0x10
   12330:	00009337          	lui	t1,0x9
   12334:	01089393          	slli	t2,a7,0x10
   12338:	06930313          	addi	t1,t1,105 # 9069 <exit-0x704b>
   1233c:	010fdf93          	srli	t6,t6,0x10
   12340:	000042b7          	lui	t0,0x4
   12344:	026f8fb3          	mul	t6,t6,t1
   12348:	65028293          	addi	t0,t0,1616 # 4650 <exit-0xba64>
   1234c:	0103d393          	srli	t2,t2,0x10
   12350:	01085813          	srli	a6,a6,0x10
   12354:	0108d893          	srli	a7,a7,0x10
   12358:	88018313          	addi	t1,gp,-1920 # 70738 <r.2>
   1235c:	00300e13          	addi	t3,zero,3
   12360:	025383b3          	mul	t2,t2,t0
   12364:	010f8833          	add	a6,t6,a6
   12368:	01081293          	slli	t0,a6,0x10
   1236c:	00100f93          	addi	t6,zero,1
   12370:	011388b3          	add	a7,t2,a7
   12374:	011282b3          	add	t0,t0,a7
   12378:	8851a023          	sw	t0,-1920(gp) # 70738 <r.2>
   1237c:	00568023          	sb	t0,0(a3)
   12380:	00134283          	lbu	t0,1(t1)
   12384:	005680a3          	sb	t0,1(a3)
   12388:	00234283          	lbu	t0,2(t1)
   1238c:	00568123          	sb	t0,2(a3)
   12390:	01c302b3          	add	t0,t1,t3
   12394:	0002c383          	lbu	t2,0(t0)
   12398:	001e0e13          	addi	t3,t3,1
   1239c:	00400293          	addi	t0,zero,4
   123a0:	007681a3          	sb	t2,3(a3)
   123a4:	c25e1ce3          	bne	t3,t0,11fdc <enc_buffer+0xa0>
   123a8:	01081f93          	slli	t6,a6,0x10
   123ac:	00009e37          	lui	t3,0x9
   123b0:	01089393          	slli	t2,a7,0x10
   123b4:	069e0e13          	addi	t3,t3,105 # 9069 <exit-0x704b>
   123b8:	010fdf93          	srli	t6,t6,0x10
   123bc:	000042b7          	lui	t0,0x4
   123c0:	03cf8fb3          	mul	t6,t6,t3
   123c4:	65028293          	addi	t0,t0,1616 # 4650 <exit-0xba64>
   123c8:	0103d393          	srli	t2,t2,0x10
   123cc:	01085813          	srli	a6,a6,0x10
   123d0:	0108d893          	srli	a7,a7,0x10
   123d4:	00300e13          	addi	t3,zero,3
   123d8:	025383b3          	mul	t2,t2,t0
   123dc:	010f8833          	add	a6,t6,a6
   123e0:	01081293          	slli	t0,a6,0x10
   123e4:	00100f93          	addi	t6,zero,1
   123e8:	011388b3          	add	a7,t2,a7
   123ec:	011282b3          	add	t0,t0,a7
   123f0:	8851a023          	sw	t0,-1920(gp) # 70738 <r.2>
   123f4:	00134383          	lbu	t2,1(t1)
   123f8:	00568223          	sb	t0,4(a3)
   123fc:	00234283          	lbu	t0,2(t1)
   12400:	007682a3          	sb	t2,5(a3)
   12404:	00568323          	sb	t0,6(a3)
   12408:	01c302b3          	add	t0,t1,t3
   1240c:	0002c383          	lbu	t2,0(t0)
   12410:	001e0e13          	addi	t3,t3,1
   12414:	00400293          	addi	t0,zero,4
   12418:	007683a3          	sb	t2,7(a3)
   1241c:	c25e1ce3          	bne	t3,t0,12054 <enc_buffer+0x118>
   12420:	01081f93          	slli	t6,a6,0x10
   12424:	00009e37          	lui	t3,0x9
   12428:	01089393          	slli	t2,a7,0x10
   1242c:	069e0e13          	addi	t3,t3,105 # 9069 <exit-0x704b>
   12430:	010fdf93          	srli	t6,t6,0x10
   12434:	000042b7          	lui	t0,0x4
   12438:	03cf8fb3          	mul	t6,t6,t3
   1243c:	65028293          	addi	t0,t0,1616 # 4650 <exit-0xba64>
   12440:	0103d393          	srli	t2,t2,0x10
   12444:	01085813          	srli	a6,a6,0x10
   12448:	0108d893          	srli	a7,a7,0x10
   1244c:	00300e13          	addi	t3,zero,3
   12450:	025383b3          	mul	t2,t2,t0
   12454:	010f8833          	add	a6,t6,a6
   12458:	01081293          	slli	t0,a6,0x10
   1245c:	00100f93          	addi	t6,zero,1
   12460:	011388b3          	add	a7,t2,a7
   12464:	011282b3          	add	t0,t0,a7
   12468:	8851a023          	sw	t0,-1920(gp) # 70738 <r.2>
   1246c:	00134383          	lbu	t2,1(t1)
   12470:	00568423          	sb	t0,8(a3)
   12474:	00234283          	lbu	t0,2(t1)
   12478:	007684a3          	sb	t2,9(a3)
   1247c:	00568523          	sb	t0,10(a3)
   12480:	01c302b3          	add	t0,t1,t3
   12484:	0002c383          	lbu	t2,0(t0)
   12488:	001e0e13          	addi	t3,t3,1
   1248c:	00400293          	addi	t0,zero,4
   12490:	007685a3          	sb	t2,11(a3)
   12494:	c25e1ce3          	bne	t3,t0,120cc <enc_buffer+0x190>
   12498:	01081f93          	slli	t6,a6,0x10
   1249c:	00009e37          	lui	t3,0x9
   124a0:	01089393          	slli	t2,a7,0x10
   124a4:	069e0e13          	addi	t3,t3,105 # 9069 <exit-0x704b>
   124a8:	010fdf93          	srli	t6,t6,0x10
   124ac:	000042b7          	lui	t0,0x4
   124b0:	03cf8fb3          	mul	t6,t6,t3
   124b4:	65028293          	addi	t0,t0,1616 # 4650 <exit-0xba64>
   124b8:	0103d393          	srli	t2,t2,0x10
   124bc:	01085813          	srli	a6,a6,0x10
   124c0:	0108d893          	srli	a7,a7,0x10
   124c4:	00300e13          	addi	t3,zero,3
   124c8:	025383b3          	mul	t2,t2,t0
   124cc:	010f8833          	add	a6,t6,a6
   124d0:	01081293          	slli	t0,a6,0x10
   124d4:	00100f93          	addi	t6,zero,1
   124d8:	011388b3          	add	a7,t2,a7
   124dc:	011282b3          	add	t0,t0,a7
   124e0:	8851a023          	sw	t0,-1920(gp) # 70738 <r.2>
   124e4:	00134383          	lbu	t2,1(t1)
   124e8:	00234e83          	lbu	t4,2(t1)
   124ec:	00568623          	sb	t0,12(a3)
   124f0:	007686a3          	sb	t2,13(a3)
   124f4:	01d68723          	sb	t4,14(a3)
   124f8:	01c30333          	add	t1,t1,t3
   124fc:	00034303          	lbu	t1,0(t1)
   12500:	001e0e13          	addi	t3,t3,1
   12504:	87c1a823          	sw	t3,-1936(gp) # 70728 <count.4>
   12508:	006687a3          	sb	t1,15(a3)
   1250c:	e00f8ce3          	beq	t6,zero,12324 <enc_buffer+0x3e8>
   12510:	e0dff06f          	jal	zero,1231c <enc_buffer+0x3e0>
   12514:	f9c00513          	addi	a0,zero,-100
   12518:	00008067          	jalr	zero,0(ra)
   1251c:	005302b3          	add	t0,t1,t0
   12520:	0002c283          	lbu	t0,0(t0)
   12524:	003e0e13          	addi	t3,t3,3
   12528:	00568123          	sb	t0,2(a3)
   1252c:	1dfe1063          	bne	t3,t6,126ec <enc_buffer+0x7b0>
   12530:	01081f93          	slli	t6,a6,0x10
   12534:	00009e37          	lui	t3,0x9
   12538:	01089393          	slli	t2,a7,0x10
   1253c:	069e0e13          	addi	t3,t3,105 # 9069 <exit-0x704b>
   12540:	010fdf93          	srli	t6,t6,0x10
   12544:	000042b7          	lui	t0,0x4
   12548:	03cf8fb3          	mul	t6,t6,t3
   1254c:	65028293          	addi	t0,t0,1616 # 4650 <exit-0xba64>
   12550:	0103d393          	srli	t2,t2,0x10
   12554:	01085813          	srli	a6,a6,0x10
   12558:	0108d893          	srli	a7,a7,0x10
   1255c:	00300e13          	addi	t3,zero,3
   12560:	025383b3          	mul	t2,t2,t0
   12564:	010f8833          	add	a6,t6,a6
   12568:	01081293          	slli	t0,a6,0x10
   1256c:	00100f93          	addi	t6,zero,1
   12570:	011388b3          	add	a7,t2,a7
   12574:	011282b3          	add	t0,t0,a7
   12578:	8851a023          	sw	t0,-1920(gp) # 70738 <r.2>
   1257c:	00134383          	lbu	t2,1(t1)
   12580:	005681a3          	sb	t0,3(a3)
   12584:	00234283          	lbu	t0,2(t1)
   12588:	00768223          	sb	t2,4(a3)
   1258c:	005682a3          	sb	t0,5(a3)
   12590:	01c302b3          	add	t0,t1,t3
   12594:	0002c383          	lbu	t2,0(t0)
   12598:	001e0e13          	addi	t3,t3,1
   1259c:	00400293          	addi	t0,zero,4
   125a0:	00768323          	sb	t2,6(a3)
   125a4:	e65e12e3          	bne	t3,t0,12408 <enc_buffer+0x4cc>
   125a8:	01081f93          	slli	t6,a6,0x10
   125ac:	00009e37          	lui	t3,0x9
   125b0:	01089393          	slli	t2,a7,0x10
   125b4:	069e0e13          	addi	t3,t3,105 # 9069 <exit-0x704b>
   125b8:	010fdf93          	srli	t6,t6,0x10
   125bc:	000042b7          	lui	t0,0x4
   125c0:	03cf8fb3          	mul	t6,t6,t3
   125c4:	65028293          	addi	t0,t0,1616 # 4650 <exit-0xba64>
   125c8:	0103d393          	srli	t2,t2,0x10
   125cc:	01085813          	srli	a6,a6,0x10
   125d0:	0108d893          	srli	a7,a7,0x10
   125d4:	00300e13          	addi	t3,zero,3
   125d8:	025383b3          	mul	t2,t2,t0
   125dc:	010f8833          	add	a6,t6,a6
   125e0:	01081293          	slli	t0,a6,0x10
   125e4:	00100f93          	addi	t6,zero,1
   125e8:	011388b3          	add	a7,t2,a7
   125ec:	011282b3          	add	t0,t0,a7
   125f0:	8851a023          	sw	t0,-1920(gp) # 70738 <r.2>
   125f4:	00134383          	lbu	t2,1(t1)
   125f8:	005683a3          	sb	t0,7(a3)
   125fc:	00234283          	lbu	t0,2(t1)
   12600:	00768423          	sb	t2,8(a3)
   12604:	005684a3          	sb	t0,9(a3)
   12608:	01c302b3          	add	t0,t1,t3
   1260c:	0002c383          	lbu	t2,0(t0)
   12610:	001e0e13          	addi	t3,t3,1
   12614:	00400293          	addi	t0,zero,4
   12618:	00768523          	sb	t2,10(a3)
   1261c:	e65e12e3          	bne	t3,t0,12480 <enc_buffer+0x544>
   12620:	01081f93          	slli	t6,a6,0x10
   12624:	00009e37          	lui	t3,0x9
   12628:	01089393          	slli	t2,a7,0x10
   1262c:	069e0e13          	addi	t3,t3,105 # 9069 <exit-0x704b>
   12630:	010fdf93          	srli	t6,t6,0x10
   12634:	000042b7          	lui	t0,0x4
   12638:	03cf8fb3          	mul	t6,t6,t3
   1263c:	65028293          	addi	t0,t0,1616 # 4650 <exit-0xba64>
   12640:	0103d393          	srli	t2,t2,0x10
   12644:	01085813          	srli	a6,a6,0x10
   12648:	0108d893          	srli	a7,a7,0x10
   1264c:	00300e13          	addi	t3,zero,3
   12650:	025383b3          	mul	t2,t2,t0
   12654:	010f8833          	add	a6,t6,a6
   12658:	01081293          	slli	t0,a6,0x10
   1265c:	00100f93          	addi	t6,zero,1
   12660:	011388b3          	add	a7,t2,a7
   12664:	011282b3          	add	t0,t0,a7
   12668:	8851a023          	sw	t0,-1920(gp) # 70738 <r.2>
   1266c:	00134383          	lbu	t2,1(t1)
   12670:	005685a3          	sb	t0,11(a3)
   12674:	00234283          	lbu	t0,2(t1)
   12678:	00768623          	sb	t2,12(a3)
   1267c:	005686a3          	sb	t0,13(a3)
   12680:	01c302b3          	add	t0,t1,t3
   12684:	0002c383          	lbu	t2,0(t0)
   12688:	001e0e13          	addi	t3,t3,1
   1268c:	00400293          	addi	t0,zero,4
   12690:	00768723          	sb	t2,14(a3)
   12694:	e65e12e3          	bne	t3,t0,124f8 <enc_buffer+0x5bc>
   12698:	01081e13          	slli	t3,a6,0x10
   1269c:	000092b7          	lui	t0,0x9
   126a0:	01089313          	slli	t1,a7,0x10
   126a4:	06928293          	addi	t0,t0,105 # 9069 <exit-0x704b>
   126a8:	010e5e13          	srli	t3,t3,0x10
   126ac:	00004fb7          	lui	t6,0x4
   126b0:	025e0e33          	mul	t3,t3,t0
   126b4:	01035313          	srli	t1,t1,0x10
   126b8:	650f8f93          	addi	t6,t6,1616 # 4650 <exit-0xba64>
   126bc:	01085813          	srli	a6,a6,0x10
   126c0:	0108d893          	srli	a7,a7,0x10
   126c4:	00100293          	addi	t0,zero,1
   126c8:	8651a823          	sw	t0,-1936(gp) # 70728 <count.4>
   126cc:	03f30333          	mul	t1,t1,t6
   126d0:	010e0833          	add	a6,t3,a6
   126d4:	01081713          	slli	a4,a6,0x10
   126d8:	011308b3          	add	a7,t1,a7
   126dc:	01170733          	add	a4,a4,a7
   126e0:	88e1a023          	sw	a4,-1920(gp) # 70738 <r.2>
   126e4:	00e687a3          	sb	a4,15(a3)
   126e8:	c35ff06f          	jal	zero,1231c <enc_buffer+0x3e0>
   126ec:	00000f93          	addi	t6,zero,0
   126f0:	ca1ff06f          	jal	zero,12390 <enc_buffer+0x454>

000126f4 <dec_buffer>:
   126f4:	01f00813          	addi	a6,zero,31
   126f8:	58b87063          	bgeu	a6,a1,12c78 <dec_buffer+0x584>
   126fc:	f8010113          	addi	sp,sp,-128
   12700:	06112e23          	sw	ra,124(sp)
   12704:	06812c23          	sw	s0,120(sp)
   12708:	06912a23          	sw	s1,116(sp)
   1270c:	07212823          	sw	s2,112(sp)
   12710:	07412423          	sw	s4,104(sp)
   12714:	07512223          	sw	s5,100(sp)
   12718:	05712e23          	sw	s7,92(sp)
   1271c:	05812c23          	sw	s8,88(sp)
   12720:	05a12823          	sw	s10,80(sp)
   12724:	05b12623          	sw	s11,76(sp)
   12728:	00357813          	andi	a6,a0,3
   1272c:	38081a63          	bne	a6,zero,12ac0 <dec_buffer+0x3cc>
   12730:	01052e03          	lw	t3,16(a0)
   12734:	01452303          	lw	t1,20(a0)
   12738:	01852883          	lw	a7,24(a0)
   1273c:	01c52803          	lw	a6,28(a0)
   12740:	01c12823          	sw	t3,16(sp)
   12744:	00612a23          	sw	t1,20(sp)
   12748:	01112c23          	sw	a7,24(sp)
   1274c:	01012e23          	sw	a6,28(sp)
   12750:	03010b93          	addi	s7,sp,48
   12754:	00050413          	addi	s0,a0,0
   12758:	00058913          	addi	s2,a1,0
   1275c:	01010513          	addi	a0,sp,16
   12760:	000b8593          	addi	a1,s7,0
   12764:	00078d93          	addi	s11,a5,0
   12768:	00070a13          	addi	s4,a4,0
   1276c:	00068493          	addi	s1,a3,0
   12770:	00c12223          	sw	a2,4(sp)
   12774:	a18ff0ef          	jal	ra,1198c <decrypt>
   12778:	00347793          	andi	a5,s0,3
   1277c:	3c079463          	bne	a5,zero,12b44 <dec_buffer+0x450>
   12780:	03012583          	lw	a1,48(sp)
   12784:	00042603          	lw	a2,0(s0)
   12788:	03412803          	lw	a6,52(sp)
   1278c:	03812503          	lw	a0,56(sp)
   12790:	03c12783          	lw	a5,60(sp)
   12794:	00b64633          	xor	a2,a2,a1
   12798:	00442683          	lw	a3,4(s0)
   1279c:	00842703          	lw	a4,8(s0)
   127a0:	00c42583          	lw	a1,12(s0)
   127a4:	0106c6b3          	xor	a3,a3,a6
   127a8:	00a74733          	xor	a4,a4,a0
   127ac:	00b7c7b3          	xor	a5,a5,a1
   127b0:	02c12823          	sw	a2,48(sp)
   127b4:	02d12a23          	sw	a3,52(sp)
   127b8:	02e12c23          	sw	a4,56(sp)
   127bc:	02f12e23          	sw	a5,60(sp)
   127c0:	03014783          	lbu	a5,48(sp)
   127c4:	02000a93          	addi	s5,zero,32
   127c8:	00f7fd13          	andi	s10,a5,15
   127cc:	47590e63          	beq	s2,s5,12c48 <dec_buffer+0x554>
   127d0:	05912a23          	sw	s9,84(sp)
   127d4:	07312623          	sw	s3,108(sp)
   127d8:	07612023          	sw	s6,96(sp)
   127dc:	408a8ab3          	sub	s5,s5,s0
   127e0:	00f00c93          	addi	s9,zero,15
   127e4:	00000c13          	addi	s8,zero,0
   127e8:	01a12423          	sw	s10,8(sp)
   127ec:	01b12623          	sw	s11,12(sp)
   127f0:	02044283          	lbu	t0,32(s0)
   127f4:	02144783          	lbu	a5,33(s0)
   127f8:	02244e03          	lbu	t3,34(s0)
   127fc:	02344503          	lbu	a0,35(s0)
   12800:	02444d03          	lbu	s10,36(s0)
   12804:	02544f83          	lbu	t6,37(s0)
   12808:	02644303          	lbu	t1,38(s0)
   1280c:	02744583          	lbu	a1,39(s0)
   12810:	02844b03          	lbu	s6,40(s0)
   12814:	02944f03          	lbu	t5,41(s0)
   12818:	02a44883          	lbu	a7,42(s0)
   1281c:	02b44603          	lbu	a2,43(s0)
   12820:	02c44383          	lbu	t2,44(s0)
   12824:	02d44e83          	lbu	t4,45(s0)
   12828:	02e44803          	lbu	a6,46(s0)
   1282c:	02f44683          	lbu	a3,47(s0)
   12830:	000c0713          	addi	a4,s8,0
   12834:	02510023          	sb	t0,32(sp)
   12838:	02f100a3          	sb	a5,33(sp)
   1283c:	03c10123          	sb	t3,34(sp)
   12840:	02a101a3          	sb	a0,35(sp)
   12844:	03a10223          	sb	s10,36(sp)
   12848:	03f102a3          	sb	t6,37(sp)
   1284c:	02610323          	sb	t1,38(sp)
   12850:	02b103a3          	sb	a1,39(sp)
   12854:	03610423          	sb	s6,40(sp)
   12858:	03e104a3          	sb	t5,41(sp)
   1285c:	03110523          	sb	a7,42(sp)
   12860:	02c105a3          	sb	a2,43(sp)
   12864:	02710623          	sb	t2,44(sp)
   12868:	03d106a3          	sb	t4,45(sp)
   1286c:	03010723          	sb	a6,46(sp)
   12870:	02d107a3          	sb	a3,47(sp)
   12874:	019c0c33          	add	s8,s8,s9
   12878:	238a6a63          	bltu	s4,s8,12aac <dec_buffer+0x3b8>
   1287c:	00879793          	slli	a5,a5,0x8
   12880:	00f2e2b3          	or	t0,t0,a5
   12884:	01000793          	addi	a5,zero,16
   12888:	419787b3          	sub	a5,a5,s9
   1288c:	008f9f93          	slli	t6,t6,0x8
   12890:	008f1f13          	slli	t5,t5,0x8
   12894:	008e9e93          	slli	t4,t4,0x8
   12898:	00e48733          	add	a4,s1,a4
   1289c:	00fb87b3          	add	a5,s7,a5
   128a0:	01fd6fb3          	or	t6,s10,t6
   128a4:	01eb6f33          	or	t5,s6,t5
   128a8:	01d3eeb3          	or	t4,t2,t4
   128ac:	010e1e13          	slli	t3,t3,0x10
   128b0:	01031313          	slli	t1,t1,0x10
   128b4:	01089893          	slli	a7,a7,0x10
   128b8:	01081813          	slli	a6,a6,0x10
   128bc:	00f763b3          	or	t2,a4,a5
   128c0:	01c2ee33          	or	t3,t0,t3
   128c4:	006fe333          	or	t1,t6,t1
   128c8:	011f68b3          	or	a7,t5,a7
   128cc:	010ee833          	or	a6,t4,a6
   128d0:	01851513          	slli	a0,a0,0x18
   128d4:	01859593          	slli	a1,a1,0x18
   128d8:	01861613          	slli	a2,a2,0x18
   128dc:	01869693          	slli	a3,a3,0x18
   128e0:	0033f393          	andi	t2,t2,3
   128e4:	00ae69b3          	or	s3,t3,a0
   128e8:	00b36db3          	or	s11,t1,a1
   128ec:	00c8ed33          	or	s10,a7,a2
   128f0:	00d86b33          	or	s6,a6,a3
   128f4:	18039263          	bne	t2,zero,12a78 <dec_buffer+0x384>
   128f8:	01ccf693          	andi	a3,s9,28
   128fc:	00d78533          	add	a0,a5,a3
   12900:	00070613          	addi	a2,a4,0
   12904:	0007a583          	lw	a1,0(a5)
   12908:	00478793          	addi	a5,a5,4
   1290c:	00460613          	addi	a2,a2,4
   12910:	feb62e23          	sw	a1,-4(a2)
   12914:	fef518e3          	bne	a0,a5,12904 <dec_buffer+0x210>
   12918:	02dc8063          	beq	s9,a3,12938 <dec_buffer+0x244>
   1291c:	00054783          	lbu	a5,0(a0)
   12920:	00d70733          	add	a4,a4,a3
   12924:	00f70023          	sb	a5,0(a4)
   12928:	00154783          	lbu	a5,1(a0)
   1292c:	00f700a3          	sb	a5,1(a4)
   12930:	00254783          	lbu	a5,2(a0)
   12934:	00f70123          	sb	a5,2(a4)
   12938:	00412603          	lw	a2,4(sp)
   1293c:	000b8593          	addi	a1,s7,0
   12940:	02010513          	addi	a0,sp,32
   12944:	848ff0ef          	jal	ra,1198c <decrypt>
   12948:	03012603          	lw	a2,48(sp)
   1294c:	01012883          	lw	a7,16(sp)
   12950:	03412683          	lw	a3,52(sp)
   12954:	01412803          	lw	a6,20(sp)
   12958:	03812703          	lw	a4,56(sp)
   1295c:	01812503          	lw	a0,24(sp)
   12960:	03c12783          	lw	a5,60(sp)
   12964:	01c12583          	lw	a1,28(sp)
   12968:	01040413          	addi	s0,s0,16
   1296c:	01164633          	xor	a2,a2,a7
   12970:	00b7c7b3          	xor	a5,a5,a1
   12974:	0106c6b3          	xor	a3,a3,a6
   12978:	00a74733          	xor	a4,a4,a0
   1297c:	02f12e23          	sw	a5,60(sp)
   12980:	02c12823          	sw	a2,48(sp)
   12984:	01312823          	sw	s3,16(sp)
   12988:	02d12a23          	sw	a3,52(sp)
   1298c:	01b12a23          	sw	s11,20(sp)
   12990:	02e12c23          	sw	a4,56(sp)
   12994:	01a12c23          	sw	s10,24(sp)
   12998:	01612e23          	sw	s6,28(sp)
   1299c:	008a87b3          	add	a5,s5,s0
   129a0:	01000c93          	addi	s9,zero,16
   129a4:	e527e6e3          	bltu	a5,s2,127f0 <dec_buffer+0xfc>
   129a8:	00812d03          	lw	s10,8(sp)
   129ac:	00c12d83          	lw	s11,12(sp)
   129b0:	06c12983          	lw	s3,108(sp)
   129b4:	06012b03          	lw	s6,96(sp)
   129b8:	05412c83          	lw	s9,84(sp)
   129bc:	001d0d13          	addi	s10,s10,1
   129c0:	00000713          	addi	a4,zero,0
   129c4:	018d0833          	add	a6,s10,s8
   129c8:	070a6c63          	bltu	s4,a6,12a40 <dec_buffer+0x34c>
   129cc:	fffd0513          	addi	a0,s10,-1
   129d0:	00500693          	addi	a3,zero,5
   129d4:	018487b3          	add	a5,s1,s8
   129d8:	00eb8bb3          	add	s7,s7,a4
   129dc:	26a6fe63          	bgeu	a3,a0,12c58 <dec_buffer+0x564>
   129e0:	0177e733          	or	a4,a5,s7
   129e4:	00377713          	andi	a4,a4,3
   129e8:	26071863          	bne	a4,zero,12c58 <dec_buffer+0x564>
   129ec:	ffcd7593          	andi	a1,s10,-4
   129f0:	00b78633          	add	a2,a5,a1
   129f4:	000b8713          	addi	a4,s7,0
   129f8:	00072683          	lw	a3,0(a4)
   129fc:	00478793          	addi	a5,a5,4
   12a00:	00470713          	addi	a4,a4,4
   12a04:	fed7ae23          	sw	a3,-4(a5)
   12a08:	fef618e3          	bne	a2,a5,129f8 <dec_buffer+0x304>
   12a0c:	02bd0863          	beq	s10,a1,12a3c <dec_buffer+0x348>
   12a10:	00bb8bb3          	add	s7,s7,a1
   12a14:	000bc783          	lbu	a5,0(s7)
   12a18:	40b50733          	sub	a4,a0,a1
   12a1c:	00f60023          	sb	a5,0(a2)
   12a20:	00b50e63          	beq	a0,a1,12a3c <dec_buffer+0x348>
   12a24:	001bc683          	lbu	a3,1(s7)
   12a28:	00100793          	addi	a5,zero,1
   12a2c:	00d600a3          	sb	a3,1(a2)
   12a30:	00f70663          	beq	a4,a5,12a3c <dec_buffer+0x348>
   12a34:	002bc783          	lbu	a5,2(s7)
   12a38:	00f60123          	sb	a5,2(a2)
   12a3c:	00080c13          	addi	s8,a6,0
   12a40:	018da023          	sw	s8,0(s11)
   12a44:	00000513          	addi	a0,zero,0
   12a48:	07c12083          	lw	ra,124(sp)
   12a4c:	07812403          	lw	s0,120(sp)
   12a50:	07412483          	lw	s1,116(sp)
   12a54:	07012903          	lw	s2,112(sp)
   12a58:	06812a03          	lw	s4,104(sp)
   12a5c:	06412a83          	lw	s5,100(sp)
   12a60:	05c12b83          	lw	s7,92(sp)
   12a64:	05812c03          	lw	s8,88(sp)
   12a68:	05012d03          	lw	s10,80(sp)
   12a6c:	04c12d83          	lw	s11,76(sp)
   12a70:	08010113          	addi	sp,sp,128
   12a74:	00008067          	jalr	zero,0(ra)
   12a78:	0007c683          	lbu	a3,0(a5)
   12a7c:	00178793          	addi	a5,a5,1
   12a80:	00170713          	addi	a4,a4,1
   12a84:	fed70fa3          	sb	a3,-1(a4)
   12a88:	04010693          	addi	a3,sp,64
   12a8c:	ead786e3          	beq	a5,a3,12938 <dec_buffer+0x244>
   12a90:	0007c683          	lbu	a3,0(a5)
   12a94:	00178793          	addi	a5,a5,1
   12a98:	00170713          	addi	a4,a4,1
   12a9c:	fed70fa3          	sb	a3,-1(a4)
   12aa0:	04010693          	addi	a3,sp,64
   12aa4:	fcd79ae3          	bne	a5,a3,12a78 <dec_buffer+0x384>
   12aa8:	e91ff06f          	jal	zero,12938 <dec_buffer+0x244>
   12aac:	06c12983          	lw	s3,108(sp)
   12ab0:	06012b03          	lw	s6,96(sp)
   12ab4:	05412c83          	lw	s9,84(sp)
   12ab8:	f3700513          	addi	a0,zero,-201
   12abc:	f8dff06f          	jal	zero,12a48 <dec_buffer+0x354>
   12ac0:	01054283          	lbu	t0,16(a0)
   12ac4:	01154f83          	lbu	t6,17(a0)
   12ac8:	01254f03          	lbu	t5,18(a0)
   12acc:	01354e83          	lbu	t4,19(a0)
   12ad0:	01454e03          	lbu	t3,20(a0)
   12ad4:	01554303          	lbu	t1,21(a0)
   12ad8:	01654883          	lbu	a7,22(a0)
   12adc:	01754803          	lbu	a6,23(a0)
   12ae0:	00510823          	sb	t0,16(sp)
   12ae4:	01f108a3          	sb	t6,17(sp)
   12ae8:	01854283          	lbu	t0,24(a0)
   12aec:	01954f83          	lbu	t6,25(a0)
   12af0:	01e10923          	sb	t5,18(sp)
   12af4:	01d109a3          	sb	t4,19(sp)
   12af8:	01a54f03          	lbu	t5,26(a0)
   12afc:	01b54e83          	lbu	t4,27(a0)
   12b00:	01c10a23          	sb	t3,20(sp)
   12b04:	00610aa3          	sb	t1,21(sp)
   12b08:	01c54e03          	lbu	t3,28(a0)
   12b0c:	01d54303          	lbu	t1,29(a0)
   12b10:	01110b23          	sb	a7,22(sp)
   12b14:	01010ba3          	sb	a6,23(sp)
   12b18:	01e54883          	lbu	a7,30(a0)
   12b1c:	01f54803          	lbu	a6,31(a0)
   12b20:	00510c23          	sb	t0,24(sp)
   12b24:	01f10ca3          	sb	t6,25(sp)
   12b28:	01e10d23          	sb	t5,26(sp)
   12b2c:	01d10da3          	sb	t4,27(sp)
   12b30:	01c10e23          	sb	t3,28(sp)
   12b34:	00610ea3          	sb	t1,29(sp)
   12b38:	01110f23          	sb	a7,30(sp)
   12b3c:	01010fa3          	sb	a6,31(sp)
   12b40:	c11ff06f          	jal	zero,12750 <dec_buffer+0x5c>
   12b44:	03014503          	lbu	a0,48(sp)
   12b48:	03114603          	lbu	a2,49(sp)
   12b4c:	00144783          	lbu	a5,1(s0)
   12b50:	03214683          	lbu	a3,50(sp)
   12b54:	00244803          	lbu	a6,2(s0)
   12b58:	00044583          	lbu	a1,0(s0)
   12b5c:	00f64633          	xor	a2,a2,a5
   12b60:	0106c6b3          	xor	a3,a3,a6
   12b64:	03414783          	lbu	a5,52(sp)
   12b68:	00444803          	lbu	a6,4(s0)
   12b6c:	00a5c5b3          	xor	a1,a1,a0
   12b70:	00344703          	lbu	a4,3(s0)
   12b74:	03314503          	lbu	a0,51(sp)
   12b78:	0107c7b3          	xor	a5,a5,a6
   12b7c:	00544803          	lbu	a6,5(s0)
   12b80:	00a74733          	xor	a4,a4,a0
   12b84:	03514503          	lbu	a0,53(sp)
   12b88:	02b10823          	sb	a1,48(sp)
   12b8c:	03614583          	lbu	a1,54(sp)
   12b90:	01054533          	xor	a0,a0,a6
   12b94:	00644803          	lbu	a6,6(s0)
   12b98:	02c108a3          	sb	a2,49(sp)
   12b9c:	03714603          	lbu	a2,55(sp)
   12ba0:	0105c5b3          	xor	a1,a1,a6
   12ba4:	00744803          	lbu	a6,7(s0)
   12ba8:	02d10923          	sb	a3,50(sp)
   12bac:	03814683          	lbu	a3,56(sp)
   12bb0:	01064633          	xor	a2,a2,a6
   12bb4:	00844803          	lbu	a6,8(s0)
   12bb8:	02e109a3          	sb	a4,51(sp)
   12bbc:	03914703          	lbu	a4,57(sp)
   12bc0:	0106c6b3          	xor	a3,a3,a6
   12bc4:	00944803          	lbu	a6,9(s0)
   12bc8:	02f10a23          	sb	a5,52(sp)
   12bcc:	03a14783          	lbu	a5,58(sp)
   12bd0:	01074733          	xor	a4,a4,a6
   12bd4:	00a44803          	lbu	a6,10(s0)
   12bd8:	02a10aa3          	sb	a0,53(sp)
   12bdc:	02b10b23          	sb	a1,54(sp)
   12be0:	0107c7b3          	xor	a5,a5,a6
   12be4:	02c10ba3          	sb	a2,55(sp)
   12be8:	02d10c23          	sb	a3,56(sp)
   12bec:	02e10ca3          	sb	a4,57(sp)
   12bf0:	02f10d23          	sb	a5,58(sp)
   12bf4:	03b14583          	lbu	a1,59(sp)
   12bf8:	00b44803          	lbu	a6,11(s0)
   12bfc:	03c14603          	lbu	a2,60(sp)
   12c00:	00c44783          	lbu	a5,12(s0)
   12c04:	03d14683          	lbu	a3,61(sp)
   12c08:	00d44503          	lbu	a0,13(s0)
   12c0c:	03e14703          	lbu	a4,62(sp)
   12c10:	0105c5b3          	xor	a1,a1,a6
   12c14:	00f64633          	xor	a2,a2,a5
   12c18:	00a6c6b3          	xor	a3,a3,a0
   12c1c:	03f14783          	lbu	a5,63(sp)
   12c20:	00e44803          	lbu	a6,14(s0)
   12c24:	00f44503          	lbu	a0,15(s0)
   12c28:	02b10da3          	sb	a1,59(sp)
   12c2c:	01074733          	xor	a4,a4,a6
   12c30:	00a7c7b3          	xor	a5,a5,a0
   12c34:	02c10e23          	sb	a2,60(sp)
   12c38:	02d10ea3          	sb	a3,61(sp)
   12c3c:	02e10f23          	sb	a4,62(sp)
   12c40:	02f10fa3          	sb	a5,63(sp)
   12c44:	b7dff06f          	jal	zero,127c0 <dec_buffer+0xcc>
   12c48:	00000c13          	addi	s8,zero,0
   12c4c:	de0d0ae3          	beq	s10,zero,12a40 <dec_buffer+0x34c>
   12c50:	00100713          	addi	a4,zero,1
   12c54:	d71ff06f          	jal	zero,129c4 <dec_buffer+0x2d0>
   12c58:	01a78d33          	add	s10,a5,s10
   12c5c:	000bc703          	lbu	a4,0(s7)
   12c60:	00178793          	addi	a5,a5,1
   12c64:	001b8b93          	addi	s7,s7,1
   12c68:	fee78fa3          	sb	a4,-1(a5)
   12c6c:	fefd18e3          	bne	s10,a5,12c5c <dec_buffer+0x568>
   12c70:	00080c13          	addi	s8,a6,0
   12c74:	dcdff06f          	jal	zero,12a40 <dec_buffer+0x34c>
   12c78:	f3800513          	addi	a0,zero,-200
   12c7c:	00008067          	jalr	zero,0(ra)

00012c80 <__fp_lock>:
   12c80:	00000513          	addi	a0,zero,0
   12c84:	00008067          	jalr	zero,0(ra)

00012c88 <stdio_exit_handler>:
   12c88:	00070637          	lui	a2,0x70
   12c8c:	000175b7          	lui	a1,0x17
   12c90:	00070537          	lui	a0,0x70
   12c94:	01060613          	addi	a2,a2,16 # 70010 <__sglue>
   12c98:	61458593          	addi	a1,a1,1556 # 17614 <_fclose_r>
   12c9c:	02050513          	addi	a0,a0,32 # 70020 <_impure_data>
   12ca0:	3700006f          	jal	zero,13010 <_fwalk_sglue>

00012ca4 <cleanup_stdio>:
   12ca4:	00452583          	lw	a1,4(a0)
   12ca8:	ff010113          	addi	sp,sp,-16
   12cac:	001147b7          	lui	a5,0x114
   12cb0:	00812423          	sw	s0,8(sp)
   12cb4:	00112623          	sw	ra,12(sp)
   12cb8:	0a878793          	addi	a5,a5,168 # 1140a8 <__sf>
   12cbc:	00050413          	addi	s0,a0,0
   12cc0:	00f58463          	beq	a1,a5,12cc8 <cleanup_stdio+0x24>
   12cc4:	151040ef          	jal	ra,17614 <_fclose_r>
   12cc8:	00842583          	lw	a1,8(s0)
   12ccc:	001147b7          	lui	a5,0x114
   12cd0:	11078793          	addi	a5,a5,272 # 114110 <__sf+0x68>
   12cd4:	00f58663          	beq	a1,a5,12ce0 <cleanup_stdio+0x3c>
   12cd8:	00040513          	addi	a0,s0,0
   12cdc:	139040ef          	jal	ra,17614 <_fclose_r>
   12ce0:	00c42583          	lw	a1,12(s0)
   12ce4:	001147b7          	lui	a5,0x114
   12ce8:	17878793          	addi	a5,a5,376 # 114178 <__sf+0xd0>
   12cec:	00f58c63          	beq	a1,a5,12d04 <cleanup_stdio+0x60>
   12cf0:	00040513          	addi	a0,s0,0
   12cf4:	00812403          	lw	s0,8(sp)
   12cf8:	00c12083          	lw	ra,12(sp)
   12cfc:	01010113          	addi	sp,sp,16
   12d00:	1150406f          	jal	zero,17614 <_fclose_r>
   12d04:	00c12083          	lw	ra,12(sp)
   12d08:	00812403          	lw	s0,8(sp)
   12d0c:	01010113          	addi	sp,sp,16
   12d10:	00008067          	jalr	zero,0(ra)

00012d14 <__fp_unlock>:
   12d14:	00000513          	addi	a0,zero,0
   12d18:	00008067          	jalr	zero,0(ra)

00012d1c <global_stdio_init.part.0>:
   12d1c:	fe010113          	addi	sp,sp,-32
   12d20:	000137b7          	lui	a5,0x13
   12d24:	00812c23          	sw	s0,24(sp)
   12d28:	c8878793          	addi	a5,a5,-888 # 12c88 <stdio_exit_handler>
   12d2c:	00114437          	lui	s0,0x114
   12d30:	00114537          	lui	a0,0x114
   12d34:	0a840413          	addi	s0,s0,168 # 1140a8 <__sf>
   12d38:	00112e23          	sw	ra,28(sp)
   12d3c:	00912a23          	sw	s1,20(sp)
   12d40:	01212823          	sw	s2,16(sp)
   12d44:	01312623          	sw	s3,12(sp)
   12d48:	01412423          	sw	s4,8(sp)
   12d4c:	88f1a223          	sw	a5,-1916(gp) # 7073c <__stdio_exit_handler>
   12d50:	00800613          	addi	a2,zero,8
   12d54:	00400793          	addi	a5,zero,4
   12d58:	00000593          	addi	a1,zero,0
   12d5c:	10450513          	addi	a0,a0,260 # 114104 <__sf+0x5c>
   12d60:	00f42623          	sw	a5,12(s0)
   12d64:	00042023          	sw	zero,0(s0)
   12d68:	00042223          	sw	zero,4(s0)
   12d6c:	00042423          	sw	zero,8(s0)
   12d70:	06042223          	sw	zero,100(s0)
   12d74:	00042823          	sw	zero,16(s0)
   12d78:	00042a23          	sw	zero,20(s0)
   12d7c:	00042c23          	sw	zero,24(s0)
   12d80:	03d000ef          	jal	ra,135bc <memset>
   12d84:	00013a37          	lui	s4,0x13
   12d88:	000139b7          	lui	s3,0x13
   12d8c:	00013937          	lui	s2,0x13
   12d90:	000134b7          	lui	s1,0x13
   12d94:	00114537          	lui	a0,0x114
   12d98:	000107b7          	lui	a5,0x10
   12d9c:	158a0a13          	addi	s4,s4,344 # 13158 <__sread>
   12da0:	1bc98993          	addi	s3,s3,444 # 131bc <__swrite>
   12da4:	24490913          	addi	s2,s2,580 # 13244 <__sseek>
   12da8:	2a848493          	addi	s1,s1,680 # 132a8 <__sclose>
   12dac:	00978793          	addi	a5,a5,9 # 10009 <exit-0xab>
   12db0:	00800613          	addi	a2,zero,8
   12db4:	00000593          	addi	a1,zero,0
   12db8:	16c50513          	addi	a0,a0,364 # 11416c <__sf+0xc4>
   12dbc:	06f42a23          	sw	a5,116(s0)
   12dc0:	03442023          	sw	s4,32(s0)
   12dc4:	03342223          	sw	s3,36(s0)
   12dc8:	03242423          	sw	s2,40(s0)
   12dcc:	02942623          	sw	s1,44(s0)
   12dd0:	00842e23          	sw	s0,28(s0)
   12dd4:	06042423          	sw	zero,104(s0)
   12dd8:	06042623          	sw	zero,108(s0)
   12ddc:	06042823          	sw	zero,112(s0)
   12de0:	0c042623          	sw	zero,204(s0)
   12de4:	06042c23          	sw	zero,120(s0)
   12de8:	06042e23          	sw	zero,124(s0)
   12dec:	08042023          	sw	zero,128(s0)
   12df0:	7cc000ef          	jal	ra,135bc <memset>
   12df4:	00114737          	lui	a4,0x114
   12df8:	00114537          	lui	a0,0x114
   12dfc:	000207b7          	lui	a5,0x20
   12e00:	01278793          	addi	a5,a5,18 # 20012 <__muldf3+0x5e2>
   12e04:	11070713          	addi	a4,a4,272 # 114110 <__sf+0x68>
   12e08:	1d450513          	addi	a0,a0,468 # 1141d4 <__sf+0x12c>
   12e0c:	00800613          	addi	a2,zero,8
   12e10:	00000593          	addi	a1,zero,0
   12e14:	09442423          	sw	s4,136(s0)
   12e18:	09342623          	sw	s3,140(s0)
   12e1c:	09242823          	sw	s2,144(s0)
   12e20:	08942a23          	sw	s1,148(s0)
   12e24:	0cf42e23          	sw	a5,220(s0)
   12e28:	0c042823          	sw	zero,208(s0)
   12e2c:	0c042a23          	sw	zero,212(s0)
   12e30:	0c042c23          	sw	zero,216(s0)
   12e34:	12042a23          	sw	zero,308(s0)
   12e38:	0e042023          	sw	zero,224(s0)
   12e3c:	0e042223          	sw	zero,228(s0)
   12e40:	0e042423          	sw	zero,232(s0)
   12e44:	08e42223          	sw	a4,132(s0)
   12e48:	774000ef          	jal	ra,135bc <memset>
   12e4c:	001147b7          	lui	a5,0x114
   12e50:	17878793          	addi	a5,a5,376 # 114178 <__sf+0xd0>
   12e54:	0f442823          	sw	s4,240(s0)
   12e58:	0f342a23          	sw	s3,244(s0)
   12e5c:	0f242c23          	sw	s2,248(s0)
   12e60:	0e942e23          	sw	s1,252(s0)
   12e64:	01c12083          	lw	ra,28(sp)
   12e68:	0ef42623          	sw	a5,236(s0)
   12e6c:	01812403          	lw	s0,24(sp)
   12e70:	01412483          	lw	s1,20(sp)
   12e74:	01012903          	lw	s2,16(sp)
   12e78:	00c12983          	lw	s3,12(sp)
   12e7c:	00812a03          	lw	s4,8(sp)
   12e80:	02010113          	addi	sp,sp,32
   12e84:	00008067          	jalr	zero,0(ra)

00012e88 <__sfp>:
   12e88:	8841a783          	lw	a5,-1916(gp) # 7073c <__stdio_exit_handler>
   12e8c:	fe010113          	addi	sp,sp,-32
   12e90:	00912a23          	sw	s1,20(sp)
   12e94:	00112e23          	sw	ra,28(sp)
   12e98:	00812c23          	sw	s0,24(sp)
   12e9c:	00050493          	addi	s1,a0,0
   12ea0:	0e078e63          	beq	a5,zero,12f9c <__sfp+0x114>
   12ea4:	00070837          	lui	a6,0x70
   12ea8:	01080813          	addi	a6,a6,16 # 70010 <__sglue>
   12eac:	fff00693          	addi	a3,zero,-1
   12eb0:	00482783          	lw	a5,4(a6)
   12eb4:	fff78793          	addi	a5,a5,-1
   12eb8:	0807c063          	blt	a5,zero,12f38 <__sfp+0xb0>
   12ebc:	00882403          	lw	s0,8(a6)
   12ec0:	00c0006f          	jal	zero,12ecc <__sfp+0x44>
   12ec4:	06840413          	addi	s0,s0,104
   12ec8:	06d78863          	beq	a5,a3,12f38 <__sfp+0xb0>
   12ecc:	00c41703          	lh	a4,12(s0)
   12ed0:	fff78793          	addi	a5,a5,-1
   12ed4:	fe0718e3          	bne	a4,zero,12ec4 <__sfp+0x3c>
   12ed8:	ffff07b7          	lui	a5,0xffff0
   12edc:	00178793          	addi	a5,a5,1 # ffff0001 <__BSS_END__+0xffedbc69>
   12ee0:	00f42623          	sw	a5,12(s0)
   12ee4:	06042223          	sw	zero,100(s0)
   12ee8:	00042023          	sw	zero,0(s0)
   12eec:	00042423          	sw	zero,8(s0)
   12ef0:	00042223          	sw	zero,4(s0)
   12ef4:	00042823          	sw	zero,16(s0)
   12ef8:	00042a23          	sw	zero,20(s0)
   12efc:	00042c23          	sw	zero,24(s0)
   12f00:	00800613          	addi	a2,zero,8
   12f04:	00000593          	addi	a1,zero,0
   12f08:	05c40513          	addi	a0,s0,92
   12f0c:	6b0000ef          	jal	ra,135bc <memset>
   12f10:	02042823          	sw	zero,48(s0)
   12f14:	02042a23          	sw	zero,52(s0)
   12f18:	04042223          	sw	zero,68(s0)
   12f1c:	04042423          	sw	zero,72(s0)
   12f20:	01c12083          	lw	ra,28(sp)
   12f24:	00040513          	addi	a0,s0,0
   12f28:	01812403          	lw	s0,24(sp)
   12f2c:	01412483          	lw	s1,20(sp)
   12f30:	02010113          	addi	sp,sp,32
   12f34:	00008067          	jalr	zero,0(ra)
   12f38:	00082403          	lw	s0,0(a6)
   12f3c:	00040663          	beq	s0,zero,12f48 <__sfp+0xc0>
   12f40:	00040813          	addi	a6,s0,0
   12f44:	f6dff06f          	jal	zero,12eb0 <__sfp+0x28>
   12f48:	1ac00593          	addi	a1,zero,428
   12f4c:	00048513          	addi	a0,s1,0
   12f50:	01012623          	sw	a6,12(sp)
   12f54:	4a1000ef          	jal	ra,13bf4 <_malloc_r>
   12f58:	00c12803          	lw	a6,12(sp)
   12f5c:	00050413          	addi	s0,a0,0
   12f60:	04050263          	beq	a0,zero,12fa4 <__sfp+0x11c>
   12f64:	00400793          	addi	a5,zero,4
   12f68:	00f52223          	sw	a5,4(a0)
   12f6c:	00c50513          	addi	a0,a0,12
   12f70:	00042023          	sw	zero,0(s0)
   12f74:	00a42423          	sw	a0,8(s0)
   12f78:	1a000613          	addi	a2,zero,416
   12f7c:	00000593          	addi	a1,zero,0
   12f80:	01012623          	sw	a6,12(sp)
   12f84:	638000ef          	jal	ra,135bc <memset>
   12f88:	00c12803          	lw	a6,12(sp)
   12f8c:	fff00693          	addi	a3,zero,-1
   12f90:	00882023          	sw	s0,0(a6)
   12f94:	00040813          	addi	a6,s0,0
   12f98:	f19ff06f          	jal	zero,12eb0 <__sfp+0x28>
   12f9c:	d81ff0ef          	jal	ra,12d1c <global_stdio_init.part.0>
   12fa0:	f05ff06f          	jal	zero,12ea4 <__sfp+0x1c>
   12fa4:	00082023          	sw	zero,0(a6)
   12fa8:	00c00793          	addi	a5,zero,12
   12fac:	00f4a023          	sw	a5,0(s1)
   12fb0:	f71ff06f          	jal	zero,12f20 <__sfp+0x98>

00012fb4 <__sinit>:
   12fb4:	03452783          	lw	a5,52(a0)
   12fb8:	00078463          	beq	a5,zero,12fc0 <__sinit+0xc>
   12fbc:	00008067          	jalr	zero,0(ra)
   12fc0:	000137b7          	lui	a5,0x13
   12fc4:	8841a703          	lw	a4,-1916(gp) # 7073c <__stdio_exit_handler>
   12fc8:	ca478793          	addi	a5,a5,-860 # 12ca4 <cleanup_stdio>
   12fcc:	02f52a23          	sw	a5,52(a0)
   12fd0:	fe0716e3          	bne	a4,zero,12fbc <__sinit+0x8>
   12fd4:	d49ff06f          	jal	zero,12d1c <global_stdio_init.part.0>

00012fd8 <__sfp_lock_acquire>:
   12fd8:	00008067          	jalr	zero,0(ra)

00012fdc <__sfp_lock_release>:
   12fdc:	00008067          	jalr	zero,0(ra)

00012fe0 <__fp_lock_all>:
   12fe0:	00070637          	lui	a2,0x70
   12fe4:	000135b7          	lui	a1,0x13
   12fe8:	01060613          	addi	a2,a2,16 # 70010 <__sglue>
   12fec:	c8058593          	addi	a1,a1,-896 # 12c80 <__fp_lock>
   12ff0:	00000513          	addi	a0,zero,0
   12ff4:	01c0006f          	jal	zero,13010 <_fwalk_sglue>

00012ff8 <__fp_unlock_all>:
   12ff8:	00070637          	lui	a2,0x70
   12ffc:	000135b7          	lui	a1,0x13
   13000:	01060613          	addi	a2,a2,16 # 70010 <__sglue>
   13004:	d1458593          	addi	a1,a1,-748 # 12d14 <__fp_unlock>
   13008:	00000513          	addi	a0,zero,0
   1300c:	0040006f          	jal	zero,13010 <_fwalk_sglue>

00013010 <_fwalk_sglue>:
   13010:	fd010113          	addi	sp,sp,-48
   13014:	03212023          	sw	s2,32(sp)
   13018:	01312e23          	sw	s3,28(sp)
   1301c:	01412c23          	sw	s4,24(sp)
   13020:	01512a23          	sw	s5,20(sp)
   13024:	01612823          	sw	s6,16(sp)
   13028:	01712623          	sw	s7,12(sp)
   1302c:	02112623          	sw	ra,44(sp)
   13030:	02812423          	sw	s0,40(sp)
   13034:	02912223          	sw	s1,36(sp)
   13038:	00060a93          	addi	s5,a2,0
   1303c:	00050b13          	addi	s6,a0,0
   13040:	00058b93          	addi	s7,a1,0
   13044:	00000a13          	addi	s4,zero,0
   13048:	00100993          	addi	s3,zero,1
   1304c:	fff00913          	addi	s2,zero,-1
   13050:	004aa483          	lw	s1,4(s5)
   13054:	fff48493          	addi	s1,s1,-1
   13058:	0204ca63          	blt	s1,zero,1308c <_fwalk_sglue+0x7c>
   1305c:	008aa403          	lw	s0,8(s5)
   13060:	00c45783          	lhu	a5,12(s0)
   13064:	00f9fe63          	bgeu	s3,a5,13080 <_fwalk_sglue+0x70>
   13068:	00e41783          	lh	a5,14(s0)
   1306c:	00040593          	addi	a1,s0,0
   13070:	000b0513          	addi	a0,s6,0
   13074:	01278663          	beq	a5,s2,13080 <_fwalk_sglue+0x70>
   13078:	000b80e7          	jalr	ra,0(s7)
   1307c:	00aa6a33          	or	s4,s4,a0
   13080:	fff48493          	addi	s1,s1,-1
   13084:	06840413          	addi	s0,s0,104
   13088:	fd249ce3          	bne	s1,s2,13060 <_fwalk_sglue+0x50>
   1308c:	000aaa83          	lw	s5,0(s5)
   13090:	fc0a90e3          	bne	s5,zero,13050 <_fwalk_sglue+0x40>
   13094:	02c12083          	lw	ra,44(sp)
   13098:	02812403          	lw	s0,40(sp)
   1309c:	02412483          	lw	s1,36(sp)
   130a0:	02012903          	lw	s2,32(sp)
   130a4:	01c12983          	lw	s3,28(sp)
   130a8:	01412a83          	lw	s5,20(sp)
   130ac:	01012b03          	lw	s6,16(sp)
   130b0:	00c12b83          	lw	s7,12(sp)
   130b4:	000a0513          	addi	a0,s4,0
   130b8:	01812a03          	lw	s4,24(sp)
   130bc:	03010113          	addi	sp,sp,48
   130c0:	00008067          	jalr	zero,0(ra)

000130c4 <_printf_r>:
   130c4:	fc010113          	addi	sp,sp,-64
   130c8:	00058e13          	addi	t3,a1,0
   130cc:	00852583          	lw	a1,8(a0)
   130d0:	02810313          	addi	t1,sp,40
   130d4:	02c12423          	sw	a2,40(sp)
   130d8:	02d12623          	sw	a3,44(sp)
   130dc:	000e0613          	addi	a2,t3,0
   130e0:	00030693          	addi	a3,t1,0
   130e4:	00112e23          	sw	ra,28(sp)
   130e8:	02e12823          	sw	a4,48(sp)
   130ec:	02f12a23          	sw	a5,52(sp)
   130f0:	03012c23          	sw	a6,56(sp)
   130f4:	03112e23          	sw	a7,60(sp)
   130f8:	00612623          	sw	t1,12(sp)
   130fc:	380010ef          	jal	ra,1447c <_vfprintf_r>
   13100:	01c12083          	lw	ra,28(sp)
   13104:	04010113          	addi	sp,sp,64
   13108:	00008067          	jalr	zero,0(ra)

0001310c <printf>:
   1310c:	8741a303          	lw	t1,-1932(gp) # 7072c <_impure_ptr>
   13110:	fc010113          	addi	sp,sp,-64
   13114:	02c12423          	sw	a2,40(sp)
   13118:	02d12623          	sw	a3,44(sp)
   1311c:	02b12223          	sw	a1,36(sp)
   13120:	02e12823          	sw	a4,48(sp)
   13124:	02f12a23          	sw	a5,52(sp)
   13128:	03012c23          	sw	a6,56(sp)
   1312c:	03112e23          	sw	a7,60(sp)
   13130:	00832583          	lw	a1,8(t1)
   13134:	02410693          	addi	a3,sp,36
   13138:	00050613          	addi	a2,a0,0
   1313c:	00030513          	addi	a0,t1,0
   13140:	00112e23          	sw	ra,28(sp)
   13144:	00d12623          	sw	a3,12(sp)
   13148:	334010ef          	jal	ra,1447c <_vfprintf_r>
   1314c:	01c12083          	lw	ra,28(sp)
   13150:	04010113          	addi	sp,sp,64
   13154:	00008067          	jalr	zero,0(ra)

00013158 <__sread>:
   13158:	ff010113          	addi	sp,sp,-16
   1315c:	00812423          	sw	s0,8(sp)
   13160:	00058413          	addi	s0,a1,0
   13164:	00e59583          	lh	a1,14(a1)
   13168:	00112623          	sw	ra,12(sp)
   1316c:	2ec000ef          	jal	ra,13458 <_read_r>
   13170:	02054063          	blt	a0,zero,13190 <__sread+0x38>
   13174:	05042783          	lw	a5,80(s0)
   13178:	00c12083          	lw	ra,12(sp)
   1317c:	00a787b3          	add	a5,a5,a0
   13180:	04f42823          	sw	a5,80(s0)
   13184:	00812403          	lw	s0,8(sp)
   13188:	01010113          	addi	sp,sp,16
   1318c:	00008067          	jalr	zero,0(ra)
   13190:	00c45783          	lhu	a5,12(s0)
   13194:	fffff737          	lui	a4,0xfffff
   13198:	fff70713          	addi	a4,a4,-1 # ffffefff <__BSS_END__+0xffeeac67>
   1319c:	00e7f7b3          	and	a5,a5,a4
   131a0:	00c12083          	lw	ra,12(sp)
   131a4:	00f41623          	sh	a5,12(s0)
   131a8:	00812403          	lw	s0,8(sp)
   131ac:	01010113          	addi	sp,sp,16
   131b0:	00008067          	jalr	zero,0(ra)

000131b4 <__seofread>:
   131b4:	00000513          	addi	a0,zero,0
   131b8:	00008067          	jalr	zero,0(ra)

000131bc <__swrite>:
   131bc:	00c59783          	lh	a5,12(a1)
   131c0:	fe010113          	addi	sp,sp,-32
   131c4:	00068313          	addi	t1,a3,0
   131c8:	00112e23          	sw	ra,28(sp)
   131cc:	1007f693          	andi	a3,a5,256
   131d0:	00058713          	addi	a4,a1,0
   131d4:	00060893          	addi	a7,a2,0
   131d8:	00050813          	addi	a6,a0,0
   131dc:	02069863          	bne	a3,zero,1320c <__swrite+0x50>
   131e0:	fffff6b7          	lui	a3,0xfffff
   131e4:	fff68693          	addi	a3,a3,-1 # ffffefff <__BSS_END__+0xffeeac67>
   131e8:	01c12083          	lw	ra,28(sp)
   131ec:	00d7f7b3          	and	a5,a5,a3
   131f0:	00e71583          	lh	a1,14(a4)
   131f4:	00f71623          	sh	a5,12(a4)
   131f8:	00030693          	addi	a3,t1,0
   131fc:	00088613          	addi	a2,a7,0
   13200:	00080513          	addi	a0,a6,0
   13204:	02010113          	addi	sp,sp,32
   13208:	2b80006f          	jal	zero,134c0 <_write_r>
   1320c:	00e59583          	lh	a1,14(a1)
   13210:	00c12423          	sw	a2,8(sp)
   13214:	00200693          	addi	a3,zero,2
   13218:	00000613          	addi	a2,zero,0
   1321c:	00612623          	sw	t1,12(sp)
   13220:	00e12023          	sw	a4,0(sp)
   13224:	00a12223          	sw	a0,4(sp)
   13228:	1c8000ef          	jal	ra,133f0 <_lseek_r>
   1322c:	00012703          	lw	a4,0(sp)
   13230:	00c12303          	lw	t1,12(sp)
   13234:	00812883          	lw	a7,8(sp)
   13238:	00c71783          	lh	a5,12(a4)
   1323c:	00412803          	lw	a6,4(sp)
   13240:	fa1ff06f          	jal	zero,131e0 <__swrite+0x24>

00013244 <__sseek>:
   13244:	ff010113          	addi	sp,sp,-16
   13248:	00812423          	sw	s0,8(sp)
   1324c:	00058413          	addi	s0,a1,0
   13250:	00e59583          	lh	a1,14(a1)
   13254:	00112623          	sw	ra,12(sp)
   13258:	198000ef          	jal	ra,133f0 <_lseek_r>
   1325c:	fff00713          	addi	a4,zero,-1
   13260:	00c41783          	lh	a5,12(s0)
   13264:	02e50263          	beq	a0,a4,13288 <__sseek+0x44>
   13268:	00001737          	lui	a4,0x1
   1326c:	00e7e7b3          	or	a5,a5,a4
   13270:	00c12083          	lw	ra,12(sp)
   13274:	04a42823          	sw	a0,80(s0)
   13278:	00f41623          	sh	a5,12(s0)
   1327c:	00812403          	lw	s0,8(sp)
   13280:	01010113          	addi	sp,sp,16
   13284:	00008067          	jalr	zero,0(ra)
   13288:	80050713          	addi	a4,a0,-2048
   1328c:	80070713          	addi	a4,a4,-2048 # 800 <exit-0xf8b4>
   13290:	00e7f7b3          	and	a5,a5,a4
   13294:	00c12083          	lw	ra,12(sp)
   13298:	00f41623          	sh	a5,12(s0)
   1329c:	00812403          	lw	s0,8(sp)
   132a0:	01010113          	addi	sp,sp,16
   132a4:	00008067          	jalr	zero,0(ra)

000132a8 <__sclose>:
   132a8:	00e59583          	lh	a1,14(a1)
   132ac:	0040006f          	jal	zero,132b0 <_close_r>

000132b0 <_close_r>:
   132b0:	ff010113          	addi	sp,sp,-16
   132b4:	00812423          	sw	s0,8(sp)
   132b8:	00912223          	sw	s1,4(sp)
   132bc:	00050493          	addi	s1,a0,0
   132c0:	00058513          	addi	a0,a1,0
   132c4:	00112623          	sw	ra,12(sp)
   132c8:	8801a423          	sw	zero,-1912(gp) # 70740 <errno>
   132cc:	4340b0ef          	jal	ra,1e700 <_close>
   132d0:	fff00793          	addi	a5,zero,-1
   132d4:	00f50c63          	beq	a0,a5,132ec <_close_r+0x3c>
   132d8:	00c12083          	lw	ra,12(sp)
   132dc:	00812403          	lw	s0,8(sp)
   132e0:	00412483          	lw	s1,4(sp)
   132e4:	01010113          	addi	sp,sp,16
   132e8:	00008067          	jalr	zero,0(ra)
   132ec:	8881a783          	lw	a5,-1912(gp) # 70740 <errno>
   132f0:	fe0784e3          	beq	a5,zero,132d8 <_close_r+0x28>
   132f4:	00c12083          	lw	ra,12(sp)
   132f8:	00812403          	lw	s0,8(sp)
   132fc:	00f4a023          	sw	a5,0(s1)
   13300:	00412483          	lw	s1,4(sp)
   13304:	01010113          	addi	sp,sp,16
   13308:	00008067          	jalr	zero,0(ra)

0001330c <_reclaim_reent>:
   1330c:	8741a783          	lw	a5,-1932(gp) # 7072c <_impure_ptr>
   13310:	0ca78e63          	beq	a5,a0,133ec <_reclaim_reent+0xe0>
   13314:	04452583          	lw	a1,68(a0)
   13318:	fe010113          	addi	sp,sp,-32
   1331c:	00912a23          	sw	s1,20(sp)
   13320:	00112e23          	sw	ra,28(sp)
   13324:	00812c23          	sw	s0,24(sp)
   13328:	00050493          	addi	s1,a0,0
   1332c:	04058863          	beq	a1,zero,1337c <_reclaim_reent+0x70>
   13330:	01212823          	sw	s2,16(sp)
   13334:	01312623          	sw	s3,12(sp)
   13338:	00000913          	addi	s2,zero,0
   1333c:	08000993          	addi	s3,zero,128
   13340:	012587b3          	add	a5,a1,s2
   13344:	0007a403          	lw	s0,0(a5)
   13348:	00040e63          	beq	s0,zero,13364 <_reclaim_reent+0x58>
   1334c:	00040593          	addi	a1,s0,0
   13350:	00042403          	lw	s0,0(s0)
   13354:	00048513          	addi	a0,s1,0
   13358:	5b4000ef          	jal	ra,1390c <_free_r>
   1335c:	fe0418e3          	bne	s0,zero,1334c <_reclaim_reent+0x40>
   13360:	0444a583          	lw	a1,68(s1)
   13364:	00490913          	addi	s2,s2,4
   13368:	fd391ce3          	bne	s2,s3,13340 <_reclaim_reent+0x34>
   1336c:	00048513          	addi	a0,s1,0
   13370:	59c000ef          	jal	ra,1390c <_free_r>
   13374:	01012903          	lw	s2,16(sp)
   13378:	00c12983          	lw	s3,12(sp)
   1337c:	0384a583          	lw	a1,56(s1)
   13380:	00058663          	beq	a1,zero,1338c <_reclaim_reent+0x80>
   13384:	00048513          	addi	a0,s1,0
   13388:	584000ef          	jal	ra,1390c <_free_r>
   1338c:	0404a403          	lw	s0,64(s1)
   13390:	00040c63          	beq	s0,zero,133a8 <_reclaim_reent+0x9c>
   13394:	00040593          	addi	a1,s0,0
   13398:	00042403          	lw	s0,0(s0)
   1339c:	00048513          	addi	a0,s1,0
   133a0:	56c000ef          	jal	ra,1390c <_free_r>
   133a4:	fe0418e3          	bne	s0,zero,13394 <_reclaim_reent+0x88>
   133a8:	04c4a583          	lw	a1,76(s1)
   133ac:	00058663          	beq	a1,zero,133b8 <_reclaim_reent+0xac>
   133b0:	00048513          	addi	a0,s1,0
   133b4:	558000ef          	jal	ra,1390c <_free_r>
   133b8:	0344a783          	lw	a5,52(s1)
   133bc:	00078e63          	beq	a5,zero,133d8 <_reclaim_reent+0xcc>
   133c0:	01812403          	lw	s0,24(sp)
   133c4:	01c12083          	lw	ra,28(sp)
   133c8:	00048513          	addi	a0,s1,0
   133cc:	01412483          	lw	s1,20(sp)
   133d0:	02010113          	addi	sp,sp,32
   133d4:	00078067          	jalr	zero,0(a5)
   133d8:	01c12083          	lw	ra,28(sp)
   133dc:	01812403          	lw	s0,24(sp)
   133e0:	01412483          	lw	s1,20(sp)
   133e4:	02010113          	addi	sp,sp,32
   133e8:	00008067          	jalr	zero,0(ra)
   133ec:	00008067          	jalr	zero,0(ra)

000133f0 <_lseek_r>:
   133f0:	ff010113          	addi	sp,sp,-16
   133f4:	00058793          	addi	a5,a1,0
   133f8:	00812423          	sw	s0,8(sp)
   133fc:	00912223          	sw	s1,4(sp)
   13400:	00060593          	addi	a1,a2,0
   13404:	00050493          	addi	s1,a0,0
   13408:	00068613          	addi	a2,a3,0
   1340c:	00078513          	addi	a0,a5,0
   13410:	00112623          	sw	ra,12(sp)
   13414:	8801a423          	sw	zero,-1912(gp) # 70740 <errno>
   13418:	4240b0ef          	jal	ra,1e83c <_lseek>
   1341c:	fff00793          	addi	a5,zero,-1
   13420:	00f50c63          	beq	a0,a5,13438 <_lseek_r+0x48>
   13424:	00c12083          	lw	ra,12(sp)
   13428:	00812403          	lw	s0,8(sp)
   1342c:	00412483          	lw	s1,4(sp)
   13430:	01010113          	addi	sp,sp,16
   13434:	00008067          	jalr	zero,0(ra)
   13438:	8881a783          	lw	a5,-1912(gp) # 70740 <errno>
   1343c:	fe0784e3          	beq	a5,zero,13424 <_lseek_r+0x34>
   13440:	00c12083          	lw	ra,12(sp)
   13444:	00812403          	lw	s0,8(sp)
   13448:	00f4a023          	sw	a5,0(s1)
   1344c:	00412483          	lw	s1,4(sp)
   13450:	01010113          	addi	sp,sp,16
   13454:	00008067          	jalr	zero,0(ra)

00013458 <_read_r>:
   13458:	ff010113          	addi	sp,sp,-16
   1345c:	00058793          	addi	a5,a1,0
   13460:	00812423          	sw	s0,8(sp)
   13464:	00912223          	sw	s1,4(sp)
   13468:	00060593          	addi	a1,a2,0
   1346c:	00050493          	addi	s1,a0,0
   13470:	00068613          	addi	a2,a3,0
   13474:	00078513          	addi	a0,a5,0
   13478:	00112623          	sw	ra,12(sp)
   1347c:	8801a423          	sw	zero,-1912(gp) # 70740 <errno>
   13480:	3fc0b0ef          	jal	ra,1e87c <_read>
   13484:	fff00793          	addi	a5,zero,-1
   13488:	00f50c63          	beq	a0,a5,134a0 <_read_r+0x48>
   1348c:	00c12083          	lw	ra,12(sp)
   13490:	00812403          	lw	s0,8(sp)
   13494:	00412483          	lw	s1,4(sp)
   13498:	01010113          	addi	sp,sp,16
   1349c:	00008067          	jalr	zero,0(ra)
   134a0:	8881a783          	lw	a5,-1912(gp) # 70740 <errno>
   134a4:	fe0784e3          	beq	a5,zero,1348c <_read_r+0x34>
   134a8:	00c12083          	lw	ra,12(sp)
   134ac:	00812403          	lw	s0,8(sp)
   134b0:	00f4a023          	sw	a5,0(s1)
   134b4:	00412483          	lw	s1,4(sp)
   134b8:	01010113          	addi	sp,sp,16
   134bc:	00008067          	jalr	zero,0(ra)

000134c0 <_write_r>:
   134c0:	ff010113          	addi	sp,sp,-16
   134c4:	00058793          	addi	a5,a1,0
   134c8:	00812423          	sw	s0,8(sp)
   134cc:	00912223          	sw	s1,4(sp)
   134d0:	00060593          	addi	a1,a2,0
   134d4:	00050493          	addi	s1,a0,0
   134d8:	00068613          	addi	a2,a3,0
   134dc:	00078513          	addi	a0,a5,0
   134e0:	00112623          	sw	ra,12(sp)
   134e4:	8801a423          	sw	zero,-1912(gp) # 70740 <errno>
   134e8:	44c0b0ef          	jal	ra,1e934 <_write>
   134ec:	fff00793          	addi	a5,zero,-1
   134f0:	00f50c63          	beq	a0,a5,13508 <_write_r+0x48>
   134f4:	00c12083          	lw	ra,12(sp)
   134f8:	00812403          	lw	s0,8(sp)
   134fc:	00412483          	lw	s1,4(sp)
   13500:	01010113          	addi	sp,sp,16
   13504:	00008067          	jalr	zero,0(ra)
   13508:	8881a783          	lw	a5,-1912(gp) # 70740 <errno>
   1350c:	fe0784e3          	beq	a5,zero,134f4 <_write_r+0x34>
   13510:	00c12083          	lw	ra,12(sp)
   13514:	00812403          	lw	s0,8(sp)
   13518:	00f4a023          	sw	a5,0(s1)
   1351c:	00412483          	lw	s1,4(sp)
   13520:	01010113          	addi	sp,sp,16
   13524:	00008067          	jalr	zero,0(ra)

00013528 <__libc_init_array>:
   13528:	ff010113          	addi	sp,sp,-16
   1352c:	00812423          	sw	s0,8(sp)
   13530:	01212023          	sw	s2,0(sp)
   13534:	00070437          	lui	s0,0x70
   13538:	00070937          	lui	s2,0x70
   1353c:	00112623          	sw	ra,12(sp)
   13540:	00912223          	sw	s1,4(sp)
   13544:	00090913          	addi	s2,s2,0 # 70000 <__init_array_start>
   13548:	00040413          	addi	s0,s0,0 # 70000 <__init_array_start>
   1354c:	02890263          	beq	s2,s0,13570 <__libc_init_array+0x48>
   13550:	40890933          	sub	s2,s2,s0
   13554:	40295913          	srai	s2,s2,0x2
   13558:	00000493          	addi	s1,zero,0
   1355c:	00042783          	lw	a5,0(s0)
   13560:	00148493          	addi	s1,s1,1
   13564:	00440413          	addi	s0,s0,4
   13568:	000780e7          	jalr	ra,0(a5)
   1356c:	ff24e8e3          	bltu	s1,s2,1355c <__libc_init_array+0x34>
   13570:	00070937          	lui	s2,0x70
   13574:	00070437          	lui	s0,0x70
   13578:	00890913          	addi	s2,s2,8 # 70008 <__do_global_dtors_aux_fini_array_entry>
   1357c:	00040413          	addi	s0,s0,0 # 70000 <__init_array_start>
   13580:	02890263          	beq	s2,s0,135a4 <__libc_init_array+0x7c>
   13584:	40890933          	sub	s2,s2,s0
   13588:	40295913          	srai	s2,s2,0x2
   1358c:	00000493          	addi	s1,zero,0
   13590:	00042783          	lw	a5,0(s0)
   13594:	00148493          	addi	s1,s1,1
   13598:	00440413          	addi	s0,s0,4
   1359c:	000780e7          	jalr	ra,0(a5)
   135a0:	ff24e8e3          	bltu	s1,s2,13590 <__libc_init_array+0x68>
   135a4:	00c12083          	lw	ra,12(sp)
   135a8:	00812403          	lw	s0,8(sp)
   135ac:	00412483          	lw	s1,4(sp)
   135b0:	00012903          	lw	s2,0(sp)
   135b4:	01010113          	addi	sp,sp,16
   135b8:	00008067          	jalr	zero,0(ra)

000135bc <memset>:
   135bc:	00f00313          	addi	t1,zero,15
   135c0:	00050713          	addi	a4,a0,0
   135c4:	02c37e63          	bgeu	t1,a2,13600 <memset+0x44>
   135c8:	00f77793          	andi	a5,a4,15
   135cc:	0a079063          	bne	a5,zero,1366c <memset+0xb0>
   135d0:	08059263          	bne	a1,zero,13654 <memset+0x98>
   135d4:	ff067693          	andi	a3,a2,-16
   135d8:	00f67613          	andi	a2,a2,15
   135dc:	00e686b3          	add	a3,a3,a4
   135e0:	00b72023          	sw	a1,0(a4)
   135e4:	00b72223          	sw	a1,4(a4)
   135e8:	00b72423          	sw	a1,8(a4)
   135ec:	00b72623          	sw	a1,12(a4)
   135f0:	01070713          	addi	a4,a4,16
   135f4:	fed766e3          	bltu	a4,a3,135e0 <memset+0x24>
   135f8:	00061463          	bne	a2,zero,13600 <memset+0x44>
   135fc:	00008067          	jalr	zero,0(ra)
   13600:	40c306b3          	sub	a3,t1,a2
   13604:	00269693          	slli	a3,a3,0x2
   13608:	00000297          	auipc	t0,0x0
   1360c:	005686b3          	add	a3,a3,t0
   13610:	00c68067          	jalr	zero,12(a3)
   13614:	00b70723          	sb	a1,14(a4)
   13618:	00b706a3          	sb	a1,13(a4)
   1361c:	00b70623          	sb	a1,12(a4)
   13620:	00b705a3          	sb	a1,11(a4)
   13624:	00b70523          	sb	a1,10(a4)
   13628:	00b704a3          	sb	a1,9(a4)
   1362c:	00b70423          	sb	a1,8(a4)
   13630:	00b703a3          	sb	a1,7(a4)
   13634:	00b70323          	sb	a1,6(a4)
   13638:	00b702a3          	sb	a1,5(a4)
   1363c:	00b70223          	sb	a1,4(a4)
   13640:	00b701a3          	sb	a1,3(a4)
   13644:	00b70123          	sb	a1,2(a4)
   13648:	00b700a3          	sb	a1,1(a4)
   1364c:	00b70023          	sb	a1,0(a4)
   13650:	00008067          	jalr	zero,0(ra)
   13654:	0ff5f593          	andi	a1,a1,255
   13658:	00859693          	slli	a3,a1,0x8
   1365c:	00d5e5b3          	or	a1,a1,a3
   13660:	01059693          	slli	a3,a1,0x10
   13664:	00d5e5b3          	or	a1,a1,a3
   13668:	f6dff06f          	jal	zero,135d4 <memset+0x18>
   1366c:	00279693          	slli	a3,a5,0x2
   13670:	00000297          	auipc	t0,0x0
   13674:	005686b3          	add	a3,a3,t0
   13678:	00008293          	addi	t0,ra,0
   1367c:	fa0680e7          	jalr	ra,-96(a3)
   13680:	00028093          	addi	ra,t0,0 # 13670 <memset+0xb4>
   13684:	ff078793          	addi	a5,a5,-16
   13688:	40f70733          	sub	a4,a4,a5
   1368c:	00f60633          	add	a2,a2,a5
   13690:	f6c378e3          	bgeu	t1,a2,13600 <memset+0x44>
   13694:	f3dff06f          	jal	zero,135d0 <memset+0x14>

00013698 <__call_exitprocs>:
   13698:	fd010113          	addi	sp,sp,-48
   1369c:	01412c23          	sw	s4,24(sp)
   136a0:	03212023          	sw	s2,32(sp)
   136a4:	88c1a903          	lw	s2,-1908(gp) # 70744 <__atexit>
   136a8:	02112623          	sw	ra,44(sp)
   136ac:	06090c63          	beq	s2,zero,13724 <__call_exitprocs+0x8c>
   136b0:	01312e23          	sw	s3,28(sp)
   136b4:	01512a23          	sw	s5,20(sp)
   136b8:	01612823          	sw	s6,16(sp)
   136bc:	01712623          	sw	s7,12(sp)
   136c0:	02812423          	sw	s0,40(sp)
   136c4:	02912223          	sw	s1,36(sp)
   136c8:	01812423          	sw	s8,8(sp)
   136cc:	00050b13          	addi	s6,a0,0
   136d0:	00058b93          	addi	s7,a1,0
   136d4:	fff00993          	addi	s3,zero,-1
   136d8:	00100a93          	addi	s5,zero,1
   136dc:	00492483          	lw	s1,4(s2)
   136e0:	fff48413          	addi	s0,s1,-1
   136e4:	02044263          	blt	s0,zero,13708 <__call_exitprocs+0x70>
   136e8:	00249493          	slli	s1,s1,0x2
   136ec:	009904b3          	add	s1,s2,s1
   136f0:	040b8463          	beq	s7,zero,13738 <__call_exitprocs+0xa0>
   136f4:	1044a783          	lw	a5,260(s1)
   136f8:	05778063          	beq	a5,s7,13738 <__call_exitprocs+0xa0>
   136fc:	fff40413          	addi	s0,s0,-1
   13700:	ffc48493          	addi	s1,s1,-4
   13704:	ff3418e3          	bne	s0,s3,136f4 <__call_exitprocs+0x5c>
   13708:	02812403          	lw	s0,40(sp)
   1370c:	02412483          	lw	s1,36(sp)
   13710:	01c12983          	lw	s3,28(sp)
   13714:	01412a83          	lw	s5,20(sp)
   13718:	01012b03          	lw	s6,16(sp)
   1371c:	00c12b83          	lw	s7,12(sp)
   13720:	00812c03          	lw	s8,8(sp)
   13724:	02c12083          	lw	ra,44(sp)
   13728:	02012903          	lw	s2,32(sp)
   1372c:	01812a03          	lw	s4,24(sp)
   13730:	03010113          	addi	sp,sp,48
   13734:	00008067          	jalr	zero,0(ra)
   13738:	00492783          	lw	a5,4(s2)
   1373c:	0044a683          	lw	a3,4(s1)
   13740:	fff78793          	addi	a5,a5,-1
   13744:	06878a63          	beq	a5,s0,137b8 <__call_exitprocs+0x120>
   13748:	0004a223          	sw	zero,4(s1)
   1374c:	02068663          	beq	a3,zero,13778 <__call_exitprocs+0xe0>
   13750:	18892783          	lw	a5,392(s2)
   13754:	008a9733          	sll	a4,s5,s0
   13758:	00492c03          	lw	s8,4(s2)
   1375c:	00f777b3          	and	a5,a4,a5
   13760:	02079463          	bne	a5,zero,13788 <__call_exitprocs+0xf0>
   13764:	000680e7          	jalr	ra,0(a3)
   13768:	00492703          	lw	a4,4(s2)
   1376c:	88c1a783          	lw	a5,-1908(gp) # 70744 <__atexit>
   13770:	03871e63          	bne	a4,s8,137ac <__call_exitprocs+0x114>
   13774:	03279c63          	bne	a5,s2,137ac <__call_exitprocs+0x114>
   13778:	fff40413          	addi	s0,s0,-1
   1377c:	ffc48493          	addi	s1,s1,-4
   13780:	f73418e3          	bne	s0,s3,136f0 <__call_exitprocs+0x58>
   13784:	f85ff06f          	jal	zero,13708 <__call_exitprocs+0x70>
   13788:	18c92783          	lw	a5,396(s2)
   1378c:	0844a583          	lw	a1,132(s1)
   13790:	00f77733          	and	a4,a4,a5
   13794:	02071663          	bne	a4,zero,137c0 <__call_exitprocs+0x128>
   13798:	000b0513          	addi	a0,s6,0
   1379c:	000680e7          	jalr	ra,0(a3)
   137a0:	00492703          	lw	a4,4(s2)
   137a4:	88c1a783          	lw	a5,-1908(gp) # 70744 <__atexit>
   137a8:	fd8706e3          	beq	a4,s8,13774 <__call_exitprocs+0xdc>
   137ac:	f4078ee3          	beq	a5,zero,13708 <__call_exitprocs+0x70>
   137b0:	00078913          	addi	s2,a5,0
   137b4:	f29ff06f          	jal	zero,136dc <__call_exitprocs+0x44>
   137b8:	00892223          	sw	s0,4(s2)
   137bc:	f91ff06f          	jal	zero,1374c <__call_exitprocs+0xb4>
   137c0:	00058513          	addi	a0,a1,0
   137c4:	000680e7          	jalr	ra,0(a3)
   137c8:	fa1ff06f          	jal	zero,13768 <__call_exitprocs+0xd0>

000137cc <atexit>:
   137cc:	00050593          	addi	a1,a0,0
   137d0:	00000693          	addi	a3,zero,0
   137d4:	00000613          	addi	a2,zero,0
   137d8:	00000513          	addi	a0,zero,0
   137dc:	7410406f          	jal	zero,1871c <__register_exitproc>

000137e0 <_malloc_trim_r>:
   137e0:	fe010113          	addi	sp,sp,-32
   137e4:	01212823          	sw	s2,16(sp)
   137e8:	00070937          	lui	s2,0x70
   137ec:	00812c23          	sw	s0,24(sp)
   137f0:	00912a23          	sw	s1,20(sp)
   137f4:	01312623          	sw	s3,12(sp)
   137f8:	00058413          	addi	s0,a1,0
   137fc:	00112e23          	sw	ra,28(sp)
   13800:	00050993          	addi	s3,a0,0
   13804:	14090913          	addi	s2,s2,320 # 70140 <__malloc_av_>
   13808:	46d000ef          	jal	ra,14474 <__malloc_lock>
   1380c:	00892783          	lw	a5,8(s2)
   13810:	00001737          	lui	a4,0x1
   13814:	0047a483          	lw	s1,4(a5)
   13818:	ffc4f493          	andi	s1,s1,-4
   1381c:	7ff48793          	addi	a5,s1,2047
   13820:	7f078793          	addi	a5,a5,2032
   13824:	40878433          	sub	s0,a5,s0
   13828:	00c45413          	srli	s0,s0,0xc
   1382c:	fff40413          	addi	s0,s0,-1
   13830:	00c41413          	slli	s0,s0,0xc
   13834:	00e44e63          	blt	s0,a4,13850 <_malloc_trim_r+0x70>
   13838:	00000593          	addi	a1,zero,0
   1383c:	00098513          	addi	a0,s3,0
   13840:	1c9040ef          	jal	ra,18208 <_sbrk_r>
   13844:	00892783          	lw	a5,8(s2)
   13848:	009787b3          	add	a5,a5,s1
   1384c:	02f50663          	beq	a0,a5,13878 <_malloc_trim_r+0x98>
   13850:	00098513          	addi	a0,s3,0
   13854:	425000ef          	jal	ra,14478 <__malloc_unlock>
   13858:	01c12083          	lw	ra,28(sp)
   1385c:	01812403          	lw	s0,24(sp)
   13860:	01412483          	lw	s1,20(sp)
   13864:	01012903          	lw	s2,16(sp)
   13868:	00c12983          	lw	s3,12(sp)
   1386c:	00000513          	addi	a0,zero,0
   13870:	02010113          	addi	sp,sp,32
   13874:	00008067          	jalr	zero,0(ra)
   13878:	408005b3          	sub	a1,zero,s0
   1387c:	00098513          	addi	a0,s3,0
   13880:	189040ef          	jal	ra,18208 <_sbrk_r>
   13884:	fff00793          	addi	a5,zero,-1
   13888:	04f50663          	beq	a0,a5,138d4 <_malloc_trim_r+0xf4>
   1388c:	00114737          	lui	a4,0x114
   13890:	00892683          	lw	a3,8(s2)
   13894:	1e072783          	lw	a5,480(a4) # 1141e0 <__malloc_current_mallinfo>
   13898:	408484b3          	sub	s1,s1,s0
   1389c:	0014e493          	ori	s1,s1,1
   138a0:	00098513          	addi	a0,s3,0
   138a4:	408787b3          	sub	a5,a5,s0
   138a8:	0096a223          	sw	s1,4(a3)
   138ac:	1ef72023          	sw	a5,480(a4)
   138b0:	3c9000ef          	jal	ra,14478 <__malloc_unlock>
   138b4:	01c12083          	lw	ra,28(sp)
   138b8:	01812403          	lw	s0,24(sp)
   138bc:	01412483          	lw	s1,20(sp)
   138c0:	01012903          	lw	s2,16(sp)
   138c4:	00c12983          	lw	s3,12(sp)
   138c8:	00100513          	addi	a0,zero,1
   138cc:	02010113          	addi	sp,sp,32
   138d0:	00008067          	jalr	zero,0(ra)
   138d4:	00000593          	addi	a1,zero,0
   138d8:	00098513          	addi	a0,s3,0
   138dc:	12d040ef          	jal	ra,18208 <_sbrk_r>
   138e0:	00892703          	lw	a4,8(s2)
   138e4:	00f00693          	addi	a3,zero,15
   138e8:	40e507b3          	sub	a5,a0,a4
   138ec:	f6f6d2e3          	bge	a3,a5,13850 <_malloc_trim_r+0x70>
   138f0:	8781a603          	lw	a2,-1928(gp) # 70730 <__malloc_sbrk_base>
   138f4:	0017e793          	ori	a5,a5,1
   138f8:	001146b7          	lui	a3,0x114
   138fc:	40c50533          	sub	a0,a0,a2
   13900:	00f72223          	sw	a5,4(a4)
   13904:	1ea6a023          	sw	a0,480(a3) # 1141e0 <__malloc_current_mallinfo>
   13908:	f49ff06f          	jal	zero,13850 <_malloc_trim_r+0x70>

0001390c <_free_r>:
   1390c:	12058463          	beq	a1,zero,13a34 <_free_r+0x128>
   13910:	fe010113          	addi	sp,sp,-32
   13914:	00812c23          	sw	s0,24(sp)
   13918:	00b12623          	sw	a1,12(sp)
   1391c:	00050413          	addi	s0,a0,0
   13920:	00112e23          	sw	ra,28(sp)
   13924:	351000ef          	jal	ra,14474 <__malloc_lock>
   13928:	00c12583          	lw	a1,12(sp)
   1392c:	00070837          	lui	a6,0x70
   13930:	14080813          	addi	a6,a6,320 # 70140 <__malloc_av_>
   13934:	ffc5a503          	lw	a0,-4(a1)
   13938:	ff858713          	addi	a4,a1,-8
   1393c:	00882883          	lw	a7,8(a6)
   13940:	ffe57793          	andi	a5,a0,-2
   13944:	00f70633          	add	a2,a4,a5
   13948:	00462683          	lw	a3,4(a2)
   1394c:	00157313          	andi	t1,a0,1
   13950:	ffc6f693          	andi	a3,a3,-4
   13954:	18c88863          	beq	a7,a2,13ae4 <_free_r+0x1d8>
   13958:	00d62223          	sw	a3,4(a2)
   1395c:	00d608b3          	add	a7,a2,a3
   13960:	0048a883          	lw	a7,4(a7)
   13964:	0018f893          	andi	a7,a7,1
   13968:	08031a63          	bne	t1,zero,139fc <_free_r+0xf0>
   1396c:	ff85a303          	lw	t1,-8(a1)
   13970:	000705b7          	lui	a1,0x70
   13974:	14858593          	addi	a1,a1,328 # 70148 <__malloc_av_+0x8>
   13978:	40670733          	sub	a4,a4,t1
   1397c:	00872503          	lw	a0,8(a4)
   13980:	006787b3          	add	a5,a5,t1
   13984:	12b50a63          	beq	a0,a1,13ab8 <_free_r+0x1ac>
   13988:	00c72303          	lw	t1,12(a4)
   1398c:	00652623          	sw	t1,12(a0)
   13990:	00a32423          	sw	a0,8(t1)
   13994:	18088c63          	beq	a7,zero,13b2c <_free_r+0x220>
   13998:	0017e693          	ori	a3,a5,1
   1399c:	00d72223          	sw	a3,4(a4)
   139a0:	00f62023          	sw	a5,0(a2)
   139a4:	1ff00693          	addi	a3,zero,511
   139a8:	0af6e263          	bltu	a3,a5,13a4c <_free_r+0x140>
   139ac:	ff87f693          	andi	a3,a5,-8
   139b0:	00868693          	addi	a3,a3,8
   139b4:	00482583          	lw	a1,4(a6)
   139b8:	00d806b3          	add	a3,a6,a3
   139bc:	0006a603          	lw	a2,0(a3)
   139c0:	0057d513          	srli	a0,a5,0x5
   139c4:	00100793          	addi	a5,zero,1
   139c8:	00a797b3          	sll	a5,a5,a0
   139cc:	00b7e7b3          	or	a5,a5,a1
   139d0:	ff868593          	addi	a1,a3,-8
   139d4:	00c72423          	sw	a2,8(a4)
   139d8:	00b72623          	sw	a1,12(a4)
   139dc:	00f82223          	sw	a5,4(a6)
   139e0:	00e6a023          	sw	a4,0(a3)
   139e4:	00e62623          	sw	a4,12(a2)
   139e8:	00040513          	addi	a0,s0,0
   139ec:	01812403          	lw	s0,24(sp)
   139f0:	01c12083          	lw	ra,28(sp)
   139f4:	02010113          	addi	sp,sp,32
   139f8:	2810006f          	jal	zero,14478 <__malloc_unlock>
   139fc:	02089e63          	bne	a7,zero,13a38 <_free_r+0x12c>
   13a00:	000705b7          	lui	a1,0x70
   13a04:	00d787b3          	add	a5,a5,a3
   13a08:	14858593          	addi	a1,a1,328 # 70148 <__malloc_av_+0x8>
   13a0c:	00862683          	lw	a3,8(a2)
   13a10:	0017e893          	ori	a7,a5,1
   13a14:	00f70533          	add	a0,a4,a5
   13a18:	16b68063          	beq	a3,a1,13b78 <_free_r+0x26c>
   13a1c:	00c62603          	lw	a2,12(a2)
   13a20:	00c6a623          	sw	a2,12(a3)
   13a24:	00d62423          	sw	a3,8(a2)
   13a28:	01172223          	sw	a7,4(a4)
   13a2c:	00f52023          	sw	a5,0(a0)
   13a30:	f75ff06f          	jal	zero,139a4 <_free_r+0x98>
   13a34:	00008067          	jalr	zero,0(ra)
   13a38:	00156513          	ori	a0,a0,1
   13a3c:	fea5ae23          	sw	a0,-4(a1)
   13a40:	00f62023          	sw	a5,0(a2)
   13a44:	1ff00693          	addi	a3,zero,511
   13a48:	f6f6f2e3          	bgeu	a3,a5,139ac <_free_r+0xa0>
   13a4c:	0097d693          	srli	a3,a5,0x9
   13a50:	00400613          	addi	a2,zero,4
   13a54:	0ed66063          	bltu	a2,a3,13b34 <_free_r+0x228>
   13a58:	0067d693          	srli	a3,a5,0x6
   13a5c:	03968593          	addi	a1,a3,57
   13a60:	00359593          	slli	a1,a1,0x3
   13a64:	03868613          	addi	a2,a3,56
   13a68:	00b805b3          	add	a1,a6,a1
   13a6c:	0005a683          	lw	a3,0(a1)
   13a70:	ff858593          	addi	a1,a1,-8
   13a74:	00d59863          	bne	a1,a3,13a84 <_free_r+0x178>
   13a78:	11c0006f          	jal	zero,13b94 <_free_r+0x288>
   13a7c:	0086a683          	lw	a3,8(a3)
   13a80:	00d58863          	beq	a1,a3,13a90 <_free_r+0x184>
   13a84:	0046a603          	lw	a2,4(a3)
   13a88:	ffc67613          	andi	a2,a2,-4
   13a8c:	fec7e8e3          	bltu	a5,a2,13a7c <_free_r+0x170>
   13a90:	00c6a583          	lw	a1,12(a3)
   13a94:	00b72623          	sw	a1,12(a4)
   13a98:	00d72423          	sw	a3,8(a4)
   13a9c:	00040513          	addi	a0,s0,0
   13aa0:	01812403          	lw	s0,24(sp)
   13aa4:	01c12083          	lw	ra,28(sp)
   13aa8:	00e5a423          	sw	a4,8(a1)
   13aac:	00e6a623          	sw	a4,12(a3)
   13ab0:	02010113          	addi	sp,sp,32
   13ab4:	1c50006f          	jal	zero,14478 <__malloc_unlock>
   13ab8:	0a089063          	bne	a7,zero,13b58 <_free_r+0x24c>
   13abc:	00c62583          	lw	a1,12(a2)
   13ac0:	00862603          	lw	a2,8(a2)
   13ac4:	00f686b3          	add	a3,a3,a5
   13ac8:	0016e793          	ori	a5,a3,1
   13acc:	00b62623          	sw	a1,12(a2)
   13ad0:	00c5a423          	sw	a2,8(a1)
   13ad4:	00f72223          	sw	a5,4(a4)
   13ad8:	00d70733          	add	a4,a4,a3
   13adc:	00d72023          	sw	a3,0(a4)
   13ae0:	f09ff06f          	jal	zero,139e8 <_free_r+0xdc>
   13ae4:	00d786b3          	add	a3,a5,a3
   13ae8:	02031063          	bne	t1,zero,13b08 <_free_r+0x1fc>
   13aec:	ff85a783          	lw	a5,-8(a1)
   13af0:	40f70733          	sub	a4,a4,a5
   13af4:	00872603          	lw	a2,8(a4)
   13af8:	00f686b3          	add	a3,a3,a5
   13afc:	00c72783          	lw	a5,12(a4)
   13b00:	00f62623          	sw	a5,12(a2)
   13b04:	00c7a423          	sw	a2,8(a5)
   13b08:	0016e613          	ori	a2,a3,1
   13b0c:	87c1a783          	lw	a5,-1924(gp) # 70734 <__malloc_trim_threshold>
   13b10:	00c72223          	sw	a2,4(a4)
   13b14:	00e82423          	sw	a4,8(a6)
   13b18:	ecf6e8e3          	bltu	a3,a5,139e8 <_free_r+0xdc>
   13b1c:	8981a583          	lw	a1,-1896(gp) # 70750 <__malloc_top_pad>
   13b20:	00040513          	addi	a0,s0,0
   13b24:	cbdff0ef          	jal	ra,137e0 <_malloc_trim_r>
   13b28:	ec1ff06f          	jal	zero,139e8 <_free_r+0xdc>
   13b2c:	00d787b3          	add	a5,a5,a3
   13b30:	eddff06f          	jal	zero,13a0c <_free_r+0x100>
   13b34:	01400613          	addi	a2,zero,20
   13b38:	02d67863          	bgeu	a2,a3,13b68 <_free_r+0x25c>
   13b3c:	05400613          	addi	a2,zero,84
   13b40:	06d66863          	bltu	a2,a3,13bb0 <_free_r+0x2a4>
   13b44:	00c7d693          	srli	a3,a5,0xc
   13b48:	06f68593          	addi	a1,a3,111
   13b4c:	00359593          	slli	a1,a1,0x3
   13b50:	06e68613          	addi	a2,a3,110
   13b54:	f15ff06f          	jal	zero,13a68 <_free_r+0x15c>
   13b58:	0017e693          	ori	a3,a5,1
   13b5c:	00d72223          	sw	a3,4(a4)
   13b60:	00f62023          	sw	a5,0(a2)
   13b64:	e85ff06f          	jal	zero,139e8 <_free_r+0xdc>
   13b68:	05c68593          	addi	a1,a3,92
   13b6c:	00359593          	slli	a1,a1,0x3
   13b70:	05b68613          	addi	a2,a3,91
   13b74:	ef5ff06f          	jal	zero,13a68 <_free_r+0x15c>
   13b78:	00e82a23          	sw	a4,20(a6)
   13b7c:	00e82823          	sw	a4,16(a6)
   13b80:	00b72623          	sw	a1,12(a4)
   13b84:	00b72423          	sw	a1,8(a4)
   13b88:	01172223          	sw	a7,4(a4)
   13b8c:	00f52023          	sw	a5,0(a0)
   13b90:	e59ff06f          	jal	zero,139e8 <_free_r+0xdc>
   13b94:	00482503          	lw	a0,4(a6)
   13b98:	40265613          	srai	a2,a2,0x2
   13b9c:	00100793          	addi	a5,zero,1
   13ba0:	00c797b3          	sll	a5,a5,a2
   13ba4:	00a7e7b3          	or	a5,a5,a0
   13ba8:	00f82223          	sw	a5,4(a6)
   13bac:	ee9ff06f          	jal	zero,13a94 <_free_r+0x188>
   13bb0:	15400613          	addi	a2,zero,340
   13bb4:	00d66c63          	bltu	a2,a3,13bcc <_free_r+0x2c0>
   13bb8:	00f7d693          	srli	a3,a5,0xf
   13bbc:	07868593          	addi	a1,a3,120
   13bc0:	00359593          	slli	a1,a1,0x3
   13bc4:	07768613          	addi	a2,a3,119
   13bc8:	ea1ff06f          	jal	zero,13a68 <_free_r+0x15c>
   13bcc:	55400613          	addi	a2,zero,1364
   13bd0:	00d66c63          	bltu	a2,a3,13be8 <_free_r+0x2dc>
   13bd4:	0127d693          	srli	a3,a5,0x12
   13bd8:	07d68593          	addi	a1,a3,125
   13bdc:	00359593          	slli	a1,a1,0x3
   13be0:	07c68613          	addi	a2,a3,124
   13be4:	e85ff06f          	jal	zero,13a68 <_free_r+0x15c>
   13be8:	3f800593          	addi	a1,zero,1016
   13bec:	07e00613          	addi	a2,zero,126
   13bf0:	e79ff06f          	jal	zero,13a68 <_free_r+0x15c>

00013bf4 <_malloc_r>:
   13bf4:	fc010113          	addi	sp,sp,-64
   13bf8:	02812c23          	sw	s0,56(sp)
   13bfc:	02112e23          	sw	ra,60(sp)
   13c00:	00b58793          	addi	a5,a1,11
   13c04:	01600713          	addi	a4,zero,22
   13c08:	00050413          	addi	s0,a0,0
   13c0c:	08f76e63          	bltu	a4,a5,13ca8 <_malloc_r+0xb4>
   13c10:	01000693          	addi	a3,zero,16
   13c14:	06b6ec63          	bltu	a3,a1,13c8c <_malloc_r+0x98>
   13c18:	05d000ef          	jal	ra,14474 <__malloc_lock>
   13c1c:	01000693          	addi	a3,zero,16
   13c20:	01800713          	addi	a4,zero,24
   13c24:	00200893          	addi	a7,zero,2
   13c28:	00070837          	lui	a6,0x70
   13c2c:	14080813          	addi	a6,a6,320 # 70140 <__malloc_av_>
   13c30:	00e80733          	add	a4,a6,a4
   13c34:	00472783          	lw	a5,4(a4)
   13c38:	ff870613          	addi	a2,a4,-8
   13c3c:	44c78e63          	beq	a5,a2,14098 <_malloc_r+0x4a4>
   13c40:	0047a703          	lw	a4,4(a5)
   13c44:	00c7a603          	lw	a2,12(a5)
   13c48:	0087a583          	lw	a1,8(a5)
   13c4c:	ffc77713          	andi	a4,a4,-4
   13c50:	00e78733          	add	a4,a5,a4
   13c54:	00472683          	lw	a3,4(a4)
   13c58:	00c5a623          	sw	a2,12(a1)
   13c5c:	00f12623          	sw	a5,12(sp)
   13c60:	00b62423          	sw	a1,8(a2)
   13c64:	0016e693          	ori	a3,a3,1
   13c68:	00040513          	addi	a0,s0,0
   13c6c:	00d72223          	sw	a3,4(a4)
   13c70:	009000ef          	jal	ra,14478 <__malloc_unlock>
   13c74:	00c12783          	lw	a5,12(sp)
   13c78:	03c12083          	lw	ra,60(sp)
   13c7c:	03812403          	lw	s0,56(sp)
   13c80:	00878513          	addi	a0,a5,8
   13c84:	04010113          	addi	sp,sp,64
   13c88:	00008067          	jalr	zero,0(ra)
   13c8c:	00c00793          	addi	a5,zero,12
   13c90:	00f42023          	sw	a5,0(s0)
   13c94:	00000513          	addi	a0,zero,0
   13c98:	03c12083          	lw	ra,60(sp)
   13c9c:	03812403          	lw	s0,56(sp)
   13ca0:	04010113          	addi	sp,sp,64
   13ca4:	00008067          	jalr	zero,0(ra)
   13ca8:	ff87f693          	andi	a3,a5,-8
   13cac:	fe07c0e3          	blt	a5,zero,13c8c <_malloc_r+0x98>
   13cb0:	fcb6eee3          	bltu	a3,a1,13c8c <_malloc_r+0x98>
   13cb4:	00d12623          	sw	a3,12(sp)
   13cb8:	7bc000ef          	jal	ra,14474 <__malloc_lock>
   13cbc:	00c12683          	lw	a3,12(sp)
   13cc0:	1f700793          	addi	a5,zero,503
   13cc4:	4cd7f863          	bgeu	a5,a3,14194 <_malloc_r+0x5a0>
   13cc8:	0096d793          	srli	a5,a3,0x9
   13ccc:	16078e63          	beq	a5,zero,13e48 <_malloc_r+0x254>
   13cd0:	00400713          	addi	a4,zero,4
   13cd4:	42f76a63          	bltu	a4,a5,14108 <_malloc_r+0x514>
   13cd8:	0066d793          	srli	a5,a3,0x6
   13cdc:	03978893          	addi	a7,a5,57
   13ce0:	03878e13          	addi	t3,a5,56
   13ce4:	00389513          	slli	a0,a7,0x3
   13ce8:	00070837          	lui	a6,0x70
   13cec:	14080813          	addi	a6,a6,320 # 70140 <__malloc_av_>
   13cf0:	00a80533          	add	a0,a6,a0
   13cf4:	00452783          	lw	a5,4(a0)
   13cf8:	ff850513          	addi	a0,a0,-8
   13cfc:	02f50863          	beq	a0,a5,13d2c <_malloc_r+0x138>
   13d00:	00f00313          	addi	t1,zero,15
   13d04:	0140006f          	jal	zero,13d18 <_malloc_r+0x124>
   13d08:	00c7a583          	lw	a1,12(a5)
   13d0c:	34065663          	bge	a2,zero,14058 <_malloc_r+0x464>
   13d10:	00b50e63          	beq	a0,a1,13d2c <_malloc_r+0x138>
   13d14:	00058793          	addi	a5,a1,0
   13d18:	0047a703          	lw	a4,4(a5)
   13d1c:	ffc77713          	andi	a4,a4,-4
   13d20:	40d70633          	sub	a2,a4,a3
   13d24:	fec352e3          	bge	t1,a2,13d08 <_malloc_r+0x114>
   13d28:	000e0893          	addi	a7,t3,0
   13d2c:	01082783          	lw	a5,16(a6)
   13d30:	00070e37          	lui	t3,0x70
   13d34:	148e0e13          	addi	t3,t3,328 # 70148 <__malloc_av_+0x8>
   13d38:	2dc78e63          	beq	a5,t3,14014 <_malloc_r+0x420>
   13d3c:	0047a703          	lw	a4,4(a5)
   13d40:	00f00593          	addi	a1,zero,15
   13d44:	ffc77713          	andi	a4,a4,-4
   13d48:	40d70633          	sub	a2,a4,a3
   13d4c:	46c5ce63          	blt	a1,a2,141c8 <_malloc_r+0x5d4>
   13d50:	01c82a23          	sw	t3,20(a6)
   13d54:	01c82823          	sw	t3,16(a6)
   13d58:	44065463          	bge	a2,zero,141a0 <_malloc_r+0x5ac>
   13d5c:	1ff00613          	addi	a2,zero,511
   13d60:	00482303          	lw	t1,4(a6)
   13d64:	34e66263          	bltu	a2,a4,140a8 <_malloc_r+0x4b4>
   13d68:	ff877613          	andi	a2,a4,-8
   13d6c:	00860613          	addi	a2,a2,8
   13d70:	00c80633          	add	a2,a6,a2
   13d74:	00062583          	lw	a1,0(a2)
   13d78:	00575513          	srli	a0,a4,0x5
   13d7c:	00100713          	addi	a4,zero,1
   13d80:	00a71733          	sll	a4,a4,a0
   13d84:	00e36333          	or	t1,t1,a4
   13d88:	ff860713          	addi	a4,a2,-8
   13d8c:	00b7a423          	sw	a1,8(a5)
   13d90:	00e7a623          	sw	a4,12(a5)
   13d94:	00682223          	sw	t1,4(a6)
   13d98:	00f62023          	sw	a5,0(a2)
   13d9c:	00f5a623          	sw	a5,12(a1)
   13da0:	4028d793          	srai	a5,a7,0x2
   13da4:	00100513          	addi	a0,zero,1
   13da8:	00f51533          	sll	a0,a0,a5
   13dac:	0aa36663          	bltu	t1,a0,13e58 <_malloc_r+0x264>
   13db0:	006577b3          	and	a5,a0,t1
   13db4:	02079463          	bne	a5,zero,13ddc <_malloc_r+0x1e8>
   13db8:	00151513          	slli	a0,a0,0x1
   13dbc:	ffc8f893          	andi	a7,a7,-4
   13dc0:	006577b3          	and	a5,a0,t1
   13dc4:	00488893          	addi	a7,a7,4
   13dc8:	00079a63          	bne	a5,zero,13ddc <_malloc_r+0x1e8>
   13dcc:	00151513          	slli	a0,a0,0x1
   13dd0:	006577b3          	and	a5,a0,t1
   13dd4:	00488893          	addi	a7,a7,4
   13dd8:	fe078ae3          	beq	a5,zero,13dcc <_malloc_r+0x1d8>
   13ddc:	00f00e93          	addi	t4,zero,15
   13de0:	00389f13          	slli	t5,a7,0x3
   13de4:	01e80f33          	add	t5,a6,t5
   13de8:	000f0313          	addi	t1,t5,0
   13dec:	00c32703          	lw	a4,12(t1)
   13df0:	00088f93          	addi	t6,a7,0
   13df4:	32e30c63          	beq	t1,a4,1412c <_malloc_r+0x538>
   13df8:	00472603          	lw	a2,4(a4)
   13dfc:	00070793          	addi	a5,a4,0
   13e00:	00c72703          	lw	a4,12(a4)
   13e04:	ffc67613          	andi	a2,a2,-4
   13e08:	40d605b3          	sub	a1,a2,a3
   13e0c:	32becc63          	blt	t4,a1,14144 <_malloc_r+0x550>
   13e10:	fe05c2e3          	blt	a1,zero,13df4 <_malloc_r+0x200>
   13e14:	00c78633          	add	a2,a5,a2
   13e18:	00462683          	lw	a3,4(a2)
   13e1c:	0087a583          	lw	a1,8(a5)
   13e20:	00040513          	addi	a0,s0,0
   13e24:	0016e693          	ori	a3,a3,1
   13e28:	00d62223          	sw	a3,4(a2)
   13e2c:	00e5a623          	sw	a4,12(a1)
   13e30:	00b72423          	sw	a1,8(a4)
   13e34:	00f12623          	sw	a5,12(sp)
   13e38:	640000ef          	jal	ra,14478 <__malloc_unlock>
   13e3c:	00c12783          	lw	a5,12(sp)
   13e40:	00878513          	addi	a0,a5,8
   13e44:	e55ff06f          	jal	zero,13c98 <_malloc_r+0xa4>
   13e48:	20000513          	addi	a0,zero,512
   13e4c:	04000893          	addi	a7,zero,64
   13e50:	03f00e13          	addi	t3,zero,63
   13e54:	e95ff06f          	jal	zero,13ce8 <_malloc_r+0xf4>
   13e58:	00882783          	lw	a5,8(a6)
   13e5c:	0047a703          	lw	a4,4(a5)
   13e60:	ffc77713          	andi	a4,a4,-4
   13e64:	40d70633          	sub	a2,a4,a3
   13e68:	00d76663          	bltu	a4,a3,13e74 <_malloc_r+0x280>
   13e6c:	01062593          	slti	a1,a2,16
   13e70:	1a058663          	beq	a1,zero,1401c <_malloc_r+0x428>
   13e74:	8981a583          	lw	a1,-1896(gp) # 70750 <__malloc_top_pad>
   13e78:	8781a503          	lw	a0,-1928(gp) # 70730 <__malloc_sbrk_base>
   13e7c:	fff00613          	addi	a2,zero,-1
   13e80:	00b685b3          	add	a1,a3,a1
   13e84:	42c50663          	beq	a0,a2,142b0 <_malloc_r+0x6bc>
   13e88:	00001637          	lui	a2,0x1
   13e8c:	00f60613          	addi	a2,a2,15 # 100f <exit-0xf0a5>
   13e90:	00c585b3          	add	a1,a1,a2
   13e94:	fffff637          	lui	a2,0xfffff
   13e98:	00c5f5b3          	and	a1,a1,a2
   13e9c:	00040513          	addi	a0,s0,0
   13ea0:	01012e23          	sw	a6,28(sp)
   13ea4:	00f12c23          	sw	a5,24(sp)
   13ea8:	00d12a23          	sw	a3,20(sp)
   13eac:	00e12823          	sw	a4,16(sp)
   13eb0:	00b12623          	sw	a1,12(sp)
   13eb4:	354040ef          	jal	ra,18208 <_sbrk_r>
   13eb8:	fff00613          	addi	a2,zero,-1
   13ebc:	00c12583          	lw	a1,12(sp)
   13ec0:	01012703          	lw	a4,16(sp)
   13ec4:	01412683          	lw	a3,20(sp)
   13ec8:	01812783          	lw	a5,24(sp)
   13ecc:	01c12803          	lw	a6,28(sp)
   13ed0:	00050893          	addi	a7,a0,0
   13ed4:	34c50863          	beq	a0,a2,14224 <_malloc_r+0x630>
   13ed8:	00e78533          	add	a0,a5,a4
   13edc:	34a8e263          	bltu	a7,a0,14220 <_malloc_r+0x62c>
   13ee0:	00114e37          	lui	t3,0x114
   13ee4:	1e0e0e13          	addi	t3,t3,480 # 1141e0 <__malloc_current_mallinfo>
   13ee8:	000e2603          	lw	a2,0(t3)
   13eec:	00c58633          	add	a2,a1,a2
   13ef0:	00ce2023          	sw	a2,0(t3)
   13ef4:	00060e93          	addi	t4,a2,0 # fffff000 <__BSS_END__+0xffeeac68>
   13ef8:	49150863          	beq	a0,a7,14388 <_malloc_r+0x794>
   13efc:	8781af03          	lw	t5,-1928(gp) # 70730 <__malloc_sbrk_base>
   13f00:	fff00613          	addi	a2,zero,-1
   13f04:	4acf0063          	beq	t5,a2,143a4 <_malloc_r+0x7b0>
   13f08:	40a88633          	sub	a2,a7,a0
   13f0c:	01d60633          	add	a2,a2,t4
   13f10:	00ce2023          	sw	a2,0(t3)
   13f14:	0078fe93          	andi	t4,a7,7
   13f18:	3a0e8c63          	beq	t4,zero,142d0 <_malloc_r+0x6dc>
   13f1c:	ff88f893          	andi	a7,a7,-8
   13f20:	00001637          	lui	a2,0x1
   13f24:	00888893          	addi	a7,a7,8
   13f28:	00860613          	addi	a2,a2,8 # 1008 <exit-0xf0ac>
   13f2c:	00b88333          	add	t1,a7,a1
   13f30:	41d60633          	sub	a2,a2,t4
   13f34:	40660633          	sub	a2,a2,t1
   13f38:	01461613          	slli	a2,a2,0x14
   13f3c:	01465593          	srli	a1,a2,0x14
   13f40:	00040513          	addi	a0,s0,0
   13f44:	03012623          	sw	a6,44(sp)
   13f48:	03c12423          	sw	t3,40(sp)
   13f4c:	02f12223          	sw	a5,36(sp)
   13f50:	02d12023          	sw	a3,32(sp)
   13f54:	00e12e23          	sw	a4,28(sp)
   13f58:	01112c23          	sw	a7,24(sp)
   13f5c:	01d12a23          	sw	t4,20(sp)
   13f60:	00612823          	sw	t1,16(sp)
   13f64:	00b12623          	sw	a1,12(sp)
   13f68:	2a0040ef          	jal	ra,18208 <_sbrk_r>
   13f6c:	fff00613          	addi	a2,zero,-1
   13f70:	00c12583          	lw	a1,12(sp)
   13f74:	01012303          	lw	t1,16(sp)
   13f78:	01412e83          	lw	t4,20(sp)
   13f7c:	01812883          	lw	a7,24(sp)
   13f80:	01c12703          	lw	a4,28(sp)
   13f84:	02012683          	lw	a3,32(sp)
   13f88:	02412783          	lw	a5,36(sp)
   13f8c:	02812e03          	lw	t3,40(sp)
   13f90:	02c12803          	lw	a6,44(sp)
   13f94:	44c50e63          	beq	a0,a2,143f0 <_malloc_r+0x7fc>
   13f98:	000e2603          	lw	a2,0(t3)
   13f9c:	41150533          	sub	a0,a0,a7
   13fa0:	00b50533          	add	a0,a0,a1
   13fa4:	00156513          	ori	a0,a0,1
   13fa8:	01182423          	sw	a7,8(a6)
   13fac:	00c58633          	add	a2,a1,a2
   13fb0:	00a8a223          	sw	a0,4(a7)
   13fb4:	00ce2023          	sw	a2,0(t3)
   13fb8:	03078e63          	beq	a5,a6,13ff4 <_malloc_r+0x400>
   13fbc:	00f00513          	addi	a0,zero,15
   13fc0:	3ee57663          	bgeu	a0,a4,143ac <_malloc_r+0x7b8>
   13fc4:	0047a583          	lw	a1,4(a5)
   13fc8:	ff470713          	addi	a4,a4,-12
   13fcc:	ff877713          	andi	a4,a4,-8
   13fd0:	0015f593          	andi	a1,a1,1
   13fd4:	00e5e5b3          	or	a1,a1,a4
   13fd8:	00b7a223          	sw	a1,4(a5)
   13fdc:	00500313          	addi	t1,zero,5
   13fe0:	00e785b3          	add	a1,a5,a4
   13fe4:	0065a223          	sw	t1,4(a1)
   13fe8:	0065a423          	sw	t1,8(a1)
   13fec:	40e56a63          	bltu	a0,a4,14400 <_malloc_r+0x80c>
   13ff0:	0048a503          	lw	a0,4(a7)
   13ff4:	8941a703          	lw	a4,-1900(gp) # 7074c <__malloc_max_sbrked_mem>
   13ff8:	00c77463          	bgeu	a4,a2,14000 <_malloc_r+0x40c>
   13ffc:	88c1aa23          	sw	a2,-1900(gp) # 7074c <__malloc_max_sbrked_mem>
   14000:	8901a703          	lw	a4,-1904(gp) # 70748 <__malloc_max_total_mem>
   14004:	00c77463          	bgeu	a4,a2,1400c <_malloc_r+0x418>
   14008:	88c1a823          	sw	a2,-1904(gp) # 70748 <__malloc_max_total_mem>
   1400c:	00088793          	addi	a5,a7,0
   14010:	21c0006f          	jal	zero,1422c <_malloc_r+0x638>
   14014:	00482303          	lw	t1,4(a6)
   14018:	d89ff06f          	jal	zero,13da0 <_malloc_r+0x1ac>
   1401c:	0016e713          	ori	a4,a3,1
   14020:	00e7a223          	sw	a4,4(a5)
   14024:	00d786b3          	add	a3,a5,a3
   14028:	00166613          	ori	a2,a2,1
   1402c:	00d82423          	sw	a3,8(a6)
   14030:	00040513          	addi	a0,s0,0
   14034:	00c6a223          	sw	a2,4(a3)
   14038:	00f12623          	sw	a5,12(sp)
   1403c:	43c000ef          	jal	ra,14478 <__malloc_unlock>
   14040:	00c12783          	lw	a5,12(sp)
   14044:	03c12083          	lw	ra,60(sp)
   14048:	03812403          	lw	s0,56(sp)
   1404c:	00878513          	addi	a0,a5,8
   14050:	04010113          	addi	sp,sp,64
   14054:	00008067          	jalr	zero,0(ra)
   14058:	0087a603          	lw	a2,8(a5)
   1405c:	00e78733          	add	a4,a5,a4
   14060:	00472683          	lw	a3,4(a4)
   14064:	00b62623          	sw	a1,12(a2)
   14068:	00f12623          	sw	a5,12(sp)
   1406c:	0016e693          	ori	a3,a3,1
   14070:	00c5a423          	sw	a2,8(a1)
   14074:	00040513          	addi	a0,s0,0
   14078:	00d72223          	sw	a3,4(a4)
   1407c:	3fc000ef          	jal	ra,14478 <__malloc_unlock>
   14080:	00c12783          	lw	a5,12(sp)
   14084:	03c12083          	lw	ra,60(sp)
   14088:	03812403          	lw	s0,56(sp)
   1408c:	00878513          	addi	a0,a5,8
   14090:	04010113          	addi	sp,sp,64
   14094:	00008067          	jalr	zero,0(ra)
   14098:	00c72783          	lw	a5,12(a4)
   1409c:	00288893          	addi	a7,a7,2
   140a0:	c8f706e3          	beq	a4,a5,13d2c <_malloc_r+0x138>
   140a4:	b9dff06f          	jal	zero,13c40 <_malloc_r+0x4c>
   140a8:	00975613          	srli	a2,a4,0x9
   140ac:	00400593          	addi	a1,zero,4
   140b0:	14c5fe63          	bgeu	a1,a2,1420c <_malloc_r+0x618>
   140b4:	01400593          	addi	a1,zero,20
   140b8:	28c5e063          	bltu	a1,a2,14338 <_malloc_r+0x744>
   140bc:	05c60513          	addi	a0,a2,92
   140c0:	00351513          	slli	a0,a0,0x3
   140c4:	05b60593          	addi	a1,a2,91
   140c8:	00a80533          	add	a0,a6,a0
   140cc:	00052603          	lw	a2,0(a0)
   140d0:	ff850513          	addi	a0,a0,-8
   140d4:	00c51863          	bne	a0,a2,140e4 <_malloc_r+0x4f0>
   140d8:	1e00006f          	jal	zero,142b8 <_malloc_r+0x6c4>
   140dc:	00862603          	lw	a2,8(a2)
   140e0:	00c50863          	beq	a0,a2,140f0 <_malloc_r+0x4fc>
   140e4:	00462583          	lw	a1,4(a2)
   140e8:	ffc5f593          	andi	a1,a1,-4
   140ec:	feb768e3          	bltu	a4,a1,140dc <_malloc_r+0x4e8>
   140f0:	00c62503          	lw	a0,12(a2)
   140f4:	00a7a623          	sw	a0,12(a5)
   140f8:	00c7a423          	sw	a2,8(a5)
   140fc:	00f52423          	sw	a5,8(a0)
   14100:	00f62623          	sw	a5,12(a2)
   14104:	c9dff06f          	jal	zero,13da0 <_malloc_r+0x1ac>
   14108:	01400713          	addi	a4,zero,20
   1410c:	14f77063          	bgeu	a4,a5,1424c <_malloc_r+0x658>
   14110:	05400713          	addi	a4,zero,84
   14114:	24f76063          	bltu	a4,a5,14354 <_malloc_r+0x760>
   14118:	00c6d793          	srli	a5,a3,0xc
   1411c:	06f78893          	addi	a7,a5,111
   14120:	06e78e13          	addi	t3,a5,110
   14124:	00389513          	slli	a0,a7,0x3
   14128:	bc1ff06f          	jal	zero,13ce8 <_malloc_r+0xf4>
   1412c:	001f8f93          	addi	t6,t6,1
   14130:	003ff793          	andi	a5,t6,3
   14134:	00830313          	addi	t1,t1,8
   14138:	12078863          	beq	a5,zero,14268 <_malloc_r+0x674>
   1413c:	00c32703          	lw	a4,12(t1)
   14140:	cb5ff06f          	jal	zero,13df4 <_malloc_r+0x200>
   14144:	0087a503          	lw	a0,8(a5)
   14148:	0016e893          	ori	a7,a3,1
   1414c:	0117a223          	sw	a7,4(a5)
   14150:	00e52623          	sw	a4,12(a0)
   14154:	00a72423          	sw	a0,8(a4)
   14158:	00d786b3          	add	a3,a5,a3
   1415c:	00d82a23          	sw	a3,20(a6)
   14160:	00d82823          	sw	a3,16(a6)
   14164:	0015e713          	ori	a4,a1,1
   14168:	00c78633          	add	a2,a5,a2
   1416c:	01c6a623          	sw	t3,12(a3)
   14170:	01c6a423          	sw	t3,8(a3)
   14174:	00e6a223          	sw	a4,4(a3)
   14178:	00040513          	addi	a0,s0,0
   1417c:	00b62023          	sw	a1,0(a2)
   14180:	00f12623          	sw	a5,12(sp)
   14184:	2f4000ef          	jal	ra,14478 <__malloc_unlock>
   14188:	00c12783          	lw	a5,12(sp)
   1418c:	00878513          	addi	a0,a5,8
   14190:	b09ff06f          	jal	zero,13c98 <_malloc_r+0xa4>
   14194:	0036d893          	srli	a7,a3,0x3
   14198:	00868713          	addi	a4,a3,8
   1419c:	a8dff06f          	jal	zero,13c28 <_malloc_r+0x34>
   141a0:	00e78733          	add	a4,a5,a4
   141a4:	00472683          	lw	a3,4(a4)
   141a8:	00f12623          	sw	a5,12(sp)
   141ac:	00040513          	addi	a0,s0,0
   141b0:	0016e693          	ori	a3,a3,1
   141b4:	00d72223          	sw	a3,4(a4)
   141b8:	2c0000ef          	jal	ra,14478 <__malloc_unlock>
   141bc:	00c12783          	lw	a5,12(sp)
   141c0:	00878513          	addi	a0,a5,8
   141c4:	ad5ff06f          	jal	zero,13c98 <_malloc_r+0xa4>
   141c8:	0016e593          	ori	a1,a3,1
   141cc:	00b7a223          	sw	a1,4(a5)
   141d0:	00d786b3          	add	a3,a5,a3
   141d4:	00d82a23          	sw	a3,20(a6)
   141d8:	00d82823          	sw	a3,16(a6)
   141dc:	00166593          	ori	a1,a2,1
   141e0:	00e78733          	add	a4,a5,a4
   141e4:	01c6a623          	sw	t3,12(a3)
   141e8:	01c6a423          	sw	t3,8(a3)
   141ec:	00b6a223          	sw	a1,4(a3)
   141f0:	00040513          	addi	a0,s0,0
   141f4:	00c72023          	sw	a2,0(a4)
   141f8:	00f12623          	sw	a5,12(sp)
   141fc:	27c000ef          	jal	ra,14478 <__malloc_unlock>
   14200:	00c12783          	lw	a5,12(sp)
   14204:	00878513          	addi	a0,a5,8
   14208:	a91ff06f          	jal	zero,13c98 <_malloc_r+0xa4>
   1420c:	00675613          	srli	a2,a4,0x6
   14210:	03960513          	addi	a0,a2,57
   14214:	00351513          	slli	a0,a0,0x3
   14218:	03860593          	addi	a1,a2,56
   1421c:	eadff06f          	jal	zero,140c8 <_malloc_r+0x4d4>
   14220:	15078863          	beq	a5,a6,14370 <_malloc_r+0x77c>
   14224:	00882783          	lw	a5,8(a6)
   14228:	0047a503          	lw	a0,4(a5)
   1422c:	ffc57513          	andi	a0,a0,-4
   14230:	40d50633          	sub	a2,a0,a3
   14234:	00d56663          	bltu	a0,a3,14240 <_malloc_r+0x64c>
   14238:	01062713          	slti	a4,a2,16
   1423c:	de0700e3          	beq	a4,zero,1401c <_malloc_r+0x428>
   14240:	00040513          	addi	a0,s0,0
   14244:	234000ef          	jal	ra,14478 <__malloc_unlock>
   14248:	a4dff06f          	jal	zero,13c94 <_malloc_r+0xa0>
   1424c:	05c78893          	addi	a7,a5,92
   14250:	05b78e13          	addi	t3,a5,91
   14254:	00389513          	slli	a0,a7,0x3
   14258:	a91ff06f          	jal	zero,13ce8 <_malloc_r+0xf4>
   1425c:	008f2783          	lw	a5,8(t5)
   14260:	fff88893          	addi	a7,a7,-1
   14264:	21e79463          	bne	a5,t5,1446c <_malloc_r+0x878>
   14268:	0038f793          	andi	a5,a7,3
   1426c:	ff8f0f13          	addi	t5,t5,-8
   14270:	fe0796e3          	bne	a5,zero,1425c <_malloc_r+0x668>
   14274:	00482703          	lw	a4,4(a6)
   14278:	fff54793          	xori	a5,a0,-1
   1427c:	00e7f7b3          	and	a5,a5,a4
   14280:	00f82223          	sw	a5,4(a6)
   14284:	00151513          	slli	a0,a0,0x1
   14288:	fff50713          	addi	a4,a0,-1
   1428c:	bcf776e3          	bgeu	a4,a5,13e58 <_malloc_r+0x264>
   14290:	00f57733          	and	a4,a0,a5
   14294:	00071a63          	bne	a4,zero,142a8 <_malloc_r+0x6b4>
   14298:	00151513          	slli	a0,a0,0x1
   1429c:	00f57733          	and	a4,a0,a5
   142a0:	004f8f93          	addi	t6,t6,4
   142a4:	fe070ae3          	beq	a4,zero,14298 <_malloc_r+0x6a4>
   142a8:	000f8893          	addi	a7,t6,0
   142ac:	b35ff06f          	jal	zero,13de0 <_malloc_r+0x1ec>
   142b0:	01058593          	addi	a1,a1,16
   142b4:	be9ff06f          	jal	zero,13e9c <_malloc_r+0x2a8>
   142b8:	4025d593          	srai	a1,a1,0x2
   142bc:	00100713          	addi	a4,zero,1
   142c0:	00b71733          	sll	a4,a4,a1
   142c4:	00e36333          	or	t1,t1,a4
   142c8:	00682223          	sw	t1,4(a6)
   142cc:	e29ff06f          	jal	zero,140f4 <_malloc_r+0x500>
   142d0:	00b88333          	add	t1,a7,a1
   142d4:	40600633          	sub	a2,zero,t1
   142d8:	01461613          	slli	a2,a2,0x14
   142dc:	01465593          	srli	a1,a2,0x14
   142e0:	00040513          	addi	a0,s0,0
   142e4:	03012423          	sw	a6,40(sp)
   142e8:	03c12223          	sw	t3,36(sp)
   142ec:	02f12023          	sw	a5,32(sp)
   142f0:	00d12e23          	sw	a3,28(sp)
   142f4:	00e12c23          	sw	a4,24(sp)
   142f8:	01112a23          	sw	a7,20(sp)
   142fc:	00b12623          	sw	a1,12(sp)
   14300:	00612823          	sw	t1,16(sp)
   14304:	705030ef          	jal	ra,18208 <_sbrk_r>
   14308:	fff00613          	addi	a2,zero,-1
   1430c:	00c12583          	lw	a1,12(sp)
   14310:	01412883          	lw	a7,20(sp)
   14314:	01812703          	lw	a4,24(sp)
   14318:	01c12683          	lw	a3,28(sp)
   1431c:	02012783          	lw	a5,32(sp)
   14320:	02412e03          	lw	t3,36(sp)
   14324:	02812803          	lw	a6,40(sp)
   14328:	c6c518e3          	bne	a0,a2,13f98 <_malloc_r+0x3a4>
   1432c:	01012503          	lw	a0,16(sp)
   14330:	00000593          	addi	a1,zero,0
   14334:	c65ff06f          	jal	zero,13f98 <_malloc_r+0x3a4>
   14338:	05400593          	addi	a1,zero,84
   1433c:	06c5ee63          	bltu	a1,a2,143b8 <_malloc_r+0x7c4>
   14340:	00c75613          	srli	a2,a4,0xc
   14344:	06f60513          	addi	a0,a2,111
   14348:	00351513          	slli	a0,a0,0x3
   1434c:	06e60593          	addi	a1,a2,110
   14350:	d79ff06f          	jal	zero,140c8 <_malloc_r+0x4d4>
   14354:	15400713          	addi	a4,zero,340
   14358:	06f76e63          	bltu	a4,a5,143d4 <_malloc_r+0x7e0>
   1435c:	00f6d793          	srli	a5,a3,0xf
   14360:	07878893          	addi	a7,a5,120
   14364:	07778e13          	addi	t3,a5,119
   14368:	00389513          	slli	a0,a7,0x3
   1436c:	97dff06f          	jal	zero,13ce8 <_malloc_r+0xf4>
   14370:	00114e37          	lui	t3,0x114
   14374:	1e0e0e13          	addi	t3,t3,480 # 1141e0 <__malloc_current_mallinfo>
   14378:	000e2e83          	lw	t4,0(t3)
   1437c:	01d58eb3          	add	t4,a1,t4
   14380:	01de2023          	sw	t4,0(t3)
   14384:	b79ff06f          	jal	zero,13efc <_malloc_r+0x308>
   14388:	01489f13          	slli	t5,a7,0x14
   1438c:	b60f18e3          	bne	t5,zero,13efc <_malloc_r+0x308>
   14390:	00882883          	lw	a7,8(a6)
   14394:	00b705b3          	add	a1,a4,a1
   14398:	0015e513          	ori	a0,a1,1
   1439c:	00a8a223          	sw	a0,4(a7)
   143a0:	c55ff06f          	jal	zero,13ff4 <_malloc_r+0x400>
   143a4:	8711ac23          	sw	a7,-1928(gp) # 70730 <__malloc_sbrk_base>
   143a8:	b6dff06f          	jal	zero,13f14 <_malloc_r+0x320>
   143ac:	00100793          	addi	a5,zero,1
   143b0:	00f8a223          	sw	a5,4(a7)
   143b4:	e8dff06f          	jal	zero,14240 <_malloc_r+0x64c>
   143b8:	15400593          	addi	a1,zero,340
   143bc:	06c5ec63          	bltu	a1,a2,14434 <_malloc_r+0x840>
   143c0:	00f75613          	srli	a2,a4,0xf
   143c4:	07860513          	addi	a0,a2,120
   143c8:	00351513          	slli	a0,a0,0x3
   143cc:	07760593          	addi	a1,a2,119
   143d0:	cf9ff06f          	jal	zero,140c8 <_malloc_r+0x4d4>
   143d4:	55400713          	addi	a4,zero,1364
   143d8:	06f76c63          	bltu	a4,a5,14450 <_malloc_r+0x85c>
   143dc:	0126d793          	srli	a5,a3,0x12
   143e0:	07d78893          	addi	a7,a5,125
   143e4:	07c78e13          	addi	t3,a5,124
   143e8:	00389513          	slli	a0,a7,0x3
   143ec:	8fdff06f          	jal	zero,13ce8 <_malloc_r+0xf4>
   143f0:	ff8e8e93          	addi	t4,t4,-8
   143f4:	01d30533          	add	a0,t1,t4
   143f8:	00000593          	addi	a1,zero,0
   143fc:	b9dff06f          	jal	zero,13f98 <_malloc_r+0x3a4>
   14400:	00040513          	addi	a0,s0,0
   14404:	00878593          	addi	a1,a5,8
   14408:	01012a23          	sw	a6,20(sp)
   1440c:	01c12823          	sw	t3,16(sp)
   14410:	00d12623          	sw	a3,12(sp)
   14414:	cf8ff0ef          	jal	ra,1390c <_free_r>
   14418:	01412803          	lw	a6,20(sp)
   1441c:	01012e03          	lw	t3,16(sp)
   14420:	00c12683          	lw	a3,12(sp)
   14424:	00882883          	lw	a7,8(a6)
   14428:	000e2603          	lw	a2,0(t3)
   1442c:	0048a503          	lw	a0,4(a7)
   14430:	bc5ff06f          	jal	zero,13ff4 <_malloc_r+0x400>
   14434:	55400593          	addi	a1,zero,1364
   14438:	02c5e463          	bltu	a1,a2,14460 <_malloc_r+0x86c>
   1443c:	01275613          	srli	a2,a4,0x12
   14440:	07d60513          	addi	a0,a2,125
   14444:	00351513          	slli	a0,a0,0x3
   14448:	07c60593          	addi	a1,a2,124
   1444c:	c7dff06f          	jal	zero,140c8 <_malloc_r+0x4d4>
   14450:	3f800513          	addi	a0,zero,1016
   14454:	07f00893          	addi	a7,zero,127
   14458:	07e00e13          	addi	t3,zero,126
   1445c:	88dff06f          	jal	zero,13ce8 <_malloc_r+0xf4>
   14460:	3f800513          	addi	a0,zero,1016
   14464:	07e00593          	addi	a1,zero,126
   14468:	c61ff06f          	jal	zero,140c8 <_malloc_r+0x4d4>
   1446c:	00482783          	lw	a5,4(a6)
   14470:	e15ff06f          	jal	zero,14284 <_malloc_r+0x690>

00014474 <__malloc_lock>:
   14474:	00008067          	jalr	zero,0(ra)

00014478 <__malloc_unlock>:
   14478:	00008067          	jalr	zero,0(ra)

0001447c <_vfprintf_r>:
   1447c:	e4010113          	addi	sp,sp,-448
   14480:	1a112e23          	sw	ra,444(sp)
   14484:	1a912a23          	sw	s1,436(sp)
   14488:	1b212823          	sw	s2,432(sp)
   1448c:	19a12823          	sw	s10,400(sp)
   14490:	00d12623          	sw	a3,12(sp)
   14494:	00060d13          	addi	s10,a2,0
   14498:	00058493          	addi	s1,a1,0
   1449c:	00050913          	addi	s2,a0,0
   144a0:	551030ef          	jal	ra,181f0 <_localeconv_r>
   144a4:	00052783          	lw	a5,0(a0)
   144a8:	00078513          	addi	a0,a5,0
   144ac:	02f12423          	sw	a5,40(sp)
   144b0:	060040ef          	jal	ra,18510 <strlen>
   144b4:	02a12223          	sw	a0,36(sp)
   144b8:	0c012023          	sw	zero,192(sp)
   144bc:	00090863          	beq	s2,zero,144cc <_vfprintf_r+0x50>
   144c0:	03492783          	lw	a5,52(s2)
   144c4:	00079463          	bne	a5,zero,144cc <_vfprintf_r+0x50>
   144c8:	5c90106f          	jal	zero,16290 <_vfprintf_r+0x1e14>
   144cc:	00c49783          	lh	a5,12(s1)
   144d0:	0644a703          	lw	a4,100(s1)
   144d4:	00002637          	lui	a2,0x2
   144d8:	01279693          	slli	a3,a5,0x12
   144dc:	3606c463          	blt	a3,zero,14844 <_vfprintf_r+0x3c8>
   144e0:	ffffe6b7          	lui	a3,0xffffe
   144e4:	00c7e7b3          	or	a5,a5,a2
   144e8:	fff68693          	addi	a3,a3,-1 # ffffdfff <__BSS_END__+0xffee9c67>
   144ec:	00d77733          	and	a4,a4,a3
   144f0:	00f49623          	sh	a5,12(s1)
   144f4:	01079793          	slli	a5,a5,0x10
   144f8:	4107d793          	srai	a5,a5,0x10
   144fc:	06e4a223          	sw	a4,100(s1)
   14500:	0087f713          	andi	a4,a5,8
   14504:	2c070463          	beq	a4,zero,147cc <_vfprintf_r+0x350>
   14508:	0104a703          	lw	a4,16(s1)
   1450c:	2c070063          	beq	a4,zero,147cc <_vfprintf_r+0x350>
   14510:	01a7f793          	andi	a5,a5,26
   14514:	00a00713          	addi	a4,zero,10
   14518:	2ce78a63          	beq	a5,a4,147ec <_vfprintf_r+0x370>
   1451c:	000707b7          	lui	a5,0x70
   14520:	1b312623          	sw	s3,428(sp)
   14524:	1b412423          	sw	s4,424(sp)
   14528:	0dc10993          	addi	s3,sp,220
   1452c:	00070a37          	lui	s4,0x70
   14530:	93078793          	addi	a5,a5,-1744 # 6f930 <input_small_data+0x4c214>
   14534:	1a812c23          	sw	s0,440(sp)
   14538:	1b612023          	sw	s6,416(sp)
   1453c:	1b512223          	sw	s5,420(sp)
   14540:	19712e23          	sw	s7,412(sp)
   14544:	19812c23          	sw	s8,408(sp)
   14548:	19912a23          	sw	s9,404(sp)
   1454c:	19b12623          	sw	s11,396(sp)
   14550:	0a012e23          	sw	zero,188(sp)
   14554:	0a012c23          	sw	zero,184(sp)
   14558:	0b312a23          	sw	s3,180(sp)
   1455c:	00098b13          	addi	s6,s3,0
   14560:	00f12a23          	sw	a5,20(sp)
   14564:	a9ca0a13          	addi	s4,s4,-1380 # 6fa9c <zeroes.0>
   14568:	00012c23          	sw	zero,24(sp)
   1456c:	02012623          	sw	zero,44(sp)
   14570:	02012823          	sw	zero,48(sp)
   14574:	04012223          	sw	zero,68(sp)
   14578:	02012a23          	sw	zero,52(sp)
   1457c:	00012423          	sw	zero,8(sp)
   14580:	01000413          	addi	s0,zero,16
   14584:	00912223          	sw	s1,4(sp)
   14588:	000d4783          	lbu	a5,0(s10)
   1458c:	000d0a93          	addi	s5,s10,0
   14590:	fdb78713          	addi	a4,a5,-37
   14594:	06070263          	beq	a4,zero,145f8 <_vfprintf_r+0x17c>
   14598:	06078063          	beq	a5,zero,145f8 <_vfprintf_r+0x17c>
   1459c:	000a8c13          	addi	s8,s5,0
   145a0:	001ac783          	lbu	a5,1(s5)
   145a4:	001a8a93          	addi	s5,s5,1
   145a8:	00078663          	beq	a5,zero,145b4 <_vfprintf_r+0x138>
   145ac:	fdb78713          	addi	a4,a5,-37
   145b0:	fe0716e3          	bne	a4,zero,1459c <_vfprintf_r+0x120>
   145b4:	41aa8cb3          	sub	s9,s5,s10
   145b8:	05aa8063          	beq	s5,s10,145f8 <_vfprintf_r+0x17c>
   145bc:	0bc12783          	lw	a5,188(sp)
   145c0:	0b812503          	lw	a0,184(sp)
   145c4:	01ab2023          	sw	s10,0(s6)
   145c8:	019787b3          	add	a5,a5,s9
   145cc:	00150513          	addi	a0,a0,1
   145d0:	019b2223          	sw	s9,4(s6)
   145d4:	0af12e23          	sw	a5,188(sp)
   145d8:	0aa12c23          	sw	a0,184(sp)
   145dc:	00700793          	addi	a5,zero,7
   145e0:	008b0b13          	addi	s6,s6,8
   145e4:	24a7c063          	blt	a5,a0,14824 <_vfprintf_r+0x3a8>
   145e8:	00812783          	lw	a5,8(sp)
   145ec:	019787b3          	add	a5,a5,s9
   145f0:	00f12423          	sw	a5,8(sp)
   145f4:	001c4783          	lbu	a5,1(s8)
   145f8:	00079463          	bne	a5,zero,14600 <_vfprintf_r+0x184>
   145fc:	5cd0106f          	jal	zero,163c8 <_vfprintf_r+0x1f4c>
   14600:	001ac883          	lbu	a7,1(s5)
   14604:	001a8d13          	addi	s10,s5,1
   14608:	080109a3          	sb	zero,147(sp)
   1460c:	fff00a93          	addi	s5,zero,-1
   14610:	00012023          	sw	zero,0(sp)
   14614:	00000b93          	addi	s7,zero,0
   14618:	05a00c13          	addi	s8,zero,90
   1461c:	001d0d13          	addi	s10,s10,1
   14620:	fe088793          	addi	a5,a7,-32
   14624:	04fc6c63          	bltu	s8,a5,1467c <_vfprintf_r+0x200>
   14628:	01412703          	lw	a4,20(sp)
   1462c:	00279793          	slli	a5,a5,0x2
   14630:	00e787b3          	add	a5,a5,a4
   14634:	0007a783          	lw	a5,0(a5)
   14638:	00078067          	jalr	zero,0(a5)
   1463c:	fd088793          	addi	a5,a7,-48
   14640:	00012023          	sw	zero,0(sp)
   14644:	00900693          	addi	a3,zero,9
   14648:	00012703          	lw	a4,0(sp)
   1464c:	00012603          	lw	a2,0(sp)
   14650:	000d4883          	lbu	a7,0(s10)
   14654:	00271713          	slli	a4,a4,0x2
   14658:	00c70733          	add	a4,a4,a2
   1465c:	00171713          	slli	a4,a4,0x1
   14660:	00e787b3          	add	a5,a5,a4
   14664:	00f12023          	sw	a5,0(sp)
   14668:	fd088793          	addi	a5,a7,-48
   1466c:	001d0d13          	addi	s10,s10,1
   14670:	fcf6fce3          	bgeu	a3,a5,14648 <_vfprintf_r+0x1cc>
   14674:	fe088793          	addi	a5,a7,-32
   14678:	fafc78e3          	bgeu	s8,a5,14628 <_vfprintf_r+0x1ac>
   1467c:	00089463          	bne	a7,zero,14684 <_vfprintf_r+0x208>
   14680:	5490106f          	jal	zero,163c8 <_vfprintf_r+0x1f4c>
   14684:	00100c93          	addi	s9,zero,1
   14688:	11110e23          	sb	a7,284(sp)
   1468c:	080109a3          	sb	zero,147(sp)
   14690:	000c8c13          	addi	s8,s9,0
   14694:	00012823          	sw	zero,16(sp)
   14698:	00000a93          	addi	s5,zero,0
   1469c:	02012023          	sw	zero,32(sp)
   146a0:	00012e23          	sw	zero,28(sp)
   146a4:	00000313          	addi	t1,zero,0
   146a8:	11c10793          	addi	a5,sp,284
   146ac:	0bc12603          	lw	a2,188(sp)
   146b0:	084bfd93          	andi	s11,s7,132
   146b4:	00060813          	addi	a6,a2,0 # 2000 <exit-0xe0b4>
   146b8:	7e0d8663          	beq	s11,zero,14ea4 <_vfprintf_r+0xa28>
   146bc:	09314703          	lbu	a4,147(sp)
   146c0:	06070863          	beq	a4,zero,14730 <_vfprintf_r+0x2b4>
   146c4:	0b812583          	lw	a1,184(sp)
   146c8:	00000713          	addi	a4,zero,0
   146cc:	09310513          	addi	a0,sp,147
   146d0:	00ab2023          	sw	a0,0(s6)
   146d4:	00160613          	addi	a2,a2,1
   146d8:	00100513          	addi	a0,zero,1
   146dc:	00158593          	addi	a1,a1,1
   146e0:	00ab2223          	sw	a0,4(s6)
   146e4:	0ac12e23          	sw	a2,188(sp)
   146e8:	0ab12c23          	sw	a1,184(sp)
   146ec:	00700513          	addi	a0,zero,7
   146f0:	008b0b13          	addi	s6,s6,8
   146f4:	58b54e63          	blt	a0,a1,14c90 <_vfprintf_r+0x814>
   146f8:	02070c63          	beq	a4,zero,14730 <_vfprintf_r+0x2b4>
   146fc:	0b812583          	lw	a1,184(sp)
   14700:	09410713          	addi	a4,sp,148
   14704:	00eb2023          	sw	a4,0(s6)
   14708:	00260613          	addi	a2,a2,2
   1470c:	00200713          	addi	a4,zero,2
   14710:	00158593          	addi	a1,a1,1
   14714:	00eb2223          	sw	a4,4(s6)
   14718:	0ac12e23          	sw	a2,188(sp)
   1471c:	0ab12c23          	sw	a1,184(sp)
   14720:	00700713          	addi	a4,zero,7
   14724:	008b0b13          	addi	s6,s6,8
   14728:	00b75463          	bge	a4,a1,14730 <_vfprintf_r+0x2b4>
   1472c:	1b40106f          	jal	zero,158e0 <_vfprintf_r+0x1464>
   14730:	08000713          	addi	a4,zero,128
   14734:	00ed9463          	bne	s11,a4,1473c <_vfprintf_r+0x2c0>
   14738:	7d10006f          	jal	zero,15708 <_vfprintf_r+0x128c>
   1473c:	419a8ab3          	sub	s5,s5,s9
   14740:	79504063          	blt	zero,s5,14ec0 <_vfprintf_r+0xa44>
   14744:	100bf713          	andi	a4,s7,256
   14748:	060718e3          	bne	a4,zero,14fb8 <_vfprintf_r+0xb3c>
   1474c:	00fb2023          	sw	a5,0(s6)
   14750:	0b812783          	lw	a5,184(sp)
   14754:	01960633          	add	a2,a2,s9
   14758:	0ac12e23          	sw	a2,188(sp)
   1475c:	00178793          	addi	a5,a5,1
   14760:	019b2223          	sw	s9,4(s6)
   14764:	00700713          	addi	a4,zero,7
   14768:	0af12c23          	sw	a5,184(sp)
   1476c:	68f74263          	blt	a4,a5,14df0 <_vfprintf_r+0x974>
   14770:	008b0b13          	addi	s6,s6,8
   14774:	004bfe13          	andi	t3,s7,4
   14778:	000e0a63          	beq	t3,zero,1478c <_vfprintf_r+0x310>
   1477c:	00012783          	lw	a5,0(sp)
   14780:	41878ab3          	sub	s5,a5,s8
   14784:	01505463          	bge	zero,s5,1478c <_vfprintf_r+0x310>
   14788:	1900106f          	jal	zero,15918 <_vfprintf_r+0x149c>
   1478c:	00012303          	lw	t1,0(sp)
   14790:	01835463          	bge	t1,s8,14798 <_vfprintf_r+0x31c>
   14794:	000c0313          	addi	t1,s8,0
   14798:	00812783          	lw	a5,8(sp)
   1479c:	006787b3          	add	a5,a5,t1
   147a0:	00f12423          	sw	a5,8(sp)
   147a4:	00060463          	beq	a2,zero,147ac <_vfprintf_r+0x330>
   147a8:	0940106f          	jal	zero,1583c <_vfprintf_r+0x13c0>
   147ac:	01012783          	lw	a5,16(sp)
   147b0:	0a012c23          	sw	zero,184(sp)
   147b4:	00078863          	beq	a5,zero,147c4 <_vfprintf_r+0x348>
   147b8:	01012583          	lw	a1,16(sp)
   147bc:	00090513          	addi	a0,s2,0
   147c0:	94cff0ef          	jal	ra,1390c <_free_r>
   147c4:	00098b13          	addi	s6,s3,0
   147c8:	dc1ff06f          	jal	zero,14588 <_vfprintf_r+0x10c>
   147cc:	00048593          	addi	a1,s1,0
   147d0:	00090513          	addi	a0,s2,0
   147d4:	764030ef          	jal	ra,17f38 <__swsetup_r>
   147d8:	06051a63          	bne	a0,zero,1484c <_vfprintf_r+0x3d0>
   147dc:	00c49783          	lh	a5,12(s1)
   147e0:	00a00713          	addi	a4,zero,10
   147e4:	01a7f793          	andi	a5,a5,26
   147e8:	d2e79ae3          	bne	a5,a4,1451c <_vfprintf_r+0xa0>
   147ec:	00e49783          	lh	a5,14(s1)
   147f0:	d207c6e3          	blt	a5,zero,1451c <_vfprintf_r+0xa0>
   147f4:	00c12683          	lw	a3,12(sp)
   147f8:	000d0613          	addi	a2,s10,0
   147fc:	00048593          	addi	a1,s1,0
   14800:	00090513          	addi	a0,s2,0
   14804:	515020ef          	jal	ra,17518 <__sbprintf>
   14808:	00a12423          	sw	a0,8(sp)
   1480c:	0900106f          	jal	zero,1589c <_vfprintf_r+0x1420>
   14810:	000d4883          	lbu	a7,0(s10)
   14814:	e09ff06f          	jal	zero,1461c <_vfprintf_r+0x1a0>
   14818:	000d4883          	lbu	a7,0(s10)
   1481c:	020beb93          	ori	s7,s7,32
   14820:	dfdff06f          	jal	zero,1461c <_vfprintf_r+0x1a0>
   14824:	00412583          	lw	a1,4(sp)
   14828:	0b410613          	addi	a2,sp,180
   1482c:	00090513          	addi	a0,s2,0
   14830:	5a9020ef          	jal	ra,175d8 <__sprint_r>
   14834:	00050463          	beq	a0,zero,1483c <_vfprintf_r+0x3c0>
   14838:	1b50206f          	jal	zero,171ec <_vfprintf_r+0x2d70>
   1483c:	00098b13          	addi	s6,s3,0
   14840:	da9ff06f          	jal	zero,145e8 <_vfprintf_r+0x16c>
   14844:	01271693          	slli	a3,a4,0x12
   14848:	ca06dce3          	bge	a3,zero,14500 <_vfprintf_r+0x84>
   1484c:	fff00793          	addi	a5,zero,-1
   14850:	00f12423          	sw	a5,8(sp)
   14854:	0480106f          	jal	zero,1589c <_vfprintf_r+0x1420>
   14858:	008bf793          	andi	a5,s7,8
   1485c:	00078463          	beq	a5,zero,14864 <_vfprintf_r+0x3e8>
   14860:	5bc0106f          	jal	zero,15e1c <_vfprintf_r+0x19a0>
   14864:	00c12783          	lw	a5,12(sp)
   14868:	08010513          	addi	a0,sp,128
   1486c:	01112823          	sw	a7,16(sp)
   14870:	00778793          	addi	a5,a5,7
   14874:	ff87f793          	andi	a5,a5,-8
   14878:	0047a603          	lw	a2,4(a5)
   1487c:	0007a583          	lw	a1,0(a5)
   14880:	00878793          	addi	a5,a5,8
   14884:	00f12623          	sw	a5,12(sp)
   14888:	0890e0ef          	jal	ra,23110 <__extenddftf2>
   1488c:	08012603          	lw	a2,128(sp)
   14890:	08412683          	lw	a3,132(sp)
   14894:	08812703          	lw	a4,136(sp)
   14898:	08c12783          	lw	a5,140(sp)
   1489c:	01012883          	lw	a7,16(sp)
   148a0:	0c010513          	addi	a0,sp,192
   148a4:	01112823          	sw	a7,16(sp)
   148a8:	0cf12623          	sw	a5,204(sp)
   148ac:	0cc12023          	sw	a2,192(sp)
   148b0:	0cd12223          	sw	a3,196(sp)
   148b4:	0ce12423          	sw	a4,200(sp)
   148b8:	188040ef          	jal	ra,18a40 <_ldcheck>
   148bc:	08a12c23          	sw	a0,152(sp)
   148c0:	00200793          	addi	a5,zero,2
   148c4:	01012883          	lw	a7,16(sp)
   148c8:	00f51463          	bne	a0,a5,148d0 <_vfprintf_r+0x454>
   148cc:	25d0106f          	jal	zero,16328 <_vfprintf_r+0x1eac>
   148d0:	00100793          	addi	a5,zero,1
   148d4:	00f51463          	bne	a0,a5,148dc <_vfprintf_r+0x460>
   148d8:	4110106f          	jal	zero,164e8 <_vfprintf_r+0x206c>
   148dc:	fdf8fc13          	andi	s8,a7,-33
   148e0:	04100793          	addi	a5,zero,65
   148e4:	00fc0463          	beq	s8,a5,148ec <_vfprintf_r+0x470>
   148e8:	3c90106f          	jal	zero,164b0 <_vfprintf_r+0x2034>
   148ec:	03000793          	addi	a5,zero,48
   148f0:	08f10a23          	sb	a5,148(sp)
   148f4:	06100713          	addi	a4,zero,97
   148f8:	05800793          	addi	a5,zero,88
   148fc:	00e89463          	bne	a7,a4,14904 <_vfprintf_r+0x488>
   14900:	12c0206f          	jal	zero,16a2c <_vfprintf_r+0x25b0>
   14904:	08f10aa3          	sb	a5,149(sp)
   14908:	06300793          	addi	a5,zero,99
   1490c:	0157d463          	bge	a5,s5,14914 <_vfprintf_r+0x498>
   14910:	2440206f          	jal	zero,16b54 <_vfprintf_r+0x26d8>
   14914:	0cc12703          	lw	a4,204(sp)
   14918:	0c012683          	lw	a3,192(sp)
   1491c:	0c412603          	lw	a2,196(sp)
   14920:	0c812583          	lw	a1,200(sp)
   14924:	00075463          	bge	a4,zero,1492c <_vfprintf_r+0x4b0>
   14928:	09d0206f          	jal	zero,171c4 <_vfprintf_r+0x2d48>
   1492c:	02012c23          	sw	zero,56(sp)
   14930:	00012823          	sw	zero,16(sp)
   14934:	11c10793          	addi	a5,sp,284
   14938:	08010d93          	addi	s11,sp,128
   1493c:	04f12023          	sw	a5,64(sp)
   14940:	06c12a23          	sw	a2,116(sp)
   14944:	002be793          	ori	a5,s7,2
   14948:	06b12c23          	sw	a1,120(sp)
   1494c:	000d8513          	addi	a0,s11,0
   14950:	07010593          	addi	a1,sp,112
   14954:	09810613          	addi	a2,sp,152
   14958:	03112e23          	sw	a7,60(sp)
   1495c:	00f12e23          	sw	a5,28(sp)
   14960:	06d12823          	sw	a3,112(sp)
   14964:	06e12e23          	sw	a4,124(sp)
   14968:	435030ef          	jal	ra,1859c <frexpl>
   1496c:	08812703          	lw	a4,136(sp)
   14970:	08012603          	lw	a2,128(sp)
   14974:	08412683          	lw	a3,132(sp)
   14978:	06e12c23          	sw	a4,120(sp)
   1497c:	08c12703          	lw	a4,140(sp)
   14980:	06c12823          	sw	a2,112(sp)
   14984:	06d12a23          	sw	a3,116(sp)
   14988:	06010613          	addi	a2,sp,96
   1498c:	3ffc06b7          	lui	a3,0x3ffc0
   14990:	07010593          	addi	a1,sp,112
   14994:	000d8513          	addi	a0,s11,0
   14998:	06d12623          	sw	a3,108(sp)
   1499c:	06e12e23          	sw	a4,124(sp)
   149a0:	06012023          	sw	zero,96(sp)
   149a4:	06012223          	sw	zero,100(sp)
   149a8:	06012423          	sw	zero,104(sp)
   149ac:	2400c0ef          	jal	ra,20bec <__multf3>
   149b0:	08012e03          	lw	t3,128(sp)
   149b4:	08412803          	lw	a6,132(sp)
   149b8:	08812603          	lw	a2,136(sp)
   149bc:	07010593          	addi	a1,sp,112
   149c0:	000d8513          	addi	a0,s11,0
   149c4:	03c12623          	sw	t3,44(sp)
   149c8:	03012023          	sw	a6,32(sp)
   149cc:	00c12c23          	sw	a2,24(sp)
   149d0:	06012823          	sw	zero,112(sp)
   149d4:	06012a23          	sw	zero,116(sp)
   149d8:	06012c23          	sw	zero,120(sp)
   149dc:	06012e23          	sw	zero,124(sp)
   149e0:	6b50b0ef          	jal	ra,20894 <__eqtf2>
   149e4:	08c12b83          	lw	s7,140(sp)
   149e8:	01812603          	lw	a2,24(sp)
   149ec:	02012803          	lw	a6,32(sp)
   149f0:	02c12e03          	lw	t3,44(sp)
   149f4:	03c12883          	lw	a7,60(sp)
   149f8:	04012783          	lw	a5,64(sp)
   149fc:	00051663          	bne	a0,zero,14a08 <_vfprintf_r+0x58c>
   14a00:	00100693          	addi	a3,zero,1
   14a04:	08d12c23          	sw	a3,152(sp)
   14a08:	06100693          	addi	a3,zero,97
   14a0c:	00d89463          	bne	a7,a3,14a14 <_vfprintf_r+0x598>
   14a10:	1990206f          	jal	zero,173a8 <_vfprintf_r+0x2f2c>
   14a14:	000236b7          	lui	a3,0x23
   14a18:	3d468713          	addi	a4,a3,980 # 233d4 <__clzsi2+0xcc>
   14a1c:	00e12c23          	sw	a4,24(sp)
   14a20:	03612023          	sw	s6,32(sp)
   14a24:	000b8c93          	addi	s9,s7,0
   14a28:	05212423          	sw	s2,72(sp)
   14a2c:	01812483          	lw	s1,24(sp)
   14a30:	00078c13          	addi	s8,a5,0
   14a34:	03112623          	sw	a7,44(sp)
   14a38:	02f12e23          	sw	a5,60(sp)
   14a3c:	05a12023          	sw	s10,64(sp)
   14a40:	00080b13          	addi	s6,a6,0
   14a44:	00060b93          	addi	s7,a2,0
   14a48:	000e0913          	addi	s2,t3,0
   14a4c:	03c0006f          	jal	zero,14a88 <_vfprintf_r+0x60c>
   14a50:	07010593          	addi	a1,sp,112
   14a54:	000d8513          	addi	a0,s11,0
   14a58:	09212023          	sw	s2,128(sp)
   14a5c:	09612223          	sw	s6,132(sp)
   14a60:	09712423          	sw	s7,136(sp)
   14a64:	09912623          	sw	s9,140(sp)
   14a68:	06012823          	sw	zero,112(sp)
   14a6c:	06012a23          	sw	zero,116(sp)
   14a70:	06012c23          	sw	zero,120(sp)
   14a74:	06012e23          	sw	zero,124(sp)
   14a78:	61d0b0ef          	jal	ra,20894 <__eqtf2>
   14a7c:	00051463          	bne	a0,zero,14a84 <_vfprintf_r+0x608>
   14a80:	0210206f          	jal	zero,172a0 <_vfprintf_r+0x2e24>
   14a84:	fffa8a93          	addi	s5,s5,-1
   14a88:	400307b7          	lui	a5,0x40030
   14a8c:	06010613          	addi	a2,sp,96
   14a90:	07010593          	addi	a1,sp,112
   14a94:	000d8513          	addi	a0,s11,0
   14a98:	06f12623          	sw	a5,108(sp)
   14a9c:	07212823          	sw	s2,112(sp)
   14aa0:	07612a23          	sw	s6,116(sp)
   14aa4:	07712c23          	sw	s7,120(sp)
   14aa8:	07912e23          	sw	s9,124(sp)
   14aac:	06012023          	sw	zero,96(sp)
   14ab0:	06012223          	sw	zero,100(sp)
   14ab4:	06012423          	sw	zero,104(sp)
   14ab8:	1340c0ef          	jal	ra,20bec <__multf3>
   14abc:	000d8513          	addi	a0,s11,0
   14ac0:	4100e0ef          	jal	ra,22ed0 <__fixtfsi>
   14ac4:	00050593          	addi	a1,a0,0
   14ac8:	00050d13          	addi	s10,a0,0
   14acc:	000d8513          	addi	a0,s11,0
   14ad0:	08012c83          	lw	s9,128(sp)
   14ad4:	08412b83          	lw	s7,132(sp)
   14ad8:	08812b03          	lw	s6,136(sp)
   14adc:	08c12903          	lw	s2,140(sp)
   14ae0:	4e40e0ef          	jal	ra,22fc4 <__floatsitf>
   14ae4:	08812783          	lw	a5,136(sp)
   14ae8:	08012603          	lw	a2,128(sp)
   14aec:	08412683          	lw	a3,132(sp)
   14af0:	04f12c23          	sw	a5,88(sp)
   14af4:	08c12783          	lw	a5,140(sp)
   14af8:	04c12823          	sw	a2,80(sp)
   14afc:	06010593          	addi	a1,sp,96
   14b00:	05010613          	addi	a2,sp,80
   14b04:	07010513          	addi	a0,sp,112
   14b08:	07912023          	sw	s9,96(sp)
   14b0c:	07712223          	sw	s7,100(sp)
   14b10:	07612423          	sw	s6,104(sp)
   14b14:	07212623          	sw	s2,108(sp)
   14b18:	04d12a23          	sw	a3,84(sp)
   14b1c:	04f12e23          	sw	a5,92(sp)
   14b20:	00c0d0ef          	jal	ra,21b2c <__subtf3>
   14b24:	01a487b3          	add	a5,s1,s10
   14b28:	0007c683          	lbu	a3,0(a5) # 40030000 <__BSS_END__+0x3ff1bc68>
   14b2c:	000c0593          	addi	a1,s8,0
   14b30:	001c0c13          	addi	s8,s8,1
   14b34:	07012903          	lw	s2,112(sp)
   14b38:	07412b03          	lw	s6,116(sp)
   14b3c:	07812b83          	lw	s7,120(sp)
   14b40:	07c12c83          	lw	s9,124(sp)
   14b44:	fedc0fa3          	sb	a3,-1(s8)
   14b48:	f00a94e3          	bne	s5,zero,14a50 <_vfprintf_r+0x5d4>
   14b4c:	02c12883          	lw	a7,44(sp)
   14b50:	03c12783          	lw	a5,60(sp)
   14b54:	00090e13          	addi	t3,s2,0
   14b58:	000b0813          	addi	a6,s6,0
   14b5c:	000b8613          	addi	a2,s7,0
   14b60:	00058493          	addi	s1,a1,0
   14b64:	000c8b93          	addi	s7,s9,0
   14b68:	3ffe0ab7          	lui	s5,0x3ffe0
   14b6c:	07010593          	addi	a1,sp,112
   14b70:	000d8513          	addi	a0,s11,0
   14b74:	05112623          	sw	a7,76(sp)
   14b78:	02f12623          	sw	a5,44(sp)
   14b7c:	04812903          	lw	s2,72(sp)
   14b80:	000d0c93          	addi	s9,s10,0
   14b84:	09c12023          	sw	t3,128(sp)
   14b88:	04012d03          	lw	s10,64(sp)
   14b8c:	05c12423          	sw	t3,72(sp)
   14b90:	09012223          	sw	a6,132(sp)
   14b94:	05012023          	sw	a6,64(sp)
   14b98:	08c12423          	sw	a2,136(sp)
   14b9c:	02c12e23          	sw	a2,60(sp)
   14ba0:	09712623          	sw	s7,140(sp)
   14ba4:	06012823          	sw	zero,112(sp)
   14ba8:	06012a23          	sw	zero,116(sp)
   14bac:	06012c23          	sw	zero,120(sp)
   14bb0:	07512e23          	sw	s5,124(sp)
   14bb4:	5d10b0ef          	jal	ra,20984 <__getf2>
   14bb8:	02012b03          	lw	s6,32(sp)
   14bbc:	02c12783          	lw	a5,44(sp)
   14bc0:	04c12883          	lw	a7,76(sp)
   14bc4:	02a04463          	blt	zero,a0,14bec <_vfprintf_r+0x770>
   14bc8:	07010593          	addi	a1,sp,112
   14bcc:	000d8513          	addi	a0,s11,0
   14bd0:	03112023          	sw	a7,32(sp)
   14bd4:	4c10b0ef          	jal	ra,20894 <__eqtf2>
   14bd8:	02012883          	lw	a7,32(sp)
   14bdc:	02c12783          	lw	a5,44(sp)
   14be0:	04051c63          	bne	a0,zero,14c38 <_vfprintf_r+0x7bc>
   14be4:	001cfc93          	andi	s9,s9,1
   14be8:	040c8863          	beq	s9,zero,14c38 <_vfprintf_r+0x7bc>
   14bec:	01812703          	lw	a4,24(sp)
   14bf0:	0a912023          	sw	s1,160(sp)
   14bf4:	fffc4603          	lbu	a2,-1(s8)
   14bf8:	00f74583          	lbu	a1,15(a4)
   14bfc:	000c0713          	addi	a4,s8,0
   14c00:	02c59063          	bne	a1,a2,14c20 <_vfprintf_r+0x7a4>
   14c04:	03000513          	addi	a0,zero,48
   14c08:	fea70fa3          	sb	a0,-1(a4)
   14c0c:	0a012703          	lw	a4,160(sp)
   14c10:	fff70693          	addi	a3,a4,-1
   14c14:	0ad12023          	sw	a3,160(sp)
   14c18:	fff74603          	lbu	a2,-1(a4)
   14c1c:	fec586e3          	beq	a1,a2,14c08 <_vfprintf_r+0x78c>
   14c20:	00160593          	addi	a1,a2,1
   14c24:	03900513          	addi	a0,zero,57
   14c28:	0ff5f593          	andi	a1,a1,255
   14c2c:	00a61463          	bne	a2,a0,14c34 <_vfprintf_r+0x7b8>
   14c30:	1980206f          	jal	zero,16dc8 <_vfprintf_r+0x294c>
   14c34:	feb70fa3          	sb	a1,-1(a4)
   14c38:	09812603          	lw	a2,152(sp)
   14c3c:	00f88713          	addi	a4,a7,15
   14c40:	0ae10223          	sb	a4,164(sp)
   14c44:	40fc06b3          	sub	a3,s8,a5
   14c48:	fff60713          	addi	a4,a2,-1
   14c4c:	08e12c23          	sw	a4,152(sp)
   14c50:	00d12c23          	sw	a3,24(sp)
   14c54:	00075463          	bge	a4,zero,14c5c <_vfprintf_r+0x7e0>
   14c58:	7340206f          	jal	zero,1738c <_vfprintf_r+0x2f10>
   14c5c:	02b00693          	addi	a3,zero,43
   14c60:	0ad102a3          	sb	a3,165(sp)
   14c64:	00900693          	addi	a3,zero,9
   14c68:	00e6d463          	bge	a3,a4,14c70 <_vfprintf_r+0x7f4>
   14c6c:	07c0206f          	jal	zero,16ce8 <_vfprintf_r+0x286c>
   14c70:	0a610693          	addi	a3,sp,166
   14c74:	03070713          	addi	a4,a4,48
   14c78:	00e68023          	sb	a4,0(a3)
   14c7c:	18010713          	addi	a4,sp,384
   14c80:	40e686b3          	sub	a3,a3,a4
   14c84:	0dd68713          	addi	a4,a3,221
   14c88:	02e12623          	sw	a4,44(sp)
   14c8c:	0e80206f          	jal	zero,16d74 <_vfprintf_r+0x28f8>
   14c90:	00412583          	lw	a1,4(sp)
   14c94:	0b410613          	addi	a2,sp,180
   14c98:	00090513          	addi	a0,s2,0
   14c9c:	04612423          	sw	t1,72(sp)
   14ca0:	04f12023          	sw	a5,64(sp)
   14ca4:	03112e23          	sw	a7,60(sp)
   14ca8:	02e12c23          	sw	a4,56(sp)
   14cac:	12d020ef          	jal	ra,175d8 <__sprint_r>
   14cb0:	3a0512e3          	bne	a0,zero,15854 <_vfprintf_r+0x13d8>
   14cb4:	0bc12603          	lw	a2,188(sp)
   14cb8:	04812303          	lw	t1,72(sp)
   14cbc:	04012783          	lw	a5,64(sp)
   14cc0:	03c12883          	lw	a7,60(sp)
   14cc4:	03812703          	lw	a4,56(sp)
   14cc8:	00098b13          	addi	s6,s3,0
   14ccc:	a2dff06f          	jal	zero,146f8 <_vfprintf_r+0x27c>
   14cd0:	0b812a83          	lw	s5,184(sp)
   14cd4:	01812683          	lw	a3,24(sp)
   14cd8:	00100713          	addi	a4,zero,1
   14cdc:	00e60633          	add	a2,a2,a4
   14ce0:	00ea8ab3          	add	s5,s5,a4
   14ce4:	008b0d93          	addi	s11,s6,8
   14ce8:	78d758e3          	bge	a4,a3,15c78 <_vfprintf_r+0x17fc>
   14cec:	00100713          	addi	a4,zero,1
   14cf0:	00eb2223          	sw	a4,4(s6)
   14cf4:	00fb2023          	sw	a5,0(s6)
   14cf8:	0ac12e23          	sw	a2,188(sp)
   14cfc:	0b512c23          	sw	s5,184(sp)
   14d00:	00700713          	addi	a4,zero,7
   14d04:	01575463          	bge	a4,s5,14d0c <_vfprintf_r+0x890>
   14d08:	3f80106f          	jal	zero,16100 <_vfprintf_r+0x1c84>
   14d0c:	02412703          	lw	a4,36(sp)
   14d10:	001a8a93          	addi	s5,s5,1 # 3ffe0001 <__BSS_END__+0x3fecbc69>
   14d14:	0b512c23          	sw	s5,184(sp)
   14d18:	00e60633          	add	a2,a2,a4
   14d1c:	02812703          	lw	a4,40(sp)
   14d20:	0ac12e23          	sw	a2,188(sp)
   14d24:	008d8d93          	addi	s11,s11,8
   14d28:	feedac23          	sw	a4,-8(s11)
   14d2c:	02412703          	lw	a4,36(sp)
   14d30:	feedae23          	sw	a4,-4(s11)
   14d34:	00700713          	addi	a4,zero,7
   14d38:	01575463          	bge	a4,s5,14d40 <_vfprintf_r+0x8c4>
   14d3c:	3f00106f          	jal	zero,1612c <_vfprintf_r+0x1cb0>
   14d40:	0c812703          	lw	a4,200(sp)
   14d44:	0c012503          	lw	a0,192(sp)
   14d48:	0c412583          	lw	a1,196(sp)
   14d4c:	02f12023          	sw	a5,32(sp)
   14d50:	08e12423          	sw	a4,136(sp)
   14d54:	01812783          	lw	a5,24(sp)
   14d58:	0cc12703          	lw	a4,204(sp)
   14d5c:	08a12023          	sw	a0,128(sp)
   14d60:	08b12223          	sw	a1,132(sp)
   14d64:	08010513          	addi	a0,sp,128
   14d68:	07010593          	addi	a1,sp,112
   14d6c:	00c12e23          	sw	a2,28(sp)
   14d70:	06012823          	sw	zero,112(sp)
   14d74:	06012a23          	sw	zero,116(sp)
   14d78:	06012c23          	sw	zero,120(sp)
   14d7c:	06012e23          	sw	zero,124(sp)
   14d80:	08e12623          	sw	a4,140(sp)
   14d84:	fff78b13          	addi	s6,a5,-1
   14d88:	30d0b0ef          	jal	ra,20894 <__eqtf2>
   14d8c:	01c12603          	lw	a2,28(sp)
   14d90:	720506e3          	beq	a0,zero,15cbc <_vfprintf_r+0x1840>
   14d94:	02012783          	lw	a5,32(sp)
   14d98:	001a8a93          	addi	s5,s5,1
   14d9c:	01660633          	add	a2,a2,s6
   14da0:	00178793          	addi	a5,a5,1
   14da4:	0b512c23          	sw	s5,184(sp)
   14da8:	0ac12e23          	sw	a2,188(sp)
   14dac:	00fda023          	sw	a5,0(s11)
   14db0:	016da223          	sw	s6,4(s11)
   14db4:	00700793          	addi	a5,zero,7
   14db8:	6f57c0e3          	blt	a5,s5,15c98 <_vfprintf_r+0x181c>
   14dbc:	008d8d93          	addi	s11,s11,8
   14dc0:	02c12783          	lw	a5,44(sp)
   14dc4:	02c12683          	lw	a3,44(sp)
   14dc8:	0a410713          	addi	a4,sp,164
   14dcc:	00c78633          	add	a2,a5,a2
   14dd0:	001a8793          	addi	a5,s5,1
   14dd4:	00eda023          	sw	a4,0(s11)
   14dd8:	0ac12e23          	sw	a2,188(sp)
   14ddc:	0af12c23          	sw	a5,184(sp)
   14de0:	00dda223          	sw	a3,4(s11)
   14de4:	00700713          	addi	a4,zero,7
   14de8:	008d8b13          	addi	s6,s11,8
   14dec:	98f754e3          	bge	a4,a5,14774 <_vfprintf_r+0x2f8>
   14df0:	00412583          	lw	a1,4(sp)
   14df4:	0b410613          	addi	a2,sp,180
   14df8:	00090513          	addi	a0,s2,0
   14dfc:	7dc020ef          	jal	ra,175d8 <__sprint_r>
   14e00:	24051ae3          	bne	a0,zero,15854 <_vfprintf_r+0x13d8>
   14e04:	0bc12603          	lw	a2,188(sp)
   14e08:	00098b13          	addi	s6,s3,0
   14e0c:	969ff06f          	jal	zero,14774 <_vfprintf_r+0x2f8>
   14e10:	00c12783          	lw	a5,12(sp)
   14e14:	00c12703          	lw	a4,12(sp)
   14e18:	080109a3          	sb	zero,147(sp)
   14e1c:	0007a783          	lw	a5,0(a5)
   14e20:	00470493          	addi	s1,a4,4
   14e24:	00079463          	bne	a5,zero,14e2c <_vfprintf_r+0x9b0>
   14e28:	16c0106f          	jal	zero,15f94 <_vfprintf_r+0x1b18>
   14e2c:	000ad463          	bge	s5,zero,14e34 <_vfprintf_r+0x9b8>
   14e30:	2600106f          	jal	zero,16090 <_vfprintf_r+0x1c14>
   14e34:	00078513          	addi	a0,a5,0
   14e38:	000a8613          	addi	a2,s5,0
   14e3c:	00000593          	addi	a1,zero,0
   14e40:	01112e23          	sw	a7,28(sp)
   14e44:	00f12623          	sw	a5,12(sp)
   14e48:	254030ef          	jal	ra,1809c <memchr>
   14e4c:	00a12823          	sw	a0,16(sp)
   14e50:	09314703          	lbu	a4,147(sp)
   14e54:	00c12783          	lw	a5,12(sp)
   14e58:	01c12883          	lw	a7,28(sp)
   14e5c:	00051463          	bne	a0,zero,14e64 <_vfprintf_r+0x9e8>
   14e60:	17c0206f          	jal	zero,16fdc <_vfprintf_r+0x2b60>
   14e64:	40f50cb3          	sub	s9,a0,a5
   14e68:	fffcc693          	xori	a3,s9,-1
   14e6c:	41f6d693          	srai	a3,a3,0x1f
   14e70:	00dcfc33          	and	s8,s9,a3
   14e74:	00070463          	beq	a4,zero,14e7c <_vfprintf_r+0xa00>
   14e78:	24c0106f          	jal	zero,160c4 <_vfprintf_r+0x1c48>
   14e7c:	00912623          	sw	s1,12(sp)
   14e80:	0bc12603          	lw	a2,188(sp)
   14e84:	00012823          	sw	zero,16(sp)
   14e88:	02012023          	sw	zero,32(sp)
   14e8c:	00012e23          	sw	zero,28(sp)
   14e90:	084bfd93          	andi	s11,s7,132
   14e94:	00000a93          	addi	s5,zero,0
   14e98:	00000313          	addi	t1,zero,0
   14e9c:	00060813          	addi	a6,a2,0
   14ea0:	800d9ee3          	bne	s11,zero,146bc <_vfprintf_r+0x240>
   14ea4:	00012703          	lw	a4,0(sp)
   14ea8:	41870733          	sub	a4,a4,s8
   14eac:	5ae042e3          	blt	zero,a4,15c50 <_vfprintf_r+0x17d4>
   14eb0:	09314703          	lbu	a4,147(sp)
   14eb4:	800718e3          	bne	a4,zero,146c4 <_vfprintf_r+0x248>
   14eb8:	419a8ab3          	sub	s5,s5,s9
   14ebc:	895054e3          	bge	zero,s5,14744 <_vfprintf_r+0x2c8>
   14ec0:	00070837          	lui	a6,0x70
   14ec4:	0b812583          	lw	a1,184(sp)
   14ec8:	a9c80813          	addi	a6,a6,-1380 # 6fa9c <zeroes.0>
   14ecc:	09545663          	bge	s0,s5,14f58 <_vfprintf_r+0xadc>
   14ed0:	000a8493          	addi	s1,s5,0
   14ed4:	02f12e23          	sw	a5,60(sp)
   14ed8:	00700d93          	addi	s11,zero,7
   14edc:	000b0793          	addi	a5,s6,0
   14ee0:	03112c23          	sw	a7,56(sp)
   14ee4:	00030a93          	addi	s5,t1,0
   14ee8:	000a0b13          	addi	s6,s4,0
   14eec:	00c0006f          	jal	zero,14ef8 <_vfprintf_r+0xa7c>
   14ef0:	ff048493          	addi	s1,s1,-16
   14ef4:	04945663          	bge	s0,s1,14f40 <_vfprintf_r+0xac4>
   14ef8:	01060613          	addi	a2,a2,16
   14efc:	00158593          	addi	a1,a1,1
   14f00:	0147a023          	sw	s4,0(a5)
   14f04:	0087a223          	sw	s0,4(a5)
   14f08:	0ac12e23          	sw	a2,188(sp)
   14f0c:	0ab12c23          	sw	a1,184(sp)
   14f10:	00878793          	addi	a5,a5,8
   14f14:	fcbddee3          	bge	s11,a1,14ef0 <_vfprintf_r+0xa74>
   14f18:	00412583          	lw	a1,4(sp)
   14f1c:	0b410613          	addi	a2,sp,180
   14f20:	00090513          	addi	a0,s2,0
   14f24:	6b4020ef          	jal	ra,175d8 <__sprint_r>
   14f28:	120516e3          	bne	a0,zero,15854 <_vfprintf_r+0x13d8>
   14f2c:	ff048493          	addi	s1,s1,-16
   14f30:	0bc12603          	lw	a2,188(sp)
   14f34:	0b812583          	lw	a1,184(sp)
   14f38:	00098793          	addi	a5,s3,0
   14f3c:	fa944ee3          	blt	s0,s1,14ef8 <_vfprintf_r+0xa7c>
   14f40:	000b0813          	addi	a6,s6,0
   14f44:	03812883          	lw	a7,56(sp)
   14f48:	00078b13          	addi	s6,a5,0
   14f4c:	03c12783          	lw	a5,60(sp)
   14f50:	000a8313          	addi	t1,s5,0
   14f54:	00048a93          	addi	s5,s1,0
   14f58:	01560633          	add	a2,a2,s5
   14f5c:	00158593          	addi	a1,a1,1
   14f60:	010b2023          	sw	a6,0(s6)
   14f64:	015b2223          	sw	s5,4(s6)
   14f68:	0ac12e23          	sw	a2,188(sp)
   14f6c:	0ab12c23          	sw	a1,184(sp)
   14f70:	00700713          	addi	a4,zero,7
   14f74:	008b0b13          	addi	s6,s6,8
   14f78:	fcb75663          	bge	a4,a1,14744 <_vfprintf_r+0x2c8>
   14f7c:	00412583          	lw	a1,4(sp)
   14f80:	0b410613          	addi	a2,sp,180
   14f84:	00090513          	addi	a0,s2,0
   14f88:	04612023          	sw	t1,64(sp)
   14f8c:	02f12e23          	sw	a5,60(sp)
   14f90:	03112c23          	sw	a7,56(sp)
   14f94:	644020ef          	jal	ra,175d8 <__sprint_r>
   14f98:	0a051ee3          	bne	a0,zero,15854 <_vfprintf_r+0x13d8>
   14f9c:	100bf713          	andi	a4,s7,256
   14fa0:	0bc12603          	lw	a2,188(sp)
   14fa4:	04012303          	lw	t1,64(sp)
   14fa8:	03c12783          	lw	a5,60(sp)
   14fac:	03812883          	lw	a7,56(sp)
   14fb0:	00098b13          	addi	s6,s3,0
   14fb4:	f8070c63          	beq	a4,zero,1474c <_vfprintf_r+0x2d0>
   14fb8:	06500713          	addi	a4,zero,101
   14fbc:	d1175ae3          	bge	a4,a7,14cd0 <_vfprintf_r+0x854>
   14fc0:	0c412703          	lw	a4,196(sp)
   14fc4:	0c012583          	lw	a1,192(sp)
   14fc8:	0c812503          	lw	a0,200(sp)
   14fcc:	08e12223          	sw	a4,132(sp)
   14fd0:	0cc12703          	lw	a4,204(sp)
   14fd4:	08b12023          	sw	a1,128(sp)
   14fd8:	08a12423          	sw	a0,136(sp)
   14fdc:	07010593          	addi	a1,sp,112
   14fe0:	08010513          	addi	a0,sp,128
   14fe4:	02c12e23          	sw	a2,60(sp)
   14fe8:	02f12c23          	sw	a5,56(sp)
   14fec:	04612023          	sw	t1,64(sp)
   14ff0:	06012823          	sw	zero,112(sp)
   14ff4:	06012a23          	sw	zero,116(sp)
   14ff8:	06012c23          	sw	zero,120(sp)
   14ffc:	06012e23          	sw	zero,124(sp)
   15000:	08e12623          	sw	a4,140(sp)
   15004:	0910b0ef          	jal	ra,20894 <__eqtf2>
   15008:	03812783          	lw	a5,56(sp)
   1500c:	03c12603          	lw	a2,60(sp)
   15010:	04012303          	lw	t1,64(sp)
   15014:	220510e3          	bne	a0,zero,15a34 <_vfprintf_r+0x15b8>
   15018:	0b812783          	lw	a5,184(sp)
   1501c:	00023737          	lui	a4,0x23
   15020:	3f070713          	addi	a4,a4,1008 # 233f0 <__clzsi2+0xe8>
   15024:	00eb2023          	sw	a4,0(s6)
   15028:	00160613          	addi	a2,a2,1
   1502c:	00100713          	addi	a4,zero,1
   15030:	00178793          	addi	a5,a5,1
   15034:	00eb2223          	sw	a4,4(s6)
   15038:	0ac12e23          	sw	a2,188(sp)
   1503c:	0af12c23          	sw	a5,184(sp)
   15040:	00700713          	addi	a4,zero,7
   15044:	008b0b13          	addi	s6,s6,8
   15048:	00f75463          	bge	a4,a5,15050 <_vfprintf_r+0xbd4>
   1504c:	2500106f          	jal	zero,1629c <_vfprintf_r+0x1e20>
   15050:	09812783          	lw	a5,152(sp)
   15054:	01812703          	lw	a4,24(sp)
   15058:	4ee7d0e3          	bge	a5,a4,15d38 <_vfprintf_r+0x18bc>
   1505c:	02412703          	lw	a4,36(sp)
   15060:	0b812783          	lw	a5,184(sp)
   15064:	008b0b13          	addi	s6,s6,8
   15068:	00e60633          	add	a2,a2,a4
   1506c:	02812703          	lw	a4,40(sp)
   15070:	00178793          	addi	a5,a5,1
   15074:	0ac12e23          	sw	a2,188(sp)
   15078:	feeb2c23          	sw	a4,-8(s6)
   1507c:	02412703          	lw	a4,36(sp)
   15080:	0af12c23          	sw	a5,184(sp)
   15084:	feeb2e23          	sw	a4,-4(s6)
   15088:	00700713          	addi	a4,zero,7
   1508c:	68f740e3          	blt	a4,a5,15f0c <_vfprintf_r+0x1a90>
   15090:	01812783          	lw	a5,24(sp)
   15094:	fff78a93          	addi	s5,a5,-1
   15098:	ed505e63          	bge	zero,s5,14774 <_vfprintf_r+0x2f8>
   1509c:	00070837          	lui	a6,0x70
   150a0:	01000c93          	addi	s9,zero,16
   150a4:	0b812783          	lw	a5,184(sp)
   150a8:	00700d93          	addi	s11,zero,7
   150ac:	a9c80493          	addi	s1,a6,-1380 # 6fa9c <zeroes.0>
   150b0:	015cca63          	blt	s9,s5,150c4 <_vfprintf_r+0xc48>
   150b4:	2a50006f          	jal	zero,15b58 <_vfprintf_r+0x16dc>
   150b8:	ff0a8a93          	addi	s5,s5,-16
   150bc:	015cc463          	blt	s9,s5,150c4 <_vfprintf_r+0xc48>
   150c0:	23c0106f          	jal	zero,162fc <_vfprintf_r+0x1e80>
   150c4:	01060613          	addi	a2,a2,16
   150c8:	00178793          	addi	a5,a5,1
   150cc:	009b2023          	sw	s1,0(s6)
   150d0:	019b2223          	sw	s9,4(s6)
   150d4:	0ac12e23          	sw	a2,188(sp)
   150d8:	0af12c23          	sw	a5,184(sp)
   150dc:	008b0b13          	addi	s6,s6,8
   150e0:	fcfddce3          	bge	s11,a5,150b8 <_vfprintf_r+0xc3c>
   150e4:	00412583          	lw	a1,4(sp)
   150e8:	0b410613          	addi	a2,sp,180
   150ec:	00090513          	addi	a0,s2,0
   150f0:	4e8020ef          	jal	ra,175d8 <__sprint_r>
   150f4:	76051063          	bne	a0,zero,15854 <_vfprintf_r+0x13d8>
   150f8:	0bc12603          	lw	a2,188(sp)
   150fc:	0b812783          	lw	a5,184(sp)
   15100:	00098b13          	addi	s6,s3,0
   15104:	fb5ff06f          	jal	zero,150b8 <_vfprintf_r+0xc3c>
   15108:	020bf793          	andi	a5,s7,32
   1510c:	0e079863          	bne	a5,zero,151fc <_vfprintf_r+0xd80>
   15110:	00c12783          	lw	a5,12(sp)
   15114:	010bf713          	andi	a4,s7,16
   15118:	00478793          	addi	a5,a5,4
   1511c:	00070463          	beq	a4,zero,15124 <_vfprintf_r+0xca8>
   15120:	7ad0106f          	jal	zero,170cc <_vfprintf_r+0x2c50>
   15124:	00c12683          	lw	a3,12(sp)
   15128:	040bf713          	andi	a4,s7,64
   1512c:	0006ac03          	lw	s8,0(a3)
   15130:	00071463          	bne	a4,zero,15138 <_vfprintf_r+0xcbc>
   15134:	33c0106f          	jal	zero,16470 <_vfprintf_r+0x1ff4>
   15138:	010c1c13          	slli	s8,s8,0x10
   1513c:	410c5c13          	srai	s8,s8,0x10
   15140:	41fc5e93          	srai	t4,s8,0x1f
   15144:	00f12623          	sw	a5,12(sp)
   15148:	000e8713          	addi	a4,t4,0
   1514c:	0c074a63          	blt	a4,zero,15220 <_vfprintf_r+0xda4>
   15150:	0e0ac863          	blt	s5,zero,15240 <_vfprintf_r+0xdc4>
   15154:	01dc67b3          	or	a5,s8,t4
   15158:	f7fbfb93          	andi	s7,s7,-129
   1515c:	0e079263          	bne	a5,zero,15240 <_vfprintf_r+0xdc4>
   15160:	0e0a9063          	bne	s5,zero,15240 <_vfprintf_r+0xdc4>
   15164:	09314e83          	lbu	t4,147(sp)
   15168:	000e9463          	bne	t4,zero,15170 <_vfprintf_r+0xcf4>
   1516c:	3240106f          	jal	zero,16490 <_vfprintf_r+0x2014>
   15170:	00000c13          	addi	s8,zero,0
   15174:	00000313          	addi	t1,zero,0
   15178:	00012823          	sw	zero,16(sp)
   1517c:	00000c93          	addi	s9,zero,0
   15180:	00000a93          	addi	s5,zero,0
   15184:	18010793          	addi	a5,sp,384
   15188:	001c0c13          	addi	s8,s8,1
   1518c:	00031463          	bne	t1,zero,15194 <_vfprintf_r+0xd18>
   15190:	2f80206f          	jal	zero,17488 <_vfprintf_r+0x300c>
   15194:	0bc12603          	lw	a2,188(sp)
   15198:	0b812583          	lw	a1,184(sp)
   1519c:	084bfd93          	andi	s11,s7,132
   151a0:	002c0c13          	addi	s8,s8,2
   151a4:	00060813          	addi	a6,a2,0
   151a8:	00058513          	addi	a0,a1,0
   151ac:	700d8663          	beq	s11,zero,158b8 <_vfprintf_r+0x143c>
   151b0:	02012023          	sw	zero,32(sp)
   151b4:	00012e23          	sw	zero,28(sp)
   151b8:	00000313          	addi	t1,zero,0
   151bc:	d40e8263          	beq	t4,zero,14700 <_vfprintf_r+0x284>
   151c0:	00200713          	addi	a4,zero,2
   151c4:	d08ff06f          	jal	zero,146cc <_vfprintf_r+0x250>
   151c8:	00c12783          	lw	a5,12(sp)
   151cc:	00100c93          	addi	s9,zero,1
   151d0:	080109a3          	sb	zero,147(sp)
   151d4:	0007a783          	lw	a5,0(a5)
   151d8:	10f10e23          	sb	a5,284(sp)
   151dc:	00c12783          	lw	a5,12(sp)
   151e0:	00478793          	addi	a5,a5,4
   151e4:	00f12623          	sw	a5,12(sp)
   151e8:	ca8ff06f          	jal	zero,14690 <_vfprintf_r+0x214>
   151ec:	020bf793          	andi	a5,s7,32
   151f0:	010bee13          	ori	t3,s7,16
   151f4:	400782e3          	beq	a5,zero,15df8 <_vfprintf_r+0x197c>
   151f8:	000e0b93          	addi	s7,t3,0
   151fc:	00c12783          	lw	a5,12(sp)
   15200:	00778793          	addi	a5,a5,7
   15204:	ff87f793          	andi	a5,a5,-8
   15208:	0047a703          	lw	a4,4(a5)
   1520c:	00878693          	addi	a3,a5,8
   15210:	00d12623          	sw	a3,12(sp)
   15214:	0007ac03          	lw	s8,0(a5)
   15218:	00070e93          	addi	t4,a4,0
   1521c:	f2075ae3          	bge	a4,zero,15150 <_vfprintf_r+0xcd4>
   15220:	018037b3          	sltu	a5,zero,s8
   15224:	41d00eb3          	sub	t4,zero,t4
   15228:	40fe8eb3          	sub	t4,t4,a5
   1522c:	02d00793          	addi	a5,zero,45
   15230:	08f109a3          	sb	a5,147(sp)
   15234:	41800c33          	sub	s8,zero,s8
   15238:	000ac463          	blt	s5,zero,15240 <_vfprintf_r+0xdc4>
   1523c:	f7fbfb93          	andi	s7,s7,-129
   15240:	260e9e63          	bne	t4,zero,154bc <_vfprintf_r+0x1040>
   15244:	00900793          	addi	a5,zero,9
   15248:	2787ea63          	bltu	a5,s8,154bc <_vfprintf_r+0x1040>
   1524c:	030c0c13          	addi	s8,s8,48
   15250:	17810fa3          	sb	s8,383(sp)
   15254:	000a8c13          	addi	s8,s5,0
   15258:	3f505ae3          	bge	zero,s5,15e4c <_vfprintf_r+0x19d0>
   1525c:	09314e83          	lbu	t4,147(sp)
   15260:	00000313          	addi	t1,zero,0
   15264:	00100c93          	addi	s9,zero,1
   15268:	17f10793          	addi	a5,sp,383
   1526c:	00012823          	sw	zero,16(sp)
   15270:	f00e8ee3          	beq	t4,zero,1518c <_vfprintf_r+0xd10>
   15274:	001c0c13          	addi	s8,s8,1
   15278:	f15ff06f          	jal	zero,1518c <_vfprintf_r+0xd10>
   1527c:	00c12783          	lw	a5,12(sp)
   15280:	0007a783          	lw	a5,0(a5)
   15284:	00f12023          	sw	a5,0(sp)
   15288:	2c07d0e3          	bge	a5,zero,15d48 <_vfprintf_r+0x18cc>
   1528c:	00012783          	lw	a5,0(sp)
   15290:	40f007b3          	sub	a5,zero,a5
   15294:	00f12023          	sw	a5,0(sp)
   15298:	00c12783          	lw	a5,12(sp)
   1529c:	00478793          	addi	a5,a5,4
   152a0:	00f12623          	sw	a5,12(sp)
   152a4:	000d4883          	lbu	a7,0(s10)
   152a8:	004beb93          	ori	s7,s7,4
   152ac:	b70ff06f          	jal	zero,1461c <_vfprintf_r+0x1a0>
   152b0:	02b00793          	addi	a5,zero,43
   152b4:	000d4883          	lbu	a7,0(s10)
   152b8:	08f109a3          	sb	a5,147(sp)
   152bc:	b60ff06f          	jal	zero,1461c <_vfprintf_r+0x1a0>
   152c0:	000d4883          	lbu	a7,0(s10)
   152c4:	080beb93          	ori	s7,s7,128
   152c8:	b54ff06f          	jal	zero,1461c <_vfprintf_r+0x1a0>
   152cc:	000d4883          	lbu	a7,0(s10)
   152d0:	02a00793          	addi	a5,zero,42
   152d4:	001d0693          	addi	a3,s10,1
   152d8:	00f89463          	bne	a7,a5,152e0 <_vfprintf_r+0xe64>
   152dc:	0dc0206f          	jal	zero,173b8 <_vfprintf_r+0x2f3c>
   152e0:	fd088793          	addi	a5,a7,-48
   152e4:	00900613          	addi	a2,zero,9
   152e8:	00000a93          	addi	s5,zero,0
   152ec:	02f66463          	bltu	a2,a5,15314 <_vfprintf_r+0xe98>
   152f0:	002a9713          	slli	a4,s5,0x2
   152f4:	0006c883          	lbu	a7,0(a3)
   152f8:	01570ab3          	add	s5,a4,s5
   152fc:	001a9a93          	slli	s5,s5,0x1
   15300:	00fa8ab3          	add	s5,s5,a5
   15304:	fd088793          	addi	a5,a7,-48
   15308:	00168693          	addi	a3,a3,1
   1530c:	fef672e3          	bgeu	a2,a5,152f0 <_vfprintf_r+0xe74>
   15310:	3c0ac8e3          	blt	s5,zero,15ee0 <_vfprintf_r+0x1a64>
   15314:	00068d13          	addi	s10,a3,0
   15318:	b08ff06f          	jal	zero,14620 <_vfprintf_r+0x1a4>
   1531c:	00090513          	addi	a0,s2,0
   15320:	6d1020ef          	jal	ra,181f0 <_localeconv_r>
   15324:	00452783          	lw	a5,4(a0)
   15328:	00078513          	addi	a0,a5,0
   1532c:	02f12a23          	sw	a5,52(sp)
   15330:	1e0030ef          	jal	ra,18510 <strlen>
   15334:	00050493          	addi	s1,a0,0
   15338:	00090513          	addi	a0,s2,0
   1533c:	04912223          	sw	s1,68(sp)
   15340:	6b1020ef          	jal	ra,181f0 <_localeconv_r>
   15344:	00852703          	lw	a4,8(a0)
   15348:	000d4883          	lbu	a7,0(s10)
   1534c:	02e12823          	sw	a4,48(sp)
   15350:	ac048663          	beq	s1,zero,1461c <_vfprintf_r+0x1a0>
   15354:	ac070463          	beq	a4,zero,1461c <_vfprintf_r+0x1a0>
   15358:	00074783          	lbu	a5,0(a4)
   1535c:	ac078063          	beq	a5,zero,1461c <_vfprintf_r+0x1a0>
   15360:	400beb93          	ori	s7,s7,1024
   15364:	ab8ff06f          	jal	zero,1461c <_vfprintf_r+0x1a0>
   15368:	000d4883          	lbu	a7,0(s10)
   1536c:	001beb93          	ori	s7,s7,1
   15370:	aacff06f          	jal	zero,1461c <_vfprintf_r+0x1a0>
   15374:	09314783          	lbu	a5,147(sp)
   15378:	000d4883          	lbu	a7,0(s10)
   1537c:	aa079063          	bne	a5,zero,1461c <_vfprintf_r+0x1a0>
   15380:	02000793          	addi	a5,zero,32
   15384:	08f109a3          	sb	a5,147(sp)
   15388:	a94ff06f          	jal	zero,1461c <_vfprintf_r+0x1a0>
   1538c:	020bf793          	andi	a5,s7,32
   15390:	010be693          	ori	a3,s7,16
   15394:	220782e3          	beq	a5,zero,15db8 <_vfprintf_r+0x193c>
   15398:	00c12783          	lw	a5,12(sp)
   1539c:	00778793          	addi	a5,a5,7
   153a0:	ff87f793          	andi	a5,a5,-8
   153a4:	00878713          	addi	a4,a5,8
   153a8:	00e12623          	sw	a4,12(sp)
   153ac:	0047a603          	lw	a2,4(a5)
   153b0:	0007a703          	lw	a4,0(a5)
   153b4:	080109a3          	sb	zero,147(sp)
   153b8:	bff6fb93          	andi	s7,a3,-1025
   153bc:	600aca63          	blt	s5,zero,159d0 <_vfprintf_r+0x1554>
   153c0:	00c767b3          	or	a5,a4,a2
   153c4:	b7f6fb93          	andi	s7,a3,-1153
   153c8:	60079463          	bne	a5,zero,159d0 <_vfprintf_r+0x1554>
   153cc:	600a9263          	bne	s5,zero,159d0 <_vfprintf_r+0x1554>
   153d0:	0016fc13          	andi	s8,a3,1
   153d4:	080c02e3          	beq	s8,zero,15c58 <_vfprintf_r+0x17dc>
   153d8:	03000793          	addi	a5,zero,48
   153dc:	16f10fa3          	sb	a5,383(sp)
   153e0:	000c0c93          	addi	s9,s8,0
   153e4:	00012823          	sw	zero,16(sp)
   153e8:	02012023          	sw	zero,32(sp)
   153ec:	00012e23          	sw	zero,28(sp)
   153f0:	00000313          	addi	t1,zero,0
   153f4:	17f10793          	addi	a5,sp,383
   153f8:	ab4ff06f          	jal	zero,146ac <_vfprintf_r+0x230>
   153fc:	000d4883          	lbu	a7,0(s10)
   15400:	06800793          	addi	a5,zero,104
   15404:	2ef88ce3          	beq	a7,a5,15efc <_vfprintf_r+0x1a80>
   15408:	040beb93          	ori	s7,s7,64
   1540c:	a10ff06f          	jal	zero,1461c <_vfprintf_r+0x1a0>
   15410:	00c12703          	lw	a4,12(sp)
   15414:	020bf793          	andi	a5,s7,32
   15418:	00470713          	addi	a4,a4,4
   1541c:	1a079ce3          	bne	a5,zero,15dd4 <_vfprintf_r+0x1958>
   15420:	010bf793          	andi	a5,s7,16
   15424:	760798e3          	bne	a5,zero,16394 <_vfprintf_r+0x1f18>
   15428:	040bf793          	andi	a5,s7,64
   1542c:	00078463          	beq	a5,zero,15434 <_vfprintf_r+0xfb8>
   15430:	44c0106f          	jal	zero,1687c <_vfprintf_r+0x2400>
   15434:	200bfe13          	andi	t3,s7,512
   15438:	740e0ee3          	beq	t3,zero,16394 <_vfprintf_r+0x1f18>
   1543c:	00c12783          	lw	a5,12(sp)
   15440:	00812683          	lw	a3,8(sp)
   15444:	00e12623          	sw	a4,12(sp)
   15448:	0007a783          	lw	a5,0(a5)
   1544c:	00d78023          	sb	a3,0(a5)
   15450:	938ff06f          	jal	zero,14588 <_vfprintf_r+0x10c>
   15454:	000d4883          	lbu	a7,0(s10)
   15458:	06c00793          	addi	a5,zero,108
   1545c:	28f888e3          	beq	a7,a5,15eec <_vfprintf_r+0x1a70>
   15460:	010beb93          	ori	s7,s7,16
   15464:	9b8ff06f          	jal	zero,1461c <_vfprintf_r+0x1a0>
   15468:	020bf793          	andi	a5,s7,32
   1546c:	24079863          	bne	a5,zero,156bc <_vfprintf_r+0x1240>
   15470:	010bf793          	andi	a5,s7,16
   15474:	00078463          	beq	a5,zero,1547c <_vfprintf_r+0x1000>
   15478:	44d0106f          	jal	zero,170c4 <_vfprintf_r+0x2c48>
   1547c:	00c12703          	lw	a4,12(sp)
   15480:	040bf793          	andi	a5,s7,64
   15484:	00072c03          	lw	s8,0(a4)
   15488:	00470713          	addi	a4,a4,4
   1548c:	00e12623          	sw	a4,12(sp)
   15490:	00079463          	bne	a5,zero,15498 <_vfprintf_r+0x101c>
   15494:	7b10006f          	jal	zero,16444 <_vfprintf_r+0x1fc8>
   15498:	010c1c13          	slli	s8,s8,0x10
   1549c:	080109a3          	sb	zero,147(sp)
   154a0:	010c5c13          	srli	s8,s8,0x10
   154a4:	00000e93          	addi	t4,zero,0
   154a8:	d80acce3          	blt	s5,zero,15240 <_vfprintf_r+0xdc4>
   154ac:	018ae333          	or	t1,s5,s8
   154b0:	f7fbfb93          	andi	s7,s7,-129
   154b4:	16030463          	beq	t1,zero,1561c <_vfprintf_r+0x11a0>
   154b8:	d80e86e3          	beq	t4,zero,15244 <_vfprintf_r+0xdc8>
   154bc:	ccccdcb7          	lui	s9,0xccccd
   154c0:	ccccddb7          	lui	s11,0xccccd
   154c4:	ccdc8c93          	addi	s9,s9,-819 # cccccccd <__BSS_END__+0xccbb8935>
   154c8:	cccd8d93          	addi	s11,s11,-820 # cccccccc <__BSS_END__+0xccbb8934>
   154cc:	400bf813          	andi	a6,s7,1024
   154d0:	00000593          	addi	a1,zero,0
   154d4:	18010613          	addi	a2,sp,384
   154d8:	00088493          	addi	s1,a7,0
   154dc:	0800006f          	jal	zero,1555c <_vfprintf_r+0x10e0>
   154e0:	03012703          	lw	a4,48(sp)
   154e4:	00074703          	lbu	a4,0(a4)
   154e8:	f0170693          	addi	a3,a4,-255
   154ec:	00068463          	beq	a3,zero,154f4 <_vfprintf_r+0x1078>
   154f0:	5cb70ae3          	beq	a4,a1,162c4 <_vfprintf_r+0x1e48>
   154f4:	000c0313          	addi	t1,s8,0
   154f8:	000e8513          	addi	a0,t4,0
   154fc:	00078613          	addi	a2,a5,0
   15500:	01dc0733          	add	a4,s8,t4
   15504:	018736b3          	sltu	a3,a4,s8
   15508:	00d70733          	add	a4,a4,a3
   1550c:	039736b3          	mulhu	a3,a4,s9
   15510:	0026de13          	srli	t3,a3,0x2
   15514:	ffc6f693          	andi	a3,a3,-4
   15518:	01c686b3          	add	a3,a3,t3
   1551c:	40d70733          	sub	a4,a4,a3
   15520:	40ec0733          	sub	a4,s8,a4
   15524:	00ec36b3          	sltu	a3,s8,a4
   15528:	40de86b3          	sub	a3,t4,a3
   1552c:	039686b3          	mul	a3,a3,s9
   15530:	03b70eb3          	mul	t4,a4,s11
   15534:	03973e33          	mulhu	t3,a4,s9
   15538:	01d686b3          	add	a3,a3,t4
   1553c:	03970733          	mul	a4,a4,s9
   15540:	01c686b3          	add	a3,a3,t3
   15544:	01f69e13          	slli	t3,a3,0x1f
   15548:	0016de93          	srli	t4,a3,0x1
   1554c:	00175713          	srli	a4,a4,0x1
   15550:	00ee0c33          	add	s8,t3,a4
   15554:	00051463          	bne	a0,zero,1555c <_vfprintf_r+0x10e0>
   15558:	2750106f          	jal	zero,16fcc <_vfprintf_r+0x2b50>
   1555c:	01dc0733          	add	a4,s8,t4
   15560:	018736b3          	sltu	a3,a4,s8
   15564:	00d706b3          	add	a3,a4,a3
   15568:	0396b533          	mulhu	a0,a3,s9
   1556c:	00158593          	addi	a1,a1,1
   15570:	fff60793          	addi	a5,a2,-1
   15574:	00255313          	srli	t1,a0,0x2
   15578:	ffc57513          	andi	a0,a0,-4
   1557c:	00650533          	add	a0,a0,t1
   15580:	40a686b3          	sub	a3,a3,a0
   15584:	40dc06b3          	sub	a3,s8,a3
   15588:	00dc3533          	sltu	a0,s8,a3
   1558c:	40ae8533          	sub	a0,t4,a0
   15590:	0396b333          	mulhu	t1,a3,s9
   15594:	03950533          	mul	a0,a0,s9
   15598:	039686b3          	mul	a3,a3,s9
   1559c:	00650533          	add	a0,a0,t1
   155a0:	01f51513          	slli	a0,a0,0x1f
   155a4:	0016d693          	srli	a3,a3,0x1
   155a8:	00d506b3          	add	a3,a0,a3
   155ac:	00269513          	slli	a0,a3,0x2
   155b0:	00d506b3          	add	a3,a0,a3
   155b4:	00169693          	slli	a3,a3,0x1
   155b8:	40dc06b3          	sub	a3,s8,a3
   155bc:	03068693          	addi	a3,a3,48
   155c0:	fed60fa3          	sb	a3,-1(a2)
   155c4:	f0081ee3          	bne	a6,zero,154e0 <_vfprintf_r+0x1064>
   155c8:	000c0313          	addi	t1,s8,0
   155cc:	000e8513          	addi	a0,t4,0
   155d0:	00078613          	addi	a2,a5,0
   155d4:	f31ff06f          	jal	zero,15504 <_vfprintf_r+0x1088>
   155d8:	000087b7          	lui	a5,0x8
   155dc:	83078793          	addi	a5,a5,-2000 # 7830 <exit-0x8884>
   155e0:	00c12703          	lw	a4,12(sp)
   155e4:	08f11a23          	sh	a5,148(sp)
   155e8:	00c12783          	lw	a5,12(sp)
   155ec:	080109a3          	sb	zero,147(sp)
   155f0:	00072703          	lw	a4,0(a4)
   155f4:	00478793          	addi	a5,a5,4
   155f8:	00000613          	addi	a2,zero,0
   155fc:	060ac8e3          	blt	s5,zero,15e6c <_vfprintf_r+0x19f0>
   15600:	f7fbfe13          	andi	t3,s7,-129
   15604:	002e6b93          	ori	s7,t3,2
   15608:	5a0a92e3          	bne	s5,zero,163ac <_vfprintf_r+0x1f30>
   1560c:	5a0710e3          	bne	a4,zero,163ac <_vfprintf_r+0x1f30>
   15610:	00f12623          	sw	a5,12(sp)
   15614:	00200313          	addi	t1,zero,2
   15618:	07800893          	addi	a7,zero,120
   1561c:	09314e83          	lbu	t4,147(sp)
   15620:	00000a93          	addi	s5,zero,0
   15624:	00000c13          	addi	s8,zero,0
   15628:	00000c93          	addi	s9,zero,0
   1562c:	18010793          	addi	a5,sp,384
   15630:	00012823          	sw	zero,16(sp)
   15634:	c3dff06f          	jal	zero,15270 <_vfprintf_r+0xdf4>
   15638:	020bf793          	andi	a5,s7,32
   1563c:	000794e3          	bne	a5,zero,15e44 <_vfprintf_r+0x19c8>
   15640:	00c12783          	lw	a5,12(sp)
   15644:	010bf713          	andi	a4,s7,16
   15648:	00478793          	addi	a5,a5,4
   1564c:	00070463          	beq	a4,zero,15654 <_vfprintf_r+0x11d8>
   15650:	2650106f          	jal	zero,170b4 <_vfprintf_r+0x2c38>
   15654:	00c12703          	lw	a4,12(sp)
   15658:	040bf693          	andi	a3,s7,64
   1565c:	00072703          	lw	a4,0(a4)
   15660:	5c0684e3          	beq	a3,zero,16428 <_vfprintf_r+0x1fac>
   15664:	01071713          	slli	a4,a4,0x10
   15668:	01075713          	srli	a4,a4,0x10
   1566c:	00f12623          	sw	a5,12(sp)
   15670:	000b8693          	addi	a3,s7,0
   15674:	00000613          	addi	a2,zero,0
   15678:	d3dff06f          	jal	zero,153b4 <_vfprintf_r+0xf38>
   1567c:	020bf793          	andi	a5,s7,32
   15680:	010bee13          	ori	t3,s7,16
   15684:	02079e63          	bne	a5,zero,156c0 <_vfprintf_r+0x1244>
   15688:	00c12783          	lw	a5,12(sp)
   1568c:	00c12703          	lw	a4,12(sp)
   15690:	080109a3          	sb	zero,147(sp)
   15694:	00478793          	addi	a5,a5,4
   15698:	00072c03          	lw	s8,0(a4)
   1569c:	00000e93          	addi	t4,zero,0
   156a0:	680acae3          	blt	s5,zero,16534 <_vfprintf_r+0x20b8>
   156a4:	00f12623          	sw	a5,12(sp)
   156a8:	f7fe7b93          	andi	s7,t3,-129
   156ac:	b80c1ce3          	bne	s8,zero,15244 <_vfprintf_r+0xdc8>
   156b0:	b80a9ae3          	bne	s5,zero,15244 <_vfprintf_r+0xdc8>
   156b4:	00000313          	addi	t1,zero,0
   156b8:	f65ff06f          	jal	zero,1561c <_vfprintf_r+0x11a0>
   156bc:	000b8e13          	addi	t3,s7,0
   156c0:	00c12783          	lw	a5,12(sp)
   156c4:	080109a3          	sb	zero,147(sp)
   156c8:	00778793          	addi	a5,a5,7
   156cc:	ff87f793          	andi	a5,a5,-8
   156d0:	00878713          	addi	a4,a5,8
   156d4:	00e12623          	sw	a4,12(sp)
   156d8:	0007ac03          	lw	s8,0(a5)
   156dc:	0047ae83          	lw	t4,4(a5)
   156e0:	780ac263          	blt	s5,zero,15e64 <_vfprintf_r+0x19e8>
   156e4:	f7fe7b93          	andi	s7,t3,-129
   156e8:	b40a9ce3          	bne	s5,zero,15240 <_vfprintf_r+0xdc4>
   156ec:	01dc67b3          	or	a5,s8,t4
   156f0:	b40798e3          	bne	a5,zero,15240 <_vfprintf_r+0xdc4>
   156f4:	00000313          	addi	t1,zero,0
   156f8:	f25ff06f          	jal	zero,1561c <_vfprintf_r+0x11a0>
   156fc:	000d4883          	lbu	a7,0(s10)
   15700:	008beb93          	ori	s7,s7,8
   15704:	f19fe06f          	jal	zero,1461c <_vfprintf_r+0x1a0>
   15708:	00012703          	lw	a4,0(sp)
   1570c:	41870db3          	sub	s11,a4,s8
   15710:	01b04463          	blt	zero,s11,15718 <_vfprintf_r+0x129c>
   15714:	828ff06f          	jal	zero,1473c <_vfprintf_r+0x2c0>
   15718:	01000e93          	addi	t4,zero,16
   1571c:	0b812583          	lw	a1,184(sp)
   15720:	00070837          	lui	a6,0x70
   15724:	01bec463          	blt	t4,s11,1572c <_vfprintf_r+0x12b0>
   15728:	2050106f          	jal	zero,1712c <_vfprintf_r+0x2cb0>
   1572c:	000d8493          	addi	s1,s11,0
   15730:	02f12e23          	sw	a5,60(sp)
   15734:	000d0d93          	addi	s11,s10,0
   15738:	000b0793          	addi	a5,s6,0
   1573c:	000c8d13          	addi	s10,s9,0
   15740:	00700293          	addi	t0,zero,7
   15744:	000c0c93          	addi	s9,s8,0
   15748:	03112c23          	sw	a7,56(sp)
   1574c:	000a8c13          	addi	s8,s5,0
   15750:	00030b13          	addi	s6,t1,0
   15754:	a9c80a93          	addi	s5,a6,-1380 # 6fa9c <zeroes.0>
   15758:	00c0006f          	jal	zero,15764 <_vfprintf_r+0x12e8>
   1575c:	ff048493          	addi	s1,s1,-16
   15760:	049eda63          	bge	t4,s1,157b4 <_vfprintf_r+0x1338>
   15764:	01060613          	addi	a2,a2,16
   15768:	00158593          	addi	a1,a1,1
   1576c:	0157a023          	sw	s5,0(a5)
   15770:	01d7a223          	sw	t4,4(a5)
   15774:	0ac12e23          	sw	a2,188(sp)
   15778:	0ab12c23          	sw	a1,184(sp)
   1577c:	00878793          	addi	a5,a5,8
   15780:	fcb2dee3          	bge	t0,a1,1575c <_vfprintf_r+0x12e0>
   15784:	00412583          	lw	a1,4(sp)
   15788:	0b410613          	addi	a2,sp,180
   1578c:	00090513          	addi	a0,s2,0
   15790:	649010ef          	jal	ra,175d8 <__sprint_r>
   15794:	0c051063          	bne	a0,zero,15854 <_vfprintf_r+0x13d8>
   15798:	01000e93          	addi	t4,zero,16
   1579c:	ff048493          	addi	s1,s1,-16
   157a0:	0bc12603          	lw	a2,188(sp)
   157a4:	0b812583          	lw	a1,184(sp)
   157a8:	00098793          	addi	a5,s3,0
   157ac:	00700293          	addi	t0,zero,7
   157b0:	fa9ecae3          	blt	t4,s1,15764 <_vfprintf_r+0x12e8>
   157b4:	000b0313          	addi	t1,s6,0
   157b8:	03812883          	lw	a7,56(sp)
   157bc:	00078b13          	addi	s6,a5,0
   157c0:	03c12783          	lw	a5,60(sp)
   157c4:	000a8813          	addi	a6,s5,0
   157c8:	000c0a93          	addi	s5,s8,0
   157cc:	000c8c13          	addi	s8,s9,0
   157d0:	000d0c93          	addi	s9,s10,0
   157d4:	000d8d13          	addi	s10,s11,0
   157d8:	00048d93          	addi	s11,s1,0
   157dc:	01b60633          	add	a2,a2,s11
   157e0:	00158593          	addi	a1,a1,1
   157e4:	010b2023          	sw	a6,0(s6)
   157e8:	01bb2223          	sw	s11,4(s6)
   157ec:	0ac12e23          	sw	a2,188(sp)
   157f0:	0ab12c23          	sw	a1,184(sp)
   157f4:	00700713          	addi	a4,zero,7
   157f8:	008b0b13          	addi	s6,s6,8
   157fc:	00b74463          	blt	a4,a1,15804 <_vfprintf_r+0x1388>
   15800:	f3dfe06f          	jal	zero,1473c <_vfprintf_r+0x2c0>
   15804:	00412583          	lw	a1,4(sp)
   15808:	0b410613          	addi	a2,sp,180
   1580c:	00090513          	addi	a0,s2,0
   15810:	04612023          	sw	t1,64(sp)
   15814:	02f12e23          	sw	a5,60(sp)
   15818:	03112c23          	sw	a7,56(sp)
   1581c:	5bd010ef          	jal	ra,175d8 <__sprint_r>
   15820:	02051a63          	bne	a0,zero,15854 <_vfprintf_r+0x13d8>
   15824:	0bc12603          	lw	a2,188(sp)
   15828:	03812883          	lw	a7,56(sp)
   1582c:	03c12783          	lw	a5,60(sp)
   15830:	04012303          	lw	t1,64(sp)
   15834:	00098b13          	addi	s6,s3,0
   15838:	f05fe06f          	jal	zero,1473c <_vfprintf_r+0x2c0>
   1583c:	00412583          	lw	a1,4(sp)
   15840:	0b410613          	addi	a2,sp,180
   15844:	00090513          	addi	a0,s2,0
   15848:	591010ef          	jal	ra,175d8 <__sprint_r>
   1584c:	00051463          	bne	a0,zero,15854 <_vfprintf_r+0x13d8>
   15850:	f5dfe06f          	jal	zero,147ac <_vfprintf_r+0x330>
   15854:	01012583          	lw	a1,16(sp)
   15858:	00412483          	lw	s1,4(sp)
   1585c:	00058663          	beq	a1,zero,15868 <_vfprintf_r+0x13ec>
   15860:	00090513          	addi	a0,s2,0
   15864:	8a8fe0ef          	jal	ra,1390c <_free_r>
   15868:	00c4d783          	lhu	a5,12(s1)
   1586c:	1b812403          	lw	s0,440(sp)
   15870:	1ac12983          	lw	s3,428(sp)
   15874:	0407f793          	andi	a5,a5,64
   15878:	1a812a03          	lw	s4,424(sp)
   1587c:	1a412a83          	lw	s5,420(sp)
   15880:	1a012b03          	lw	s6,416(sp)
   15884:	19c12b83          	lw	s7,412(sp)
   15888:	19812c03          	lw	s8,408(sp)
   1588c:	19412c83          	lw	s9,404(sp)
   15890:	18c12d83          	lw	s11,396(sp)
   15894:	00078463          	beq	a5,zero,1589c <_vfprintf_r+0x1420>
   15898:	fb5fe06f          	jal	zero,1484c <_vfprintf_r+0x3d0>
   1589c:	1bc12083          	lw	ra,444(sp)
   158a0:	00812503          	lw	a0,8(sp)
   158a4:	1b412483          	lw	s1,436(sp)
   158a8:	1b012903          	lw	s2,432(sp)
   158ac:	19012d03          	lw	s10,400(sp)
   158b0:	1c010113          	addi	sp,sp,448
   158b4:	00008067          	jalr	zero,0(ra)
   158b8:	00012703          	lw	a4,0(sp)
   158bc:	02012023          	sw	zero,32(sp)
   158c0:	00012e23          	sw	zero,28(sp)
   158c4:	41870733          	sub	a4,a4,s8
   158c8:	00000313          	addi	t1,zero,0
   158cc:	28e04a63          	blt	zero,a4,15b60 <_vfprintf_r+0x16e4>
   158d0:	000e9463          	bne	t4,zero,158d8 <_vfprintf_r+0x145c>
   158d4:	e2dfe06f          	jal	zero,14700 <_vfprintf_r+0x284>
   158d8:	00200713          	addi	a4,zero,2
   158dc:	df1fe06f          	jal	zero,146cc <_vfprintf_r+0x250>
   158e0:	00412583          	lw	a1,4(sp)
   158e4:	0b410613          	addi	a2,sp,180
   158e8:	00090513          	addi	a0,s2,0
   158ec:	04612023          	sw	t1,64(sp)
   158f0:	02f12e23          	sw	a5,60(sp)
   158f4:	03112c23          	sw	a7,56(sp)
   158f8:	4e1010ef          	jal	ra,175d8 <__sprint_r>
   158fc:	f4051ce3          	bne	a0,zero,15854 <_vfprintf_r+0x13d8>
   15900:	0bc12603          	lw	a2,188(sp)
   15904:	04012303          	lw	t1,64(sp)
   15908:	03c12783          	lw	a5,60(sp)
   1590c:	03812883          	lw	a7,56(sp)
   15910:	00098b13          	addi	s6,s3,0
   15914:	e1dfe06f          	jal	zero,14730 <_vfprintf_r+0x2b4>
   15918:	01000c93          	addi	s9,zero,16
   1591c:	0b812783          	lw	a5,184(sp)
   15920:	00070837          	lui	a6,0x70
   15924:	015cc463          	blt	s9,s5,1592c <_vfprintf_r+0x14b0>
   15928:	7940106f          	jal	zero,170bc <_vfprintf_r+0x2c40>
   1592c:	00412483          	lw	s1,4(sp)
   15930:	00700d93          	addi	s11,zero,7
   15934:	aac80b93          	addi	s7,a6,-1364 # 6faac <blanks.1>
   15938:	00c0006f          	jal	zero,15944 <_vfprintf_r+0x14c8>
   1593c:	ff0a8a93          	addi	s5,s5,-16
   15940:	055cd663          	bge	s9,s5,1598c <_vfprintf_r+0x1510>
   15944:	01060613          	addi	a2,a2,16
   15948:	00178793          	addi	a5,a5,1
   1594c:	017b2023          	sw	s7,0(s6)
   15950:	019b2223          	sw	s9,4(s6)
   15954:	0ac12e23          	sw	a2,188(sp)
   15958:	0af12c23          	sw	a5,184(sp)
   1595c:	008b0b13          	addi	s6,s6,8
   15960:	fcfddee3          	bge	s11,a5,1593c <_vfprintf_r+0x14c0>
   15964:	0b410613          	addi	a2,sp,180
   15968:	00048593          	addi	a1,s1,0
   1596c:	00090513          	addi	a0,s2,0
   15970:	469010ef          	jal	ra,175d8 <__sprint_r>
   15974:	140514e3          	bne	a0,zero,162bc <_vfprintf_r+0x1e40>
   15978:	ff0a8a93          	addi	s5,s5,-16
   1597c:	0bc12603          	lw	a2,188(sp)
   15980:	0b812783          	lw	a5,184(sp)
   15984:	00098b13          	addi	s6,s3,0
   15988:	fb5ccee3          	blt	s9,s5,15944 <_vfprintf_r+0x14c8>
   1598c:	000b8813          	addi	a6,s7,0
   15990:	01560633          	add	a2,a2,s5
   15994:	00178793          	addi	a5,a5,1
   15998:	0ac12e23          	sw	a2,188(sp)
   1599c:	0af12c23          	sw	a5,184(sp)
   159a0:	010b2023          	sw	a6,0(s6)
   159a4:	015b2223          	sw	s5,4(s6)
   159a8:	00700713          	addi	a4,zero,7
   159ac:	00f74463          	blt	a4,a5,159b4 <_vfprintf_r+0x1538>
   159b0:	dddfe06f          	jal	zero,1478c <_vfprintf_r+0x310>
   159b4:	00412583          	lw	a1,4(sp)
   159b8:	0b410613          	addi	a2,sp,180
   159bc:	00090513          	addi	a0,s2,0
   159c0:	419010ef          	jal	ra,175d8 <__sprint_r>
   159c4:	e80518e3          	bne	a0,zero,15854 <_vfprintf_r+0x13d8>
   159c8:	0bc12603          	lw	a2,188(sp)
   159cc:	dc1fe06f          	jal	zero,1478c <_vfprintf_r+0x310>
   159d0:	18010793          	addi	a5,sp,384
   159d4:	01d61593          	slli	a1,a2,0x1d
   159d8:	00777693          	andi	a3,a4,7
   159dc:	00375713          	srli	a4,a4,0x3
   159e0:	00078513          	addi	a0,a5,0
   159e4:	00e58733          	add	a4,a1,a4
   159e8:	03068693          	addi	a3,a3,48
   159ec:	00365613          	srli	a2,a2,0x3
   159f0:	00c765b3          	or	a1,a4,a2
   159f4:	fed78fa3          	sb	a3,-1(a5)
   159f8:	fff78793          	addi	a5,a5,-1
   159fc:	fc059ce3          	bne	a1,zero,159d4 <_vfprintf_r+0x1558>
   15a00:	fd068693          	addi	a3,a3,-48
   15a04:	00068663          	beq	a3,zero,15a10 <_vfprintf_r+0x1594>
   15a08:	001bf713          	andi	a4,s7,1
   15a0c:	36071a63          	bne	a4,zero,15d80 <_vfprintf_r+0x1904>
   15a10:	18010713          	addi	a4,sp,384
   15a14:	40f70cb3          	sub	s9,a4,a5
   15a18:	000a8c13          	addi	s8,s5,0
   15a1c:	359ac663          	blt	s5,s9,15d68 <_vfprintf_r+0x18ec>
   15a20:	00012823          	sw	zero,16(sp)
   15a24:	02012023          	sw	zero,32(sp)
   15a28:	00012e23          	sw	zero,28(sp)
   15a2c:	00000313          	addi	t1,zero,0
   15a30:	c7dfe06f          	jal	zero,146ac <_vfprintf_r+0x230>
   15a34:	09812503          	lw	a0,152(sp)
   15a38:	78a05663          	bge	zero,a0,161c4 <_vfprintf_r+0x1d48>
   15a3c:	01812703          	lw	a4,24(sp)
   15a40:	00030a93          	addi	s5,t1,0
   15a44:	48674863          	blt	a4,t1,15ed4 <_vfprintf_r+0x1a58>
   15a48:	03505663          	bge	zero,s5,15a74 <_vfprintf_r+0x15f8>
   15a4c:	0b812703          	lw	a4,184(sp)
   15a50:	01560633          	add	a2,a2,s5
   15a54:	00fb2023          	sw	a5,0(s6)
   15a58:	00170713          	addi	a4,a4,1
   15a5c:	015b2223          	sw	s5,4(s6)
   15a60:	0ac12e23          	sw	a2,188(sp)
   15a64:	0ae12c23          	sw	a4,184(sp)
   15a68:	00700593          	addi	a1,zero,7
   15a6c:	008b0b13          	addi	s6,s6,8
   15a70:	54e5c4e3          	blt	a1,a4,167b8 <_vfprintf_r+0x233c>
   15a74:	fffac713          	xori	a4,s5,-1
   15a78:	41f75713          	srai	a4,a4,0x1f
   15a7c:	00eafab3          	and	s5,s5,a4
   15a80:	41530ab3          	sub	s5,t1,s5
   15a84:	55504263          	blt	zero,s5,15fc8 <_vfprintf_r+0x1b4c>
   15a88:	400bf713          	andi	a4,s7,1024
   15a8c:	00678db3          	add	s11,a5,t1
   15a90:	2c0712e3          	bne	a4,zero,16554 <_vfprintf_r+0x20d8>
   15a94:	09812a83          	lw	s5,152(sp)
   15a98:	01812703          	lw	a4,24(sp)
   15a9c:	00eac663          	blt	s5,a4,15aa8 <_vfprintf_r+0x162c>
   15aa0:	001bf713          	andi	a4,s7,1
   15aa4:	5a070ae3          	beq	a4,zero,16858 <_vfprintf_r+0x23dc>
   15aa8:	02412683          	lw	a3,36(sp)
   15aac:	0b812703          	lw	a4,184(sp)
   15ab0:	00700593          	addi	a1,zero,7
   15ab4:	00d60633          	add	a2,a2,a3
   15ab8:	02812683          	lw	a3,40(sp)
   15abc:	00170713          	addi	a4,a4,1
   15ac0:	0ac12e23          	sw	a2,188(sp)
   15ac4:	00db2023          	sw	a3,0(s6)
   15ac8:	02412683          	lw	a3,36(sp)
   15acc:	0ae12c23          	sw	a4,184(sp)
   15ad0:	008b0b13          	addi	s6,s6,8
   15ad4:	fedb2e23          	sw	a3,-4(s6)
   15ad8:	00e5d463          	bge	a1,a4,15ae0 <_vfprintf_r+0x1664>
   15adc:	4b80106f          	jal	zero,16f94 <_vfprintf_r+0x2b18>
   15ae0:	01812703          	lw	a4,24(sp)
   15ae4:	00e787b3          	add	a5,a5,a4
   15ae8:	41b78cb3          	sub	s9,a5,s11
   15aec:	41570ab3          	sub	s5,a4,s5
   15af0:	019ad463          	bge	s5,s9,15af8 <_vfprintf_r+0x167c>
   15af4:	000a8c93          	addi	s9,s5,0
   15af8:	03905863          	bge	zero,s9,15b28 <_vfprintf_r+0x16ac>
   15afc:	0b812703          	lw	a4,184(sp)
   15b00:	01960633          	add	a2,a2,s9
   15b04:	01bb2023          	sw	s11,0(s6)
   15b08:	00170713          	addi	a4,a4,1
   15b0c:	019b2223          	sw	s9,4(s6)
   15b10:	0ac12e23          	sw	a2,188(sp)
   15b14:	0ae12c23          	sw	a4,184(sp)
   15b18:	00700793          	addi	a5,zero,7
   15b1c:	008b0b13          	addi	s6,s6,8
   15b20:	00e7d463          	bge	a5,a4,15b28 <_vfprintf_r+0x16ac>
   15b24:	4ec0106f          	jal	zero,17010 <_vfprintf_r+0x2b94>
   15b28:	fffcc713          	xori	a4,s9,-1
   15b2c:	41f75713          	srai	a4,a4,0x1f
   15b30:	00ecf7b3          	and	a5,s9,a4
   15b34:	40fa8ab3          	sub	s5,s5,a5
   15b38:	01504463          	blt	zero,s5,15b40 <_vfprintf_r+0x16c4>
   15b3c:	c39fe06f          	jal	zero,14774 <_vfprintf_r+0x2f8>
   15b40:	00070837          	lui	a6,0x70
   15b44:	01000c93          	addi	s9,zero,16
   15b48:	0b812783          	lw	a5,184(sp)
   15b4c:	00700d93          	addi	s11,zero,7
   15b50:	a9c80493          	addi	s1,a6,-1380 # 6fa9c <zeroes.0>
   15b54:	515ccc63          	blt	s9,s5,1606c <_vfprintf_r+0x1bf0>
   15b58:	a9c80813          	addi	a6,a6,-1380
   15b5c:	7a40006f          	jal	zero,16300 <_vfprintf_r+0x1e84>
   15b60:	00200d93          	addi	s11,zero,2
   15b64:	01000e93          	addi	t4,zero,16
   15b68:	00080613          	addi	a2,a6,0
   15b6c:	00050593          	addi	a1,a0,0
   15b70:	00070837          	lui	a6,0x70
   15b74:	00eec463          	blt	t4,a4,15b7c <_vfprintf_r+0x1700>
   15b78:	44c0106f          	jal	zero,16fc4 <_vfprintf_r+0x2b48>
   15b7c:	02f12e23          	sw	a5,60(sp)
   15b80:	00700393          	addi	t2,zero,7
   15b84:	000b0793          	addi	a5,s6,0
   15b88:	00070493          	addi	s1,a4,0
   15b8c:	000a8b13          	addi	s6,s5,0
   15b90:	03112c23          	sw	a7,56(sp)
   15b94:	04612023          	sw	t1,64(sp)
   15b98:	aac80a93          	addi	s5,a6,-1364 # 6faac <blanks.1>
   15b9c:	00c0006f          	jal	zero,15ba8 <_vfprintf_r+0x172c>
   15ba0:	ff048493          	addi	s1,s1,-16
   15ba4:	049eda63          	bge	t4,s1,15bf8 <_vfprintf_r+0x177c>
   15ba8:	01060613          	addi	a2,a2,16
   15bac:	00158593          	addi	a1,a1,1
   15bb0:	0157a023          	sw	s5,0(a5)
   15bb4:	01d7a223          	sw	t4,4(a5)
   15bb8:	0ac12e23          	sw	a2,188(sp)
   15bbc:	0ab12c23          	sw	a1,184(sp)
   15bc0:	00878793          	addi	a5,a5,8
   15bc4:	fcb3dee3          	bge	t2,a1,15ba0 <_vfprintf_r+0x1724>
   15bc8:	00412583          	lw	a1,4(sp)
   15bcc:	0b410613          	addi	a2,sp,180
   15bd0:	00090513          	addi	a0,s2,0
   15bd4:	205010ef          	jal	ra,175d8 <__sprint_r>
   15bd8:	c6051ee3          	bne	a0,zero,15854 <_vfprintf_r+0x13d8>
   15bdc:	01000e93          	addi	t4,zero,16
   15be0:	ff048493          	addi	s1,s1,-16
   15be4:	0bc12603          	lw	a2,188(sp)
   15be8:	0b812583          	lw	a1,184(sp)
   15bec:	00098793          	addi	a5,s3,0
   15bf0:	00700393          	addi	t2,zero,7
   15bf4:	fa9ecae3          	blt	t4,s1,15ba8 <_vfprintf_r+0x172c>
   15bf8:	000a8813          	addi	a6,s5,0
   15bfc:	03812883          	lw	a7,56(sp)
   15c00:	000b0a93          	addi	s5,s6,0
   15c04:	04012303          	lw	t1,64(sp)
   15c08:	00078b13          	addi	s6,a5,0
   15c0c:	03c12783          	lw	a5,60(sp)
   15c10:	00048713          	addi	a4,s1,0
   15c14:	00c70633          	add	a2,a4,a2
   15c18:	00158593          	addi	a1,a1,1
   15c1c:	00eb2223          	sw	a4,4(s6)
   15c20:	0ac12e23          	sw	a2,188(sp)
   15c24:	0ab12c23          	sw	a1,184(sp)
   15c28:	010b2023          	sw	a6,0(s6)
   15c2c:	00700713          	addi	a4,zero,7
   15c30:	54b74463          	blt	a4,a1,16178 <_vfprintf_r+0x1cfc>
   15c34:	09314703          	lbu	a4,147(sp)
   15c38:	008b0b13          	addi	s6,s6,8
   15c3c:	12071063          	bne	a4,zero,15d5c <_vfprintf_r+0x18e0>
   15c40:	000d9463          	bne	s11,zero,15c48 <_vfprintf_r+0x17cc>
   15c44:	af9fe06f          	jal	zero,1473c <_vfprintf_r+0x2c0>
   15c48:	00000d93          	addi	s11,zero,0
   15c4c:	ab5fe06f          	jal	zero,14700 <_vfprintf_r+0x284>
   15c50:	0b812503          	lw	a0,184(sp)
   15c54:	f11ff06f          	jal	zero,15b64 <_vfprintf_r+0x16e8>
   15c58:	00000c93          	addi	s9,zero,0
   15c5c:	00000a93          	addi	s5,zero,0
   15c60:	02012023          	sw	zero,32(sp)
   15c64:	00012e23          	sw	zero,28(sp)
   15c68:	00000313          	addi	t1,zero,0
   15c6c:	00012823          	sw	zero,16(sp)
   15c70:	18010793          	addi	a5,sp,384
   15c74:	a39fe06f          	jal	zero,146ac <_vfprintf_r+0x230>
   15c78:	00ebf5b3          	and	a1,s7,a4
   15c7c:	86059863          	bne	a1,zero,14cec <_vfprintf_r+0x870>
   15c80:	00fb2023          	sw	a5,0(s6)
   15c84:	00eb2223          	sw	a4,4(s6)
   15c88:	0ac12e23          	sw	a2,188(sp)
   15c8c:	0b512c23          	sw	s5,184(sp)
   15c90:	00700793          	addi	a5,zero,7
   15c94:	9357d663          	bge	a5,s5,14dc0 <_vfprintf_r+0x944>
   15c98:	00412583          	lw	a1,4(sp)
   15c9c:	0b410613          	addi	a2,sp,180
   15ca0:	00090513          	addi	a0,s2,0
   15ca4:	135010ef          	jal	ra,175d8 <__sprint_r>
   15ca8:	ba0516e3          	bne	a0,zero,15854 <_vfprintf_r+0x13d8>
   15cac:	0bc12603          	lw	a2,188(sp)
   15cb0:	0b812a83          	lw	s5,184(sp)
   15cb4:	00098d93          	addi	s11,s3,0
   15cb8:	908ff06f          	jal	zero,14dc0 <_vfprintf_r+0x944>
   15cbc:	01812703          	lw	a4,24(sp)
   15cc0:	00100793          	addi	a5,zero,1
   15cc4:	8ee7de63          	bge	a5,a4,14dc0 <_vfprintf_r+0x944>
   15cc8:	01100793          	addi	a5,zero,17
   15ccc:	00070837          	lui	a6,0x70
   15cd0:	00e7c463          	blt	a5,a4,15cd8 <_vfprintf_r+0x185c>
   15cd4:	7800106f          	jal	zero,17454 <_vfprintf_r+0x2fd8>
   15cd8:	01000c93          	addi	s9,zero,16
   15cdc:	00700793          	addi	a5,zero,7
   15ce0:	a9c80493          	addi	s1,a6,-1380 # 6fa9c <zeroes.0>
   15ce4:	00c0006f          	jal	zero,15cf0 <_vfprintf_r+0x1874>
   15ce8:	ff0b0b13          	addi	s6,s6,-16
   15cec:	716cd863          	bge	s9,s6,163fc <_vfprintf_r+0x1f80>
   15cf0:	01060613          	addi	a2,a2,16
   15cf4:	001a8a93          	addi	s5,s5,1
   15cf8:	009da023          	sw	s1,0(s11)
   15cfc:	019da223          	sw	s9,4(s11)
   15d00:	0ac12e23          	sw	a2,188(sp)
   15d04:	0b512c23          	sw	s5,184(sp)
   15d08:	008d8d93          	addi	s11,s11,8
   15d0c:	fd57dee3          	bge	a5,s5,15ce8 <_vfprintf_r+0x186c>
   15d10:	00412583          	lw	a1,4(sp)
   15d14:	0b410613          	addi	a2,sp,180
   15d18:	00090513          	addi	a0,s2,0
   15d1c:	0bd010ef          	jal	ra,175d8 <__sprint_r>
   15d20:	b2051ae3          	bne	a0,zero,15854 <_vfprintf_r+0x13d8>
   15d24:	0bc12603          	lw	a2,188(sp)
   15d28:	0b812a83          	lw	s5,184(sp)
   15d2c:	00098d93          	addi	s11,s3,0
   15d30:	00700793          	addi	a5,zero,7
   15d34:	fb5ff06f          	jal	zero,15ce8 <_vfprintf_r+0x186c>
   15d38:	001bf793          	andi	a5,s7,1
   15d3c:	00079463          	bne	a5,zero,15d44 <_vfprintf_r+0x18c8>
   15d40:	a35fe06f          	jal	zero,14774 <_vfprintf_r+0x2f8>
   15d44:	b18ff06f          	jal	zero,1505c <_vfprintf_r+0xbe0>
   15d48:	00c12783          	lw	a5,12(sp)
   15d4c:	000d4883          	lbu	a7,0(s10)
   15d50:	00478793          	addi	a5,a5,4
   15d54:	00f12623          	sw	a5,12(sp)
   15d58:	8c5fe06f          	jal	zero,1461c <_vfprintf_r+0x1a0>
   15d5c:	000d8713          	addi	a4,s11,0
   15d60:	00000d93          	addi	s11,zero,0
   15d64:	969fe06f          	jal	zero,146cc <_vfprintf_r+0x250>
   15d68:	000c8c13          	addi	s8,s9,0
   15d6c:	00012823          	sw	zero,16(sp)
   15d70:	02012023          	sw	zero,32(sp)
   15d74:	00012e23          	sw	zero,28(sp)
   15d78:	00000313          	addi	t1,zero,0
   15d7c:	931fe06f          	jal	zero,146ac <_vfprintf_r+0x230>
   15d80:	ffe50513          	addi	a0,a0,-2
   15d84:	03000713          	addi	a4,zero,48
   15d88:	18010693          	addi	a3,sp,384
   15d8c:	40a68cb3          	sub	s9,a3,a0
   15d90:	fee78fa3          	sb	a4,-1(a5)
   15d94:	000a8c13          	addi	s8,s5,0
   15d98:	019ad463          	bge	s5,s9,15da0 <_vfprintf_r+0x1924>
   15d9c:	000c8c13          	addi	s8,s9,0
   15da0:	00050793          	addi	a5,a0,0
   15da4:	00012823          	sw	zero,16(sp)
   15da8:	02012023          	sw	zero,32(sp)
   15dac:	00012e23          	sw	zero,28(sp)
   15db0:	00000313          	addi	t1,zero,0
   15db4:	8f9fe06f          	jal	zero,146ac <_vfprintf_r+0x230>
   15db8:	00c12783          	lw	a5,12(sp)
   15dbc:	00478793          	addi	a5,a5,4
   15dc0:	00c12703          	lw	a4,12(sp)
   15dc4:	00000613          	addi	a2,zero,0
   15dc8:	00f12623          	sw	a5,12(sp)
   15dcc:	00072703          	lw	a4,0(a4)
   15dd0:	de4ff06f          	jal	zero,153b4 <_vfprintf_r+0xf38>
   15dd4:	00c12783          	lw	a5,12(sp)
   15dd8:	00812683          	lw	a3,8(sp)
   15ddc:	00812603          	lw	a2,8(sp)
   15de0:	0007a783          	lw	a5,0(a5)
   15de4:	41f6d693          	srai	a3,a3,0x1f
   15de8:	00e12623          	sw	a4,12(sp)
   15dec:	00c7a023          	sw	a2,0(a5)
   15df0:	00d7a223          	sw	a3,4(a5)
   15df4:	f94fe06f          	jal	zero,14588 <_vfprintf_r+0x10c>
   15df8:	00c12783          	lw	a5,12(sp)
   15dfc:	00478793          	addi	a5,a5,4
   15e00:	00c12703          	lw	a4,12(sp)
   15e04:	000e0b93          	addi	s7,t3,0
   15e08:	00f12623          	sw	a5,12(sp)
   15e0c:	00072c03          	lw	s8,0(a4)
   15e10:	41fc5e93          	srai	t4,s8,0x1f
   15e14:	000e8713          	addi	a4,t4,0
   15e18:	b34ff06f          	jal	zero,1514c <_vfprintf_r+0xcd0>
   15e1c:	00c12783          	lw	a5,12(sp)
   15e20:	00c12703          	lw	a4,12(sp)
   15e24:	0007a783          	lw	a5,0(a5)
   15e28:	00470713          	addi	a4,a4,4
   15e2c:	00e12623          	sw	a4,12(sp)
   15e30:	0007a603          	lw	a2,0(a5)
   15e34:	0047a683          	lw	a3,4(a5)
   15e38:	0087a703          	lw	a4,8(a5)
   15e3c:	00c7a783          	lw	a5,12(a5)
   15e40:	a61fe06f          	jal	zero,148a0 <_vfprintf_r+0x424>
   15e44:	000b8693          	addi	a3,s7,0
   15e48:	d50ff06f          	jal	zero,15398 <_vfprintf_r+0xf1c>
   15e4c:	09314e83          	lbu	t4,147(sp)
   15e50:	00100c13          	addi	s8,zero,1
   15e54:	00000313          	addi	t1,zero,0
   15e58:	00100c93          	addi	s9,zero,1
   15e5c:	17f10793          	addi	a5,sp,383
   15e60:	c0cff06f          	jal	zero,1526c <_vfprintf_r+0xdf0>
   15e64:	000e0b93          	addi	s7,t3,0
   15e68:	bd8ff06f          	jal	zero,15240 <_vfprintf_r+0xdc4>
   15e6c:	000235b7          	lui	a1,0x23
   15e70:	002beb93          	ori	s7,s7,2
   15e74:	00f12623          	sw	a5,12(sp)
   15e78:	3c058593          	addi	a1,a1,960 # 233c0 <__clzsi2+0xb8>
   15e7c:	00200313          	addi	t1,zero,2
   15e80:	00000e93          	addi	t4,zero,0
   15e84:	07800893          	addi	a7,zero,120
   15e88:	18010793          	addi	a5,sp,384
   15e8c:	00f77693          	andi	a3,a4,15
   15e90:	00d586b3          	add	a3,a1,a3
   15e94:	0006c683          	lbu	a3,0(a3)
   15e98:	00475713          	srli	a4,a4,0x4
   15e9c:	fff78793          	addi	a5,a5,-1
   15ea0:	00d78023          	sb	a3,0(a5)
   15ea4:	01c61693          	slli	a3,a2,0x1c
   15ea8:	00e68733          	add	a4,a3,a4
   15eac:	00465613          	srli	a2,a2,0x4
   15eb0:	00c766b3          	or	a3,a4,a2
   15eb4:	fc069ce3          	bne	a3,zero,15e8c <_vfprintf_r+0x1a10>
   15eb8:	18010713          	addi	a4,sp,384
   15ebc:	40f70cb3          	sub	s9,a4,a5
   15ec0:	000a8c13          	addi	s8,s5,0
   15ec4:	bb9ad463          	bge	s5,s9,1526c <_vfprintf_r+0xdf0>
   15ec8:	000c8c13          	addi	s8,s9,0
   15ecc:	00012823          	sw	zero,16(sp)
   15ed0:	ba0ff06f          	jal	zero,15270 <_vfprintf_r+0xdf4>
   15ed4:	00070a93          	addi	s5,a4,0
   15ed8:	b7504ae3          	blt	zero,s5,15a4c <_vfprintf_r+0x15d0>
   15edc:	b99ff06f          	jal	zero,15a74 <_vfprintf_r+0x15f8>
   15ee0:	fff00a93          	addi	s5,zero,-1
   15ee4:	00068d13          	addi	s10,a3,0
   15ee8:	f38fe06f          	jal	zero,14620 <_vfprintf_r+0x1a4>
   15eec:	001d4883          	lbu	a7,1(s10)
   15ef0:	020beb93          	ori	s7,s7,32
   15ef4:	001d0d13          	addi	s10,s10,1
   15ef8:	f24fe06f          	jal	zero,1461c <_vfprintf_r+0x1a0>
   15efc:	001d4883          	lbu	a7,1(s10)
   15f00:	200beb93          	ori	s7,s7,512
   15f04:	001d0d13          	addi	s10,s10,1
   15f08:	f14fe06f          	jal	zero,1461c <_vfprintf_r+0x1a0>
   15f0c:	00412583          	lw	a1,4(sp)
   15f10:	0b410613          	addi	a2,sp,180
   15f14:	00090513          	addi	a0,s2,0
   15f18:	6c0010ef          	jal	ra,175d8 <__sprint_r>
   15f1c:	92051ce3          	bne	a0,zero,15854 <_vfprintf_r+0x13d8>
   15f20:	0bc12603          	lw	a2,188(sp)
   15f24:	00098b13          	addi	s6,s3,0
   15f28:	968ff06f          	jal	zero,15090 <_vfprintf_r+0xc14>
   15f2c:	000235b7          	lui	a1,0x23
   15f30:	3d458593          	addi	a1,a1,980 # 233d4 <__clzsi2+0xcc>
   15f34:	020bf793          	andi	a5,s7,32
   15f38:	18078a63          	beq	a5,zero,160cc <_vfprintf_r+0x1c50>
   15f3c:	00c12783          	lw	a5,12(sp)
   15f40:	00778793          	addi	a5,a5,7
   15f44:	ff87f793          	andi	a5,a5,-8
   15f48:	00878713          	addi	a4,a5,8
   15f4c:	00e12623          	sw	a4,12(sp)
   15f50:	0047a603          	lw	a2,4(a5)
   15f54:	0007a703          	lw	a4,0(a5)
   15f58:	001bf793          	andi	a5,s7,1
   15f5c:	00c766b3          	or	a3,a4,a2
   15f60:	00078463          	beq	a5,zero,15f68 <_vfprintf_r+0x1aec>
   15f64:	30069263          	bne	a3,zero,16268 <_vfprintf_r+0x1dec>
   15f68:	080109a3          	sb	zero,147(sp)
   15f6c:	1e0ace63          	blt	s5,zero,16168 <_vfprintf_r+0x1cec>
   15f70:	b7fbfb93          	andi	s7,s7,-1153
   15f74:	00000313          	addi	t1,zero,0
   15f78:	000a9463          	bne	s5,zero,15f80 <_vfprintf_r+0x1b04>
   15f7c:	ea068063          	beq	a3,zero,1561c <_vfprintf_r+0x11a0>
   15f80:	09314e83          	lbu	t4,147(sp)
   15f84:	f05ff06f          	jal	zero,15e88 <_vfprintf_r+0x1a0c>
   15f88:	000235b7          	lui	a1,0x23
   15f8c:	3c058593          	addi	a1,a1,960 # 233c0 <__clzsi2+0xb8>
   15f90:	fa5ff06f          	jal	zero,15f34 <_vfprintf_r+0x1ab8>
   15f94:	00600793          	addi	a5,zero,6
   15f98:	000a8c13          	addi	s8,s5,0
   15f9c:	0157eae3          	bltu	a5,s5,167b0 <_vfprintf_r+0x2334>
   15fa0:	000237b7          	lui	a5,0x23
   15fa4:	00912623          	sw	s1,12(sp)
   15fa8:	3e878793          	addi	a5,a5,1000 # 233e8 <__clzsi2+0xe0>
   15fac:	00012823          	sw	zero,16(sp)
   15fb0:	000c0c93          	addi	s9,s8,0
   15fb4:	00000a93          	addi	s5,zero,0
   15fb8:	02012023          	sw	zero,32(sp)
   15fbc:	00012e23          	sw	zero,28(sp)
   15fc0:	00000313          	addi	t1,zero,0
   15fc4:	ee8fe06f          	jal	zero,146ac <_vfprintf_r+0x230>
   15fc8:	01000893          	addi	a7,zero,16
   15fcc:	0b812703          	lw	a4,184(sp)
   15fd0:	00070837          	lui	a6,0x70
   15fd4:	0158c463          	blt	a7,s5,15fdc <_vfprintf_r+0x1b60>
   15fd8:	4a80106f          	jal	zero,17480 <_vfprintf_r+0x3004>
   15fdc:	000a8493          	addi	s1,s5,0
   15fe0:	00700c93          	addi	s9,zero,7
   15fe4:	00078d93          	addi	s11,a5,0
   15fe8:	02612c23          	sw	t1,56(sp)
   15fec:	a9c80a93          	addi	s5,a6,-1380 # 6fa9c <zeroes.0>
   15ff0:	00c0006f          	jal	zero,15ffc <_vfprintf_r+0x1b80>
   15ff4:	ff048493          	addi	s1,s1,-16
   15ff8:	7498da63          	bge	a7,s1,1674c <_vfprintf_r+0x22d0>
   15ffc:	01060613          	addi	a2,a2,16
   16000:	00170713          	addi	a4,a4,1
   16004:	015b2023          	sw	s5,0(s6)
   16008:	011b2223          	sw	a7,4(s6)
   1600c:	0ac12e23          	sw	a2,188(sp)
   16010:	0ae12c23          	sw	a4,184(sp)
   16014:	008b0b13          	addi	s6,s6,8
   16018:	fcecdee3          	bge	s9,a4,15ff4 <_vfprintf_r+0x1b78>
   1601c:	00412583          	lw	a1,4(sp)
   16020:	0b410613          	addi	a2,sp,180
   16024:	00090513          	addi	a0,s2,0
   16028:	5b0010ef          	jal	ra,175d8 <__sprint_r>
   1602c:	820514e3          	bne	a0,zero,15854 <_vfprintf_r+0x13d8>
   16030:	0bc12603          	lw	a2,188(sp)
   16034:	0b812703          	lw	a4,184(sp)
   16038:	00098b13          	addi	s6,s3,0
   1603c:	01000893          	addi	a7,zero,16
   16040:	fb5ff06f          	jal	zero,15ff4 <_vfprintf_r+0x1b78>
   16044:	00412583          	lw	a1,4(sp)
   16048:	0b410613          	addi	a2,sp,180
   1604c:	00090513          	addi	a0,s2,0
   16050:	588010ef          	jal	ra,175d8 <__sprint_r>
   16054:	800510e3          	bne	a0,zero,15854 <_vfprintf_r+0x13d8>
   16058:	0bc12603          	lw	a2,188(sp)
   1605c:	0b812783          	lw	a5,184(sp)
   16060:	00098b13          	addi	s6,s3,0
   16064:	ff0a8a93          	addi	s5,s5,-16
   16068:	295cda63          	bge	s9,s5,162fc <_vfprintf_r+0x1e80>
   1606c:	01060613          	addi	a2,a2,16
   16070:	00178793          	addi	a5,a5,1
   16074:	009b2023          	sw	s1,0(s6)
   16078:	019b2223          	sw	s9,4(s6)
   1607c:	0ac12e23          	sw	a2,188(sp)
   16080:	0af12c23          	sw	a5,184(sp)
   16084:	008b0b13          	addi	s6,s6,8
   16088:	fcfddee3          	bge	s11,a5,16064 <_vfprintf_r+0x1be8>
   1608c:	fb9ff06f          	jal	zero,16044 <_vfprintf_r+0x1bc8>
   16090:	00078513          	addi	a0,a5,0
   16094:	01112823          	sw	a7,16(sp)
   16098:	00f12623          	sw	a5,12(sp)
   1609c:	474020ef          	jal	ra,18510 <strlen>
   160a0:	09314703          	lbu	a4,147(sp)
   160a4:	fff54693          	xori	a3,a0,-1
   160a8:	41f6d693          	srai	a3,a3,0x1f
   160ac:	00c12783          	lw	a5,12(sp)
   160b0:	01012883          	lw	a7,16(sp)
   160b4:	00050c93          	addi	s9,a0,0
   160b8:	00d57c33          	and	s8,a0,a3
   160bc:	00071463          	bne	a4,zero,160c4 <_vfprintf_r+0x1c48>
   160c0:	dbdfe06f          	jal	zero,14e7c <_vfprintf_r+0xa00>
   160c4:	001c0c13          	addi	s8,s8,1
   160c8:	db5fe06f          	jal	zero,14e7c <_vfprintf_r+0xa00>
   160cc:	00c12683          	lw	a3,12(sp)
   160d0:	00c12703          	lw	a4,12(sp)
   160d4:	010bf793          	andi	a5,s7,16
   160d8:	00468693          	addi	a3,a3,4
   160dc:	00d12623          	sw	a3,12(sp)
   160e0:	00072703          	lw	a4,0(a4)
   160e4:	06079e63          	bne	a5,zero,16160 <_vfprintf_r+0x1ce4>
   160e8:	040bf793          	andi	a5,s7,64
   160ec:	06078663          	beq	a5,zero,16158 <_vfprintf_r+0x1cdc>
   160f0:	01071713          	slli	a4,a4,0x10
   160f4:	01075713          	srli	a4,a4,0x10
   160f8:	00000613          	addi	a2,zero,0
   160fc:	e5dff06f          	jal	zero,15f58 <_vfprintf_r+0x1adc>
   16100:	00412583          	lw	a1,4(sp)
   16104:	0b410613          	addi	a2,sp,180
   16108:	00090513          	addi	a0,s2,0
   1610c:	00f12e23          	sw	a5,28(sp)
   16110:	4c8010ef          	jal	ra,175d8 <__sprint_r>
   16114:	f4051063          	bne	a0,zero,15854 <_vfprintf_r+0x13d8>
   16118:	0bc12603          	lw	a2,188(sp)
   1611c:	0b812a83          	lw	s5,184(sp)
   16120:	01c12783          	lw	a5,28(sp)
   16124:	00098d93          	addi	s11,s3,0
   16128:	be5fe06f          	jal	zero,14d0c <_vfprintf_r+0x890>
   1612c:	00412583          	lw	a1,4(sp)
   16130:	0b410613          	addi	a2,sp,180
   16134:	00090513          	addi	a0,s2,0
   16138:	00f12e23          	sw	a5,28(sp)
   1613c:	49c010ef          	jal	ra,175d8 <__sprint_r>
   16140:	f0051a63          	bne	a0,zero,15854 <_vfprintf_r+0x13d8>
   16144:	0bc12603          	lw	a2,188(sp)
   16148:	0b812a83          	lw	s5,184(sp)
   1614c:	01c12783          	lw	a5,28(sp)
   16150:	00098d93          	addi	s11,s3,0
   16154:	bedfe06f          	jal	zero,14d40 <_vfprintf_r+0x8c4>
   16158:	200bf793          	andi	a5,s7,512
   1615c:	74079e63          	bne	a5,zero,168b8 <_vfprintf_r+0x243c>
   16160:	00000613          	addi	a2,zero,0
   16164:	df5ff06f          	jal	zero,15f58 <_vfprintf_r+0x1adc>
   16168:	bffbfb93          	andi	s7,s7,-1025
   1616c:	00000313          	addi	t1,zero,0
   16170:	00000e93          	addi	t4,zero,0
   16174:	d15ff06f          	jal	zero,15e88 <_vfprintf_r+0x1a0c>
   16178:	00412583          	lw	a1,4(sp)
   1617c:	0b410613          	addi	a2,sp,180
   16180:	00090513          	addi	a0,s2,0
   16184:	04612023          	sw	t1,64(sp)
   16188:	02f12e23          	sw	a5,60(sp)
   1618c:	03112c23          	sw	a7,56(sp)
   16190:	448010ef          	jal	ra,175d8 <__sprint_r>
   16194:	ec051063          	bne	a0,zero,15854 <_vfprintf_r+0x13d8>
   16198:	09314703          	lbu	a4,147(sp)
   1619c:	0bc12603          	lw	a2,188(sp)
   161a0:	03812883          	lw	a7,56(sp)
   161a4:	03c12783          	lw	a5,60(sp)
   161a8:	04012303          	lw	t1,64(sp)
   161ac:	22070e63          	beq	a4,zero,163e8 <_vfprintf_r+0x1f6c>
   161b0:	000d8713          	addi	a4,s11,0
   161b4:	0b812583          	lw	a1,184(sp)
   161b8:	00000d93          	addi	s11,zero,0
   161bc:	00098b13          	addi	s6,s3,0
   161c0:	d0cfe06f          	jal	zero,146cc <_vfprintf_r+0x250>
   161c4:	0b812703          	lw	a4,184(sp)
   161c8:	000235b7          	lui	a1,0x23
   161cc:	3f058593          	addi	a1,a1,1008 # 233f0 <__clzsi2+0xe8>
   161d0:	00bb2023          	sw	a1,0(s6)
   161d4:	00160613          	addi	a2,a2,1
   161d8:	00100593          	addi	a1,zero,1
   161dc:	00170713          	addi	a4,a4,1
   161e0:	00bb2223          	sw	a1,4(s6)
   161e4:	0ac12e23          	sw	a2,188(sp)
   161e8:	0ae12c23          	sw	a4,184(sp)
   161ec:	00700593          	addi	a1,zero,7
   161f0:	008b0b13          	addi	s6,s6,8
   161f4:	44e5c0e3          	blt	a1,a4,16e34 <_vfprintf_r+0x29b8>
   161f8:	01812703          	lw	a4,24(sp)
   161fc:	00a76733          	or	a4,a4,a0
   16200:	5e070463          	beq	a4,zero,167e8 <_vfprintf_r+0x236c>
   16204:	02412683          	lw	a3,36(sp)
   16208:	0b812703          	lw	a4,184(sp)
   1620c:	00700593          	addi	a1,zero,7
   16210:	00c68633          	add	a2,a3,a2
   16214:	02812683          	lw	a3,40(sp)
   16218:	00170713          	addi	a4,a4,1
   1621c:	0ac12e23          	sw	a2,188(sp)
   16220:	00db2023          	sw	a3,0(s6)
   16224:	02412683          	lw	a3,36(sp)
   16228:	0ae12c23          	sw	a4,184(sp)
   1622c:	008b0b13          	addi	s6,s6,8
   16230:	fedb2e23          	sw	a3,-4(s6)
   16234:	5ee5c863          	blt	a1,a4,16824 <_vfprintf_r+0x23a8>
   16238:	600544e3          	blt	a0,zero,17040 <_vfprintf_r+0x2bc4>
   1623c:	01812683          	lw	a3,24(sp)
   16240:	00170713          	addi	a4,a4,1
   16244:	00fb2023          	sw	a5,0(s6)
   16248:	00c68633          	add	a2,a3,a2
   1624c:	0ac12e23          	sw	a2,188(sp)
   16250:	0ae12c23          	sw	a4,184(sp)
   16254:	00db2223          	sw	a3,4(s6)
   16258:	00700793          	addi	a5,zero,7
   1625c:	00e7c463          	blt	a5,a4,16264 <_vfprintf_r+0x1de8>
   16260:	d10fe06f          	jal	zero,14770 <_vfprintf_r+0x2f4>
   16264:	b8dfe06f          	jal	zero,14df0 <_vfprintf_r+0x974>
   16268:	03000793          	addi	a5,zero,48
   1626c:	09110aa3          	sb	a7,149(sp)
   16270:	080109a3          	sb	zero,147(sp)
   16274:	08f10a23          	sb	a5,148(sp)
   16278:	2c0ac463          	blt	s5,zero,16540 <_vfprintf_r+0x20c4>
   1627c:	b7fbfe13          	andi	t3,s7,-1153
   16280:	09314e83          	lbu	t4,147(sp)
   16284:	002e6b93          	ori	s7,t3,2
   16288:	00200313          	addi	t1,zero,2
   1628c:	bfdff06f          	jal	zero,15e88 <_vfprintf_r+0x1a0c>
   16290:	00090513          	addi	a0,s2,0
   16294:	d21fc0ef          	jal	ra,12fb4 <__sinit>
   16298:	a34fe06f          	jal	zero,144cc <_vfprintf_r+0x50>
   1629c:	00412583          	lw	a1,4(sp)
   162a0:	0b410613          	addi	a2,sp,180
   162a4:	00090513          	addi	a0,s2,0
   162a8:	330010ef          	jal	ra,175d8 <__sprint_r>
   162ac:	da051463          	bne	a0,zero,15854 <_vfprintf_r+0x13d8>
   162b0:	0bc12603          	lw	a2,188(sp)
   162b4:	00098b13          	addi	s6,s3,0
   162b8:	d99fe06f          	jal	zero,15050 <_vfprintf_r+0xbd4>
   162bc:	01012583          	lw	a1,16(sp)
   162c0:	d9cff06f          	jal	zero,1585c <_vfprintf_r+0x13e0>
   162c4:	640e9863          	bne	t4,zero,16914 <_vfprintf_r+0x2498>
   162c8:	00900713          	addi	a4,zero,9
   162cc:	65876463          	bltu	a4,s8,16914 <_vfprintf_r+0x2498>
   162d0:	18010713          	addi	a4,sp,384
   162d4:	00b12c23          	sw	a1,24(sp)
   162d8:	40f70cb3          	sub	s9,a4,a5
   162dc:	00048893          	addi	a7,s1,0
   162e0:	000a8c13          	addi	s8,s5,0
   162e4:	019ad463          	bge	s5,s9,162ec <_vfprintf_r+0x1e70>
   162e8:	000c8c13          	addi	s8,s9,0
   162ec:	09314e83          	lbu	t4,147(sp)
   162f0:	00000313          	addi	t1,zero,0
   162f4:	00012823          	sw	zero,16(sp)
   162f8:	f79fe06f          	jal	zero,15270 <_vfprintf_r+0xdf4>
   162fc:	00048813          	addi	a6,s1,0
   16300:	01560633          	add	a2,a2,s5
   16304:	00178793          	addi	a5,a5,1
   16308:	0ac12e23          	sw	a2,188(sp)
   1630c:	0af12c23          	sw	a5,184(sp)
   16310:	010b2023          	sw	a6,0(s6)
   16314:	015b2223          	sw	s5,4(s6)
   16318:	00700713          	addi	a4,zero,7
   1631c:	00f74463          	blt	a4,a5,16324 <_vfprintf_r+0x1ea8>
   16320:	c50fe06f          	jal	zero,14770 <_vfprintf_r+0x2f4>
   16324:	acdfe06f          	jal	zero,14df0 <_vfprintf_r+0x974>
   16328:	0c012703          	lw	a4,192(sp)
   1632c:	0c412783          	lw	a5,196(sp)
   16330:	07010593          	addi	a1,sp,112
   16334:	08e12023          	sw	a4,128(sp)
   16338:	08f12223          	sw	a5,132(sp)
   1633c:	0c812703          	lw	a4,200(sp)
   16340:	0cc12783          	lw	a5,204(sp)
   16344:	08010513          	addi	a0,sp,128
   16348:	06012823          	sw	zero,112(sp)
   1634c:	06012a23          	sw	zero,116(sp)
   16350:	06012c23          	sw	zero,120(sp)
   16354:	06012e23          	sw	zero,124(sp)
   16358:	08e12423          	sw	a4,136(sp)
   1635c:	08f12623          	sw	a5,140(sp)
   16360:	7580a0ef          	jal	ra,20ab8 <__letf2>
   16364:	01012883          	lw	a7,16(sp)
   16368:	f7fbfb93          	andi	s7,s7,-129
   1636c:	400546e3          	blt	a0,zero,16f78 <_vfprintf_r+0x2afc>
   16370:	04700793          	addi	a5,zero,71
   16374:	09314703          	lbu	a4,147(sp)
   16378:	5917c863          	blt	a5,a7,16908 <_vfprintf_r+0x248c>
   1637c:	000237b7          	lui	a5,0x23
   16380:	3b078793          	addi	a5,a5,944 # 233b0 <__clzsi2+0xa8>
   16384:	18071863          	bne	a4,zero,16514 <_vfprintf_r+0x2098>
   16388:	00300c93          	addi	s9,zero,3
   1638c:	000c8c13          	addi	s8,s9,0
   16390:	af1fe06f          	jal	zero,14e80 <_vfprintf_r+0xa04>
   16394:	00c12783          	lw	a5,12(sp)
   16398:	00812683          	lw	a3,8(sp)
   1639c:	0007a783          	lw	a5,0(a5)
   163a0:	00d7a023          	sw	a3,0(a5)
   163a4:	00e12623          	sw	a4,12(sp)
   163a8:	9e0fe06f          	jal	zero,14588 <_vfprintf_r+0x10c>
   163ac:	000235b7          	lui	a1,0x23
   163b0:	09314e83          	lbu	t4,147(sp)
   163b4:	00f12623          	sw	a5,12(sp)
   163b8:	3c058593          	addi	a1,a1,960 # 233c0 <__clzsi2+0xb8>
   163bc:	07800893          	addi	a7,zero,120
   163c0:	00200313          	addi	t1,zero,2
   163c4:	ac5ff06f          	jal	zero,15e88 <_vfprintf_r+0x1a0c>
   163c8:	0bc12783          	lw	a5,188(sp)
   163cc:	00412483          	lw	s1,4(sp)
   163d0:	c8078c63          	beq	a5,zero,15868 <_vfprintf_r+0x13ec>
   163d4:	00090513          	addi	a0,s2,0
   163d8:	0b410613          	addi	a2,sp,180
   163dc:	00048593          	addi	a1,s1,0
   163e0:	1f8010ef          	jal	ra,175d8 <__sprint_r>
   163e4:	c84ff06f          	jal	zero,15868 <_vfprintf_r+0x13ec>
   163e8:	480d8663          	beq	s11,zero,16874 <_vfprintf_r+0x23f8>
   163ec:	0b812583          	lw	a1,184(sp)
   163f0:	00000d93          	addi	s11,zero,0
   163f4:	00098b13          	addi	s6,s3,0
   163f8:	b08fe06f          	jal	zero,14700 <_vfprintf_r+0x284>
   163fc:	00048813          	addi	a6,s1,0
   16400:	01660633          	add	a2,a2,s6
   16404:	001a8a93          	addi	s5,s5,1
   16408:	0ac12e23          	sw	a2,188(sp)
   1640c:	0b512c23          	sw	s5,184(sp)
   16410:	010da023          	sw	a6,0(s11)
   16414:	016da223          	sw	s6,4(s11)
   16418:	00700793          	addi	a5,zero,7
   1641c:	0157c463          	blt	a5,s5,16424 <_vfprintf_r+0x1fa8>
   16420:	99dfe06f          	jal	zero,14dbc <_vfprintf_r+0x940>
   16424:	875ff06f          	jal	zero,15c98 <_vfprintf_r+0x181c>
   16428:	200bf693          	andi	a3,s7,512
   1642c:	48068c63          	beq	a3,zero,168c4 <_vfprintf_r+0x2448>
   16430:	0ff77713          	andi	a4,a4,255
   16434:	00f12623          	sw	a5,12(sp)
   16438:	000b8693          	addi	a3,s7,0
   1643c:	00000613          	addi	a2,zero,0
   16440:	f75fe06f          	jal	zero,153b4 <_vfprintf_r+0xf38>
   16444:	200bf313          	andi	t1,s7,512
   16448:	080109a3          	sb	zero,147(sp)
   1644c:	44031c63          	bne	t1,zero,168a4 <_vfprintf_r+0x2428>
   16450:	00000e93          	addi	t4,zero,0
   16454:	000ad463          	bge	s5,zero,1645c <_vfprintf_r+0x1fe0>
   16458:	dedfe06f          	jal	zero,15244 <_vfprintf_r+0xdc8>
   1645c:	f7fbfb93          	andi	s7,s7,-129
   16460:	000a8463          	beq	s5,zero,16468 <_vfprintf_r+0x1fec>
   16464:	de1fe06f          	jal	zero,15244 <_vfprintf_r+0xdc8>
   16468:	9a0c0a63          	beq	s8,zero,1561c <_vfprintf_r+0x11a0>
   1646c:	dd9fe06f          	jal	zero,15244 <_vfprintf_r+0xdc8>
   16470:	200bf713          	andi	a4,s7,512
   16474:	42070063          	beq	a4,zero,16894 <_vfprintf_r+0x2418>
   16478:	018c1c13          	slli	s8,s8,0x18
   1647c:	418c5c13          	srai	s8,s8,0x18
   16480:	41fc5e93          	srai	t4,s8,0x1f
   16484:	00f12623          	sw	a5,12(sp)
   16488:	000e8713          	addi	a4,t4,0
   1648c:	cc1fe06f          	jal	zero,1514c <_vfprintf_r+0xcd0>
   16490:	00012823          	sw	zero,16(sp)
   16494:	00000c93          	addi	s9,zero,0
   16498:	02012023          	sw	zero,32(sp)
   1649c:	00012e23          	sw	zero,28(sp)
   164a0:	00000313          	addi	t1,zero,0
   164a4:	18010793          	addi	a5,sp,384
   164a8:	00000c13          	addi	s8,zero,0
   164ac:	a00fe06f          	jal	zero,146ac <_vfprintf_r+0x230>
   164b0:	100be713          	ori	a4,s7,256
   164b4:	fff00793          	addi	a5,zero,-1
   164b8:	00e12823          	sw	a4,16(sp)
   164bc:	0c012e83          	lw	t4,192(sp)
   164c0:	0c412f03          	lw	t5,196(sp)
   164c4:	0c812283          	lw	t0,200(sp)
   164c8:	0cc12c83          	lw	s9,204(sp)
   164cc:	56fa8463          	beq	s5,a5,16a34 <_vfprintf_r+0x25b8>
   164d0:	fb9c0793          	addi	a5,s8,-71
   164d4:	00079463          	bne	a5,zero,164dc <_vfprintf_r+0x2060>
   164d8:	6e0a8263          	beq	s5,zero,16bbc <_vfprintf_r+0x2740>
   164dc:	420ccee3          	blt	s9,zero,17118 <_vfprintf_r+0x2c9c>
   164e0:	02012c23          	sw	zero,56(sp)
   164e4:	55c0006f          	jal	zero,16a40 <_vfprintf_r+0x25c4>
   164e8:	0cc12f83          	lw	t6,204(sp)
   164ec:	800007b7          	lui	a5,0x80000
   164f0:	f7fbfb93          	andi	s7,s7,-129
   164f4:	00fff333          	and	t1,t6,a5
   164f8:	3c030e63          	beq	t1,zero,168d4 <_vfprintf_r+0x2458>
   164fc:	02d00793          	addi	a5,zero,45
   16500:	08f109a3          	sb	a5,147(sp)
   16504:	04700793          	addi	a5,zero,71
   16508:	4f17d6e3          	bge	a5,a7,171f4 <_vfprintf_r+0x2d78>
   1650c:	000237b7          	lui	a5,0x23
   16510:	3bc78793          	addi	a5,a5,956 # 233bc <__clzsi2+0xb4>
   16514:	00012823          	sw	zero,16(sp)
   16518:	00300c93          	addi	s9,zero,3
   1651c:	00000a93          	addi	s5,zero,0
   16520:	02012023          	sw	zero,32(sp)
   16524:	00012e23          	sw	zero,28(sp)
   16528:	00000313          	addi	t1,zero,0
   1652c:	00400c13          	addi	s8,zero,4
   16530:	97cfe06f          	jal	zero,146ac <_vfprintf_r+0x230>
   16534:	00f12623          	sw	a5,12(sp)
   16538:	000e0b93          	addi	s7,t3,0
   1653c:	d09fe06f          	jal	zero,15244 <_vfprintf_r+0xdc8>
   16540:	bffbfe13          	andi	t3,s7,-1025
   16544:	002e6b93          	ori	s7,t3,2
   16548:	00200313          	addi	t1,zero,2
   1654c:	00000e93          	addi	t4,zero,0
   16550:	939ff06f          	jal	zero,15e88 <_vfprintf_r+0x1a0c>
   16554:	01c12703          	lw	a4,28(sp)
   16558:	02012683          	lw	a3,32(sp)
   1655c:	00d76733          	or	a4,a4,a3
   16560:	72070ee3          	beq	a4,zero,1749c <_vfprintf_r+0x3020>
   16564:	01812703          	lw	a4,24(sp)
   16568:	03712e23          	sw	s7,60(sp)
   1656c:	05812023          	sw	s8,64(sp)
   16570:	000d8b93          	addi	s7,s11,0
   16574:	05a12423          	sw	s10,72(sp)
   16578:	01c12a83          	lw	s5,28(sp)
   1657c:	02012d83          	lw	s11,32(sp)
   16580:	04412c03          	lw	s8,68(sp)
   16584:	03012d03          	lw	s10,48(sp)
   16588:	000708b7          	lui	a7,0x70
   1658c:	000b0693          	addi	a3,s6,0
   16590:	a9c88893          	addi	a7,a7,-1380 # 6fa9c <zeroes.0>
   16594:	00700813          	addi	a6,zero,7
   16598:	01000c93          	addi	s9,zero,16
   1659c:	02f12c23          	sw	a5,56(sp)
   165a0:	00e78b33          	add	s6,a5,a4
   165a4:	09b04a63          	blt	zero,s11,16638 <_vfprintf_r+0x21bc>
   165a8:	fffd0d13          	addi	s10,s10,-1
   165ac:	fffa8a93          	addi	s5,s5,-1
   165b0:	0b812783          	lw	a5,184(sp)
   165b4:	03412703          	lw	a4,52(sp)
   165b8:	01860633          	add	a2,a2,s8
   165bc:	00178793          	addi	a5,a5,1
   165c0:	00e6a023          	sw	a4,0(a3)
   165c4:	0186a223          	sw	s8,4(a3)
   165c8:	0ac12e23          	sw	a2,188(sp)
   165cc:	0af12c23          	sw	a5,184(sp)
   165d0:	00868693          	addi	a3,a3,8
   165d4:	10f84a63          	blt	a6,a5,166e8 <_vfprintf_r+0x226c>
   165d8:	000d4583          	lbu	a1,0(s10)
   165dc:	417b04b3          	sub	s1,s6,s7
   165e0:	000b0713          	addi	a4,s6,0
   165e4:	0095d463          	bge	a1,s1,165ec <_vfprintf_r+0x2170>
   165e8:	00058493          	addi	s1,a1,0
   165ec:	02905663          	bge	zero,s1,16618 <_vfprintf_r+0x219c>
   165f0:	0b812583          	lw	a1,184(sp)
   165f4:	00960633          	add	a2,a2,s1
   165f8:	0ac12e23          	sw	a2,188(sp)
   165fc:	00158593          	addi	a1,a1,1
   16600:	0176a023          	sw	s7,0(a3)
   16604:	0096a223          	sw	s1,4(a3)
   16608:	0ab12c23          	sw	a1,184(sp)
   1660c:	10b84463          	blt	a6,a1,16714 <_vfprintf_r+0x2298>
   16610:	000d4583          	lbu	a1,0(s10)
   16614:	00868693          	addi	a3,a3,8
   16618:	fff4c513          	xori	a0,s1,-1
   1661c:	41f55513          	srai	a0,a0,0x1f
   16620:	00a4f7b3          	and	a5,s1,a0
   16624:	40f584b3          	sub	s1,a1,a5
   16628:	00904c63          	blt	zero,s1,16640 <_vfprintf_r+0x21c4>
   1662c:	00bb8bb3          	add	s7,s7,a1
   16630:	f7504ae3          	blt	zero,s5,165a4 <_vfprintf_r+0x2128>
   16634:	55b05e63          	bge	zero,s11,16b90 <_vfprintf_r+0x2714>
   16638:	fffd8d93          	addi	s11,s11,-1
   1663c:	f75ff06f          	jal	zero,165b0 <_vfprintf_r+0x2134>
   16640:	000702b7          	lui	t0,0x70
   16644:	0b812583          	lw	a1,184(sp)
   16648:	a9c28293          	addi	t0,t0,-1380 # 6fa9c <zeroes.0>
   1664c:	069cda63          	bge	s9,s1,166c0 <_vfprintf_r+0x2244>
   16650:	00e12e23          	sw	a4,28(sp)
   16654:	03112023          	sw	a7,32(sp)
   16658:	00c0006f          	jal	zero,16664 <_vfprintf_r+0x21e8>
   1665c:	ff048493          	addi	s1,s1,-16
   16660:	049cdc63          	bge	s9,s1,166b8 <_vfprintf_r+0x223c>
   16664:	01060613          	addi	a2,a2,16
   16668:	00158593          	addi	a1,a1,1
   1666c:	0116a023          	sw	a7,0(a3)
   16670:	0196a223          	sw	s9,4(a3)
   16674:	0ac12e23          	sw	a2,188(sp)
   16678:	0ab12c23          	sw	a1,184(sp)
   1667c:	00868693          	addi	a3,a3,8
   16680:	fcb85ee3          	bge	a6,a1,1665c <_vfprintf_r+0x21e0>
   16684:	00412583          	lw	a1,4(sp)
   16688:	0b410613          	addi	a2,sp,180
   1668c:	00090513          	addi	a0,s2,0
   16690:	749000ef          	jal	ra,175d8 <__sprint_r>
   16694:	9c051063          	bne	a0,zero,15854 <_vfprintf_r+0x13d8>
   16698:	000707b7          	lui	a5,0x70
   1669c:	ff048493          	addi	s1,s1,-16
   166a0:	0bc12603          	lw	a2,188(sp)
   166a4:	0b812583          	lw	a1,184(sp)
   166a8:	00098693          	addi	a3,s3,0
   166ac:	a9c78893          	addi	a7,a5,-1380 # 6fa9c <zeroes.0>
   166b0:	00700813          	addi	a6,zero,7
   166b4:	fa9cc8e3          	blt	s9,s1,16664 <_vfprintf_r+0x21e8>
   166b8:	01c12703          	lw	a4,28(sp)
   166bc:	02012283          	lw	t0,32(sp)
   166c0:	00960633          	add	a2,a2,s1
   166c4:	00158593          	addi	a1,a1,1
   166c8:	0ac12e23          	sw	a2,188(sp)
   166cc:	0ab12c23          	sw	a1,184(sp)
   166d0:	0056a023          	sw	t0,0(a3)
   166d4:	0096a223          	sw	s1,4(a3)
   166d8:	78b84663          	blt	a6,a1,16e64 <_vfprintf_r+0x29e8>
   166dc:	000d4583          	lbu	a1,0(s10)
   166e0:	00868693          	addi	a3,a3,8
   166e4:	f49ff06f          	jal	zero,1662c <_vfprintf_r+0x21b0>
   166e8:	00412583          	lw	a1,4(sp)
   166ec:	0b410613          	addi	a2,sp,180
   166f0:	00090513          	addi	a0,s2,0
   166f4:	6e5000ef          	jal	ra,175d8 <__sprint_r>
   166f8:	94051e63          	bne	a0,zero,15854 <_vfprintf_r+0x13d8>
   166fc:	000707b7          	lui	a5,0x70
   16700:	0bc12603          	lw	a2,188(sp)
   16704:	00098693          	addi	a3,s3,0
   16708:	a9c78893          	addi	a7,a5,-1380 # 6fa9c <zeroes.0>
   1670c:	00700813          	addi	a6,zero,7
   16710:	ec9ff06f          	jal	zero,165d8 <_vfprintf_r+0x215c>
   16714:	00412583          	lw	a1,4(sp)
   16718:	0b410613          	addi	a2,sp,180
   1671c:	00090513          	addi	a0,s2,0
   16720:	00e12e23          	sw	a4,28(sp)
   16724:	6b5000ef          	jal	ra,175d8 <__sprint_r>
   16728:	92051663          	bne	a0,zero,15854 <_vfprintf_r+0x13d8>
   1672c:	000707b7          	lui	a5,0x70
   16730:	000d4583          	lbu	a1,0(s10)
   16734:	0bc12603          	lw	a2,188(sp)
   16738:	01c12703          	lw	a4,28(sp)
   1673c:	00098693          	addi	a3,s3,0
   16740:	a9c78893          	addi	a7,a5,-1380 # 6fa9c <zeroes.0>
   16744:	00700813          	addi	a6,zero,7
   16748:	ed1ff06f          	jal	zero,16618 <_vfprintf_r+0x219c>
   1674c:	03812303          	lw	t1,56(sp)
   16750:	000a8813          	addi	a6,s5,0
   16754:	000d8793          	addi	a5,s11,0
   16758:	00048a93          	addi	s5,s1,0
   1675c:	01560633          	add	a2,a2,s5
   16760:	00170713          	addi	a4,a4,1
   16764:	010b2023          	sw	a6,0(s6)
   16768:	015b2223          	sw	s5,4(s6)
   1676c:	0ac12e23          	sw	a2,188(sp)
   16770:	0ae12c23          	sw	a4,184(sp)
   16774:	00700593          	addi	a1,zero,7
   16778:	008b0b13          	addi	s6,s6,8
   1677c:	b0e5d663          	bge	a1,a4,15a88 <_vfprintf_r+0x160c>
   16780:	00412583          	lw	a1,4(sp)
   16784:	0b410613          	addi	a2,sp,180
   16788:	00090513          	addi	a0,s2,0
   1678c:	02612e23          	sw	t1,60(sp)
   16790:	02f12c23          	sw	a5,56(sp)
   16794:	645000ef          	jal	ra,175d8 <__sprint_r>
   16798:	8a051e63          	bne	a0,zero,15854 <_vfprintf_r+0x13d8>
   1679c:	0bc12603          	lw	a2,188(sp)
   167a0:	03c12303          	lw	t1,60(sp)
   167a4:	03812783          	lw	a5,56(sp)
   167a8:	00098b13          	addi	s6,s3,0
   167ac:	adcff06f          	jal	zero,15a88 <_vfprintf_r+0x160c>
   167b0:	00078c13          	addi	s8,a5,0
   167b4:	fecff06f          	jal	zero,15fa0 <_vfprintf_r+0x1b24>
   167b8:	00412583          	lw	a1,4(sp)
   167bc:	0b410613          	addi	a2,sp,180
   167c0:	00090513          	addi	a0,s2,0
   167c4:	02612e23          	sw	t1,60(sp)
   167c8:	02f12c23          	sw	a5,56(sp)
   167cc:	60d000ef          	jal	ra,175d8 <__sprint_r>
   167d0:	88051263          	bne	a0,zero,15854 <_vfprintf_r+0x13d8>
   167d4:	0bc12603          	lw	a2,188(sp)
   167d8:	03c12303          	lw	t1,60(sp)
   167dc:	03812783          	lw	a5,56(sp)
   167e0:	00098b13          	addi	s6,s3,0
   167e4:	a90ff06f          	jal	zero,15a74 <_vfprintf_r+0x15f8>
   167e8:	001bf713          	andi	a4,s7,1
   167ec:	00071463          	bne	a4,zero,167f4 <_vfprintf_r+0x2378>
   167f0:	f85fd06f          	jal	zero,14774 <_vfprintf_r+0x2f8>
   167f4:	02412683          	lw	a3,36(sp)
   167f8:	0b812703          	lw	a4,184(sp)
   167fc:	00700593          	addi	a1,zero,7
   16800:	00c68633          	add	a2,a3,a2
   16804:	02812683          	lw	a3,40(sp)
   16808:	00170713          	addi	a4,a4,1
   1680c:	0ac12e23          	sw	a2,188(sp)
   16810:	00db2023          	sw	a3,0(s6)
   16814:	02412683          	lw	a3,36(sp)
   16818:	0ae12c23          	sw	a4,184(sp)
   1681c:	00db2223          	sw	a3,4(s6)
   16820:	74e5d863          	bge	a1,a4,16f70 <_vfprintf_r+0x2af4>
   16824:	00412583          	lw	a1,4(sp)
   16828:	0b410613          	addi	a2,sp,180
   1682c:	00090513          	addi	a0,s2,0
   16830:	00f12e23          	sw	a5,28(sp)
   16834:	5a5000ef          	jal	ra,175d8 <__sprint_r>
   16838:	00050463          	beq	a0,zero,16840 <_vfprintf_r+0x23c4>
   1683c:	818ff06f          	jal	zero,15854 <_vfprintf_r+0x13d8>
   16840:	09812503          	lw	a0,152(sp)
   16844:	0bc12603          	lw	a2,188(sp)
   16848:	0b812703          	lw	a4,184(sp)
   1684c:	01c12783          	lw	a5,28(sp)
   16850:	00098b13          	addi	s6,s3,0
   16854:	9e5ff06f          	jal	zero,16238 <_vfprintf_r+0x1dbc>
   16858:	01812703          	lw	a4,24(sp)
   1685c:	00e787b3          	add	a5,a5,a4
   16860:	41b78cb3          	sub	s9,a5,s11
   16864:	41570ab3          	sub	s5,a4,s5
   16868:	ad9ad063          	bge	s5,s9,15b28 <_vfprintf_r+0x16ac>
   1686c:	000a8c93          	addi	s9,s5,0
   16870:	ab8ff06f          	jal	zero,15b28 <_vfprintf_r+0x16ac>
   16874:	00098b13          	addi	s6,s3,0
   16878:	ec5fd06f          	jal	zero,1473c <_vfprintf_r+0x2c0>
   1687c:	00c12783          	lw	a5,12(sp)
   16880:	00812683          	lw	a3,8(sp)
   16884:	00e12623          	sw	a4,12(sp)
   16888:	0007a783          	lw	a5,0(a5)
   1688c:	00d79023          	sh	a3,0(a5)
   16890:	cf9fd06f          	jal	zero,14588 <_vfprintf_r+0x10c>
   16894:	41fc5e93          	srai	t4,s8,0x1f
   16898:	00f12623          	sw	a5,12(sp)
   1689c:	000e8713          	addi	a4,t4,0
   168a0:	8adfe06f          	jal	zero,1514c <_vfprintf_r+0xcd0>
   168a4:	0ffc7c13          	andi	s8,s8,255
   168a8:	00000e93          	addi	t4,zero,0
   168ac:	000ac463          	blt	s5,zero,168b4 <_vfprintf_r+0x2438>
   168b0:	bfdfe06f          	jal	zero,154ac <_vfprintf_r+0x1030>
   168b4:	98dfe06f          	jal	zero,15240 <_vfprintf_r+0xdc4>
   168b8:	0ff77713          	andi	a4,a4,255
   168bc:	00000613          	addi	a2,zero,0
   168c0:	e98ff06f          	jal	zero,15f58 <_vfprintf_r+0x1adc>
   168c4:	00f12623          	sw	a5,12(sp)
   168c8:	000b8693          	addi	a3,s7,0
   168cc:	00000613          	addi	a2,zero,0
   168d0:	ae5fe06f          	jal	zero,153b4 <_vfprintf_r+0xf38>
   168d4:	04700793          	addi	a5,zero,71
   168d8:	09314703          	lbu	a4,147(sp)
   168dc:	1117d2e3          	bge	a5,a7,171e0 <_vfprintf_r+0x2d64>
   168e0:	000237b7          	lui	a5,0x23
   168e4:	3bc78793          	addi	a5,a5,956 # 233bc <__clzsi2+0xb4>
   168e8:	3e0712e3          	bne	a4,zero,174cc <_vfprintf_r+0x3050>
   168ec:	00300c93          	addi	s9,zero,3
   168f0:	000c8c13          	addi	s8,s9,0
   168f4:	00000a93          	addi	s5,zero,0
   168f8:	02012023          	sw	zero,32(sp)
   168fc:	00012e23          	sw	zero,28(sp)
   16900:	00012823          	sw	zero,16(sp)
   16904:	da9fd06f          	jal	zero,146ac <_vfprintf_r+0x230>
   16908:	000237b7          	lui	a5,0x23
   1690c:	3b478793          	addi	a5,a5,948 # 233b4 <__clzsi2+0xac>
   16910:	a75ff06f          	jal	zero,16384 <_vfprintf_r+0x1f08>
   16914:	04412703          	lw	a4,68(sp)
   16918:	03412583          	lw	a1,52(sp)
   1691c:	01d12e23          	sw	t4,28(sp)
   16920:	40e786b3          	sub	a3,a5,a4
   16924:	00070613          	addi	a2,a4,0
   16928:	00068513          	addi	a0,a3,0
   1692c:	01012c23          	sw	a6,24(sp)
   16930:	00d12823          	sw	a3,16(sp)
   16934:	00d010ef          	jal	ra,18140 <strncpy>
   16938:	01c12e83          	lw	t4,28(sp)
   1693c:	ccccd637          	lui	a2,0xccccd
   16940:	ccd60613          	addi	a2,a2,-819 # cccccccd <__BSS_END__+0xccbb8935>
   16944:	01dc0733          	add	a4,s8,t4
   16948:	018737b3          	sltu	a5,a4,s8
   1694c:	00f70733          	add	a4,a4,a5
   16950:	02c735b3          	mulhu	a1,a4,a2
   16954:	ccccd537          	lui	a0,0xccccd
   16958:	ccc50513          	addi	a0,a0,-820 # cccccccc <__BSS_END__+0xccbb8934>
   1695c:	03012783          	lw	a5,48(sp)
   16960:	03012683          	lw	a3,48(sp)
   16964:	01812803          	lw	a6,24(sp)
   16968:	0017c783          	lbu	a5,1(a5)
   1696c:	00f037b3          	sltu	a5,zero,a5
   16970:	0025d893          	srli	a7,a1,0x2
   16974:	ffc5f593          	andi	a1,a1,-4
   16978:	011585b3          	add	a1,a1,a7
   1697c:	40b70733          	sub	a4,a4,a1
   16980:	40ec0733          	sub	a4,s8,a4
   16984:	00ec35b3          	sltu	a1,s8,a4
   16988:	40be85b3          	sub	a1,t4,a1
   1698c:	02a70533          	mul	a0,a4,a0
   16990:	00f687b3          	add	a5,a3,a5
   16994:	01012683          	lw	a3,16(sp)
   16998:	02f12823          	sw	a5,48(sp)
   1699c:	fff68793          	addi	a5,a3,-1
   169a0:	02c585b3          	mul	a1,a1,a2
   169a4:	00a585b3          	add	a1,a1,a0
   169a8:	02c73533          	mulhu	a0,a4,a2
   169ac:	02c70733          	mul	a4,a4,a2
   169b0:	00a585b3          	add	a1,a1,a0
   169b4:	01f59513          	slli	a0,a1,0x1f
   169b8:	0015de93          	srli	t4,a1,0x1
   169bc:	00100593          	addi	a1,zero,1
   169c0:	00175713          	srli	a4,a4,0x1
   169c4:	00e50c33          	add	s8,a0,a4
   169c8:	01dc0733          	add	a4,s8,t4
   169cc:	01873533          	sltu	a0,a4,s8
   169d0:	00a70733          	add	a4,a4,a0
   169d4:	02c73533          	mulhu	a0,a4,a2
   169d8:	00255893          	srli	a7,a0,0x2
   169dc:	ffc57513          	andi	a0,a0,-4
   169e0:	01150533          	add	a0,a0,a7
   169e4:	40a70733          	sub	a4,a4,a0
   169e8:	40ec0733          	sub	a4,s8,a4
   169ec:	00ec3533          	sltu	a0,s8,a4
   169f0:	40ae8533          	sub	a0,t4,a0
   169f4:	02c738b3          	mulhu	a7,a4,a2
   169f8:	02c50533          	mul	a0,a0,a2
   169fc:	02c70733          	mul	a4,a4,a2
   16a00:	01150633          	add	a2,a0,a7
   16a04:	01f61613          	slli	a2,a2,0x1f
   16a08:	00175713          	srli	a4,a4,0x1
   16a0c:	00e60733          	add	a4,a2,a4
   16a10:	00271613          	slli	a2,a4,0x2
   16a14:	00e60733          	add	a4,a2,a4
   16a18:	00171713          	slli	a4,a4,0x1
   16a1c:	40ec0733          	sub	a4,s8,a4
   16a20:	03070713          	addi	a4,a4,48
   16a24:	fee68fa3          	sb	a4,-1(a3)
   16a28:	ab9fe06f          	jal	zero,154e0 <_vfprintf_r+0x1064>
   16a2c:	07800793          	addi	a5,zero,120
   16a30:	ed5fd06f          	jal	zero,14904 <_vfprintf_r+0x488>
   16a34:	6e0cc063          	blt	s9,zero,17114 <_vfprintf_r+0x2c98>
   16a38:	02012c23          	sw	zero,56(sp)
   16a3c:	00600a93          	addi	s5,zero,6
   16a40:	04600793          	addi	a5,zero,70
   16a44:	44fc1e63          	bne	s8,a5,16ea0 <_vfprintf_r+0x2a24>
   16a48:	09c10793          	addi	a5,sp,156
   16a4c:	09810713          	addi	a4,sp,152
   16a50:	000a8693          	addi	a3,s5,0
   16a54:	08010593          	addi	a1,sp,128
   16a58:	0a010813          	addi	a6,sp,160
   16a5c:	00300613          	addi	a2,zero,3
   16a60:	00090513          	addi	a0,s2,0
   16a64:	03112e23          	sw	a7,60(sp)
   16a68:	09d12023          	sw	t4,128(sp)
   16a6c:	03d12023          	sw	t4,32(sp)
   16a70:	09e12223          	sw	t5,132(sp)
   16a74:	01e12e23          	sw	t5,28(sp)
   16a78:	08512423          	sw	t0,136(sp)
   16a7c:	00512c23          	sw	t0,24(sp)
   16a80:	09912623          	sw	s9,140(sp)
   16a84:	531010ef          	jal	ra,187b4 <_ldtoa_r>
   16a88:	00054683          	lbu	a3,0(a0)
   16a8c:	03000713          	addi	a4,zero,48
   16a90:	01812283          	lw	t0,24(sp)
   16a94:	01c12f03          	lw	t5,28(sp)
   16a98:	02012e83          	lw	t4,32(sp)
   16a9c:	03c12883          	lw	a7,60(sp)
   16aa0:	00050793          	addi	a5,a0,0
   16aa4:	015504b3          	add	s1,a0,s5
   16aa8:	04e68ae3          	beq	a3,a4,172fc <_vfprintf_r+0x2e80>
   16aac:	09812d83          	lw	s11,152(sp)
   16ab0:	08010513          	addi	a0,sp,128
   16ab4:	07010593          	addi	a1,sp,112
   16ab8:	00f12e23          	sw	a5,28(sp)
   16abc:	09912623          	sw	s9,140(sp)
   16ac0:	01112c23          	sw	a7,24(sp)
   16ac4:	09d12023          	sw	t4,128(sp)
   16ac8:	09e12223          	sw	t5,132(sp)
   16acc:	08512423          	sw	t0,136(sp)
   16ad0:	06012823          	sw	zero,112(sp)
   16ad4:	06012a23          	sw	zero,116(sp)
   16ad8:	06012c23          	sw	zero,120(sp)
   16adc:	06012e23          	sw	zero,124(sp)
   16ae0:	5b5090ef          	jal	ra,20894 <__eqtf2>
   16ae4:	01c12783          	lw	a5,28(sp)
   16ae8:	01b48cb3          	add	s9,s1,s11
   16aec:	000d8313          	addi	t1,s11,0
   16af0:	7e051a63          	bne	a0,zero,172e4 <_vfprintf_r+0x2e68>
   16af4:	40fc8733          	sub	a4,s9,a5
   16af8:	00e12c23          	sw	a4,24(sp)
   16afc:	001bf713          	andi	a4,s7,1
   16b00:	01576733          	or	a4,a4,s5
   16b04:	0e605ae3          	bge	zero,t1,173f8 <_vfprintf_r+0x2f7c>
   16b08:	040710e3          	bne	a4,zero,17348 <_vfprintf_r+0x2ecc>
   16b0c:	00030c93          	addi	s9,t1,0
   16b10:	06600893          	addi	a7,zero,102
   16b14:	400bfe13          	andi	t3,s7,1024
   16b18:	6e0e1663          	bne	t3,zero,17204 <_vfprintf_r+0x2d88>
   16b1c:	fffcc693          	xori	a3,s9,-1
   16b20:	41f6d693          	srai	a3,a3,0x1f
   16b24:	00dcfc33          	and	s8,s9,a3
   16b28:	03812703          	lw	a4,56(sp)
   16b2c:	4c070a63          	beq	a4,zero,17000 <_vfprintf_r+0x2b84>
   16b30:	02d00713          	addi	a4,zero,45
   16b34:	08e109a3          	sb	a4,147(sp)
   16b38:	001c0c13          	addi	s8,s8,1
   16b3c:	01012b83          	lw	s7,16(sp)
   16b40:	00000a93          	addi	s5,zero,0
   16b44:	00012823          	sw	zero,16(sp)
   16b48:	02012023          	sw	zero,32(sp)
   16b4c:	00012e23          	sw	zero,28(sp)
   16b50:	b5dfd06f          	jal	zero,146ac <_vfprintf_r+0x230>
   16b54:	001a8593          	addi	a1,s5,1
   16b58:	00090513          	addi	a0,s2,0
   16b5c:	01112823          	sw	a7,16(sp)
   16b60:	894fd0ef          	jal	ra,13bf4 <_malloc_r>
   16b64:	01012883          	lw	a7,16(sp)
   16b68:	00050793          	addi	a5,a0,0
   16b6c:	12050ee3          	beq	a0,zero,174a8 <_vfprintf_r+0x302c>
   16b70:	0cc12703          	lw	a4,204(sp)
   16b74:	00a12823          	sw	a0,16(sp)
   16b78:	0c012683          	lw	a3,192(sp)
   16b7c:	0c412603          	lw	a2,196(sp)
   16b80:	0c812583          	lw	a1,200(sp)
   16b84:	64074463          	blt	a4,zero,171cc <_vfprintf_r+0x2d50>
   16b88:	02012c23          	sw	zero,56(sp)
   16b8c:	dadfd06f          	jal	zero,14938 <_vfprintf_r+0x4bc>
   16b90:	000b8d93          	addi	s11,s7,0
   16b94:	03a12823          	sw	s10,48(sp)
   16b98:	03812783          	lw	a5,56(sp)
   16b9c:	03c12b83          	lw	s7,60(sp)
   16ba0:	04012c03          	lw	s8,64(sp)
   16ba4:	04812d03          	lw	s10,72(sp)
   16ba8:	00068b13          	addi	s6,a3,0
   16bac:	01b76463          	bltu	a4,s11,16bb4 <_vfprintf_r+0x2738>
   16bb0:	ee5fe06f          	jal	zero,15a94 <_vfprintf_r+0x1618>
   16bb4:	00070d93          	addi	s11,a4,0
   16bb8:	eddfe06f          	jal	zero,15a94 <_vfprintf_r+0x1618>
   16bbc:	02012c23          	sw	zero,56(sp)
   16bc0:	000cda63          	bge	s9,zero,16bd4 <_vfprintf_r+0x2758>
   16bc4:	800007b7          	lui	a5,0x80000
   16bc8:	00fcccb3          	xor	s9,s9,a5
   16bcc:	02d00793          	addi	a5,zero,45
   16bd0:	02f12c23          	sw	a5,56(sp)
   16bd4:	08010d93          	addi	s11,sp,128
   16bd8:	09c10793          	addi	a5,sp,156
   16bdc:	000d8593          	addi	a1,s11,0
   16be0:	0a010813          	addi	a6,sp,160
   16be4:	09810713          	addi	a4,sp,152
   16be8:	00100693          	addi	a3,zero,1
   16bec:	00200613          	addi	a2,zero,2
   16bf0:	00090513          	addi	a0,s2,0
   16bf4:	05112023          	sw	a7,64(sp)
   16bf8:	09d12023          	sw	t4,128(sp)
   16bfc:	03d12e23          	sw	t4,60(sp)
   16c00:	09e12223          	sw	t5,132(sp)
   16c04:	03e12023          	sw	t5,32(sp)
   16c08:	08512423          	sw	t0,136(sp)
   16c0c:	00512e23          	sw	t0,28(sp)
   16c10:	09912623          	sw	s9,140(sp)
   16c14:	3a1010ef          	jal	ra,187b4 <_ldtoa_r>
   16c18:	01c12283          	lw	t0,28(sp)
   16c1c:	02012f03          	lw	t5,32(sp)
   16c20:	03c12e83          	lw	t4,60(sp)
   16c24:	04012883          	lw	a7,64(sp)
   16c28:	00100a93          	addi	s5,zero,1
   16c2c:	00050793          	addi	a5,a0,0
   16c30:	01512c23          	sw	s5,24(sp)
   16c34:	001bf713          	andi	a4,s7,1
   16c38:	18070e63          	beq	a4,zero,16dd4 <_vfprintf_r+0x2958>
   16c3c:	000d8513          	addi	a0,s11,0
   16c40:	07010593          	addi	a1,sp,112
   16c44:	02f12023          	sw	a5,32(sp)
   16c48:	01112e23          	sw	a7,28(sp)
   16c4c:	09d12023          	sw	t4,128(sp)
   16c50:	09e12223          	sw	t5,132(sp)
   16c54:	08512423          	sw	t0,136(sp)
   16c58:	09912623          	sw	s9,140(sp)
   16c5c:	06012823          	sw	zero,112(sp)
   16c60:	06012a23          	sw	zero,116(sp)
   16c64:	06012c23          	sw	zero,120(sp)
   16c68:	06012e23          	sw	zero,124(sp)
   16c6c:	429090ef          	jal	ra,20894 <__eqtf2>
   16c70:	01c12883          	lw	a7,28(sp)
   16c74:	02012783          	lw	a5,32(sp)
   16c78:	7e050263          	beq	a0,zero,1745c <_vfprintf_r+0x2fe0>
   16c7c:	01812683          	lw	a3,24(sp)
   16c80:	0a012703          	lw	a4,160(sp)
   16c84:	00d78cb3          	add	s9,a5,a3
   16c88:	079770e3          	bgeu	a4,s9,174e8 <_vfprintf_r+0x306c>
   16c8c:	03000613          	addi	a2,zero,48
   16c90:	00170693          	addi	a3,a4,1
   16c94:	0ad12023          	sw	a3,160(sp)
   16c98:	00c70023          	sb	a2,0(a4)
   16c9c:	0a012703          	lw	a4,160(sp)
   16ca0:	ff9768e3          	bltu	a4,s9,16c90 <_vfprintf_r+0x2814>
   16ca4:	40f70733          	sub	a4,a4,a5
   16ca8:	04700693          	addi	a3,zero,71
   16cac:	00e12c23          	sw	a4,24(sp)
   16cb0:	09812303          	lw	t1,152(sp)
   16cb4:	12dc0863          	beq	s8,a3,16de4 <_vfprintf_r+0x2968>
   16cb8:	04600713          	addi	a4,zero,70
   16cbc:	e4ec00e3          	beq	s8,a4,16afc <_vfprintf_r+0x2680>
   16cc0:	fff30713          	addi	a4,t1,-1
   16cc4:	0b110223          	sb	a7,164(sp)
   16cc8:	08e12c23          	sw	a4,152(sp)
   16ccc:	68074863          	blt	a4,zero,1735c <_vfprintf_r+0x2ee0>
   16cd0:	02b00693          	addi	a3,zero,43
   16cd4:	0ad102a3          	sb	a3,165(sp)
   16cd8:	00900693          	addi	a3,zero,9
   16cdc:	68e6dc63          	bge	a3,a4,17374 <_vfprintf_r+0x2ef8>
   16ce0:	01712e23          	sw	s7,28(sp)
   16ce4:	00012823          	sw	zero,16(sp)
   16ce8:	0b310e93          	addi	t4,sp,179
   16cec:	ccccde37          	lui	t3,0xccccd
   16cf0:	000e8513          	addi	a0,t4,0
   16cf4:	ccde0e13          	addi	t3,t3,-819 # cccccccd <__BSS_END__+0xccbb8935>
   16cf8:	06300f13          	addi	t5,zero,99
   16cfc:	03c736b3          	mulhu	a3,a4,t3
   16d00:	00070813          	addi	a6,a4,0
   16d04:	00050593          	addi	a1,a0,0
   16d08:	fff50513          	addi	a0,a0,-1
   16d0c:	0036d693          	srli	a3,a3,0x3
   16d10:	00269613          	slli	a2,a3,0x2
   16d14:	00d60633          	add	a2,a2,a3
   16d18:	00161613          	slli	a2,a2,0x1
   16d1c:	40c70733          	sub	a4,a4,a2
   16d20:	03070713          	addi	a4,a4,48
   16d24:	fee58fa3          	sb	a4,-1(a1)
   16d28:	00068713          	addi	a4,a3,0
   16d2c:	fd0f48e3          	blt	t5,a6,16cfc <_vfprintf_r+0x2880>
   16d30:	03068713          	addi	a4,a3,48
   16d34:	fee50fa3          	sb	a4,-1(a0)
   16d38:	ffe58713          	addi	a4,a1,-2
   16d3c:	73d77c63          	bgeu	a4,t4,17474 <_vfprintf_r+0x2ff8>
   16d40:	0a610513          	addi	a0,sp,166
   16d44:	00050693          	addi	a3,a0,0
   16d48:	00074603          	lbu	a2,0(a4)
   16d4c:	00170713          	addi	a4,a4,1
   16d50:	00168693          	addi	a3,a3,1
   16d54:	fec68fa3          	sb	a2,-1(a3)
   16d58:	ffd718e3          	bne	a4,t4,16d48 <_vfprintf_r+0x28cc>
   16d5c:	00a70733          	add	a4,a4,a0
   16d60:	00270713          	addi	a4,a4,2
   16d64:	40b70733          	sub	a4,a4,a1
   16d68:	0a410693          	addi	a3,sp,164
   16d6c:	40d70733          	sub	a4,a4,a3
   16d70:	02e12623          	sw	a4,44(sp)
   16d74:	01812683          	lw	a3,24(sp)
   16d78:	02c12603          	lw	a2,44(sp)
   16d7c:	00100713          	addi	a4,zero,1
   16d80:	00c68cb3          	add	s9,a3,a2
   16d84:	42d75263          	bge	a4,a3,171a8 <_vfprintf_r+0x2d2c>
   16d88:	02412703          	lw	a4,36(sp)
   16d8c:	00ec8cb3          	add	s9,s9,a4
   16d90:	01c12703          	lw	a4,28(sp)
   16d94:	fffcc693          	xori	a3,s9,-1
   16d98:	41f6d693          	srai	a3,a3,0x1f
   16d9c:	bff77e13          	andi	t3,a4,-1025
   16da0:	00277313          	andi	t1,a4,2
   16da4:	03812703          	lw	a4,56(sp)
   16da8:	00dcfc33          	and	s8,s9,a3
   16dac:	100e6b93          	ori	s7,t3,256
   16db0:	34070863          	beq	a4,zero,17100 <_vfprintf_r+0x2c84>
   16db4:	02d00e93          	addi	t4,zero,45
   16db8:	09d109a3          	sb	t4,147(sp)
   16dbc:	00000a93          	addi	s5,zero,0
   16dc0:	001c0c13          	addi	s8,s8,1
   16dc4:	bc8fe06f          	jal	zero,1518c <_vfprintf_r+0xd10>
   16dc8:	01812683          	lw	a3,24(sp)
   16dcc:	00a6c583          	lbu	a1,10(a3)
   16dd0:	e65fd06f          	jal	zero,14c34 <_vfprintf_r+0x7b8>
   16dd4:	0a012703          	lw	a4,160(sp)
   16dd8:	09812303          	lw	t1,152(sp)
   16ddc:	40f70733          	sub	a4,a4,a5
   16de0:	00e12c23          	sw	a4,24(sp)
   16de4:	ffd32713          	slti	a4,t1,-3
   16de8:	00071463          	bne	a4,zero,16df0 <_vfprintf_r+0x2974>
   16dec:	006ad663          	bge	s5,t1,16df8 <_vfprintf_r+0x297c>
   16df0:	ffe88893          	addi	a7,a7,-2
   16df4:	ecdff06f          	jal	zero,16cc0 <_vfprintf_r+0x2844>
   16df8:	01812703          	lw	a4,24(sp)
   16dfc:	2ce34c63          	blt	t1,a4,170d4 <_vfprintf_r+0x2c58>
   16e00:	001bf713          	andi	a4,s7,1
   16e04:	00030c93          	addi	s9,t1,0
   16e08:	00070663          	beq	a4,zero,16e14 <_vfprintf_r+0x2998>
   16e0c:	02412703          	lw	a4,36(sp)
   16e10:	00e30cb3          	add	s9,t1,a4
   16e14:	400bfe13          	andi	t3,s7,1024
   16e18:	000e0463          	beq	t3,zero,16e20 <_vfprintf_r+0x29a4>
   16e1c:	3e604263          	blt	zero,t1,17200 <_vfprintf_r+0x2d84>
   16e20:	fffcc693          	xori	a3,s9,-1
   16e24:	41f6d693          	srai	a3,a3,0x1f
   16e28:	00dcfc33          	and	s8,s9,a3
   16e2c:	06700893          	addi	a7,zero,103
   16e30:	cf9ff06f          	jal	zero,16b28 <_vfprintf_r+0x26ac>
   16e34:	00412583          	lw	a1,4(sp)
   16e38:	0b410613          	addi	a2,sp,180
   16e3c:	00090513          	addi	a0,s2,0
   16e40:	00f12e23          	sw	a5,28(sp)
   16e44:	794000ef          	jal	ra,175d8 <__sprint_r>
   16e48:	00050463          	beq	a0,zero,16e50 <_vfprintf_r+0x29d4>
   16e4c:	a09fe06f          	jal	zero,15854 <_vfprintf_r+0x13d8>
   16e50:	09812503          	lw	a0,152(sp)
   16e54:	0bc12603          	lw	a2,188(sp)
   16e58:	01c12783          	lw	a5,28(sp)
   16e5c:	00098b13          	addi	s6,s3,0
   16e60:	b98ff06f          	jal	zero,161f8 <_vfprintf_r+0x1d7c>
   16e64:	00412583          	lw	a1,4(sp)
   16e68:	0b410613          	addi	a2,sp,180
   16e6c:	00090513          	addi	a0,s2,0
   16e70:	00e12e23          	sw	a4,28(sp)
   16e74:	764000ef          	jal	ra,175d8 <__sprint_r>
   16e78:	00050463          	beq	a0,zero,16e80 <_vfprintf_r+0x2a04>
   16e7c:	9d9fe06f          	jal	zero,15854 <_vfprintf_r+0x13d8>
   16e80:	000707b7          	lui	a5,0x70
   16e84:	000d4583          	lbu	a1,0(s10)
   16e88:	0bc12603          	lw	a2,188(sp)
   16e8c:	01c12703          	lw	a4,28(sp)
   16e90:	00098693          	addi	a3,s3,0
   16e94:	a9c78893          	addi	a7,a5,-1380 # 6fa9c <zeroes.0>
   16e98:	00700813          	addi	a6,zero,7
   16e9c:	f90ff06f          	jal	zero,1662c <_vfprintf_r+0x21b0>
   16ea0:	fbbc0793          	addi	a5,s8,-69
   16ea4:	0017b793          	sltiu	a5,a5,1
   16ea8:	015787b3          	add	a5,a5,s5
   16eac:	08010d93          	addi	s11,sp,128
   16eb0:	00f12c23          	sw	a5,24(sp)
   16eb4:	00078693          	addi	a3,a5,0
   16eb8:	09810713          	addi	a4,sp,152
   16ebc:	09c10793          	addi	a5,sp,156
   16ec0:	000d8593          	addi	a1,s11,0
   16ec4:	0a010813          	addi	a6,sp,160
   16ec8:	00200613          	addi	a2,zero,2
   16ecc:	00090513          	addi	a0,s2,0
   16ed0:	05112023          	sw	a7,64(sp)
   16ed4:	09d12023          	sw	t4,128(sp)
   16ed8:	03d12e23          	sw	t4,60(sp)
   16edc:	09e12223          	sw	t5,132(sp)
   16ee0:	03e12023          	sw	t5,32(sp)
   16ee4:	08512423          	sw	t0,136(sp)
   16ee8:	00512e23          	sw	t0,28(sp)
   16eec:	09912623          	sw	s9,140(sp)
   16ef0:	0c5010ef          	jal	ra,187b4 <_ldtoa_r>
   16ef4:	04700713          	addi	a4,zero,71
   16ef8:	01c12283          	lw	t0,28(sp)
   16efc:	02012f03          	lw	t5,32(sp)
   16f00:	03c12e83          	lw	t4,60(sp)
   16f04:	04012883          	lw	a7,64(sp)
   16f08:	00050793          	addi	a5,a0,0
   16f0c:	d2ec04e3          	beq	s8,a4,16c34 <_vfprintf_r+0x27b8>
   16f10:	02a12023          	sw	a0,32(sp)
   16f14:	07010593          	addi	a1,sp,112
   16f18:	000d8513          	addi	a0,s11,0
   16f1c:	01112e23          	sw	a7,28(sp)
   16f20:	09d12023          	sw	t4,128(sp)
   16f24:	09e12223          	sw	t5,132(sp)
   16f28:	08512423          	sw	t0,136(sp)
   16f2c:	09912623          	sw	s9,140(sp)
   16f30:	06012823          	sw	zero,112(sp)
   16f34:	06012a23          	sw	zero,116(sp)
   16f38:	06012c23          	sw	zero,120(sp)
   16f3c:	06012e23          	sw	zero,124(sp)
   16f40:	155090ef          	jal	ra,20894 <__eqtf2>
   16f44:	01c12883          	lw	a7,28(sp)
   16f48:	02012783          	lw	a5,32(sp)
   16f4c:	5a050663          	beq	a0,zero,174f8 <_vfprintf_r+0x307c>
   16f50:	01812683          	lw	a3,24(sp)
   16f54:	0a012703          	lw	a4,160(sp)
   16f58:	00d78cb3          	add	s9,a5,a3
   16f5c:	d39768e3          	bltu	a4,s9,16c8c <_vfprintf_r+0x2810>
   16f60:	40f70733          	sub	a4,a4,a5
   16f64:	09812303          	lw	t1,152(sp)
   16f68:	00e12c23          	sw	a4,24(sp)
   16f6c:	d55ff06f          	jal	zero,16cc0 <_vfprintf_r+0x2844>
   16f70:	008b0b13          	addi	s6,s6,8
   16f74:	ac8ff06f          	jal	zero,1623c <_vfprintf_r+0x1dc0>
   16f78:	02d00793          	addi	a5,zero,45
   16f7c:	08f109a3          	sb	a5,147(sp)
   16f80:	04700793          	addi	a5,zero,71
   16f84:	2317da63          	bge	a5,a7,171b8 <_vfprintf_r+0x2d3c>
   16f88:	000237b7          	lui	a5,0x23
   16f8c:	3b478793          	addi	a5,a5,948 # 233b4 <__clzsi2+0xac>
   16f90:	d84ff06f          	jal	zero,16514 <_vfprintf_r+0x2098>
   16f94:	00412583          	lw	a1,4(sp)
   16f98:	0b410613          	addi	a2,sp,180
   16f9c:	00090513          	addi	a0,s2,0
   16fa0:	00f12e23          	sw	a5,28(sp)
   16fa4:	634000ef          	jal	ra,175d8 <__sprint_r>
   16fa8:	00050463          	beq	a0,zero,16fb0 <_vfprintf_r+0x2b34>
   16fac:	8a9fe06f          	jal	zero,15854 <_vfprintf_r+0x13d8>
   16fb0:	09812a83          	lw	s5,152(sp)
   16fb4:	0bc12603          	lw	a2,188(sp)
   16fb8:	01c12783          	lw	a5,28(sp)
   16fbc:	00098b13          	addi	s6,s3,0
   16fc0:	b21fe06f          	jal	zero,15ae0 <_vfprintf_r+0x1664>
   16fc4:	aac80813          	addi	a6,a6,-1364
   16fc8:	c4dfe06f          	jal	zero,15c14 <_vfprintf_r+0x1798>
   16fcc:	00900713          	addi	a4,zero,9
   16fd0:	00677463          	bgeu	a4,t1,16fd8 <_vfprintf_r+0x2b5c>
   16fd4:	d88fe06f          	jal	zero,1555c <_vfprintf_r+0x10e0>
   16fd8:	af8ff06f          	jal	zero,162d0 <_vfprintf_r+0x1e54>
   16fdc:	00912623          	sw	s1,12(sp)
   16fe0:	1a070663          	beq	a4,zero,1718c <_vfprintf_r+0x2d10>
   16fe4:	001a8c13          	addi	s8,s5,1
   16fe8:	000a8c93          	addi	s9,s5,0
   16fec:	02012023          	sw	zero,32(sp)
   16ff0:	00000a93          	addi	s5,zero,0
   16ff4:	00012e23          	sw	zero,28(sp)
   16ff8:	00000313          	addi	t1,zero,0
   16ffc:	eb0fd06f          	jal	zero,146ac <_vfprintf_r+0x230>
   17000:	09314703          	lbu	a4,147(sp)
   17004:	b2070ce3          	beq	a4,zero,16b3c <_vfprintf_r+0x26c0>
   17008:	001c0c13          	addi	s8,s8,1
   1700c:	b31ff06f          	jal	zero,16b3c <_vfprintf_r+0x26c0>
   17010:	00412583          	lw	a1,4(sp)
   17014:	0b410613          	addi	a2,sp,180
   17018:	00090513          	addi	a0,s2,0
   1701c:	5bc000ef          	jal	ra,175d8 <__sprint_r>
   17020:	00050463          	beq	a0,zero,17028 <_vfprintf_r+0x2bac>
   17024:	831fe06f          	jal	zero,15854 <_vfprintf_r+0x13d8>
   17028:	09812a83          	lw	s5,152(sp)
   1702c:	01812783          	lw	a5,24(sp)
   17030:	0bc12603          	lw	a2,188(sp)
   17034:	00098b13          	addi	s6,s3,0
   17038:	41578ab3          	sub	s5,a5,s5
   1703c:	aedfe06f          	jal	zero,15b28 <_vfprintf_r+0x16ac>
   17040:	ff000593          	addi	a1,zero,-16
   17044:	40a00ab3          	sub	s5,zero,a0
   17048:	00070837          	lui	a6,0x70
   1704c:	44b55463          	bge	a0,a1,17494 <_vfprintf_r+0x3018>
   17050:	01000c93          	addi	s9,zero,16
   17054:	00700d93          	addi	s11,zero,7
   17058:	00f12e23          	sw	a5,28(sp)
   1705c:	a9c80493          	addi	s1,a6,-1380 # 6fa9c <zeroes.0>
   17060:	00c0006f          	jal	zero,1706c <_vfprintf_r+0x2bf0>
   17064:	ff0a8a93          	addi	s5,s5,-16
   17068:	0d5cd663          	bge	s9,s5,17134 <_vfprintf_r+0x2cb8>
   1706c:	01060613          	addi	a2,a2,16
   17070:	00170713          	addi	a4,a4,1
   17074:	009b2023          	sw	s1,0(s6)
   17078:	019b2223          	sw	s9,4(s6)
   1707c:	0ac12e23          	sw	a2,188(sp)
   17080:	0ae12c23          	sw	a4,184(sp)
   17084:	008b0b13          	addi	s6,s6,8
   17088:	fceddee3          	bge	s11,a4,17064 <_vfprintf_r+0x2be8>
   1708c:	00412583          	lw	a1,4(sp)
   17090:	0b410613          	addi	a2,sp,180
   17094:	00090513          	addi	a0,s2,0
   17098:	540000ef          	jal	ra,175d8 <__sprint_r>
   1709c:	00050463          	beq	a0,zero,170a4 <_vfprintf_r+0x2c28>
   170a0:	fb4fe06f          	jal	zero,15854 <_vfprintf_r+0x13d8>
   170a4:	0bc12603          	lw	a2,188(sp)
   170a8:	0b812703          	lw	a4,184(sp)
   170ac:	00098b13          	addi	s6,s3,0
   170b0:	fb5ff06f          	jal	zero,17064 <_vfprintf_r+0x2be8>
   170b4:	000b8693          	addi	a3,s7,0
   170b8:	d09fe06f          	jal	zero,15dc0 <_vfprintf_r+0x1944>
   170bc:	aac80813          	addi	a6,a6,-1364
   170c0:	8d1fe06f          	jal	zero,15990 <_vfprintf_r+0x1514>
   170c4:	000b8e13          	addi	t3,s7,0
   170c8:	dc0fe06f          	jal	zero,15688 <_vfprintf_r+0x120c>
   170cc:	000b8e13          	addi	t3,s7,0
   170d0:	d31fe06f          	jal	zero,15e00 <_vfprintf_r+0x1984>
   170d4:	01812703          	lw	a4,24(sp)
   170d8:	02412683          	lw	a3,36(sp)
   170dc:	06700893          	addi	a7,zero,103
   170e0:	00d70cb3          	add	s9,a4,a3
   170e4:	a26048e3          	blt	zero,t1,16b14 <_vfprintf_r+0x2698>
   170e8:	406c8f33          	sub	t5,s9,t1
   170ec:	001f0c93          	addi	s9,t5,1
   170f0:	fffcc693          	xori	a3,s9,-1
   170f4:	41f6d693          	srai	a3,a3,0x1f
   170f8:	00dcfc33          	and	s8,s9,a3
   170fc:	a2dff06f          	jal	zero,16b28 <_vfprintf_r+0x26ac>
   17100:	09314e83          	lbu	t4,147(sp)
   17104:	00000a93          	addi	s5,zero,0
   17108:	000e8463          	beq	t4,zero,17110 <_vfprintf_r+0x2c94>
   1710c:	968fe06f          	jal	zero,15274 <_vfprintf_r+0xdf8>
   17110:	87cfe06f          	jal	zero,1518c <_vfprintf_r+0xd10>
   17114:	00600a93          	addi	s5,zero,6
   17118:	800007b7          	lui	a5,0x80000
   1711c:	00fcccb3          	xor	s9,s9,a5
   17120:	02d00793          	addi	a5,zero,45
   17124:	02f12c23          	sw	a5,56(sp)
   17128:	919ff06f          	jal	zero,16a40 <_vfprintf_r+0x25c4>
   1712c:	a9c80813          	addi	a6,a6,-1380
   17130:	eacfe06f          	jal	zero,157dc <_vfprintf_r+0x1360>
   17134:	01c12783          	lw	a5,28(sp)
   17138:	00048813          	addi	a6,s1,0
   1713c:	01560633          	add	a2,a2,s5
   17140:	00170713          	addi	a4,a4,1
   17144:	0ac12e23          	sw	a2,188(sp)
   17148:	0ae12c23          	sw	a4,184(sp)
   1714c:	010b2023          	sw	a6,0(s6)
   17150:	015b2223          	sw	s5,4(s6)
   17154:	00700593          	addi	a1,zero,7
   17158:	e0e5dce3          	bge	a1,a4,16f70 <_vfprintf_r+0x2af4>
   1715c:	00412583          	lw	a1,4(sp)
   17160:	0b410613          	addi	a2,sp,180
   17164:	00090513          	addi	a0,s2,0
   17168:	00f12e23          	sw	a5,28(sp)
   1716c:	46c000ef          	jal	ra,175d8 <__sprint_r>
   17170:	00050463          	beq	a0,zero,17178 <_vfprintf_r+0x2cfc>
   17174:	ee0fe06f          	jal	zero,15854 <_vfprintf_r+0x13d8>
   17178:	0bc12603          	lw	a2,188(sp)
   1717c:	0b812703          	lw	a4,184(sp)
   17180:	01c12783          	lw	a5,28(sp)
   17184:	00098b13          	addi	s6,s3,0
   17188:	8b4ff06f          	jal	zero,1623c <_vfprintf_r+0x1dc0>
   1718c:	000a8c93          	addi	s9,s5,0
   17190:	000a8c13          	addi	s8,s5,0
   17194:	02012023          	sw	zero,32(sp)
   17198:	00000a93          	addi	s5,zero,0
   1719c:	00012e23          	sw	zero,28(sp)
   171a0:	00000313          	addi	t1,zero,0
   171a4:	d08fd06f          	jal	zero,146ac <_vfprintf_r+0x230>
   171a8:	01c12703          	lw	a4,28(sp)
   171ac:	00177713          	andi	a4,a4,1
   171b0:	be0700e3          	beq	a4,zero,16d90 <_vfprintf_r+0x2914>
   171b4:	bd5ff06f          	jal	zero,16d88 <_vfprintf_r+0x290c>
   171b8:	000237b7          	lui	a5,0x23
   171bc:	3b078793          	addi	a5,a5,944 # 233b0 <__clzsi2+0xa8>
   171c0:	b54ff06f          	jal	zero,16514 <_vfprintf_r+0x2098>
   171c4:	00012823          	sw	zero,16(sp)
   171c8:	11c10793          	addi	a5,sp,284
   171cc:	80000537          	lui	a0,0x80000
   171d0:	00a74733          	xor	a4,a4,a0
   171d4:	02d00513          	addi	a0,zero,45
   171d8:	02a12c23          	sw	a0,56(sp)
   171dc:	f5cfd06f          	jal	zero,14938 <_vfprintf_r+0x4bc>
   171e0:	000237b7          	lui	a5,0x23
   171e4:	3b878793          	addi	a5,a5,952 # 233b8 <__clzsi2+0xb0>
   171e8:	f00ff06f          	jal	zero,168e8 <_vfprintf_r+0x246c>
   171ec:	00412483          	lw	s1,4(sp)
   171f0:	e78fe06f          	jal	zero,15868 <_vfprintf_r+0x13ec>
   171f4:	000237b7          	lui	a5,0x23
   171f8:	3b878793          	addi	a5,a5,952 # 233b8 <__clzsi2+0xb0>
   171fc:	b18ff06f          	jal	zero,16514 <_vfprintf_r+0x2098>
   17200:	06700893          	addi	a7,zero,103
   17204:	03012703          	lw	a4,48(sp)
   17208:	00074703          	lbu	a4,0(a4)
   1720c:	f0170693          	addi	a3,a4,-255
   17210:	2a068663          	beq	a3,zero,174bc <_vfprintf_r+0x3040>
   17214:	2a675463          	bge	a4,t1,174bc <_vfprintf_r+0x3040>
   17218:	03012683          	lw	a3,48(sp)
   1721c:	00000513          	addi	a0,zero,0
   17220:	00000593          	addi	a1,zero,0
   17224:	0180006f          	jal	zero,1723c <_vfprintf_r+0x2dc0>
   17228:	00158593          	addi	a1,a1,1
   1722c:	00168693          	addi	a3,a3,1
   17230:	f0170613          	addi	a2,a4,-255
   17234:	02060063          	beq	a2,zero,17254 <_vfprintf_r+0x2dd8>
   17238:	00675e63          	bge	a4,t1,17254 <_vfprintf_r+0x2dd8>
   1723c:	40e30333          	sub	t1,t1,a4
   17240:	0016c703          	lbu	a4,1(a3)
   17244:	fe0712e3          	bne	a4,zero,17228 <_vfprintf_r+0x2dac>
   17248:	0006c703          	lbu	a4,0(a3)
   1724c:	00150513          	addi	a0,a0,1 # 80000001 <__BSS_END__+0x7feebc69>
   17250:	fe1ff06f          	jal	zero,17230 <_vfprintf_r+0x2db4>
   17254:	02d12823          	sw	a3,48(sp)
   17258:	04412683          	lw	a3,68(sp)
   1725c:	00b50733          	add	a4,a0,a1
   17260:	00b12e23          	sw	a1,28(sp)
   17264:	02d70733          	mul	a4,a4,a3
   17268:	02a12023          	sw	a0,32(sp)
   1726c:	00ec8cb3          	add	s9,s9,a4
   17270:	03812703          	lw	a4,56(sp)
   17274:	fffcc693          	xori	a3,s9,-1
   17278:	41f6d693          	srai	a3,a3,0x1f
   1727c:	00dcfc33          	and	s8,s9,a3
   17280:	14070e63          	beq	a4,zero,173dc <_vfprintf_r+0x2f60>
   17284:	02d00713          	addi	a4,zero,45
   17288:	01012b83          	lw	s7,16(sp)
   1728c:	08e109a3          	sb	a4,147(sp)
   17290:	001c0c13          	addi	s8,s8,1
   17294:	00012823          	sw	zero,16(sp)
   17298:	00000a93          	addi	s5,zero,0
   1729c:	c10fd06f          	jal	zero,146ac <_vfprintf_r+0x230>
   172a0:	fffa8c93          	addi	s9,s5,-1
   172a4:	02012b03          	lw	s6,32(sp)
   172a8:	02c12883          	lw	a7,44(sp)
   172ac:	03c12783          	lw	a5,60(sp)
   172b0:	04012d03          	lw	s10,64(sp)
   172b4:	04812903          	lw	s2,72(sp)
   172b8:	015c0ab3          	add	s5,s8,s5
   172bc:	000c0713          	addi	a4,s8,0
   172c0:	03000613          	addi	a2,zero,48
   172c4:	000cd463          	bge	s9,zero,172cc <_vfprintf_r+0x2e50>
   172c8:	971fd06f          	jal	zero,14c38 <_vfprintf_r+0x7bc>
   172cc:	00170713          	addi	a4,a4,1
   172d0:	fec70fa3          	sb	a2,-1(a4)
   172d4:	feea9ce3          	bne	s5,a4,172cc <_vfprintf_r+0x2e50>
   172d8:	019c0733          	add	a4,s8,s9
   172dc:	00170c13          	addi	s8,a4,1
   172e0:	959fd06f          	jal	zero,14c38 <_vfprintf_r+0x7bc>
   172e4:	0a012703          	lw	a4,160(sp)
   172e8:	01812883          	lw	a7,24(sp)
   172ec:	9b9760e3          	bltu	a4,s9,16c8c <_vfprintf_r+0x2810>
   172f0:	40f70733          	sub	a4,a4,a5
   172f4:	00e12c23          	sw	a4,24(sp)
   172f8:	9c1ff06f          	jal	zero,16cb8 <_vfprintf_r+0x283c>
   172fc:	08010513          	addi	a0,sp,128
   17300:	07010593          	addi	a1,sp,112
   17304:	00f12e23          	sw	a5,28(sp)
   17308:	01112c23          	sw	a7,24(sp)
   1730c:	09d12023          	sw	t4,128(sp)
   17310:	09e12223          	sw	t5,132(sp)
   17314:	08512423          	sw	t0,136(sp)
   17318:	09912623          	sw	s9,140(sp)
   1731c:	06012823          	sw	zero,112(sp)
   17320:	06012a23          	sw	zero,116(sp)
   17324:	06012c23          	sw	zero,120(sp)
   17328:	06012e23          	sw	zero,124(sp)
   1732c:	568090ef          	jal	ra,20894 <__eqtf2>
   17330:	01812883          	lw	a7,24(sp)
   17334:	01c12783          	lw	a5,28(sp)
   17338:	0c051a63          	bne	a0,zero,1740c <_vfprintf_r+0x2f90>
   1733c:	09812303          	lw	t1,152(sp)
   17340:	00648cb3          	add	s9,s1,t1
   17344:	fb0ff06f          	jal	zero,16af4 <_vfprintf_r+0x2678>
   17348:	02412703          	lw	a4,36(sp)
   1734c:	006a8f33          	add	t5,s5,t1
   17350:	06600893          	addi	a7,zero,102
   17354:	00ef0cb3          	add	s9,t5,a4
   17358:	fbcff06f          	jal	zero,16b14 <_vfprintf_r+0x2698>
   1735c:	02d00713          	addi	a4,zero,45
   17360:	0ae102a3          	sb	a4,165(sp)
   17364:	ff800693          	addi	a3,zero,-8
   17368:	00100713          	addi	a4,zero,1
   1736c:	40670733          	sub	a4,a4,t1
   17370:	96d348e3          	blt	t1,a3,16ce0 <_vfprintf_r+0x2864>
   17374:	03000693          	addi	a3,zero,48
   17378:	0ad10323          	sb	a3,166(sp)
   1737c:	01712e23          	sw	s7,28(sp)
   17380:	00012823          	sw	zero,16(sp)
   17384:	0a710693          	addi	a3,sp,167
   17388:	8edfd06f          	jal	zero,14c74 <_vfprintf_r+0x7f8>
   1738c:	02d00713          	addi	a4,zero,45
   17390:	0ae102a3          	sb	a4,165(sp)
   17394:	ff800693          	addi	a3,zero,-8
   17398:	00100713          	addi	a4,zero,1
   1739c:	40c70733          	sub	a4,a4,a2
   173a0:	94d644e3          	blt	a2,a3,16ce8 <_vfprintf_r+0x286c>
   173a4:	8cdfd06f          	jal	zero,14c70 <_vfprintf_r+0x7f4>
   173a8:	000236b7          	lui	a3,0x23
   173ac:	3c068713          	addi	a4,a3,960 # 233c0 <__clzsi2+0xb8>
   173b0:	00e12c23          	sw	a4,24(sp)
   173b4:	e6cfd06f          	jal	zero,14a20 <_vfprintf_r+0x5a4>
   173b8:	00c12783          	lw	a5,12(sp)
   173bc:	0007aa83          	lw	s5,0(a5)
   173c0:	00478793          	addi	a5,a5,4
   173c4:	000ad463          	bge	s5,zero,173cc <_vfprintf_r+0x2f50>
   173c8:	fff00a93          	addi	s5,zero,-1
   173cc:	001d4883          	lbu	a7,1(s10)
   173d0:	00f12623          	sw	a5,12(sp)
   173d4:	00068d13          	addi	s10,a3,0
   173d8:	a44fd06f          	jal	zero,1461c <_vfprintf_r+0x1a0>
   173dc:	09314703          	lbu	a4,147(sp)
   173e0:	08070263          	beq	a4,zero,17464 <_vfprintf_r+0x2fe8>
   173e4:	01012b83          	lw	s7,16(sp)
   173e8:	001c0c13          	addi	s8,s8,1
   173ec:	00012823          	sw	zero,16(sp)
   173f0:	00000a93          	addi	s5,zero,0
   173f4:	ab8fd06f          	jal	zero,146ac <_vfprintf_r+0x230>
   173f8:	02071e63          	bne	a4,zero,17434 <_vfprintf_r+0x2fb8>
   173fc:	00100c13          	addi	s8,zero,1
   17400:	000c0c93          	addi	s9,s8,0
   17404:	06600893          	addi	a7,zero,102
   17408:	f20ff06f          	jal	zero,16b28 <_vfprintf_r+0x26ac>
   1740c:	00100f93          	addi	t6,zero,1
   17410:	0a012703          	lw	a4,160(sp)
   17414:	415f8fb3          	sub	t6,t6,s5
   17418:	09f12c23          	sw	t6,152(sp)
   1741c:	00178c93          	addi	s9,a5,1
   17420:	879766e3          	bltu	a4,s9,16c8c <_vfprintf_r+0x2810>
   17424:	40f70733          	sub	a4,a4,a5
   17428:	000f8313          	addi	t1,t6,0
   1742c:	00e12c23          	sw	a4,24(sp)
   17430:	eccff06f          	jal	zero,16afc <_vfprintf_r+0x2680>
   17434:	02412703          	lw	a4,36(sp)
   17438:	06600893          	addi	a7,zero,102
   1743c:	00170f13          	addi	t5,a4,1
   17440:	015f0cb3          	add	s9,t5,s5
   17444:	fffcc693          	xori	a3,s9,-1
   17448:	41f6d693          	srai	a3,a3,0x1f
   1744c:	00dcfc33          	and	s8,s9,a3
   17450:	ed8ff06f          	jal	zero,16b28 <_vfprintf_r+0x26ac>
   17454:	a9c80813          	addi	a6,a6,-1380
   17458:	fa9fe06f          	jal	zero,16400 <_vfprintf_r+0x1f84>
   1745c:	09812303          	lw	t1,152(sp)
   17460:	985ff06f          	jal	zero,16de4 <_vfprintf_r+0x2968>
   17464:	01012b83          	lw	s7,16(sp)
   17468:	00000a93          	addi	s5,zero,0
   1746c:	00012823          	sw	zero,16(sp)
   17470:	a3cfd06f          	jal	zero,146ac <_vfprintf_r+0x230>
   17474:	00200713          	addi	a4,zero,2
   17478:	02e12623          	sw	a4,44(sp)
   1747c:	8f9ff06f          	jal	zero,16d74 <_vfprintf_r+0x28f8>
   17480:	a9c80813          	addi	a6,a6,-1380
   17484:	ad8ff06f          	jal	zero,1675c <_vfprintf_r+0x22e0>
   17488:	02012023          	sw	zero,32(sp)
   1748c:	00012e23          	sw	zero,28(sp)
   17490:	a1cfd06f          	jal	zero,146ac <_vfprintf_r+0x230>
   17494:	a9c80813          	addi	a6,a6,-1380
   17498:	ca5ff06f          	jal	zero,1713c <_vfprintf_r+0x2cc0>
   1749c:	01812703          	lw	a4,24(sp)
   174a0:	00e78733          	add	a4,a5,a4
   174a4:	f08ff06f          	jal	zero,16bac <_vfprintf_r+0x2730>
   174a8:	00412483          	lw	s1,4(sp)
   174ac:	00c4d783          	lhu	a5,12(s1)
   174b0:	0407e793          	ori	a5,a5,64
   174b4:	00f49623          	sh	a5,12(s1)
   174b8:	bb0fe06f          	jal	zero,15868 <_vfprintf_r+0x13ec>
   174bc:	00000713          	addi	a4,zero,0
   174c0:	02012023          	sw	zero,32(sp)
   174c4:	00012e23          	sw	zero,28(sp)
   174c8:	da5ff06f          	jal	zero,1726c <_vfprintf_r+0x2df0>
   174cc:	00000a93          	addi	s5,zero,0
   174d0:	02012023          	sw	zero,32(sp)
   174d4:	00012e23          	sw	zero,28(sp)
   174d8:	00012823          	sw	zero,16(sp)
   174dc:	00300c93          	addi	s9,zero,3
   174e0:	00400c13          	addi	s8,zero,4
   174e4:	9c8fd06f          	jal	zero,146ac <_vfprintf_r+0x230>
   174e8:	40f70733          	sub	a4,a4,a5
   174ec:	09812303          	lw	t1,152(sp)
   174f0:	00e12c23          	sw	a4,24(sp)
   174f4:	8f1ff06f          	jal	zero,16de4 <_vfprintf_r+0x2968>
   174f8:	09812303          	lw	t1,152(sp)
   174fc:	fc4ff06f          	jal	zero,16cc0 <_vfprintf_r+0x2844>

00017500 <vfprintf>:
   17500:	00050713          	addi	a4,a0,0
   17504:	8741a503          	lw	a0,-1932(gp) # 7072c <_impure_ptr>
   17508:	00060693          	addi	a3,a2,0
   1750c:	00058613          	addi	a2,a1,0
   17510:	00070593          	addi	a1,a4,0
   17514:	f69fc06f          	jal	zero,1447c <_vfprintf_r>

00017518 <__sbprintf>:
   17518:	00c5d783          	lhu	a5,12(a1)
   1751c:	0645ae83          	lw	t4,100(a1)
   17520:	00e5de03          	lhu	t3,14(a1)
   17524:	01c5a303          	lw	t1,28(a1)
   17528:	0245a883          	lw	a7,36(a1)
   1752c:	b7010113          	addi	sp,sp,-1168
   17530:	ffd7f793          	andi	a5,a5,-3
   17534:	08010813          	addi	a6,sp,128
   17538:	40000713          	addi	a4,zero,1024
   1753c:	48812423          	sw	s0,1160(sp)
   17540:	00058413          	addi	s0,a1,0
   17544:	01810593          	addi	a1,sp,24
   17548:	48912223          	sw	s1,1156(sp)
   1754c:	02f11223          	sh	a5,36(sp)
   17550:	48112623          	sw	ra,1164(sp)
   17554:	02012823          	sw	zero,48(sp)
   17558:	07d12e23          	sw	t4,124(sp)
   1755c:	03c11323          	sh	t3,38(sp)
   17560:	02612a23          	sw	t1,52(sp)
   17564:	03112e23          	sw	a7,60(sp)
   17568:	01012c23          	sw	a6,24(sp)
   1756c:	03012423          	sw	a6,40(sp)
   17570:	02e12023          	sw	a4,32(sp)
   17574:	02e12623          	sw	a4,44(sp)
   17578:	00050493          	addi	s1,a0,0
   1757c:	f01fc0ef          	jal	ra,1447c <_vfprintf_r>
   17580:	00050793          	addi	a5,a0,0
   17584:	02055a63          	bge	a0,zero,175b8 <__sbprintf+0xa0>
   17588:	02415703          	lhu	a4,36(sp)
   1758c:	04077713          	andi	a4,a4,64
   17590:	00070863          	beq	a4,zero,175a0 <__sbprintf+0x88>
   17594:	00c45703          	lhu	a4,12(s0)
   17598:	04076713          	ori	a4,a4,64
   1759c:	00e41623          	sh	a4,12(s0)
   175a0:	48c12083          	lw	ra,1164(sp)
   175a4:	48812403          	lw	s0,1160(sp)
   175a8:	48412483          	lw	s1,1156(sp)
   175ac:	00078513          	addi	a0,a5,0
   175b0:	49010113          	addi	sp,sp,1168
   175b4:	00008067          	jalr	zero,0(ra)
   175b8:	00a12623          	sw	a0,12(sp)
   175bc:	01810593          	addi	a1,sp,24
   175c0:	00048513          	addi	a0,s1,0
   175c4:	3c0000ef          	jal	ra,17984 <_fflush_r>
   175c8:	00c12783          	lw	a5,12(sp)
   175cc:	fa050ee3          	beq	a0,zero,17588 <__sbprintf+0x70>
   175d0:	fff00793          	addi	a5,zero,-1
   175d4:	fb5ff06f          	jal	zero,17588 <__sbprintf+0x70>

000175d8 <__sprint_r>:
   175d8:	00862703          	lw	a4,8(a2)
   175dc:	00071863          	bne	a4,zero,175ec <__sprint_r+0x14>
   175e0:	00000513          	addi	a0,zero,0
   175e4:	00062223          	sw	zero,4(a2)
   175e8:	00008067          	jalr	zero,0(ra)
   175ec:	fe010113          	addi	sp,sp,-32
   175f0:	00112e23          	sw	ra,28(sp)
   175f4:	00c12623          	sw	a2,12(sp)
   175f8:	480000ef          	jal	ra,17a78 <__sfvwrite_r>
   175fc:	00c12783          	lw	a5,12(sp)
   17600:	01c12083          	lw	ra,28(sp)
   17604:	0007a423          	sw	zero,8(a5)
   17608:	0007a223          	sw	zero,4(a5)
   1760c:	02010113          	addi	sp,sp,32
   17610:	00008067          	jalr	zero,0(ra)

00017614 <_fclose_r>:
   17614:	ff010113          	addi	sp,sp,-16
   17618:	00112623          	sw	ra,12(sp)
   1761c:	01212023          	sw	s2,0(sp)
   17620:	02058863          	beq	a1,zero,17650 <_fclose_r+0x3c>
   17624:	00812423          	sw	s0,8(sp)
   17628:	00912223          	sw	s1,4(sp)
   1762c:	00058413          	addi	s0,a1,0
   17630:	00050493          	addi	s1,a0,0
   17634:	00050663          	beq	a0,zero,17640 <_fclose_r+0x2c>
   17638:	03452783          	lw	a5,52(a0)
   1763c:	0c078c63          	beq	a5,zero,17714 <_fclose_r+0x100>
   17640:	00c41783          	lh	a5,12(s0)
   17644:	02079263          	bne	a5,zero,17668 <_fclose_r+0x54>
   17648:	00812403          	lw	s0,8(sp)
   1764c:	00412483          	lw	s1,4(sp)
   17650:	00c12083          	lw	ra,12(sp)
   17654:	00000913          	addi	s2,zero,0
   17658:	00090513          	addi	a0,s2,0
   1765c:	00012903          	lw	s2,0(sp)
   17660:	01010113          	addi	sp,sp,16
   17664:	00008067          	jalr	zero,0(ra)
   17668:	00040593          	addi	a1,s0,0
   1766c:	00048513          	addi	a0,s1,0
   17670:	0b8000ef          	jal	ra,17728 <__sflush_r>
   17674:	02c42783          	lw	a5,44(s0)
   17678:	00050913          	addi	s2,a0,0
   1767c:	00078a63          	beq	a5,zero,17690 <_fclose_r+0x7c>
   17680:	01c42583          	lw	a1,28(s0)
   17684:	00048513          	addi	a0,s1,0
   17688:	000780e7          	jalr	ra,0(a5)
   1768c:	06054463          	blt	a0,zero,176f4 <_fclose_r+0xe0>
   17690:	00c45783          	lhu	a5,12(s0)
   17694:	0807f793          	andi	a5,a5,128
   17698:	06079663          	bne	a5,zero,17704 <_fclose_r+0xf0>
   1769c:	03042583          	lw	a1,48(s0)
   176a0:	00058c63          	beq	a1,zero,176b8 <_fclose_r+0xa4>
   176a4:	04040793          	addi	a5,s0,64
   176a8:	00f58663          	beq	a1,a5,176b4 <_fclose_r+0xa0>
   176ac:	00048513          	addi	a0,s1,0
   176b0:	a5cfc0ef          	jal	ra,1390c <_free_r>
   176b4:	02042823          	sw	zero,48(s0)
   176b8:	04442583          	lw	a1,68(s0)
   176bc:	00058863          	beq	a1,zero,176cc <_fclose_r+0xb8>
   176c0:	00048513          	addi	a0,s1,0
   176c4:	a48fc0ef          	jal	ra,1390c <_free_r>
   176c8:	04042223          	sw	zero,68(s0)
   176cc:	90dfb0ef          	jal	ra,12fd8 <__sfp_lock_acquire>
   176d0:	00041623          	sh	zero,12(s0)
   176d4:	909fb0ef          	jal	ra,12fdc <__sfp_lock_release>
   176d8:	00c12083          	lw	ra,12(sp)
   176dc:	00812403          	lw	s0,8(sp)
   176e0:	00412483          	lw	s1,4(sp)
   176e4:	00090513          	addi	a0,s2,0
   176e8:	00012903          	lw	s2,0(sp)
   176ec:	01010113          	addi	sp,sp,16
   176f0:	00008067          	jalr	zero,0(ra)
   176f4:	00c45783          	lhu	a5,12(s0)
   176f8:	fff00913          	addi	s2,zero,-1
   176fc:	0807f793          	andi	a5,a5,128
   17700:	f8078ee3          	beq	a5,zero,1769c <_fclose_r+0x88>
   17704:	01042583          	lw	a1,16(s0)
   17708:	00048513          	addi	a0,s1,0
   1770c:	a00fc0ef          	jal	ra,1390c <_free_r>
   17710:	f8dff06f          	jal	zero,1769c <_fclose_r+0x88>
   17714:	8a1fb0ef          	jal	ra,12fb4 <__sinit>
   17718:	f29ff06f          	jal	zero,17640 <_fclose_r+0x2c>

0001771c <fclose>:
   1771c:	00050593          	addi	a1,a0,0
   17720:	8741a503          	lw	a0,-1932(gp) # 7072c <_impure_ptr>
   17724:	ef1ff06f          	jal	zero,17614 <_fclose_r>

00017728 <__sflush_r>:
   17728:	00c59703          	lh	a4,12(a1)
   1772c:	fe010113          	addi	sp,sp,-32
   17730:	00812c23          	sw	s0,24(sp)
   17734:	01312623          	sw	s3,12(sp)
   17738:	00112e23          	sw	ra,28(sp)
   1773c:	00877793          	andi	a5,a4,8
   17740:	00058413          	addi	s0,a1,0
   17744:	00050993          	addi	s3,a0,0
   17748:	12079263          	bne	a5,zero,1786c <__sflush_r+0x144>
   1774c:	000017b7          	lui	a5,0x1
   17750:	80078793          	addi	a5,a5,-2048 # 800 <exit-0xf8b4>
   17754:	0045a683          	lw	a3,4(a1)
   17758:	00f767b3          	or	a5,a4,a5
   1775c:	00f59623          	sh	a5,12(a1)
   17760:	18d05c63          	bge	zero,a3,178f8 <__sflush_r+0x1d0>
   17764:	02842803          	lw	a6,40(s0)
   17768:	0e080663          	beq	a6,zero,17854 <__sflush_r+0x12c>
   1776c:	00912a23          	sw	s1,20(sp)
   17770:	01371693          	slli	a3,a4,0x13
   17774:	0009a483          	lw	s1,0(s3)
   17778:	0009a023          	sw	zero,0(s3)
   1777c:	1806ca63          	blt	a3,zero,17910 <__sflush_r+0x1e8>
   17780:	01c42583          	lw	a1,28(s0)
   17784:	00000613          	addi	a2,zero,0
   17788:	00100693          	addi	a3,zero,1
   1778c:	00098513          	addi	a0,s3,0
   17790:	000800e7          	jalr	ra,0(a6)
   17794:	fff00793          	addi	a5,zero,-1
   17798:	00050613          	addi	a2,a0,0
   1779c:	1af50c63          	beq	a0,a5,17954 <__sflush_r+0x22c>
   177a0:	00c41783          	lh	a5,12(s0)
   177a4:	02842803          	lw	a6,40(s0)
   177a8:	0047f793          	andi	a5,a5,4
   177ac:	00078e63          	beq	a5,zero,177c8 <__sflush_r+0xa0>
   177b0:	00442703          	lw	a4,4(s0)
   177b4:	03042783          	lw	a5,48(s0)
   177b8:	40e60633          	sub	a2,a2,a4
   177bc:	00078663          	beq	a5,zero,177c8 <__sflush_r+0xa0>
   177c0:	03c42783          	lw	a5,60(s0)
   177c4:	40f60633          	sub	a2,a2,a5
   177c8:	01c42583          	lw	a1,28(s0)
   177cc:	00000693          	addi	a3,zero,0
   177d0:	00098513          	addi	a0,s3,0
   177d4:	000800e7          	jalr	ra,0(a6)
   177d8:	fff00713          	addi	a4,zero,-1
   177dc:	00c41783          	lh	a5,12(s0)
   177e0:	12e51c63          	bne	a0,a4,17918 <__sflush_r+0x1f0>
   177e4:	0009a683          	lw	a3,0(s3)
   177e8:	01d00713          	addi	a4,zero,29
   177ec:	18d76263          	bltu	a4,a3,17970 <__sflush_r+0x248>
   177f0:	20400737          	lui	a4,0x20400
   177f4:	00170713          	addi	a4,a4,1 # 20400001 <__BSS_END__+0x202ebc69>
   177f8:	00d75733          	srl	a4,a4,a3
   177fc:	00177713          	andi	a4,a4,1
   17800:	16070863          	beq	a4,zero,17970 <__sflush_r+0x248>
   17804:	01042683          	lw	a3,16(s0)
   17808:	fffff737          	lui	a4,0xfffff
   1780c:	7ff70713          	addi	a4,a4,2047 # fffff7ff <__BSS_END__+0xffeeb467>
   17810:	00e7f733          	and	a4,a5,a4
   17814:	00e41623          	sh	a4,12(s0)
   17818:	00042223          	sw	zero,4(s0)
   1781c:	00d42023          	sw	a3,0(s0)
   17820:	01379713          	slli	a4,a5,0x13
   17824:	00075663          	bge	a4,zero,17830 <__sflush_r+0x108>
   17828:	0009a783          	lw	a5,0(s3)
   1782c:	10078863          	beq	a5,zero,1793c <__sflush_r+0x214>
   17830:	03042583          	lw	a1,48(s0)
   17834:	0099a023          	sw	s1,0(s3)
   17838:	10058a63          	beq	a1,zero,1794c <__sflush_r+0x224>
   1783c:	04040793          	addi	a5,s0,64
   17840:	00f58663          	beq	a1,a5,1784c <__sflush_r+0x124>
   17844:	00098513          	addi	a0,s3,0
   17848:	8c4fc0ef          	jal	ra,1390c <_free_r>
   1784c:	01412483          	lw	s1,20(sp)
   17850:	02042823          	sw	zero,48(s0)
   17854:	01c12083          	lw	ra,28(sp)
   17858:	01812403          	lw	s0,24(sp)
   1785c:	00c12983          	lw	s3,12(sp)
   17860:	00000513          	addi	a0,zero,0
   17864:	02010113          	addi	sp,sp,32
   17868:	00008067          	jalr	zero,0(ra)
   1786c:	01212823          	sw	s2,16(sp)
   17870:	0105a903          	lw	s2,16(a1)
   17874:	08090a63          	beq	s2,zero,17908 <__sflush_r+0x1e0>
   17878:	00912a23          	sw	s1,20(sp)
   1787c:	0005a483          	lw	s1,0(a1)
   17880:	00377713          	andi	a4,a4,3
   17884:	0125a023          	sw	s2,0(a1)
   17888:	412484b3          	sub	s1,s1,s2
   1788c:	00000793          	addi	a5,zero,0
   17890:	00071463          	bne	a4,zero,17898 <__sflush_r+0x170>
   17894:	0145a783          	lw	a5,20(a1)
   17898:	00f42423          	sw	a5,8(s0)
   1789c:	00904863          	blt	zero,s1,178ac <__sflush_r+0x184>
   178a0:	0640006f          	jal	zero,17904 <__sflush_r+0x1dc>
   178a4:	00a90933          	add	s2,s2,a0
   178a8:	04905e63          	bge	zero,s1,17904 <__sflush_r+0x1dc>
   178ac:	02442783          	lw	a5,36(s0)
   178b0:	01c42583          	lw	a1,28(s0)
   178b4:	00048693          	addi	a3,s1,0
   178b8:	00090613          	addi	a2,s2,0
   178bc:	00098513          	addi	a0,s3,0
   178c0:	000780e7          	jalr	ra,0(a5)
   178c4:	40a484b3          	sub	s1,s1,a0
   178c8:	fca04ee3          	blt	zero,a0,178a4 <__sflush_r+0x17c>
   178cc:	00c45783          	lhu	a5,12(s0)
   178d0:	01012903          	lw	s2,16(sp)
   178d4:	0407e793          	ori	a5,a5,64
   178d8:	01c12083          	lw	ra,28(sp)
   178dc:	00f41623          	sh	a5,12(s0)
   178e0:	01812403          	lw	s0,24(sp)
   178e4:	01412483          	lw	s1,20(sp)
   178e8:	00c12983          	lw	s3,12(sp)
   178ec:	fff00513          	addi	a0,zero,-1
   178f0:	02010113          	addi	sp,sp,32
   178f4:	00008067          	jalr	zero,0(ra)
   178f8:	03c5a683          	lw	a3,60(a1)
   178fc:	e6d044e3          	blt	zero,a3,17764 <__sflush_r+0x3c>
   17900:	f55ff06f          	jal	zero,17854 <__sflush_r+0x12c>
   17904:	01412483          	lw	s1,20(sp)
   17908:	01012903          	lw	s2,16(sp)
   1790c:	f49ff06f          	jal	zero,17854 <__sflush_r+0x12c>
   17910:	05042603          	lw	a2,80(s0)
   17914:	e95ff06f          	jal	zero,177a8 <__sflush_r+0x80>
   17918:	01042683          	lw	a3,16(s0)
   1791c:	fffff737          	lui	a4,0xfffff
   17920:	7ff70713          	addi	a4,a4,2047 # fffff7ff <__BSS_END__+0xffeeb467>
   17924:	00e7f733          	and	a4,a5,a4
   17928:	00e41623          	sh	a4,12(s0)
   1792c:	00042223          	sw	zero,4(s0)
   17930:	00d42023          	sw	a3,0(s0)
   17934:	01379713          	slli	a4,a5,0x13
   17938:	ee075ce3          	bge	a4,zero,17830 <__sflush_r+0x108>
   1793c:	03042583          	lw	a1,48(s0)
   17940:	04a42823          	sw	a0,80(s0)
   17944:	0099a023          	sw	s1,0(s3)
   17948:	ee059ae3          	bne	a1,zero,1783c <__sflush_r+0x114>
   1794c:	01412483          	lw	s1,20(sp)
   17950:	f05ff06f          	jal	zero,17854 <__sflush_r+0x12c>
   17954:	0009a783          	lw	a5,0(s3)
   17958:	e40784e3          	beq	a5,zero,177a0 <__sflush_r+0x78>
   1795c:	fe378713          	addi	a4,a5,-29
   17960:	00070c63          	beq	a4,zero,17978 <__sflush_r+0x250>
   17964:	fea78793          	addi	a5,a5,-22
   17968:	00078863          	beq	a5,zero,17978 <__sflush_r+0x250>
   1796c:	00c45783          	lhu	a5,12(s0)
   17970:	0407e793          	ori	a5,a5,64
   17974:	f65ff06f          	jal	zero,178d8 <__sflush_r+0x1b0>
   17978:	0099a023          	sw	s1,0(s3)
   1797c:	01412483          	lw	s1,20(sp)
   17980:	ed5ff06f          	jal	zero,17854 <__sflush_r+0x12c>

00017984 <_fflush_r>:
   17984:	00050793          	addi	a5,a0,0
   17988:	00050663          	beq	a0,zero,17994 <_fflush_r+0x10>
   1798c:	03452703          	lw	a4,52(a0)
   17990:	00070e63          	beq	a4,zero,179ac <_fflush_r+0x28>
   17994:	00c59703          	lh	a4,12(a1)
   17998:	00071663          	bne	a4,zero,179a4 <_fflush_r+0x20>
   1799c:	00000513          	addi	a0,zero,0
   179a0:	00008067          	jalr	zero,0(ra)
   179a4:	00078513          	addi	a0,a5,0
   179a8:	d81ff06f          	jal	zero,17728 <__sflush_r>
   179ac:	fe010113          	addi	sp,sp,-32
   179b0:	00b12623          	sw	a1,12(sp)
   179b4:	00112e23          	sw	ra,28(sp)
   179b8:	00a12423          	sw	a0,8(sp)
   179bc:	df8fb0ef          	jal	ra,12fb4 <__sinit>
   179c0:	00c12583          	lw	a1,12(sp)
   179c4:	00812783          	lw	a5,8(sp)
   179c8:	00c59703          	lh	a4,12(a1)
   179cc:	00070a63          	beq	a4,zero,179e0 <_fflush_r+0x5c>
   179d0:	01c12083          	lw	ra,28(sp)
   179d4:	00078513          	addi	a0,a5,0
   179d8:	02010113          	addi	sp,sp,32
   179dc:	d4dff06f          	jal	zero,17728 <__sflush_r>
   179e0:	01c12083          	lw	ra,28(sp)
   179e4:	00000513          	addi	a0,zero,0
   179e8:	02010113          	addi	sp,sp,32
   179ec:	00008067          	jalr	zero,0(ra)

000179f0 <fflush>:
   179f0:	06050063          	beq	a0,zero,17a50 <fflush+0x60>
   179f4:	00050593          	addi	a1,a0,0
   179f8:	8741a503          	lw	a0,-1932(gp) # 7072c <_impure_ptr>
   179fc:	00050663          	beq	a0,zero,17a08 <fflush+0x18>
   17a00:	03452783          	lw	a5,52(a0)
   17a04:	00078c63          	beq	a5,zero,17a1c <fflush+0x2c>
   17a08:	00c59783          	lh	a5,12(a1)
   17a0c:	00079663          	bne	a5,zero,17a18 <fflush+0x28>
   17a10:	00000513          	addi	a0,zero,0
   17a14:	00008067          	jalr	zero,0(ra)
   17a18:	d11ff06f          	jal	zero,17728 <__sflush_r>
   17a1c:	fe010113          	addi	sp,sp,-32
   17a20:	00b12623          	sw	a1,12(sp)
   17a24:	00a12423          	sw	a0,8(sp)
   17a28:	00112e23          	sw	ra,28(sp)
   17a2c:	d88fb0ef          	jal	ra,12fb4 <__sinit>
   17a30:	00c12583          	lw	a1,12(sp)
   17a34:	00812503          	lw	a0,8(sp)
   17a38:	00c59783          	lh	a5,12(a1)
   17a3c:	02079863          	bne	a5,zero,17a6c <fflush+0x7c>
   17a40:	01c12083          	lw	ra,28(sp)
   17a44:	00000513          	addi	a0,zero,0
   17a48:	02010113          	addi	sp,sp,32
   17a4c:	00008067          	jalr	zero,0(ra)
   17a50:	00070637          	lui	a2,0x70
   17a54:	000185b7          	lui	a1,0x18
   17a58:	00070537          	lui	a0,0x70
   17a5c:	01060613          	addi	a2,a2,16 # 70010 <__sglue>
   17a60:	98458593          	addi	a1,a1,-1660 # 17984 <_fflush_r>
   17a64:	02050513          	addi	a0,a0,32 # 70020 <_impure_data>
   17a68:	da8fb06f          	jal	zero,13010 <_fwalk_sglue>
   17a6c:	01c12083          	lw	ra,28(sp)
   17a70:	02010113          	addi	sp,sp,32
   17a74:	cb5ff06f          	jal	zero,17728 <__sflush_r>

00017a78 <__sfvwrite_r>:
   17a78:	00862783          	lw	a5,8(a2)
   17a7c:	22078c63          	beq	a5,zero,17cb4 <__sfvwrite_r+0x23c>
   17a80:	00c59683          	lh	a3,12(a1)
   17a84:	fc010113          	addi	sp,sp,-64
   17a88:	02812c23          	sw	s0,56(sp)
   17a8c:	03412423          	sw	s4,40(sp)
   17a90:	03512223          	sw	s5,36(sp)
   17a94:	02112e23          	sw	ra,60(sp)
   17a98:	0086f793          	andi	a5,a3,8
   17a9c:	00058413          	addi	s0,a1,0
   17aa0:	00050a93          	addi	s5,a0,0
   17aa4:	00060a13          	addi	s4,a2,0
   17aa8:	0a078463          	beq	a5,zero,17b50 <__sfvwrite_r+0xd8>
   17aac:	0105a783          	lw	a5,16(a1)
   17ab0:	0a078063          	beq	a5,zero,17b50 <__sfvwrite_r+0xd8>
   17ab4:	02912a23          	sw	s1,52(sp)
   17ab8:	03212823          	sw	s2,48(sp)
   17abc:	03312623          	sw	s3,44(sp)
   17ac0:	03612023          	sw	s6,32(sp)
   17ac4:	0026f793          	andi	a5,a3,2
   17ac8:	000a2483          	lw	s1,0(s4)
   17acc:	0a078a63          	beq	a5,zero,17b80 <__sfvwrite_r+0x108>
   17ad0:	80000b37          	lui	s6,0x80000
   17ad4:	c00b0b13          	addi	s6,s6,-1024 # 7ffffc00 <__BSS_END__+0x7feeb868>
   17ad8:	00000993          	addi	s3,zero,0
   17adc:	00000913          	addi	s2,zero,0
   17ae0:	00098613          	addi	a2,s3,0
   17ae4:	000a8513          	addi	a0,s5,0
   17ae8:	1a090e63          	beq	s2,zero,17ca4 <__sfvwrite_r+0x22c>
   17aec:	00090693          	addi	a3,s2,0
   17af0:	012b7663          	bgeu	s6,s2,17afc <__sfvwrite_r+0x84>
   17af4:	800006b7          	lui	a3,0x80000
   17af8:	c0068693          	addi	a3,a3,-1024 # 7ffffc00 <__BSS_END__+0x7feeb868>
   17afc:	02442783          	lw	a5,36(s0)
   17b00:	01c42583          	lw	a1,28(s0)
   17b04:	000780e7          	jalr	ra,0(a5)
   17b08:	40a05863          	bge	zero,a0,17f18 <__sfvwrite_r+0x4a0>
   17b0c:	008a2783          	lw	a5,8(s4)
   17b10:	00a989b3          	add	s3,s3,a0
   17b14:	40a90933          	sub	s2,s2,a0
   17b18:	40a787b3          	sub	a5,a5,a0
   17b1c:	00fa2423          	sw	a5,8(s4)
   17b20:	fc0790e3          	bne	a5,zero,17ae0 <__sfvwrite_r+0x68>
   17b24:	03412483          	lw	s1,52(sp)
   17b28:	03012903          	lw	s2,48(sp)
   17b2c:	02c12983          	lw	s3,44(sp)
   17b30:	02012b03          	lw	s6,32(sp)
   17b34:	00000513          	addi	a0,zero,0
   17b38:	03c12083          	lw	ra,60(sp)
   17b3c:	03812403          	lw	s0,56(sp)
   17b40:	02812a03          	lw	s4,40(sp)
   17b44:	02412a83          	lw	s5,36(sp)
   17b48:	04010113          	addi	sp,sp,64
   17b4c:	00008067          	jalr	zero,0(ra)
   17b50:	00040593          	addi	a1,s0,0
   17b54:	000a8513          	addi	a0,s5,0
   17b58:	3e0000ef          	jal	ra,17f38 <__swsetup_r>
   17b5c:	26051663          	bne	a0,zero,17dc8 <__sfvwrite_r+0x350>
   17b60:	00c41683          	lh	a3,12(s0)
   17b64:	02912a23          	sw	s1,52(sp)
   17b68:	03212823          	sw	s2,48(sp)
   17b6c:	03312623          	sw	s3,44(sp)
   17b70:	03612023          	sw	s6,32(sp)
   17b74:	0026f793          	andi	a5,a3,2
   17b78:	000a2483          	lw	s1,0(s4)
   17b7c:	f4079ae3          	bne	a5,zero,17ad0 <__sfvwrite_r+0x58>
   17b80:	01712e23          	sw	s7,28(sp)
   17b84:	01812c23          	sw	s8,24(sp)
   17b88:	0016f793          	andi	a5,a3,1
   17b8c:	12079863          	bne	a5,zero,17cbc <__sfvwrite_r+0x244>
   17b90:	00042783          	lw	a5,0(s0)
   17b94:	80000737          	lui	a4,0x80000
   17b98:	fff70c13          	addi	s8,a4,-1 # 7fffffff <__BSS_END__+0x7feebc67>
   17b9c:	00000b13          	addi	s6,zero,0
   17ba0:	00000993          	addi	s3,zero,0
   17ba4:	0e098863          	beq	s3,zero,17c94 <__sfvwrite_r+0x21c>
   17ba8:	2006f713          	andi	a4,a3,512
   17bac:	00842903          	lw	s2,8(s0)
   17bb0:	00078513          	addi	a0,a5,0
   17bb4:	20070e63          	beq	a4,zero,17dd0 <__sfvwrite_r+0x358>
   17bb8:	00090b93          	addi	s7,s2,0
   17bbc:	2d29e063          	bltu	s3,s2,17e7c <__sfvwrite_r+0x404>
   17bc0:	4806f713          	andi	a4,a3,1152
   17bc4:	08070c63          	beq	a4,zero,17c5c <__sfvwrite_r+0x1e4>
   17bc8:	01442603          	lw	a2,20(s0)
   17bcc:	01042583          	lw	a1,16(s0)
   17bd0:	00161713          	slli	a4,a2,0x1
   17bd4:	00c70733          	add	a4,a4,a2
   17bd8:	01f75913          	srli	s2,a4,0x1f
   17bdc:	40b78bb3          	sub	s7,a5,a1
   17be0:	00e90933          	add	s2,s2,a4
   17be4:	001b8793          	addi	a5,s7,1
   17be8:	40195913          	srai	s2,s2,0x1
   17bec:	013787b3          	add	a5,a5,s3
   17bf0:	00090613          	addi	a2,s2,0
   17bf4:	00f97663          	bgeu	s2,a5,17c00 <__sfvwrite_r+0x188>
   17bf8:	00078913          	addi	s2,a5,0
   17bfc:	00078613          	addi	a2,a5,0
   17c00:	4006f693          	andi	a3,a3,1024
   17c04:	2c068263          	beq	a3,zero,17ec8 <__sfvwrite_r+0x450>
   17c08:	00060593          	addi	a1,a2,0
   17c0c:	000a8513          	addi	a0,s5,0
   17c10:	fe5fb0ef          	jal	ra,13bf4 <_malloc_r>
   17c14:	30050663          	beq	a0,zero,17f20 <__sfvwrite_r+0x4a8>
   17c18:	01042583          	lw	a1,16(s0)
   17c1c:	000b8613          	addi	a2,s7,0
   17c20:	00a12623          	sw	a0,12(sp)
   17c24:	7c4000ef          	jal	ra,183e8 <memcpy>
   17c28:	00c45783          	lhu	a5,12(s0)
   17c2c:	00c12703          	lw	a4,12(sp)
   17c30:	b7f7f793          	andi	a5,a5,-1153
   17c34:	0807e793          	ori	a5,a5,128
   17c38:	00f41623          	sh	a5,12(s0)
   17c3c:	417907b3          	sub	a5,s2,s7
   17c40:	01770533          	add	a0,a4,s7
   17c44:	01242a23          	sw	s2,20(s0)
   17c48:	00e42823          	sw	a4,16(s0)
   17c4c:	00a42023          	sw	a0,0(s0)
   17c50:	00f42423          	sw	a5,8(s0)
   17c54:	00098913          	addi	s2,s3,0
   17c58:	00098b93          	addi	s7,s3,0
   17c5c:	000b0593          	addi	a1,s6,0
   17c60:	000b8613          	addi	a2,s7,0
   17c64:	65c000ef          	jal	ra,182c0 <memmove>
   17c68:	00842703          	lw	a4,8(s0)
   17c6c:	00042783          	lw	a5,0(s0)
   17c70:	41270733          	sub	a4,a4,s2
   17c74:	00e42423          	sw	a4,8(s0)
   17c78:	008a2703          	lw	a4,8(s4)
   17c7c:	017787b3          	add	a5,a5,s7
   17c80:	00f42023          	sw	a5,0(s0)
   17c84:	41370733          	sub	a4,a4,s3
   17c88:	00ea2423          	sw	a4,8(s4)
   17c8c:	28070063          	beq	a4,zero,17f0c <__sfvwrite_r+0x494>
   17c90:	00c41683          	lh	a3,12(s0)
   17c94:	0004ab03          	lw	s6,0(s1)
   17c98:	0044a983          	lw	s3,4(s1)
   17c9c:	00848493          	addi	s1,s1,8
   17ca0:	f05ff06f          	jal	zero,17ba4 <__sfvwrite_r+0x12c>
   17ca4:	0004a983          	lw	s3,0(s1)
   17ca8:	0044a903          	lw	s2,4(s1)
   17cac:	00848493          	addi	s1,s1,8
   17cb0:	e31ff06f          	jal	zero,17ae0 <__sfvwrite_r+0x68>
   17cb4:	00000513          	addi	a0,zero,0
   17cb8:	00008067          	jalr	zero,0(ra)
   17cbc:	00000b13          	addi	s6,zero,0
   17cc0:	00000b93          	addi	s7,zero,0
   17cc4:	00000513          	addi	a0,zero,0
   17cc8:	00000c13          	addi	s8,zero,0
   17ccc:	060b0e63          	beq	s6,zero,17d48 <__sfvwrite_r+0x2d0>
   17cd0:	08050663          	beq	a0,zero,17d5c <__sfvwrite_r+0x2e4>
   17cd4:	000b8793          	addi	a5,s7,0
   17cd8:	000b0993          	addi	s3,s6,0
   17cdc:	0167f463          	bgeu	a5,s6,17ce4 <__sfvwrite_r+0x26c>
   17ce0:	00078993          	addi	s3,a5,0
   17ce4:	01442683          	lw	a3,20(s0)
   17ce8:	00842903          	lw	s2,8(s0)
   17cec:	00042503          	lw	a0,0(s0)
   17cf0:	01042783          	lw	a5,16(s0)
   17cf4:	01268933          	add	s2,a3,s2
   17cf8:	00a7f463          	bgeu	a5,a0,17d00 <__sfvwrite_r+0x288>
   17cfc:	09394063          	blt	s2,s3,17d7c <__sfvwrite_r+0x304>
   17d00:	18d9ce63          	blt	s3,a3,17e9c <__sfvwrite_r+0x424>
   17d04:	02442783          	lw	a5,36(s0)
   17d08:	01c42583          	lw	a1,28(s0)
   17d0c:	000c0613          	addi	a2,s8,0
   17d10:	000a8513          	addi	a0,s5,0
   17d14:	000780e7          	jalr	ra,0(a5)
   17d18:	00050913          	addi	s2,a0,0
   17d1c:	08a05463          	bge	zero,a0,17da4 <__sfvwrite_r+0x32c>
   17d20:	412b8bb3          	sub	s7,s7,s2
   17d24:	00100513          	addi	a0,zero,1
   17d28:	160b8063          	beq	s7,zero,17e88 <__sfvwrite_r+0x410>
   17d2c:	008a2783          	lw	a5,8(s4)
   17d30:	412787b3          	sub	a5,a5,s2
   17d34:	00fa2423          	sw	a5,8(s4)
   17d38:	1c078a63          	beq	a5,zero,17f0c <__sfvwrite_r+0x494>
   17d3c:	412b0b33          	sub	s6,s6,s2
   17d40:	012c0c33          	add	s8,s8,s2
   17d44:	f80b16e3          	bne	s6,zero,17cd0 <__sfvwrite_r+0x258>
   17d48:	0044ab03          	lw	s6,4(s1)
   17d4c:	00048793          	addi	a5,s1,0
   17d50:	00848493          	addi	s1,s1,8
   17d54:	fe0b0ae3          	beq	s6,zero,17d48 <__sfvwrite_r+0x2d0>
   17d58:	0007ac03          	lw	s8,0(a5)
   17d5c:	000b0613          	addi	a2,s6,0
   17d60:	00a00593          	addi	a1,zero,10
   17d64:	000c0513          	addi	a0,s8,0
   17d68:	334000ef          	jal	ra,1809c <memchr>
   17d6c:	18050a63          	beq	a0,zero,17f00 <__sfvwrite_r+0x488>
   17d70:	00150513          	addi	a0,a0,1
   17d74:	41850bb3          	sub	s7,a0,s8
   17d78:	f5dff06f          	jal	zero,17cd4 <__sfvwrite_r+0x25c>
   17d7c:	000c0593          	addi	a1,s8,0
   17d80:	00090613          	addi	a2,s2,0
   17d84:	53c000ef          	jal	ra,182c0 <memmove>
   17d88:	00042783          	lw	a5,0(s0)
   17d8c:	00040593          	addi	a1,s0,0
   17d90:	000a8513          	addi	a0,s5,0
   17d94:	012787b3          	add	a5,a5,s2
   17d98:	00f42023          	sw	a5,0(s0)
   17d9c:	be9ff0ef          	jal	ra,17984 <_fflush_r>
   17da0:	f80500e3          	beq	a0,zero,17d20 <__sfvwrite_r+0x2a8>
   17da4:	00c41783          	lh	a5,12(s0)
   17da8:	01c12b83          	lw	s7,28(sp)
   17dac:	01812c03          	lw	s8,24(sp)
   17db0:	03412483          	lw	s1,52(sp)
   17db4:	03012903          	lw	s2,48(sp)
   17db8:	02c12983          	lw	s3,44(sp)
   17dbc:	02012b03          	lw	s6,32(sp)
   17dc0:	0407e793          	ori	a5,a5,64
   17dc4:	00f41623          	sh	a5,12(s0)
   17dc8:	fff00513          	addi	a0,zero,-1
   17dcc:	d6dff06f          	jal	zero,17b38 <__sfvwrite_r+0xc0>
   17dd0:	01042703          	lw	a4,16(s0)
   17dd4:	06f76063          	bltu	a4,a5,17e34 <__sfvwrite_r+0x3bc>
   17dd8:	01442703          	lw	a4,20(s0)
   17ddc:	04e9ec63          	bltu	s3,a4,17e34 <__sfvwrite_r+0x3bc>
   17de0:	00098693          	addi	a3,s3,0
   17de4:	013c7463          	bgeu	s8,s3,17dec <__sfvwrite_r+0x374>
   17de8:	000c0693          	addi	a3,s8,0
   17dec:	02e6e733          	rem	a4,a3,a4
   17df0:	02442783          	lw	a5,36(s0)
   17df4:	01c42583          	lw	a1,28(s0)
   17df8:	000b0613          	addi	a2,s6,0
   17dfc:	000a8513          	addi	a0,s5,0
   17e00:	40e686b3          	sub	a3,a3,a4
   17e04:	000780e7          	jalr	ra,0(a5)
   17e08:	f8a05ee3          	bge	zero,a0,17da4 <__sfvwrite_r+0x32c>
   17e0c:	00050913          	addi	s2,a0,0
   17e10:	008a2783          	lw	a5,8(s4)
   17e14:	412989b3          	sub	s3,s3,s2
   17e18:	412787b3          	sub	a5,a5,s2
   17e1c:	00fa2423          	sw	a5,8(s4)
   17e20:	0e078663          	beq	a5,zero,17f0c <__sfvwrite_r+0x494>
   17e24:	00c41683          	lh	a3,12(s0)
   17e28:	00042783          	lw	a5,0(s0)
   17e2c:	012b0b33          	add	s6,s6,s2
   17e30:	d75ff06f          	jal	zero,17ba4 <__sfvwrite_r+0x12c>
   17e34:	0129f463          	bgeu	s3,s2,17e3c <__sfvwrite_r+0x3c4>
   17e38:	00098913          	addi	s2,s3,0
   17e3c:	00078513          	addi	a0,a5,0
   17e40:	00090613          	addi	a2,s2,0
   17e44:	000b0593          	addi	a1,s6,0
   17e48:	478000ef          	jal	ra,182c0 <memmove>
   17e4c:	00042783          	lw	a5,0(s0)
   17e50:	00842703          	lw	a4,8(s0)
   17e54:	012787b3          	add	a5,a5,s2
   17e58:	41270733          	sub	a4,a4,s2
   17e5c:	00f42023          	sw	a5,0(s0)
   17e60:	00e42423          	sw	a4,8(s0)
   17e64:	fa0716e3          	bne	a4,zero,17e10 <__sfvwrite_r+0x398>
   17e68:	00040593          	addi	a1,s0,0
   17e6c:	000a8513          	addi	a0,s5,0
   17e70:	b15ff0ef          	jal	ra,17984 <_fflush_r>
   17e74:	f8050ee3          	beq	a0,zero,17e10 <__sfvwrite_r+0x398>
   17e78:	f2dff06f          	jal	zero,17da4 <__sfvwrite_r+0x32c>
   17e7c:	00098913          	addi	s2,s3,0
   17e80:	00098b93          	addi	s7,s3,0
   17e84:	dd9ff06f          	jal	zero,17c5c <__sfvwrite_r+0x1e4>
   17e88:	00040593          	addi	a1,s0,0
   17e8c:	000a8513          	addi	a0,s5,0
   17e90:	af5ff0ef          	jal	ra,17984 <_fflush_r>
   17e94:	e8050ce3          	beq	a0,zero,17d2c <__sfvwrite_r+0x2b4>
   17e98:	f0dff06f          	jal	zero,17da4 <__sfvwrite_r+0x32c>
   17e9c:	00098613          	addi	a2,s3,0
   17ea0:	000c0593          	addi	a1,s8,0
   17ea4:	41c000ef          	jal	ra,182c0 <memmove>
   17ea8:	00842703          	lw	a4,8(s0)
   17eac:	00042783          	lw	a5,0(s0)
   17eb0:	00098913          	addi	s2,s3,0
   17eb4:	41370733          	sub	a4,a4,s3
   17eb8:	013787b3          	add	a5,a5,s3
   17ebc:	00e42423          	sw	a4,8(s0)
   17ec0:	00f42023          	sw	a5,0(s0)
   17ec4:	e5dff06f          	jal	zero,17d20 <__sfvwrite_r+0x2a8>
   17ec8:	000a8513          	addi	a0,s5,0
   17ecc:	000040ef          	jal	ra,1becc <_realloc_r>
   17ed0:	00050713          	addi	a4,a0,0
   17ed4:	d60514e3          	bne	a0,zero,17c3c <__sfvwrite_r+0x1c4>
   17ed8:	01042583          	lw	a1,16(s0)
   17edc:	000a8513          	addi	a0,s5,0
   17ee0:	a2dfb0ef          	jal	ra,1390c <_free_r>
   17ee4:	00c45783          	lhu	a5,12(s0)
   17ee8:	00c00713          	addi	a4,zero,12
   17eec:	01c12b83          	lw	s7,28(sp)
   17ef0:	01812c03          	lw	s8,24(sp)
   17ef4:	00eaa023          	sw	a4,0(s5)
   17ef8:	f7f7f793          	andi	a5,a5,-129
   17efc:	eb5ff06f          	jal	zero,17db0 <__sfvwrite_r+0x338>
   17f00:	001b0793          	addi	a5,s6,1
   17f04:	00078b93          	addi	s7,a5,0
   17f08:	dd1ff06f          	jal	zero,17cd8 <__sfvwrite_r+0x260>
   17f0c:	01c12b83          	lw	s7,28(sp)
   17f10:	01812c03          	lw	s8,24(sp)
   17f14:	c11ff06f          	jal	zero,17b24 <__sfvwrite_r+0xac>
   17f18:	00c41783          	lh	a5,12(s0)
   17f1c:	e95ff06f          	jal	zero,17db0 <__sfvwrite_r+0x338>
   17f20:	00c00793          	addi	a5,zero,12
   17f24:	00faa023          	sw	a5,0(s5)
   17f28:	01c12b83          	lw	s7,28(sp)
   17f2c:	00c41783          	lh	a5,12(s0)
   17f30:	01812c03          	lw	s8,24(sp)
   17f34:	e7dff06f          	jal	zero,17db0 <__sfvwrite_r+0x338>

00017f38 <__swsetup_r>:
   17f38:	8741a703          	lw	a4,-1932(gp) # 7072c <_impure_ptr>
   17f3c:	fe010113          	addi	sp,sp,-32
   17f40:	00112e23          	sw	ra,28(sp)
   17f44:	00050613          	addi	a2,a0,0
   17f48:	00058793          	addi	a5,a1,0
   17f4c:	00070663          	beq	a4,zero,17f58 <__swsetup_r+0x20>
   17f50:	03472683          	lw	a3,52(a4)
   17f54:	10068a63          	beq	a3,zero,18068 <__swsetup_r+0x130>
   17f58:	00c79703          	lh	a4,12(a5)
   17f5c:	00877693          	andi	a3,a4,8
   17f60:	02068e63          	beq	a3,zero,17f9c <__swsetup_r+0x64>
   17f64:	0107a683          	lw	a3,16(a5)
   17f68:	04068a63          	beq	a3,zero,17fbc <__swsetup_r+0x84>
   17f6c:	00c79703          	lh	a4,12(a5)
   17f70:	00177613          	andi	a2,a4,1
   17f74:	06060e63          	beq	a2,zero,17ff0 <__swsetup_r+0xb8>
   17f78:	0147a603          	lw	a2,20(a5)
   17f7c:	0007a423          	sw	zero,8(a5)
   17f80:	00000513          	addi	a0,zero,0
   17f84:	40c00633          	sub	a2,zero,a2
   17f88:	00c7ac23          	sw	a2,24(a5)
   17f8c:	08068063          	beq	a3,zero,1800c <__swsetup_r+0xd4>
   17f90:	01c12083          	lw	ra,28(sp)
   17f94:	02010113          	addi	sp,sp,32
   17f98:	00008067          	jalr	zero,0(ra)
   17f9c:	01077693          	andi	a3,a4,16
   17fa0:	0e068263          	beq	a3,zero,18084 <__swsetup_r+0x14c>
   17fa4:	00477693          	andi	a3,a4,4
   17fa8:	06069e63          	bne	a3,zero,18024 <__swsetup_r+0xec>
   17fac:	0107a683          	lw	a3,16(a5)
   17fb0:	00876713          	ori	a4,a4,8
   17fb4:	00e79623          	sh	a4,12(a5)
   17fb8:	fa069ae3          	bne	a3,zero,17f6c <__swsetup_r+0x34>
   17fbc:	00c7a703          	lw	a4,12(a5)
   17fc0:	20000593          	addi	a1,zero,512
   17fc4:	28077713          	andi	a4,a4,640
   17fc8:	fab702e3          	beq	a4,a1,17f6c <__swsetup_r+0x34>
   17fcc:	00060513          	addi	a0,a2,0
   17fd0:	00078593          	addi	a1,a5,0
   17fd4:	00f12423          	sw	a5,8(sp)
   17fd8:	524040ef          	jal	ra,1c4fc <__smakebuf_r>
   17fdc:	00812783          	lw	a5,8(sp)
   17fe0:	00c79703          	lh	a4,12(a5)
   17fe4:	0107a683          	lw	a3,16(a5)
   17fe8:	00177613          	andi	a2,a4,1
   17fec:	f80616e3          	bne	a2,zero,17f78 <__swsetup_r+0x40>
   17ff0:	00277613          	andi	a2,a4,2
   17ff4:	00000593          	addi	a1,zero,0
   17ff8:	00061463          	bne	a2,zero,18000 <__swsetup_r+0xc8>
   17ffc:	0147a583          	lw	a1,20(a5)
   18000:	00b7a423          	sw	a1,8(a5)
   18004:	00000513          	addi	a0,zero,0
   18008:	f80694e3          	bne	a3,zero,17f90 <__swsetup_r+0x58>
   1800c:	08077693          	andi	a3,a4,128
   18010:	f80680e3          	beq	a3,zero,17f90 <__swsetup_r+0x58>
   18014:	04076713          	ori	a4,a4,64
   18018:	00e79623          	sh	a4,12(a5)
   1801c:	fff00513          	addi	a0,zero,-1
   18020:	f71ff06f          	jal	zero,17f90 <__swsetup_r+0x58>
   18024:	0307a583          	lw	a1,48(a5)
   18028:	02058663          	beq	a1,zero,18054 <__swsetup_r+0x11c>
   1802c:	04078693          	addi	a3,a5,64
   18030:	02d58063          	beq	a1,a3,18050 <__swsetup_r+0x118>
   18034:	00060513          	addi	a0,a2,0
   18038:	00f12623          	sw	a5,12(sp)
   1803c:	00c12423          	sw	a2,8(sp)
   18040:	8cdfb0ef          	jal	ra,1390c <_free_r>
   18044:	00c12783          	lw	a5,12(sp)
   18048:	00812603          	lw	a2,8(sp)
   1804c:	00c79703          	lh	a4,12(a5)
   18050:	0207a823          	sw	zero,48(a5)
   18054:	0107a683          	lw	a3,16(a5)
   18058:	fdb77713          	andi	a4,a4,-37
   1805c:	0007a223          	sw	zero,4(a5)
   18060:	00d7a023          	sw	a3,0(a5)
   18064:	f4dff06f          	jal	zero,17fb0 <__swsetup_r+0x78>
   18068:	00a12423          	sw	a0,8(sp)
   1806c:	00070513          	addi	a0,a4,0
   18070:	00b12623          	sw	a1,12(sp)
   18074:	f41fa0ef          	jal	ra,12fb4 <__sinit>
   18078:	00c12783          	lw	a5,12(sp)
   1807c:	00812603          	lw	a2,8(sp)
   18080:	ed9ff06f          	jal	zero,17f58 <__swsetup_r+0x20>
   18084:	00900693          	addi	a3,zero,9
   18088:	04076713          	ori	a4,a4,64
   1808c:	00d62023          	sw	a3,0(a2)
   18090:	00e79623          	sh	a4,12(a5)
   18094:	fff00513          	addi	a0,zero,-1
   18098:	ef9ff06f          	jal	zero,17f90 <__swsetup_r+0x58>

0001809c <memchr>:
   1809c:	00357793          	andi	a5,a0,3
   180a0:	0ff5f713          	andi	a4,a1,255
   180a4:	02078063          	beq	a5,zero,180c4 <memchr+0x28>
   180a8:	08060863          	beq	a2,zero,18138 <memchr+0x9c>
   180ac:	00054783          	lbu	a5,0(a0)
   180b0:	fff60613          	addi	a2,a2,-1
   180b4:	08e78063          	beq	a5,a4,18134 <memchr+0x98>
   180b8:	00150513          	addi	a0,a0,1
   180bc:	00357793          	andi	a5,a0,3
   180c0:	fe0794e3          	bne	a5,zero,180a8 <memchr+0xc>
   180c4:	00300813          	addi	a6,zero,3
   180c8:	04c87863          	bgeu	a6,a2,18118 <memchr+0x7c>
   180cc:	0ff5f593          	andi	a1,a1,255
   180d0:	00859793          	slli	a5,a1,0x8
   180d4:	00b785b3          	add	a1,a5,a1
   180d8:	01059793          	slli	a5,a1,0x10
   180dc:	feff0337          	lui	t1,0xfeff0
   180e0:	808088b7          	lui	a7,0x80808
   180e4:	00f585b3          	add	a1,a1,a5
   180e8:	eff30313          	addi	t1,t1,-257 # fefefeff <__BSS_END__+0xfeedbb67>
   180ec:	08088893          	addi	a7,a7,128 # 80808080 <__BSS_END__+0x806f3ce8>
   180f0:	00052783          	lw	a5,0(a0)
   180f4:	00f5c7b3          	xor	a5,a1,a5
   180f8:	006786b3          	add	a3,a5,t1
   180fc:	fff7c793          	xori	a5,a5,-1
   18100:	00f6f7b3          	and	a5,a3,a5
   18104:	0117f7b3          	and	a5,a5,a7
   18108:	00079a63          	bne	a5,zero,1811c <memchr+0x80>
   1810c:	ffc60613          	addi	a2,a2,-4
   18110:	00450513          	addi	a0,a0,4
   18114:	fcc86ee3          	bltu	a6,a2,180f0 <memchr+0x54>
   18118:	02060063          	beq	a2,zero,18138 <memchr+0x9c>
   1811c:	00c50633          	add	a2,a0,a2
   18120:	00c0006f          	jal	zero,1812c <memchr+0x90>
   18124:	00150513          	addi	a0,a0,1
   18128:	00c50863          	beq	a0,a2,18138 <memchr+0x9c>
   1812c:	00054783          	lbu	a5,0(a0)
   18130:	fee79ae3          	bne	a5,a4,18124 <memchr+0x88>
   18134:	00008067          	jalr	zero,0(ra)
   18138:	00000513          	addi	a0,zero,0
   1813c:	00008067          	jalr	zero,0(ra)

00018140 <strncpy>:
   18140:	00a5e7b3          	or	a5,a1,a0
   18144:	0037f793          	andi	a5,a5,3
   18148:	00079663          	bne	a5,zero,18154 <strncpy+0x14>
   1814c:	00463793          	sltiu	a5,a2,4
   18150:	04078663          	beq	a5,zero,1819c <strncpy+0x5c>
   18154:	00050713          	addi	a4,a0,0
   18158:	01c0006f          	jal	zero,18174 <strncpy+0x34>
   1815c:	fff5c683          	lbu	a3,-1(a1)
   18160:	fff60813          	addi	a6,a2,-1
   18164:	fed78fa3          	sb	a3,-1(a5)
   18168:	00068e63          	beq	a3,zero,18184 <strncpy+0x44>
   1816c:	00078713          	addi	a4,a5,0
   18170:	00080613          	addi	a2,a6,0
   18174:	00158593          	addi	a1,a1,1
   18178:	00170793          	addi	a5,a4,1
   1817c:	fe0610e3          	bne	a2,zero,1815c <strncpy+0x1c>
   18180:	00008067          	jalr	zero,0(ra)
   18184:	00c70733          	add	a4,a4,a2
   18188:	04080e63          	beq	a6,zero,181e4 <strncpy+0xa4>
   1818c:	00178793          	addi	a5,a5,1
   18190:	fe078fa3          	sb	zero,-1(a5)
   18194:	fee79ce3          	bne	a5,a4,1818c <strncpy+0x4c>
   18198:	00008067          	jalr	zero,0(ra)
   1819c:	feff0337          	lui	t1,0xfeff0
   181a0:	808088b7          	lui	a7,0x80808
   181a4:	eff30313          	addi	t1,t1,-257 # fefefeff <__BSS_END__+0xfeedbb67>
   181a8:	08088893          	addi	a7,a7,128 # 80808080 <__BSS_END__+0x806f3ce8>
   181ac:	00050713          	addi	a4,a0,0
   181b0:	00300e13          	addi	t3,zero,3
   181b4:	0005a683          	lw	a3,0(a1)
   181b8:	006687b3          	add	a5,a3,t1
   181bc:	fff6c813          	xori	a6,a3,-1
   181c0:	0107f7b3          	and	a5,a5,a6
   181c4:	0117f7b3          	and	a5,a5,a7
   181c8:	fa0796e3          	bne	a5,zero,18174 <strncpy+0x34>
   181cc:	ffc60613          	addi	a2,a2,-4
   181d0:	00d72023          	sw	a3,0(a4)
   181d4:	00470713          	addi	a4,a4,4
   181d8:	00458593          	addi	a1,a1,4
   181dc:	fcce6ce3          	bltu	t3,a2,181b4 <strncpy+0x74>
   181e0:	f95ff06f          	jal	zero,18174 <strncpy+0x34>
   181e4:	00008067          	jalr	zero,0(ra)

000181e8 <__localeconv_l>:
   181e8:	0f050513          	addi	a0,a0,240
   181ec:	00008067          	jalr	zero,0(ra)

000181f0 <_localeconv_r>:
   181f0:	00070537          	lui	a0,0x70
   181f4:	63850513          	addi	a0,a0,1592 # 70638 <__global_locale+0xf0>
   181f8:	00008067          	jalr	zero,0(ra)

000181fc <localeconv>:
   181fc:	00070537          	lui	a0,0x70
   18200:	63850513          	addi	a0,a0,1592 # 70638 <__global_locale+0xf0>
   18204:	00008067          	jalr	zero,0(ra)

00018208 <_sbrk_r>:
   18208:	ff010113          	addi	sp,sp,-16
   1820c:	00812423          	sw	s0,8(sp)
   18210:	00912223          	sw	s1,4(sp)
   18214:	00050493          	addi	s1,a0,0
   18218:	00058513          	addi	a0,a1,0
   1821c:	00112623          	sw	ra,12(sp)
   18220:	8801a423          	sw	zero,-1912(gp) # 70740 <errno>
   18224:	698060ef          	jal	ra,1e8bc <_sbrk>
   18228:	fff00793          	addi	a5,zero,-1
   1822c:	00f50c63          	beq	a0,a5,18244 <_sbrk_r+0x3c>
   18230:	00c12083          	lw	ra,12(sp)
   18234:	00812403          	lw	s0,8(sp)
   18238:	00412483          	lw	s1,4(sp)
   1823c:	01010113          	addi	sp,sp,16
   18240:	00008067          	jalr	zero,0(ra)
   18244:	8881a783          	lw	a5,-1912(gp) # 70740 <errno>
   18248:	fe0784e3          	beq	a5,zero,18230 <_sbrk_r+0x28>
   1824c:	00c12083          	lw	ra,12(sp)
   18250:	00812403          	lw	s0,8(sp)
   18254:	00f4a023          	sw	a5,0(s1)
   18258:	00412483          	lw	s1,4(sp)
   1825c:	01010113          	addi	sp,sp,16
   18260:	00008067          	jalr	zero,0(ra)

00018264 <__libc_fini_array>:
   18264:	ff010113          	addi	sp,sp,-16
   18268:	00812423          	sw	s0,8(sp)
   1826c:	000707b7          	lui	a5,0x70
   18270:	00070437          	lui	s0,0x70
   18274:	00c78793          	addi	a5,a5,12 # 7000c <__fini_array_end>
   18278:	00840413          	addi	s0,s0,8 # 70008 <__do_global_dtors_aux_fini_array_entry>
   1827c:	408787b3          	sub	a5,a5,s0
   18280:	00912223          	sw	s1,4(sp)
   18284:	00112623          	sw	ra,12(sp)
   18288:	4027d493          	srai	s1,a5,0x2
   1828c:	02048063          	beq	s1,zero,182ac <__libc_fini_array+0x48>
   18290:	ffc40413          	addi	s0,s0,-4
   18294:	00f40433          	add	s0,s0,a5
   18298:	00042783          	lw	a5,0(s0)
   1829c:	fff48493          	addi	s1,s1,-1
   182a0:	ffc40413          	addi	s0,s0,-4
   182a4:	000780e7          	jalr	ra,0(a5)
   182a8:	fe0498e3          	bne	s1,zero,18298 <__libc_fini_array+0x34>
   182ac:	00c12083          	lw	ra,12(sp)
   182b0:	00812403          	lw	s0,8(sp)
   182b4:	00412483          	lw	s1,4(sp)
   182b8:	01010113          	addi	sp,sp,16
   182bc:	00008067          	jalr	zero,0(ra)

000182c0 <memmove>:
   182c0:	02a5f663          	bgeu	a1,a0,182ec <memmove+0x2c>
   182c4:	00c587b3          	add	a5,a1,a2
   182c8:	02f57263          	bgeu	a0,a5,182ec <memmove+0x2c>
   182cc:	04060863          	beq	a2,zero,1831c <memmove+0x5c>
   182d0:	00c50633          	add	a2,a0,a2
   182d4:	fff7c703          	lbu	a4,-1(a5)
   182d8:	fff60613          	addi	a2,a2,-1
   182dc:	fff78793          	addi	a5,a5,-1
   182e0:	00e60023          	sb	a4,0(a2)
   182e4:	fec518e3          	bne	a0,a2,182d4 <memmove+0x14>
   182e8:	00008067          	jalr	zero,0(ra)
   182ec:	00f00793          	addi	a5,zero,15
   182f0:	02c7e863          	bltu	a5,a2,18320 <memmove+0x60>
   182f4:	00050793          	addi	a5,a0,0
   182f8:	fff60693          	addi	a3,a2,-1
   182fc:	0e060063          	beq	a2,zero,183dc <memmove+0x11c>
   18300:	00168693          	addi	a3,a3,1
   18304:	00d786b3          	add	a3,a5,a3
   18308:	0005c703          	lbu	a4,0(a1)
   1830c:	00178793          	addi	a5,a5,1
   18310:	00158593          	addi	a1,a1,1
   18314:	fee78fa3          	sb	a4,-1(a5)
   18318:	fed798e3          	bne	a5,a3,18308 <memmove+0x48>
   1831c:	00008067          	jalr	zero,0(ra)
   18320:	00b567b3          	or	a5,a0,a1
   18324:	0037f793          	andi	a5,a5,3
   18328:	00058893          	addi	a7,a1,0
   1832c:	0a079263          	bne	a5,zero,183d0 <memmove+0x110>
   18330:	00465793          	srli	a5,a2,0x4
   18334:	00479813          	slli	a6,a5,0x4
   18338:	01050833          	add	a6,a0,a6
   1833c:	fff78793          	addi	a5,a5,-1
   18340:	00050713          	addi	a4,a0,0
   18344:	0005a683          	lw	a3,0(a1)
   18348:	01058593          	addi	a1,a1,16
   1834c:	01070713          	addi	a4,a4,16
   18350:	fed72823          	sw	a3,-16(a4)
   18354:	ff45a683          	lw	a3,-12(a1)
   18358:	fed72a23          	sw	a3,-12(a4)
   1835c:	ff85a683          	lw	a3,-8(a1)
   18360:	fed72c23          	sw	a3,-8(a4)
   18364:	ffc5a683          	lw	a3,-4(a1)
   18368:	fed72e23          	sw	a3,-4(a4)
   1836c:	fd071ce3          	bne	a4,a6,18344 <memmove+0x84>
   18370:	00479793          	slli	a5,a5,0x4
   18374:	01178733          	add	a4,a5,a7
   18378:	01070593          	addi	a1,a4,16
   1837c:	00f507b3          	add	a5,a0,a5
   18380:	00c67813          	andi	a6,a2,12
   18384:	01078793          	addi	a5,a5,16
   18388:	00058e13          	addi	t3,a1,0
   1838c:	00f67693          	andi	a3,a2,15
   18390:	04080863          	beq	a6,zero,183e0 <memmove+0x120>
   18394:	ffc68693          	addi	a3,a3,-4
   18398:	ffc6f693          	andi	a3,a3,-4
   1839c:	00d70733          	add	a4,a4,a3
   183a0:	01470713          	addi	a4,a4,20
   183a4:	41150833          	sub	a6,a0,a7
   183a8:	0005a303          	lw	t1,0(a1)
   183ac:	010588b3          	add	a7,a1,a6
   183b0:	00458593          	addi	a1,a1,4
   183b4:	0068a023          	sw	t1,0(a7)
   183b8:	fee598e3          	bne	a1,a4,183a8 <memmove+0xe8>
   183bc:	00468713          	addi	a4,a3,4
   183c0:	01c705b3          	add	a1,a4,t3
   183c4:	00f707b3          	add	a5,a4,a5
   183c8:	00367613          	andi	a2,a2,3
   183cc:	f2dff06f          	jal	zero,182f8 <memmove+0x38>
   183d0:	fff60693          	addi	a3,a2,-1
   183d4:	00050793          	addi	a5,a0,0
   183d8:	f29ff06f          	jal	zero,18300 <memmove+0x40>
   183dc:	00008067          	jalr	zero,0(ra)
   183e0:	00068613          	addi	a2,a3,0
   183e4:	f15ff06f          	jal	zero,182f8 <memmove+0x38>

000183e8 <memcpy>:
   183e8:	00a5c7b3          	xor	a5,a1,a0
   183ec:	0037f793          	andi	a5,a5,3
   183f0:	00c508b3          	add	a7,a0,a2
   183f4:	06079663          	bne	a5,zero,18460 <memcpy+0x78>
   183f8:	00463613          	sltiu	a2,a2,4
   183fc:	06061263          	bne	a2,zero,18460 <memcpy+0x78>
   18400:	00357793          	andi	a5,a0,3
   18404:	00050713          	addi	a4,a0,0
   18408:	0c079a63          	bne	a5,zero,184dc <memcpy+0xf4>
   1840c:	ffc8f613          	andi	a2,a7,-4
   18410:	40e606b3          	sub	a3,a2,a4
   18414:	02000793          	addi	a5,zero,32
   18418:	06d7c463          	blt	a5,a3,18480 <memcpy+0x98>
   1841c:	00058693          	addi	a3,a1,0
   18420:	00070793          	addi	a5,a4,0
   18424:	02c77a63          	bgeu	a4,a2,18458 <memcpy+0x70>
   18428:	0006a803          	lw	a6,0(a3)
   1842c:	00478793          	addi	a5,a5,4
   18430:	00468693          	addi	a3,a3,4
   18434:	ff07ae23          	sw	a6,-4(a5)
   18438:	fec7e8e3          	bltu	a5,a2,18428 <memcpy+0x40>
   1843c:	fff60613          	addi	a2,a2,-1
   18440:	40e60633          	sub	a2,a2,a4
   18444:	ffc67613          	andi	a2,a2,-4
   18448:	00458593          	addi	a1,a1,4
   1844c:	00470713          	addi	a4,a4,4
   18450:	00c585b3          	add	a1,a1,a2
   18454:	00c70733          	add	a4,a4,a2
   18458:	01176863          	bltu	a4,a7,18468 <memcpy+0x80>
   1845c:	00008067          	jalr	zero,0(ra)
   18460:	00050713          	addi	a4,a0,0
   18464:	ff157ce3          	bgeu	a0,a7,1845c <memcpy+0x74>
   18468:	0005c783          	lbu	a5,0(a1)
   1846c:	00170713          	addi	a4,a4,1
   18470:	00158593          	addi	a1,a1,1
   18474:	fef70fa3          	sb	a5,-1(a4)
   18478:	fee898e3          	bne	a7,a4,18468 <memcpy+0x80>
   1847c:	00008067          	jalr	zero,0(ra)
   18480:	0005a683          	lw	a3,0(a1)
   18484:	0045a283          	lw	t0,4(a1)
   18488:	0085af83          	lw	t6,8(a1)
   1848c:	00c5af03          	lw	t5,12(a1)
   18490:	0105ae83          	lw	t4,16(a1)
   18494:	0145ae03          	lw	t3,20(a1)
   18498:	0185a303          	lw	t1,24(a1)
   1849c:	01c5a803          	lw	a6,28(a1)
   184a0:	00d72023          	sw	a3,0(a4)
   184a4:	0205a683          	lw	a3,32(a1)
   184a8:	02470713          	addi	a4,a4,36
   184ac:	fe572023          	sw	t0,-32(a4)
   184b0:	fed72e23          	sw	a3,-4(a4)
   184b4:	fff72223          	sw	t6,-28(a4)
   184b8:	40e606b3          	sub	a3,a2,a4
   184bc:	ffe72423          	sw	t5,-24(a4)
   184c0:	ffd72623          	sw	t4,-20(a4)
   184c4:	ffc72823          	sw	t3,-16(a4)
   184c8:	fe672a23          	sw	t1,-12(a4)
   184cc:	ff072c23          	sw	a6,-8(a4)
   184d0:	02458593          	addi	a1,a1,36
   184d4:	fad7c6e3          	blt	a5,a3,18480 <memcpy+0x98>
   184d8:	f45ff06f          	jal	zero,1841c <memcpy+0x34>
   184dc:	0005c683          	lbu	a3,0(a1)
   184e0:	00170713          	addi	a4,a4,1
   184e4:	00377793          	andi	a5,a4,3
   184e8:	fed70fa3          	sb	a3,-1(a4)
   184ec:	00158593          	addi	a1,a1,1
   184f0:	f0078ee3          	beq	a5,zero,1840c <memcpy+0x24>
   184f4:	0005c683          	lbu	a3,0(a1)
   184f8:	00170713          	addi	a4,a4,1
   184fc:	00377793          	andi	a5,a4,3
   18500:	fed70fa3          	sb	a3,-1(a4)
   18504:	00158593          	addi	a1,a1,1
   18508:	fc079ae3          	bne	a5,zero,184dc <memcpy+0xf4>
   1850c:	f01ff06f          	jal	zero,1840c <memcpy+0x24>

00018510 <strlen>:
   18510:	00357793          	andi	a5,a0,3
   18514:	00050713          	addi	a4,a0,0
   18518:	04079c63          	bne	a5,zero,18570 <strlen+0x60>
   1851c:	7f7f86b7          	lui	a3,0x7f7f8
   18520:	f7f68693          	addi	a3,a3,-129 # 7f7f7f7f <__BSS_END__+0x7f6e3be7>
   18524:	fff00593          	addi	a1,zero,-1
   18528:	00072603          	lw	a2,0(a4)
   1852c:	00470713          	addi	a4,a4,4
   18530:	00d677b3          	and	a5,a2,a3
   18534:	00d787b3          	add	a5,a5,a3
   18538:	00c7e7b3          	or	a5,a5,a2
   1853c:	00d7e7b3          	or	a5,a5,a3
   18540:	feb784e3          	beq	a5,a1,18528 <strlen+0x18>
   18544:	ffc74683          	lbu	a3,-4(a4)
   18548:	40a707b3          	sub	a5,a4,a0
   1854c:	04068463          	beq	a3,zero,18594 <strlen+0x84>
   18550:	ffd74683          	lbu	a3,-3(a4)
   18554:	02068c63          	beq	a3,zero,1858c <strlen+0x7c>
   18558:	ffe74503          	lbu	a0,-2(a4)
   1855c:	00a03533          	sltu	a0,zero,a0
   18560:	00f50533          	add	a0,a0,a5
   18564:	ffe50513          	addi	a0,a0,-2
   18568:	00008067          	jalr	zero,0(ra)
   1856c:	fa0688e3          	beq	a3,zero,1851c <strlen+0xc>
   18570:	00074783          	lbu	a5,0(a4)
   18574:	00170713          	addi	a4,a4,1
   18578:	00377693          	andi	a3,a4,3
   1857c:	fe0798e3          	bne	a5,zero,1856c <strlen+0x5c>
   18580:	40a70733          	sub	a4,a4,a0
   18584:	fff70513          	addi	a0,a4,-1
   18588:	00008067          	jalr	zero,0(ra)
   1858c:	ffd78513          	addi	a0,a5,-3
   18590:	00008067          	jalr	zero,0(ra)
   18594:	ffc78513          	addi	a0,a5,-4
   18598:	00008067          	jalr	zero,0(ra)

0001859c <frexpl>:
   1859c:	00c5a703          	lw	a4,12(a1)
   185a0:	f9010113          	addi	sp,sp,-112
   185a4:	0005a883          	lw	a7,0(a1)
   185a8:	0045a803          	lw	a6,4(a1)
   185ac:	0085a683          	lw	a3,8(a1)
   185b0:	06912223          	sw	s1,100(sp)
   185b4:	000084b7          	lui	s1,0x8
   185b8:	06812423          	sw	s0,104(sp)
   185bc:	06112623          	sw	ra,108(sp)
   185c0:	01075793          	srli	a5,a4,0x10
   185c4:	fff48493          	addi	s1,s1,-1 # 7fff <exit-0x80b5>
   185c8:	00062023          	sw	zero,0(a2)
   185cc:	04e12e23          	sw	a4,92(sp)
   185d0:	0097f7b3          	and	a5,a5,s1
   185d4:	05112823          	sw	a7,80(sp)
   185d8:	05012a23          	sw	a6,84(sp)
   185dc:	04d12c23          	sw	a3,88(sp)
   185e0:	00050413          	addi	s0,a0,0
   185e4:	10978463          	beq	a5,s1,186ec <frexpl+0x150>
   185e8:	04010513          	addi	a0,sp,64
   185ec:	03010593          	addi	a1,sp,48
   185f0:	07212023          	sw	s2,96(sp)
   185f4:	05112023          	sw	a7,64(sp)
   185f8:	01112c23          	sw	a7,24(sp)
   185fc:	05012223          	sw	a6,68(sp)
   18600:	01012a23          	sw	a6,20(sp)
   18604:	04d12423          	sw	a3,72(sp)
   18608:	00d12823          	sw	a3,16(sp)
   1860c:	04e12623          	sw	a4,76(sp)
   18610:	00e12623          	sw	a4,12(sp)
   18614:	00060913          	addi	s2,a2,0
   18618:	02012823          	sw	zero,48(sp)
   1861c:	02012a23          	sw	zero,52(sp)
   18620:	02012c23          	sw	zero,56(sp)
   18624:	02012e23          	sw	zero,60(sp)
   18628:	00f12e23          	sw	a5,28(sp)
   1862c:	268080ef          	jal	ra,20894 <__eqtf2>
   18630:	00c12703          	lw	a4,12(sp)
   18634:	01012683          	lw	a3,16(sp)
   18638:	01412803          	lw	a6,20(sp)
   1863c:	01812883          	lw	a7,24(sp)
   18640:	0c050a63          	beq	a0,zero,18714 <frexpl+0x178>
   18644:	01c12783          	lw	a5,28(sp)
   18648:	00000593          	addi	a1,zero,0
   1864c:	06079263          	bne	a5,zero,186b0 <frexpl+0x114>
   18650:	407107b7          	lui	a5,0x40710
   18654:	03010593          	addi	a1,sp,48
   18658:	02010613          	addi	a2,sp,32
   1865c:	04010513          	addi	a0,sp,64
   18660:	02d12c23          	sw	a3,56(sp)
   18664:	02e12e23          	sw	a4,60(sp)
   18668:	02f12623          	sw	a5,44(sp)
   1866c:	03112823          	sw	a7,48(sp)
   18670:	03012a23          	sw	a6,52(sp)
   18674:	02012023          	sw	zero,32(sp)
   18678:	02012223          	sw	zero,36(sp)
   1867c:	02012423          	sw	zero,40(sp)
   18680:	56c080ef          	jal	ra,20bec <__multf3>
   18684:	04c12703          	lw	a4,76(sp)
   18688:	04012583          	lw	a1,64(sp)
   1868c:	04412603          	lw	a2,68(sp)
   18690:	04812683          	lw	a3,72(sp)
   18694:	01075793          	srli	a5,a4,0x10
   18698:	04b12823          	sw	a1,80(sp)
   1869c:	04c12a23          	sw	a2,84(sp)
   186a0:	04d12c23          	sw	a3,88(sp)
   186a4:	04e12e23          	sw	a4,92(sp)
   186a8:	0097f7b3          	and	a5,a5,s1
   186ac:	f8e00593          	addi	a1,zero,-114
   186b0:	ffffc6b7          	lui	a3,0xffffc
   186b4:	00268693          	addi	a3,a3,2 # ffffc002 <__BSS_END__+0xffee7c6a>
   186b8:	05c12703          	lw	a4,92(sp)
   186bc:	00d787b3          	add	a5,a5,a3
   186c0:	80010637          	lui	a2,0x80010
   186c4:	00b787b3          	add	a5,a5,a1
   186c8:	fff60613          	addi	a2,a2,-1 # 8000ffff <__BSS_END__+0x7fefbc67>
   186cc:	00f92023          	sw	a5,0(s2)
   186d0:	05012883          	lw	a7,80(sp)
   186d4:	05412803          	lw	a6,84(sp)
   186d8:	05812683          	lw	a3,88(sp)
   186dc:	06012903          	lw	s2,96(sp)
   186e0:	00c77733          	and	a4,a4,a2
   186e4:	3ffe0637          	lui	a2,0x3ffe0
   186e8:	00c76733          	or	a4,a4,a2
   186ec:	06c12083          	lw	ra,108(sp)
   186f0:	01142023          	sw	a7,0(s0)
   186f4:	01042223          	sw	a6,4(s0)
   186f8:	00d42423          	sw	a3,8(s0)
   186fc:	00e42623          	sw	a4,12(s0)
   18700:	00040513          	addi	a0,s0,0
   18704:	06812403          	lw	s0,104(sp)
   18708:	06412483          	lw	s1,100(sp)
   1870c:	07010113          	addi	sp,sp,112
   18710:	00008067          	jalr	zero,0(ra)
   18714:	06012903          	lw	s2,96(sp)
   18718:	fd5ff06f          	jal	zero,186ec <frexpl+0x150>

0001871c <__register_exitproc>:
   1871c:	88c1a783          	lw	a5,-1908(gp) # 70744 <__atexit>
   18720:	04078c63          	beq	a5,zero,18778 <__register_exitproc+0x5c>
   18724:	0047a703          	lw	a4,4(a5) # 40710004 <__BSS_END__+0x405fbc6c>
   18728:	01f00813          	addi	a6,zero,31
   1872c:	08e84063          	blt	a6,a4,187ac <__register_exitproc+0x90>
   18730:	00271813          	slli	a6,a4,0x2
   18734:	02050663          	beq	a0,zero,18760 <__register_exitproc+0x44>
   18738:	01078333          	add	t1,a5,a6
   1873c:	08c32423          	sw	a2,136(t1)
   18740:	1887a883          	lw	a7,392(a5)
   18744:	00100613          	addi	a2,zero,1
   18748:	00e61633          	sll	a2,a2,a4
   1874c:	00c8e8b3          	or	a7,a7,a2
   18750:	1917a423          	sw	a7,392(a5)
   18754:	10d32423          	sw	a3,264(t1)
   18758:	00200693          	addi	a3,zero,2
   1875c:	02d50663          	beq	a0,a3,18788 <__register_exitproc+0x6c>
   18760:	00170713          	addi	a4,a4,1
   18764:	00e7a223          	sw	a4,4(a5)
   18768:	010787b3          	add	a5,a5,a6
   1876c:	00b7a423          	sw	a1,8(a5)
   18770:	00000513          	addi	a0,zero,0
   18774:	00008067          	jalr	zero,0(ra)
   18778:	001147b7          	lui	a5,0x114
   1877c:	20878793          	addi	a5,a5,520 # 114208 <__atexit0>
   18780:	88f1a623          	sw	a5,-1908(gp) # 70744 <__atexit>
   18784:	fa1ff06f          	jal	zero,18724 <__register_exitproc+0x8>
   18788:	18c7a683          	lw	a3,396(a5)
   1878c:	00170713          	addi	a4,a4,1
   18790:	00e7a223          	sw	a4,4(a5)
   18794:	00c6e6b3          	or	a3,a3,a2
   18798:	18d7a623          	sw	a3,396(a5)
   1879c:	010787b3          	add	a5,a5,a6
   187a0:	00b7a423          	sw	a1,8(a5)
   187a4:	00000513          	addi	a0,zero,0
   187a8:	00008067          	jalr	zero,0(ra)
   187ac:	fff00513          	addi	a0,zero,-1
   187b0:	00008067          	jalr	zero,0(ra)

000187b4 <_ldtoa_r>:
   187b4:	000708b7          	lui	a7,0x70
   187b8:	abc88893          	addi	a7,a7,-1348 # 6fabc <blanks.1+0x10>
   187bc:	0088a303          	lw	t1,8(a7)
   187c0:	f5010113          	addi	sp,sp,-176
   187c4:	0008ae83          	lw	t4,0(a7)
   187c8:	0048ae03          	lw	t3,4(a7)
   187cc:	06612223          	sw	t1,100(sp)
   187d0:	00c8a303          	lw	t1,12(a7)
   187d4:	0108a883          	lw	a7,16(a7)
   187d8:	0a812423          	sw	s0,168(sp)
   187dc:	0a912223          	sw	s1,164(sp)
   187e0:	07112623          	sw	a7,108(sp)
   187e4:	03852883          	lw	a7,56(a0)
   187e8:	0b212023          	sw	s2,160(sp)
   187ec:	09312e23          	sw	s3,156(sp)
   187f0:	09412c23          	sw	s4,152(sp)
   187f4:	09512a23          	sw	s5,148(sp)
   187f8:	09612823          	sw	s6,144(sp)
   187fc:	09a12023          	sw	s10,128(sp)
   18800:	07b12e23          	sw	s11,124(sp)
   18804:	0a112623          	sw	ra,172(sp)
   18808:	09712623          	sw	s7,140(sp)
   1880c:	09812423          	sw	s8,136(sp)
   18810:	09912223          	sw	s9,132(sp)
   18814:	05d12e23          	sw	t4,92(sp)
   18818:	07c12023          	sw	t3,96(sp)
   1881c:	06612423          	sw	t1,104(sp)
   18820:	01012e23          	sw	a6,28(sp)
   18824:	0005a983          	lw	s3,0(a1)
   18828:	0045a903          	lw	s2,4(a1)
   1882c:	0085a483          	lw	s1,8(a1)
   18830:	00c5aa03          	lw	s4,12(a1)
   18834:	00050a93          	addi	s5,a0,0
   18838:	00060d13          	addi	s10,a2,0 # 3ffe0000 <__BSS_END__+0x3fecbc68>
   1883c:	00068d93          	addi	s11,a3,0
   18840:	00070b13          	addi	s6,a4,0
   18844:	00078413          	addi	s0,a5,0
   18848:	00088863          	beq	a7,zero,18858 <_ldtoa_r+0xa4>
   1884c:	00088593          	addi	a1,a7,0
   18850:	098020ef          	jal	ra,1a8e8 <__freedtoa>
   18854:	020aac23          	sw	zero,56(s5)
   18858:	06812703          	lw	a4,104(sp)
   1885c:	01fa5693          	srli	a3,s4,0x1f
   18860:	00d42023          	sw	a3,0(s0)
   18864:	40175793          	srai	a5,a4,0x1
   18868:	00d7f7b3          	and	a5,a5,a3
   1886c:	00e7c7b3          	xor	a5,a5,a4
   18870:	06f12423          	sw	a5,104(sp)
   18874:	001a1413          	slli	s0,s4,0x1
   18878:	010a1b93          	slli	s7,s4,0x10
   1887c:	ffffc7b7          	lui	a5,0xffffc
   18880:	001a1713          	slli	a4,s4,0x1
   18884:	00145413          	srli	s0,s0,0x1
   18888:	010bdb93          	srli	s7,s7,0x10
   1888c:	f9178793          	addi	a5,a5,-111 # ffffbf91 <__BSS_END__+0xffee7bf9>
   18890:	01175c13          	srli	s8,a4,0x11
   18894:	03010513          	addi	a0,sp,48
   18898:	02010593          	addi	a1,sp,32
   1889c:	03312823          	sw	s3,48(sp)
   188a0:	03212a23          	sw	s2,52(sp)
   188a4:	02912c23          	sw	s1,56(sp)
   188a8:	03312023          	sw	s3,32(sp)
   188ac:	03212223          	sw	s2,36(sp)
   188b0:	02912423          	sw	s1,40(sp)
   188b4:	02812e23          	sw	s0,60(sp)
   188b8:	02812623          	sw	s0,44(sp)
   188bc:	05312623          	sw	s3,76(sp)
   188c0:	05212823          	sw	s2,80(sp)
   188c4:	04912a23          	sw	s1,84(sp)
   188c8:	00fc0cb3          	add	s9,s8,a5
   188cc:	05712c23          	sw	s7,88(sp)
   188d0:	5740a0ef          	jal	ra,22e44 <__unordtf2>
   188d4:	16051063          	bne	a0,zero,18a34 <_ldtoa_r+0x280>
   188d8:	7fff0737          	lui	a4,0x7fff0
   188dc:	fff00793          	addi	a5,zero,-1
   188e0:	fff70713          	addi	a4,a4,-1 # 7ffeffff <__BSS_END__+0x7fedbc67>
   188e4:	02010593          	addi	a1,sp,32
   188e8:	03010513          	addi	a0,sp,48
   188ec:	02e12623          	sw	a4,44(sp)
   188f0:	02f12023          	sw	a5,32(sp)
   188f4:	02f12223          	sw	a5,36(sp)
   188f8:	02f12423          	sw	a5,40(sp)
   188fc:	5480a0ef          	jal	ra,22e44 <__unordtf2>
   18900:	08051e63          	bne	a0,zero,1899c <_ldtoa_r+0x1e8>
   18904:	02010593          	addi	a1,sp,32
   18908:	03010513          	addi	a0,sp,48
   1890c:	1ac080ef          	jal	ra,20ab8 <__letf2>
   18910:	08a05663          	bge	zero,a0,1899c <_ldtoa_r+0x1e8>
   18914:	00300793          	addi	a5,zero,3
   18918:	04f12423          	sw	a5,72(sp)
   1891c:	01c12783          	lw	a5,28(sp)
   18920:	04810713          	addi	a4,sp,72
   18924:	000d8813          	addi	a6,s11,0
   18928:	00f12023          	sw	a5,0(sp)
   1892c:	000c8613          	addi	a2,s9,0
   18930:	000d0793          	addi	a5,s10,0
   18934:	000a8513          	addi	a0,s5,0
   18938:	000b0893          	addi	a7,s6,0
   1893c:	04c10693          	addi	a3,sp,76
   18940:	05c10593          	addi	a1,sp,92
   18944:	1f4000ef          	jal	ra,18b38 <__gdtoa>
   18948:	000b2703          	lw	a4,0(s6)
   1894c:	ffff87b7          	lui	a5,0xffff8
   18950:	00f71863          	bne	a4,a5,18960 <_ldtoa_r+0x1ac>
   18954:	800007b7          	lui	a5,0x80000
   18958:	fff78793          	addi	a5,a5,-1 # 7fffffff <__BSS_END__+0x7feebc67>
   1895c:	00fb2023          	sw	a5,0(s6)
   18960:	0ac12083          	lw	ra,172(sp)
   18964:	0a812403          	lw	s0,168(sp)
   18968:	0a412483          	lw	s1,164(sp)
   1896c:	0a012903          	lw	s2,160(sp)
   18970:	09c12983          	lw	s3,156(sp)
   18974:	09812a03          	lw	s4,152(sp)
   18978:	09412a83          	lw	s5,148(sp)
   1897c:	09012b03          	lw	s6,144(sp)
   18980:	08c12b83          	lw	s7,140(sp)
   18984:	08812c03          	lw	s8,136(sp)
   18988:	08412c83          	lw	s9,132(sp)
   1898c:	08012d03          	lw	s10,128(sp)
   18990:	07c12d83          	lw	s11,124(sp)
   18994:	0b010113          	addi	sp,sp,176
   18998:	00008067          	jalr	zero,0(ra)
   1899c:	02812e23          	sw	s0,60(sp)
   189a0:	02010593          	addi	a1,sp,32
   189a4:	00010437          	lui	s0,0x10
   189a8:	03010513          	addi	a0,sp,48
   189ac:	03312823          	sw	s3,48(sp)
   189b0:	03212a23          	sw	s2,52(sp)
   189b4:	02912c23          	sw	s1,56(sp)
   189b8:	02012023          	sw	zero,32(sp)
   189bc:	02012223          	sw	zero,36(sp)
   189c0:	02012423          	sw	zero,40(sp)
   189c4:	02812623          	sw	s0,44(sp)
   189c8:	7bd070ef          	jal	ra,20984 <__getf2>
   189cc:	00054c63          	blt	a0,zero,189e4 <_ldtoa_r+0x230>
   189d0:	008bebb3          	or	s7,s7,s0
   189d4:	00100793          	addi	a5,zero,1
   189d8:	05712c23          	sw	s7,88(sp)
   189dc:	04f12423          	sw	a5,72(sp)
   189e0:	f3dff06f          	jal	zero,1891c <_ldtoa_r+0x168>
   189e4:	02010593          	addi	a1,sp,32
   189e8:	03010513          	addi	a0,sp,48
   189ec:	03312823          	sw	s3,48(sp)
   189f0:	03212a23          	sw	s2,52(sp)
   189f4:	02912c23          	sw	s1,56(sp)
   189f8:	03412e23          	sw	s4,60(sp)
   189fc:	02012023          	sw	zero,32(sp)
   18a00:	02012223          	sw	zero,36(sp)
   18a04:	02012423          	sw	zero,40(sp)
   18a08:	02012623          	sw	zero,44(sp)
   18a0c:	689070ef          	jal	ra,20894 <__eqtf2>
   18a10:	00051663          	bne	a0,zero,18a1c <_ldtoa_r+0x268>
   18a14:	04012423          	sw	zero,72(sp)
   18a18:	f05ff06f          	jal	zero,1891c <_ldtoa_r+0x168>
   18a1c:	ffffc7b7          	lui	a5,0xffffc
   18a20:	f9278793          	addi	a5,a5,-110 # ffffbf92 <__BSS_END__+0xffee7bfa>
   18a24:	00200713          	addi	a4,zero,2
   18a28:	00fc0cb3          	add	s9,s8,a5
   18a2c:	04e12423          	sw	a4,72(sp)
   18a30:	eedff06f          	jal	zero,1891c <_ldtoa_r+0x168>
   18a34:	00400793          	addi	a5,zero,4
   18a38:	04f12423          	sw	a5,72(sp)
   18a3c:	ee1ff06f          	jal	zero,1891c <_ldtoa_r+0x168>

00018a40 <_ldcheck>:
   18a40:	fc010113          	addi	sp,sp,-64
   18a44:	02812c23          	sw	s0,56(sp)
   18a48:	00c52403          	lw	s0,12(a0)
   18a4c:	03212823          	sw	s2,48(sp)
   18a50:	03312623          	sw	s3,44(sp)
   18a54:	00852903          	lw	s2,8(a0)
   18a58:	00452983          	lw	s3,4(a0)
   18a5c:	03412423          	sw	s4,40(sp)
   18a60:	00052a03          	lw	s4,0(a0)
   18a64:	00141413          	slli	s0,s0,0x1
   18a68:	00145413          	srli	s0,s0,0x1
   18a6c:	01010513          	addi	a0,sp,16
   18a70:	00010593          	addi	a1,sp,0
   18a74:	02112e23          	sw	ra,60(sp)
   18a78:	00812e23          	sw	s0,28(sp)
   18a7c:	00812623          	sw	s0,12(sp)
   18a80:	01412823          	sw	s4,16(sp)
   18a84:	01412023          	sw	s4,0(sp)
   18a88:	01312a23          	sw	s3,20(sp)
   18a8c:	01312223          	sw	s3,4(sp)
   18a90:	01212c23          	sw	s2,24(sp)
   18a94:	01212423          	sw	s2,8(sp)
   18a98:	3ac0a0ef          	jal	ra,22e44 <__unordtf2>
   18a9c:	06051e63          	bne	a0,zero,18b18 <_ldcheck+0xd8>
   18aa0:	7fff0737          	lui	a4,0x7fff0
   18aa4:	fff00793          	addi	a5,zero,-1
   18aa8:	fff70713          	addi	a4,a4,-1 # 7ffeffff <__BSS_END__+0x7fedbc67>
   18aac:	00010593          	addi	a1,sp,0
   18ab0:	01010513          	addi	a0,sp,16
   18ab4:	02912a23          	sw	s1,52(sp)
   18ab8:	00e12623          	sw	a4,12(sp)
   18abc:	00f12023          	sw	a5,0(sp)
   18ac0:	00f12223          	sw	a5,4(sp)
   18ac4:	00f12423          	sw	a5,8(sp)
   18ac8:	00100493          	addi	s1,zero,1
   18acc:	3780a0ef          	jal	ra,22e44 <__unordtf2>
   18ad0:	02050863          	beq	a0,zero,18b00 <_ldcheck+0xc0>
   18ad4:	03c12083          	lw	ra,60(sp)
   18ad8:	03812403          	lw	s0,56(sp)
   18adc:	0014c513          	xori	a0,s1,1
   18ae0:	0ff57513          	andi	a0,a0,255
   18ae4:	03412483          	lw	s1,52(sp)
   18ae8:	03012903          	lw	s2,48(sp)
   18aec:	02c12983          	lw	s3,44(sp)
   18af0:	02812a03          	lw	s4,40(sp)
   18af4:	00151513          	slli	a0,a0,0x1
   18af8:	04010113          	addi	sp,sp,64
   18afc:	00008067          	jalr	zero,0(ra)
   18b00:	00010593          	addi	a1,sp,0
   18b04:	01010513          	addi	a0,sp,16
   18b08:	7b1070ef          	jal	ra,20ab8 <__letf2>
   18b0c:	fca054e3          	bge	zero,a0,18ad4 <_ldcheck+0x94>
   18b10:	00000493          	addi	s1,zero,0
   18b14:	fc1ff06f          	jal	zero,18ad4 <_ldcheck+0x94>
   18b18:	03c12083          	lw	ra,60(sp)
   18b1c:	03812403          	lw	s0,56(sp)
   18b20:	03012903          	lw	s2,48(sp)
   18b24:	02c12983          	lw	s3,44(sp)
   18b28:	02812a03          	lw	s4,40(sp)
   18b2c:	00100513          	addi	a0,zero,1
   18b30:	04010113          	addi	sp,sp,64
   18b34:	00008067          	jalr	zero,0(ra)

00018b38 <__gdtoa>:
   18b38:	f3010113          	addi	sp,sp,-208
   18b3c:	0b312e23          	sw	s3,188(sp)
   18b40:	00072983          	lw	s3,0(a4)
   18b44:	0b912223          	sw	s9,164(sp)
   18b48:	0c112623          	sw	ra,204(sp)
   18b4c:	fcf9f313          	andi	t1,s3,-49
   18b50:	00672023          	sw	t1,0(a4)
   18b54:	00300e13          	addi	t3,zero,3
   18b58:	00f9f313          	andi	t1,s3,15
   18b5c:	00f12023          	sw	a5,0(sp)
   18b60:	01012423          	sw	a6,8(sp)
   18b64:	0d012c83          	lw	s9,208(sp)
   18b68:	3bc30463          	beq	t1,t3,18f10 <__gdtoa+0x3d8>
   18b6c:	0ba12023          	sw	s10,160(sp)
   18b70:	00c9f813          	andi	a6,s3,12
   18b74:	00080d13          	addi	s10,a6,0
   18b78:	2c081c63          	bne	a6,zero,18e50 <__gdtoa+0x318>
   18b7c:	09b12e23          	sw	s11,156(sp)
   18b80:	01112e23          	sw	a7,28(sp)
   18b84:	00d12a23          	sw	a3,20(sp)
   18b88:	02c12023          	sw	a2,32(sp)
   18b8c:	02b12623          	sw	a1,44(sp)
   18b90:	02e12423          	sw	a4,40(sp)
   18b94:	00050d93          	addi	s11,a0,0
   18b98:	32030a63          	beq	t1,zero,18ecc <__gdtoa+0x394>
   18b9c:	0d212023          	sw	s2,192(sp)
   18ba0:	0005a903          	lw	s2,0(a1)
   18ba4:	0c812423          	sw	s0,200(sp)
   18ba8:	02000793          	addi	a5,zero,32
   18bac:	00000593          	addi	a1,zero,0
   18bb0:	0127d863          	bge	a5,s2,18bc0 <__gdtoa+0x88>
   18bb4:	00179793          	slli	a5,a5,0x1
   18bb8:	00158593          	addi	a1,a1,1
   18bbc:	ff27cce3          	blt	a5,s2,18bb4 <__gdtoa+0x7c>
   18bc0:	000d8513          	addi	a0,s11,0
   18bc4:	094020ef          	jal	ra,1ac58 <_Balloc>
   18bc8:	00050413          	addi	s0,a0,0
   18bcc:	2a050e63          	beq	a0,zero,18e88 <__gdtoa+0x350>
   18bd0:	01412703          	lw	a4,20(sp)
   18bd4:	fff90793          	addi	a5,s2,-1
   18bd8:	4057d793          	srai	a5,a5,0x5
   18bdc:	00279793          	slli	a5,a5,0x2
   18be0:	0c912223          	sw	s1,196(sp)
   18be4:	00f705b3          	add	a1,a4,a5
   18be8:	01450693          	addi	a3,a0,20
   18bec:	00072603          	lw	a2,0(a4)
   18bf0:	00470713          	addi	a4,a4,4
   18bf4:	00468693          	addi	a3,a3,4
   18bf8:	fec6ae23          	sw	a2,-4(a3)
   18bfc:	fee5f8e3          	bgeu	a1,a4,18bec <__gdtoa+0xb4>
   18c00:	01412703          	lw	a4,20(sp)
   18c04:	00158593          	addi	a1,a1,1
   18c08:	00170713          	addi	a4,a4,1
   18c0c:	00e5b5b3          	sltu	a1,a1,a4
   18c10:	fff58593          	addi	a1,a1,-1
   18c14:	00b7f7b3          	and	a5,a5,a1
   18c18:	00478793          	addi	a5,a5,4
   18c1c:	4027d493          	srai	s1,a5,0x2
   18c20:	00f407b3          	add	a5,s0,a5
   18c24:	00c0006f          	jal	zero,18c30 <__gdtoa+0xf8>
   18c28:	ffc78793          	addi	a5,a5,-4
   18c2c:	30048863          	beq	s1,zero,18f3c <__gdtoa+0x404>
   18c30:	0107a703          	lw	a4,16(a5)
   18c34:	00048693          	addi	a3,s1,0
   18c38:	fff48493          	addi	s1,s1,-1
   18c3c:	fe0706e3          	beq	a4,zero,18c28 <__gdtoa+0xf0>
   18c40:	00249793          	slli	a5,s1,0x2
   18c44:	00f407b3          	add	a5,s0,a5
   18c48:	0147a503          	lw	a0,20(a5)
   18c4c:	00d42823          	sw	a3,16(s0) # 10010 <exit-0xa4>
   18c50:	00d12c23          	sw	a3,24(sp)
   18c54:	36c020ef          	jal	ra,1afc0 <__hi0bits>
   18c58:	01812683          	lw	a3,24(sp)
   18c5c:	00569693          	slli	a3,a3,0x5
   18c60:	40a684b3          	sub	s1,a3,a0
   18c64:	00040513          	addi	a0,s0,0
   18c68:	785010ef          	jal	ra,1abec <__trailz_D2A>
   18c6c:	02012783          	lw	a5,32(sp)
   18c70:	08a12623          	sw	a0,140(sp)
   18c74:	02f12a23          	sw	a5,52(sp)
   18c78:	6c051263          	bne	a0,zero,1933c <__gdtoa+0x804>
   18c7c:	01042783          	lw	a5,16(s0)
   18c80:	22078a63          	beq	a5,zero,18eb4 <__gdtoa+0x37c>
   18c84:	08c10593          	addi	a1,sp,140
   18c88:	00040513          	addi	a0,s0,0
   18c8c:	0b512a23          	sw	s5,180(sp)
   18c90:	0b612823          	sw	s6,176(sp)
   18c94:	0b712623          	sw	s7,172(sp)
   18c98:	0b812423          	sw	s8,168(sp)
   18c9c:	0b412c23          	sw	s4,184(sp)
   18ca0:	5c9020ef          	jal	ra,1ba68 <__b2d>
   18ca4:	00c59793          	slli	a5,a1,0xc
   18ca8:	00c7d793          	srli	a5,a5,0xc
   18cac:	3ff00737          	lui	a4,0x3ff00
   18cb0:	00e7e733          	or	a4,a5,a4
   18cb4:	03412803          	lw	a6,52(sp)
   18cb8:	000707b7          	lui	a5,0x70
   18cbc:	6b87a603          	lw	a2,1720(a5) # 706b8 <__SDATA_BEGIN__>
   18cc0:	6bc7a683          	lw	a3,1724(a5)
   18cc4:	00980833          	add	a6,a6,s1
   18cc8:	00050893          	addi	a7,a0,0
   18ccc:	00070593          	addi	a1,a4,0 # 3ff00000 <__BSS_END__+0x3fdebc68>
   18cd0:	fff80b93          	addi	s7,a6,-1
   18cd4:	02e12223          	sw	a4,36(sp)
   18cd8:	00080c13          	addi	s8,a6,0
   18cdc:	05112823          	sw	a7,80(sp)
   18ce0:	04a12023          	sw	a0,64(sp)
   18ce4:	334070ef          	jal	ra,20018 <__subdf3>
   18ce8:	8081a603          	lw	a2,-2040(gp) # 706c0 <__SDATA_BEGIN__+0x8>
   18cec:	80c1a683          	lw	a3,-2036(gp) # 706c4 <__SDATA_BEGIN__+0xc>
   18cf0:	541060ef          	jal	ra,1fa30 <__muldf3>
   18cf4:	8101a603          	lw	a2,-2032(gp) # 706c8 <__SDATA_BEGIN__+0x10>
   18cf8:	8141a683          	lw	a3,-2028(gp) # 706cc <__SDATA_BEGIN__+0x14>
   18cfc:	4fd050ef          	jal	ra,1e9f8 <__adddf3>
   18d00:	00050a93          	addi	s5,a0,0
   18d04:	000b8513          	addi	a0,s7,0
   18d08:	00058b13          	addi	s6,a1,0
   18d0c:	2e9070ef          	jal	ra,207f4 <__floatsidf>
   18d10:	8181a603          	lw	a2,-2024(gp) # 706d0 <__SDATA_BEGIN__+0x18>
   18d14:	81c1a683          	lw	a3,-2020(gp) # 706d4 <__SDATA_BEGIN__+0x1c>
   18d18:	519060ef          	jal	ra,1fa30 <__muldf3>
   18d1c:	00050613          	addi	a2,a0,0
   18d20:	00058693          	addi	a3,a1,0
   18d24:	000a8513          	addi	a0,s5,0
   18d28:	000b0593          	addi	a1,s6,0
   18d2c:	4cd050ef          	jal	ra,1e9f8 <__adddf3>
   18d30:	00050a93          	addi	s5,a0,0
   18d34:	00058b13          	addi	s6,a1,0
   18d38:	000b8513          	addi	a0,s7,0
   18d3c:	000bd663          	bge	s7,zero,18d48 <__gdtoa+0x210>
   18d40:	00100513          	addi	a0,zero,1
   18d44:	41850533          	sub	a0,a0,s8
   18d48:	bcb50513          	addi	a0,a0,-1077
   18d4c:	02a05863          	bge	zero,a0,18d7c <__gdtoa+0x244>
   18d50:	2a5070ef          	jal	ra,207f4 <__floatsidf>
   18d54:	8201a603          	lw	a2,-2016(gp) # 706d8 <__SDATA_BEGIN__+0x20>
   18d58:	8241a683          	lw	a3,-2012(gp) # 706dc <__SDATA_BEGIN__+0x24>
   18d5c:	4d5060ef          	jal	ra,1fa30 <__muldf3>
   18d60:	00050613          	addi	a2,a0,0
   18d64:	00058693          	addi	a3,a1,0
   18d68:	000a8513          	addi	a0,s5,0
   18d6c:	000b0593          	addi	a1,s6,0
   18d70:	489050ef          	jal	ra,1e9f8 <__adddf3>
   18d74:	00050a93          	addi	s5,a0,0
   18d78:	00058b13          	addi	s6,a1,0
   18d7c:	000b0593          	addi	a1,s6,0
   18d80:	000a8513          	addi	a0,s5,0
   18d84:	1f5070ef          	jal	ra,20778 <__fixdfsi>
   18d88:	000b0a13          	addi	s4,s6,0
   18d8c:	000a0593          	addi	a1,s4,0
   18d90:	00050b13          	addi	s6,a0,0
   18d94:	00000613          	addi	a2,zero,0
   18d98:	000a8513          	addi	a0,s5,0
   18d9c:	00000693          	addi	a3,zero,0
   18da0:	01612c23          	sw	s6,24(sp)
   18da4:	3b5060ef          	jal	ra,1f958 <__ledf2>
   18da8:	02055263          	bge	a0,zero,18dcc <__gdtoa+0x294>
   18dac:	000b0513          	addi	a0,s6,0
   18db0:	245070ef          	jal	ra,207f4 <__floatsidf>
   18db4:	000a8613          	addi	a2,s5,0
   18db8:	000a0693          	addi	a3,s4,0
   18dbc:	241060ef          	jal	ra,1f7fc <__eqdf2>
   18dc0:	00a03533          	sltu	a0,zero,a0
   18dc4:	40ab07b3          	sub	a5,s6,a0
   18dc8:	00f12c23          	sw	a5,24(sp)
   18dcc:	02412703          	lw	a4,36(sp)
   18dd0:	014b9793          	slli	a5,s7,0x14
   18dd4:	00e78a33          	add	s4,a5,a4
   18dd8:	41748733          	sub	a4,s1,s7
   18ddc:	fff70693          	addi	a3,a4,-1
   18de0:	02d12823          	sw	a3,48(sp)
   18de4:	01812683          	lw	a3,24(sp)
   18de8:	01600793          	addi	a5,zero,22
   18dec:	14d7ec63          	bltu	a5,a3,18f44 <__gdtoa+0x40c>
   18df0:	01812783          	lw	a5,24(sp)
   18df4:	00070837          	lui	a6,0x70
   18df8:	b3080893          	addi	a7,a6,-1232 # 6fb30 <__mprec_tens>
   18dfc:	00379793          	slli	a5,a5,0x3
   18e00:	00f887b3          	add	a5,a7,a5
   18e04:	04012603          	lw	a2,64(sp)
   18e08:	0007a503          	lw	a0,0(a5)
   18e0c:	0047a583          	lw	a1,4(a5)
   18e10:	000a0693          	addi	a3,s4,0
   18e14:	02e12223          	sw	a4,36(sp)
   18e18:	269060ef          	jal	ra,1f880 <__gedf2>
   18e1c:	02412703          	lw	a4,36(sp)
   18e20:	56a04863          	blt	zero,a0,19390 <__gdtoa+0x858>
   18e24:	00e04463          	blt	zero,a4,18e2c <__gdtoa+0x2f4>
   18e28:	0d40106f          	jal	zero,19efc <__gdtoa+0x13c4>
   18e2c:	03012783          	lw	a5,48(sp)
   18e30:	01812703          	lw	a4,24(sp)
   18e34:	04012623          	sw	zero,76(sp)
   18e38:	02012c23          	sw	zero,56(sp)
   18e3c:	00e787b3          	add	a5,a5,a4
   18e40:	02f12823          	sw	a5,48(sp)
   18e44:	04e12223          	sw	a4,68(sp)
   18e48:	02012e23          	sw	zero,60(sp)
   18e4c:	1300006f          	jal	zero,18f7c <__gdtoa+0x444>
   18e50:	00400793          	addi	a5,zero,4
   18e54:	04f31063          	bne	t1,a5,18e94 <__gdtoa+0x35c>
   18e58:	0a012d03          	lw	s10,160(sp)
   18e5c:	0cc12083          	lw	ra,204(sp)
   18e60:	0bc12983          	lw	s3,188(sp)
   18e64:	ffff87b7          	lui	a5,0xffff8
   18e68:	000c8613          	addi	a2,s9,0
   18e6c:	0a412c83          	lw	s9,164(sp)
   18e70:	000235b7          	lui	a1,0x23
   18e74:	00f8a023          	sw	a5,0(a7)
   18e78:	000e0693          	addi	a3,t3,0
   18e7c:	40058593          	addi	a1,a1,1024 # 23400 <__clzsi2+0xf8>
   18e80:	0d010113          	addi	sp,sp,208
   18e84:	1b10106f          	jal	zero,1a834 <__nrv_alloc_D2A>
   18e88:	0c812403          	lw	s0,200(sp)
   18e8c:	0c012903          	lw	s2,192(sp)
   18e90:	09c12d83          	lw	s11,156(sp)
   18e94:	00000793          	addi	a5,zero,0
   18e98:	0cc12083          	lw	ra,204(sp)
   18e9c:	0a012d03          	lw	s10,160(sp)
   18ea0:	0bc12983          	lw	s3,188(sp)
   18ea4:	0a412c83          	lw	s9,164(sp)
   18ea8:	00078513          	addi	a0,a5,0 # ffff8000 <__BSS_END__+0xffee3c68>
   18eac:	0d010113          	addi	sp,sp,208
   18eb0:	00008067          	jalr	zero,0(ra)
   18eb4:	00040593          	addi	a1,s0,0
   18eb8:	000d8513          	addi	a0,s11,0
   18ebc:	649010ef          	jal	ra,1ad04 <_Bfree>
   18ec0:	0c812403          	lw	s0,200(sp)
   18ec4:	0c412483          	lw	s1,196(sp)
   18ec8:	0c012903          	lw	s2,192(sp)
   18ecc:	01c12783          	lw	a5,28(sp)
   18ed0:	00100693          	addi	a3,zero,1
   18ed4:	000235b7          	lui	a1,0x23
   18ed8:	000c8613          	addi	a2,s9,0
   18edc:	000d8513          	addi	a0,s11,0
   18ee0:	00d7a023          	sw	a3,0(a5)
   18ee4:	3f058593          	addi	a1,a1,1008 # 233f0 <__clzsi2+0xe8>
   18ee8:	14d010ef          	jal	ra,1a834 <__nrv_alloc_D2A>
   18eec:	0cc12083          	lw	ra,204(sp)
   18ef0:	00050793          	addi	a5,a0,0
   18ef4:	09c12d83          	lw	s11,156(sp)
   18ef8:	0a012d03          	lw	s10,160(sp)
   18efc:	0bc12983          	lw	s3,188(sp)
   18f00:	0a412c83          	lw	s9,164(sp)
   18f04:	00078513          	addi	a0,a5,0
   18f08:	0d010113          	addi	sp,sp,208
   18f0c:	00008067          	jalr	zero,0(ra)
   18f10:	0cc12083          	lw	ra,204(sp)
   18f14:	0bc12983          	lw	s3,188(sp)
   18f18:	ffff87b7          	lui	a5,0xffff8
   18f1c:	000c8613          	addi	a2,s9,0
   18f20:	0a412c83          	lw	s9,164(sp)
   18f24:	000235b7          	lui	a1,0x23
   18f28:	00f8a023          	sw	a5,0(a7)
   18f2c:	3f458593          	addi	a1,a1,1012 # 233f4 <__clzsi2+0xec>
   18f30:	00800693          	addi	a3,zero,8
   18f34:	0d010113          	addi	sp,sp,208
   18f38:	0fd0106f          	jal	zero,1a834 <__nrv_alloc_D2A>
   18f3c:	00042823          	sw	zero,16(s0)
   18f40:	d25ff06f          	jal	zero,18c64 <__gdtoa+0x12c>
   18f44:	00100793          	addi	a5,zero,1
   18f48:	04f12623          	sw	a5,76(sp)
   18f4c:	03012783          	lw	a5,48(sp)
   18f50:	02012c23          	sw	zero,56(sp)
   18f54:	4207c463          	blt	a5,zero,1937c <__gdtoa+0x844>
   18f58:	01812783          	lw	a5,24(sp)
   18f5c:	4007d263          	bge	a5,zero,19360 <__gdtoa+0x828>
   18f60:	03812783          	lw	a5,56(sp)
   18f64:	01812703          	lw	a4,24(sp)
   18f68:	04012223          	sw	zero,68(sp)
   18f6c:	40e787b3          	sub	a5,a5,a4
   18f70:	02f12c23          	sw	a5,56(sp)
   18f74:	40e007b3          	sub	a5,zero,a4
   18f78:	02f12e23          	sw	a5,60(sp)
   18f7c:	00012703          	lw	a4,0(sp)
   18f80:	00900793          	addi	a5,zero,9
   18f84:	56e7ea63          	bltu	a5,a4,194f8 <__gdtoa+0x9c0>
   18f88:	00012783          	lw	a5,0(sp)
   18f8c:	00500713          	addi	a4,zero,5
   18f90:	0af752e3          	bge	a4,a5,19834 <__gdtoa+0xcfc>
   18f94:	ffc78793          	addi	a5,a5,-4 # ffff7ffc <__BSS_END__+0xffee3c64>
   18f98:	00f12023          	sw	a5,0(sp)
   18f9c:	00012683          	lw	a3,0(sp)
   18fa0:	00400793          	addi	a5,zero,4
   18fa4:	5af68063          	beq	a3,a5,19544 <__gdtoa+0xa0c>
   18fa8:	66e686e3          	beq	a3,a4,19e14 <__gdtoa+0x12dc>
   18fac:	00200793          	addi	a5,zero,2
   18fb0:	04012c23          	sw	zero,88(sp)
   18fb4:	00000a93          	addi	s5,zero,0
   18fb8:	58f68c63          	beq	a3,a5,19550 <__gdtoa+0xa18>
   18fbc:	00300793          	addi	a5,zero,3
   18fc0:	00f12023          	sw	a5,0(sp)
   18fc4:	00812783          	lw	a5,8(sp)
   18fc8:	01812703          	lw	a4,24(sp)
   18fcc:	00e787b3          	add	a5,a5,a4
   18fd0:	04f12423          	sw	a5,72(sp)
   18fd4:	00178793          	addi	a5,a5,1
   18fd8:	02f12223          	sw	a5,36(sp)
   18fdc:	3cf05463          	bge	zero,a5,193a4 <__gdtoa+0x86c>
   18fe0:	00078593          	addi	a1,a5,0
   18fe4:	000d8513          	addi	a0,s11,0
   18fe8:	08f12623          	sw	a5,140(sp)
   18fec:	7dc010ef          	jal	ra,1a7c8 <__rv_alloc_D2A>
   18ff0:	00050793          	addi	a5,a0,0
   18ff4:	00050ce3          	beq	a0,zero,1980c <__gdtoa+0xcd4>
   18ff8:	02c12703          	lw	a4,44(sp)
   18ffc:	00c72803          	lw	a6,12(a4)
   19000:	fff80813          	addi	a6,a6,-1
   19004:	00080e63          	beq	a6,zero,19020 <__gdtoa+0x4e8>
   19008:	00085463          	bge	a6,zero,19010 <__gdtoa+0x4d8>
   1900c:	00200813          	addi	a6,zero,2
   19010:	1009f993          	andi	s3,s3,256
   19014:	42098e63          	beq	s3,zero,19450 <__gdtoa+0x918>
   19018:	00300713          	addi	a4,zero,3
   1901c:	41070833          	sub	a6,a4,a6
   19020:	02412703          	lw	a4,36(sp)
   19024:	00f73713          	sltiu	a4,a4,15
   19028:	42070463          	beq	a4,zero,19450 <__gdtoa+0x918>
   1902c:	420a8263          	beq	s5,zero,19450 <__gdtoa+0x918>
   19030:	01812703          	lw	a4,24(sp)
   19034:	00e86733          	or	a4,a6,a4
   19038:	40071c63          	bne	a4,zero,19450 <__gdtoa+0x918>
   1903c:	04012703          	lw	a4,64(sp)
   19040:	04c12683          	lw	a3,76(sp)
   19044:	08012623          	sw	zero,140(sp)
   19048:	04e12e23          	sw	a4,92(sp)
   1904c:	07412423          	sw	s4,104(sp)
   19050:	02068663          	beq	a3,zero,1907c <__gdtoa+0x544>
   19054:	8301a603          	lw	a2,-2000(gp) # 706e8 <__SDATA_BEGIN__+0x30>
   19058:	8341a683          	lw	a3,-1996(gp) # 706ec <__SDATA_BEGIN__+0x34>
   1905c:	00070513          	addi	a0,a4,0
   19060:	000a0593          	addi	a1,s4,0
   19064:	04f12023          	sw	a5,64(sp)
   19068:	06e12023          	sw	a4,96(sp)
   1906c:	0ed060ef          	jal	ra,1f958 <__ledf2>
   19070:	04012783          	lw	a5,64(sp)
   19074:	00055463          	bge	a0,zero,1907c <__gdtoa+0x544>
   19078:	1440106f          	jal	zero,1a1bc <__gdtoa+0x1684>
   1907c:	04f12023          	sw	a5,64(sp)
   19080:	05c12783          	lw	a5,92(sp)
   19084:	00078613          	addi	a2,a5,0
   19088:	00078513          	addi	a0,a5,0
   1908c:	06812783          	lw	a5,104(sp)
   19090:	00078693          	addi	a3,a5,0
   19094:	00078593          	addi	a1,a5,0
   19098:	161050ef          	jal	ra,1e9f8 <__adddf3>
   1909c:	8481a603          	lw	a2,-1976(gp) # 70700 <__SDATA_BEGIN__+0x48>
   190a0:	84c1a683          	lw	a3,-1972(gp) # 70704 <__SDATA_BEGIN__+0x4c>
   190a4:	155050ef          	jal	ra,1e9f8 <__adddf3>
   190a8:	fcc00737          	lui	a4,0xfcc00
   190ac:	00b70333          	add	t1,a4,a1
   190b0:	02412703          	lw	a4,36(sp)
   190b4:	04012783          	lw	a5,64(sp)
   190b8:	00050993          	addi	s3,a0,0
   190bc:	32070263          	beq	a4,zero,193e0 <__gdtoa+0x8a8>
   190c0:	02412703          	lw	a4,36(sp)
   190c4:	05c12a83          	lw	s5,92(sp)
   190c8:	06812b03          	lw	s6,104(sp)
   190cc:	06012623          	sw	zero,108(sp)
   190d0:	04e12023          	sw	a4,64(sp)
   190d4:	04012703          	lw	a4,64(sp)
   190d8:	00070837          	lui	a6,0x70
   190dc:	b3080893          	addi	a7,a6,-1232 # 6fb30 <__mprec_tens>
   190e0:	00371693          	slli	a3,a4,0x3
   190e4:	05812703          	lw	a4,88(sp)
   190e8:	00d886b3          	add	a3,a7,a3
   190ec:	ff86a603          	lw	a2,-8(a3)
   190f0:	ffc6a683          	lw	a3,-4(a3)
   190f4:	100702e3          	beq	a4,zero,199f8 <__gdtoa+0xec0>
   190f8:	8581a503          	lw	a0,-1960(gp) # 70710 <__SDATA_BEGIN__+0x58>
   190fc:	85c1a583          	lw	a1,-1956(gp) # 70714 <__SDATA_BEGIN__+0x5c>
   19100:	06612823          	sw	t1,112(sp)
   19104:	04f12823          	sw	a5,80(sp)
   19108:	07112a23          	sw	a7,116(sp)
   1910c:	07312023          	sw	s3,96(sp)
   19110:	00178993          	addi	s3,a5,1
   19114:	030060ef          	jal	ra,1f144 <__divdf3>
   19118:	06012603          	lw	a2,96(sp)
   1911c:	07012683          	lw	a3,112(sp)
   19120:	000a8b93          	addi	s7,s5,0
   19124:	000b0a13          	addi	s4,s6,0
   19128:	6f1060ef          	jal	ra,20018 <__subdf3>
   1912c:	00050613          	addi	a2,a0,0
   19130:	00058693          	addi	a3,a1,0
   19134:	000a8513          	addi	a0,s5,0
   19138:	000b0593          	addi	a1,s6,0
   1913c:	00068a93          	addi	s5,a3,0
   19140:	00060b13          	addi	s6,a2,0
   19144:	634070ef          	jal	ra,20778 <__fixdfsi>
   19148:	00050c13          	addi	s8,a0,0
   1914c:	6a8070ef          	jal	ra,207f4 <__floatsidf>
   19150:	00050613          	addi	a2,a0,0
   19154:	00058693          	addi	a3,a1,0
   19158:	000b8513          	addi	a0,s7,0
   1915c:	000a0593          	addi	a1,s4,0
   19160:	6b9060ef          	jal	ra,20018 <__subdf3>
   19164:	05012783          	lw	a5,80(sp)
   19168:	030c0713          	addi	a4,s8,48
   1916c:	00050613          	addi	a2,a0,0
   19170:	00058693          	addi	a3,a1,0
   19174:	00e78023          	sb	a4,0(a5)
   19178:	00050a13          	addi	s4,a0,0
   1917c:	00058b93          	addi	s7,a1,0
   19180:	000b0513          	addi	a0,s6,0
   19184:	000a8593          	addi	a1,s5,0
   19188:	6f8060ef          	jal	ra,1f880 <__gedf2>
   1918c:	05012783          	lw	a5,80(sp)
   19190:	00a05463          	bge	zero,a0,19198 <__gdtoa+0x660>
   19194:	2e00106f          	jal	zero,1a474 <__gdtoa+0x193c>
   19198:	8341a703          	lw	a4,-1996(gp) # 706ec <__SDATA_BEGIN__+0x34>
   1919c:	8301a683          	lw	a3,-2000(gp) # 706e8 <__SDATA_BEGIN__+0x30>
   191a0:	06e12223          	sw	a4,100(sp)
   191a4:	06d12023          	sw	a3,96(sp)
   191a8:	83c1a703          	lw	a4,-1988(gp) # 706f4 <__SDATA_BEGIN__+0x3c>
   191ac:	8381a683          	lw	a3,-1992(gp) # 706f0 <__SDATA_BEGIN__+0x38>
   191b0:	00040c13          	addi	s8,s0,0
   191b4:	07212c23          	sw	s2,120(sp)
   191b8:	06912e23          	sw	s1,124(sp)
   191bc:	04d12823          	sw	a3,80(sp)
   191c0:	04e12a23          	sw	a4,84(sp)
   191c4:	06f12823          	sw	a5,112(sp)
   191c8:	000a0413          	addi	s0,s4,0
   191cc:	000b0493          	addi	s1,s6,0
   191d0:	000a8913          	addi	s2,s5,0
   191d4:	08c0006f          	jal	zero,19260 <__gdtoa+0x728>
   191d8:	08c12783          	lw	a5,140(sp)
   191dc:	04012703          	lw	a4,64(sp)
   191e0:	00178793          	addi	a5,a5,1
   191e4:	08f12623          	sw	a5,140(sp)
   191e8:	00e7c463          	blt	a5,a4,191f0 <__gdtoa+0x6b8>
   191ec:	36c0106f          	jal	zero,1a558 <__gdtoa+0x1a20>
   191f0:	041060ef          	jal	ra,1fa30 <__muldf3>
   191f4:	05012603          	lw	a2,80(sp)
   191f8:	05412683          	lw	a3,84(sp)
   191fc:	00050493          	addi	s1,a0,0
   19200:	00058913          	addi	s2,a1,0
   19204:	00040513          	addi	a0,s0,0
   19208:	000b8593          	addi	a1,s7,0
   1920c:	025060ef          	jal	ra,1fa30 <__muldf3>
   19210:	00058a93          	addi	s5,a1,0
   19214:	00050a13          	addi	s4,a0,0
   19218:	560070ef          	jal	ra,20778 <__fixdfsi>
   1921c:	00050413          	addi	s0,a0,0
   19220:	5d4070ef          	jal	ra,207f4 <__floatsidf>
   19224:	00050613          	addi	a2,a0,0
   19228:	00058693          	addi	a3,a1,0
   1922c:	000a0513          	addi	a0,s4,0
   19230:	000a8593          	addi	a1,s5,0
   19234:	5e5060ef          	jal	ra,20018 <__subdf3>
   19238:	03040793          	addi	a5,s0,48
   1923c:	00048613          	addi	a2,s1,0
   19240:	00090693          	addi	a3,s2,0
   19244:	00f98023          	sb	a5,0(s3)
   19248:	00198993          	addi	s3,s3,1
   1924c:	00050413          	addi	s0,a0,0
   19250:	00058b93          	addi	s7,a1,0
   19254:	704060ef          	jal	ra,1f958 <__ledf2>
   19258:	00055463          	bge	a0,zero,19260 <__gdtoa+0x728>
   1925c:	20c0106f          	jal	zero,1a468 <__gdtoa+0x1930>
   19260:	06012503          	lw	a0,96(sp)
   19264:	06412583          	lw	a1,100(sp)
   19268:	00040613          	addi	a2,s0,0
   1926c:	000b8693          	addi	a3,s7,0
   19270:	5a9060ef          	jal	ra,20018 <__subdf3>
   19274:	00048613          	addi	a2,s1,0
   19278:	00090693          	addi	a3,s2,0
   1927c:	6dc060ef          	jal	ra,1f958 <__ledf2>
   19280:	00050793          	addi	a5,a0,0
   19284:	05012603          	lw	a2,80(sp)
   19288:	05412683          	lw	a3,84(sp)
   1928c:	00048513          	addi	a0,s1,0
   19290:	00090593          	addi	a1,s2,0
   19294:	f407d2e3          	bge	a5,zero,191d8 <__gdtoa+0x6a0>
   19298:	07012783          	lw	a5,112(sp)
   1929c:	fff9c903          	lbu	s2,-1(s3)
   192a0:	000c0413          	addi	s0,s8,0
   192a4:	03900613          	addi	a2,zero,57
   192a8:	0140006f          	jal	zero,192bc <__gdtoa+0x784>
   192ac:	00d79463          	bne	a5,a3,192b4 <__gdtoa+0x77c>
   192b0:	0000106f          	jal	zero,1a2b0 <__gdtoa+0x1778>
   192b4:	fff6c903          	lbu	s2,-1(a3)
   192b8:	00068993          	addi	s3,a3,0
   192bc:	fff98693          	addi	a3,s3,-1
   192c0:	fec906e3          	beq	s2,a2,192ac <__gdtoa+0x774>
   192c4:	00190913          	addi	s2,s2,1
   192c8:	06c12703          	lw	a4,108(sp)
   192cc:	01268023          	sb	s2,0(a3)
   192d0:	02000d13          	addi	s10,zero,32
   192d4:	00170c13          	addi	s8,a4,1 # fcc00001 <__BSS_END__+0xfcaebc69>
   192d8:	00040593          	addi	a1,s0,0
   192dc:	000d8513          	addi	a0,s11,0
   192e0:	00f12023          	sw	a5,0(sp)
   192e4:	221010ef          	jal	ra,1ad04 <_Bfree>
   192e8:	01c12783          	lw	a5,28(sp)
   192ec:	00098023          	sb	zero,0(s3)
   192f0:	0187a023          	sw	s8,0(a5)
   192f4:	00012783          	lw	a5,0(sp)
   192f8:	000c8463          	beq	s9,zero,19300 <__gdtoa+0x7c8>
   192fc:	013ca023          	sw	s3,0(s9)
   19300:	02812703          	lw	a4,40(sp)
   19304:	02812683          	lw	a3,40(sp)
   19308:	0c812403          	lw	s0,200(sp)
   1930c:	00072703          	lw	a4,0(a4)
   19310:	0c412483          	lw	s1,196(sp)
   19314:	0c012903          	lw	s2,192(sp)
   19318:	01a76733          	or	a4,a4,s10
   1931c:	0b812a03          	lw	s4,184(sp)
   19320:	0b412a83          	lw	s5,180(sp)
   19324:	0b012b03          	lw	s6,176(sp)
   19328:	0ac12b83          	lw	s7,172(sp)
   1932c:	0a812c03          	lw	s8,168(sp)
   19330:	09c12d83          	lw	s11,156(sp)
   19334:	00e6a023          	sw	a4,0(a3)
   19338:	b61ff06f          	jal	zero,18e98 <__gdtoa+0x360>
   1933c:	00050593          	addi	a1,a0,0
   19340:	00040513          	addi	a0,s0,0
   19344:	7c4010ef          	jal	ra,1ab08 <__rshift_D2A>
   19348:	08c12783          	lw	a5,140(sp)
   1934c:	02012703          	lw	a4,32(sp)
   19350:	40f484b3          	sub	s1,s1,a5
   19354:	00e787b3          	add	a5,a5,a4
   19358:	02f12a23          	sw	a5,52(sp)
   1935c:	921ff06f          	jal	zero,18c7c <__gdtoa+0x144>
   19360:	03012783          	lw	a5,48(sp)
   19364:	01812703          	lw	a4,24(sp)
   19368:	02012e23          	sw	zero,60(sp)
   1936c:	00e787b3          	add	a5,a5,a4
   19370:	02f12823          	sw	a5,48(sp)
   19374:	04e12223          	sw	a4,68(sp)
   19378:	c05ff06f          	jal	zero,18f7c <__gdtoa+0x444>
   1937c:	00100793          	addi	a5,zero,1
   19380:	40e787b3          	sub	a5,a5,a4
   19384:	02f12c23          	sw	a5,56(sp)
   19388:	02012823          	sw	zero,48(sp)
   1938c:	bcdff06f          	jal	zero,18f58 <__gdtoa+0x420>
   19390:	01812783          	lw	a5,24(sp)
   19394:	04012623          	sw	zero,76(sp)
   19398:	fff78793          	addi	a5,a5,-1
   1939c:	00f12c23          	sw	a5,24(sp)
   193a0:	badff06f          	jal	zero,18f4c <__gdtoa+0x414>
   193a4:	00100793          	addi	a5,zero,1
   193a8:	c39ff06f          	jal	zero,18fe0 <__gdtoa+0x4a8>
   193ac:	00070613          	addi	a2,a4,0
   193b0:	00070513          	addi	a0,a4,0
   193b4:	000a0693          	addi	a3,s4,0
   193b8:	000a0593          	addi	a1,s4,0
   193bc:	04f12023          	sw	a5,64(sp)
   193c0:	638050ef          	jal	ra,1e9f8 <__adddf3>
   193c4:	8481a603          	lw	a2,-1976(gp) # 70700 <__SDATA_BEGIN__+0x48>
   193c8:	84c1a683          	lw	a3,-1972(gp) # 70704 <__SDATA_BEGIN__+0x4c>
   193cc:	62c050ef          	jal	ra,1e9f8 <__adddf3>
   193d0:	04012783          	lw	a5,64(sp)
   193d4:	fcc00737          	lui	a4,0xfcc00
   193d8:	00050993          	addi	s3,a0,0
   193dc:	00b70333          	add	t1,a4,a1
   193e0:	8501a603          	lw	a2,-1968(gp) # 70708 <__SDATA_BEGIN__+0x50>
   193e4:	05c12503          	lw	a0,92(sp)
   193e8:	8541a683          	lw	a3,-1964(gp) # 7070c <__SDATA_BEGIN__+0x54>
   193ec:	06812583          	lw	a1,104(sp)
   193f0:	04f12023          	sw	a5,64(sp)
   193f4:	04612823          	sw	t1,80(sp)
   193f8:	421060ef          	jal	ra,20018 <__subdf3>
   193fc:	05012683          	lw	a3,80(sp)
   19400:	00098613          	addi	a2,s3,0
   19404:	00050a13          	addi	s4,a0,0
   19408:	00058a93          	addi	s5,a1,0
   1940c:	474060ef          	jal	ra,1f880 <__gedf2>
   19410:	04012783          	lw	a5,64(sp)
   19414:	6aa048e3          	blt	zero,a0,1a2c4 <__gdtoa+0x178c>
   19418:	05012303          	lw	t1,80(sp)
   1941c:	800006b7          	lui	a3,0x80000
   19420:	00098613          	addi	a2,s3,0
   19424:	00d34733          	xor	a4,t1,a3
   19428:	00070693          	addi	a3,a4,0 # fcc00000 <__BSS_END__+0xfcaebc68>
   1942c:	000a0513          	addi	a0,s4,0
   19430:	000a8593          	addi	a1,s5,0
   19434:	524060ef          	jal	ra,1f958 <__ledf2>
   19438:	04012783          	lw	a5,64(sp)
   1943c:	160544e3          	blt	a0,zero,19da4 <__gdtoa+0x126c>
   19440:	05c12703          	lw	a4,92(sp)
   19444:	06812a03          	lw	s4,104(sp)
   19448:	00000813          	addi	a6,zero,0
   1944c:	04e12823          	sw	a4,80(sp)
   19450:	03412703          	lw	a4,52(sp)
   19454:	10074e63          	blt	a4,zero,19570 <__gdtoa+0xa38>
   19458:	01812703          	lw	a4,24(sp)
   1945c:	00f72713          	slti	a4,a4,15
   19460:	10070863          	beq	a4,zero,19570 <__gdtoa+0xa38>
   19464:	000708b7          	lui	a7,0x70
   19468:	b3088893          	addi	a7,a7,-1232 # 6fb30 <__mprec_tens>
   1946c:	01812703          	lw	a4,24(sp)
   19470:	00371713          	slli	a4,a4,0x3
   19474:	00e888b3          	add	a7,a7,a4
   19478:	0048a703          	lw	a4,4(a7)
   1947c:	0008a683          	lw	a3,0(a7)
   19480:	00e12223          	sw	a4,4(sp)
   19484:	00812703          	lw	a4,8(sp)
   19488:	00d12023          	sw	a3,0(sp)
   1948c:	3e075863          	bge	a4,zero,1987c <__gdtoa+0xd44>
   19490:	02412703          	lw	a4,36(sp)
   19494:	3ee04463          	blt	zero,a4,1987c <__gdtoa+0xd44>
   19498:	100716e3          	bne	a4,zero,19da4 <__gdtoa+0x126c>
   1949c:	8501a603          	lw	a2,-1968(gp) # 70708 <__SDATA_BEGIN__+0x50>
   194a0:	8541a683          	lw	a3,-1964(gp) # 7070c <__SDATA_BEGIN__+0x54>
   194a4:	00012503          	lw	a0,0(sp)
   194a8:	00412583          	lw	a1,4(sp)
   194ac:	00f12a23          	sw	a5,20(sp)
   194b0:	580060ef          	jal	ra,1fa30 <__muldf3>
   194b4:	05012603          	lw	a2,80(sp)
   194b8:	000a0693          	addi	a3,s4,0
   194bc:	3c4060ef          	jal	ra,1f880 <__gedf2>
   194c0:	01412783          	lw	a5,20(sp)
   194c4:	0e0550e3          	bge	a0,zero,19da4 <__gdtoa+0x126c>
   194c8:	03100713          	addi	a4,zero,49
   194cc:	00e78023          	sb	a4,0(a5)
   194d0:	00000593          	addi	a1,zero,0
   194d4:	000d8513          	addi	a0,s11,0
   194d8:	00178993          	addi	s3,a5,1
   194dc:	00f12023          	sw	a5,0(sp)
   194e0:	025010ef          	jal	ra,1ad04 <_Bfree>
   194e4:	01812783          	lw	a5,24(sp)
   194e8:	02000d13          	addi	s10,zero,32
   194ec:	00278c13          	addi	s8,a5,2
   194f0:	00012783          	lw	a5,0(sp)
   194f4:	de5ff06f          	jal	zero,192d8 <__gdtoa+0x7a0>
   194f8:	3fdc0793          	addi	a5,s8,1021
   194fc:	7f87ba93          	sltiu	s5,a5,2040
   19500:	00012023          	sw	zero,0(sp)
   19504:	00090513          	addi	a0,s2,0
   19508:	2ec070ef          	jal	ra,207f4 <__floatsidf>
   1950c:	8281a603          	lw	a2,-2008(gp) # 706e0 <__SDATA_BEGIN__+0x28>
   19510:	82c1a683          	lw	a3,-2004(gp) # 706e4 <__SDATA_BEGIN__+0x2c>
   19514:	51c060ef          	jal	ra,1fa30 <__muldf3>
   19518:	260070ef          	jal	ra,20778 <__fixdfsi>
   1951c:	fff00713          	addi	a4,zero,-1
   19520:	fff00793          	addi	a5,zero,-1
   19524:	00350593          	addi	a1,a0,3
   19528:	02e12223          	sw	a4,36(sp)
   1952c:	00100713          	addi	a4,zero,1
   19530:	04f12423          	sw	a5,72(sp)
   19534:	00012423          	sw	zero,8(sp)
   19538:	00058793          	addi	a5,a1,0
   1953c:	04e12c23          	sw	a4,88(sp)
   19540:	aa5ff06f          	jal	zero,18fe4 <__gdtoa+0x4ac>
   19544:	00100793          	addi	a5,zero,1
   19548:	00000a93          	addi	s5,zero,0
   1954c:	04f12c23          	sw	a5,88(sp)
   19550:	00812583          	lw	a1,8(sp)
   19554:	00b04463          	blt	zero,a1,1955c <__gdtoa+0xa24>
   19558:	00100593          	addi	a1,zero,1
   1955c:	00058793          	addi	a5,a1,0
   19560:	04b12423          	sw	a1,72(sp)
   19564:	02b12223          	sw	a1,36(sp)
   19568:	00b12423          	sw	a1,8(sp)
   1956c:	a79ff06f          	jal	zero,18fe4 <__gdtoa+0x4ac>
   19570:	05812703          	lw	a4,88(sp)
   19574:	5e070263          	beq	a4,zero,19b58 <__gdtoa+0x1020>
   19578:	02c12703          	lw	a4,44(sp)
   1957c:	03412603          	lw	a2,52(sp)
   19580:	40990933          	sub	s2,s2,s1
   19584:	00472703          	lw	a4,4(a4)
   19588:	00190693          	addi	a3,s2,1
   1958c:	08d12623          	sw	a3,140(sp)
   19590:	41260933          	sub	s2,a2,s2
   19594:	1ce956e3          	bge	s2,a4,19f60 <__gdtoa+0x1428>
   19598:	00012683          	lw	a3,0(sp)
   1959c:	ffd68693          	addi	a3,a3,-3 # 7ffffffd <__BSS_END__+0x7feebc65>
   195a0:	ffd6f693          	andi	a3,a3,-3
   195a4:	080684e3          	beq	a3,zero,19e2c <__gdtoa+0x12f4>
   195a8:	00012683          	lw	a3,0(sp)
   195ac:	40e60733          	sub	a4,a2,a4
   195b0:	02412603          	lw	a2,36(sp)
   195b4:	0026a693          	slti	a3,a3,2
   195b8:	00170713          	addi	a4,a4,1
   195bc:	0016b693          	sltiu	a3,a3,1
   195c0:	00c02633          	slt	a2,zero,a2
   195c4:	08e12623          	sw	a4,140(sp)
   195c8:	00c6f6b3          	and	a3,a3,a2
   195cc:	00068863          	beq	a3,zero,195dc <__gdtoa+0xaa4>
   195d0:	02412683          	lw	a3,36(sp)
   195d4:	00e6d463          	bge	a3,a4,195dc <__gdtoa+0xaa4>
   195d8:	0ac0106f          	jal	zero,1a684 <__gdtoa+0x1b4c>
   195dc:	03012683          	lw	a3,48(sp)
   195e0:	03c12a03          	lw	s4,60(sp)
   195e4:	00e686b3          	add	a3,a3,a4
   195e8:	02d12823          	sw	a3,48(sp)
   195ec:	03812683          	lw	a3,56(sp)
   195f0:	00d709b3          	add	s3,a4,a3
   195f4:	00100593          	addi	a1,zero,1
   195f8:	000d8513          	addi	a0,s11,0
   195fc:	04f12023          	sw	a5,64(sp)
   19600:	03012a23          	sw	a6,52(sp)
   19604:	361010ef          	jal	ra,1b164 <__i2b>
   19608:	00050913          	addi	s2,a0,0
   1960c:	20050063          	beq	a0,zero,1980c <__gdtoa+0xcd4>
   19610:	03812703          	lw	a4,56(sp)
   19614:	03412803          	lw	a6,52(sp)
   19618:	04012783          	lw	a5,64(sp)
   1961c:	04070063          	beq	a4,zero,1965c <__gdtoa+0xb24>
   19620:	03012703          	lw	a4,48(sp)
   19624:	02e05c63          	bge	zero,a4,1965c <__gdtoa+0xb24>
   19628:	03812683          	lw	a3,56(sp)
   1962c:	03012603          	lw	a2,48(sp)
   19630:	00068713          	addi	a4,a3,0
   19634:	00d65463          	bge	a2,a3,1963c <__gdtoa+0xb04>
   19638:	00060713          	addi	a4,a2,0
   1963c:	03812683          	lw	a3,56(sp)
   19640:	08e12623          	sw	a4,140(sp)
   19644:	40e989b3          	sub	s3,s3,a4
   19648:	40e686b3          	sub	a3,a3,a4
   1964c:	02d12c23          	sw	a3,56(sp)
   19650:	03012683          	lw	a3,48(sp)
   19654:	40e68733          	sub	a4,a3,a4
   19658:	02e12823          	sw	a4,48(sp)
   1965c:	03c12703          	lw	a4,60(sp)
   19660:	02070863          	beq	a4,zero,19690 <__gdtoa+0xb58>
   19664:	2e0a18e3          	bne	s4,zero,1a154 <__gdtoa+0x161c>
   19668:	03c12603          	lw	a2,60(sp)
   1966c:	00040593          	addi	a1,s0,0
   19670:	000d8513          	addi	a0,s11,0
   19674:	04f12023          	sw	a5,64(sp)
   19678:	03012a23          	sw	a6,52(sp)
   1967c:	605010ef          	jal	ra,1b480 <__pow5mult>
   19680:	03412803          	lw	a6,52(sp)
   19684:	04012783          	lw	a5,64(sp)
   19688:	00050413          	addi	s0,a0,0
   1968c:	18050063          	beq	a0,zero,1980c <__gdtoa+0xcd4>
   19690:	00100593          	addi	a1,zero,1
   19694:	000d8513          	addi	a0,s11,0
   19698:	02f12e23          	sw	a5,60(sp)
   1969c:	03012a23          	sw	a6,52(sp)
   196a0:	2c5010ef          	jal	ra,1b164 <__i2b>
   196a4:	00050313          	addi	t1,a0,0
   196a8:	16050263          	beq	a0,zero,1980c <__gdtoa+0xcd4>
   196ac:	04412703          	lw	a4,68(sp)
   196b0:	03412803          	lw	a6,52(sp)
   196b4:	03c12783          	lw	a5,60(sp)
   196b8:	7a071663          	bne	a4,zero,19e64 <__gdtoa+0x132c>
   196bc:	00012703          	lw	a4,0(sp)
   196c0:	00272713          	slti	a4,a4,2
   196c4:	00070663          	beq	a4,zero,196d0 <__gdtoa+0xb98>
   196c8:	fff48493          	addi	s1,s1,-1
   196cc:	0e048663          	beq	s1,zero,197b8 <__gdtoa+0xc80>
   196d0:	01f00513          	addi	a0,zero,31
   196d4:	03012703          	lw	a4,48(sp)
   196d8:	40e504b3          	sub	s1,a0,a4
   196dc:	ffc48493          	addi	s1,s1,-4
   196e0:	01f4f493          	andi	s1,s1,31
   196e4:	08912623          	sw	s1,140(sp)
   196e8:	01348633          	add	a2,s1,s3
   196ec:	00048713          	addi	a4,s1,0
   196f0:	6ec04863          	blt	zero,a2,19de0 <__gdtoa+0x12a8>
   196f4:	03012683          	lw	a3,48(sp)
   196f8:	00e68633          	add	a2,a3,a4
   196fc:	0ec04663          	blt	zero,a2,197e8 <__gdtoa+0xcb0>
   19700:	04c12703          	lw	a4,76(sp)
   19704:	080712e3          	bne	a4,zero,19f88 <__gdtoa+0x1450>
   19708:	02412703          	lw	a4,36(sp)
   1970c:	48e04e63          	blt	zero,a4,19ba8 <__gdtoa+0x1070>
   19710:	00012703          	lw	a4,0(sp)
   19714:	00372713          	slti	a4,a4,3
   19718:	48071863          	bne	a4,zero,19ba8 <__gdtoa+0x1070>
   1971c:	00030593          	addi	a1,t1,0
   19720:	00000693          	addi	a3,zero,0
   19724:	00500613          	addi	a2,zero,5
   19728:	000d8513          	addi	a0,s11,0
   1972c:	00f12023          	sw	a5,0(sp)
   19730:	5f8010ef          	jal	ra,1ad28 <__multadd>
   19734:	00050593          	addi	a1,a0,0
   19738:	0c050a63          	beq	a0,zero,1980c <__gdtoa+0xcd4>
   1973c:	02412703          	lw	a4,36(sp)
   19740:	00012783          	lw	a5,0(sp)
   19744:	1a0712e3          	bne	a4,zero,1a0e8 <__gdtoa+0x15b0>
   19748:	00a12023          	sw	a0,0(sp)
   1974c:	00040513          	addi	a0,s0,0
   19750:	00f12a23          	sw	a5,20(sp)
   19754:	01c020ef          	jal	ra,1b770 <__mcmp>
   19758:	00012583          	lw	a1,0(sp)
   1975c:	01412783          	lw	a5,20(sp)
   19760:	18a054e3          	bge	zero,a0,1a0e8 <__gdtoa+0x15b0>
   19764:	03100713          	addi	a4,zero,49
   19768:	00e78023          	sb	a4,0(a5)
   1976c:	01812703          	lw	a4,24(sp)
   19770:	00178993          	addi	s3,a5,1
   19774:	02000d13          	addi	s10,zero,32
   19778:	00170713          	addi	a4,a4,1
   1977c:	00e12c23          	sw	a4,24(sp)
   19780:	000d8513          	addi	a0,s11,0
   19784:	00f12023          	sw	a5,0(sp)
   19788:	57c010ef          	jal	ra,1ad04 <_Bfree>
   1978c:	00012783          	lw	a5,0(sp)
   19790:	00091463          	bne	s2,zero,19798 <__gdtoa+0xc60>
   19794:	0040106f          	jal	zero,1a798 <__gdtoa+0x1c60>
   19798:	00090593          	addi	a1,s2,0
   1979c:	000d8513          	addi	a0,s11,0
   197a0:	00f12023          	sw	a5,0(sp)
   197a4:	560010ef          	jal	ra,1ad04 <_Bfree>
   197a8:	01812783          	lw	a5,24(sp)
   197ac:	00178c13          	addi	s8,a5,1
   197b0:	00012783          	lw	a5,0(sp)
   197b4:	b25ff06f          	jal	zero,192d8 <__gdtoa+0x7a0>
   197b8:	02c12703          	lw	a4,44(sp)
   197bc:	02012683          	lw	a3,32(sp)
   197c0:	00472703          	lw	a4,4(a4)
   197c4:	00170713          	addi	a4,a4,1
   197c8:	f0d754e3          	bge	a4,a3,196d0 <__gdtoa+0xb98>
   197cc:	03012703          	lw	a4,48(sp)
   197d0:	00198993          	addi	s3,s3,1
   197d4:	00170713          	addi	a4,a4,1
   197d8:	02e12823          	sw	a4,48(sp)
   197dc:	00100713          	addi	a4,zero,1
   197e0:	04e12223          	sw	a4,68(sp)
   197e4:	eedff06f          	jal	zero,196d0 <__gdtoa+0xb98>
   197e8:	00030593          	addi	a1,t1,0
   197ec:	000d8513          	addi	a0,s11,0
   197f0:	02f12623          	sw	a5,44(sp)
   197f4:	03012023          	sw	a6,32(sp)
   197f8:	5f1010ef          	jal	ra,1b5e8 <__lshift>
   197fc:	02012803          	lw	a6,32(sp)
   19800:	02c12783          	lw	a5,44(sp)
   19804:	00050313          	addi	t1,a0,0
   19808:	ee051ce3          	bne	a0,zero,19700 <__gdtoa+0xbc8>
   1980c:	0c812403          	lw	s0,200(sp)
   19810:	0c412483          	lw	s1,196(sp)
   19814:	0c012903          	lw	s2,192(sp)
   19818:	0b812a03          	lw	s4,184(sp)
   1981c:	0b412a83          	lw	s5,180(sp)
   19820:	0b012b03          	lw	s6,176(sp)
   19824:	0ac12b83          	lw	s7,172(sp)
   19828:	0a812c03          	lw	s8,168(sp)
   1982c:	09c12d83          	lw	s11,156(sp)
   19830:	e64ff06f          	jal	zero,18e94 <__gdtoa+0x35c>
   19834:	3fdc0793          	addi	a5,s8,1021
   19838:	7f87ba93          	sltiu	s5,a5,2040
   1983c:	00012783          	lw	a5,0(sp)
   19840:	00400693          	addi	a3,zero,4
   19844:	0cd782e3          	beq	a5,a3,1a108 <__gdtoa+0x15d0>
   19848:	5ce78863          	beq	a5,a4,19e18 <__gdtoa+0x12e0>
   1984c:	00012703          	lw	a4,0(sp)
   19850:	00200793          	addi	a5,zero,2
   19854:	0af706e3          	beq	a4,a5,1a100 <__gdtoa+0x15c8>
   19858:	00300793          	addi	a5,zero,3
   1985c:	04012c23          	sw	zero,88(sp)
   19860:	f6f70263          	beq	a4,a5,18fc4 <__gdtoa+0x48c>
   19864:	ca1ff06f          	jal	zero,19504 <__gdtoa+0x9cc>
   19868:	b3082683          	lw	a3,-1232(a6)
   1986c:	b3482703          	lw	a4,-1228(a6)
   19870:	00000813          	addi	a6,zero,0
   19874:	00d12023          	sw	a3,0(sp)
   19878:	00e12223          	sw	a4,4(sp)
   1987c:	05012903          	lw	s2,80(sp)
   19880:	000a0993          	addi	s3,s4,0
   19884:	00412a83          	lw	s5,4(sp)
   19888:	000a0593          	addi	a1,s4,0
   1988c:	00012a03          	lw	s4,0(sp)
   19890:	00100713          	addi	a4,zero,1
   19894:	000a8693          	addi	a3,s5,0
   19898:	000a0613          	addi	a2,s4,0
   1989c:	00090513          	addi	a0,s2,0
   198a0:	00f12423          	sw	a5,8(sp)
   198a4:	01012a23          	sw	a6,20(sp)
   198a8:	08e12623          	sw	a4,140(sp)
   198ac:	099050ef          	jal	ra,1f144 <__divdf3>
   198b0:	6c9060ef          	jal	ra,20778 <__fixdfsi>
   198b4:	00050493          	addi	s1,a0,0
   198b8:	73d060ef          	jal	ra,207f4 <__floatsidf>
   198bc:	000a0613          	addi	a2,s4,0
   198c0:	000a8693          	addi	a3,s5,0
   198c4:	16c060ef          	jal	ra,1fa30 <__muldf3>
   198c8:	00050613          	addi	a2,a0,0
   198cc:	00058693          	addi	a3,a1,0
   198d0:	00090513          	addi	a0,s2,0
   198d4:	00098593          	addi	a1,s3,0
   198d8:	740060ef          	jal	ra,20018 <__subdf3>
   198dc:	00812783          	lw	a5,8(sp)
   198e0:	03048713          	addi	a4,s1,48
   198e4:	00000613          	addi	a2,zero,0
   198e8:	00e78023          	sb	a4,0(a5)
   198ec:	00178993          	addi	s3,a5,1
   198f0:	01812783          	lw	a5,24(sp)
   198f4:	00000693          	addi	a3,zero,0
   198f8:	00050a13          	addi	s4,a0,0
   198fc:	00178c13          	addi	s8,a5,1
   19900:	00058913          	addi	s2,a1,0
   19904:	6f9050ef          	jal	ra,1f7fc <__eqdf2>
   19908:	00812783          	lw	a5,8(sp)
   1990c:	9c0506e3          	beq	a0,zero,192d8 <__gdtoa+0x7a0>
   19910:	83c1a703          	lw	a4,-1988(gp) # 706f4 <__SDATA_BEGIN__+0x3c>
   19914:	01412803          	lw	a6,20(sp)
   19918:	8381a683          	lw	a3,-1992(gp) # 706f0 <__SDATA_BEGIN__+0x38>
   1991c:	00812a23          	sw	s0,20(sp)
   19920:	00e12623          	sw	a4,12(sp)
   19924:	00d12423          	sw	a3,8(sp)
   19928:	03012623          	sw	a6,44(sp)
   1992c:	02f12023          	sw	a5,32(sp)
   19930:	000a0413          	addi	s0,s4,0
   19934:	0780006f          	jal	zero,199ac <__gdtoa+0xe74>
   19938:	09012623          	sw	a6,140(sp)
   1993c:	0f4060ef          	jal	ra,1fa30 <__muldf3>
   19940:	00012a03          	lw	s4,0(sp)
   19944:	00412a83          	lw	s5,4(sp)
   19948:	00050b13          	addi	s6,a0,0
   1994c:	000a0613          	addi	a2,s4,0
   19950:	000a8693          	addi	a3,s5,0
   19954:	00058b93          	addi	s7,a1,0
   19958:	7ec050ef          	jal	ra,1f144 <__divdf3>
   1995c:	61d060ef          	jal	ra,20778 <__fixdfsi>
   19960:	00050493          	addi	s1,a0,0
   19964:	691060ef          	jal	ra,207f4 <__floatsidf>
   19968:	000a0613          	addi	a2,s4,0
   1996c:	000a8693          	addi	a3,s5,0
   19970:	0c0060ef          	jal	ra,1fa30 <__muldf3>
   19974:	00050613          	addi	a2,a0,0
   19978:	00058693          	addi	a3,a1,0
   1997c:	000b0513          	addi	a0,s6,0
   19980:	000b8593          	addi	a1,s7,0
   19984:	694060ef          	jal	ra,20018 <__subdf3>
   19988:	00198993          	addi	s3,s3,1
   1998c:	03048793          	addi	a5,s1,48
   19990:	fef98fa3          	sb	a5,-1(s3)
   19994:	00000613          	addi	a2,zero,0
   19998:	00000693          	addi	a3,zero,0
   1999c:	00050413          	addi	s0,a0,0
   199a0:	00058913          	addi	s2,a1,0
   199a4:	659050ef          	jal	ra,1f7fc <__eqdf2>
   199a8:	72050a63          	beq	a0,zero,1a0dc <__gdtoa+0x15a4>
   199ac:	08c12703          	lw	a4,140(sp)
   199b0:	02412783          	lw	a5,36(sp)
   199b4:	00812603          	lw	a2,8(sp)
   199b8:	00c12683          	lw	a3,12(sp)
   199bc:	00040513          	addi	a0,s0,0
   199c0:	00090593          	addi	a1,s2,0
   199c4:	00170813          	addi	a6,a4,1
   199c8:	f6f718e3          	bne	a4,a5,19938 <__gdtoa+0xe00>
   199cc:	02c12803          	lw	a6,44(sp)
   199d0:	02012783          	lw	a5,32(sp)
   199d4:	01412403          	lw	s0,20(sp)
   199d8:	10080ce3          	beq	a6,zero,1a2f0 <__gdtoa+0x17b8>
   199dc:	00100693          	addi	a3,zero,1
   199e0:	01000d13          	addi	s10,zero,16
   199e4:	8ed81ae3          	bne	a6,a3,192d8 <__gdtoa+0x7a0>
   199e8:	01812703          	lw	a4,24(sp)
   199ec:	06e12623          	sw	a4,108(sp)
   199f0:	fff9c903          	lbu	s2,-1(s3)
   199f4:	8b1ff06f          	jal	zero,192a4 <__gdtoa+0x76c>
   199f8:	00098513          	addi	a0,s3,0
   199fc:	00030593          	addi	a1,t1,0
   19a00:	07012823          	sw	a6,112(sp)
   19a04:	06f12023          	sw	a5,96(sp)
   19a08:	028060ef          	jal	ra,1fa30 <__muldf3>
   19a0c:	8381a783          	lw	a5,-1992(gp) # 706f0 <__SDATA_BEGIN__+0x38>
   19a10:	83c1a803          	lw	a6,-1988(gp) # 706f4 <__SDATA_BEGIN__+0x3c>
   19a14:	05012883          	lw	a7,80(sp)
   19a18:	000a0e93          	addi	t4,s4,0
   19a1c:	00100713          	addi	a4,zero,1
   19a20:	00040a13          	addi	s4,s0,0
   19a24:	04912823          	sw	s1,80(sp)
   19a28:	06012983          	lw	s3,96(sp)
   19a2c:	00050b93          	addi	s7,a0,0
   19a30:	00058c13          	addi	s8,a1,0
   19a34:	00078a93          	addi	s5,a5,0
   19a38:	00080b13          	addi	s6,a6,0
   19a3c:	08e12623          	sw	a4,140(sp)
   19a40:	00088413          	addi	s0,a7,0
   19a44:	000e8493          	addi	s1,t4,0
   19a48:	0140006f          	jal	zero,19a5c <__gdtoa+0xf24>
   19a4c:	08e12623          	sw	a4,140(sp)
   19a50:	7e1050ef          	jal	ra,1fa30 <__muldf3>
   19a54:	00050413          	addi	s0,a0,0
   19a58:	00058493          	addi	s1,a1,0
   19a5c:	00040513          	addi	a0,s0,0
   19a60:	00048593          	addi	a1,s1,0
   19a64:	515060ef          	jal	ra,20778 <__fixdfsi>
   19a68:	00050913          	addi	s2,a0,0
   19a6c:	02050263          	beq	a0,zero,19a90 <__gdtoa+0xf58>
   19a70:	585060ef          	jal	ra,207f4 <__floatsidf>
   19a74:	00050613          	addi	a2,a0,0
   19a78:	00058693          	addi	a3,a1,0
   19a7c:	00040513          	addi	a0,s0,0
   19a80:	00048593          	addi	a1,s1,0
   19a84:	594060ef          	jal	ra,20018 <__subdf3>
   19a88:	00050413          	addi	s0,a0,0
   19a8c:	00058493          	addi	s1,a1,0
   19a90:	03090913          	addi	s2,s2,48
   19a94:	0ff97913          	andi	s2,s2,255
   19a98:	01298023          	sb	s2,0(s3)
   19a9c:	08c12783          	lw	a5,140(sp)
   19aa0:	04012803          	lw	a6,64(sp)
   19aa4:	00198993          	addi	s3,s3,1
   19aa8:	00040513          	addi	a0,s0,0
   19aac:	00048593          	addi	a1,s1,0
   19ab0:	000a8613          	addi	a2,s5,0
   19ab4:	000b0693          	addi	a3,s6,0
   19ab8:	00178713          	addi	a4,a5,1
   19abc:	f90798e3          	bne	a5,a6,19a4c <__gdtoa+0xf14>
   19ac0:	06012783          	lw	a5,96(sp)
   19ac4:	8581a603          	lw	a2,-1960(gp) # 70710 <__SDATA_BEGIN__+0x58>
   19ac8:	85c1a683          	lw	a3,-1956(gp) # 70714 <__SDATA_BEGIN__+0x5c>
   19acc:	000b8513          	addi	a0,s7,0
   19ad0:	000c0593          	addi	a1,s8,0
   19ad4:	06f12a23          	sw	a5,116(sp)
   19ad8:	06812023          	sw	s0,96(sp)
   19adc:	04912023          	sw	s1,64(sp)
   19ae0:	719040ef          	jal	ra,1e9f8 <__adddf3>
   19ae4:	06012883          	lw	a7,96(sp)
   19ae8:	04012683          	lw	a3,64(sp)
   19aec:	05012483          	lw	s1,80(sp)
   19af0:	00088613          	addi	a2,a7,0
   19af4:	05112823          	sw	a7,80(sp)
   19af8:	661050ef          	jal	ra,1f958 <__ledf2>
   19afc:	07412783          	lw	a5,116(sp)
   19b00:	000a0413          	addi	s0,s4,0
   19b04:	fa054063          	blt	a0,zero,192a4 <__gdtoa+0x76c>
   19b08:	8581a503          	lw	a0,-1960(gp) # 70710 <__SDATA_BEGIN__+0x58>
   19b0c:	85c1a583          	lw	a1,-1956(gp) # 70714 <__SDATA_BEGIN__+0x5c>
   19b10:	000b8613          	addi	a2,s7,0
   19b14:	000c0693          	addi	a3,s8,0
   19b18:	06f12023          	sw	a5,96(sp)
   19b1c:	4fc060ef          	jal	ra,20018 <__subdf3>
   19b20:	05012603          	lw	a2,80(sp)
   19b24:	04012683          	lw	a3,64(sp)
   19b28:	559050ef          	jal	ra,1f880 <__gedf2>
   19b2c:	04012e83          	lw	t4,64(sp)
   19b30:	05012883          	lw	a7,80(sp)
   19b34:	06012783          	lw	a5,96(sp)
   19b38:	07012803          	lw	a6,112(sp)
   19b3c:	24a048e3          	blt	zero,a0,1a58c <__gdtoa+0x1a54>
   19b40:	05c12703          	lw	a4,92(sp)
   19b44:	06812a03          	lw	s4,104(sp)
   19b48:	04e12823          	sw	a4,80(sp)
   19b4c:	03412703          	lw	a4,52(sp)
   19b50:	d0075ce3          	bge	a4,zero,19868 <__gdtoa+0xd30>
   19b54:	00000813          	addi	a6,zero,0
   19b58:	03812703          	lw	a4,56(sp)
   19b5c:	3c070263          	beq	a4,zero,19f20 <__gdtoa+0x13e8>
   19b60:	03012703          	lw	a4,48(sp)
   19b64:	3a070e63          	beq	a4,zero,19f20 <__gdtoa+0x13e8>
   19b68:	03812683          	lw	a3,56(sp)
   19b6c:	03012603          	lw	a2,48(sp)
   19b70:	00068713          	addi	a4,a3,0
   19b74:	00d65463          	bge	a2,a3,19b7c <__gdtoa+0x1044>
   19b78:	00060713          	addi	a4,a2,0
   19b7c:	03812683          	lw	a3,56(sp)
   19b80:	08e12623          	sw	a4,140(sp)
   19b84:	40e689b3          	sub	s3,a3,a4
   19b88:	03012683          	lw	a3,48(sp)
   19b8c:	40e68733          	sub	a4,a3,a4
   19b90:	02e12823          	sw	a4,48(sp)
   19b94:	03c12703          	lw	a4,60(sp)
   19b98:	38071a63          	bne	a4,zero,19f2c <__gdtoa+0x13f4>
   19b9c:	03312c23          	sw	s3,56(sp)
   19ba0:	00000913          	addi	s2,zero,0
   19ba4:	aedff06f          	jal	zero,19690 <__gdtoa+0xb58>
   19ba8:	05812703          	lw	a4,88(sp)
   19bac:	46070a63          	beq	a4,zero,1a020 <__gdtoa+0x14e8>
   19bb0:	03812703          	lw	a4,56(sp)
   19bb4:	00e48633          	add	a2,s1,a4
   19bb8:	6cc04063          	blt	zero,a2,1a278 <__gdtoa+0x1740>
   19bbc:	04412703          	lw	a4,68(sp)
   19bc0:	00090a13          	addi	s4,s2,0
   19bc4:	7a071e63          	bne	a4,zero,1a380 <__gdtoa+0x1848>
   19bc8:	ffe80713          	addi	a4,a6,-2
   19bcc:	02e12623          	sw	a4,44(sp)
   19bd0:	00100693          	addi	a3,zero,1
   19bd4:	01012423          	sw	a6,8(sp)
   19bd8:	000a0993          	addi	s3,s4,0
   19bdc:	00078b13          	addi	s6,a5,0
   19be0:	00030b93          	addi	s7,t1,0
   19be4:	02f12823          	sw	a5,48(sp)
   19be8:	000b8593          	addi	a1,s7,0
   19bec:	00040513          	addi	a0,s0,0
   19bf0:	08d12623          	sw	a3,140(sp)
   19bf4:	50d000ef          	jal	ra,1a900 <__quorem_D2A>
   19bf8:	00090593          	addi	a1,s2,0
   19bfc:	00050a93          	addi	s5,a0,0
   19c00:	00050c13          	addi	s8,a0,0
   19c04:	00040513          	addi	a0,s0,0
   19c08:	369010ef          	jal	ra,1b770 <__mcmp>
   19c0c:	000b8593          	addi	a1,s7,0
   19c10:	00050493          	addi	s1,a0,0
   19c14:	00098613          	addi	a2,s3,0
   19c18:	000d8513          	addi	a0,s11,0
   19c1c:	3ad010ef          	jal	ra,1b7c8 <__mdiff>
   19c20:	00050593          	addi	a1,a0,0
   19c24:	be0504e3          	beq	a0,zero,1980c <__gdtoa+0xcd4>
   19c28:	00c52783          	lw	a5,12(a0)
   19c2c:	030a8a93          	addi	s5,s5,48
   19c30:	0a078e63          	beq	a5,zero,19cec <__gdtoa+0x11b4>
   19c34:	000d8513          	addi	a0,s11,0
   19c38:	0cc010ef          	jal	ra,1ad04 <_Bfree>
   19c3c:	00100593          	addi	a1,zero,1
   19c40:	0604c2e3          	blt	s1,zero,1a4a4 <__gdtoa+0x196c>
   19c44:	00012783          	lw	a5,0(sp)
   19c48:	00f4e4b3          	or	s1,s1,a5
   19c4c:	00049a63          	bne	s1,zero,19c60 <__gdtoa+0x1128>
   19c50:	01412783          	lw	a5,20(sp)
   19c54:	0007a783          	lw	a5,0(a5)
   19c58:	0017f793          	andi	a5,a5,1
   19c5c:	040784e3          	beq	a5,zero,1a4a4 <__gdtoa+0x196c>
   19c60:	001b0493          	addi	s1,s6,1
   19c64:	00048693          	addi	a3,s1,0
   19c68:	00b05663          	bge	zero,a1,19c74 <__gdtoa+0x113c>
   19c6c:	02c12783          	lw	a5,44(sp)
   19c70:	160796e3          	bne	a5,zero,1a5dc <__gdtoa+0x1aa4>
   19c74:	ff548fa3          	sb	s5,-1(s1)
   19c78:	08c12783          	lw	a5,140(sp)
   19c7c:	02412703          	lw	a4,36(sp)
   19c80:	12e78ce3          	beq	a5,a4,1a5b8 <__gdtoa+0x1a80>
   19c84:	00040593          	addi	a1,s0,0
   19c88:	00000693          	addi	a3,zero,0
   19c8c:	00a00613          	addi	a2,zero,10
   19c90:	000d8513          	addi	a0,s11,0
   19c94:	094010ef          	jal	ra,1ad28 <__multadd>
   19c98:	00050413          	addi	s0,a0,0
   19c9c:	b60508e3          	beq	a0,zero,1980c <__gdtoa+0xcd4>
   19ca0:	00090593          	addi	a1,s2,0
   19ca4:	00000693          	addi	a3,zero,0
   19ca8:	00a00613          	addi	a2,zero,10
   19cac:	000d8513          	addi	a0,s11,0
   19cb0:	11390e63          	beq	s2,s3,19dcc <__gdtoa+0x1294>
   19cb4:	074010ef          	jal	ra,1ad28 <__multadd>
   19cb8:	00050913          	addi	s2,a0,0
   19cbc:	b40508e3          	beq	a0,zero,1980c <__gdtoa+0xcd4>
   19cc0:	00098593          	addi	a1,s3,0
   19cc4:	00000693          	addi	a3,zero,0
   19cc8:	00a00613          	addi	a2,zero,10
   19ccc:	000d8513          	addi	a0,s11,0
   19cd0:	058010ef          	jal	ra,1ad28 <__multadd>
   19cd4:	00050993          	addi	s3,a0,0
   19cd8:	b2050ae3          	beq	a0,zero,1980c <__gdtoa+0xcd4>
   19cdc:	08c12683          	lw	a3,140(sp)
   19ce0:	00048b13          	addi	s6,s1,0
   19ce4:	00168693          	addi	a3,a3,1
   19ce8:	f01ff06f          	jal	zero,19be8 <__gdtoa+0x10b0>
   19cec:	02a12023          	sw	a0,32(sp)
   19cf0:	00040513          	addi	a0,s0,0
   19cf4:	27d010ef          	jal	ra,1b770 <__mcmp>
   19cf8:	02012583          	lw	a1,32(sp)
   19cfc:	00050a13          	addi	s4,a0,0
   19d00:	000d8513          	addi	a0,s11,0
   19d04:	000010ef          	jal	ra,1ad04 <_Bfree>
   19d08:	00012703          	lw	a4,0(sp)
   19d0c:	00ea65b3          	or	a1,s4,a4
   19d10:	58059c63          	bne	a1,zero,1a2a8 <__gdtoa+0x1770>
   19d14:	01412783          	lw	a5,20(sp)
   19d18:	00812703          	lw	a4,8(sp)
   19d1c:	0007a783          	lw	a5,0(a5)
   19d20:	0017f793          	andi	a5,a5,1
   19d24:	00e7e7b3          	or	a5,a5,a4
   19d28:	f0079ce3          	bne	a5,zero,19c40 <__gdtoa+0x1108>
   19d2c:	03900693          	addi	a3,zero,57
   19d30:	00098a13          	addi	s4,s3,0
   19d34:	03012783          	lw	a5,48(sp)
   19d38:	000a8993          	addi	s3,s5,0
   19d3c:	000b0713          	addi	a4,s6,0
   19d40:	000b8313          	addi	t1,s7,0
   19d44:	4eda8863          	beq	s5,a3,1a234 <__gdtoa+0x16fc>
   19d48:	229058e3          	bge	zero,s1,1a778 <__gdtoa+0x1c40>
   19d4c:	031c0993          	addi	s3,s8,49
   19d50:	02000d13          	addi	s10,zero,32
   19d54:	00090893          	addi	a7,s2,0
   19d58:	01370023          	sb	s3,0(a4)
   19d5c:	000a0913          	addi	s2,s4,0
   19d60:	00170993          	addi	s3,a4,1
   19d64:	00030593          	addi	a1,t1,0
   19d68:	000d8513          	addi	a0,s11,0
   19d6c:	00f12423          	sw	a5,8(sp)
   19d70:	01112023          	sw	a7,0(sp)
   19d74:	791000ef          	jal	ra,1ad04 <_Bfree>
   19d78:	00012883          	lw	a7,0(sp)
   19d7c:	00812783          	lw	a5,8(sp)
   19d80:	20090ce3          	beq	s2,zero,1a798 <__gdtoa+0x1c60>
   19d84:	a0088ae3          	beq	a7,zero,19798 <__gdtoa+0xc60>
   19d88:	a12888e3          	beq	a7,s2,19798 <__gdtoa+0xc60>
   19d8c:	00088593          	addi	a1,a7,0
   19d90:	000d8513          	addi	a0,s11,0
   19d94:	00f12023          	sw	a5,0(sp)
   19d98:	76d000ef          	jal	ra,1ad04 <_Bfree>
   19d9c:	00012783          	lw	a5,0(sp)
   19da0:	9f9ff06f          	jal	zero,19798 <__gdtoa+0xc60>
   19da4:	00000593          	addi	a1,zero,0
   19da8:	000d8513          	addi	a0,s11,0
   19dac:	00f12023          	sw	a5,0(sp)
   19db0:	755000ef          	jal	ra,1ad04 <_Bfree>
   19db4:	00812783          	lw	a5,8(sp)
   19db8:	01000d13          	addi	s10,zero,16
   19dbc:	40f00c33          	sub	s8,zero,a5
   19dc0:	00012783          	lw	a5,0(sp)
   19dc4:	00078993          	addi	s3,a5,0
   19dc8:	d10ff06f          	jal	zero,192d8 <__gdtoa+0x7a0>
   19dcc:	75d000ef          	jal	ra,1ad28 <__multadd>
   19dd0:	00050913          	addi	s2,a0,0
   19dd4:	a2050ce3          	beq	a0,zero,1980c <__gdtoa+0xcd4>
   19dd8:	00050993          	addi	s3,a0,0
   19ddc:	f01ff06f          	jal	zero,19cdc <__gdtoa+0x11a4>
   19de0:	00040593          	addi	a1,s0,0
   19de4:	000d8513          	addi	a0,s11,0
   19de8:	02f12a23          	sw	a5,52(sp)
   19dec:	02612623          	sw	t1,44(sp)
   19df0:	03012023          	sw	a6,32(sp)
   19df4:	7f4010ef          	jal	ra,1b5e8 <__lshift>
   19df8:	00050413          	addi	s0,a0,0
   19dfc:	a00508e3          	beq	a0,zero,1980c <__gdtoa+0xcd4>
   19e00:	08c12703          	lw	a4,140(sp)
   19e04:	03412783          	lw	a5,52(sp)
   19e08:	02c12303          	lw	t1,44(sp)
   19e0c:	02012803          	lw	a6,32(sp)
   19e10:	8e5ff06f          	jal	zero,196f4 <__gdtoa+0xbbc>
   19e14:	00000a93          	addi	s5,zero,0
   19e18:	00500793          	addi	a5,zero,5
   19e1c:	00f12023          	sw	a5,0(sp)
   19e20:	00100793          	addi	a5,zero,1
   19e24:	04f12c23          	sw	a5,88(sp)
   19e28:	99cff06f          	jal	zero,18fc4 <__gdtoa+0x48c>
   19e2c:	02412703          	lw	a4,36(sp)
   19e30:	03c12683          	lw	a3,60(sp)
   19e34:	fff70713          	addi	a4,a4,-1
   19e38:	2ce6ce63          	blt	a3,a4,1a114 <__gdtoa+0x15dc>
   19e3c:	40e68a33          	sub	s4,a3,a4
   19e40:	02412703          	lw	a4,36(sp)
   19e44:	0c0750e3          	bge	a4,zero,1a704 <__gdtoa+0x1bcc>
   19e48:	03812703          	lw	a4,56(sp)
   19e4c:	02412683          	lw	a3,36(sp)
   19e50:	08012623          	sw	zero,140(sp)
   19e54:	00070993          	addi	s3,a4,0
   19e58:	40d70733          	sub	a4,a4,a3
   19e5c:	02e12c23          	sw	a4,56(sp)
   19e60:	f94ff06f          	jal	zero,195f4 <__gdtoa+0xabc>
   19e64:	00050593          	addi	a1,a0,0
   19e68:	00070613          	addi	a2,a4,0
   19e6c:	000d8513          	addi	a0,s11,0
   19e70:	610010ef          	jal	ra,1b480 <__pow5mult>
   19e74:	00050313          	addi	t1,a0,0
   19e78:	98050ae3          	beq	a0,zero,1980c <__gdtoa+0xcd4>
   19e7c:	00012783          	lw	a5,0(sp)
   19e80:	03412803          	lw	a6,52(sp)
   19e84:	0027a713          	slti	a4,a5,2
   19e88:	03c12783          	lw	a5,60(sp)
   19e8c:	00070663          	beq	a4,zero,19e98 <__gdtoa+0x1360>
   19e90:	fff48493          	addi	s1,s1,-1
   19e94:	02048c63          	beq	s1,zero,19ecc <__gdtoa+0x1394>
   19e98:	04012223          	sw	zero,68(sp)
   19e9c:	01032703          	lw	a4,16(t1)
   19ea0:	02f12a23          	sw	a5,52(sp)
   19ea4:	03012623          	sw	a6,44(sp)
   19ea8:	00271713          	slli	a4,a4,0x2
   19eac:	00e30733          	add	a4,t1,a4
   19eb0:	01072503          	lw	a0,16(a4)
   19eb4:	02612023          	sw	t1,32(sp)
   19eb8:	108010ef          	jal	ra,1afc0 <__hi0bits>
   19ebc:	03412783          	lw	a5,52(sp)
   19ec0:	02c12803          	lw	a6,44(sp)
   19ec4:	02012303          	lw	t1,32(sp)
   19ec8:	80dff06f          	jal	zero,196d4 <__gdtoa+0xb9c>
   19ecc:	02c12703          	lw	a4,44(sp)
   19ed0:	02012683          	lw	a3,32(sp)
   19ed4:	00472703          	lw	a4,4(a4)
   19ed8:	00170713          	addi	a4,a4,1
   19edc:	fad75ee3          	bge	a4,a3,19e98 <__gdtoa+0x1360>
   19ee0:	03012703          	lw	a4,48(sp)
   19ee4:	00198993          	addi	s3,s3,1
   19ee8:	00170713          	addi	a4,a4,1
   19eec:	02e12823          	sw	a4,48(sp)
   19ef0:	00100713          	addi	a4,zero,1
   19ef4:	04e12223          	sw	a4,68(sp)
   19ef8:	fa5ff06f          	jal	zero,19e9c <__gdtoa+0x1364>
   19efc:	00100793          	addi	a5,zero,1
   19f00:	40e787b3          	sub	a5,a5,a4
   19f04:	02f12c23          	sw	a5,56(sp)
   19f08:	01812783          	lw	a5,24(sp)
   19f0c:	04012623          	sw	zero,76(sp)
   19f10:	02012e23          	sw	zero,60(sp)
   19f14:	02f12823          	sw	a5,48(sp)
   19f18:	04f12223          	sw	a5,68(sp)
   19f1c:	860ff06f          	jal	zero,18f7c <__gdtoa+0x444>
   19f20:	03c12703          	lw	a4,60(sp)
   19f24:	03812983          	lw	s3,56(sp)
   19f28:	c6070ce3          	beq	a4,zero,19ba0 <__gdtoa+0x1068>
   19f2c:	03c12603          	lw	a2,60(sp)
   19f30:	00040593          	addi	a1,s0,0
   19f34:	000d8513          	addi	a0,s11,0
   19f38:	04f12023          	sw	a5,64(sp)
   19f3c:	03012a23          	sw	a6,52(sp)
   19f40:	540010ef          	jal	ra,1b480 <__pow5mult>
   19f44:	00050413          	addi	s0,a0,0
   19f48:	8c0502e3          	beq	a0,zero,1980c <__gdtoa+0xcd4>
   19f4c:	04012783          	lw	a5,64(sp)
   19f50:	03412803          	lw	a6,52(sp)
   19f54:	03312c23          	sw	s3,56(sp)
   19f58:	00000913          	addi	s2,zero,0
   19f5c:	f34ff06f          	jal	zero,19690 <__gdtoa+0xb58>
   19f60:	00012603          	lw	a2,0(sp)
   19f64:	00100713          	addi	a4,zero,1
   19f68:	ecc742e3          	blt	a4,a2,19e2c <__gdtoa+0x12f4>
   19f6c:	03012703          	lw	a4,48(sp)
   19f70:	03c12a03          	lw	s4,60(sp)
   19f74:	00d70733          	add	a4,a4,a3
   19f78:	02e12823          	sw	a4,48(sp)
   19f7c:	03812703          	lw	a4,56(sp)
   19f80:	00e689b3          	add	s3,a3,a4
   19f84:	e70ff06f          	jal	zero,195f4 <__gdtoa+0xabc>
   19f88:	00030593          	addi	a1,t1,0
   19f8c:	00040513          	addi	a0,s0,0
   19f90:	02f12823          	sw	a5,48(sp)
   19f94:	03012623          	sw	a6,44(sp)
   19f98:	02612023          	sw	t1,32(sp)
   19f9c:	7d4010ef          	jal	ra,1b770 <__mcmp>
   19fa0:	02012303          	lw	t1,32(sp)
   19fa4:	02c12803          	lw	a6,44(sp)
   19fa8:	03012783          	lw	a5,48(sp)
   19fac:	f4055e63          	bge	a0,zero,19708 <__gdtoa+0xbd0>
   19fb0:	00040593          	addi	a1,s0,0
   19fb4:	00000693          	addi	a3,zero,0
   19fb8:	00a00613          	addi	a2,zero,10
   19fbc:	000d8513          	addi	a0,s11,0
   19fc0:	02f12623          	sw	a5,44(sp)
   19fc4:	02612223          	sw	t1,36(sp)
   19fc8:	03012023          	sw	a6,32(sp)
   19fcc:	55d000ef          	jal	ra,1ad28 <__multadd>
   19fd0:	00050413          	addi	s0,a0,0
   19fd4:	82050ce3          	beq	a0,zero,1980c <__gdtoa+0xcd4>
   19fd8:	01812783          	lw	a5,24(sp)
   19fdc:	05812703          	lw	a4,88(sp)
   19fe0:	02012803          	lw	a6,32(sp)
   19fe4:	fff78793          	addi	a5,a5,-1
   19fe8:	00f12c23          	sw	a5,24(sp)
   19fec:	02412303          	lw	t1,36(sp)
   19ff0:	02c12783          	lw	a5,44(sp)
   19ff4:	6c071463          	bne	a4,zero,1a6bc <__gdtoa+0x1b84>
   19ff8:	04812703          	lw	a4,72(sp)
   19ffc:	00e04e63          	blt	zero,a4,1a018 <__gdtoa+0x14e0>
   1a000:	00012703          	lw	a4,0(sp)
   1a004:	00372713          	slti	a4,a4,3
   1a008:	00071863          	bne	a4,zero,1a018 <__gdtoa+0x14e0>
   1a00c:	04812703          	lw	a4,72(sp)
   1a010:	02e12223          	sw	a4,36(sp)
   1a014:	f08ff06f          	jal	zero,1971c <__gdtoa+0xbe4>
   1a018:	04812703          	lw	a4,72(sp)
   1a01c:	02e12223          	sw	a4,36(sp)
   1a020:	00090b13          	addi	s6,s2,0
   1a024:	00078493          	addi	s1,a5,0
   1a028:	02412903          	lw	s2,36(sp)
   1a02c:	00100713          	addi	a4,zero,1
   1a030:	00080a93          	addi	s5,a6,0
   1a034:	00030a13          	addi	s4,t1,0
   1a038:	00078b93          	addi	s7,a5,0
   1a03c:	0200006f          	jal	zero,1a05c <__gdtoa+0x1524>
   1a040:	00040593          	addi	a1,s0,0
   1a044:	000d8513          	addi	a0,s11,0
   1a048:	4e1000ef          	jal	ra,1ad28 <__multadd>
   1a04c:	00050413          	addi	s0,a0,0
   1a050:	fa050e63          	beq	a0,zero,1980c <__gdtoa+0xcd4>
   1a054:	08c12703          	lw	a4,140(sp)
   1a058:	00170713          	addi	a4,a4,1
   1a05c:	000a0593          	addi	a1,s4,0
   1a060:	00040513          	addi	a0,s0,0
   1a064:	08e12623          	sw	a4,140(sp)
   1a068:	099000ef          	jal	ra,1a900 <__quorem_D2A>
   1a06c:	00148493          	addi	s1,s1,1
   1a070:	03050993          	addi	s3,a0,48
   1a074:	ff348fa3          	sb	s3,-1(s1)
   1a078:	08c12783          	lw	a5,140(sp)
   1a07c:	00000693          	addi	a3,zero,0
   1a080:	00a00613          	addi	a2,zero,10
   1a084:	fb27cee3          	blt	a5,s2,1a040 <__gdtoa+0x1508>
   1a088:	000a8813          	addi	a6,s5,0
   1a08c:	000b0913          	addi	s2,s6,0
   1a090:	000a0313          	addi	t1,s4,0
   1a094:	000b8793          	addi	a5,s7,0
   1a098:	00000893          	addi	a7,zero,0
   1a09c:	36080063          	beq	a6,zero,1a3fc <__gdtoa+0x18c4>
   1a0a0:	00200713          	addi	a4,zero,2
   1a0a4:	3ae80063          	beq	a6,a4,1a444 <__gdtoa+0x190c>
   1a0a8:	01042683          	lw	a3,16(s0)
   1a0ac:	00100713          	addi	a4,zero,1
   1a0b0:	18d74e63          	blt	a4,a3,1a24c <__gdtoa+0x1714>
   1a0b4:	01442703          	lw	a4,20(s0)
   1a0b8:	18071a63          	bne	a4,zero,1a24c <__gdtoa+0x1714>
   1a0bc:	00e03733          	sltu	a4,zero,a4
   1a0c0:	00471d13          	slli	s10,a4,0x4
   1a0c4:	03000613          	addi	a2,zero,48
   1a0c8:	00048993          	addi	s3,s1,0
   1a0cc:	fff4c703          	lbu	a4,-1(s1)
   1a0d0:	fff48493          	addi	s1,s1,-1
   1a0d4:	fec70ae3          	beq	a4,a2,1a0c8 <__gdtoa+0x1590>
   1a0d8:	c8dff06f          	jal	zero,19d64 <__gdtoa+0x122c>
   1a0dc:	01412403          	lw	s0,20(sp)
   1a0e0:	02012783          	lw	a5,32(sp)
   1a0e4:	9f4ff06f          	jal	zero,192d8 <__gdtoa+0x7a0>
   1a0e8:	00812703          	lw	a4,8(sp)
   1a0ec:	00078993          	addi	s3,a5,0
   1a0f0:	01000d13          	addi	s10,zero,16
   1a0f4:	fff74713          	xori	a4,a4,-1
   1a0f8:	00e12c23          	sw	a4,24(sp)
   1a0fc:	e84ff06f          	jal	zero,19780 <__gdtoa+0xc48>
   1a100:	04012c23          	sw	zero,88(sp)
   1a104:	c4cff06f          	jal	zero,19550 <__gdtoa+0xa18>
   1a108:	00100793          	addi	a5,zero,1
   1a10c:	04f12c23          	sw	a5,88(sp)
   1a110:	c40ff06f          	jal	zero,19550 <__gdtoa+0xa18>
   1a114:	03c12683          	lw	a3,60(sp)
   1a118:	04412603          	lw	a2,68(sp)
   1a11c:	02e12e23          	sw	a4,60(sp)
   1a120:	40d706b3          	sub	a3,a4,a3
   1a124:	00d606b3          	add	a3,a2,a3
   1a128:	04d12223          	sw	a3,68(sp)
   1a12c:	02412683          	lw	a3,36(sp)
   1a130:	02412603          	lw	a2,36(sp)
   1a134:	03812703          	lw	a4,56(sp)
   1a138:	08d12623          	sw	a3,140(sp)
   1a13c:	03012683          	lw	a3,48(sp)
   1a140:	00c709b3          	add	s3,a4,a2
   1a144:	00000a13          	addi	s4,zero,0
   1a148:	00c686b3          	add	a3,a3,a2
   1a14c:	02d12823          	sw	a3,48(sp)
   1a150:	ca4ff06f          	jal	zero,195f4 <__gdtoa+0xabc>
   1a154:	00090593          	addi	a1,s2,0
   1a158:	000a0613          	addi	a2,s4,0
   1a15c:	000d8513          	addi	a0,s11,0
   1a160:	04f12023          	sw	a5,64(sp)
   1a164:	03012a23          	sw	a6,52(sp)
   1a168:	318010ef          	jal	ra,1b480 <__pow5mult>
   1a16c:	00050913          	addi	s2,a0,0
   1a170:	e8050e63          	beq	a0,zero,1980c <__gdtoa+0xcd4>
   1a174:	00050593          	addi	a1,a0,0
   1a178:	00040613          	addi	a2,s0,0
   1a17c:	000d8513          	addi	a0,s11,0
   1a180:	0b4010ef          	jal	ra,1b234 <__multiply>
   1a184:	e8050463          	beq	a0,zero,1980c <__gdtoa+0xcd4>
   1a188:	00040593          	addi	a1,s0,0
   1a18c:	04a12823          	sw	a0,80(sp)
   1a190:	000d8513          	addi	a0,s11,0
   1a194:	371000ef          	jal	ra,1ad04 <_Bfree>
   1a198:	03c12703          	lw	a4,60(sp)
   1a19c:	05012403          	lw	s0,80(sp)
   1a1a0:	03412803          	lw	a6,52(sp)
   1a1a4:	414707b3          	sub	a5,a4,s4
   1a1a8:	02f12e23          	sw	a5,60(sp)
   1a1ac:	00078713          	addi	a4,a5,0
   1a1b0:	04012783          	lw	a5,64(sp)
   1a1b4:	cc070e63          	beq	a4,zero,19690 <__gdtoa+0xb58>
   1a1b8:	cb0ff06f          	jal	zero,19668 <__gdtoa+0xb30>
   1a1bc:	02412683          	lw	a3,36(sp)
   1a1c0:	06012703          	lw	a4,96(sp)
   1a1c4:	9e068463          	beq	a3,zero,193ac <__gdtoa+0x874>
   1a1c8:	04812683          	lw	a3,72(sp)
   1a1cc:	a6d05a63          	bge	zero,a3,19440 <__gdtoa+0x908>
   1a1d0:	00070513          	addi	a0,a4,0
   1a1d4:	8381a603          	lw	a2,-1992(gp) # 706f0 <__SDATA_BEGIN__+0x38>
   1a1d8:	83c1a683          	lw	a3,-1988(gp) # 706f4 <__SDATA_BEGIN__+0x3c>
   1a1dc:	000a0593          	addi	a1,s4,0
   1a1e0:	06f12023          	sw	a5,96(sp)
   1a1e4:	04d050ef          	jal	ra,1fa30 <__muldf3>
   1a1e8:	8401a603          	lw	a2,-1984(gp) # 706f8 <__SDATA_BEGIN__+0x40>
   1a1ec:	8441a683          	lw	a3,-1980(gp) # 706fc <__SDATA_BEGIN__+0x44>
   1a1f0:	00050a93          	addi	s5,a0,0
   1a1f4:	00058b13          	addi	s6,a1,0
   1a1f8:	04a12823          	sw	a0,80(sp)
   1a1fc:	00058a13          	addi	s4,a1,0
   1a200:	031050ef          	jal	ra,1fa30 <__muldf3>
   1a204:	8481a603          	lw	a2,-1976(gp) # 70700 <__SDATA_BEGIN__+0x48>
   1a208:	84c1a683          	lw	a3,-1972(gp) # 70704 <__SDATA_BEGIN__+0x4c>
   1a20c:	7ec040ef          	jal	ra,1e9f8 <__adddf3>
   1a210:	04812783          	lw	a5,72(sp)
   1a214:	fcc00737          	lui	a4,0xfcc00
   1a218:	00b70333          	add	t1,a4,a1
   1a21c:	04f12023          	sw	a5,64(sp)
   1a220:	fff00793          	addi	a5,zero,-1
   1a224:	06f12623          	sw	a5,108(sp)
   1a228:	00050993          	addi	s3,a0,0
   1a22c:	06012783          	lw	a5,96(sp)
   1a230:	ea5fe06f          	jal	zero,190d4 <__gdtoa+0x59c>
   1a234:	00170613          	addi	a2,a4,1 # fcc00001 <__BSS_END__+0xfcaebc69>
   1a238:	03900693          	addi	a3,zero,57
   1a23c:	00090893          	addi	a7,s2,0
   1a240:	00060493          	addi	s1,a2,0
   1a244:	000a0913          	addi	s2,s4,0
   1a248:	00d70023          	sb	a3,0(a4)
   1a24c:	03900613          	addi	a2,zero,57
   1a250:	0080006f          	jal	zero,1a258 <__gdtoa+0x1720>
   1a254:	18978663          	beq	a5,s1,1a3e0 <__gdtoa+0x18a8>
   1a258:	fff4c683          	lbu	a3,-1(s1)
   1a25c:	00048993          	addi	s3,s1,0
   1a260:	fff48493          	addi	s1,s1,-1
   1a264:	fec688e3          	beq	a3,a2,1a254 <__gdtoa+0x171c>
   1a268:	00168693          	addi	a3,a3,1
   1a26c:	00d48023          	sb	a3,0(s1)
   1a270:	02000d13          	addi	s10,zero,32
   1a274:	af1ff06f          	jal	zero,19d64 <__gdtoa+0x122c>
   1a278:	00090593          	addi	a1,s2,0
   1a27c:	000d8513          	addi	a0,s11,0
   1a280:	02f12623          	sw	a5,44(sp)
   1a284:	02612023          	sw	t1,32(sp)
   1a288:	01012423          	sw	a6,8(sp)
   1a28c:	35c010ef          	jal	ra,1b5e8 <__lshift>
   1a290:	00812803          	lw	a6,8(sp)
   1a294:	02012303          	lw	t1,32(sp)
   1a298:	02c12783          	lw	a5,44(sp)
   1a29c:	00050913          	addi	s2,a0,0
   1a2a0:	90051ee3          	bne	a0,zero,19bbc <__gdtoa+0x1084>
   1a2a4:	d68ff06f          	jal	zero,1980c <__gdtoa+0xcd4>
   1a2a8:	000a0593          	addi	a1,s4,0
   1a2ac:	995ff06f          	jal	zero,19c40 <__gdtoa+0x1108>
   1a2b0:	06c12703          	lw	a4,108(sp)
   1a2b4:	03100913          	addi	s2,zero,49
   1a2b8:	00170713          	addi	a4,a4,1
   1a2bc:	06e12623          	sw	a4,108(sp)
   1a2c0:	808ff06f          	jal	zero,192c8 <__gdtoa+0x790>
   1a2c4:	03100713          	addi	a4,zero,49
   1a2c8:	00e78023          	sb	a4,0(a5)
   1a2cc:	00000593          	addi	a1,zero,0
   1a2d0:	000d8513          	addi	a0,s11,0
   1a2d4:	00178993          	addi	s3,a5,1
   1a2d8:	00f12023          	sw	a5,0(sp)
   1a2dc:	229000ef          	jal	ra,1ad04 <_Bfree>
   1a2e0:	00012783          	lw	a5,0(sp)
   1a2e4:	00200c13          	addi	s8,zero,2
   1a2e8:	02000d13          	addi	s10,zero,32
   1a2ec:	fedfe06f          	jal	zero,192d8 <__gdtoa+0x7a0>
   1a2f0:	00090693          	addi	a3,s2,0
   1a2f4:	00050613          	addi	a2,a0,0
   1a2f8:	00f12423          	sw	a5,8(sp)
   1a2fc:	6fc040ef          	jal	ra,1e9f8 <__adddf3>
   1a300:	00012a03          	lw	s4,0(sp)
   1a304:	00412a83          	lw	s5,4(sp)
   1a308:	00050b13          	addi	s6,a0,0
   1a30c:	000a0613          	addi	a2,s4,0
   1a310:	000a8693          	addi	a3,s5,0
   1a314:	00058b93          	addi	s7,a1,0
   1a318:	568050ef          	jal	ra,1f880 <__gedf2>
   1a31c:	fff9c903          	lbu	s2,-1(s3)
   1a320:	00812783          	lw	a5,8(sp)
   1a324:	12a04c63          	blt	zero,a0,1a45c <__gdtoa+0x1924>
   1a328:	000a0613          	addi	a2,s4,0
   1a32c:	000a8693          	addi	a3,s5,0
   1a330:	000b0513          	addi	a0,s6,0
   1a334:	000b8593          	addi	a1,s7,0
   1a338:	00f12023          	sw	a5,0(sp)
   1a33c:	4c0050ef          	jal	ra,1f7fc <__eqdf2>
   1a340:	00012783          	lw	a5,0(sp)
   1a344:	00051663          	bne	a0,zero,1a350 <__gdtoa+0x1818>
   1a348:	0014f693          	andi	a3,s1,1
   1a34c:	10069863          	bne	a3,zero,1a45c <__gdtoa+0x1924>
   1a350:	01812703          	lw	a4,24(sp)
   1a354:	00098693          	addi	a3,s3,0
   1a358:	01000d13          	addi	s10,zero,16
   1a35c:	06e12623          	sw	a4,108(sp)
   1a360:	03000593          	addi	a1,zero,48
   1a364:	fff6c703          	lbu	a4,-1(a3)
   1a368:	00068993          	addi	s3,a3,0
   1a36c:	fff68693          	addi	a3,a3,-1
   1a370:	feb70ae3          	beq	a4,a1,1a364 <__gdtoa+0x182c>
   1a374:	06c12703          	lw	a4,108(sp)
   1a378:	00170c13          	addi	s8,a4,1
   1a37c:	f5dfe06f          	jal	zero,192d8 <__gdtoa+0x7a0>
   1a380:	00492583          	lw	a1,4(s2)
   1a384:	000d8513          	addi	a0,s11,0
   1a388:	02f12623          	sw	a5,44(sp)
   1a38c:	02612023          	sw	t1,32(sp)
   1a390:	01012423          	sw	a6,8(sp)
   1a394:	0c5000ef          	jal	ra,1ac58 <_Balloc>
   1a398:	00050493          	addi	s1,a0,0
   1a39c:	c6050863          	beq	a0,zero,1980c <__gdtoa+0xcd4>
   1a3a0:	01092603          	lw	a2,16(s2)
   1a3a4:	00c90593          	addi	a1,s2,12
   1a3a8:	00c50513          	addi	a0,a0,12
   1a3ac:	00260613          	addi	a2,a2,2
   1a3b0:	00261613          	slli	a2,a2,0x2
   1a3b4:	834fe0ef          	jal	ra,183e8 <memcpy>
   1a3b8:	00048593          	addi	a1,s1,0
   1a3bc:	000d8513          	addi	a0,s11,0
   1a3c0:	00100613          	addi	a2,zero,1
   1a3c4:	224010ef          	jal	ra,1b5e8 <__lshift>
   1a3c8:	00812803          	lw	a6,8(sp)
   1a3cc:	02012303          	lw	t1,32(sp)
   1a3d0:	02c12783          	lw	a5,44(sp)
   1a3d4:	00050a13          	addi	s4,a0,0
   1a3d8:	fe051863          	bne	a0,zero,19bc8 <__gdtoa+0x1090>
   1a3dc:	c30ff06f          	jal	zero,1980c <__gdtoa+0xcd4>
   1a3e0:	01812703          	lw	a4,24(sp)
   1a3e4:	03100693          	addi	a3,zero,49
   1a3e8:	00d78023          	sb	a3,0(a5)
   1a3ec:	00170713          	addi	a4,a4,1
   1a3f0:	00e12c23          	sw	a4,24(sp)
   1a3f4:	02000d13          	addi	s10,zero,32
   1a3f8:	96dff06f          	jal	zero,19d64 <__gdtoa+0x122c>
   1a3fc:	00040593          	addi	a1,s0,0
   1a400:	00100613          	addi	a2,zero,1
   1a404:	000d8513          	addi	a0,s11,0
   1a408:	00f12a23          	sw	a5,20(sp)
   1a40c:	00612023          	sw	t1,0(sp)
   1a410:	01112423          	sw	a7,8(sp)
   1a414:	1d4010ef          	jal	ra,1b5e8 <__lshift>
   1a418:	00050413          	addi	s0,a0,0
   1a41c:	be050863          	beq	a0,zero,1980c <__gdtoa+0xcd4>
   1a420:	00012583          	lw	a1,0(sp)
   1a424:	34c010ef          	jal	ra,1b770 <__mcmp>
   1a428:	00012303          	lw	t1,0(sp)
   1a42c:	00812883          	lw	a7,8(sp)
   1a430:	01412783          	lw	a5,20(sp)
   1a434:	e0a04ce3          	blt	zero,a0,1a24c <__gdtoa+0x1714>
   1a438:	00051663          	bne	a0,zero,1a444 <__gdtoa+0x190c>
   1a43c:	0019f993          	andi	s3,s3,1
   1a440:	e00996e3          	bne	s3,zero,1a24c <__gdtoa+0x1714>
   1a444:	01042683          	lw	a3,16(s0)
   1a448:	00100713          	addi	a4,zero,1
   1a44c:	01000d13          	addi	s10,zero,16
   1a450:	c6d74ae3          	blt	a4,a3,1a0c4 <__gdtoa+0x158c>
   1a454:	01442703          	lw	a4,20(s0)
   1a458:	c65ff06f          	jal	zero,1a0bc <__gdtoa+0x1584>
   1a45c:	01812703          	lw	a4,24(sp)
   1a460:	06e12623          	sw	a4,108(sp)
   1a464:	e41fe06f          	jal	zero,192a4 <__gdtoa+0x76c>
   1a468:	07012783          	lw	a5,112(sp)
   1a46c:	00040a13          	addi	s4,s0,0
   1a470:	000c0413          	addi	s0,s8,0
   1a474:	00000693          	addi	a3,zero,0
   1a478:	000a0513          	addi	a0,s4,0
   1a47c:	000b8593          	addi	a1,s7,0
   1a480:	00000613          	addi	a2,zero,0
   1a484:	00f12023          	sw	a5,0(sp)
   1a488:	374050ef          	jal	ra,1f7fc <__eqdf2>
   1a48c:	06c12783          	lw	a5,108(sp)
   1a490:	00a036b3          	sltu	a3,zero,a0
   1a494:	00469d13          	slli	s10,a3,0x4
   1a498:	00178c13          	addi	s8,a5,1
   1a49c:	00012783          	lw	a5,0(sp)
   1a4a0:	e39fe06f          	jal	zero,192d8 <__gdtoa+0x7a0>
   1a4a4:	00812803          	lw	a6,8(sp)
   1a4a8:	00098a13          	addi	s4,s3,0
   1a4ac:	03012783          	lw	a5,48(sp)
   1a4b0:	000a8993          	addi	s3,s5,0
   1a4b4:	000b0713          	addi	a4,s6,0
   1a4b8:	000b8313          	addi	t1,s7,0
   1a4bc:	14080c63          	beq	a6,zero,1a614 <__gdtoa+0x1adc>
   1a4c0:	01042603          	lw	a2,16(s0)
   1a4c4:	00100693          	addi	a3,zero,1
   1a4c8:	24c6de63          	bge	a3,a2,1a724 <__gdtoa+0x1bec>
   1a4cc:	00200693          	addi	a3,zero,2
   1a4d0:	26d80263          	beq	a6,a3,1a734 <__gdtoa+0x1bfc>
   1a4d4:	00090b13          	addi	s6,s2,0
   1a4d8:	000a0493          	addi	s1,s4,0
   1a4dc:	00070913          	addi	s2,a4,0
   1a4e0:	00030a93          	addi	s5,t1,0
   1a4e4:	00078b93          	addi	s7,a5,0
   1a4e8:	0240006f          	jal	zero,1a50c <__gdtoa+0x19d4>
   1a4ec:	03d000ef          	jal	ra,1ad28 <__multadd>
   1a4f0:	000a8593          	addi	a1,s5,0
   1a4f4:	00050413          	addi	s0,a0,0
   1a4f8:	00190913          	addi	s2,s2,1
   1a4fc:	b0050863          	beq	a0,zero,1980c <__gdtoa+0xcd4>
   1a500:	400000ef          	jal	ra,1a900 <__quorem_D2A>
   1a504:	00098493          	addi	s1,s3,0
   1a508:	03050993          	addi	s3,a0,48
   1a50c:	00048593          	addi	a1,s1,0
   1a510:	000a8513          	addi	a0,s5,0
   1a514:	25c010ef          	jal	ra,1b770 <__mcmp>
   1a518:	00000693          	addi	a3,zero,0
   1a51c:	00a00613          	addi	a2,zero,10
   1a520:	20a05e63          	bge	zero,a0,1a73c <__gdtoa+0x1c04>
   1a524:	01390023          	sb	s3,0(s2)
   1a528:	00048593          	addi	a1,s1,0
   1a52c:	000d8513          	addi	a0,s11,0
   1a530:	7f8000ef          	jal	ra,1ad28 <__multadd>
   1a534:	00050993          	addi	s3,a0,0
   1a538:	00000693          	addi	a3,zero,0
   1a53c:	00a00613          	addi	a2,zero,10
   1a540:	00040593          	addi	a1,s0,0
   1a544:	000d8513          	addi	a0,s11,0
   1a548:	ac098263          	beq	s3,zero,1980c <__gdtoa+0xcd4>
   1a54c:	fa9b10e3          	bne	s6,s1,1a4ec <__gdtoa+0x19b4>
   1a550:	00098b13          	addi	s6,s3,0
   1a554:	f99ff06f          	jal	zero,1a4ec <__gdtoa+0x19b4>
   1a558:	05c12703          	lw	a4,92(sp)
   1a55c:	07812903          	lw	s2,120(sp)
   1a560:	07c12483          	lw	s1,124(sp)
   1a564:	04e12823          	sw	a4,80(sp)
   1a568:	03412703          	lw	a4,52(sp)
   1a56c:	07012783          	lw	a5,112(sp)
   1a570:	07412883          	lw	a7,116(sp)
   1a574:	06812a03          	lw	s4,104(sp)
   1a578:	000c0413          	addi	s0,s8,0
   1a57c:	00000813          	addi	a6,zero,0
   1a580:	00074463          	blt	a4,zero,1a588 <__gdtoa+0x1a50>
   1a584:	ee9fe06f          	jal	zero,1946c <__gdtoa+0x934>
   1a588:	ff1fe06f          	jal	zero,19578 <__gdtoa+0xa40>
   1a58c:	00000613          	addi	a2,zero,0
   1a590:	00000693          	addi	a3,zero,0
   1a594:	00088513          	addi	a0,a7,0
   1a598:	000e8593          	addi	a1,t4,0
   1a59c:	00f12023          	sw	a5,0(sp)
   1a5a0:	25c050ef          	jal	ra,1f7fc <__eqdf2>
   1a5a4:	00a03633          	sltu	a2,zero,a0
   1a5a8:	00012783          	lw	a5,0(sp)
   1a5ac:	00098693          	addi	a3,s3,0
   1a5b0:	00461d13          	slli	s10,a2,0x4
   1a5b4:	dadff06f          	jal	zero,1a360 <__gdtoa+0x1828>
   1a5b8:	00098713          	addi	a4,s3,0
   1a5bc:	00090893          	addi	a7,s2,0
   1a5c0:	00812803          	lw	a6,8(sp)
   1a5c4:	03012783          	lw	a5,48(sp)
   1a5c8:	000a8993          	addi	s3,s5,0
   1a5cc:	00068493          	addi	s1,a3,0
   1a5d0:	000b8313          	addi	t1,s7,0
   1a5d4:	00070913          	addi	s2,a4,0
   1a5d8:	ac5ff06f          	jal	zero,1a09c <__gdtoa+0x1564>
   1a5dc:	03900693          	addi	a3,zero,57
   1a5e0:	03012783          	lw	a5,48(sp)
   1a5e4:	00098a13          	addi	s4,s3,0
   1a5e8:	000b0713          	addi	a4,s6,0
   1a5ec:	000b8313          	addi	t1,s7,0
   1a5f0:	00048613          	addi	a2,s1,0
   1a5f4:	c4da82e3          	beq	s5,a3,1a238 <__gdtoa+0x1700>
   1a5f8:	001a8993          	addi	s3,s5,1
   1a5fc:	013b0023          	sb	s3,0(s6)
   1a600:	00090893          	addi	a7,s2,0
   1a604:	00048993          	addi	s3,s1,0
   1a608:	000a0913          	addi	s2,s4,0
   1a60c:	02000d13          	addi	s10,zero,32
   1a610:	f54ff06f          	jal	zero,19d64 <__gdtoa+0x122c>
   1a614:	04b05863          	bge	zero,a1,1a664 <__gdtoa+0x1b2c>
   1a618:	00040593          	addi	a1,s0,0
   1a61c:	00100613          	addi	a2,zero,1
   1a620:	000d8513          	addi	a0,s11,0
   1a624:	00f12a23          	sw	a5,20(sp)
   1a628:	00612023          	sw	t1,0(sp)
   1a62c:	00e12423          	sw	a4,8(sp)
   1a630:	7b9000ef          	jal	ra,1b5e8 <__lshift>
   1a634:	00050413          	addi	s0,a0,0
   1a638:	9c050a63          	beq	a0,zero,1980c <__gdtoa+0xcd4>
   1a63c:	00012583          	lw	a1,0(sp)
   1a640:	130010ef          	jal	ra,1b770 <__mcmp>
   1a644:	00012303          	lw	t1,0(sp)
   1a648:	00812703          	lw	a4,8(sp)
   1a64c:	01412783          	lw	a5,20(sp)
   1a650:	10a05a63          	bge	zero,a0,1a764 <__gdtoa+0x1c2c>
   1a654:	03900693          	addi	a3,zero,57
   1a658:	bcd98ee3          	beq	s3,a3,1a234 <__gdtoa+0x16fc>
   1a65c:	031c0993          	addi	s3,s8,49
   1a660:	02000813          	addi	a6,zero,32
   1a664:	01042603          	lw	a2,16(s0)
   1a668:	00100693          	addi	a3,zero,1
   1a66c:	01000d13          	addi	s10,zero,16
   1a670:	eec6c263          	blt	a3,a2,19d54 <__gdtoa+0x121c>
   1a674:	01442683          	lw	a3,20(s0)
   1a678:	ec069e63          	bne	a3,zero,19d54 <__gdtoa+0x121c>
   1a67c:	00080d13          	addi	s10,a6,0
   1a680:	ed4ff06f          	jal	zero,19d54 <__gdtoa+0x121c>
   1a684:	02412703          	lw	a4,36(sp)
   1a688:	03c12683          	lw	a3,60(sp)
   1a68c:	fff70713          	addi	a4,a4,-1
   1a690:	a8e6c2e3          	blt	a3,a4,1a114 <__gdtoa+0x15dc>
   1a694:	02412603          	lw	a2,36(sp)
   1a698:	03012683          	lw	a3,48(sp)
   1a69c:	08c12623          	sw	a2,140(sp)
   1a6a0:	00c686b3          	add	a3,a3,a2
   1a6a4:	02d12823          	sw	a3,48(sp)
   1a6a8:	03c12683          	lw	a3,60(sp)
   1a6ac:	40e68a33          	sub	s4,a3,a4
   1a6b0:	03812703          	lw	a4,56(sp)
   1a6b4:	00c709b3          	add	s3,a4,a2
   1a6b8:	f3dfe06f          	jal	zero,195f4 <__gdtoa+0xabc>
   1a6bc:	00090593          	addi	a1,s2,0
   1a6c0:	00000693          	addi	a3,zero,0
   1a6c4:	00a00613          	addi	a2,zero,10
   1a6c8:	000d8513          	addi	a0,s11,0
   1a6cc:	65c000ef          	jal	ra,1ad28 <__multadd>
   1a6d0:	00050913          	addi	s2,a0,0
   1a6d4:	92050c63          	beq	a0,zero,1980c <__gdtoa+0xcd4>
   1a6d8:	04812703          	lw	a4,72(sp)
   1a6dc:	02012803          	lw	a6,32(sp)
   1a6e0:	02412303          	lw	t1,36(sp)
   1a6e4:	02c12783          	lw	a5,44(sp)
   1a6e8:	00e04863          	blt	zero,a4,1a6f8 <__gdtoa+0x1bc0>
   1a6ec:	00012703          	lw	a4,0(sp)
   1a6f0:	00372713          	slti	a4,a4,3
   1a6f4:	90070ce3          	beq	a4,zero,1a00c <__gdtoa+0x14d4>
   1a6f8:	04812703          	lw	a4,72(sp)
   1a6fc:	02e12223          	sw	a4,36(sp)
   1a700:	cb0ff06f          	jal	zero,19bb0 <__gdtoa+0x1078>
   1a704:	02412683          	lw	a3,36(sp)
   1a708:	08e12623          	sw	a4,140(sp)
   1a70c:	03012703          	lw	a4,48(sp)
   1a710:	00d70733          	add	a4,a4,a3
   1a714:	02e12823          	sw	a4,48(sp)
   1a718:	03812703          	lw	a4,56(sp)
   1a71c:	00d709b3          	add	s3,a4,a3
   1a720:	ed5fe06f          	jal	zero,195f4 <__gdtoa+0xabc>
   1a724:	01442683          	lw	a3,20(s0)
   1a728:	da0692e3          	bne	a3,zero,1a4cc <__gdtoa+0x1994>
   1a72c:	eeb046e3          	blt	zero,a1,1a618 <__gdtoa+0x1ae0>
   1a730:	e24ff06f          	jal	zero,19d54 <__gdtoa+0x121c>
   1a734:	01000d13          	addi	s10,zero,16
   1a738:	e1cff06f          	jal	zero,19d54 <__gdtoa+0x121c>
   1a73c:	03900693          	addi	a3,zero,57
   1a740:	00090713          	addi	a4,s2,0
   1a744:	00048a13          	addi	s4,s1,0
   1a748:	000b0913          	addi	s2,s6,0
   1a74c:	000a8313          	addi	t1,s5,0
   1a750:	000b8793          	addi	a5,s7,0
   1a754:	aed980e3          	beq	s3,a3,1a234 <__gdtoa+0x16fc>
   1a758:	00198993          	addi	s3,s3,1
   1a75c:	02000d13          	addi	s10,zero,32
   1a760:	df4ff06f          	jal	zero,19d54 <__gdtoa+0x121c>
   1a764:	00051663          	bne	a0,zero,1a770 <__gdtoa+0x1c38>
   1a768:	0019f693          	andi	a3,s3,1
   1a76c:	ee0694e3          	bne	a3,zero,1a654 <__gdtoa+0x1b1c>
   1a770:	02000813          	addi	a6,zero,32
   1a774:	ef1ff06f          	jal	zero,1a664 <__gdtoa+0x1b2c>
   1a778:	01042603          	lw	a2,16(s0)
   1a77c:	00100693          	addi	a3,zero,1
   1a780:	01000d13          	addi	s10,zero,16
   1a784:	dcc6c863          	blt	a3,a2,19d54 <__gdtoa+0x121c>
   1a788:	01442683          	lw	a3,20(s0)
   1a78c:	00d036b3          	sltu	a3,zero,a3
   1a790:	00469d13          	slli	s10,a3,0x4
   1a794:	dc0ff06f          	jal	zero,19d54 <__gdtoa+0x121c>
   1a798:	01812703          	lw	a4,24(sp)
   1a79c:	00170c13          	addi	s8,a4,1
   1a7a0:	b39fe06f          	jal	zero,192d8 <__gdtoa+0x7a0>

0001a7a4 <__rv_alloc_D2A.part.0>:
   1a7a4:	000236b7          	lui	a3,0x23
   1a7a8:	00023537          	lui	a0,0x23
   1a7ac:	ff010113          	addi	sp,sp,-16
   1a7b0:	40468693          	addi	a3,a3,1028 # 23404 <__clzsi2+0xfc>
   1a7b4:	41850513          	addi	a0,a0,1048 # 23418 <__clzsi2+0x110>
   1a7b8:	00000613          	addi	a2,zero,0
   1a7bc:	03900593          	addi	a1,zero,57
   1a7c0:	00112623          	sw	ra,12(sp)
   1a7c4:	2f4020ef          	jal	ra,1cab8 <__assert_func>

0001a7c8 <__rv_alloc_D2A>:
   1a7c8:	ff010113          	addi	sp,sp,-16
   1a7cc:	00812423          	sw	s0,8(sp)
   1a7d0:	00112623          	sw	ra,12(sp)
   1a7d4:	01700693          	addi	a3,zero,23
   1a7d8:	00050413          	addi	s0,a0,0
   1a7dc:	00100713          	addi	a4,zero,1
   1a7e0:	00400793          	addi	a5,zero,4
   1a7e4:	04b6f063          	bgeu	a3,a1,1a824 <__rv_alloc_D2A+0x5c>
   1a7e8:	00179793          	slli	a5,a5,0x1
   1a7ec:	01478693          	addi	a3,a5,20
   1a7f0:	00070613          	addi	a2,a4,0
   1a7f4:	00170713          	addi	a4,a4,1
   1a7f8:	fed5f8e3          	bgeu	a1,a3,1a7e8 <__rv_alloc_D2A+0x20>
   1a7fc:	00060593          	addi	a1,a2,0
   1a800:	02c42e23          	sw	a2,60(s0)
   1a804:	00040513          	addi	a0,s0,0
   1a808:	450000ef          	jal	ra,1ac58 <_Balloc>
   1a80c:	02050263          	beq	a0,zero,1a830 <__rv_alloc_D2A+0x68>
   1a810:	00c12083          	lw	ra,12(sp)
   1a814:	02a42c23          	sw	a0,56(s0)
   1a818:	00812403          	lw	s0,8(sp)
   1a81c:	01010113          	addi	sp,sp,16
   1a820:	00008067          	jalr	zero,0(ra)
   1a824:	02052e23          	sw	zero,60(a0)
   1a828:	00000593          	addi	a1,zero,0
   1a82c:	fd9ff06f          	jal	zero,1a804 <__rv_alloc_D2A+0x3c>
   1a830:	f75ff0ef          	jal	ra,1a7a4 <__rv_alloc_D2A.part.0>

0001a834 <__nrv_alloc_D2A>:
   1a834:	fe010113          	addi	sp,sp,-32
   1a838:	00812c23          	sw	s0,24(sp)
   1a83c:	00912a23          	sw	s1,20(sp)
   1a840:	00112e23          	sw	ra,28(sp)
   1a844:	01700813          	addi	a6,zero,23
   1a848:	00050493          	addi	s1,a0,0
   1a84c:	00058413          	addi	s0,a1,0
   1a850:	00100713          	addi	a4,zero,1
   1a854:	00400793          	addi	a5,zero,4
   1a858:	06d87c63          	bgeu	a6,a3,1a8d0 <__nrv_alloc_D2A+0x9c>
   1a85c:	00179793          	slli	a5,a5,0x1
   1a860:	01478513          	addi	a0,a5,20
   1a864:	00070593          	addi	a1,a4,0
   1a868:	00170713          	addi	a4,a4,1
   1a86c:	fea6f8e3          	bgeu	a3,a0,1a85c <__nrv_alloc_D2A+0x28>
   1a870:	02b4ae23          	sw	a1,60(s1)
   1a874:	00048513          	addi	a0,s1,0
   1a878:	00c12623          	sw	a2,12(sp)
   1a87c:	3dc000ef          	jal	ra,1ac58 <_Balloc>
   1a880:	00c12603          	lw	a2,12(sp)
   1a884:	06050063          	beq	a0,zero,1a8e4 <__nrv_alloc_D2A+0xb0>
   1a888:	02a4ac23          	sw	a0,56(s1)
   1a88c:	00044783          	lbu	a5,0(s0)
   1a890:	00f50023          	sb	a5,0(a0)
   1a894:	04078463          	beq	a5,zero,1a8dc <__nrv_alloc_D2A+0xa8>
   1a898:	00140593          	addi	a1,s0,1
   1a89c:	00050793          	addi	a5,a0,0
   1a8a0:	0005c703          	lbu	a4,0(a1)
   1a8a4:	00158593          	addi	a1,a1,1
   1a8a8:	00178793          	addi	a5,a5,1
   1a8ac:	00e78023          	sb	a4,0(a5)
   1a8b0:	fe0718e3          	bne	a4,zero,1a8a0 <__nrv_alloc_D2A+0x6c>
   1a8b4:	00060463          	beq	a2,zero,1a8bc <__nrv_alloc_D2A+0x88>
   1a8b8:	00f62023          	sw	a5,0(a2)
   1a8bc:	01c12083          	lw	ra,28(sp)
   1a8c0:	01812403          	lw	s0,24(sp)
   1a8c4:	01412483          	lw	s1,20(sp)
   1a8c8:	02010113          	addi	sp,sp,32
   1a8cc:	00008067          	jalr	zero,0(ra)
   1a8d0:	02052e23          	sw	zero,60(a0)
   1a8d4:	00000593          	addi	a1,zero,0
   1a8d8:	f9dff06f          	jal	zero,1a874 <__nrv_alloc_D2A+0x40>
   1a8dc:	00050793          	addi	a5,a0,0
   1a8e0:	fd5ff06f          	jal	zero,1a8b4 <__nrv_alloc_D2A+0x80>
   1a8e4:	ec1ff0ef          	jal	ra,1a7a4 <__rv_alloc_D2A.part.0>

0001a8e8 <__freedtoa>:
   1a8e8:	03c52703          	lw	a4,60(a0)
   1a8ec:	00100793          	addi	a5,zero,1
   1a8f0:	00e797b3          	sll	a5,a5,a4
   1a8f4:	00f5a423          	sw	a5,8(a1)
   1a8f8:	00e5a223          	sw	a4,4(a1)
   1a8fc:	4080006f          	jal	zero,1ad04 <_Bfree>

0001a900 <__quorem_D2A>:
   1a900:	0105a803          	lw	a6,16(a1)
   1a904:	01052783          	lw	a5,16(a0)
   1a908:	1f07c863          	blt	a5,a6,1aaf8 <__quorem_D2A+0x1f8>
   1a90c:	fff80813          	addi	a6,a6,-1
   1a910:	00281293          	slli	t0,a6,0x2
   1a914:	01458613          	addi	a2,a1,20
   1a918:	00560333          	add	t1,a2,t0
   1a91c:	01450e13          	addi	t3,a0,20
   1a920:	00032783          	lw	a5,0(t1)
   1a924:	005e02b3          	add	t0,t3,t0
   1a928:	0002a703          	lw	a4,0(t0)
   1a92c:	fd010113          	addi	sp,sp,-48
   1a930:	00178793          	addi	a5,a5,1
   1a934:	02112623          	sw	ra,44(sp)
   1a938:	02812423          	sw	s0,40(sp)
   1a93c:	02f758b3          	divu	a7,a4,a5
   1a940:	0cf76863          	bltu	a4,a5,1aa10 <__quorem_D2A+0x110>
   1a944:	02912223          	sw	s1,36(sp)
   1a948:	00060f93          	addi	t6,a2,0
   1a94c:	000e0f13          	addi	t5,t3,0
   1a950:	00000493          	addi	s1,zero,0
   1a954:	00000413          	addi	s0,zero,0
   1a958:	000fa783          	lw	a5,0(t6)
   1a95c:	000f2e83          	lw	t4,0(t5)
   1a960:	004f0f13          	addi	t5,t5,4
   1a964:	01079693          	slli	a3,a5,0x10
   1a968:	0106d693          	srli	a3,a3,0x10
   1a96c:	0107d793          	srli	a5,a5,0x10
   1a970:	010e9713          	slli	a4,t4,0x10
   1a974:	010ed393          	srli	t2,t4,0x10
   1a978:	01075713          	srli	a4,a4,0x10
   1a97c:	004f8f93          	addi	t6,t6,4
   1a980:	031686b3          	mul	a3,a3,a7
   1a984:	031787b3          	mul	a5,a5,a7
   1a988:	009686b3          	add	a3,a3,s1
   1a98c:	01069e93          	slli	t4,a3,0x10
   1a990:	010ede93          	srli	t4,t4,0x10
   1a994:	0106d693          	srli	a3,a3,0x10
   1a998:	41d70733          	sub	a4,a4,t4
   1a99c:	40870733          	sub	a4,a4,s0
   1a9a0:	01075e93          	srli	t4,a4,0x10
   1a9a4:	001efe93          	andi	t4,t4,1
   1a9a8:	01071713          	slli	a4,a4,0x10
   1a9ac:	00d787b3          	add	a5,a5,a3
   1a9b0:	01079693          	slli	a3,a5,0x10
   1a9b4:	0106d693          	srli	a3,a3,0x10
   1a9b8:	00de86b3          	add	a3,t4,a3
   1a9bc:	0107d493          	srli	s1,a5,0x10
   1a9c0:	40d387b3          	sub	a5,t2,a3
   1a9c4:	01079693          	slli	a3,a5,0x10
   1a9c8:	01075713          	srli	a4,a4,0x10
   1a9cc:	00e6e733          	or	a4,a3,a4
   1a9d0:	0107d793          	srli	a5,a5,0x10
   1a9d4:	feef2e23          	sw	a4,-4(t5)
   1a9d8:	0017f413          	andi	s0,a5,1
   1a9dc:	f7f37ee3          	bgeu	t1,t6,1a958 <__quorem_D2A+0x58>
   1a9e0:	0002a783          	lw	a5,0(t0)
   1a9e4:	10079e63          	bne	a5,zero,1ab00 <__quorem_D2A+0x200>
   1a9e8:	ffc28293          	addi	t0,t0,-4
   1a9ec:	005e6863          	bltu	t3,t0,1a9fc <__quorem_D2A+0xfc>
   1a9f0:	0180006f          	jal	zero,1aa08 <__quorem_D2A+0x108>
   1a9f4:	fff80813          	addi	a6,a6,-1
   1a9f8:	005e7863          	bgeu	t3,t0,1aa08 <__quorem_D2A+0x108>
   1a9fc:	0002a783          	lw	a5,0(t0)
   1aa00:	ffc28293          	addi	t0,t0,-4
   1aa04:	fe0788e3          	beq	a5,zero,1a9f4 <__quorem_D2A+0xf4>
   1aa08:	02412483          	lw	s1,36(sp)
   1aa0c:	01052823          	sw	a6,16(a0)
   1aa10:	01112623          	sw	a7,12(sp)
   1aa14:	01c12e23          	sw	t3,28(sp)
   1aa18:	00612c23          	sw	t1,24(sp)
   1aa1c:	00c12a23          	sw	a2,20(sp)
   1aa20:	01012823          	sw	a6,16(sp)
   1aa24:	00050413          	addi	s0,a0,0
   1aa28:	549000ef          	jal	ra,1b770 <__mcmp>
   1aa2c:	00c12883          	lw	a7,12(sp)
   1aa30:	0a054a63          	blt	a0,zero,1aae4 <__quorem_D2A+0x1e4>
   1aa34:	01c12e03          	lw	t3,28(sp)
   1aa38:	01812303          	lw	t1,24(sp)
   1aa3c:	01412603          	lw	a2,20(sp)
   1aa40:	01012803          	lw	a6,16(sp)
   1aa44:	00188893          	addi	a7,a7,1
   1aa48:	000e0513          	addi	a0,t3,0
   1aa4c:	00000e93          	addi	t4,zero,0
   1aa50:	00052783          	lw	a5,0(a0)
   1aa54:	00062683          	lw	a3,0(a2)
   1aa58:	00450513          	addi	a0,a0,4
   1aa5c:	01079713          	slli	a4,a5,0x10
   1aa60:	01069f13          	slli	t5,a3,0x10
   1aa64:	010f5f13          	srli	t5,t5,0x10
   1aa68:	01075713          	srli	a4,a4,0x10
   1aa6c:	41e70733          	sub	a4,a4,t5
   1aa70:	41d70733          	sub	a4,a4,t4
   1aa74:	0106d593          	srli	a1,a3,0x10
   1aa78:	01075693          	srli	a3,a4,0x10
   1aa7c:	0016f693          	andi	a3,a3,1
   1aa80:	00b686b3          	add	a3,a3,a1
   1aa84:	0107d793          	srli	a5,a5,0x10
   1aa88:	40d787b3          	sub	a5,a5,a3
   1aa8c:	01071713          	slli	a4,a4,0x10
   1aa90:	01079693          	slli	a3,a5,0x10
   1aa94:	01075713          	srli	a4,a4,0x10
   1aa98:	00e6e733          	or	a4,a3,a4
   1aa9c:	00460613          	addi	a2,a2,4
   1aaa0:	0107d793          	srli	a5,a5,0x10
   1aaa4:	fee52e23          	sw	a4,-4(a0)
   1aaa8:	0017fe93          	andi	t4,a5,1
   1aaac:	fac372e3          	bgeu	t1,a2,1aa50 <__quorem_D2A+0x150>
   1aab0:	00281793          	slli	a5,a6,0x2
   1aab4:	00fe07b3          	add	a5,t3,a5
   1aab8:	0007a703          	lw	a4,0(a5)
   1aabc:	02071463          	bne	a4,zero,1aae4 <__quorem_D2A+0x1e4>
   1aac0:	ffc78793          	addi	a5,a5,-4
   1aac4:	00fe6863          	bltu	t3,a5,1aad4 <__quorem_D2A+0x1d4>
   1aac8:	0180006f          	jal	zero,1aae0 <__quorem_D2A+0x1e0>
   1aacc:	fff80813          	addi	a6,a6,-1
   1aad0:	00fe7863          	bgeu	t3,a5,1aae0 <__quorem_D2A+0x1e0>
   1aad4:	0007a703          	lw	a4,0(a5)
   1aad8:	ffc78793          	addi	a5,a5,-4
   1aadc:	fe0708e3          	beq	a4,zero,1aacc <__quorem_D2A+0x1cc>
   1aae0:	01042823          	sw	a6,16(s0)
   1aae4:	02c12083          	lw	ra,44(sp)
   1aae8:	02812403          	lw	s0,40(sp)
   1aaec:	00088513          	addi	a0,a7,0
   1aaf0:	03010113          	addi	sp,sp,48
   1aaf4:	00008067          	jalr	zero,0(ra)
   1aaf8:	00000513          	addi	a0,zero,0
   1aafc:	00008067          	jalr	zero,0(ra)
   1ab00:	02412483          	lw	s1,36(sp)
   1ab04:	f0dff06f          	jal	zero,1aa10 <__quorem_D2A+0x110>

0001ab08 <__rshift_D2A>:
   1ab08:	01052803          	lw	a6,16(a0)
   1ab0c:	4055de13          	srai	t3,a1,0x5
   1ab10:	010e4863          	blt	t3,a6,1ab20 <__rshift_D2A+0x18>
   1ab14:	00052823          	sw	zero,16(a0)
   1ab18:	00052a23          	sw	zero,20(a0)
   1ab1c:	00008067          	jalr	zero,0(ra)
   1ab20:	01450313          	addi	t1,a0,20
   1ab24:	00281613          	slli	a2,a6,0x2
   1ab28:	002e1793          	slli	a5,t3,0x2
   1ab2c:	01f5f593          	andi	a1,a1,31
   1ab30:	00c30633          	add	a2,t1,a2
   1ab34:	00f307b3          	add	a5,t1,a5
   1ab38:	06058263          	beq	a1,zero,1ab9c <__rshift_D2A+0x94>
   1ab3c:	0007a683          	lw	a3,0(a5)
   1ab40:	00478793          	addi	a5,a5,4
   1ab44:	00b6d6b3          	srl	a3,a3,a1
   1ab48:	08c7f863          	bgeu	a5,a2,1abd8 <__rshift_D2A+0xd0>
   1ab4c:	02000e93          	addi	t4,zero,32
   1ab50:	40be8eb3          	sub	t4,t4,a1
   1ab54:	00030893          	addi	a7,t1,0
   1ab58:	0007a703          	lw	a4,0(a5)
   1ab5c:	00488893          	addi	a7,a7,4
   1ab60:	00478793          	addi	a5,a5,4
   1ab64:	01d71733          	sll	a4,a4,t4
   1ab68:	00d76733          	or	a4,a4,a3
   1ab6c:	fee8ae23          	sw	a4,-4(a7)
   1ab70:	ffc7a683          	lw	a3,-4(a5)
   1ab74:	00b6d6b3          	srl	a3,a3,a1
   1ab78:	fec7e0e3          	bltu	a5,a2,1ab58 <__rshift_D2A+0x50>
   1ab7c:	41c80833          	sub	a6,a6,t3
   1ab80:	00281813          	slli	a6,a6,0x2
   1ab84:	01030833          	add	a6,t1,a6
   1ab88:	fed82e23          	sw	a3,-4(a6)
   1ab8c:	ffc80813          	addi	a6,a6,-4
   1ab90:	02068a63          	beq	a3,zero,1abc4 <__rshift_D2A+0xbc>
   1ab94:	00480813          	addi	a6,a6,4
   1ab98:	02c0006f          	jal	zero,1abc4 <__rshift_D2A+0xbc>
   1ab9c:	00030713          	addi	a4,t1,0
   1aba0:	f6c7fae3          	bgeu	a5,a2,1ab14 <__rshift_D2A+0xc>
   1aba4:	0007a683          	lw	a3,0(a5)
   1aba8:	00478793          	addi	a5,a5,4
   1abac:	00470713          	addi	a4,a4,4
   1abb0:	fed72e23          	sw	a3,-4(a4)
   1abb4:	fec7e8e3          	bltu	a5,a2,1aba4 <__rshift_D2A+0x9c>
   1abb8:	41c80833          	sub	a6,a6,t3
   1abbc:	00281813          	slli	a6,a6,0x2
   1abc0:	01030833          	add	a6,t1,a6
   1abc4:	406807b3          	sub	a5,a6,t1
   1abc8:	4027d793          	srai	a5,a5,0x2
   1abcc:	00f52823          	sw	a5,16(a0)
   1abd0:	f46804e3          	beq	a6,t1,1ab18 <__rshift_D2A+0x10>
   1abd4:	00008067          	jalr	zero,0(ra)
   1abd8:	00d52a23          	sw	a3,20(a0)
   1abdc:	f2068ce3          	beq	a3,zero,1ab14 <__rshift_D2A+0xc>
   1abe0:	00030813          	addi	a6,t1,0
   1abe4:	00480813          	addi	a6,a6,4
   1abe8:	fddff06f          	jal	zero,1abc4 <__rshift_D2A+0xbc>

0001abec <__trailz_D2A>:
   1abec:	01052683          	lw	a3,16(a0)
   1abf0:	01450513          	addi	a0,a0,20
   1abf4:	00000793          	addi	a5,zero,0
   1abf8:	00269693          	slli	a3,a3,0x2
   1abfc:	00d506b3          	add	a3,a0,a3
   1ac00:	00d56a63          	bltu	a0,a3,1ac14 <__trailz_D2A+0x28>
   1ac04:	04c0006f          	jal	zero,1ac50 <__trailz_D2A+0x64>
   1ac08:	00450513          	addi	a0,a0,4
   1ac0c:	02078793          	addi	a5,a5,32
   1ac10:	04d57063          	bgeu	a0,a3,1ac50 <__trailz_D2A+0x64>
   1ac14:	00052703          	lw	a4,0(a0)
   1ac18:	fe0708e3          	beq	a4,zero,1ac08 <__trailz_D2A+0x1c>
   1ac1c:	02d57a63          	bgeu	a0,a3,1ac50 <__trailz_D2A+0x64>
   1ac20:	fd010113          	addi	sp,sp,-48
   1ac24:	01c10513          	addi	a0,sp,28
   1ac28:	02112623          	sw	ra,44(sp)
   1ac2c:	00f12623          	sw	a5,12(sp)
   1ac30:	00e12e23          	sw	a4,28(sp)
   1ac34:	418000ef          	jal	ra,1b04c <__lo0bits>
   1ac38:	00c12783          	lw	a5,12(sp)
   1ac3c:	02c12083          	lw	ra,44(sp)
   1ac40:	00a787b3          	add	a5,a5,a0
   1ac44:	00078513          	addi	a0,a5,0
   1ac48:	03010113          	addi	sp,sp,48
   1ac4c:	00008067          	jalr	zero,0(ra)
   1ac50:	00078513          	addi	a0,a5,0
   1ac54:	00008067          	jalr	zero,0(ra)

0001ac58 <_Balloc>:
   1ac58:	04452783          	lw	a5,68(a0)
   1ac5c:	fe010113          	addi	sp,sp,-32
   1ac60:	00112e23          	sw	ra,28(sp)
   1ac64:	00050713          	addi	a4,a0,0
   1ac68:	00058693          	addi	a3,a1,0
   1ac6c:	02078863          	beq	a5,zero,1ac9c <_Balloc+0x44>
   1ac70:	00269613          	slli	a2,a3,0x2
   1ac74:	00c787b3          	add	a5,a5,a2
   1ac78:	0007a503          	lw	a0,0(a5)
   1ac7c:	04050863          	beq	a0,zero,1accc <_Balloc+0x74>
   1ac80:	00052703          	lw	a4,0(a0)
   1ac84:	00e7a023          	sw	a4,0(a5)
   1ac88:	00052823          	sw	zero,16(a0)
   1ac8c:	00052623          	sw	zero,12(a0)
   1ac90:	01c12083          	lw	ra,28(sp)
   1ac94:	02010113          	addi	sp,sp,32
   1ac98:	00008067          	jalr	zero,0(ra)
   1ac9c:	00b12623          	sw	a1,12(sp)
   1aca0:	02100613          	addi	a2,zero,33
   1aca4:	00400593          	addi	a1,zero,4
   1aca8:	00a12423          	sw	a0,8(sp)
   1acac:	671010ef          	jal	ra,1cb1c <_calloc_r>
   1acb0:	00812703          	lw	a4,8(sp)
   1acb4:	00c12683          	lw	a3,12(sp)
   1acb8:	00050793          	addi	a5,a0,0
   1acbc:	04a72223          	sw	a0,68(a4)
   1acc0:	fa0518e3          	bne	a0,zero,1ac70 <_Balloc+0x18>
   1acc4:	00000513          	addi	a0,zero,0
   1acc8:	fc9ff06f          	jal	zero,1ac90 <_Balloc+0x38>
   1accc:	00100593          	addi	a1,zero,1
   1acd0:	00d597b3          	sll	a5,a1,a3
   1acd4:	00578613          	addi	a2,a5,5
   1acd8:	00070513          	addi	a0,a4,0
   1acdc:	00261613          	slli	a2,a2,0x2
   1ace0:	00d12623          	sw	a3,12(sp)
   1ace4:	00f12423          	sw	a5,8(sp)
   1ace8:	635010ef          	jal	ra,1cb1c <_calloc_r>
   1acec:	fc050ce3          	beq	a0,zero,1acc4 <_Balloc+0x6c>
   1acf0:	00c12683          	lw	a3,12(sp)
   1acf4:	00812783          	lw	a5,8(sp)
   1acf8:	00d52223          	sw	a3,4(a0)
   1acfc:	00f52423          	sw	a5,8(a0)
   1ad00:	f89ff06f          	jal	zero,1ac88 <_Balloc+0x30>

0001ad04 <_Bfree>:
   1ad04:	02058063          	beq	a1,zero,1ad24 <_Bfree+0x20>
   1ad08:	0045a703          	lw	a4,4(a1)
   1ad0c:	04452783          	lw	a5,68(a0)
   1ad10:	00271713          	slli	a4,a4,0x2
   1ad14:	00e787b3          	add	a5,a5,a4
   1ad18:	0007a703          	lw	a4,0(a5)
   1ad1c:	00e5a023          	sw	a4,0(a1)
   1ad20:	00b7a023          	sw	a1,0(a5)
   1ad24:	00008067          	jalr	zero,0(ra)

0001ad28 <__multadd>:
   1ad28:	0105ae03          	lw	t3,16(a1)
   1ad2c:	00058e93          	addi	t4,a1,0
   1ad30:	00068313          	addi	t1,a3,0
   1ad34:	01458813          	addi	a6,a1,20
   1ad38:	00000893          	addi	a7,zero,0
   1ad3c:	00082783          	lw	a5,0(a6)
   1ad40:	00480813          	addi	a6,a6,4
   1ad44:	00188893          	addi	a7,a7,1
   1ad48:	01079713          	slli	a4,a5,0x10
   1ad4c:	01075713          	srli	a4,a4,0x10
   1ad50:	0107d693          	srli	a3,a5,0x10
   1ad54:	02c707b3          	mul	a5,a4,a2
   1ad58:	02c686b3          	mul	a3,a3,a2
   1ad5c:	006787b3          	add	a5,a5,t1
   1ad60:	0107d713          	srli	a4,a5,0x10
   1ad64:	01079793          	slli	a5,a5,0x10
   1ad68:	0107d793          	srli	a5,a5,0x10
   1ad6c:	00e686b3          	add	a3,a3,a4
   1ad70:	01069713          	slli	a4,a3,0x10
   1ad74:	00f707b3          	add	a5,a4,a5
   1ad78:	fef82e23          	sw	a5,-4(a6)
   1ad7c:	0106d313          	srli	t1,a3,0x10
   1ad80:	fbc8cee3          	blt	a7,t3,1ad3c <__multadd+0x14>
   1ad84:	02030063          	beq	t1,zero,1ada4 <__multadd+0x7c>
   1ad88:	008ea783          	lw	a5,8(t4)
   1ad8c:	02fe5063          	bge	t3,a5,1adac <__multadd+0x84>
   1ad90:	002e1713          	slli	a4,t3,0x2
   1ad94:	00ee8733          	add	a4,t4,a4
   1ad98:	00672a23          	sw	t1,20(a4)
   1ad9c:	001e0793          	addi	a5,t3,1
   1ada0:	00fea823          	sw	a5,16(t4)
   1ada4:	000e8513          	addi	a0,t4,0
   1ada8:	00008067          	jalr	zero,0(ra)
   1adac:	004ea583          	lw	a1,4(t4)
   1adb0:	fe010113          	addi	sp,sp,-32
   1adb4:	00812c23          	sw	s0,24(sp)
   1adb8:	00158593          	addi	a1,a1,1
   1adbc:	00612423          	sw	t1,8(sp)
   1adc0:	01c12223          	sw	t3,4(sp)
   1adc4:	01d12023          	sw	t4,0(sp)
   1adc8:	00112e23          	sw	ra,28(sp)
   1adcc:	00050413          	addi	s0,a0,0
   1add0:	e89ff0ef          	jal	ra,1ac58 <_Balloc>
   1add4:	00012e83          	lw	t4,0(sp)
   1add8:	00412e03          	lw	t3,4(sp)
   1addc:	00812303          	lw	t1,8(sp)
   1ade0:	00050713          	addi	a4,a0,0
   1ade4:	08050063          	beq	a0,zero,1ae64 <__multadd+0x13c>
   1ade8:	010ea603          	lw	a2,16(t4)
   1adec:	00ce8593          	addi	a1,t4,12
   1adf0:	00c50513          	addi	a0,a0,12
   1adf4:	00260613          	addi	a2,a2,2
   1adf8:	00261613          	slli	a2,a2,0x2
   1adfc:	00612623          	sw	t1,12(sp)
   1ae00:	01c12423          	sw	t3,8(sp)
   1ae04:	01d12223          	sw	t4,4(sp)
   1ae08:	00e12023          	sw	a4,0(sp)
   1ae0c:	ddcfd0ef          	jal	ra,183e8 <memcpy>
   1ae10:	00412e83          	lw	t4,4(sp)
   1ae14:	04442783          	lw	a5,68(s0)
   1ae18:	00812e03          	lw	t3,8(sp)
   1ae1c:	004ea683          	lw	a3,4(t4)
   1ae20:	00c12303          	lw	t1,12(sp)
   1ae24:	002e1713          	slli	a4,t3,0x2
   1ae28:	00269693          	slli	a3,a3,0x2
   1ae2c:	00d787b3          	add	a5,a5,a3
   1ae30:	0007a683          	lw	a3,0(a5)
   1ae34:	01c12083          	lw	ra,28(sp)
   1ae38:	01812403          	lw	s0,24(sp)
   1ae3c:	00dea023          	sw	a3,0(t4)
   1ae40:	01d7a023          	sw	t4,0(a5)
   1ae44:	00012e83          	lw	t4,0(sp)
   1ae48:	001e0793          	addi	a5,t3,1
   1ae4c:	00ee8733          	add	a4,t4,a4
   1ae50:	00672a23          	sw	t1,20(a4)
   1ae54:	00fea823          	sw	a5,16(t4)
   1ae58:	000e8513          	addi	a0,t4,0
   1ae5c:	02010113          	addi	sp,sp,32
   1ae60:	00008067          	jalr	zero,0(ra)
   1ae64:	000236b7          	lui	a3,0x23
   1ae68:	00023537          	lui	a0,0x23
   1ae6c:	40468693          	addi	a3,a3,1028 # 23404 <__clzsi2+0xfc>
   1ae70:	46050513          	addi	a0,a0,1120 # 23460 <__clzsi2+0x158>
   1ae74:	00000613          	addi	a2,zero,0
   1ae78:	0ba00593          	addi	a1,zero,186
   1ae7c:	43d010ef          	jal	ra,1cab8 <__assert_func>

0001ae80 <__s2b>:
   1ae80:	fe010113          	addi	sp,sp,-32
   1ae84:	00812c23          	sw	s0,24(sp)
   1ae88:	01212823          	sw	s2,16(sp)
   1ae8c:	01312623          	sw	s3,12(sp)
   1ae90:	01412423          	sw	s4,8(sp)
   1ae94:	01512223          	sw	s5,4(sp)
   1ae98:	00112e23          	sw	ra,28(sp)
   1ae9c:	00912a23          	sw	s1,20(sp)
   1aea0:	00900793          	addi	a5,zero,9
   1aea4:	00068993          	addi	s3,a3,0
   1aea8:	00060a13          	addi	s4,a2,0
   1aeac:	00050913          	addi	s2,a0,0
   1aeb0:	00058a93          	addi	s5,a1,0
   1aeb4:	00070413          	addi	s0,a4,0
   1aeb8:	0ed7d263          	bge	a5,a3,1af9c <__s2b+0x11c>
   1aebc:	38e397b7          	lui	a5,0x38e39
   1aec0:	e3978793          	addi	a5,a5,-455 # 38e38e39 <__BSS_END__+0x38d24aa1>
   1aec4:	00868693          	addi	a3,a3,8
   1aec8:	02f6b6b3          	mulhu	a3,a3,a5
   1aecc:	00000593          	addi	a1,zero,0
   1aed0:	00100793          	addi	a5,zero,1
   1aed4:	0016d693          	srli	a3,a3,0x1
   1aed8:	00179793          	slli	a5,a5,0x1
   1aedc:	00158593          	addi	a1,a1,1
   1aee0:	fed7cce3          	blt	a5,a3,1aed8 <__s2b+0x58>
   1aee4:	00090513          	addi	a0,s2,0
   1aee8:	d71ff0ef          	jal	ra,1ac58 <_Balloc>
   1aeec:	00050593          	addi	a1,a0,0
   1aef0:	0a050a63          	beq	a0,zero,1afa4 <__s2b+0x124>
   1aef4:	00100793          	addi	a5,zero,1
   1aef8:	00f52823          	sw	a5,16(a0)
   1aefc:	00852a23          	sw	s0,20(a0)
   1af00:	00900793          	addi	a5,zero,9
   1af04:	0947d663          	bge	a5,s4,1af90 <__s2b+0x110>
   1af08:	009a8413          	addi	s0,s5,9
   1af0c:	00040493          	addi	s1,s0,0
   1af10:	014a8ab3          	add	s5,s5,s4
   1af14:	0004c683          	lbu	a3,0(s1)
   1af18:	00a00613          	addi	a2,zero,10
   1af1c:	00090513          	addi	a0,s2,0
   1af20:	fd068693          	addi	a3,a3,-48
   1af24:	00148493          	addi	s1,s1,1
   1af28:	e01ff0ef          	jal	ra,1ad28 <__multadd>
   1af2c:	00050593          	addi	a1,a0,0
   1af30:	ff5492e3          	bne	s1,s5,1af14 <__s2b+0x94>
   1af34:	01440433          	add	s0,s0,s4
   1af38:	ff840413          	addi	s0,s0,-8
   1af3c:	033a5663          	bge	s4,s3,1af68 <__s2b+0xe8>
   1af40:	414984b3          	sub	s1,s3,s4
   1af44:	009404b3          	add	s1,s0,s1
   1af48:	00044683          	lbu	a3,0(s0)
   1af4c:	00a00613          	addi	a2,zero,10
   1af50:	00090513          	addi	a0,s2,0
   1af54:	fd068693          	addi	a3,a3,-48
   1af58:	00140413          	addi	s0,s0,1
   1af5c:	dcdff0ef          	jal	ra,1ad28 <__multadd>
   1af60:	00050593          	addi	a1,a0,0
   1af64:	fe9412e3          	bne	s0,s1,1af48 <__s2b+0xc8>
   1af68:	01c12083          	lw	ra,28(sp)
   1af6c:	01812403          	lw	s0,24(sp)
   1af70:	01412483          	lw	s1,20(sp)
   1af74:	01012903          	lw	s2,16(sp)
   1af78:	00c12983          	lw	s3,12(sp)
   1af7c:	00812a03          	lw	s4,8(sp)
   1af80:	00412a83          	lw	s5,4(sp)
   1af84:	00058513          	addi	a0,a1,0
   1af88:	02010113          	addi	sp,sp,32
   1af8c:	00008067          	jalr	zero,0(ra)
   1af90:	00aa8413          	addi	s0,s5,10
   1af94:	00078a13          	addi	s4,a5,0
   1af98:	fa5ff06f          	jal	zero,1af3c <__s2b+0xbc>
   1af9c:	00000593          	addi	a1,zero,0
   1afa0:	f45ff06f          	jal	zero,1aee4 <__s2b+0x64>
   1afa4:	000236b7          	lui	a3,0x23
   1afa8:	00023537          	lui	a0,0x23
   1afac:	40468693          	addi	a3,a3,1028 # 23404 <__clzsi2+0xfc>
   1afb0:	46050513          	addi	a0,a0,1120 # 23460 <__clzsi2+0x158>
   1afb4:	00000613          	addi	a2,zero,0
   1afb8:	0d300593          	addi	a1,zero,211
   1afbc:	2fd010ef          	jal	ra,1cab8 <__assert_func>

0001afc0 <__hi0bits>:
   1afc0:	00050793          	addi	a5,a0,0
   1afc4:	00010737          	lui	a4,0x10
   1afc8:	00000513          	addi	a0,zero,0
   1afcc:	00e7f663          	bgeu	a5,a4,1afd8 <__hi0bits+0x18>
   1afd0:	01079793          	slli	a5,a5,0x10
   1afd4:	01000513          	addi	a0,zero,16
   1afd8:	01000737          	lui	a4,0x1000
   1afdc:	00e7f663          	bgeu	a5,a4,1afe8 <__hi0bits+0x28>
   1afe0:	00850513          	addi	a0,a0,8
   1afe4:	00879793          	slli	a5,a5,0x8
   1afe8:	10000737          	lui	a4,0x10000
   1afec:	00e7ee63          	bltu	a5,a4,1b008 <__hi0bits+0x48>
   1aff0:	40000737          	lui	a4,0x40000
   1aff4:	02e7fe63          	bgeu	a5,a4,1b030 <__hi0bits+0x70>
   1aff8:	00279713          	slli	a4,a5,0x2
   1affc:	04074463          	blt	a4,zero,1b044 <__hi0bits+0x84>
   1b000:	00350513          	addi	a0,a0,3
   1b004:	00008067          	jalr	zero,0(ra)
   1b008:	00479713          	slli	a4,a5,0x4
   1b00c:	400006b7          	lui	a3,0x40000
   1b010:	00450513          	addi	a0,a0,4
   1b014:	02d77063          	bgeu	a4,a3,1b034 <__hi0bits+0x74>
   1b018:	00679793          	slli	a5,a5,0x6
   1b01c:	0207c463          	blt	a5,zero,1b044 <__hi0bits+0x84>
   1b020:	00179713          	slli	a4,a5,0x1
   1b024:	fc074ee3          	blt	a4,zero,1b000 <__hi0bits+0x40>
   1b028:	02000513          	addi	a0,zero,32
   1b02c:	00008067          	jalr	zero,0(ra)
   1b030:	00078713          	addi	a4,a5,0
   1b034:	fff74713          	xori	a4,a4,-1
   1b038:	01f75713          	srli	a4,a4,0x1f
   1b03c:	00e50533          	add	a0,a0,a4
   1b040:	00008067          	jalr	zero,0(ra)
   1b044:	00250513          	addi	a0,a0,2
   1b048:	00008067          	jalr	zero,0(ra)

0001b04c <__lo0bits>:
   1b04c:	00052783          	lw	a5,0(a0)
   1b050:	0077f713          	andi	a4,a5,7
   1b054:	02070663          	beq	a4,zero,1b080 <__lo0bits+0x34>
   1b058:	0017f693          	andi	a3,a5,1
   1b05c:	00000713          	addi	a4,zero,0
   1b060:	00069c63          	bne	a3,zero,1b078 <__lo0bits+0x2c>
   1b064:	0027f713          	andi	a4,a5,2
   1b068:	0a070e63          	beq	a4,zero,1b124 <__lo0bits+0xd8>
   1b06c:	0017d793          	srli	a5,a5,0x1
   1b070:	00f52023          	sw	a5,0(a0)
   1b074:	00100713          	addi	a4,zero,1
   1b078:	00070513          	addi	a0,a4,0 # 40000000 <__BSS_END__+0x3feebc68>
   1b07c:	00008067          	jalr	zero,0(ra)
   1b080:	01079713          	slli	a4,a5,0x10
   1b084:	01075713          	srli	a4,a4,0x10
   1b088:	04071463          	bne	a4,zero,1b0d0 <__lo0bits+0x84>
   1b08c:	0107d793          	srli	a5,a5,0x10
   1b090:	0ff7f693          	andi	a3,a5,255
   1b094:	01000713          	addi	a4,zero,16
   1b098:	00069663          	bne	a3,zero,1b0a4 <__lo0bits+0x58>
   1b09c:	01800713          	addi	a4,zero,24
   1b0a0:	0087d793          	srli	a5,a5,0x8
   1b0a4:	00f7f693          	andi	a3,a5,15
   1b0a8:	06068263          	beq	a3,zero,1b10c <__lo0bits+0xc0>
   1b0ac:	0037f693          	andi	a3,a5,3
   1b0b0:	04068063          	beq	a3,zero,1b0f0 <__lo0bits+0xa4>
   1b0b4:	0017f693          	andi	a3,a5,1
   1b0b8:	00069663          	bne	a3,zero,1b0c4 <__lo0bits+0x78>
   1b0bc:	00170713          	addi	a4,a4,1
   1b0c0:	0017d793          	srli	a5,a5,0x1
   1b0c4:	00f52023          	sw	a5,0(a0)
   1b0c8:	00070513          	addi	a0,a4,0
   1b0cc:	00008067          	jalr	zero,0(ra)
   1b0d0:	0ff7f713          	andi	a4,a5,255
   1b0d4:	04070263          	beq	a4,zero,1b118 <__lo0bits+0xcc>
   1b0d8:	00f7f713          	andi	a4,a5,15
   1b0dc:	06071663          	bne	a4,zero,1b148 <__lo0bits+0xfc>
   1b0e0:	00400713          	addi	a4,zero,4
   1b0e4:	0047d793          	srli	a5,a5,0x4
   1b0e8:	0037f693          	andi	a3,a5,3
   1b0ec:	fc0694e3          	bne	a3,zero,1b0b4 <__lo0bits+0x68>
   1b0f0:	0027d693          	srli	a3,a5,0x2
   1b0f4:	0016f613          	andi	a2,a3,1
   1b0f8:	04060063          	beq	a2,zero,1b138 <__lo0bits+0xec>
   1b0fc:	00068793          	addi	a5,a3,0 # 40000000 <__BSS_END__+0x3feebc68>
   1b100:	00270713          	addi	a4,a4,2
   1b104:	00f52023          	sw	a5,0(a0)
   1b108:	fc1ff06f          	jal	zero,1b0c8 <__lo0bits+0x7c>
   1b10c:	00470713          	addi	a4,a4,4
   1b110:	0047d793          	srli	a5,a5,0x4
   1b114:	fd5ff06f          	jal	zero,1b0e8 <__lo0bits+0x9c>
   1b118:	00800713          	addi	a4,zero,8
   1b11c:	0087d793          	srli	a5,a5,0x8
   1b120:	f85ff06f          	jal	zero,1b0a4 <__lo0bits+0x58>
   1b124:	0027d793          	srli	a5,a5,0x2
   1b128:	00200713          	addi	a4,zero,2
   1b12c:	00f52023          	sw	a5,0(a0)
   1b130:	00070513          	addi	a0,a4,0
   1b134:	00008067          	jalr	zero,0(ra)
   1b138:	0037d793          	srli	a5,a5,0x3
   1b13c:	00079e63          	bne	a5,zero,1b158 <__lo0bits+0x10c>
   1b140:	02000713          	addi	a4,zero,32
   1b144:	f35ff06f          	jal	zero,1b078 <__lo0bits+0x2c>
   1b148:	0037d793          	srli	a5,a5,0x3
   1b14c:	00300713          	addi	a4,zero,3
   1b150:	00f52023          	sw	a5,0(a0)
   1b154:	f75ff06f          	jal	zero,1b0c8 <__lo0bits+0x7c>
   1b158:	00370713          	addi	a4,a4,3
   1b15c:	00f52023          	sw	a5,0(a0)
   1b160:	f69ff06f          	jal	zero,1b0c8 <__lo0bits+0x7c>

0001b164 <__i2b>:
   1b164:	04452783          	lw	a5,68(a0)
   1b168:	fe010113          	addi	sp,sp,-32
   1b16c:	00112e23          	sw	ra,28(sp)
   1b170:	00050713          	addi	a4,a0,0
   1b174:	00058693          	addi	a3,a1,0
   1b178:	02078863          	beq	a5,zero,1b1a8 <__i2b+0x44>
   1b17c:	0047a503          	lw	a0,4(a5)
   1b180:	06050663          	beq	a0,zero,1b1ec <__i2b+0x88>
   1b184:	00052703          	lw	a4,0(a0)
   1b188:	01c12083          	lw	ra,28(sp)
   1b18c:	00e7a223          	sw	a4,4(a5)
   1b190:	00100793          	addi	a5,zero,1
   1b194:	00052623          	sw	zero,12(a0)
   1b198:	00d52a23          	sw	a3,20(a0)
   1b19c:	00f52823          	sw	a5,16(a0)
   1b1a0:	02010113          	addi	sp,sp,32
   1b1a4:	00008067          	jalr	zero,0(ra)
   1b1a8:	00b12623          	sw	a1,12(sp)
   1b1ac:	02100613          	addi	a2,zero,33
   1b1b0:	00400593          	addi	a1,zero,4
   1b1b4:	00a12423          	sw	a0,8(sp)
   1b1b8:	165010ef          	jal	ra,1cb1c <_calloc_r>
   1b1bc:	00812703          	lw	a4,8(sp)
   1b1c0:	00c12683          	lw	a3,12(sp)
   1b1c4:	00050793          	addi	a5,a0,0
   1b1c8:	04a72223          	sw	a0,68(a4)
   1b1cc:	fa0518e3          	bne	a0,zero,1b17c <__i2b+0x18>
   1b1d0:	000236b7          	lui	a3,0x23
   1b1d4:	00023537          	lui	a0,0x23
   1b1d8:	40468693          	addi	a3,a3,1028 # 23404 <__clzsi2+0xfc>
   1b1dc:	46050513          	addi	a0,a0,1120 # 23460 <__clzsi2+0x158>
   1b1e0:	00000613          	addi	a2,zero,0
   1b1e4:	14500593          	addi	a1,zero,325
   1b1e8:	0d1010ef          	jal	ra,1cab8 <__assert_func>
   1b1ec:	00070513          	addi	a0,a4,0
   1b1f0:	01c00613          	addi	a2,zero,28
   1b1f4:	00100593          	addi	a1,zero,1
   1b1f8:	00d12423          	sw	a3,8(sp)
   1b1fc:	121010ef          	jal	ra,1cb1c <_calloc_r>
   1b200:	fc0508e3          	beq	a0,zero,1b1d0 <__i2b+0x6c>
   1b204:	00812683          	lw	a3,8(sp)
   1b208:	01c12083          	lw	ra,28(sp)
   1b20c:	00200793          	addi	a5,zero,2
   1b210:	00f52423          	sw	a5,8(a0)
   1b214:	00100713          	addi	a4,zero,1
   1b218:	00100793          	addi	a5,zero,1
   1b21c:	00e52223          	sw	a4,4(a0)
   1b220:	00052623          	sw	zero,12(a0)
   1b224:	00d52a23          	sw	a3,20(a0)
   1b228:	00f52823          	sw	a5,16(a0)
   1b22c:	02010113          	addi	sp,sp,32
   1b230:	00008067          	jalr	zero,0(ra)

0001b234 <__multiply>:
   1b234:	fe010113          	addi	sp,sp,-32
   1b238:	01212823          	sw	s2,16(sp)
   1b23c:	01312623          	sw	s3,12(sp)
   1b240:	0105a903          	lw	s2,16(a1)
   1b244:	01062983          	lw	s3,16(a2)
   1b248:	00912a23          	sw	s1,20(sp)
   1b24c:	01412423          	sw	s4,8(sp)
   1b250:	00112e23          	sw	ra,28(sp)
   1b254:	00812c23          	sw	s0,24(sp)
   1b258:	00058a13          	addi	s4,a1,0
   1b25c:	00060493          	addi	s1,a2,0
   1b260:	01394c63          	blt	s2,s3,1b278 <__multiply+0x44>
   1b264:	00098713          	addi	a4,s3,0
   1b268:	00058493          	addi	s1,a1,0
   1b26c:	00090993          	addi	s3,s2,0
   1b270:	00060a13          	addi	s4,a2,0
   1b274:	00070913          	addi	s2,a4,0
   1b278:	0084a783          	lw	a5,8(s1)
   1b27c:	0044a583          	lw	a1,4(s1)
   1b280:	01298433          	add	s0,s3,s2
   1b284:	0087a7b3          	slt	a5,a5,s0
   1b288:	00f585b3          	add	a1,a1,a5
   1b28c:	9cdff0ef          	jal	ra,1ac58 <_Balloc>
   1b290:	1c050a63          	beq	a0,zero,1b464 <__multiply+0x230>
   1b294:	01450893          	addi	a7,a0,20
   1b298:	00241813          	slli	a6,s0,0x2
   1b29c:	01088833          	add	a6,a7,a6
   1b2a0:	00088793          	addi	a5,a7,0
   1b2a4:	0108f863          	bgeu	a7,a6,1b2b4 <__multiply+0x80>
   1b2a8:	0007a023          	sw	zero,0(a5)
   1b2ac:	00478793          	addi	a5,a5,4
   1b2b0:	ff07ece3          	bltu	a5,a6,1b2a8 <__multiply+0x74>
   1b2b4:	014a0593          	addi	a1,s4,20
   1b2b8:	00291313          	slli	t1,s2,0x2
   1b2bc:	00658333          	add	t1,a1,t1
   1b2c0:	1665f263          	bgeu	a1,t1,1b424 <__multiply+0x1f0>
   1b2c4:	00299693          	slli	a3,s3,0x2
   1b2c8:	01448e93          	addi	t4,s1,20
   1b2cc:	00de86b3          	add	a3,t4,a3
   1b2d0:	01548e13          	addi	t3,s1,21
   1b2d4:	01c6be33          	sltu	t3,a3,t3
   1b2d8:	40968633          	sub	a2,a3,s1
   1b2dc:	001e4e13          	xori	t3,t3,1
   1b2e0:	feb60613          	addi	a2,a2,-21
   1b2e4:	0180006f          	jal	zero,1b2fc <__multiply+0xc8>
   1b2e8:	010fdf93          	srli	t6,t6,0x10
   1b2ec:	0a0f9663          	bne	t6,zero,1b398 <__multiply+0x164>
   1b2f0:	00458593          	addi	a1,a1,4
   1b2f4:	00488893          	addi	a7,a7,4
   1b2f8:	1265f663          	bgeu	a1,t1,1b424 <__multiply+0x1f0>
   1b2fc:	0005af83          	lw	t6,0(a1)
   1b300:	010f9393          	slli	t2,t6,0x10
   1b304:	0103d393          	srli	t2,t2,0x10
   1b308:	fe0380e3          	beq	t2,zero,1b2e8 <__multiply+0xb4>
   1b30c:	00088293          	addi	t0,a7,0
   1b310:	000e8f93          	addi	t6,t4,0
   1b314:	00000493          	addi	s1,zero,0
   1b318:	000fa783          	lw	a5,0(t6)
   1b31c:	0002af03          	lw	t5,0(t0)
   1b320:	00428293          	addi	t0,t0,4
   1b324:	01079713          	slli	a4,a5,0x10
   1b328:	01075713          	srli	a4,a4,0x10
   1b32c:	02770733          	mul	a4,a4,t2
   1b330:	0107d793          	srli	a5,a5,0x10
   1b334:	010f1913          	slli	s2,t5,0x10
   1b338:	01095913          	srli	s2,s2,0x10
   1b33c:	010f5f13          	srli	t5,t5,0x10
   1b340:	004f8f93          	addi	t6,t6,4
   1b344:	027787b3          	mul	a5,a5,t2
   1b348:	01270733          	add	a4,a4,s2
   1b34c:	00970733          	add	a4,a4,s1
   1b350:	01e787b3          	add	a5,a5,t5
   1b354:	01075f13          	srli	t5,a4,0x10
   1b358:	01e787b3          	add	a5,a5,t5
   1b35c:	01071713          	slli	a4,a4,0x10
   1b360:	01075713          	srli	a4,a4,0x10
   1b364:	01079f13          	slli	t5,a5,0x10
   1b368:	00ef6733          	or	a4,t5,a4
   1b36c:	fee2ae23          	sw	a4,-4(t0)
   1b370:	0107d493          	srli	s1,a5,0x10
   1b374:	fadfe2e3          	bltu	t6,a3,1b318 <__multiply+0xe4>
   1b378:	00000793          	addi	a5,zero,0
   1b37c:	000e0463          	beq	t3,zero,1b384 <__multiply+0x150>
   1b380:	ffc67793          	andi	a5,a2,-4
   1b384:	00f887b3          	add	a5,a7,a5
   1b388:	0097a223          	sw	s1,4(a5)
   1b38c:	0005af83          	lw	t6,0(a1)
   1b390:	010fdf93          	srli	t6,t6,0x10
   1b394:	f40f8ee3          	beq	t6,zero,1b2f0 <__multiply+0xbc>
   1b398:	0008a783          	lw	a5,0(a7)
   1b39c:	00088293          	addi	t0,a7,0
   1b3a0:	000e8f13          	addi	t5,t4,0
   1b3a4:	00078493          	addi	s1,a5,0
   1b3a8:	00000393          	addi	t2,zero,0
   1b3ac:	000f5703          	lhu	a4,0(t5)
   1b3b0:	0104d993          	srli	s3,s1,0x10
   1b3b4:	01079793          	slli	a5,a5,0x10
   1b3b8:	03f70733          	mul	a4,a4,t6
   1b3bc:	0107d793          	srli	a5,a5,0x10
   1b3c0:	004f0f13          	addi	t5,t5,4
   1b3c4:	0042a483          	lw	s1,4(t0)
   1b3c8:	00428293          	addi	t0,t0,4
   1b3cc:	01049913          	slli	s2,s1,0x10
   1b3d0:	01095913          	srli	s2,s2,0x10
   1b3d4:	00770733          	add	a4,a4,t2
   1b3d8:	01370733          	add	a4,a4,s3
   1b3dc:	01071393          	slli	t2,a4,0x10
   1b3e0:	00f3e7b3          	or	a5,t2,a5
   1b3e4:	fef2ae23          	sw	a5,-4(t0)
   1b3e8:	ffef5783          	lhu	a5,-2(t5)
   1b3ec:	01075713          	srli	a4,a4,0x10
   1b3f0:	03f787b3          	mul	a5,a5,t6
   1b3f4:	012787b3          	add	a5,a5,s2
   1b3f8:	00e787b3          	add	a5,a5,a4
   1b3fc:	0107d393          	srli	t2,a5,0x10
   1b400:	fadf66e3          	bltu	t5,a3,1b3ac <__multiply+0x178>
   1b404:	00000713          	addi	a4,zero,0
   1b408:	000e0463          	beq	t3,zero,1b410 <__multiply+0x1dc>
   1b40c:	ffc67713          	andi	a4,a2,-4
   1b410:	00e88733          	add	a4,a7,a4
   1b414:	00f72223          	sw	a5,4(a4)
   1b418:	00458593          	addi	a1,a1,4
   1b41c:	00488893          	addi	a7,a7,4
   1b420:	ec65eee3          	bltu	a1,t1,1b2fc <__multiply+0xc8>
   1b424:	00804863          	blt	zero,s0,1b434 <__multiply+0x200>
   1b428:	0180006f          	jal	zero,1b440 <__multiply+0x20c>
   1b42c:	fff40413          	addi	s0,s0,-1
   1b430:	00040863          	beq	s0,zero,1b440 <__multiply+0x20c>
   1b434:	ffc82783          	lw	a5,-4(a6)
   1b438:	ffc80813          	addi	a6,a6,-4
   1b43c:	fe0788e3          	beq	a5,zero,1b42c <__multiply+0x1f8>
   1b440:	01c12083          	lw	ra,28(sp)
   1b444:	00852823          	sw	s0,16(a0)
   1b448:	01812403          	lw	s0,24(sp)
   1b44c:	01412483          	lw	s1,20(sp)
   1b450:	01012903          	lw	s2,16(sp)
   1b454:	00c12983          	lw	s3,12(sp)
   1b458:	00812a03          	lw	s4,8(sp)
   1b45c:	02010113          	addi	sp,sp,32
   1b460:	00008067          	jalr	zero,0(ra)
   1b464:	000236b7          	lui	a3,0x23
   1b468:	00023537          	lui	a0,0x23
   1b46c:	40468693          	addi	a3,a3,1028 # 23404 <__clzsi2+0xfc>
   1b470:	46050513          	addi	a0,a0,1120 # 23460 <__clzsi2+0x158>
   1b474:	00000613          	addi	a2,zero,0
   1b478:	16200593          	addi	a1,zero,354
   1b47c:	63c010ef          	jal	ra,1cab8 <__assert_func>

0001b480 <__pow5mult>:
   1b480:	fe010113          	addi	sp,sp,-32
   1b484:	00812c23          	sw	s0,24(sp)
   1b488:	01212823          	sw	s2,16(sp)
   1b48c:	01312623          	sw	s3,12(sp)
   1b490:	00112e23          	sw	ra,28(sp)
   1b494:	00367793          	andi	a5,a2,3
   1b498:	00060413          	addi	s0,a2,0
   1b49c:	00050993          	addi	s3,a0,0
   1b4a0:	00058913          	addi	s2,a1,0
   1b4a4:	0c079a63          	bne	a5,zero,1b578 <__pow5mult+0xf8>
   1b4a8:	40245413          	srai	s0,s0,0x2
   1b4ac:	0a040863          	beq	s0,zero,1b55c <__pow5mult+0xdc>
   1b4b0:	00912a23          	sw	s1,20(sp)
   1b4b4:	0409a483          	lw	s1,64(s3)
   1b4b8:	0e048263          	beq	s1,zero,1b59c <__pow5mult+0x11c>
   1b4bc:	00147793          	andi	a5,s0,1
   1b4c0:	40145413          	srai	s0,s0,0x1
   1b4c4:	00079e63          	bne	a5,zero,1b4e0 <__pow5mult+0x60>
   1b4c8:	0004a503          	lw	a0,0(s1)
   1b4cc:	04050a63          	beq	a0,zero,1b520 <__pow5mult+0xa0>
   1b4d0:	00050493          	addi	s1,a0,0
   1b4d4:	00147793          	andi	a5,s0,1
   1b4d8:	40145413          	srai	s0,s0,0x1
   1b4dc:	fe0786e3          	beq	a5,zero,1b4c8 <__pow5mult+0x48>
   1b4e0:	00048613          	addi	a2,s1,0
   1b4e4:	00090593          	addi	a1,s2,0
   1b4e8:	00098513          	addi	a0,s3,0
   1b4ec:	d49ff0ef          	jal	ra,1b234 <__multiply>
   1b4f0:	02090063          	beq	s2,zero,1b510 <__pow5mult+0x90>
   1b4f4:	00492703          	lw	a4,4(s2)
   1b4f8:	0449a783          	lw	a5,68(s3)
   1b4fc:	00271713          	slli	a4,a4,0x2
   1b500:	00e787b3          	add	a5,a5,a4
   1b504:	0007a703          	lw	a4,0(a5)
   1b508:	00e92023          	sw	a4,0(s2)
   1b50c:	0127a023          	sw	s2,0(a5)
   1b510:	02040863          	beq	s0,zero,1b540 <__pow5mult+0xc0>
   1b514:	00050913          	addi	s2,a0,0
   1b518:	0004a503          	lw	a0,0(s1)
   1b51c:	fa051ae3          	bne	a0,zero,1b4d0 <__pow5mult+0x50>
   1b520:	00048613          	addi	a2,s1,0
   1b524:	00048593          	addi	a1,s1,0
   1b528:	00098513          	addi	a0,s3,0
   1b52c:	d09ff0ef          	jal	ra,1b234 <__multiply>
   1b530:	00a4a023          	sw	a0,0(s1)
   1b534:	00052023          	sw	zero,0(a0)
   1b538:	00050493          	addi	s1,a0,0
   1b53c:	f99ff06f          	jal	zero,1b4d4 <__pow5mult+0x54>
   1b540:	01c12083          	lw	ra,28(sp)
   1b544:	01812403          	lw	s0,24(sp)
   1b548:	01412483          	lw	s1,20(sp)
   1b54c:	01012903          	lw	s2,16(sp)
   1b550:	00c12983          	lw	s3,12(sp)
   1b554:	02010113          	addi	sp,sp,32
   1b558:	00008067          	jalr	zero,0(ra)
   1b55c:	01c12083          	lw	ra,28(sp)
   1b560:	01812403          	lw	s0,24(sp)
   1b564:	00c12983          	lw	s3,12(sp)
   1b568:	00090513          	addi	a0,s2,0
   1b56c:	01012903          	lw	s2,16(sp)
   1b570:	02010113          	addi	sp,sp,32
   1b574:	00008067          	jalr	zero,0(ra)
   1b578:	00070737          	lui	a4,0x70
   1b57c:	ad070713          	addi	a4,a4,-1328 # 6fad0 <p05.0>
   1b580:	00279793          	slli	a5,a5,0x2
   1b584:	00f707b3          	add	a5,a4,a5
   1b588:	ffc7a603          	lw	a2,-4(a5)
   1b58c:	00000693          	addi	a3,zero,0
   1b590:	f98ff0ef          	jal	ra,1ad28 <__multadd>
   1b594:	00050913          	addi	s2,a0,0
   1b598:	f11ff06f          	jal	zero,1b4a8 <__pow5mult+0x28>
   1b59c:	00100593          	addi	a1,zero,1
   1b5a0:	00098513          	addi	a0,s3,0
   1b5a4:	eb4ff0ef          	jal	ra,1ac58 <_Balloc>
   1b5a8:	00050493          	addi	s1,a0,0
   1b5ac:	02050063          	beq	a0,zero,1b5cc <__pow5mult+0x14c>
   1b5b0:	27100713          	addi	a4,zero,625
   1b5b4:	00100793          	addi	a5,zero,1
   1b5b8:	00e52a23          	sw	a4,20(a0)
   1b5bc:	00f52823          	sw	a5,16(a0)
   1b5c0:	04a9a023          	sw	a0,64(s3)
   1b5c4:	00052023          	sw	zero,0(a0)
   1b5c8:	ef5ff06f          	jal	zero,1b4bc <__pow5mult+0x3c>
   1b5cc:	000236b7          	lui	a3,0x23
   1b5d0:	00023537          	lui	a0,0x23
   1b5d4:	40468693          	addi	a3,a3,1028 # 23404 <__clzsi2+0xfc>
   1b5d8:	46050513          	addi	a0,a0,1120 # 23460 <__clzsi2+0x158>
   1b5dc:	00000613          	addi	a2,zero,0
   1b5e0:	14500593          	addi	a1,zero,325
   1b5e4:	4d4010ef          	jal	ra,1cab8 <__assert_func>

0001b5e8 <__lshift>:
   1b5e8:	fd010113          	addi	sp,sp,-48
   1b5ec:	03212023          	sw	s2,32(sp)
   1b5f0:	0105a903          	lw	s2,16(a1)
   1b5f4:	0085a783          	lw	a5,8(a1)
   1b5f8:	01412c23          	sw	s4,24(sp)
   1b5fc:	40565a13          	srai	s4,a2,0x5
   1b600:	012a0933          	add	s2,s4,s2
   1b604:	02812423          	sw	s0,40(sp)
   1b608:	02912223          	sw	s1,36(sp)
   1b60c:	01312e23          	sw	s3,28(sp)
   1b610:	02112623          	sw	ra,44(sp)
   1b614:	00190413          	addi	s0,s2,1
   1b618:	00058493          	addi	s1,a1,0
   1b61c:	00050993          	addi	s3,a0,0
   1b620:	0045a583          	lw	a1,4(a1)
   1b624:	0087d863          	bge	a5,s0,1b634 <__lshift+0x4c>
   1b628:	00179793          	slli	a5,a5,0x1
   1b62c:	00158593          	addi	a1,a1,1
   1b630:	fe87cce3          	blt	a5,s0,1b628 <__lshift+0x40>
   1b634:	00098513          	addi	a0,s3,0
   1b638:	00c12623          	sw	a2,12(sp)
   1b63c:	e1cff0ef          	jal	ra,1ac58 <_Balloc>
   1b640:	00c12603          	lw	a2,12(sp)
   1b644:	10050863          	beq	a0,zero,1b754 <__lshift+0x16c>
   1b648:	01450593          	addi	a1,a0,20
   1b64c:	03405463          	bge	zero,s4,1b674 <__lshift+0x8c>
   1b650:	005a0713          	addi	a4,s4,5
   1b654:	00271713          	slli	a4,a4,0x2
   1b658:	00e50733          	add	a4,a0,a4
   1b65c:	00058793          	addi	a5,a1,0
   1b660:	00478793          	addi	a5,a5,4
   1b664:	fe07ae23          	sw	zero,-4(a5)
   1b668:	fee79ce3          	bne	a5,a4,1b660 <__lshift+0x78>
   1b66c:	002a1a13          	slli	s4,s4,0x2
   1b670:	014585b3          	add	a1,a1,s4
   1b674:	0104a803          	lw	a6,16(s1)
   1b678:	01448793          	addi	a5,s1,20
   1b67c:	01f67613          	andi	a2,a2,31
   1b680:	00281813          	slli	a6,a6,0x2
   1b684:	01078833          	add	a6,a5,a6
   1b688:	0a060063          	beq	a2,zero,1b728 <__lshift+0x140>
   1b68c:	02000313          	addi	t1,zero,32
   1b690:	40c30333          	sub	t1,t1,a2
   1b694:	00058893          	addi	a7,a1,0
   1b698:	00000693          	addi	a3,zero,0
   1b69c:	0007a703          	lw	a4,0(a5)
   1b6a0:	00488893          	addi	a7,a7,4
   1b6a4:	00478793          	addi	a5,a5,4
   1b6a8:	00c71733          	sll	a4,a4,a2
   1b6ac:	00d76733          	or	a4,a4,a3
   1b6b0:	fee8ae23          	sw	a4,-4(a7)
   1b6b4:	ffc7a683          	lw	a3,-4(a5)
   1b6b8:	0066d6b3          	srl	a3,a3,t1
   1b6bc:	ff07e0e3          	bltu	a5,a6,1b69c <__lshift+0xb4>
   1b6c0:	01548793          	addi	a5,s1,21
   1b6c4:	00000713          	addi	a4,zero,0
   1b6c8:	00f86863          	bltu	a6,a5,1b6d8 <__lshift+0xf0>
   1b6cc:	40980833          	sub	a6,a6,s1
   1b6d0:	feb80813          	addi	a6,a6,-21
   1b6d4:	ffc87713          	andi	a4,a6,-4
   1b6d8:	00e585b3          	add	a1,a1,a4
   1b6dc:	00d5a223          	sw	a3,4(a1)
   1b6e0:	00069463          	bne	a3,zero,1b6e8 <__lshift+0x100>
   1b6e4:	00090413          	addi	s0,s2,0
   1b6e8:	0044a703          	lw	a4,4(s1)
   1b6ec:	0449a783          	lw	a5,68(s3)
   1b6f0:	02c12083          	lw	ra,44(sp)
   1b6f4:	00271713          	slli	a4,a4,0x2
   1b6f8:	00e787b3          	add	a5,a5,a4
   1b6fc:	0007a703          	lw	a4,0(a5)
   1b700:	00852823          	sw	s0,16(a0)
   1b704:	02812403          	lw	s0,40(sp)
   1b708:	00e4a023          	sw	a4,0(s1)
   1b70c:	0097a023          	sw	s1,0(a5)
   1b710:	02012903          	lw	s2,32(sp)
   1b714:	02412483          	lw	s1,36(sp)
   1b718:	01c12983          	lw	s3,28(sp)
   1b71c:	01812a03          	lw	s4,24(sp)
   1b720:	03010113          	addi	sp,sp,48
   1b724:	00008067          	jalr	zero,0(ra)
   1b728:	0007a703          	lw	a4,0(a5)
   1b72c:	00478793          	addi	a5,a5,4
   1b730:	00458593          	addi	a1,a1,4
   1b734:	fee5ae23          	sw	a4,-4(a1)
   1b738:	fb07f6e3          	bgeu	a5,a6,1b6e4 <__lshift+0xfc>
   1b73c:	0007a703          	lw	a4,0(a5)
   1b740:	00478793          	addi	a5,a5,4
   1b744:	00458593          	addi	a1,a1,4
   1b748:	fee5ae23          	sw	a4,-4(a1)
   1b74c:	fd07eee3          	bltu	a5,a6,1b728 <__lshift+0x140>
   1b750:	f95ff06f          	jal	zero,1b6e4 <__lshift+0xfc>
   1b754:	000236b7          	lui	a3,0x23
   1b758:	00023537          	lui	a0,0x23
   1b75c:	40468693          	addi	a3,a3,1028 # 23404 <__clzsi2+0xfc>
   1b760:	46050513          	addi	a0,a0,1120 # 23460 <__clzsi2+0x158>
   1b764:	00000613          	addi	a2,zero,0
   1b768:	1de00593          	addi	a1,zero,478
   1b76c:	34c010ef          	jal	ra,1cab8 <__assert_func>

0001b770 <__mcmp>:
   1b770:	01052703          	lw	a4,16(a0)
   1b774:	0105a783          	lw	a5,16(a1)
   1b778:	00050613          	addi	a2,a0,0
   1b77c:	40f70533          	sub	a0,a4,a5
   1b780:	04f71263          	bne	a4,a5,1b7c4 <__mcmp+0x54>
   1b784:	00279793          	slli	a5,a5,0x2
   1b788:	01460613          	addi	a2,a2,20
   1b78c:	01458593          	addi	a1,a1,20
   1b790:	00f585b3          	add	a1,a1,a5
   1b794:	00f607b3          	add	a5,a2,a5
   1b798:	0080006f          	jal	zero,1b7a0 <__mcmp+0x30>
   1b79c:	02f67463          	bgeu	a2,a5,1b7c4 <__mcmp+0x54>
   1b7a0:	ffc7a683          	lw	a3,-4(a5)
   1b7a4:	ffc5a703          	lw	a4,-4(a1)
   1b7a8:	ffc78793          	addi	a5,a5,-4
   1b7ac:	ffc58593          	addi	a1,a1,-4
   1b7b0:	fee686e3          	beq	a3,a4,1b79c <__mcmp+0x2c>
   1b7b4:	00100513          	addi	a0,zero,1
   1b7b8:	00e6f663          	bgeu	a3,a4,1b7c4 <__mcmp+0x54>
   1b7bc:	fff00513          	addi	a0,zero,-1
   1b7c0:	00008067          	jalr	zero,0(ra)
   1b7c4:	00008067          	jalr	zero,0(ra)

0001b7c8 <__mdiff>:
   1b7c8:	0105a703          	lw	a4,16(a1)
   1b7cc:	01062783          	lw	a5,16(a2)
   1b7d0:	fe010113          	addi	sp,sp,-32
   1b7d4:	00112e23          	sw	ra,28(sp)
   1b7d8:	00058f13          	addi	t5,a1,0
   1b7dc:	40f708b3          	sub	a7,a4,a5
   1b7e0:	04f71063          	bne	a4,a5,1b820 <__mdiff+0x58>
   1b7e4:	00279693          	slli	a3,a5,0x2
   1b7e8:	01458593          	addi	a1,a1,20
   1b7ec:	01460713          	addi	a4,a2,20
   1b7f0:	00d587b3          	add	a5,a1,a3
   1b7f4:	00d70733          	add	a4,a4,a3
   1b7f8:	0080006f          	jal	zero,1b800 <__mdiff+0x38>
   1b7fc:	18f5fc63          	bgeu	a1,a5,1b994 <__mdiff+0x1cc>
   1b800:	ffc7a803          	lw	a6,-4(a5)
   1b804:	ffc72683          	lw	a3,-4(a4)
   1b808:	ffc78793          	addi	a5,a5,-4
   1b80c:	ffc70713          	addi	a4,a4,-4
   1b810:	fed806e3          	beq	a6,a3,1b7fc <__mdiff+0x34>
   1b814:	1ad87263          	bgeu	a6,a3,1b9b8 <__mdiff+0x1f0>
   1b818:	00100893          	addi	a7,zero,1
   1b81c:	0180006f          	jal	zero,1b834 <__mdiff+0x6c>
   1b820:	fe08cce3          	blt	a7,zero,1b818 <__mdiff+0x50>
   1b824:	00060793          	addi	a5,a2,0
   1b828:	00000893          	addi	a7,zero,0
   1b82c:	00058613          	addi	a2,a1,0
   1b830:	00078f13          	addi	t5,a5,0
   1b834:	00462583          	lw	a1,4(a2)
   1b838:	01e12623          	sw	t5,12(sp)
   1b83c:	01112423          	sw	a7,8(sp)
   1b840:	00c12223          	sw	a2,4(sp)
   1b844:	c14ff0ef          	jal	ra,1ac58 <_Balloc>
   1b848:	00412603          	lw	a2,4(sp)
   1b84c:	00812883          	lw	a7,8(sp)
   1b850:	00c12f03          	lw	t5,12(sp)
   1b854:	18050863          	beq	a0,zero,1b9e4 <__mdiff+0x21c>
   1b858:	01062803          	lw	a6,16(a2)
   1b85c:	010f2f83          	lw	t6,16(t5)
   1b860:	01460293          	addi	t0,a2,20
   1b864:	00281713          	slli	a4,a6,0x2
   1b868:	002f9f93          	slli	t6,t6,0x2
   1b86c:	014f0613          	addi	a2,t5,20
   1b870:	01450393          	addi	t2,a0,20
   1b874:	01152623          	sw	a7,12(a0)
   1b878:	00e28333          	add	t1,t0,a4
   1b87c:	01f60fb3          	add	t6,a2,t6
   1b880:	00028e93          	addi	t4,t0,0
   1b884:	00038e13          	addi	t3,t2,0
   1b888:	00000893          	addi	a7,zero,0
   1b88c:	000ea703          	lw	a4,0(t4)
   1b890:	00062683          	lw	a3,0(a2)
   1b894:	004e0e13          	addi	t3,t3,4
   1b898:	01071793          	slli	a5,a4,0x10
   1b89c:	01069593          	slli	a1,a3,0x10
   1b8a0:	0107d793          	srli	a5,a5,0x10
   1b8a4:	0105d593          	srli	a1,a1,0x10
   1b8a8:	40b787b3          	sub	a5,a5,a1
   1b8ac:	011787b3          	add	a5,a5,a7
   1b8b0:	0106d693          	srli	a3,a3,0x10
   1b8b4:	01075713          	srli	a4,a4,0x10
   1b8b8:	40d70733          	sub	a4,a4,a3
   1b8bc:	4107d693          	srai	a3,a5,0x10
   1b8c0:	00d70733          	add	a4,a4,a3
   1b8c4:	01079793          	slli	a5,a5,0x10
   1b8c8:	0107d793          	srli	a5,a5,0x10
   1b8cc:	01071693          	slli	a3,a4,0x10
   1b8d0:	00d7e7b3          	or	a5,a5,a3
   1b8d4:	00460613          	addi	a2,a2,4
   1b8d8:	fefe2e23          	sw	a5,-4(t3)
   1b8dc:	004e8e93          	addi	t4,t4,4
   1b8e0:	41075893          	srai	a7,a4,0x10
   1b8e4:	fbf664e3          	bltu	a2,t6,1b88c <__mdiff+0xc4>
   1b8e8:	015f0693          	addi	a3,t5,21
   1b8ec:	00000713          	addi	a4,zero,0
   1b8f0:	00dfe863          	bltu	t6,a3,1b900 <__mdiff+0x138>
   1b8f4:	41ef8fb3          	sub	t6,t6,t5
   1b8f8:	febf8f93          	addi	t6,t6,-21
   1b8fc:	ffcff713          	andi	a4,t6,-4
   1b900:	00e28eb3          	add	t4,t0,a4
   1b904:	004e8e93          	addi	t4,t4,4
   1b908:	00770733          	add	a4,a4,t2
   1b90c:	40538e33          	sub	t3,t2,t0
   1b910:	000e8613          	addi	a2,t4,0
   1b914:	00470f13          	addi	t5,a4,4
   1b918:	046efc63          	bgeu	t4,t1,1b970 <__mdiff+0x1a8>
   1b91c:	00062683          	lw	a3,0(a2)
   1b920:	01c605b3          	add	a1,a2,t3
   1b924:	00460613          	addi	a2,a2,4
   1b928:	01069713          	slli	a4,a3,0x10
   1b92c:	01075713          	srli	a4,a4,0x10
   1b930:	01170733          	add	a4,a4,a7
   1b934:	011687b3          	add	a5,a3,a7
   1b938:	41075713          	srai	a4,a4,0x10
   1b93c:	0106d693          	srli	a3,a3,0x10
   1b940:	00d70733          	add	a4,a4,a3
   1b944:	01079793          	slli	a5,a5,0x10
   1b948:	0107d793          	srli	a5,a5,0x10
   1b94c:	01071693          	slli	a3,a4,0x10
   1b950:	00d7e7b3          	or	a5,a5,a3
   1b954:	00f5a023          	sw	a5,0(a1)
   1b958:	41075893          	srai	a7,a4,0x10
   1b95c:	fc6660e3          	bltu	a2,t1,1b91c <__mdiff+0x154>
   1b960:	fff30713          	addi	a4,t1,-1
   1b964:	41d70733          	sub	a4,a4,t4
   1b968:	ffc77713          	andi	a4,a4,-4
   1b96c:	01e70733          	add	a4,a4,t5
   1b970:	00079a63          	bne	a5,zero,1b984 <__mdiff+0x1bc>
   1b974:	ffc72783          	lw	a5,-4(a4)
   1b978:	ffc70713          	addi	a4,a4,-4
   1b97c:	fff80813          	addi	a6,a6,-1
   1b980:	fe078ae3          	beq	a5,zero,1b974 <__mdiff+0x1ac>
   1b984:	01c12083          	lw	ra,28(sp)
   1b988:	01052823          	sw	a6,16(a0)
   1b98c:	02010113          	addi	sp,sp,32
   1b990:	00008067          	jalr	zero,0(ra)
   1b994:	00000593          	addi	a1,zero,0
   1b998:	ac0ff0ef          	jal	ra,1ac58 <_Balloc>
   1b99c:	02050663          	beq	a0,zero,1b9c8 <__mdiff+0x200>
   1b9a0:	01c12083          	lw	ra,28(sp)
   1b9a4:	00100793          	addi	a5,zero,1
   1b9a8:	00052a23          	sw	zero,20(a0)
   1b9ac:	00f52823          	sw	a5,16(a0)
   1b9b0:	02010113          	addi	sp,sp,32
   1b9b4:	00008067          	jalr	zero,0(ra)
   1b9b8:	00060793          	addi	a5,a2,0
   1b9bc:	000f0613          	addi	a2,t5,0
   1b9c0:	00078f13          	addi	t5,a5,0
   1b9c4:	e71ff06f          	jal	zero,1b834 <__mdiff+0x6c>
   1b9c8:	000236b7          	lui	a3,0x23
   1b9cc:	00023537          	lui	a0,0x23
   1b9d0:	40468693          	addi	a3,a3,1028 # 23404 <__clzsi2+0xfc>
   1b9d4:	46050513          	addi	a0,a0,1120 # 23460 <__clzsi2+0x158>
   1b9d8:	00000613          	addi	a2,zero,0
   1b9dc:	23700593          	addi	a1,zero,567
   1b9e0:	0d8010ef          	jal	ra,1cab8 <__assert_func>
   1b9e4:	000236b7          	lui	a3,0x23
   1b9e8:	00023537          	lui	a0,0x23
   1b9ec:	40468693          	addi	a3,a3,1028 # 23404 <__clzsi2+0xfc>
   1b9f0:	46050513          	addi	a0,a0,1120 # 23460 <__clzsi2+0x158>
   1b9f4:	00000613          	addi	a2,zero,0
   1b9f8:	24500593          	addi	a1,zero,581
   1b9fc:	0bc010ef          	jal	ra,1cab8 <__assert_func>

0001ba00 <__ulp>:
   1ba00:	7ff007b7          	lui	a5,0x7ff00
   1ba04:	00b7f5b3          	and	a1,a5,a1
   1ba08:	fcc007b7          	lui	a5,0xfcc00
   1ba0c:	00f585b3          	add	a1,a1,a5
   1ba10:	00000793          	addi	a5,zero,0
   1ba14:	00b05663          	bge	zero,a1,1ba20 <__ulp+0x20>
   1ba18:	00078513          	addi	a0,a5,0 # fcc00000 <__BSS_END__+0xfcaebc68>
   1ba1c:	00008067          	jalr	zero,0(ra)
   1ba20:	40b005b3          	sub	a1,zero,a1
   1ba24:	4145d593          	srai	a1,a1,0x14
   1ba28:	01300793          	addi	a5,zero,19
   1ba2c:	00b7cc63          	blt	a5,a1,1ba44 <__ulp+0x44>
   1ba30:	000807b7          	lui	a5,0x80
   1ba34:	40b7d5b3          	sra	a1,a5,a1
   1ba38:	00000793          	addi	a5,zero,0
   1ba3c:	00078513          	addi	a0,a5,0 # 80000 <__global_pointer$+0xf148>
   1ba40:	00008067          	jalr	zero,0(ra)
   1ba44:	fec58593          	addi	a1,a1,-20
   1ba48:	01e00713          	addi	a4,zero,30
   1ba4c:	00100793          	addi	a5,zero,1
   1ba50:	00b74663          	blt	a4,a1,1ba5c <__ulp+0x5c>
   1ba54:	800007b7          	lui	a5,0x80000
   1ba58:	00b7d7b3          	srl	a5,a5,a1
   1ba5c:	00000593          	addi	a1,zero,0
   1ba60:	00078513          	addi	a0,a5,0 # 80000000 <__BSS_END__+0x7feebc68>
   1ba64:	00008067          	jalr	zero,0(ra)

0001ba68 <__b2d>:
   1ba68:	fd010113          	addi	sp,sp,-48
   1ba6c:	02812423          	sw	s0,40(sp)
   1ba70:	01052403          	lw	s0,16(a0)
   1ba74:	02912223          	sw	s1,36(sp)
   1ba78:	01450493          	addi	s1,a0,20
   1ba7c:	00241413          	slli	s0,s0,0x2
   1ba80:	00848433          	add	s0,s1,s0
   1ba84:	03212023          	sw	s2,32(sp)
   1ba88:	ffc42903          	lw	s2,-4(s0)
   1ba8c:	01312e23          	sw	s3,28(sp)
   1ba90:	00b12623          	sw	a1,12(sp)
   1ba94:	00090513          	addi	a0,s2,0
   1ba98:	02112623          	sw	ra,44(sp)
   1ba9c:	d24ff0ef          	jal	ra,1afc0 <__hi0bits>
   1baa0:	00c12583          	lw	a1,12(sp)
   1baa4:	02000713          	addi	a4,zero,32
   1baa8:	40a707b3          	sub	a5,a4,a0
   1baac:	00f5a023          	sw	a5,0(a1)
   1bab0:	00a00793          	addi	a5,zero,10
   1bab4:	ffc40993          	addi	s3,s0,-4
   1bab8:	08a7da63          	bge	a5,a0,1bb4c <__b2d+0xe4>
   1babc:	ff550613          	addi	a2,a0,-11
   1bac0:	0534f063          	bgeu	s1,s3,1bb00 <__b2d+0x98>
   1bac4:	ff842783          	lw	a5,-8(s0)
   1bac8:	04060c63          	beq	a2,zero,1bb20 <__b2d+0xb8>
   1bacc:	40c706b3          	sub	a3,a4,a2
   1bad0:	00d7d733          	srl	a4,a5,a3
   1bad4:	00c91933          	sll	s2,s2,a2
   1bad8:	00e96933          	or	s2,s2,a4
   1badc:	00c797b3          	sll	a5,a5,a2
   1bae0:	3ff00737          	lui	a4,0x3ff00
   1bae4:	ff840613          	addi	a2,s0,-8
   1bae8:	00e96733          	or	a4,s2,a4
   1baec:	02c4fe63          	bgeu	s1,a2,1bb28 <__b2d+0xc0>
   1baf0:	ff442603          	lw	a2,-12(s0)
   1baf4:	00d656b3          	srl	a3,a2,a3
   1baf8:	00d7e7b3          	or	a5,a5,a3
   1bafc:	02c0006f          	jal	zero,1bb28 <__b2d+0xc0>
   1bb00:	00b00793          	addi	a5,zero,11
   1bb04:	00f50c63          	beq	a0,a5,1bb1c <__b2d+0xb4>
   1bb08:	00c91933          	sll	s2,s2,a2
   1bb0c:	3ff00737          	lui	a4,0x3ff00
   1bb10:	00e96733          	or	a4,s2,a4
   1bb14:	00000793          	addi	a5,zero,0
   1bb18:	0100006f          	jal	zero,1bb28 <__b2d+0xc0>
   1bb1c:	00000793          	addi	a5,zero,0
   1bb20:	3ff00737          	lui	a4,0x3ff00
   1bb24:	00e96733          	or	a4,s2,a4
   1bb28:	02c12083          	lw	ra,44(sp)
   1bb2c:	02812403          	lw	s0,40(sp)
   1bb30:	02412483          	lw	s1,36(sp)
   1bb34:	02012903          	lw	s2,32(sp)
   1bb38:	01c12983          	lw	s3,28(sp)
   1bb3c:	00078513          	addi	a0,a5,0
   1bb40:	00070593          	addi	a1,a4,0 # 3ff00000 <__BSS_END__+0x3fdebc68>
   1bb44:	03010113          	addi	sp,sp,48
   1bb48:	00008067          	jalr	zero,0(ra)
   1bb4c:	00b00693          	addi	a3,zero,11
   1bb50:	40a686b3          	sub	a3,a3,a0
   1bb54:	3ff007b7          	lui	a5,0x3ff00
   1bb58:	00d95733          	srl	a4,s2,a3
   1bb5c:	00f76733          	or	a4,a4,a5
   1bb60:	00000793          	addi	a5,zero,0
   1bb64:	0134f663          	bgeu	s1,s3,1bb70 <__b2d+0x108>
   1bb68:	ff842783          	lw	a5,-8(s0)
   1bb6c:	00d7d7b3          	srl	a5,a5,a3
   1bb70:	01550513          	addi	a0,a0,21
   1bb74:	00a91933          	sll	s2,s2,a0
   1bb78:	00f967b3          	or	a5,s2,a5
   1bb7c:	fadff06f          	jal	zero,1bb28 <__b2d+0xc0>

0001bb80 <__d2b>:
   1bb80:	fc010113          	addi	sp,sp,-64
   1bb84:	03212823          	sw	s2,48(sp)
   1bb88:	00058913          	addi	s2,a1,0
   1bb8c:	00100593          	addi	a1,zero,1
   1bb90:	03312623          	sw	s3,44(sp)
   1bb94:	03412423          	sw	s4,40(sp)
   1bb98:	00c12623          	sw	a2,12(sp)
   1bb9c:	02112e23          	sw	ra,60(sp)
   1bba0:	02812c23          	sw	s0,56(sp)
   1bba4:	02912a23          	sw	s1,52(sp)
   1bba8:	00068a13          	addi	s4,a3,0
   1bbac:	00070993          	addi	s3,a4,0
   1bbb0:	8a8ff0ef          	jal	ra,1ac58 <_Balloc>
   1bbb4:	00c12603          	lw	a2,12(sp)
   1bbb8:	0e050a63          	beq	a0,zero,1bcac <__d2b+0x12c>
   1bbbc:	01465413          	srli	s0,a2,0x14
   1bbc0:	00100737          	lui	a4,0x100
   1bbc4:	fff70793          	addi	a5,a4,-1 # fffff <cipher_buffer.1+0x41687>
   1bbc8:	7ff47413          	andi	s0,s0,2047
   1bbcc:	00050493          	addi	s1,a0,0
   1bbd0:	00c7f633          	and	a2,a5,a2
   1bbd4:	00040463          	beq	s0,zero,1bbdc <__d2b+0x5c>
   1bbd8:	00e66633          	or	a2,a2,a4
   1bbdc:	00c12e23          	sw	a2,28(sp)
   1bbe0:	06091063          	bne	s2,zero,1bc40 <__d2b+0xc0>
   1bbe4:	01c10513          	addi	a0,sp,28
   1bbe8:	c64ff0ef          	jal	ra,1b04c <__lo0bits>
   1bbec:	01c12683          	lw	a3,28(sp)
   1bbf0:	00100913          	addi	s2,zero,1
   1bbf4:	0124a823          	sw	s2,16(s1)
   1bbf8:	00d4aa23          	sw	a3,20(s1)
   1bbfc:	02050713          	addi	a4,a0,32
   1bc00:	08040463          	beq	s0,zero,1bc88 <__d2b+0x108>
   1bc04:	bcd40413          	addi	s0,s0,-1075
   1bc08:	00e40433          	add	s0,s0,a4
   1bc0c:	03500793          	addi	a5,zero,53
   1bc10:	008a2023          	sw	s0,0(s4)
   1bc14:	40e78533          	sub	a0,a5,a4
   1bc18:	03c12083          	lw	ra,60(sp)
   1bc1c:	03812403          	lw	s0,56(sp)
   1bc20:	00a9a023          	sw	a0,0(s3)
   1bc24:	03012903          	lw	s2,48(sp)
   1bc28:	02c12983          	lw	s3,44(sp)
   1bc2c:	02812a03          	lw	s4,40(sp)
   1bc30:	00048513          	addi	a0,s1,0
   1bc34:	03412483          	lw	s1,52(sp)
   1bc38:	04010113          	addi	sp,sp,64
   1bc3c:	00008067          	jalr	zero,0(ra)
   1bc40:	01810513          	addi	a0,sp,24
   1bc44:	01212c23          	sw	s2,24(sp)
   1bc48:	c04ff0ef          	jal	ra,1b04c <__lo0bits>
   1bc4c:	01c12683          	lw	a3,28(sp)
   1bc50:	01812603          	lw	a2,24(sp)
   1bc54:	00050713          	addi	a4,a0,0
   1bc58:	00050c63          	beq	a0,zero,1bc70 <__d2b+0xf0>
   1bc5c:	02000793          	addi	a5,zero,32
   1bc60:	40a787b3          	sub	a5,a5,a0
   1bc64:	00f697b3          	sll	a5,a3,a5
   1bc68:	00f66633          	or	a2,a2,a5
   1bc6c:	00a6d6b3          	srl	a3,a3,a0
   1bc70:	00d03933          	sltu	s2,zero,a3
   1bc74:	00190913          	addi	s2,s2,1
   1bc78:	00c4aa23          	sw	a2,20(s1)
   1bc7c:	00d4ac23          	sw	a3,24(s1)
   1bc80:	0124a823          	sw	s2,16(s1)
   1bc84:	f80410e3          	bne	s0,zero,1bc04 <__d2b+0x84>
   1bc88:	00291693          	slli	a3,s2,0x2
   1bc8c:	00d486b3          	add	a3,s1,a3
   1bc90:	0106a503          	lw	a0,16(a3)
   1bc94:	bce70713          	addi	a4,a4,-1074
   1bc98:	00ea2023          	sw	a4,0(s4)
   1bc9c:	b24ff0ef          	jal	ra,1afc0 <__hi0bits>
   1bca0:	00591793          	slli	a5,s2,0x5
   1bca4:	40a78533          	sub	a0,a5,a0
   1bca8:	f71ff06f          	jal	zero,1bc18 <__d2b+0x98>
   1bcac:	000236b7          	lui	a3,0x23
   1bcb0:	00023537          	lui	a0,0x23
   1bcb4:	40468693          	addi	a3,a3,1028 # 23404 <__clzsi2+0xfc>
   1bcb8:	46050513          	addi	a0,a0,1120 # 23460 <__clzsi2+0x158>
   1bcbc:	00000613          	addi	a2,zero,0
   1bcc0:	30f00593          	addi	a1,zero,783
   1bcc4:	5f5000ef          	jal	ra,1cab8 <__assert_func>

0001bcc8 <__ratio>:
   1bcc8:	fd010113          	addi	sp,sp,-48
   1bccc:	03212023          	sw	s2,32(sp)
   1bcd0:	00058913          	addi	s2,a1,0
   1bcd4:	00810593          	addi	a1,sp,8
   1bcd8:	02112623          	sw	ra,44(sp)
   1bcdc:	02812423          	sw	s0,40(sp)
   1bce0:	02912223          	sw	s1,36(sp)
   1bce4:	01312e23          	sw	s3,28(sp)
   1bce8:	00050993          	addi	s3,a0,0
   1bcec:	d7dff0ef          	jal	ra,1ba68 <__b2d>
   1bcf0:	00050493          	addi	s1,a0,0
   1bcf4:	00058413          	addi	s0,a1,0
   1bcf8:	00090513          	addi	a0,s2,0
   1bcfc:	00c10593          	addi	a1,sp,12
   1bd00:	d69ff0ef          	jal	ra,1ba68 <__b2d>
   1bd04:	0109a783          	lw	a5,16(s3)
   1bd08:	01092603          	lw	a2,16(s2)
   1bd0c:	00812703          	lw	a4,8(sp)
   1bd10:	00c12683          	lw	a3,12(sp)
   1bd14:	40c787b3          	sub	a5,a5,a2
   1bd18:	00579793          	slli	a5,a5,0x5
   1bd1c:	40d70733          	sub	a4,a4,a3
   1bd20:	00e787b3          	add	a5,a5,a4
   1bd24:	02f05e63          	bge	zero,a5,1bd60 <__ratio+0x98>
   1bd28:	01479793          	slli	a5,a5,0x14
   1bd2c:	00878433          	add	s0,a5,s0
   1bd30:	00050613          	addi	a2,a0,0
   1bd34:	00058693          	addi	a3,a1,0
   1bd38:	00048513          	addi	a0,s1,0
   1bd3c:	00040593          	addi	a1,s0,0
   1bd40:	404030ef          	jal	ra,1f144 <__divdf3>
   1bd44:	02c12083          	lw	ra,44(sp)
   1bd48:	02812403          	lw	s0,40(sp)
   1bd4c:	02412483          	lw	s1,36(sp)
   1bd50:	02012903          	lw	s2,32(sp)
   1bd54:	01c12983          	lw	s3,28(sp)
   1bd58:	03010113          	addi	sp,sp,48
   1bd5c:	00008067          	jalr	zero,0(ra)
   1bd60:	01479793          	slli	a5,a5,0x14
   1bd64:	40f585b3          	sub	a1,a1,a5
   1bd68:	fc9ff06f          	jal	zero,1bd30 <__ratio+0x68>

0001bd6c <_mprec_log10>:
   1bd6c:	ff010113          	addi	sp,sp,-16
   1bd70:	01212023          	sw	s2,0(sp)
   1bd74:	00112623          	sw	ra,12(sp)
   1bd78:	01700793          	addi	a5,zero,23
   1bd7c:	00050913          	addi	s2,a0,0
   1bd80:	04a7da63          	bge	a5,a0,1bdd4 <_mprec_log10+0x68>
   1bd84:	00812423          	sw	s0,8(sp)
   1bd88:	00912223          	sw	s1,4(sp)
   1bd8c:	8301a783          	lw	a5,-2000(gp) # 706e8 <__SDATA_BEGIN__+0x30>
   1bd90:	8341a583          	lw	a1,-1996(gp) # 706ec <__SDATA_BEGIN__+0x34>
   1bd94:	8381a403          	lw	s0,-1992(gp) # 706f0 <__SDATA_BEGIN__+0x38>
   1bd98:	83c1a483          	lw	s1,-1988(gp) # 706f4 <__SDATA_BEGIN__+0x3c>
   1bd9c:	00078513          	addi	a0,a5,0 # 3ff00000 <__BSS_END__+0x3fdebc68>
   1bda0:	00040613          	addi	a2,s0,0
   1bda4:	00048693          	addi	a3,s1,0
   1bda8:	489030ef          	jal	ra,1fa30 <__muldf3>
   1bdac:	fff90913          	addi	s2,s2,-1
   1bdb0:	00050793          	addi	a5,a0,0
   1bdb4:	fe0914e3          	bne	s2,zero,1bd9c <_mprec_log10+0x30>
   1bdb8:	00812403          	lw	s0,8(sp)
   1bdbc:	00c12083          	lw	ra,12(sp)
   1bdc0:	00412483          	lw	s1,4(sp)
   1bdc4:	00012903          	lw	s2,0(sp)
   1bdc8:	00078513          	addi	a0,a5,0
   1bdcc:	01010113          	addi	sp,sp,16
   1bdd0:	00008067          	jalr	zero,0(ra)
   1bdd4:	00070737          	lui	a4,0x70
   1bdd8:	00351913          	slli	s2,a0,0x3
   1bddc:	b3070713          	addi	a4,a4,-1232 # 6fb30 <__mprec_tens>
   1bde0:	01270733          	add	a4,a4,s2
   1bde4:	00072783          	lw	a5,0(a4)
   1bde8:	00c12083          	lw	ra,12(sp)
   1bdec:	00472583          	lw	a1,4(a4)
   1bdf0:	00012903          	lw	s2,0(sp)
   1bdf4:	00078513          	addi	a0,a5,0
   1bdf8:	01010113          	addi	sp,sp,16
   1bdfc:	00008067          	jalr	zero,0(ra)

0001be00 <__copybits>:
   1be00:	01062683          	lw	a3,16(a2)
   1be04:	fff58593          	addi	a1,a1,-1
   1be08:	4055d593          	srai	a1,a1,0x5
   1be0c:	00158593          	addi	a1,a1,1
   1be10:	00269693          	slli	a3,a3,0x2
   1be14:	01460793          	addi	a5,a2,20
   1be18:	00259593          	slli	a1,a1,0x2
   1be1c:	00d786b3          	add	a3,a5,a3
   1be20:	00b505b3          	add	a1,a0,a1
   1be24:	02d7f863          	bgeu	a5,a3,1be54 <__copybits+0x54>
   1be28:	00050713          	addi	a4,a0,0
   1be2c:	0007a803          	lw	a6,0(a5)
   1be30:	00478793          	addi	a5,a5,4
   1be34:	00470713          	addi	a4,a4,4
   1be38:	ff072e23          	sw	a6,-4(a4)
   1be3c:	fed7e8e3          	bltu	a5,a3,1be2c <__copybits+0x2c>
   1be40:	40c686b3          	sub	a3,a3,a2
   1be44:	feb68693          	addi	a3,a3,-21
   1be48:	ffc6f693          	andi	a3,a3,-4
   1be4c:	00450513          	addi	a0,a0,4
   1be50:	00a68533          	add	a0,a3,a0
   1be54:	00b57863          	bgeu	a0,a1,1be64 <__copybits+0x64>
   1be58:	00450513          	addi	a0,a0,4
   1be5c:	fe052e23          	sw	zero,-4(a0)
   1be60:	feb56ce3          	bltu	a0,a1,1be58 <__copybits+0x58>
   1be64:	00008067          	jalr	zero,0(ra)

0001be68 <__any_on>:
   1be68:	01052703          	lw	a4,16(a0)
   1be6c:	4055d613          	srai	a2,a1,0x5
   1be70:	01450693          	addi	a3,a0,20
   1be74:	02c75263          	bge	a4,a2,1be98 <__any_on+0x30>
   1be78:	00271713          	slli	a4,a4,0x2
   1be7c:	00e687b3          	add	a5,a3,a4
   1be80:	04f6f263          	bgeu	a3,a5,1bec4 <__any_on+0x5c>
   1be84:	ffc7a703          	lw	a4,-4(a5)
   1be88:	ffc78793          	addi	a5,a5,-4
   1be8c:	fe070ae3          	beq	a4,zero,1be80 <__any_on+0x18>
   1be90:	00100513          	addi	a0,zero,1
   1be94:	00008067          	jalr	zero,0(ra)
   1be98:	00261793          	slli	a5,a2,0x2
   1be9c:	00f687b3          	add	a5,a3,a5
   1bea0:	fee650e3          	bge	a2,a4,1be80 <__any_on+0x18>
   1bea4:	01f5f593          	andi	a1,a1,31
   1bea8:	fc058ce3          	beq	a1,zero,1be80 <__any_on+0x18>
   1beac:	0007a603          	lw	a2,0(a5)
   1beb0:	00100513          	addi	a0,zero,1
   1beb4:	00b65733          	srl	a4,a2,a1
   1beb8:	00b71733          	sll	a4,a4,a1
   1bebc:	fce602e3          	beq	a2,a4,1be80 <__any_on+0x18>
   1bec0:	00008067          	jalr	zero,0(ra)
   1bec4:	00000513          	addi	a0,zero,0
   1bec8:	00008067          	jalr	zero,0(ra)

0001becc <_realloc_r>:
   1becc:	1e058863          	beq	a1,zero,1c0bc <_realloc_r+0x1f0>
   1bed0:	fe010113          	addi	sp,sp,-32
   1bed4:	00812c23          	sw	s0,24(sp)
   1bed8:	00912a23          	sw	s1,20(sp)
   1bedc:	00058413          	addi	s0,a1,0
   1bee0:	00112e23          	sw	ra,28(sp)
   1bee4:	00050493          	addi	s1,a0,0
   1bee8:	00c12023          	sw	a2,0(sp)
   1beec:	d88f80ef          	jal	ra,14474 <__malloc_lock>
   1bef0:	00012583          	lw	a1,0(sp)
   1bef4:	01600713          	addi	a4,zero,22
   1bef8:	00b58793          	addi	a5,a1,11
   1befc:	12f77863          	bgeu	a4,a5,1c02c <_realloc_r+0x160>
   1bf00:	ff87f793          	andi	a5,a5,-8
   1bf04:	00078693          	addi	a3,a5,0
   1bf08:	01f7d713          	srli	a4,a5,0x1f
   1bf0c:	1eb7e463          	bltu	a5,a1,1c0f4 <_realloc_r+0x228>
   1bf10:	1e071263          	bne	a4,zero,1c0f4 <_realloc_r+0x228>
   1bf14:	ffc42603          	lw	a2,-4(s0)
   1bf18:	ff840813          	addi	a6,s0,-8
   1bf1c:	ffc67713          	andi	a4,a2,-4
   1bf20:	12d75863          	bge	a4,a3,1c050 <_realloc_r+0x184>
   1bf24:	00070e37          	lui	t3,0x70
   1bf28:	140e0e13          	addi	t3,t3,320 # 70140 <__malloc_av_>
   1bf2c:	008e2883          	lw	a7,8(t3)
   1bf30:	00e80333          	add	t1,a6,a4
   1bf34:	00432503          	lw	a0,4(t1)
   1bf38:	1e688063          	beq	a7,t1,1c118 <_realloc_r+0x24c>
   1bf3c:	ffe57893          	andi	a7,a0,-2
   1bf40:	011308b3          	add	a7,t1,a7
   1bf44:	0048a883          	lw	a7,4(a7)
   1bf48:	0018f893          	andi	a7,a7,1
   1bf4c:	14089a63          	bne	a7,zero,1c0a0 <_realloc_r+0x1d4>
   1bf50:	ffc57513          	andi	a0,a0,-4
   1bf54:	00a708b3          	add	a7,a4,a0
   1bf58:	0ed8d263          	bge	a7,a3,1c03c <_realloc_r+0x170>
   1bf5c:	00167613          	andi	a2,a2,1
   1bf60:	02061463          	bne	a2,zero,1bf88 <_realloc_r+0xbc>
   1bf64:	ff842e83          	lw	t4,-8(s0)
   1bf68:	41d80eb3          	sub	t4,a6,t4
   1bf6c:	004ea603          	lw	a2,4(t4)
   1bf70:	ffc67613          	andi	a2,a2,-4
   1bf74:	00c50533          	add	a0,a0,a2
   1bf78:	00e508b3          	add	a7,a0,a4
   1bf7c:	32d8d463          	bge	a7,a3,1c2a4 <_realloc_r+0x3d8>
   1bf80:	00c708b3          	add	a7,a4,a2
   1bf84:	28d8dc63          	bge	a7,a3,1c21c <_realloc_r+0x350>
   1bf88:	00048513          	addi	a0,s1,0
   1bf8c:	00e12423          	sw	a4,8(sp)
   1bf90:	01012223          	sw	a6,4(sp)
   1bf94:	00f12023          	sw	a5,0(sp)
   1bf98:	c5df70ef          	jal	ra,13bf4 <_malloc_r>
   1bf9c:	00012783          	lw	a5,0(sp)
   1bfa0:	00412803          	lw	a6,4(sp)
   1bfa4:	00812703          	lw	a4,8(sp)
   1bfa8:	00050693          	addi	a3,a0,0
   1bfac:	44050863          	beq	a0,zero,1c3fc <_realloc_r+0x530>
   1bfb0:	ffc42603          	lw	a2,-4(s0)
   1bfb4:	ff850593          	addi	a1,a0,-8
   1bfb8:	ffe67613          	andi	a2,a2,-2
   1bfbc:	00c80633          	add	a2,a6,a2
   1bfc0:	22b60463          	beq	a2,a1,1c1e8 <_realloc_r+0x31c>
   1bfc4:	ffc70613          	addi	a2,a4,-4
   1bfc8:	02400793          	addi	a5,zero,36
   1bfcc:	2cc7e263          	bltu	a5,a2,1c290 <_realloc_r+0x3c4>
   1bfd0:	01300713          	addi	a4,zero,19
   1bfd4:	22c76263          	bltu	a4,a2,1c1f8 <_realloc_r+0x32c>
   1bfd8:	00050793          	addi	a5,a0,0
   1bfdc:	00040713          	addi	a4,s0,0
   1bfe0:	00072603          	lw	a2,0(a4)
   1bfe4:	00c7a023          	sw	a2,0(a5)
   1bfe8:	00472603          	lw	a2,4(a4)
   1bfec:	00c7a223          	sw	a2,4(a5)
   1bff0:	00872703          	lw	a4,8(a4)
   1bff4:	00e7a423          	sw	a4,8(a5)
   1bff8:	00040593          	addi	a1,s0,0
   1bffc:	00048513          	addi	a0,s1,0
   1c000:	00d12023          	sw	a3,0(sp)
   1c004:	909f70ef          	jal	ra,1390c <_free_r>
   1c008:	00048513          	addi	a0,s1,0
   1c00c:	c6cf80ef          	jal	ra,14478 <__malloc_unlock>
   1c010:	00012683          	lw	a3,0(sp)
   1c014:	01c12083          	lw	ra,28(sp)
   1c018:	01812403          	lw	s0,24(sp)
   1c01c:	01412483          	lw	s1,20(sp)
   1c020:	00068513          	addi	a0,a3,0
   1c024:	02010113          	addi	sp,sp,32
   1c028:	00008067          	jalr	zero,0(ra)
   1c02c:	01000693          	addi	a3,zero,16
   1c030:	00068793          	addi	a5,a3,0
   1c034:	00000713          	addi	a4,zero,0
   1c038:	ed5ff06f          	jal	zero,1bf0c <_realloc_r+0x40>
   1c03c:	00c32683          	lw	a3,12(t1)
   1c040:	00832603          	lw	a2,8(t1)
   1c044:	00088713          	addi	a4,a7,0
   1c048:	00d62623          	sw	a3,12(a2)
   1c04c:	00c6a423          	sw	a2,8(a3)
   1c050:	00482683          	lw	a3,4(a6)
   1c054:	40f70533          	sub	a0,a4,a5
   1c058:	00f00593          	addi	a1,zero,15
   1c05c:	0016f693          	andi	a3,a3,1
   1c060:	00e80633          	add	a2,a6,a4
   1c064:	06a5e063          	bltu	a1,a0,1c0c4 <_realloc_r+0x1f8>
   1c068:	00d766b3          	or	a3,a4,a3
   1c06c:	00d82223          	sw	a3,4(a6)
   1c070:	00462783          	lw	a5,4(a2)
   1c074:	0017e793          	ori	a5,a5,1
   1c078:	00f62223          	sw	a5,4(a2)
   1c07c:	00048513          	addi	a0,s1,0
   1c080:	bf8f80ef          	jal	ra,14478 <__malloc_unlock>
   1c084:	00040693          	addi	a3,s0,0
   1c088:	01c12083          	lw	ra,28(sp)
   1c08c:	01812403          	lw	s0,24(sp)
   1c090:	01412483          	lw	s1,20(sp)
   1c094:	00068513          	addi	a0,a3,0
   1c098:	02010113          	addi	sp,sp,32
   1c09c:	00008067          	jalr	zero,0(ra)
   1c0a0:	00167613          	andi	a2,a2,1
   1c0a4:	ee0612e3          	bne	a2,zero,1bf88 <_realloc_r+0xbc>
   1c0a8:	ff842e83          	lw	t4,-8(s0)
   1c0ac:	41d80eb3          	sub	t4,a6,t4
   1c0b0:	004ea603          	lw	a2,4(t4)
   1c0b4:	ffc67613          	andi	a2,a2,-4
   1c0b8:	ec9ff06f          	jal	zero,1bf80 <_realloc_r+0xb4>
   1c0bc:	00060593          	addi	a1,a2,0
   1c0c0:	b35f706f          	jal	zero,13bf4 <_malloc_r>
   1c0c4:	00d7e6b3          	or	a3,a5,a3
   1c0c8:	00d82223          	sw	a3,4(a6)
   1c0cc:	00f805b3          	add	a1,a6,a5
   1c0d0:	00156513          	ori	a0,a0,1
   1c0d4:	00a5a223          	sw	a0,4(a1)
   1c0d8:	00462783          	lw	a5,4(a2)
   1c0dc:	00858593          	addi	a1,a1,8
   1c0e0:	00048513          	addi	a0,s1,0
   1c0e4:	0017e793          	ori	a5,a5,1
   1c0e8:	00f62223          	sw	a5,4(a2)
   1c0ec:	821f70ef          	jal	ra,1390c <_free_r>
   1c0f0:	f8dff06f          	jal	zero,1c07c <_realloc_r+0x1b0>
   1c0f4:	00c00793          	addi	a5,zero,12
   1c0f8:	00f4a023          	sw	a5,0(s1)
   1c0fc:	00000693          	addi	a3,zero,0
   1c100:	01c12083          	lw	ra,28(sp)
   1c104:	01812403          	lw	s0,24(sp)
   1c108:	01412483          	lw	s1,20(sp)
   1c10c:	00068513          	addi	a0,a3,0
   1c110:	02010113          	addi	sp,sp,32
   1c114:	00008067          	jalr	zero,0(ra)
   1c118:	ffc57513          	andi	a0,a0,-4
   1c11c:	00e508b3          	add	a7,a0,a4
   1c120:	01078313          	addi	t1,a5,16
   1c124:	2468da63          	bge	a7,t1,1c378 <_realloc_r+0x4ac>
   1c128:	00167613          	andi	a2,a2,1
   1c12c:	e4061ee3          	bne	a2,zero,1bf88 <_realloc_r+0xbc>
   1c130:	ff842e83          	lw	t4,-8(s0)
   1c134:	41d80eb3          	sub	t4,a6,t4
   1c138:	004ea603          	lw	a2,4(t4)
   1c13c:	ffc67613          	andi	a2,a2,-4
   1c140:	00c50533          	add	a0,a0,a2
   1c144:	00e508b3          	add	a7,a0,a4
   1c148:	e268cce3          	blt	a7,t1,1bf80 <_realloc_r+0xb4>
   1c14c:	00cea683          	lw	a3,12(t4)
   1c150:	008ea583          	lw	a1,8(t4)
   1c154:	ffc70613          	addi	a2,a4,-4
   1c158:	02400713          	addi	a4,zero,36
   1c15c:	00d5a623          	sw	a3,12(a1)
   1c160:	00b6a423          	sw	a1,8(a3)
   1c164:	008e8693          	addi	a3,t4,8
   1c168:	2ec76263          	bltu	a4,a2,1c44c <_realloc_r+0x580>
   1c16c:	01300593          	addi	a1,zero,19
   1c170:	00068713          	addi	a4,a3,0
   1c174:	02c5f263          	bgeu	a1,a2,1c198 <_realloc_r+0x2cc>
   1c178:	00042583          	lw	a1,0(s0)
   1c17c:	01b00713          	addi	a4,zero,27
   1c180:	00bea423          	sw	a1,8(t4)
   1c184:	00442583          	lw	a1,4(s0)
   1c188:	00bea623          	sw	a1,12(t4)
   1c18c:	30c76a63          	bltu	a4,a2,1c4a0 <_realloc_r+0x5d4>
   1c190:	00840413          	addi	s0,s0,8
   1c194:	010e8713          	addi	a4,t4,16
   1c198:	00042603          	lw	a2,0(s0)
   1c19c:	00c72023          	sw	a2,0(a4)
   1c1a0:	00442603          	lw	a2,4(s0)
   1c1a4:	00c72223          	sw	a2,4(a4)
   1c1a8:	00842603          	lw	a2,8(s0)
   1c1ac:	00c72423          	sw	a2,8(a4)
   1c1b0:	00fe8633          	add	a2,t4,a5
   1c1b4:	40f88733          	sub	a4,a7,a5
   1c1b8:	00ce2423          	sw	a2,8(t3)
   1c1bc:	00176713          	ori	a4,a4,1
   1c1c0:	00e62223          	sw	a4,4(a2)
   1c1c4:	004ea703          	lw	a4,4(t4)
   1c1c8:	00048513          	addi	a0,s1,0
   1c1cc:	00d12023          	sw	a3,0(sp)
   1c1d0:	00177713          	andi	a4,a4,1
   1c1d4:	00f767b3          	or	a5,a4,a5
   1c1d8:	00fea223          	sw	a5,4(t4)
   1c1dc:	a9cf80ef          	jal	ra,14478 <__malloc_unlock>
   1c1e0:	00012683          	lw	a3,0(sp)
   1c1e4:	ea5ff06f          	jal	zero,1c088 <_realloc_r+0x1bc>
   1c1e8:	ffc52683          	lw	a3,-4(a0)
   1c1ec:	ffc6f693          	andi	a3,a3,-4
   1c1f0:	00d70733          	add	a4,a4,a3
   1c1f4:	e5dff06f          	jal	zero,1c050 <_realloc_r+0x184>
   1c1f8:	00042583          	lw	a1,0(s0)
   1c1fc:	01b00713          	addi	a4,zero,27
   1c200:	00b52023          	sw	a1,0(a0)
   1c204:	00442583          	lw	a1,4(s0)
   1c208:	00b52223          	sw	a1,4(a0)
   1c20c:	10c76e63          	bltu	a4,a2,1c328 <_realloc_r+0x45c>
   1c210:	00840713          	addi	a4,s0,8
   1c214:	00850793          	addi	a5,a0,8
   1c218:	dc9ff06f          	jal	zero,1bfe0 <_realloc_r+0x114>
   1c21c:	00cea683          	lw	a3,12(t4)
   1c220:	008ea583          	lw	a1,8(t4)
   1c224:	ffc70613          	addi	a2,a4,-4
   1c228:	02400513          	addi	a0,zero,36
   1c22c:	00d5a623          	sw	a3,12(a1)
   1c230:	00b6a423          	sw	a1,8(a3)
   1c234:	008e8693          	addi	a3,t4,8
   1c238:	10c56863          	bltu	a0,a2,1c348 <_realloc_r+0x47c>
   1c23c:	01300593          	addi	a1,zero,19
   1c240:	00068713          	addi	a4,a3,0
   1c244:	02c5f263          	bgeu	a1,a2,1c268 <_realloc_r+0x39c>
   1c248:	00042583          	lw	a1,0(s0)
   1c24c:	01b00713          	addi	a4,zero,27
   1c250:	00bea423          	sw	a1,8(t4)
   1c254:	00442583          	lw	a1,4(s0)
   1c258:	00bea623          	sw	a1,12(t4)
   1c25c:	18c76063          	bltu	a4,a2,1c3dc <_realloc_r+0x510>
   1c260:	00840413          	addi	s0,s0,8
   1c264:	010e8713          	addi	a4,t4,16
   1c268:	00042603          	lw	a2,0(s0)
   1c26c:	00c72023          	sw	a2,0(a4)
   1c270:	00442603          	lw	a2,4(s0)
   1c274:	00c72223          	sw	a2,4(a4)
   1c278:	00842603          	lw	a2,8(s0)
   1c27c:	00c72423          	sw	a2,8(a4)
   1c280:	00068413          	addi	s0,a3,0
   1c284:	00088713          	addi	a4,a7,0
   1c288:	000e8813          	addi	a6,t4,0
   1c28c:	dc5ff06f          	jal	zero,1c050 <_realloc_r+0x184>
   1c290:	00040593          	addi	a1,s0,0
   1c294:	00a12023          	sw	a0,0(sp)
   1c298:	828fc0ef          	jal	ra,182c0 <memmove>
   1c29c:	00012683          	lw	a3,0(sp)
   1c2a0:	d59ff06f          	jal	zero,1bff8 <_realloc_r+0x12c>
   1c2a4:	00c32683          	lw	a3,12(t1)
   1c2a8:	00832583          	lw	a1,8(t1)
   1c2ac:	ffc70613          	addi	a2,a4,-4
   1c2b0:	02400513          	addi	a0,zero,36
   1c2b4:	00d5a623          	sw	a3,12(a1)
   1c2b8:	00b6a423          	sw	a1,8(a3)
   1c2bc:	00cea703          	lw	a4,12(t4)
   1c2c0:	008ea683          	lw	a3,8(t4)
   1c2c4:	008e8813          	addi	a6,t4,8
   1c2c8:	00e6a623          	sw	a4,12(a3)
   1c2cc:	00d72423          	sw	a3,8(a4)
   1c2d0:	0cc56e63          	bltu	a0,a2,1c3ac <_realloc_r+0x4e0>
   1c2d4:	01300693          	addi	a3,zero,19
   1c2d8:	00080713          	addi	a4,a6,0
   1c2dc:	02c6f263          	bgeu	a3,a2,1c300 <_realloc_r+0x434>
   1c2e0:	00042683          	lw	a3,0(s0)
   1c2e4:	01b00713          	addi	a4,zero,27
   1c2e8:	00dea423          	sw	a3,8(t4)
   1c2ec:	00442683          	lw	a3,4(s0)
   1c2f0:	00dea623          	sw	a3,12(t4)
   1c2f4:	12c76a63          	bltu	a4,a2,1c428 <_realloc_r+0x55c>
   1c2f8:	00840413          	addi	s0,s0,8
   1c2fc:	010e8713          	addi	a4,t4,16
   1c300:	00042683          	lw	a3,0(s0)
   1c304:	00d72023          	sw	a3,0(a4)
   1c308:	00442683          	lw	a3,4(s0)
   1c30c:	00d72223          	sw	a3,4(a4)
   1c310:	00842683          	lw	a3,8(s0)
   1c314:	00d72423          	sw	a3,8(a4)
   1c318:	00080413          	addi	s0,a6,0
   1c31c:	00088713          	addi	a4,a7,0
   1c320:	000e8813          	addi	a6,t4,0
   1c324:	d2dff06f          	jal	zero,1c050 <_realloc_r+0x184>
   1c328:	00842703          	lw	a4,8(s0)
   1c32c:	00e52423          	sw	a4,8(a0)
   1c330:	00c42703          	lw	a4,12(s0)
   1c334:	00e52623          	sw	a4,12(a0)
   1c338:	0cf60a63          	beq	a2,a5,1c40c <_realloc_r+0x540>
   1c33c:	01040713          	addi	a4,s0,16
   1c340:	01050793          	addi	a5,a0,16
   1c344:	c9dff06f          	jal	zero,1bfe0 <_realloc_r+0x114>
   1c348:	00068513          	addi	a0,a3,0
   1c34c:	00040593          	addi	a1,s0,0
   1c350:	01d12623          	sw	t4,12(sp)
   1c354:	00f12423          	sw	a5,8(sp)
   1c358:	01112223          	sw	a7,4(sp)
   1c35c:	00d12023          	sw	a3,0(sp)
   1c360:	f61fb0ef          	jal	ra,182c0 <memmove>
   1c364:	00c12e83          	lw	t4,12(sp)
   1c368:	00812783          	lw	a5,8(sp)
   1c36c:	00412883          	lw	a7,4(sp)
   1c370:	00012683          	lw	a3,0(sp)
   1c374:	f0dff06f          	jal	zero,1c280 <_realloc_r+0x3b4>
   1c378:	00f80833          	add	a6,a6,a5
   1c37c:	40f88733          	sub	a4,a7,a5
   1c380:	010e2423          	sw	a6,8(t3)
   1c384:	00176713          	ori	a4,a4,1
   1c388:	00e82223          	sw	a4,4(a6)
   1c38c:	ffc42703          	lw	a4,-4(s0)
   1c390:	00048513          	addi	a0,s1,0
   1c394:	00177713          	andi	a4,a4,1
   1c398:	00f767b3          	or	a5,a4,a5
   1c39c:	fef42e23          	sw	a5,-4(s0)
   1c3a0:	8d8f80ef          	jal	ra,14478 <__malloc_unlock>
   1c3a4:	00040693          	addi	a3,s0,0
   1c3a8:	ce1ff06f          	jal	zero,1c088 <_realloc_r+0x1bc>
   1c3ac:	00080513          	addi	a0,a6,0
   1c3b0:	00040593          	addi	a1,s0,0
   1c3b4:	01d12623          	sw	t4,12(sp)
   1c3b8:	00f12423          	sw	a5,8(sp)
   1c3bc:	01112223          	sw	a7,4(sp)
   1c3c0:	01012023          	sw	a6,0(sp)
   1c3c4:	efdfb0ef          	jal	ra,182c0 <memmove>
   1c3c8:	00012803          	lw	a6,0(sp)
   1c3cc:	00412883          	lw	a7,4(sp)
   1c3d0:	00812783          	lw	a5,8(sp)
   1c3d4:	00c12e83          	lw	t4,12(sp)
   1c3d8:	f41ff06f          	jal	zero,1c318 <_realloc_r+0x44c>
   1c3dc:	00842703          	lw	a4,8(s0)
   1c3e0:	00eea823          	sw	a4,16(t4)
   1c3e4:	00c42703          	lw	a4,12(s0)
   1c3e8:	00eeaa23          	sw	a4,20(t4)
   1c3ec:	08a60c63          	beq	a2,a0,1c484 <_realloc_r+0x5b8>
   1c3f0:	01040413          	addi	s0,s0,16
   1c3f4:	018e8713          	addi	a4,t4,24
   1c3f8:	e71ff06f          	jal	zero,1c268 <_realloc_r+0x39c>
   1c3fc:	00048513          	addi	a0,s1,0
   1c400:	878f80ef          	jal	ra,14478 <__malloc_unlock>
   1c404:	00000693          	addi	a3,zero,0
   1c408:	cf9ff06f          	jal	zero,1c100 <_realloc_r+0x234>
   1c40c:	01042603          	lw	a2,16(s0)
   1c410:	01840713          	addi	a4,s0,24
   1c414:	01850793          	addi	a5,a0,24
   1c418:	00c52823          	sw	a2,16(a0)
   1c41c:	01442603          	lw	a2,20(s0)
   1c420:	00c52a23          	sw	a2,20(a0)
   1c424:	bbdff06f          	jal	zero,1bfe0 <_realloc_r+0x114>
   1c428:	00842683          	lw	a3,8(s0)
   1c42c:	02400713          	addi	a4,zero,36
   1c430:	00dea823          	sw	a3,16(t4)
   1c434:	00c42683          	lw	a3,12(s0)
   1c438:	00deaa23          	sw	a3,20(t4)
   1c43c:	08e60463          	beq	a2,a4,1c4c4 <_realloc_r+0x5f8>
   1c440:	01040413          	addi	s0,s0,16
   1c444:	018e8713          	addi	a4,t4,24
   1c448:	eb9ff06f          	jal	zero,1c300 <_realloc_r+0x434>
   1c44c:	00068513          	addi	a0,a3,0
   1c450:	00040593          	addi	a1,s0,0
   1c454:	01d12623          	sw	t4,12(sp)
   1c458:	00f12423          	sw	a5,8(sp)
   1c45c:	01112223          	sw	a7,4(sp)
   1c460:	00d12023          	sw	a3,0(sp)
   1c464:	e5dfb0ef          	jal	ra,182c0 <memmove>
   1c468:	000707b7          	lui	a5,0x70
   1c46c:	14078e13          	addi	t3,a5,320 # 70140 <__malloc_av_>
   1c470:	00c12e83          	lw	t4,12(sp)
   1c474:	00812783          	lw	a5,8(sp)
   1c478:	00412883          	lw	a7,4(sp)
   1c47c:	00012683          	lw	a3,0(sp)
   1c480:	d31ff06f          	jal	zero,1c1b0 <_realloc_r+0x2e4>
   1c484:	01042603          	lw	a2,16(s0)
   1c488:	020e8713          	addi	a4,t4,32
   1c48c:	01840413          	addi	s0,s0,24
   1c490:	00ceac23          	sw	a2,24(t4)
   1c494:	ffc42603          	lw	a2,-4(s0)
   1c498:	00ceae23          	sw	a2,28(t4)
   1c49c:	dcdff06f          	jal	zero,1c268 <_realloc_r+0x39c>
   1c4a0:	00842583          	lw	a1,8(s0)
   1c4a4:	02400713          	addi	a4,zero,36
   1c4a8:	00bea823          	sw	a1,16(t4)
   1c4ac:	00c42583          	lw	a1,12(s0)
   1c4b0:	00beaa23          	sw	a1,20(t4)
   1c4b4:	02e60663          	beq	a2,a4,1c4e0 <_realloc_r+0x614>
   1c4b8:	01040413          	addi	s0,s0,16
   1c4bc:	018e8713          	addi	a4,t4,24
   1c4c0:	cd9ff06f          	jal	zero,1c198 <_realloc_r+0x2cc>
   1c4c4:	01042683          	lw	a3,16(s0)
   1c4c8:	020e8713          	addi	a4,t4,32
   1c4cc:	01840413          	addi	s0,s0,24
   1c4d0:	00deac23          	sw	a3,24(t4)
   1c4d4:	ffc42683          	lw	a3,-4(s0)
   1c4d8:	00deae23          	sw	a3,28(t4)
   1c4dc:	e25ff06f          	jal	zero,1c300 <_realloc_r+0x434>
   1c4e0:	01042603          	lw	a2,16(s0)
   1c4e4:	020e8713          	addi	a4,t4,32
   1c4e8:	01840413          	addi	s0,s0,24
   1c4ec:	00ceac23          	sw	a2,24(t4)
   1c4f0:	ffc42603          	lw	a2,-4(s0)
   1c4f4:	00ceae23          	sw	a2,28(t4)
   1c4f8:	ca1ff06f          	jal	zero,1c198 <_realloc_r+0x2cc>

0001c4fc <__smakebuf_r>:
   1c4fc:	00c59783          	lh	a5,12(a1)
   1c500:	0027f713          	andi	a4,a5,2
   1c504:	00070e63          	beq	a4,zero,1c520 <__smakebuf_r+0x24>
   1c508:	04358793          	addi	a5,a1,67
   1c50c:	00100713          	addi	a4,zero,1
   1c510:	00f5a023          	sw	a5,0(a1)
   1c514:	00f5a823          	sw	a5,16(a1)
   1c518:	00e5aa23          	sw	a4,20(a1)
   1c51c:	00008067          	jalr	zero,0(ra)
   1c520:	00058713          	addi	a4,a1,0
   1c524:	00e59583          	lh	a1,14(a1)
   1c528:	f8010113          	addi	sp,sp,-128
   1c52c:	06812c23          	sw	s0,120(sp)
   1c530:	06112e23          	sw	ra,124(sp)
   1c534:	00050413          	addi	s0,a0,0
   1c538:	0805ce63          	blt	a1,zero,1c5d4 <__smakebuf_r+0xd8>
   1c53c:	01810613          	addi	a2,sp,24
   1c540:	00e12423          	sw	a4,8(sp)
   1c544:	338000ef          	jal	ra,1c87c <_fstat_r>
   1c548:	00812703          	lw	a4,8(sp)
   1c54c:	08054263          	blt	a0,zero,1c5d0 <__smakebuf_r+0xd4>
   1c550:	40000593          	addi	a1,zero,1024
   1c554:	00040513          	addi	a0,s0,0
   1c558:	06912a23          	sw	s1,116(sp)
   1c55c:	00e12423          	sw	a4,8(sp)
   1c560:	01c12483          	lw	s1,28(sp)
   1c564:	e90f70ef          	jal	ra,13bf4 <_malloc_r>
   1c568:	00812703          	lw	a4,8(sp)
   1c56c:	00c71783          	lh	a5,12(a4)
   1c570:	0c050263          	beq	a0,zero,1c634 <__smakebuf_r+0x138>
   1c574:	40000693          	addi	a3,zero,1024
   1c578:	0807e793          	ori	a5,a5,128
   1c57c:	00d72a23          	sw	a3,20(a4)
   1c580:	40c4d693          	srai	a3,s1,0xc
   1c584:	00f71623          	sh	a5,12(a4)
   1c588:	00a72023          	sw	a0,0(a4)
   1c58c:	00a72823          	sw	a0,16(a4)
   1c590:	00f6f693          	andi	a3,a3,15
   1c594:	00200613          	addi	a2,zero,2
   1c598:	0cc69663          	bne	a3,a2,1c664 <__smakebuf_r+0x168>
   1c59c:	00e71583          	lh	a1,14(a4)
   1c5a0:	00040513          	addi	a0,s0,0
   1c5a4:	00e12423          	sw	a4,8(sp)
   1c5a8:	338000ef          	jal	ra,1c8e0 <_isatty_r>
   1c5ac:	00812703          	lw	a4,8(sp)
   1c5b0:	00c71783          	lh	a5,12(a4)
   1c5b4:	0a050863          	beq	a0,zero,1c664 <__smakebuf_r+0x168>
   1c5b8:	ffc7f793          	andi	a5,a5,-4
   1c5bc:	000016b7          	lui	a3,0x1
   1c5c0:	07412483          	lw	s1,116(sp)
   1c5c4:	0017e793          	ori	a5,a5,1
   1c5c8:	80068693          	addi	a3,a3,-2048 # 800 <exit-0xf8b4>
   1c5cc:	0500006f          	jal	zero,1c61c <__smakebuf_r+0x120>
   1c5d0:	00c71783          	lh	a5,12(a4)
   1c5d4:	0807f793          	andi	a5,a5,128
   1c5d8:	0017b793          	sltiu	a5,a5,1
   1c5dc:	40f007b3          	sub	a5,zero,a5
   1c5e0:	3c07f593          	andi	a1,a5,960
   1c5e4:	04058593          	addi	a1,a1,64
   1c5e8:	00040513          	addi	a0,s0,0
   1c5ec:	00e12623          	sw	a4,12(sp)
   1c5f0:	00b12423          	sw	a1,8(sp)
   1c5f4:	e00f70ef          	jal	ra,13bf4 <_malloc_r>
   1c5f8:	00c12703          	lw	a4,12(sp)
   1c5fc:	00812583          	lw	a1,8(sp)
   1c600:	00c71783          	lh	a5,12(a4)
   1c604:	02050a63          	beq	a0,zero,1c638 <__smakebuf_r+0x13c>
   1c608:	0807e793          	ori	a5,a5,128
   1c60c:	00a72023          	sw	a0,0(a4)
   1c610:	00a72823          	sw	a0,16(a4)
   1c614:	00b72a23          	sw	a1,20(a4)
   1c618:	00000693          	addi	a3,zero,0
   1c61c:	00d7e7b3          	or	a5,a5,a3
   1c620:	00f71623          	sh	a5,12(a4)
   1c624:	07c12083          	lw	ra,124(sp)
   1c628:	07812403          	lw	s0,120(sp)
   1c62c:	08010113          	addi	sp,sp,128
   1c630:	00008067          	jalr	zero,0(ra)
   1c634:	07412483          	lw	s1,116(sp)
   1c638:	2007f693          	andi	a3,a5,512
   1c63c:	fe0694e3          	bne	a3,zero,1c624 <__smakebuf_r+0x128>
   1c640:	ffc7f793          	andi	a5,a5,-4
   1c644:	04370693          	addi	a3,a4,67
   1c648:	0027e793          	ori	a5,a5,2
   1c64c:	00100613          	addi	a2,zero,1
   1c650:	00f71623          	sh	a5,12(a4)
   1c654:	00d72023          	sw	a3,0(a4)
   1c658:	00d72823          	sw	a3,16(a4)
   1c65c:	00c72a23          	sw	a2,20(a4)
   1c660:	fc5ff06f          	jal	zero,1c624 <__smakebuf_r+0x128>
   1c664:	000016b7          	lui	a3,0x1
   1c668:	07412483          	lw	s1,116(sp)
   1c66c:	80068693          	addi	a3,a3,-2048 # 800 <exit-0xf8b4>
   1c670:	fadff06f          	jal	zero,1c61c <__smakebuf_r+0x120>

0001c674 <__swhatbuf_r>:
   1c674:	00058793          	addi	a5,a1,0
   1c678:	00e59583          	lh	a1,14(a1)
   1c67c:	00060713          	addi	a4,a2,0
   1c680:	0805ca63          	blt	a1,zero,1c714 <__swhatbuf_r+0xa0>
   1c684:	f8010113          	addi	sp,sp,-128
   1c688:	00c12423          	sw	a2,8(sp)
   1c68c:	01810613          	addi	a2,sp,24
   1c690:	00d12623          	sw	a3,12(sp)
   1c694:	00f12223          	sw	a5,4(sp)
   1c698:	06112e23          	sw	ra,124(sp)
   1c69c:	1e0000ef          	jal	ra,1c87c <_fstat_r>
   1c6a0:	00412783          	lw	a5,4(sp)
   1c6a4:	00812703          	lw	a4,8(sp)
   1c6a8:	00c12683          	lw	a3,12(sp)
   1c6ac:	02054e63          	blt	a0,zero,1c6e8 <__swhatbuf_r+0x74>
   1c6b0:	01c12783          	lw	a5,28(sp)
   1c6b4:	0000f5b7          	lui	a1,0xf
   1c6b8:	ffffe637          	lui	a2,0xffffe
   1c6bc:	00b7f7b3          	and	a5,a5,a1
   1c6c0:	00c787b3          	add	a5,a5,a2
   1c6c4:	07c12083          	lw	ra,124(sp)
   1c6c8:	0017b793          	sltiu	a5,a5,1
   1c6cc:	00f6a023          	sw	a5,0(a3)
   1c6d0:	40000613          	addi	a2,zero,1024
   1c6d4:	00001537          	lui	a0,0x1
   1c6d8:	00c72023          	sw	a2,0(a4)
   1c6dc:	80050513          	addi	a0,a0,-2048 # 800 <exit-0xf8b4>
   1c6e0:	08010113          	addi	sp,sp,128
   1c6e4:	00008067          	jalr	zero,0(ra)
   1c6e8:	00c7d783          	lhu	a5,12(a5)
   1c6ec:	0807f793          	andi	a5,a5,128
   1c6f0:	04078263          	beq	a5,zero,1c734 <__swhatbuf_r+0xc0>
   1c6f4:	07c12083          	lw	ra,124(sp)
   1c6f8:	00000793          	addi	a5,zero,0
   1c6fc:	00f6a023          	sw	a5,0(a3)
   1c700:	04000613          	addi	a2,zero,64
   1c704:	00c72023          	sw	a2,0(a4)
   1c708:	00000513          	addi	a0,zero,0
   1c70c:	08010113          	addi	sp,sp,128
   1c710:	00008067          	jalr	zero,0(ra)
   1c714:	00c7d783          	lhu	a5,12(a5)
   1c718:	0807f793          	andi	a5,a5,128
   1c71c:	02079a63          	bne	a5,zero,1c750 <__swhatbuf_r+0xdc>
   1c720:	40000613          	addi	a2,zero,1024
   1c724:	00f6a023          	sw	a5,0(a3)
   1c728:	00000513          	addi	a0,zero,0
   1c72c:	00c72023          	sw	a2,0(a4)
   1c730:	00008067          	jalr	zero,0(ra)
   1c734:	07c12083          	lw	ra,124(sp)
   1c738:	00f6a023          	sw	a5,0(a3)
   1c73c:	40000613          	addi	a2,zero,1024
   1c740:	00c72023          	sw	a2,0(a4)
   1c744:	00000513          	addi	a0,zero,0
   1c748:	08010113          	addi	sp,sp,128
   1c74c:	00008067          	jalr	zero,0(ra)
   1c750:	00000793          	addi	a5,zero,0
   1c754:	04000613          	addi	a2,zero,64
   1c758:	00f6a023          	sw	a5,0(a3)
   1c75c:	00000513          	addi	a0,zero,0
   1c760:	00c72023          	sw	a2,0(a4)
   1c764:	00008067          	jalr	zero,0(ra)

0001c768 <_setlocale_r>:
   1c768:	04060063          	beq	a2,zero,1c7a8 <_setlocale_r+0x40>
   1c76c:	000235b7          	lui	a1,0x23
   1c770:	fe010113          	addi	sp,sp,-32
   1c774:	4a858593          	addi	a1,a1,1192 # 234a8 <__clzsi2+0x1a0>
   1c778:	00060513          	addi	a0,a2,0 # ffffe000 <__BSS_END__+0xffee9c68>
   1c77c:	00812c23          	sw	s0,24(sp)
   1c780:	00112e23          	sw	ra,28(sp)
   1c784:	00060413          	addi	s0,a2,0
   1c788:	1b4000ef          	jal	ra,1c93c <strcmp>
   1c78c:	000237b7          	lui	a5,0x23
   1c790:	02051263          	bne	a0,zero,1c7b4 <_setlocale_r+0x4c>
   1c794:	4a478513          	addi	a0,a5,1188 # 234a4 <__clzsi2+0x19c>
   1c798:	01c12083          	lw	ra,28(sp)
   1c79c:	01812403          	lw	s0,24(sp)
   1c7a0:	02010113          	addi	sp,sp,32
   1c7a4:	00008067          	jalr	zero,0(ra)
   1c7a8:	000237b7          	lui	a5,0x23
   1c7ac:	4a478513          	addi	a0,a5,1188 # 234a4 <__clzsi2+0x19c>
   1c7b0:	00008067          	jalr	zero,0(ra)
   1c7b4:	4a478593          	addi	a1,a5,1188
   1c7b8:	00040513          	addi	a0,s0,0
   1c7bc:	00f12623          	sw	a5,12(sp)
   1c7c0:	17c000ef          	jal	ra,1c93c <strcmp>
   1c7c4:	00c12783          	lw	a5,12(sp)
   1c7c8:	fc0506e3          	beq	a0,zero,1c794 <_setlocale_r+0x2c>
   1c7cc:	000235b7          	lui	a1,0x23
   1c7d0:	00040513          	addi	a0,s0,0
   1c7d4:	3ac58593          	addi	a1,a1,940 # 233ac <__clzsi2+0xa4>
   1c7d8:	164000ef          	jal	ra,1c93c <strcmp>
   1c7dc:	00c12783          	lw	a5,12(sp)
   1c7e0:	fa050ae3          	beq	a0,zero,1c794 <_setlocale_r+0x2c>
   1c7e4:	00000513          	addi	a0,zero,0
   1c7e8:	fb1ff06f          	jal	zero,1c798 <_setlocale_r+0x30>

0001c7ec <__locale_mb_cur_max>:
   1c7ec:	000707b7          	lui	a5,0x70
   1c7f0:	6707c503          	lbu	a0,1648(a5) # 70670 <__global_locale+0x128>
   1c7f4:	00008067          	jalr	zero,0(ra)

0001c7f8 <setlocale>:
   1c7f8:	04058063          	beq	a1,zero,1c838 <setlocale+0x40>
   1c7fc:	fe010113          	addi	sp,sp,-32
   1c800:	00812c23          	sw	s0,24(sp)
   1c804:	00058513          	addi	a0,a1,0
   1c808:	00058413          	addi	s0,a1,0
   1c80c:	000235b7          	lui	a1,0x23
   1c810:	4a858593          	addi	a1,a1,1192 # 234a8 <__clzsi2+0x1a0>
   1c814:	00112e23          	sw	ra,28(sp)
   1c818:	124000ef          	jal	ra,1c93c <strcmp>
   1c81c:	000237b7          	lui	a5,0x23
   1c820:	02051263          	bne	a0,zero,1c844 <setlocale+0x4c>
   1c824:	4a478513          	addi	a0,a5,1188 # 234a4 <__clzsi2+0x19c>
   1c828:	01c12083          	lw	ra,28(sp)
   1c82c:	01812403          	lw	s0,24(sp)
   1c830:	02010113          	addi	sp,sp,32
   1c834:	00008067          	jalr	zero,0(ra)
   1c838:	000237b7          	lui	a5,0x23
   1c83c:	4a478513          	addi	a0,a5,1188 # 234a4 <__clzsi2+0x19c>
   1c840:	00008067          	jalr	zero,0(ra)
   1c844:	4a478593          	addi	a1,a5,1188
   1c848:	00040513          	addi	a0,s0,0
   1c84c:	00f12623          	sw	a5,12(sp)
   1c850:	0ec000ef          	jal	ra,1c93c <strcmp>
   1c854:	00c12783          	lw	a5,12(sp)
   1c858:	fc0506e3          	beq	a0,zero,1c824 <setlocale+0x2c>
   1c85c:	000235b7          	lui	a1,0x23
   1c860:	00040513          	addi	a0,s0,0
   1c864:	3ac58593          	addi	a1,a1,940 # 233ac <__clzsi2+0xa4>
   1c868:	0d4000ef          	jal	ra,1c93c <strcmp>
   1c86c:	00c12783          	lw	a5,12(sp)
   1c870:	fa050ae3          	beq	a0,zero,1c824 <setlocale+0x2c>
   1c874:	00000513          	addi	a0,zero,0
   1c878:	fb1ff06f          	jal	zero,1c828 <setlocale+0x30>

0001c87c <_fstat_r>:
   1c87c:	ff010113          	addi	sp,sp,-16
   1c880:	00058793          	addi	a5,a1,0
   1c884:	00812423          	sw	s0,8(sp)
   1c888:	00912223          	sw	s1,4(sp)
   1c88c:	00060593          	addi	a1,a2,0
   1c890:	00050493          	addi	s1,a0,0
   1c894:	00078513          	addi	a0,a5,0
   1c898:	00112623          	sw	ra,12(sp)
   1c89c:	8801a423          	sw	zero,-1912(gp) # 70740 <errno>
   1c8a0:	6d1010ef          	jal	ra,1e770 <_fstat>
   1c8a4:	fff00793          	addi	a5,zero,-1
   1c8a8:	00f50c63          	beq	a0,a5,1c8c0 <_fstat_r+0x44>
   1c8ac:	00c12083          	lw	ra,12(sp)
   1c8b0:	00812403          	lw	s0,8(sp)
   1c8b4:	00412483          	lw	s1,4(sp)
   1c8b8:	01010113          	addi	sp,sp,16
   1c8bc:	00008067          	jalr	zero,0(ra)
   1c8c0:	8881a783          	lw	a5,-1912(gp) # 70740 <errno>
   1c8c4:	fe0784e3          	beq	a5,zero,1c8ac <_fstat_r+0x30>
   1c8c8:	00c12083          	lw	ra,12(sp)
   1c8cc:	00812403          	lw	s0,8(sp)
   1c8d0:	00f4a023          	sw	a5,0(s1)
   1c8d4:	00412483          	lw	s1,4(sp)
   1c8d8:	01010113          	addi	sp,sp,16
   1c8dc:	00008067          	jalr	zero,0(ra)

0001c8e0 <_isatty_r>:
   1c8e0:	ff010113          	addi	sp,sp,-16
   1c8e4:	00812423          	sw	s0,8(sp)
   1c8e8:	00912223          	sw	s1,4(sp)
   1c8ec:	00050493          	addi	s1,a0,0
   1c8f0:	00058513          	addi	a0,a1,0
   1c8f4:	00112623          	sw	ra,12(sp)
   1c8f8:	8801a423          	sw	zero,-1912(gp) # 70740 <errno>
   1c8fc:	6dd010ef          	jal	ra,1e7d8 <_isatty>
   1c900:	fff00793          	addi	a5,zero,-1
   1c904:	00f50c63          	beq	a0,a5,1c91c <_isatty_r+0x3c>
   1c908:	00c12083          	lw	ra,12(sp)
   1c90c:	00812403          	lw	s0,8(sp)
   1c910:	00412483          	lw	s1,4(sp)
   1c914:	01010113          	addi	sp,sp,16
   1c918:	00008067          	jalr	zero,0(ra)
   1c91c:	8881a783          	lw	a5,-1912(gp) # 70740 <errno>
   1c920:	fe0784e3          	beq	a5,zero,1c908 <_isatty_r+0x28>
   1c924:	00c12083          	lw	ra,12(sp)
   1c928:	00812403          	lw	s0,8(sp)
   1c92c:	00f4a023          	sw	a5,0(s1)
   1c930:	00412483          	lw	s1,4(sp)
   1c934:	01010113          	addi	sp,sp,16
   1c938:	00008067          	jalr	zero,0(ra)

0001c93c <strcmp>:
   1c93c:	00b56733          	or	a4,a0,a1
   1c940:	fff00393          	addi	t2,zero,-1
   1c944:	00377713          	andi	a4,a4,3
   1c948:	10071063          	bne	a4,zero,1ca48 <strcmp+0x10c>
   1c94c:	7f7f87b7          	lui	a5,0x7f7f8
   1c950:	f7f78793          	addi	a5,a5,-129 # 7f7f7f7f <__BSS_END__+0x7f6e3be7>
   1c954:	00052603          	lw	a2,0(a0)
   1c958:	0005a683          	lw	a3,0(a1)
   1c95c:	00f672b3          	and	t0,a2,a5
   1c960:	00f66333          	or	t1,a2,a5
   1c964:	00f282b3          	add	t0,t0,a5
   1c968:	0062e2b3          	or	t0,t0,t1
   1c96c:	10729263          	bne	t0,t2,1ca70 <strcmp+0x134>
   1c970:	08d61663          	bne	a2,a3,1c9fc <strcmp+0xc0>
   1c974:	00452603          	lw	a2,4(a0)
   1c978:	0045a683          	lw	a3,4(a1)
   1c97c:	00f672b3          	and	t0,a2,a5
   1c980:	00f66333          	or	t1,a2,a5
   1c984:	00f282b3          	add	t0,t0,a5
   1c988:	0062e2b3          	or	t0,t0,t1
   1c98c:	0c729e63          	bne	t0,t2,1ca68 <strcmp+0x12c>
   1c990:	06d61663          	bne	a2,a3,1c9fc <strcmp+0xc0>
   1c994:	00852603          	lw	a2,8(a0)
   1c998:	0085a683          	lw	a3,8(a1)
   1c99c:	00f672b3          	and	t0,a2,a5
   1c9a0:	00f66333          	or	t1,a2,a5
   1c9a4:	00f282b3          	add	t0,t0,a5
   1c9a8:	0062e2b3          	or	t0,t0,t1
   1c9ac:	0c729863          	bne	t0,t2,1ca7c <strcmp+0x140>
   1c9b0:	04d61663          	bne	a2,a3,1c9fc <strcmp+0xc0>
   1c9b4:	00c52603          	lw	a2,12(a0)
   1c9b8:	00c5a683          	lw	a3,12(a1)
   1c9bc:	00f672b3          	and	t0,a2,a5
   1c9c0:	00f66333          	or	t1,a2,a5
   1c9c4:	00f282b3          	add	t0,t0,a5
   1c9c8:	0062e2b3          	or	t0,t0,t1
   1c9cc:	0c729263          	bne	t0,t2,1ca90 <strcmp+0x154>
   1c9d0:	02d61663          	bne	a2,a3,1c9fc <strcmp+0xc0>
   1c9d4:	01052603          	lw	a2,16(a0)
   1c9d8:	0105a683          	lw	a3,16(a1)
   1c9dc:	00f672b3          	and	t0,a2,a5
   1c9e0:	00f66333          	or	t1,a2,a5
   1c9e4:	00f282b3          	add	t0,t0,a5
   1c9e8:	0062e2b3          	or	t0,t0,t1
   1c9ec:	0a729c63          	bne	t0,t2,1caa4 <strcmp+0x168>
   1c9f0:	01450513          	addi	a0,a0,20
   1c9f4:	01458593          	addi	a1,a1,20
   1c9f8:	f4d60ee3          	beq	a2,a3,1c954 <strcmp+0x18>
   1c9fc:	01061713          	slli	a4,a2,0x10
   1ca00:	01069793          	slli	a5,a3,0x10
   1ca04:	00f71e63          	bne	a4,a5,1ca20 <strcmp+0xe4>
   1ca08:	01065713          	srli	a4,a2,0x10
   1ca0c:	0106d793          	srli	a5,a3,0x10
   1ca10:	40f70533          	sub	a0,a4,a5
   1ca14:	0ff57593          	andi	a1,a0,255
   1ca18:	02059063          	bne	a1,zero,1ca38 <strcmp+0xfc>
   1ca1c:	00008067          	jalr	zero,0(ra)
   1ca20:	01075713          	srli	a4,a4,0x10
   1ca24:	0107d793          	srli	a5,a5,0x10
   1ca28:	40f70533          	sub	a0,a4,a5
   1ca2c:	0ff57593          	andi	a1,a0,255
   1ca30:	00059463          	bne	a1,zero,1ca38 <strcmp+0xfc>
   1ca34:	00008067          	jalr	zero,0(ra)
   1ca38:	0ff77713          	andi	a4,a4,255
   1ca3c:	0ff7f793          	andi	a5,a5,255
   1ca40:	40f70533          	sub	a0,a4,a5
   1ca44:	00008067          	jalr	zero,0(ra)
   1ca48:	00054603          	lbu	a2,0(a0)
   1ca4c:	0005c683          	lbu	a3,0(a1)
   1ca50:	00150513          	addi	a0,a0,1
   1ca54:	00158593          	addi	a1,a1,1
   1ca58:	00d61463          	bne	a2,a3,1ca60 <strcmp+0x124>
   1ca5c:	fe0616e3          	bne	a2,zero,1ca48 <strcmp+0x10c>
   1ca60:	40d60533          	sub	a0,a2,a3
   1ca64:	00008067          	jalr	zero,0(ra)
   1ca68:	00450513          	addi	a0,a0,4
   1ca6c:	00458593          	addi	a1,a1,4
   1ca70:	fcd61ce3          	bne	a2,a3,1ca48 <strcmp+0x10c>
   1ca74:	00000513          	addi	a0,zero,0
   1ca78:	00008067          	jalr	zero,0(ra)
   1ca7c:	00850513          	addi	a0,a0,8
   1ca80:	00858593          	addi	a1,a1,8
   1ca84:	fcd612e3          	bne	a2,a3,1ca48 <strcmp+0x10c>
   1ca88:	00000513          	addi	a0,zero,0
   1ca8c:	00008067          	jalr	zero,0(ra)
   1ca90:	00c50513          	addi	a0,a0,12
   1ca94:	00c58593          	addi	a1,a1,12
   1ca98:	fad618e3          	bne	a2,a3,1ca48 <strcmp+0x10c>
   1ca9c:	00000513          	addi	a0,zero,0
   1caa0:	00008067          	jalr	zero,0(ra)
   1caa4:	01050513          	addi	a0,a0,16
   1caa8:	01058593          	addi	a1,a1,16
   1caac:	f8d61ee3          	bne	a2,a3,1ca48 <strcmp+0x10c>
   1cab0:	00000513          	addi	a0,zero,0
   1cab4:	00008067          	jalr	zero,0(ra)

0001cab8 <__assert_func>:
   1cab8:	8741a783          	lw	a5,-1932(gp) # 7072c <_impure_ptr>
   1cabc:	ff010113          	addi	sp,sp,-16
   1cac0:	00060813          	addi	a6,a2,0
   1cac4:	00112623          	sw	ra,12(sp)
   1cac8:	00050313          	addi	t1,a0,0
   1cacc:	00058713          	addi	a4,a1,0
   1cad0:	00c7a503          	lw	a0,12(a5)
   1cad4:	00068613          	addi	a2,a3,0
   1cad8:	02080063          	beq	a6,zero,1caf8 <__assert_func+0x40>
   1cadc:	000237b7          	lui	a5,0x23
   1cae0:	4b478793          	addi	a5,a5,1204 # 234b4 <__clzsi2+0x1ac>
   1cae4:	000235b7          	lui	a1,0x23
   1cae8:	00030693          	addi	a3,t1,0
   1caec:	4c458593          	addi	a1,a1,1220 # 234c4 <__clzsi2+0x1bc>
   1caf0:	1f4000ef          	jal	ra,1cce4 <fiprintf>
   1caf4:	6a4010ef          	jal	ra,1e198 <abort>
   1caf8:	000237b7          	lui	a5,0x23
   1cafc:	3ac78793          	addi	a5,a5,940 # 233ac <__clzsi2+0xa4>
   1cb00:	00078813          	addi	a6,a5,0
   1cb04:	fe1ff06f          	jal	zero,1cae4 <__assert_func+0x2c>

0001cb08 <__assert>:
   1cb08:	ff010113          	addi	sp,sp,-16
   1cb0c:	00060693          	addi	a3,a2,0
   1cb10:	00000613          	addi	a2,zero,0
   1cb14:	00112623          	sw	ra,12(sp)
   1cb18:	fa1ff0ef          	jal	ra,1cab8 <__assert_func>

0001cb1c <_calloc_r>:
   1cb1c:	02c5b7b3          	mulhu	a5,a1,a2
   1cb20:	fe010113          	addi	sp,sp,-32
   1cb24:	00112e23          	sw	ra,28(sp)
   1cb28:	02c585b3          	mul	a1,a1,a2
   1cb2c:	0a079063          	bne	a5,zero,1cbcc <_calloc_r+0xb0>
   1cb30:	8c4f70ef          	jal	ra,13bf4 <_malloc_r>
   1cb34:	00050793          	addi	a5,a0,0
   1cb38:	0a050063          	beq	a0,zero,1cbd8 <_calloc_r+0xbc>
   1cb3c:	ffc52603          	lw	a2,-4(a0)
   1cb40:	02400693          	addi	a3,zero,36
   1cb44:	ffc67613          	andi	a2,a2,-4
   1cb48:	ffc60613          	addi	a2,a2,-4
   1cb4c:	04c6e663          	bltu	a3,a2,1cb98 <_calloc_r+0x7c>
   1cb50:	01300593          	addi	a1,zero,19
   1cb54:	00050713          	addi	a4,a0,0
   1cb58:	02c5f263          	bgeu	a1,a2,1cb7c <_calloc_r+0x60>
   1cb5c:	00052023          	sw	zero,0(a0)
   1cb60:	00052223          	sw	zero,4(a0)
   1cb64:	01b00713          	addi	a4,zero,27
   1cb68:	04c77863          	bgeu	a4,a2,1cbb8 <_calloc_r+0x9c>
   1cb6c:	00052423          	sw	zero,8(a0)
   1cb70:	00052623          	sw	zero,12(a0)
   1cb74:	01050713          	addi	a4,a0,16
   1cb78:	06d60a63          	beq	a2,a3,1cbec <_calloc_r+0xd0>
   1cb7c:	00072023          	sw	zero,0(a4)
   1cb80:	00072223          	sw	zero,4(a4)
   1cb84:	00072423          	sw	zero,8(a4)
   1cb88:	01c12083          	lw	ra,28(sp)
   1cb8c:	00078513          	addi	a0,a5,0
   1cb90:	02010113          	addi	sp,sp,32
   1cb94:	00008067          	jalr	zero,0(ra)
   1cb98:	00000593          	addi	a1,zero,0
   1cb9c:	00a12623          	sw	a0,12(sp)
   1cba0:	a1df60ef          	jal	ra,135bc <memset>
   1cba4:	00c12783          	lw	a5,12(sp)
   1cba8:	01c12083          	lw	ra,28(sp)
   1cbac:	00078513          	addi	a0,a5,0
   1cbb0:	02010113          	addi	sp,sp,32
   1cbb4:	00008067          	jalr	zero,0(ra)
   1cbb8:	00850713          	addi	a4,a0,8
   1cbbc:	00072023          	sw	zero,0(a4)
   1cbc0:	00072223          	sw	zero,4(a4)
   1cbc4:	00072423          	sw	zero,8(a4)
   1cbc8:	fc1ff06f          	jal	zero,1cb88 <_calloc_r+0x6c>
   1cbcc:	5c4010ef          	jal	ra,1e190 <__errno>
   1cbd0:	00c00793          	addi	a5,zero,12
   1cbd4:	00f52023          	sw	a5,0(a0)
   1cbd8:	01c12083          	lw	ra,28(sp)
   1cbdc:	00000793          	addi	a5,zero,0
   1cbe0:	00078513          	addi	a0,a5,0
   1cbe4:	02010113          	addi	sp,sp,32
   1cbe8:	00008067          	jalr	zero,0(ra)
   1cbec:	00052823          	sw	zero,16(a0)
   1cbf0:	00052a23          	sw	zero,20(a0)
   1cbf4:	01850713          	addi	a4,a0,24
   1cbf8:	f85ff06f          	jal	zero,1cb7c <_calloc_r+0x60>

0001cbfc <_mbtowc_r>:
   1cbfc:	000707b7          	lui	a5,0x70
   1cc00:	62c7a783          	lw	a5,1580(a5) # 7062c <__global_locale+0xe4>
   1cc04:	00078067          	jalr	zero,0(a5)

0001cc08 <__ascii_mbtowc>:
   1cc08:	02058063          	beq	a1,zero,1cc28 <__ascii_mbtowc+0x20>
   1cc0c:	04060263          	beq	a2,zero,1cc50 <__ascii_mbtowc+0x48>
   1cc10:	04068863          	beq	a3,zero,1cc60 <__ascii_mbtowc+0x58>
   1cc14:	00064783          	lbu	a5,0(a2)
   1cc18:	00f5a023          	sw	a5,0(a1)
   1cc1c:	00064503          	lbu	a0,0(a2)
   1cc20:	00a03533          	sltu	a0,zero,a0
   1cc24:	00008067          	jalr	zero,0(ra)
   1cc28:	ff010113          	addi	sp,sp,-16
   1cc2c:	00c10593          	addi	a1,sp,12
   1cc30:	02060463          	beq	a2,zero,1cc58 <__ascii_mbtowc+0x50>
   1cc34:	02068a63          	beq	a3,zero,1cc68 <__ascii_mbtowc+0x60>
   1cc38:	00064783          	lbu	a5,0(a2)
   1cc3c:	00f5a023          	sw	a5,0(a1)
   1cc40:	00064503          	lbu	a0,0(a2)
   1cc44:	00a03533          	sltu	a0,zero,a0
   1cc48:	01010113          	addi	sp,sp,16
   1cc4c:	00008067          	jalr	zero,0(ra)
   1cc50:	00000513          	addi	a0,zero,0
   1cc54:	00008067          	jalr	zero,0(ra)
   1cc58:	00000513          	addi	a0,zero,0
   1cc5c:	fedff06f          	jal	zero,1cc48 <__ascii_mbtowc+0x40>
   1cc60:	ffe00513          	addi	a0,zero,-2
   1cc64:	00008067          	jalr	zero,0(ra)
   1cc68:	ffe00513          	addi	a0,zero,-2
   1cc6c:	fddff06f          	jal	zero,1cc48 <__ascii_mbtowc+0x40>

0001cc70 <_wctomb_r>:
   1cc70:	000707b7          	lui	a5,0x70
   1cc74:	6287a783          	lw	a5,1576(a5) # 70628 <__global_locale+0xe0>
   1cc78:	00078067          	jalr	zero,0(a5)

0001cc7c <__ascii_wctomb>:
   1cc7c:	02058463          	beq	a1,zero,1cca4 <__ascii_wctomb+0x28>
   1cc80:	0ff00793          	addi	a5,zero,255
   1cc84:	00c7e863          	bltu	a5,a2,1cc94 <__ascii_wctomb+0x18>
   1cc88:	00c58023          	sb	a2,0(a1)
   1cc8c:	00100513          	addi	a0,zero,1
   1cc90:	00008067          	jalr	zero,0(ra)
   1cc94:	08a00793          	addi	a5,zero,138
   1cc98:	00f52023          	sw	a5,0(a0)
   1cc9c:	fff00513          	addi	a0,zero,-1
   1cca0:	00008067          	jalr	zero,0(ra)
   1cca4:	00000513          	addi	a0,zero,0
   1cca8:	00008067          	jalr	zero,0(ra)

0001ccac <_fiprintf_r>:
   1ccac:	fc010113          	addi	sp,sp,-64
   1ccb0:	02c10313          	addi	t1,sp,44
   1ccb4:	02d12623          	sw	a3,44(sp)
   1ccb8:	00030693          	addi	a3,t1,0
   1ccbc:	00112e23          	sw	ra,28(sp)
   1ccc0:	02e12823          	sw	a4,48(sp)
   1ccc4:	02f12a23          	sw	a5,52(sp)
   1ccc8:	03012c23          	sw	a6,56(sp)
   1cccc:	03112e23          	sw	a7,60(sp)
   1ccd0:	00612623          	sw	t1,12(sp)
   1ccd4:	060000ef          	jal	ra,1cd34 <_vfiprintf_r>
   1ccd8:	01c12083          	lw	ra,28(sp)
   1ccdc:	04010113          	addi	sp,sp,64
   1cce0:	00008067          	jalr	zero,0(ra)

0001cce4 <fiprintf>:
   1cce4:	fc010113          	addi	sp,sp,-64
   1cce8:	00050e93          	addi	t4,a0,0
   1ccec:	8741a503          	lw	a0,-1932(gp) # 7072c <_impure_ptr>
   1ccf0:	00058e13          	addi	t3,a1,0
   1ccf4:	02810313          	addi	t1,sp,40
   1ccf8:	02c12423          	sw	a2,40(sp)
   1ccfc:	02d12623          	sw	a3,44(sp)
   1cd00:	000e8593          	addi	a1,t4,0
   1cd04:	000e0613          	addi	a2,t3,0
   1cd08:	00030693          	addi	a3,t1,0
   1cd0c:	00112e23          	sw	ra,28(sp)
   1cd10:	02e12823          	sw	a4,48(sp)
   1cd14:	02f12a23          	sw	a5,52(sp)
   1cd18:	03012c23          	sw	a6,56(sp)
   1cd1c:	03112e23          	sw	a7,60(sp)
   1cd20:	00612623          	sw	t1,12(sp)
   1cd24:	010000ef          	jal	ra,1cd34 <_vfiprintf_r>
   1cd28:	01c12083          	lw	ra,28(sp)
   1cd2c:	04010113          	addi	sp,sp,64
   1cd30:	00008067          	jalr	zero,0(ra)

0001cd34 <_vfiprintf_r>:
   1cd34:	ed010113          	addi	sp,sp,-304
   1cd38:	12912223          	sw	s1,292(sp)
   1cd3c:	11312e23          	sw	s3,284(sp)
   1cd40:	11412c23          	sw	s4,280(sp)
   1cd44:	11512a23          	sw	s5,276(sp)
   1cd48:	12112623          	sw	ra,300(sp)
   1cd4c:	11812423          	sw	s8,264(sp)
   1cd50:	00050a93          	addi	s5,a0,0
   1cd54:	00060493          	addi	s1,a2,0
   1cd58:	00068a13          	addi	s4,a3,0
   1cd5c:	00058993          	addi	s3,a1,0
   1cd60:	00050863          	beq	a0,zero,1cd70 <_vfiprintf_r+0x3c>
   1cd64:	03452783          	lw	a5,52(a0)
   1cd68:	00079463          	bne	a5,zero,1cd70 <_vfiprintf_r+0x3c>
   1cd6c:	0840106f          	jal	zero,1ddf0 <_vfiprintf_r+0x10bc>
   1cd70:	00c99783          	lh	a5,12(s3)
   1cd74:	0649a703          	lw	a4,100(s3)
   1cd78:	00002637          	lui	a2,0x2
   1cd7c:	01279693          	slli	a3,a5,0x12
   1cd80:	3406cc63          	blt	a3,zero,1d0d8 <_vfiprintf_r+0x3a4>
   1cd84:	ffffe6b7          	lui	a3,0xffffe
   1cd88:	00c7e7b3          	or	a5,a5,a2
   1cd8c:	fff68693          	addi	a3,a3,-1 # ffffdfff <__BSS_END__+0xffee9c67>
   1cd90:	00d77733          	and	a4,a4,a3
   1cd94:	00f99623          	sh	a5,12(s3)
   1cd98:	01079793          	slli	a5,a5,0x10
   1cd9c:	4107d793          	srai	a5,a5,0x10
   1cda0:	06e9a223          	sw	a4,100(s3)
   1cda4:	0087f713          	andi	a4,a5,8
   1cda8:	26070463          	beq	a4,zero,1d010 <_vfiprintf_r+0x2dc>
   1cdac:	0109a703          	lw	a4,16(s3)
   1cdb0:	26070063          	beq	a4,zero,1d010 <_vfiprintf_r+0x2dc>
   1cdb4:	01a7f793          	andi	a5,a5,26
   1cdb8:	00a00713          	addi	a4,zero,10
   1cdbc:	26e78a63          	beq	a5,a4,1d030 <_vfiprintf_r+0x2fc>
   1cdc0:	11912223          	sw	s9,260(sp)
   1cdc4:	00070cb7          	lui	s9,0x70
   1cdc8:	11612823          	sw	s6,272(sp)
   1cdcc:	11712623          	sw	s7,268(sp)
   1cdd0:	04c10b13          	addi	s6,sp,76
   1cdd4:	00070bb7          	lui	s7,0x70
   1cdd8:	cfcc8713          	addi	a4,s9,-772 # 6fcfc <_ctype_+0x104>
   1cddc:	13212023          	sw	s2,288(sp)
   1cde0:	12812423          	sw	s0,296(sp)
   1cde4:	11a12023          	sw	s10,256(sp)
   1cde8:	0fb12e23          	sw	s11,252(sp)
   1cdec:	04012423          	sw	zero,72(sp)
   1cdf0:	04012223          	sw	zero,68(sp)
   1cdf4:	05612023          	sw	s6,64(sp)
   1cdf8:	000b0793          	addi	a5,s6,0
   1cdfc:	00e12623          	sw	a4,12(sp)
   1ce00:	e68b8b93          	addi	s7,s7,-408 # 6fe68 <zeroes.0>
   1ce04:	00012823          	sw	zero,16(sp)
   1ce08:	02012023          	sw	zero,32(sp)
   1ce0c:	02012223          	sw	zero,36(sp)
   1ce10:	00000c13          	addi	s8,zero,0
   1ce14:	01000913          	addi	s2,zero,16
   1ce18:	0004c703          	lbu	a4,0(s1)
   1ce1c:	00048413          	addi	s0,s1,0
   1ce20:	fdb70693          	addi	a3,a4,-37
   1ce24:	04068e63          	beq	a3,zero,1ce80 <_vfiprintf_r+0x14c>
   1ce28:	04070c63          	beq	a4,zero,1ce80 <_vfiprintf_r+0x14c>
   1ce2c:	00040c93          	addi	s9,s0,0
   1ce30:	00144703          	lbu	a4,1(s0)
   1ce34:	00140413          	addi	s0,s0,1
   1ce38:	00070663          	beq	a4,zero,1ce44 <_vfiprintf_r+0x110>
   1ce3c:	fdb70693          	addi	a3,a4,-37
   1ce40:	fe0696e3          	bne	a3,zero,1ce2c <_vfiprintf_r+0xf8>
   1ce44:	40940d33          	sub	s10,s0,s1
   1ce48:	02940c63          	beq	s0,s1,1ce80 <_vfiprintf_r+0x14c>
   1ce4c:	04812683          	lw	a3,72(sp)
   1ce50:	04412703          	lw	a4,68(sp)
   1ce54:	0097a023          	sw	s1,0(a5)
   1ce58:	01a686b3          	add	a3,a3,s10
   1ce5c:	00170713          	addi	a4,a4,1
   1ce60:	01a7a223          	sw	s10,4(a5)
   1ce64:	04d12423          	sw	a3,72(sp)
   1ce68:	04e12223          	sw	a4,68(sp)
   1ce6c:	00700693          	addi	a3,zero,7
   1ce70:	00878793          	addi	a5,a5,8
   1ce74:	1ee6ca63          	blt	a3,a4,1d068 <_vfiprintf_r+0x334>
   1ce78:	001cc703          	lbu	a4,1(s9)
   1ce7c:	01ac0c33          	add	s8,s8,s10
   1ce80:	20070263          	beq	a4,zero,1d084 <_vfiprintf_r+0x350>
   1ce84:	00144683          	lbu	a3,1(s0)
   1ce88:	00140493          	addi	s1,s0,1
   1ce8c:	02010da3          	sb	zero,59(sp)
   1ce90:	fff00413          	addi	s0,zero,-1
   1ce94:	00000c93          	addi	s9,zero,0
   1ce98:	00000d13          	addi	s10,zero,0
   1ce9c:	05a00d93          	addi	s11,zero,90
   1cea0:	00148493          	addi	s1,s1,1
   1cea4:	fe068713          	addi	a4,a3,-32
   1cea8:	04ede663          	bltu	s11,a4,1cef4 <_vfiprintf_r+0x1c0>
   1ceac:	00c12603          	lw	a2,12(sp)
   1ceb0:	00271713          	slli	a4,a4,0x2
   1ceb4:	00c70733          	add	a4,a4,a2
   1ceb8:	00072703          	lw	a4,0(a4)
   1cebc:	00070067          	jalr	zero,0(a4)
   1cec0:	fd068713          	addi	a4,a3,-48
   1cec4:	00000c93          	addi	s9,zero,0
   1cec8:	00900593          	addi	a1,zero,9
   1cecc:	002c9613          	slli	a2,s9,0x2
   1ced0:	0004c683          	lbu	a3,0(s1)
   1ced4:	01960cb3          	add	s9,a2,s9
   1ced8:	001c9c93          	slli	s9,s9,0x1
   1cedc:	01970cb3          	add	s9,a4,s9
   1cee0:	fd068713          	addi	a4,a3,-48
   1cee4:	00148493          	addi	s1,s1,1
   1cee8:	fee5f2e3          	bgeu	a1,a4,1cecc <_vfiprintf_r+0x198>
   1ceec:	fe068713          	addi	a4,a3,-32
   1cef0:	faedfee3          	bgeu	s11,a4,1ceac <_vfiprintf_r+0x178>
   1cef4:	18068863          	beq	a3,zero,1d084 <_vfiprintf_r+0x350>
   1cef8:	00100313          	addi	t1,zero,1
   1cefc:	08d10623          	sb	a3,140(sp)
   1cf00:	02010da3          	sb	zero,59(sp)
   1cf04:	00030813          	addi	a6,t1,0
   1cf08:	00000413          	addi	s0,zero,0
   1cf0c:	08c10d93          	addi	s11,sp,140
   1cf10:	04812583          	lw	a1,72(sp)
   1cf14:	04412603          	lw	a2,68(sp)
   1cf18:	084d7893          	andi	a7,s10,132
   1cf1c:	00058693          	addi	a3,a1,0
   1cf20:	00060713          	addi	a4,a2,0 # 2000 <exit-0xe0b4>
   1cf24:	06089c63          	bne	a7,zero,1cf9c <_vfiprintf_r+0x268>
   1cf28:	410c8e33          	sub	t3,s9,a6
   1cf2c:	2dc044e3          	blt	zero,t3,1d9f4 <_vfiprintf_r+0xcc0>
   1cf30:	03b14603          	lbu	a2,59(sp)
   1cf34:	06060863          	beq	a2,zero,1cfa4 <_vfiprintf_r+0x270>
   1cf38:	00000893          	addi	a7,zero,0
   1cf3c:	00000e93          	addi	t4,zero,0
   1cf40:	03b10613          	addi	a2,sp,59
   1cf44:	00c7a023          	sw	a2,0(a5)
   1cf48:	00168693          	addi	a3,a3,1
   1cf4c:	00100613          	addi	a2,zero,1
   1cf50:	00170713          	addi	a4,a4,1
   1cf54:	00c7a223          	sw	a2,4(a5)
   1cf58:	04d12423          	sw	a3,72(sp)
   1cf5c:	04e12223          	sw	a4,68(sp)
   1cf60:	00700613          	addi	a2,zero,7
   1cf64:	00878793          	addi	a5,a5,8
   1cf68:	18e64063          	blt	a2,a4,1d0e8 <_vfiprintf_r+0x3b4>
   1cf6c:	020e8863          	beq	t4,zero,1cf9c <_vfiprintf_r+0x268>
   1cf70:	03c10613          	addi	a2,sp,60
   1cf74:	00c7a023          	sw	a2,0(a5)
   1cf78:	00268693          	addi	a3,a3,2
   1cf7c:	00200613          	addi	a2,zero,2
   1cf80:	00170713          	addi	a4,a4,1
   1cf84:	00c7a223          	sw	a2,4(a5)
   1cf88:	04d12423          	sw	a3,72(sp)
   1cf8c:	04e12223          	sw	a4,68(sp)
   1cf90:	00700613          	addi	a2,zero,7
   1cf94:	00878793          	addi	a5,a5,8
   1cf98:	1ce644e3          	blt	a2,a4,1d960 <_vfiprintf_r+0xc2c>
   1cf9c:	08000613          	addi	a2,zero,128
   1cfa0:	7ac88463          	beq	a7,a2,1d748 <_vfiprintf_r+0xa14>
   1cfa4:	40640433          	sub	s0,s0,t1
   1cfa8:	0a8040e3          	blt	zero,s0,1d848 <_vfiprintf_r+0xb14>
   1cfac:	00d306b3          	add	a3,t1,a3
   1cfb0:	00170713          	addi	a4,a4,1
   1cfb4:	01b7a023          	sw	s11,0(a5)
   1cfb8:	0067a223          	sw	t1,4(a5)
   1cfbc:	04d12423          	sw	a3,72(sp)
   1cfc0:	04e12223          	sw	a4,68(sp)
   1cfc4:	00700613          	addi	a2,zero,7
   1cfc8:	00878793          	addi	a5,a5,8
   1cfcc:	14e64ae3          	blt	a2,a4,1d920 <_vfiprintf_r+0xbec>
   1cfd0:	004d7d13          	andi	s10,s10,4
   1cfd4:	000d0663          	beq	s10,zero,1cfe0 <_vfiprintf_r+0x2ac>
   1cfd8:	410c8433          	sub	s0,s9,a6
   1cfdc:	14804863          	blt	zero,s0,1d12c <_vfiprintf_r+0x3f8>
   1cfe0:	010cd463          	bge	s9,a6,1cfe8 <_vfiprintf_r+0x2b4>
   1cfe4:	00080c93          	addi	s9,a6,0
   1cfe8:	019c0c33          	add	s8,s8,s9
   1cfec:	14069ee3          	bne	a3,zero,1d948 <_vfiprintf_r+0xc14>
   1cff0:	04012223          	sw	zero,68(sp)
   1cff4:	000b0793          	addi	a5,s6,0
   1cff8:	e21ff06f          	jal	zero,1ce18 <_vfiprintf_r+0xe4>
   1cffc:	0004c683          	lbu	a3,0(s1)
   1d000:	ea1ff06f          	jal	zero,1cea0 <_vfiprintf_r+0x16c>
   1d004:	0004c683          	lbu	a3,0(s1)
   1d008:	020d6d13          	ori	s10,s10,32
   1d00c:	e95ff06f          	jal	zero,1cea0 <_vfiprintf_r+0x16c>
   1d010:	00098593          	addi	a1,s3,0
   1d014:	000a8513          	addi	a0,s5,0
   1d018:	f21fa0ef          	jal	ra,17f38 <__swsetup_r>
   1d01c:	0c051263          	bne	a0,zero,1d0e0 <_vfiprintf_r+0x3ac>
   1d020:	00c99783          	lh	a5,12(s3)
   1d024:	00a00713          	addi	a4,zero,10
   1d028:	01a7f793          	andi	a5,a5,26
   1d02c:	d8e79ae3          	bne	a5,a4,1cdc0 <_vfiprintf_r+0x8c>
   1d030:	00e99783          	lh	a5,14(s3)
   1d034:	d807c6e3          	blt	a5,zero,1cdc0 <_vfiprintf_r+0x8c>
   1d038:	12c12083          	lw	ra,300(sp)
   1d03c:	10812c03          	lw	s8,264(sp)
   1d040:	000a0693          	addi	a3,s4,0
   1d044:	00048613          	addi	a2,s1,0
   1d048:	11812a03          	lw	s4,280(sp)
   1d04c:	12412483          	lw	s1,292(sp)
   1d050:	00098593          	addi	a1,s3,0
   1d054:	000a8513          	addi	a0,s5,0
   1d058:	11c12983          	lw	s3,284(sp)
   1d05c:	11412a83          	lw	s5,276(sp)
   1d060:	13010113          	addi	sp,sp,304
   1d064:	06c0106f          	jal	zero,1e0d0 <__sbprintf>
   1d068:	04010613          	addi	a2,sp,64
   1d06c:	00098593          	addi	a1,s3,0
   1d070:	000a8513          	addi	a0,s5,0
   1d074:	d64fa0ef          	jal	ra,175d8 <__sprint_r>
   1d078:	00051a63          	bne	a0,zero,1d08c <_vfiprintf_r+0x358>
   1d07c:	000b0793          	addi	a5,s6,0
   1d080:	df9ff06f          	jal	zero,1ce78 <_vfiprintf_r+0x144>
   1d084:	04812783          	lw	a5,72(sp)
   1d088:	660794e3          	bne	a5,zero,1def0 <_vfiprintf_r+0x11bc>
   1d08c:	00c9d783          	lhu	a5,12(s3)
   1d090:	12812403          	lw	s0,296(sp)
   1d094:	12012903          	lw	s2,288(sp)
   1d098:	0407f793          	andi	a5,a5,64
   1d09c:	11012b03          	lw	s6,272(sp)
   1d0a0:	10c12b83          	lw	s7,268(sp)
   1d0a4:	10412c83          	lw	s9,260(sp)
   1d0a8:	10012d03          	lw	s10,256(sp)
   1d0ac:	0fc12d83          	lw	s11,252(sp)
   1d0b0:	02079863          	bne	a5,zero,1d0e0 <_vfiprintf_r+0x3ac>
   1d0b4:	12c12083          	lw	ra,300(sp)
   1d0b8:	12412483          	lw	s1,292(sp)
   1d0bc:	11c12983          	lw	s3,284(sp)
   1d0c0:	11812a03          	lw	s4,280(sp)
   1d0c4:	11412a83          	lw	s5,276(sp)
   1d0c8:	000c0513          	addi	a0,s8,0
   1d0cc:	10812c03          	lw	s8,264(sp)
   1d0d0:	13010113          	addi	sp,sp,304
   1d0d4:	00008067          	jalr	zero,0(ra)
   1d0d8:	01271693          	slli	a3,a4,0x12
   1d0dc:	cc06d4e3          	bge	a3,zero,1cda4 <_vfiprintf_r+0x70>
   1d0e0:	fff00c13          	addi	s8,zero,-1
   1d0e4:	fd1ff06f          	jal	zero,1d0b4 <_vfiprintf_r+0x380>
   1d0e8:	04010613          	addi	a2,sp,64
   1d0ec:	00098593          	addi	a1,s3,0
   1d0f0:	000a8513          	addi	a0,s5,0
   1d0f4:	02612423          	sw	t1,40(sp)
   1d0f8:	01112e23          	sw	a7,28(sp)
   1d0fc:	01d12c23          	sw	t4,24(sp)
   1d100:	01012a23          	sw	a6,20(sp)
   1d104:	cd4fa0ef          	jal	ra,175d8 <__sprint_r>
   1d108:	f80512e3          	bne	a0,zero,1d08c <_vfiprintf_r+0x358>
   1d10c:	04812683          	lw	a3,72(sp)
   1d110:	04412703          	lw	a4,68(sp)
   1d114:	02812303          	lw	t1,40(sp)
   1d118:	01c12883          	lw	a7,28(sp)
   1d11c:	01812e83          	lw	t4,24(sp)
   1d120:	01412803          	lw	a6,20(sp)
   1d124:	000b0793          	addi	a5,s6,0
   1d128:	e45ff06f          	jal	zero,1cf6c <_vfiprintf_r+0x238>
   1d12c:	01000d13          	addi	s10,zero,16
   1d130:	04412703          	lw	a4,68(sp)
   1d134:	000708b7          	lui	a7,0x70
   1d138:	728d54e3          	bge	s10,s0,1e060 <_vfiprintf_r+0x132c>
   1d13c:	00912c23          	sw	s1,24(sp)
   1d140:	00700d93          	addi	s11,zero,7
   1d144:	01012a23          	sw	a6,20(sp)
   1d148:	e7888493          	addi	s1,a7,-392 # 6fe78 <blanks.1>
   1d14c:	00c0006f          	jal	zero,1d158 <_vfiprintf_r+0x424>
   1d150:	ff040413          	addi	s0,s0,-16
   1d154:	048d5663          	bge	s10,s0,1d1a0 <_vfiprintf_r+0x46c>
   1d158:	01068693          	addi	a3,a3,16
   1d15c:	00170713          	addi	a4,a4,1
   1d160:	0097a023          	sw	s1,0(a5)
   1d164:	01a7a223          	sw	s10,4(a5)
   1d168:	04d12423          	sw	a3,72(sp)
   1d16c:	04e12223          	sw	a4,68(sp)
   1d170:	00878793          	addi	a5,a5,8
   1d174:	fceddee3          	bge	s11,a4,1d150 <_vfiprintf_r+0x41c>
   1d178:	04010613          	addi	a2,sp,64
   1d17c:	00098593          	addi	a1,s3,0
   1d180:	000a8513          	addi	a0,s5,0
   1d184:	c54fa0ef          	jal	ra,175d8 <__sprint_r>
   1d188:	f00512e3          	bne	a0,zero,1d08c <_vfiprintf_r+0x358>
   1d18c:	ff040413          	addi	s0,s0,-16
   1d190:	04812683          	lw	a3,72(sp)
   1d194:	04412703          	lw	a4,68(sp)
   1d198:	000b0793          	addi	a5,s6,0
   1d19c:	fa8d4ee3          	blt	s10,s0,1d158 <_vfiprintf_r+0x424>
   1d1a0:	00048893          	addi	a7,s1,0
   1d1a4:	01412803          	lw	a6,20(sp)
   1d1a8:	01812483          	lw	s1,24(sp)
   1d1ac:	008686b3          	add	a3,a3,s0
   1d1b0:	00170713          	addi	a4,a4,1
   1d1b4:	0117a023          	sw	a7,0(a5)
   1d1b8:	0087a223          	sw	s0,4(a5)
   1d1bc:	04d12423          	sw	a3,72(sp)
   1d1c0:	04e12223          	sw	a4,68(sp)
   1d1c4:	00700793          	addi	a5,zero,7
   1d1c8:	e0e7dce3          	bge	a5,a4,1cfe0 <_vfiprintf_r+0x2ac>
   1d1cc:	04010613          	addi	a2,sp,64
   1d1d0:	00098593          	addi	a1,s3,0
   1d1d4:	000a8513          	addi	a0,s5,0
   1d1d8:	01012a23          	sw	a6,20(sp)
   1d1dc:	bfcfa0ef          	jal	ra,175d8 <__sprint_r>
   1d1e0:	ea0516e3          	bne	a0,zero,1d08c <_vfiprintf_r+0x358>
   1d1e4:	04812683          	lw	a3,72(sp)
   1d1e8:	01412803          	lw	a6,20(sp)
   1d1ec:	df5ff06f          	jal	zero,1cfe0 <_vfiprintf_r+0x2ac>
   1d1f0:	020d7713          	andi	a4,s10,32
   1d1f4:	10071463          	bne	a4,zero,1d2fc <_vfiprintf_r+0x5c8>
   1d1f8:	010d7713          	andi	a4,s10,16
   1d1fc:	000a2883          	lw	a7,0(s4)
   1d200:	004a0593          	addi	a1,s4,4
   1d204:	18071ee3          	bne	a4,zero,1dba0 <_vfiprintf_r+0xe6c>
   1d208:	040d7713          	andi	a4,s10,64
   1d20c:	42070ee3          	beq	a4,zero,1de48 <_vfiprintf_r+0x1114>
   1d210:	01089893          	slli	a7,a7,0x10
   1d214:	4108d893          	srai	a7,a7,0x10
   1d218:	41f8d693          	srai	a3,a7,0x1f
   1d21c:	00058a13          	addi	s4,a1,0
   1d220:	00068613          	addi	a2,a3,0
   1d224:	0e064a63          	blt	a2,zero,1d318 <_vfiprintf_r+0x5e4>
   1d228:	10044863          	blt	s0,zero,1d338 <_vfiprintf_r+0x604>
   1d22c:	f7fd7d13          	andi	s10,s10,-129
   1d230:	10041463          	bne	s0,zero,1d338 <_vfiprintf_r+0x604>
   1d234:	00d8e733          	or	a4,a7,a3
   1d238:	10071063          	bne	a4,zero,1d338 <_vfiprintf_r+0x604>
   1d23c:	03b14703          	lbu	a4,59(sp)
   1d240:	00000313          	addi	t1,zero,0
   1d244:	00000413          	addi	s0,zero,0
   1d248:	0f010d93          	addi	s11,sp,240
   1d24c:	1e070c63          	beq	a4,zero,1d444 <_vfiprintf_r+0x710>
   1d250:	00100813          	addi	a6,zero,1
   1d254:	04812683          	lw	a3,72(sp)
   1d258:	04412703          	lw	a4,68(sp)
   1d25c:	084d7893          	andi	a7,s10,132
   1d260:	00068593          	addi	a1,a3,0
   1d264:	00070613          	addi	a2,a4,0
   1d268:	cc0880e3          	beq	a7,zero,1cf28 <_vfiprintf_r+0x1f4>
   1d26c:	00000e93          	addi	t4,zero,0
   1d270:	cd1ff06f          	jal	zero,1cf40 <_vfiprintf_r+0x20c>
   1d274:	000a2d83          	lw	s11,0(s4)
   1d278:	02010da3          	sb	zero,59(sp)
   1d27c:	004a0a13          	addi	s4,s4,4
   1d280:	3a0d84e3          	beq	s11,zero,1de28 <_vfiprintf_r+0x10f4>
   1d284:	00f12a23          	sw	a5,20(sp)
   1d288:	260440e3          	blt	s0,zero,1dce8 <_vfiprintf_r+0xfb4>
   1d28c:	00040613          	addi	a2,s0,0
   1d290:	00000593          	addi	a1,zero,0
   1d294:	000d8513          	addi	a0,s11,0
   1d298:	e05fa0ef          	jal	ra,1809c <memchr>
   1d29c:	03b14703          	lbu	a4,59(sp)
   1d2a0:	01412783          	lw	a5,20(sp)
   1d2a4:	5a0500e3          	beq	a0,zero,1e044 <_vfiprintf_r+0x1310>
   1d2a8:	41b50333          	sub	t1,a0,s11
   1d2ac:	fff34813          	xori	a6,t1,-1
   1d2b0:	41f85813          	srai	a6,a6,0x1f
   1d2b4:	01037833          	and	a6,t1,a6
   1d2b8:	24070ae3          	beq	a4,zero,1dd0c <_vfiprintf_r+0xfd8>
   1d2bc:	00180813          	addi	a6,a6,1
   1d2c0:	00000413          	addi	s0,zero,0
   1d2c4:	f91ff06f          	jal	zero,1d254 <_vfiprintf_r+0x520>
   1d2c8:	000a2703          	lw	a4,0(s4)
   1d2cc:	00100313          	addi	t1,zero,1
   1d2d0:	02010da3          	sb	zero,59(sp)
   1d2d4:	08e10623          	sb	a4,140(sp)
   1d2d8:	004a0a13          	addi	s4,s4,4
   1d2dc:	00030813          	addi	a6,t1,0
   1d2e0:	00000413          	addi	s0,zero,0
   1d2e4:	08c10d93          	addi	s11,sp,140
   1d2e8:	c29ff06f          	jal	zero,1cf10 <_vfiprintf_r+0x1dc>
   1d2ec:	020d7713          	andi	a4,s10,32
   1d2f0:	004a0593          	addi	a1,s4,4
   1d2f4:	010d6d13          	ori	s10,s10,16
   1d2f8:	0a0704e3          	beq	a4,zero,1dba0 <_vfiprintf_r+0xe6c>
   1d2fc:	007a0713          	addi	a4,s4,7
   1d300:	ff877713          	andi	a4,a4,-8
   1d304:	00472603          	lw	a2,4(a4)
   1d308:	00072883          	lw	a7,0(a4)
   1d30c:	00870a13          	addi	s4,a4,8
   1d310:	00060693          	addi	a3,a2,0
   1d314:	f0065ae3          	bge	a2,zero,1d228 <_vfiprintf_r+0x4f4>
   1d318:	01103733          	sltu	a4,zero,a7
   1d31c:	40d006b3          	sub	a3,zero,a3
   1d320:	40e686b3          	sub	a3,a3,a4
   1d324:	02d00713          	addi	a4,zero,45
   1d328:	02e10da3          	sb	a4,59(sp)
   1d32c:	411008b3          	sub	a7,zero,a7
   1d330:	00044463          	blt	s0,zero,1d338 <_vfiprintf_r+0x604>
   1d334:	f7fd7d13          	andi	s10,s10,-129
   1d338:	12069e63          	bne	a3,zero,1d474 <_vfiprintf_r+0x740>
   1d33c:	00900713          	addi	a4,zero,9
   1d340:	13176a63          	bltu	a4,a7,1d474 <_vfiprintf_r+0x740>
   1d344:	03088893          	addi	a7,a7,48
   1d348:	0f1107a3          	sb	a7,239(sp)
   1d34c:	00040813          	addi	a6,s0,0
   1d350:	00804463          	blt	zero,s0,1d358 <_vfiprintf_r+0x624>
   1d354:	00100813          	addi	a6,zero,1
   1d358:	03b14703          	lbu	a4,59(sp)
   1d35c:	78071663          	bne	a4,zero,1dae8 <_vfiprintf_r+0xdb4>
   1d360:	00100313          	addi	t1,zero,1
   1d364:	0ef10d93          	addi	s11,sp,239
   1d368:	ba9ff06f          	jal	zero,1cf10 <_vfiprintf_r+0x1dc>
   1d36c:	000a2c83          	lw	s9,0(s4)
   1d370:	760cd663          	bge	s9,zero,1dadc <_vfiprintf_r+0xda8>
   1d374:	41900cb3          	sub	s9,zero,s9
   1d378:	004a0a13          	addi	s4,s4,4
   1d37c:	0004c683          	lbu	a3,0(s1)
   1d380:	004d6d13          	ori	s10,s10,4
   1d384:	b1dff06f          	jal	zero,1cea0 <_vfiprintf_r+0x16c>
   1d388:	02b00713          	addi	a4,zero,43
   1d38c:	0004c683          	lbu	a3,0(s1)
   1d390:	02e10da3          	sb	a4,59(sp)
   1d394:	b0dff06f          	jal	zero,1cea0 <_vfiprintf_r+0x16c>
   1d398:	020d7713          	andi	a4,s10,32
   1d39c:	010d6813          	ori	a6,s10,16
   1d3a0:	004a0593          	addi	a1,s4,4
   1d3a4:	7e070663          	beq	a4,zero,1db90 <_vfiprintf_r+0xe5c>
   1d3a8:	007a0693          	addi	a3,s4,7
   1d3ac:	ff86f693          	andi	a3,a3,-8
   1d3b0:	0006a703          	lw	a4,0(a3)
   1d3b4:	0046a603          	lw	a2,4(a3)
   1d3b8:	00868a13          	addi	s4,a3,8
   1d3bc:	02010da3          	sb	zero,59(sp)
   1d3c0:	bff87d13          	andi	s10,a6,-1025
   1d3c4:	5c044c63          	blt	s0,zero,1d99c <_vfiprintf_r+0xc68>
   1d3c8:	b7f87d13          	andi	s10,a6,-1153
   1d3cc:	5c041863          	bne	s0,zero,1d99c <_vfiprintf_r+0xc68>
   1d3d0:	00c766b3          	or	a3,a4,a2
   1d3d4:	5c069463          	bne	a3,zero,1d99c <_vfiprintf_r+0xc68>
   1d3d8:	00187813          	andi	a6,a6,1
   1d3dc:	040800e3          	beq	a6,zero,1dc1c <_vfiprintf_r+0xee8>
   1d3e0:	03000713          	addi	a4,zero,48
   1d3e4:	0ee107a3          	sb	a4,239(sp)
   1d3e8:	00080313          	addi	t1,a6,0
   1d3ec:	0ef10d93          	addi	s11,sp,239
   1d3f0:	b21ff06f          	jal	zero,1cf10 <_vfiprintf_r+0x1dc>
   1d3f4:	0004c683          	lbu	a3,0(s1)
   1d3f8:	06800713          	addi	a4,zero,104
   1d3fc:	1ee68ee3          	beq	a3,a4,1ddf8 <_vfiprintf_r+0x10c4>
   1d400:	040d6d13          	ori	s10,s10,64
   1d404:	a9dff06f          	jal	zero,1cea0 <_vfiprintf_r+0x16c>
   1d408:	020d7713          	andi	a4,s10,32
   1d40c:	004a0593          	addi	a1,s4,4
   1d410:	010d6d13          	ori	s10,s10,16
   1d414:	04071063          	bne	a4,zero,1d454 <_vfiprintf_r+0x720>
   1d418:	02010da3          	sb	zero,59(sp)
   1d41c:	000a2883          	lw	a7,0(s4)
   1d420:	00000693          	addi	a3,zero,0
   1d424:	00058a13          	addi	s4,a1,0
   1d428:	f0044ae3          	blt	s0,zero,1d33c <_vfiprintf_r+0x608>
   1d42c:	00d8e733          	or	a4,a7,a3
   1d430:	f7fd7d13          	andi	s10,s10,-129
   1d434:	f00712e3          	bne	a4,zero,1d338 <_vfiprintf_r+0x604>
   1d438:	f00410e3          	bne	s0,zero,1d338 <_vfiprintf_r+0x604>
   1d43c:	00000313          	addi	t1,zero,0
   1d440:	0f010d93          	addi	s11,sp,240
   1d444:	00000813          	addi	a6,zero,0
   1d448:	ac9ff06f          	jal	zero,1cf10 <_vfiprintf_r+0x1dc>
   1d44c:	020d7713          	andi	a4,s10,32
   1d450:	6e070863          	beq	a4,zero,1db40 <_vfiprintf_r+0xe0c>
   1d454:	007a0713          	addi	a4,s4,7
   1d458:	ff877713          	andi	a4,a4,-8
   1d45c:	02010da3          	sb	zero,59(sp)
   1d460:	00072883          	lw	a7,0(a4)
   1d464:	00472683          	lw	a3,4(a4)
   1d468:	00870a13          	addi	s4,a4,8
   1d46c:	fc0450e3          	bge	s0,zero,1d42c <_vfiprintf_r+0x6f8>
   1d470:	ec0686e3          	beq	a3,zero,1d33c <_vfiprintf_r+0x608>
   1d474:	ccccd837          	lui	a6,0xccccd
   1d478:	ccccd337          	lui	t1,0xccccd
   1d47c:	ccd80813          	addi	a6,a6,-819 # cccccccd <__BSS_END__+0xccbb8935>
   1d480:	ccc30313          	addi	t1,t1,-820 # cccccccc <__BSS_END__+0xccbb8934>
   1d484:	400d7e13          	andi	t3,s10,1024
   1d488:	00000513          	addi	a0,zero,0
   1d48c:	0f010593          	addi	a1,sp,240
   1d490:	07c0006f          	jal	zero,1d50c <_vfiprintf_r+0x7d8>
   1d494:	01012703          	lw	a4,16(sp)
   1d498:	00074703          	lbu	a4,0(a4)
   1d49c:	00a71663          	bne	a4,a0,1d4a8 <_vfiprintf_r+0x774>
   1d4a0:	f0170713          	addi	a4,a4,-255
   1d4a4:	10071ee3          	bne	a4,zero,1ddc0 <_vfiprintf_r+0x108c>
   1d4a8:	00088e93          	addi	t4,a7,0
   1d4ac:	00068613          	addi	a2,a3,0
   1d4b0:	000d8593          	addi	a1,s11,0
   1d4b4:	00d88733          	add	a4,a7,a3
   1d4b8:	01173f33          	sltu	t5,a4,a7
   1d4bc:	01e70733          	add	a4,a4,t5
   1d4c0:	03073f33          	mulhu	t5,a4,a6
   1d4c4:	002f5f93          	srli	t6,t5,0x2
   1d4c8:	ffcf7f13          	andi	t5,t5,-4
   1d4cc:	01ff0f33          	add	t5,t5,t6
   1d4d0:	41e70733          	sub	a4,a4,t5
   1d4d4:	40e88733          	sub	a4,a7,a4
   1d4d8:	00e8b8b3          	sltu	a7,a7,a4
   1d4dc:	411686b3          	sub	a3,a3,a7
   1d4e0:	02670f33          	mul	t5,a4,t1
   1d4e4:	030686b3          	mul	a3,a3,a6
   1d4e8:	030738b3          	mulhu	a7,a4,a6
   1d4ec:	01e686b3          	add	a3,a3,t5
   1d4f0:	03070733          	mul	a4,a4,a6
   1d4f4:	011686b3          	add	a3,a3,a7
   1d4f8:	01f69893          	slli	a7,a3,0x1f
   1d4fc:	0016d693          	srli	a3,a3,0x1
   1d500:	00175713          	srli	a4,a4,0x1
   1d504:	00e888b3          	add	a7,a7,a4
   1d508:	320608e3          	beq	a2,zero,1e038 <_vfiprintf_r+0x1304>
   1d50c:	00d88733          	add	a4,a7,a3
   1d510:	01173633          	sltu	a2,a4,a7
   1d514:	00c70633          	add	a2,a4,a2
   1d518:	03063eb3          	mulhu	t4,a2,a6
   1d51c:	00150513          	addi	a0,a0,1
   1d520:	fff58d93          	addi	s11,a1,-1
   1d524:	002edf13          	srli	t5,t4,0x2
   1d528:	ffcefe93          	andi	t4,t4,-4
   1d52c:	01ee8eb3          	add	t4,t4,t5
   1d530:	41d60633          	sub	a2,a2,t4
   1d534:	40c88633          	sub	a2,a7,a2
   1d538:	00c8beb3          	sltu	t4,a7,a2
   1d53c:	41d68eb3          	sub	t4,a3,t4
   1d540:	03063f33          	mulhu	t5,a2,a6
   1d544:	030e8eb3          	mul	t4,t4,a6
   1d548:	03060633          	mul	a2,a2,a6
   1d54c:	01ee8eb3          	add	t4,t4,t5
   1d550:	01fe9e93          	slli	t4,t4,0x1f
   1d554:	00165613          	srli	a2,a2,0x1
   1d558:	00ce8633          	add	a2,t4,a2
   1d55c:	00261e93          	slli	t4,a2,0x2
   1d560:	00ce8633          	add	a2,t4,a2
   1d564:	00161613          	slli	a2,a2,0x1
   1d568:	40c88633          	sub	a2,a7,a2
   1d56c:	03060613          	addi	a2,a2,48
   1d570:	fec58fa3          	sb	a2,-1(a1)
   1d574:	f20e10e3          	bne	t3,zero,1d494 <_vfiprintf_r+0x760>
   1d578:	00088e93          	addi	t4,a7,0
   1d57c:	00068613          	addi	a2,a3,0
   1d580:	000d8593          	addi	a1,s11,0
   1d584:	f35ff06f          	jal	zero,1d4b8 <_vfiprintf_r+0x784>
   1d588:	000a8513          	addi	a0,s5,0
   1d58c:	00f12a23          	sw	a5,20(sp)
   1d590:	c61fa0ef          	jal	ra,181f0 <_localeconv_r>
   1d594:	00452783          	lw	a5,4(a0)
   1d598:	00078513          	addi	a0,a5,0
   1d59c:	02f12223          	sw	a5,36(sp)
   1d5a0:	f71fa0ef          	jal	ra,18510 <strlen>
   1d5a4:	02a12023          	sw	a0,32(sp)
   1d5a8:	000a8513          	addi	a0,s5,0
   1d5ac:	c45fa0ef          	jal	ra,181f0 <_localeconv_r>
   1d5b0:	00852783          	lw	a5,8(a0)
   1d5b4:	02012703          	lw	a4,32(sp)
   1d5b8:	0004c683          	lbu	a3,0(s1)
   1d5bc:	00f12823          	sw	a5,16(sp)
   1d5c0:	01412783          	lw	a5,20(sp)
   1d5c4:	8c070ee3          	beq	a4,zero,1cea0 <_vfiprintf_r+0x16c>
   1d5c8:	01012703          	lw	a4,16(sp)
   1d5cc:	8c070ae3          	beq	a4,zero,1cea0 <_vfiprintf_r+0x16c>
   1d5d0:	00074703          	lbu	a4,0(a4)
   1d5d4:	8c0706e3          	beq	a4,zero,1cea0 <_vfiprintf_r+0x16c>
   1d5d8:	400d6d13          	ori	s10,s10,1024
   1d5dc:	8c5ff06f          	jal	zero,1cea0 <_vfiprintf_r+0x16c>
   1d5e0:	0004c683          	lbu	a3,0(s1)
   1d5e4:	080d6d13          	ori	s10,s10,128
   1d5e8:	8b9ff06f          	jal	zero,1cea0 <_vfiprintf_r+0x16c>
   1d5ec:	0004c683          	lbu	a3,0(s1)
   1d5f0:	02a00713          	addi	a4,zero,42
   1d5f4:	00148593          	addi	a1,s1,1
   1d5f8:	28e684e3          	beq	a3,a4,1e080 <_vfiprintf_r+0x134c>
   1d5fc:	fd068713          	addi	a4,a3,-48
   1d600:	00900513          	addi	a0,zero,9
   1d604:	00000413          	addi	s0,zero,0
   1d608:	02e56463          	bltu	a0,a4,1d630 <_vfiprintf_r+0x8fc>
   1d60c:	00241613          	slli	a2,s0,0x2
   1d610:	0005c683          	lbu	a3,0(a1)
   1d614:	00860433          	add	s0,a2,s0
   1d618:	00141413          	slli	s0,s0,0x1
   1d61c:	00e40433          	add	s0,s0,a4
   1d620:	fd068713          	addi	a4,a3,-48
   1d624:	00158593          	addi	a1,a1,1
   1d628:	fee572e3          	bgeu	a0,a4,1d60c <_vfiprintf_r+0x8d8>
   1d62c:	60044063          	blt	s0,zero,1dc2c <_vfiprintf_r+0xef8>
   1d630:	00058493          	addi	s1,a1,0
   1d634:	871ff06f          	jal	zero,1cea4 <_vfiprintf_r+0x170>
   1d638:	0004c683          	lbu	a3,0(s1)
   1d63c:	001d6d13          	ori	s10,s10,1
   1d640:	861ff06f          	jal	zero,1cea0 <_vfiprintf_r+0x16c>
   1d644:	03b14703          	lbu	a4,59(sp)
   1d648:	0004c683          	lbu	a3,0(s1)
   1d64c:	84071ae3          	bne	a4,zero,1cea0 <_vfiprintf_r+0x16c>
   1d650:	02000713          	addi	a4,zero,32
   1d654:	02e10da3          	sb	a4,59(sp)
   1d658:	849ff06f          	jal	zero,1cea0 <_vfiprintf_r+0x16c>
   1d65c:	00008737          	lui	a4,0x8
   1d660:	83070713          	addi	a4,a4,-2000 # 7830 <exit-0x8884>
   1d664:	02e11e23          	sh	a4,60(sp)
   1d668:	02010da3          	sb	zero,59(sp)
   1d66c:	000a2703          	lw	a4,0(s4)
   1d670:	004a0693          	addi	a3,s4,4
   1d674:	00000613          	addi	a2,zero,0
   1d678:	54044263          	blt	s0,zero,1dbbc <_vfiprintf_r+0xe88>
   1d67c:	f7fd7d13          	andi	s10,s10,-129
   1d680:	002d6d13          	ori	s10,s10,2
   1d684:	220710e3          	bne	a4,zero,1e0a4 <_vfiprintf_r+0x1370>
   1d688:	20041ee3          	bne	s0,zero,1e0a4 <_vfiprintf_r+0x1370>
   1d68c:	00068a13          	addi	s4,a3,0
   1d690:	00000313          	addi	t1,zero,0
   1d694:	00000813          	addi	a6,zero,0
   1d698:	0f010d93          	addi	s11,sp,240
   1d69c:	04812583          	lw	a1,72(sp)
   1d6a0:	04412603          	lw	a2,68(sp)
   1d6a4:	084d7893          	andi	a7,s10,132
   1d6a8:	00280813          	addi	a6,a6,2
   1d6ac:	00058693          	addi	a3,a1,0
   1d6b0:	00060713          	addi	a4,a2,0
   1d6b4:	8a089ee3          	bne	a7,zero,1cf70 <_vfiprintf_r+0x23c>
   1d6b8:	410c8e33          	sub	t3,s9,a6
   1d6bc:	8bc05ae3          	bge	zero,t3,1cf70 <_vfiprintf_r+0x23c>
   1d6c0:	00200e93          	addi	t4,zero,2
   1d6c4:	3340006f          	jal	zero,1d9f8 <_vfiprintf_r+0xcc4>
   1d6c8:	020d7713          	andi	a4,s10,32
   1d6cc:	4e071463          	bne	a4,zero,1dbb4 <_vfiprintf_r+0xe80>
   1d6d0:	010d7693          	andi	a3,s10,16
   1d6d4:	000a2703          	lw	a4,0(s4)
   1d6d8:	004a0593          	addi	a1,s4,4
   1d6dc:	4a069863          	bne	a3,zero,1db8c <_vfiprintf_r+0xe58>
   1d6e0:	040d7693          	andi	a3,s10,64
   1d6e4:	78068263          	beq	a3,zero,1de68 <_vfiprintf_r+0x1134>
   1d6e8:	01071713          	slli	a4,a4,0x10
   1d6ec:	01075713          	srli	a4,a4,0x10
   1d6f0:	00058a13          	addi	s4,a1,0
   1d6f4:	000d0813          	addi	a6,s10,0
   1d6f8:	00000613          	addi	a2,zero,0
   1d6fc:	cc1ff06f          	jal	zero,1d3bc <_vfiprintf_r+0x688>
   1d700:	020d7713          	andi	a4,s10,32
   1d704:	004a0693          	addi	a3,s4,4
   1d708:	42071063          	bne	a4,zero,1db28 <_vfiprintf_r+0xdf4>
   1d70c:	010d7713          	andi	a4,s10,16
   1d710:	70071463          	bne	a4,zero,1de18 <_vfiprintf_r+0x10e4>
   1d714:	040d7713          	andi	a4,s10,64
   1d718:	78071663          	bne	a4,zero,1dea4 <_vfiprintf_r+0x1170>
   1d71c:	200d7d13          	andi	s10,s10,512
   1d720:	6e0d0c63          	beq	s10,zero,1de18 <_vfiprintf_r+0x10e4>
   1d724:	000a2703          	lw	a4,0(s4)
   1d728:	00068a13          	addi	s4,a3,0
   1d72c:	01870023          	sb	s8,0(a4)
   1d730:	ee8ff06f          	jal	zero,1ce18 <_vfiprintf_r+0xe4>
   1d734:	0004c683          	lbu	a3,0(s1)
   1d738:	06c00713          	addi	a4,zero,108
   1d73c:	6ce68663          	beq	a3,a4,1de08 <_vfiprintf_r+0x10d4>
   1d740:	010d6d13          	ori	s10,s10,16
   1d744:	f5cff06f          	jal	zero,1cea0 <_vfiprintf_r+0x16c>
   1d748:	410c88b3          	sub	a7,s9,a6
   1d74c:	85105ce3          	bge	zero,a7,1cfa4 <_vfiprintf_r+0x270>
   1d750:	01000e13          	addi	t3,zero,16
   1d754:	00070eb7          	lui	t4,0x70
   1d758:	111e58e3          	bge	t3,a7,1e068 <_vfiprintf_r+0x1334>
   1d75c:	00812c23          	sw	s0,24(sp)
   1d760:	02912423          	sw	s1,40(sp)
   1d764:	00700f13          	addi	t5,zero,7
   1d768:	01012a23          	sw	a6,20(sp)
   1d76c:	00088413          	addi	s0,a7,0
   1d770:	00612e23          	sw	t1,28(sp)
   1d774:	e68e8493          	addi	s1,t4,-408 # 6fe68 <zeroes.0>
   1d778:	00c0006f          	jal	zero,1d784 <_vfiprintf_r+0xa50>
   1d77c:	ff040413          	addi	s0,s0,-16
   1d780:	048e5a63          	bge	t3,s0,1d7d4 <_vfiprintf_r+0xaa0>
   1d784:	01068693          	addi	a3,a3,16
   1d788:	00170713          	addi	a4,a4,1
   1d78c:	0097a023          	sw	s1,0(a5)
   1d790:	01c7a223          	sw	t3,4(a5)
   1d794:	04d12423          	sw	a3,72(sp)
   1d798:	04e12223          	sw	a4,68(sp)
   1d79c:	00878793          	addi	a5,a5,8
   1d7a0:	fcef5ee3          	bge	t5,a4,1d77c <_vfiprintf_r+0xa48>
   1d7a4:	04010613          	addi	a2,sp,64
   1d7a8:	00098593          	addi	a1,s3,0
   1d7ac:	000a8513          	addi	a0,s5,0
   1d7b0:	e29f90ef          	jal	ra,175d8 <__sprint_r>
   1d7b4:	8c051ce3          	bne	a0,zero,1d08c <_vfiprintf_r+0x358>
   1d7b8:	01000e13          	addi	t3,zero,16
   1d7bc:	ff040413          	addi	s0,s0,-16
   1d7c0:	04812683          	lw	a3,72(sp)
   1d7c4:	04412703          	lw	a4,68(sp)
   1d7c8:	000b0793          	addi	a5,s6,0
   1d7cc:	00700f13          	addi	t5,zero,7
   1d7d0:	fa8e4ae3          	blt	t3,s0,1d784 <_vfiprintf_r+0xa50>
   1d7d4:	00040893          	addi	a7,s0,0
   1d7d8:	00048e93          	addi	t4,s1,0
   1d7dc:	01412803          	lw	a6,20(sp)
   1d7e0:	01812403          	lw	s0,24(sp)
   1d7e4:	01c12303          	lw	t1,28(sp)
   1d7e8:	02812483          	lw	s1,40(sp)
   1d7ec:	011686b3          	add	a3,a3,a7
   1d7f0:	00170713          	addi	a4,a4,1
   1d7f4:	01d7a023          	sw	t4,0(a5)
   1d7f8:	0117a223          	sw	a7,4(a5)
   1d7fc:	04d12423          	sw	a3,72(sp)
   1d800:	04e12223          	sw	a4,68(sp)
   1d804:	00700613          	addi	a2,zero,7
   1d808:	00878793          	addi	a5,a5,8
   1d80c:	f8e65c63          	bge	a2,a4,1cfa4 <_vfiprintf_r+0x270>
   1d810:	04010613          	addi	a2,sp,64
   1d814:	00098593          	addi	a1,s3,0
   1d818:	000a8513          	addi	a0,s5,0
   1d81c:	00612c23          	sw	t1,24(sp)
   1d820:	01012a23          	sw	a6,20(sp)
   1d824:	db5f90ef          	jal	ra,175d8 <__sprint_r>
   1d828:	860512e3          	bne	a0,zero,1d08c <_vfiprintf_r+0x358>
   1d82c:	01812303          	lw	t1,24(sp)
   1d830:	04812683          	lw	a3,72(sp)
   1d834:	04412703          	lw	a4,68(sp)
   1d838:	40640433          	sub	s0,s0,t1
   1d83c:	01412803          	lw	a6,20(sp)
   1d840:	000b0793          	addi	a5,s6,0
   1d844:	f6805463          	bge	zero,s0,1cfac <_vfiprintf_r+0x278>
   1d848:	00070eb7          	lui	t4,0x70
   1d84c:	e68e8e93          	addi	t4,t4,-408 # 6fe68 <zeroes.0>
   1d850:	06895c63          	bge	s2,s0,1d8c8 <_vfiprintf_r+0xb94>
   1d854:	00700893          	addi	a7,zero,7
   1d858:	01012a23          	sw	a6,20(sp)
   1d85c:	00612c23          	sw	t1,24(sp)
   1d860:	01712e23          	sw	s7,28(sp)
   1d864:	00c0006f          	jal	zero,1d870 <_vfiprintf_r+0xb3c>
   1d868:	ff040413          	addi	s0,s0,-16
   1d86c:	04895863          	bge	s2,s0,1d8bc <_vfiprintf_r+0xb88>
   1d870:	01068693          	addi	a3,a3,16
   1d874:	00170713          	addi	a4,a4,1
   1d878:	0177a023          	sw	s7,0(a5)
   1d87c:	0127a223          	sw	s2,4(a5)
   1d880:	04d12423          	sw	a3,72(sp)
   1d884:	04e12223          	sw	a4,68(sp)
   1d888:	00878793          	addi	a5,a5,8
   1d88c:	fce8dee3          	bge	a7,a4,1d868 <_vfiprintf_r+0xb34>
   1d890:	04010613          	addi	a2,sp,64
   1d894:	00098593          	addi	a1,s3,0
   1d898:	000a8513          	addi	a0,s5,0
   1d89c:	d3df90ef          	jal	ra,175d8 <__sprint_r>
   1d8a0:	fe051663          	bne	a0,zero,1d08c <_vfiprintf_r+0x358>
   1d8a4:	ff040413          	addi	s0,s0,-16
   1d8a8:	04812683          	lw	a3,72(sp)
   1d8ac:	04412703          	lw	a4,68(sp)
   1d8b0:	000b0793          	addi	a5,s6,0
   1d8b4:	00700893          	addi	a7,zero,7
   1d8b8:	fa894ce3          	blt	s2,s0,1d870 <_vfiprintf_r+0xb3c>
   1d8bc:	01412803          	lw	a6,20(sp)
   1d8c0:	01812303          	lw	t1,24(sp)
   1d8c4:	01c12e83          	lw	t4,28(sp)
   1d8c8:	008686b3          	add	a3,a3,s0
   1d8cc:	00170713          	addi	a4,a4,1
   1d8d0:	01d7a023          	sw	t4,0(a5)
   1d8d4:	0087a223          	sw	s0,4(a5)
   1d8d8:	04d12423          	sw	a3,72(sp)
   1d8dc:	04e12223          	sw	a4,68(sp)
   1d8e0:	00700613          	addi	a2,zero,7
   1d8e4:	00878793          	addi	a5,a5,8
   1d8e8:	ece65263          	bge	a2,a4,1cfac <_vfiprintf_r+0x278>
   1d8ec:	04010613          	addi	a2,sp,64
   1d8f0:	00098593          	addi	a1,s3,0
   1d8f4:	000a8513          	addi	a0,s5,0
   1d8f8:	00612c23          	sw	t1,24(sp)
   1d8fc:	01012a23          	sw	a6,20(sp)
   1d900:	cd9f90ef          	jal	ra,175d8 <__sprint_r>
   1d904:	f8051463          	bne	a0,zero,1d08c <_vfiprintf_r+0x358>
   1d908:	04812683          	lw	a3,72(sp)
   1d90c:	04412703          	lw	a4,68(sp)
   1d910:	01812303          	lw	t1,24(sp)
   1d914:	01412803          	lw	a6,20(sp)
   1d918:	000b0793          	addi	a5,s6,0
   1d91c:	e90ff06f          	jal	zero,1cfac <_vfiprintf_r+0x278>
   1d920:	04010613          	addi	a2,sp,64
   1d924:	00098593          	addi	a1,s3,0
   1d928:	000a8513          	addi	a0,s5,0
   1d92c:	01012a23          	sw	a6,20(sp)
   1d930:	ca9f90ef          	jal	ra,175d8 <__sprint_r>
   1d934:	f4051c63          	bne	a0,zero,1d08c <_vfiprintf_r+0x358>
   1d938:	04812683          	lw	a3,72(sp)
   1d93c:	01412803          	lw	a6,20(sp)
   1d940:	000b0793          	addi	a5,s6,0
   1d944:	e8cff06f          	jal	zero,1cfd0 <_vfiprintf_r+0x29c>
   1d948:	04010613          	addi	a2,sp,64
   1d94c:	00098593          	addi	a1,s3,0
   1d950:	000a8513          	addi	a0,s5,0
   1d954:	c85f90ef          	jal	ra,175d8 <__sprint_r>
   1d958:	e8050c63          	beq	a0,zero,1cff0 <_vfiprintf_r+0x2bc>
   1d95c:	f30ff06f          	jal	zero,1d08c <_vfiprintf_r+0x358>
   1d960:	04010613          	addi	a2,sp,64
   1d964:	00098593          	addi	a1,s3,0
   1d968:	000a8513          	addi	a0,s5,0
   1d96c:	00612e23          	sw	t1,28(sp)
   1d970:	01112c23          	sw	a7,24(sp)
   1d974:	01012a23          	sw	a6,20(sp)
   1d978:	c61f90ef          	jal	ra,175d8 <__sprint_r>
   1d97c:	f0051863          	bne	a0,zero,1d08c <_vfiprintf_r+0x358>
   1d980:	04812683          	lw	a3,72(sp)
   1d984:	04412703          	lw	a4,68(sp)
   1d988:	01c12303          	lw	t1,28(sp)
   1d98c:	01812883          	lw	a7,24(sp)
   1d990:	01412803          	lw	a6,20(sp)
   1d994:	000b0793          	addi	a5,s6,0
   1d998:	e04ff06f          	jal	zero,1cf9c <_vfiprintf_r+0x268>
   1d99c:	0f010d93          	addi	s11,sp,240
   1d9a0:	01d61593          	slli	a1,a2,0x1d
   1d9a4:	00777693          	andi	a3,a4,7
   1d9a8:	00375713          	srli	a4,a4,0x3
   1d9ac:	000d8513          	addi	a0,s11,0
   1d9b0:	00e58733          	add	a4,a1,a4
   1d9b4:	03068693          	addi	a3,a3,48
   1d9b8:	00365613          	srli	a2,a2,0x3
   1d9bc:	00c765b3          	or	a1,a4,a2
   1d9c0:	fedd8fa3          	sb	a3,-1(s11)
   1d9c4:	fffd8d93          	addi	s11,s11,-1
   1d9c8:	fc059ce3          	bne	a1,zero,1d9a0 <_vfiprintf_r+0xc6c>
   1d9cc:	fd068693          	addi	a3,a3,-48
   1d9d0:	00068663          	beq	a3,zero,1d9dc <_vfiprintf_r+0xca8>
   1d9d4:	001d7713          	andi	a4,s10,1
   1d9d8:	12071463          	bne	a4,zero,1db00 <_vfiprintf_r+0xdcc>
   1d9dc:	0f010713          	addi	a4,sp,240
   1d9e0:	41b70333          	sub	t1,a4,s11
   1d9e4:	00040813          	addi	a6,s0,0
   1d9e8:	d2645463          	bge	s0,t1,1cf10 <_vfiprintf_r+0x1dc>
   1d9ec:	00030813          	addi	a6,t1,0
   1d9f0:	d20ff06f          	jal	zero,1cf10 <_vfiprintf_r+0x1dc>
   1d9f4:	00000e93          	addi	t4,zero,0
   1d9f8:	01000f93          	addi	t6,zero,16
   1d9fc:	00058693          	addi	a3,a1,0
   1da00:	00060713          	addi	a4,a2,0
   1da04:	000708b7          	lui	a7,0x70
   1da08:	65cfd863          	bge	t6,t3,1e058 <_vfiprintf_r+0x1324>
   1da0c:	00812e23          	sw	s0,28(sp)
   1da10:	02912623          	sw	s1,44(sp)
   1da14:	00700f13          	addi	t5,zero,7
   1da18:	01012a23          	sw	a6,20(sp)
   1da1c:	01d12c23          	sw	t4,24(sp)
   1da20:	000e0413          	addi	s0,t3,0
   1da24:	02612423          	sw	t1,40(sp)
   1da28:	e7888493          	addi	s1,a7,-392 # 6fe78 <blanks.1>
   1da2c:	00c0006f          	jal	zero,1da38 <_vfiprintf_r+0xd04>
   1da30:	ff040413          	addi	s0,s0,-16
   1da34:	048fda63          	bge	t6,s0,1da88 <_vfiprintf_r+0xd54>
   1da38:	01068693          	addi	a3,a3,16
   1da3c:	00170713          	addi	a4,a4,1
   1da40:	0097a023          	sw	s1,0(a5)
   1da44:	01f7a223          	sw	t6,4(a5)
   1da48:	04d12423          	sw	a3,72(sp)
   1da4c:	04e12223          	sw	a4,68(sp)
   1da50:	00878793          	addi	a5,a5,8
   1da54:	fcef5ee3          	bge	t5,a4,1da30 <_vfiprintf_r+0xcfc>
   1da58:	04010613          	addi	a2,sp,64
   1da5c:	00098593          	addi	a1,s3,0
   1da60:	000a8513          	addi	a0,s5,0
   1da64:	b75f90ef          	jal	ra,175d8 <__sprint_r>
   1da68:	e2051263          	bne	a0,zero,1d08c <_vfiprintf_r+0x358>
   1da6c:	01000f93          	addi	t6,zero,16
   1da70:	ff040413          	addi	s0,s0,-16
   1da74:	04812683          	lw	a3,72(sp)
   1da78:	04412703          	lw	a4,68(sp)
   1da7c:	000b0793          	addi	a5,s6,0
   1da80:	00700f13          	addi	t5,zero,7
   1da84:	fa8fcae3          	blt	t6,s0,1da38 <_vfiprintf_r+0xd04>
   1da88:	00040e13          	addi	t3,s0,0
   1da8c:	00048893          	addi	a7,s1,0
   1da90:	01412803          	lw	a6,20(sp)
   1da94:	01812e83          	lw	t4,24(sp)
   1da98:	01c12403          	lw	s0,28(sp)
   1da9c:	02812303          	lw	t1,40(sp)
   1daa0:	02c12483          	lw	s1,44(sp)
   1daa4:	00de06b3          	add	a3,t3,a3
   1daa8:	00170713          	addi	a4,a4,1
   1daac:	04d12423          	sw	a3,72(sp)
   1dab0:	04e12223          	sw	a4,68(sp)
   1dab4:	0117a023          	sw	a7,0(a5)
   1dab8:	01c7a223          	sw	t3,4(a5)
   1dabc:	00700613          	addi	a2,zero,7
   1dac0:	28e64863          	blt	a2,a4,1dd50 <_vfiprintf_r+0x101c>
   1dac4:	03b14603          	lbu	a2,59(sp)
   1dac8:	00878793          	addi	a5,a5,8
   1dacc:	02061663          	bne	a2,zero,1daf8 <_vfiprintf_r+0xdc4>
   1dad0:	cc0e8a63          	beq	t4,zero,1cfa4 <_vfiprintf_r+0x270>
   1dad4:	00000893          	addi	a7,zero,0
   1dad8:	c98ff06f          	jal	zero,1cf70 <_vfiprintf_r+0x23c>
   1dadc:	0004c683          	lbu	a3,0(s1)
   1dae0:	004a0a13          	addi	s4,s4,4
   1dae4:	bbcff06f          	jal	zero,1cea0 <_vfiprintf_r+0x16c>
   1dae8:	00180813          	addi	a6,a6,1
   1daec:	00100313          	addi	t1,zero,1
   1daf0:	0ef10d93          	addi	s11,sp,239
   1daf4:	f60ff06f          	jal	zero,1d254 <_vfiprintf_r+0x520>
   1daf8:	00000893          	addi	a7,zero,0
   1dafc:	c44ff06f          	jal	zero,1cf40 <_vfiprintf_r+0x20c>
   1db00:	ffe50513          	addi	a0,a0,-2
   1db04:	03000713          	addi	a4,zero,48
   1db08:	0f010693          	addi	a3,sp,240
   1db0c:	40a68333          	sub	t1,a3,a0
   1db10:	feed8fa3          	sb	a4,-1(s11)
   1db14:	00040813          	addi	a6,s0,0
   1db18:	00645463          	bge	s0,t1,1db20 <_vfiprintf_r+0xdec>
   1db1c:	00030813          	addi	a6,t1,0
   1db20:	00050d93          	addi	s11,a0,0
   1db24:	becff06f          	jal	zero,1cf10 <_vfiprintf_r+0x1dc>
   1db28:	000a2703          	lw	a4,0(s4)
   1db2c:	41fc5613          	srai	a2,s8,0x1f
   1db30:	00068a13          	addi	s4,a3,0
   1db34:	01872023          	sw	s8,0(a4)
   1db38:	00c72223          	sw	a2,4(a4)
   1db3c:	adcff06f          	jal	zero,1ce18 <_vfiprintf_r+0xe4>
   1db40:	010d7813          	andi	a6,s10,16
   1db44:	000a2883          	lw	a7,0(s4)
   1db48:	004a0593          	addi	a1,s4,4
   1db4c:	8c0816e3          	bne	a6,zero,1d418 <_vfiprintf_r+0x6e4>
   1db50:	040d7713          	andi	a4,s10,64
   1db54:	1c070063          	beq	a4,zero,1dd14 <_vfiprintf_r+0xfe0>
   1db58:	01089893          	slli	a7,a7,0x10
   1db5c:	02010da3          	sb	zero,59(sp)
   1db60:	0108d893          	srli	a7,a7,0x10
   1db64:	00000693          	addi	a3,zero,0
   1db68:	1c044263          	blt	s0,zero,1dd2c <_vfiprintf_r+0xff8>
   1db6c:	f7fd7d13          	andi	s10,s10,-129
   1db70:	1a041e63          	bne	s0,zero,1dd2c <_vfiprintf_r+0xff8>
   1db74:	00d8e733          	or	a4,a7,a3
   1db78:	1a071a63          	bne	a4,zero,1dd2c <_vfiprintf_r+0xff8>
   1db7c:	00058a13          	addi	s4,a1,0
   1db80:	00000313          	addi	t1,zero,0
   1db84:	0f010d93          	addi	s11,sp,240
   1db88:	b88ff06f          	jal	zero,1cf10 <_vfiprintf_r+0x1dc>
   1db8c:	000d0813          	addi	a6,s10,0
   1db90:	000a2703          	lw	a4,0(s4)
   1db94:	00000613          	addi	a2,zero,0
   1db98:	00058a13          	addi	s4,a1,0
   1db9c:	821ff06f          	jal	zero,1d3bc <_vfiprintf_r+0x688>
   1dba0:	000a2883          	lw	a7,0(s4)
   1dba4:	00058a13          	addi	s4,a1,0
   1dba8:	41f8d693          	srai	a3,a7,0x1f
   1dbac:	00068613          	addi	a2,a3,0
   1dbb0:	e74ff06f          	jal	zero,1d224 <_vfiprintf_r+0x4f0>
   1dbb4:	000d0813          	addi	a6,s10,0
   1dbb8:	ff0ff06f          	jal	zero,1d3a8 <_vfiprintf_r+0x674>
   1dbbc:	00023537          	lui	a0,0x23
   1dbc0:	002d6d13          	ori	s10,s10,2
   1dbc4:	00068a13          	addi	s4,a3,0
   1dbc8:	3c050513          	addi	a0,a0,960 # 233c0 <__clzsi2+0xb8>
   1dbcc:	00200593          	addi	a1,zero,2
   1dbd0:	0f010d93          	addi	s11,sp,240
   1dbd4:	00f77693          	andi	a3,a4,15
   1dbd8:	00d506b3          	add	a3,a0,a3
   1dbdc:	0006c683          	lbu	a3,0(a3)
   1dbe0:	01c61813          	slli	a6,a2,0x1c
   1dbe4:	00475713          	srli	a4,a4,0x4
   1dbe8:	00e80733          	add	a4,a6,a4
   1dbec:	00465613          	srli	a2,a2,0x4
   1dbf0:	fedd8fa3          	sb	a3,-1(s11)
   1dbf4:	00c766b3          	or	a3,a4,a2
   1dbf8:	fffd8d93          	addi	s11,s11,-1
   1dbfc:	fc069ce3          	bne	a3,zero,1dbd4 <_vfiprintf_r+0xea0>
   1dc00:	0f010713          	addi	a4,sp,240
   1dc04:	41b70333          	sub	t1,a4,s11
   1dc08:	00040813          	addi	a6,s0,0
   1dc0c:	00645463          	bge	s0,t1,1dc14 <_vfiprintf_r+0xee0>
   1dc10:	00030813          	addi	a6,t1,0
   1dc14:	a80594e3          	bne	a1,zero,1d69c <_vfiprintf_r+0x968>
   1dc18:	0700006f          	jal	zero,1dc88 <_vfiprintf_r+0xf54>
   1dc1c:	00000313          	addi	t1,zero,0
   1dc20:	00000413          	addi	s0,zero,0
   1dc24:	0f010d93          	addi	s11,sp,240
   1dc28:	ae8ff06f          	jal	zero,1cf10 <_vfiprintf_r+0x1dc>
   1dc2c:	fff00413          	addi	s0,zero,-1
   1dc30:	00058493          	addi	s1,a1,0
   1dc34:	a70ff06f          	jal	zero,1cea4 <_vfiprintf_r+0x170>
   1dc38:	00023537          	lui	a0,0x23
   1dc3c:	020d7713          	andi	a4,s10,32
   1dc40:	3d450513          	addi	a0,a0,980 # 233d4 <__clzsi2+0xcc>
   1dc44:	06070e63          	beq	a4,zero,1dcc0 <_vfiprintf_r+0xf8c>
   1dc48:	007a0613          	addi	a2,s4,7
   1dc4c:	ff867613          	andi	a2,a2,-8
   1dc50:	00062703          	lw	a4,0(a2)
   1dc54:	00860a13          	addi	s4,a2,8
   1dc58:	00462603          	lw	a2,4(a2)
   1dc5c:	001d7593          	andi	a1,s10,1
   1dc60:	00c76833          	or	a6,a4,a2
   1dc64:	00058463          	beq	a1,zero,1dc6c <_vfiprintf_r+0xf38>
   1dc68:	12081a63          	bne	a6,zero,1dd9c <_vfiprintf_r+0x1068>
   1dc6c:	02010da3          	sb	zero,59(sp)
   1dc70:	0c044a63          	blt	s0,zero,1dd44 <_vfiprintf_r+0x1010>
   1dc74:	b7fd7d13          	andi	s10,s10,-1153
   1dc78:	42041263          	bne	s0,zero,1e09c <_vfiprintf_r+0x1368>
   1dc7c:	42081063          	bne	a6,zero,1e09c <_vfiprintf_r+0x1368>
   1dc80:	00000313          	addi	t1,zero,0
   1dc84:	0f010d93          	addi	s11,sp,240
   1dc88:	04812683          	lw	a3,72(sp)
   1dc8c:	04412703          	lw	a4,68(sp)
   1dc90:	084d7893          	andi	a7,s10,132
   1dc94:	00068593          	addi	a1,a3,0
   1dc98:	00070613          	addi	a2,a4,0
   1dc9c:	a8088663          	beq	a7,zero,1cf28 <_vfiprintf_r+0x1f4>
   1dca0:	03b14603          	lbu	a2,59(sp)
   1dca4:	00000e93          	addi	t4,zero,0
   1dca8:	a8061c63          	bne	a2,zero,1cf40 <_vfiprintf_r+0x20c>
   1dcac:	af0ff06f          	jal	zero,1cf9c <_vfiprintf_r+0x268>
   1dcb0:	00023537          	lui	a0,0x23
   1dcb4:	020d7713          	andi	a4,s10,32
   1dcb8:	3c050513          	addi	a0,a0,960 # 233c0 <__clzsi2+0xb8>
   1dcbc:	f80716e3          	bne	a4,zero,1dc48 <_vfiprintf_r+0xf14>
   1dcc0:	010d7613          	andi	a2,s10,16
   1dcc4:	000a2703          	lw	a4,0(s4)
   1dcc8:	004a0a13          	addi	s4,s4,4
   1dccc:	06061863          	bne	a2,zero,1dd3c <_vfiprintf_r+0x1008>
   1dcd0:	040d7613          	andi	a2,s10,64
   1dcd4:	06060063          	beq	a2,zero,1dd34 <_vfiprintf_r+0x1000>
   1dcd8:	01071713          	slli	a4,a4,0x10
   1dcdc:	01075713          	srli	a4,a4,0x10
   1dce0:	00000613          	addi	a2,zero,0
   1dce4:	f79ff06f          	jal	zero,1dc5c <_vfiprintf_r+0xf28>
   1dce8:	000d8513          	addi	a0,s11,0
   1dcec:	825fa0ef          	jal	ra,18510 <strlen>
   1dcf0:	03b14703          	lbu	a4,59(sp)
   1dcf4:	fff54813          	xori	a6,a0,-1
   1dcf8:	41f85813          	srai	a6,a6,0x1f
   1dcfc:	01412783          	lw	a5,20(sp)
   1dd00:	00050313          	addi	t1,a0,0
   1dd04:	01057833          	and	a6,a0,a6
   1dd08:	da071a63          	bne	a4,zero,1d2bc <_vfiprintf_r+0x588>
   1dd0c:	00000413          	addi	s0,zero,0
   1dd10:	a00ff06f          	jal	zero,1cf10 <_vfiprintf_r+0x1dc>
   1dd14:	200d7713          	andi	a4,s10,512
   1dd18:	02010da3          	sb	zero,59(sp)
   1dd1c:	1c070263          	beq	a4,zero,1dee0 <_vfiprintf_r+0x11ac>
   1dd20:	0ff8f893          	andi	a7,a7,255
   1dd24:	00000693          	addi	a3,zero,0
   1dd28:	e40452e3          	bge	s0,zero,1db6c <_vfiprintf_r+0xe38>
   1dd2c:	00058a13          	addi	s4,a1,0
   1dd30:	e08ff06f          	jal	zero,1d338 <_vfiprintf_r+0x604>
   1dd34:	200d7613          	andi	a2,s10,512
   1dd38:	18061663          	bne	a2,zero,1dec4 <_vfiprintf_r+0x1190>
   1dd3c:	00000613          	addi	a2,zero,0
   1dd40:	f1dff06f          	jal	zero,1dc5c <_vfiprintf_r+0xf28>
   1dd44:	bffd7d13          	andi	s10,s10,-1025
   1dd48:	00000593          	addi	a1,zero,0
   1dd4c:	e85ff06f          	jal	zero,1dbd0 <_vfiprintf_r+0xe9c>
   1dd50:	04010613          	addi	a2,sp,64
   1dd54:	00098593          	addi	a1,s3,0
   1dd58:	000a8513          	addi	a0,s5,0
   1dd5c:	00612e23          	sw	t1,28(sp)
   1dd60:	01d12c23          	sw	t4,24(sp)
   1dd64:	01012a23          	sw	a6,20(sp)
   1dd68:	871f90ef          	jal	ra,175d8 <__sprint_r>
   1dd6c:	00050893          	addi	a7,a0,0
   1dd70:	b0051e63          	bne	a0,zero,1d08c <_vfiprintf_r+0x358>
   1dd74:	03b14783          	lbu	a5,59(sp)
   1dd78:	04812683          	lw	a3,72(sp)
   1dd7c:	04412703          	lw	a4,68(sp)
   1dd80:	01412803          	lw	a6,20(sp)
   1dd84:	01812e83          	lw	t4,24(sp)
   1dd88:	01c12303          	lw	t1,28(sp)
   1dd8c:	0e079c63          	bne	a5,zero,1de84 <_vfiprintf_r+0x1150>
   1dd90:	000b0793          	addi	a5,s6,0
   1dd94:	9c0e9e63          	bne	t4,zero,1cf70 <_vfiprintf_r+0x23c>
   1dd98:	a0cff06f          	jal	zero,1cfa4 <_vfiprintf_r+0x270>
   1dd9c:	02d10ea3          	sb	a3,61(sp)
   1dda0:	03000693          	addi	a3,zero,48
   1dda4:	02010da3          	sb	zero,59(sp)
   1dda8:	02d10e23          	sb	a3,60(sp)
   1ddac:	0e044063          	blt	s0,zero,1de8c <_vfiprintf_r+0x1158>
   1ddb0:	b7fd7d13          	andi	s10,s10,-1153
   1ddb4:	002d6d13          	ori	s10,s10,2
   1ddb8:	00200593          	addi	a1,zero,2
   1ddbc:	e15ff06f          	jal	zero,1dbd0 <_vfiprintf_r+0xe9c>
   1ddc0:	14069263          	bne	a3,zero,1df04 <_vfiprintf_r+0x11d0>
   1ddc4:	00900713          	addi	a4,zero,9
   1ddc8:	13176e63          	bltu	a4,a7,1df04 <_vfiprintf_r+0x11d0>
   1ddcc:	0f010713          	addi	a4,sp,240
   1ddd0:	41b70333          	sub	t1,a4,s11
   1ddd4:	00040813          	addi	a6,s0,0
   1ddd8:	03b14703          	lbu	a4,59(sp)
   1dddc:	00645463          	bge	s0,t1,1dde4 <_vfiprintf_r+0x10b0>
   1dde0:	00030813          	addi	a6,t1,0
   1dde4:	00e03733          	sltu	a4,zero,a4
   1dde8:	00e80833          	add	a6,a6,a4
   1ddec:	e9dff06f          	jal	zero,1dc88 <_vfiprintf_r+0xf54>
   1ddf0:	9c4f50ef          	jal	ra,12fb4 <__sinit>
   1ddf4:	f7dfe06f          	jal	zero,1cd70 <_vfiprintf_r+0x3c>
   1ddf8:	0014c683          	lbu	a3,1(s1)
   1ddfc:	200d6d13          	ori	s10,s10,512
   1de00:	00148493          	addi	s1,s1,1
   1de04:	89cff06f          	jal	zero,1cea0 <_vfiprintf_r+0x16c>
   1de08:	0014c683          	lbu	a3,1(s1)
   1de0c:	020d6d13          	ori	s10,s10,32
   1de10:	00148493          	addi	s1,s1,1
   1de14:	88cff06f          	jal	zero,1cea0 <_vfiprintf_r+0x16c>
   1de18:	000a2703          	lw	a4,0(s4)
   1de1c:	00068a13          	addi	s4,a3,0
   1de20:	01872023          	sw	s8,0(a4)
   1de24:	ff5fe06f          	jal	zero,1ce18 <_vfiprintf_r+0xe4>
   1de28:	00600713          	addi	a4,zero,6
   1de2c:	00040813          	addi	a6,s0,0
   1de30:	06876663          	bltu	a4,s0,1de9c <_vfiprintf_r+0x1168>
   1de34:	00023db7          	lui	s11,0x23
   1de38:	3e8d8d93          	addi	s11,s11,1000 # 233e8 <__clzsi2+0xe0>
   1de3c:	00080313          	addi	t1,a6,0
   1de40:	00000413          	addi	s0,zero,0
   1de44:	8ccff06f          	jal	zero,1cf10 <_vfiprintf_r+0x1dc>
   1de48:	200d7713          	andi	a4,s10,512
   1de4c:	08070263          	beq	a4,zero,1ded0 <_vfiprintf_r+0x119c>
   1de50:	01889893          	slli	a7,a7,0x18
   1de54:	4188d893          	srai	a7,a7,0x18
   1de58:	41f8d693          	srai	a3,a7,0x1f
   1de5c:	00058a13          	addi	s4,a1,0
   1de60:	00068613          	addi	a2,a3,0
   1de64:	bc0ff06f          	jal	zero,1d224 <_vfiprintf_r+0x4f0>
   1de68:	200d7693          	andi	a3,s10,512
   1de6c:	04068463          	beq	a3,zero,1deb4 <_vfiprintf_r+0x1180>
   1de70:	0ff77713          	andi	a4,a4,255
   1de74:	00058a13          	addi	s4,a1,0
   1de78:	000d0813          	addi	a6,s10,0
   1de7c:	00000613          	addi	a2,zero,0
   1de80:	d3cff06f          	jal	zero,1d3bc <_vfiprintf_r+0x688>
   1de84:	000b0793          	addi	a5,s6,0
   1de88:	8b8ff06f          	jal	zero,1cf40 <_vfiprintf_r+0x20c>
   1de8c:	bffd7d13          	andi	s10,s10,-1025
   1de90:	002d6d13          	ori	s10,s10,2
   1de94:	00200593          	addi	a1,zero,2
   1de98:	d39ff06f          	jal	zero,1dbd0 <_vfiprintf_r+0xe9c>
   1de9c:	00070813          	addi	a6,a4,0
   1dea0:	f95ff06f          	jal	zero,1de34 <_vfiprintf_r+0x1100>
   1dea4:	000a2703          	lw	a4,0(s4)
   1dea8:	00068a13          	addi	s4,a3,0
   1deac:	01871023          	sh	s8,0(a4)
   1deb0:	f69fe06f          	jal	zero,1ce18 <_vfiprintf_r+0xe4>
   1deb4:	00058a13          	addi	s4,a1,0
   1deb8:	000d0813          	addi	a6,s10,0
   1debc:	00000613          	addi	a2,zero,0
   1dec0:	cfcff06f          	jal	zero,1d3bc <_vfiprintf_r+0x688>
   1dec4:	0ff77713          	andi	a4,a4,255
   1dec8:	00000613          	addi	a2,zero,0
   1decc:	d91ff06f          	jal	zero,1dc5c <_vfiprintf_r+0xf28>
   1ded0:	41f8d693          	srai	a3,a7,0x1f
   1ded4:	00058a13          	addi	s4,a1,0
   1ded8:	00068613          	addi	a2,a3,0
   1dedc:	b48ff06f          	jal	zero,1d224 <_vfiprintf_r+0x4f0>
   1dee0:	00000693          	addi	a3,zero,0
   1dee4:	00058a13          	addi	s4,a1,0
   1dee8:	c80452e3          	bge	s0,zero,1db6c <_vfiprintf_r+0xe38>
   1deec:	c50ff06f          	jal	zero,1d33c <_vfiprintf_r+0x608>
   1def0:	000a8513          	addi	a0,s5,0
   1def4:	04010613          	addi	a2,sp,64
   1def8:	00098593          	addi	a1,s3,0
   1defc:	edcf90ef          	jal	ra,175d8 <__sprint_r>
   1df00:	98cff06f          	jal	zero,1d08c <_vfiprintf_r+0x358>
   1df04:	00f12c23          	sw	a5,24(sp)
   1df08:	02012783          	lw	a5,32(sp)
   1df0c:	02412583          	lw	a1,36(sp)
   1df10:	02d12623          	sw	a3,44(sp)
   1df14:	40fd8eb3          	sub	t4,s11,a5
   1df18:	00078613          	addi	a2,a5,0
   1df1c:	000e8513          	addi	a0,t4,0
   1df20:	03112423          	sw	a7,40(sp)
   1df24:	01c12e23          	sw	t3,28(sp)
   1df28:	01d12a23          	sw	t4,20(sp)
   1df2c:	a14fa0ef          	jal	ra,18140 <strncpy>
   1df30:	02812883          	lw	a7,40(sp)
   1df34:	02c12683          	lw	a3,44(sp)
   1df38:	01012783          	lw	a5,16(sp)
   1df3c:	ccccd537          	lui	a0,0xccccd
   1df40:	00d88733          	add	a4,a7,a3
   1df44:	01173633          	sltu	a2,a4,a7
   1df48:	00c70733          	add	a4,a4,a2
   1df4c:	ccccd637          	lui	a2,0xccccd
   1df50:	ccd60613          	addi	a2,a2,-819 # cccccccd <__BSS_END__+0xccbb8935>
   1df54:	02c735b3          	mulhu	a1,a4,a2
   1df58:	0017cf03          	lbu	t5,1(a5)
   1df5c:	ccc50513          	addi	a0,a0,-820 # cccccccc <__BSS_END__+0xccbb8934>
   1df60:	01412e83          	lw	t4,20(sp)
   1df64:	01e03f33          	sltu	t5,zero,t5
   1df68:	01e787b3          	add	a5,a5,t5
   1df6c:	ccccd837          	lui	a6,0xccccd
   1df70:	ccccd337          	lui	t1,0xccccd
   1df74:	00f12823          	sw	a5,16(sp)
   1df78:	01c12e03          	lw	t3,28(sp)
   1df7c:	0025df13          	srli	t5,a1,0x2
   1df80:	ffc5f593          	andi	a1,a1,-4
   1df84:	01e585b3          	add	a1,a1,t5
   1df88:	40b70733          	sub	a4,a4,a1
   1df8c:	40e88733          	sub	a4,a7,a4
   1df90:	00e8b8b3          	sltu	a7,a7,a4
   1df94:	411686b3          	sub	a3,a3,a7
   1df98:	02a70533          	mul	a0,a4,a0
   1df9c:	01812783          	lw	a5,24(sp)
   1dfa0:	fffe8d93          	addi	s11,t4,-1
   1dfa4:	ccd80813          	addi	a6,a6,-819 # cccccccd <__BSS_END__+0xccbb8935>
   1dfa8:	ccc30313          	addi	t1,t1,-820 # cccccccc <__BSS_END__+0xccbb8934>
   1dfac:	02c686b3          	mul	a3,a3,a2
   1dfb0:	02c735b3          	mulhu	a1,a4,a2
   1dfb4:	00a686b3          	add	a3,a3,a0
   1dfb8:	00100513          	addi	a0,zero,1
   1dfbc:	02c70733          	mul	a4,a4,a2
   1dfc0:	00b686b3          	add	a3,a3,a1
   1dfc4:	01f69593          	slli	a1,a3,0x1f
   1dfc8:	0016d693          	srli	a3,a3,0x1
   1dfcc:	00175713          	srli	a4,a4,0x1
   1dfd0:	00e588b3          	add	a7,a1,a4
   1dfd4:	00d88733          	add	a4,a7,a3
   1dfd8:	011735b3          	sltu	a1,a4,a7
   1dfdc:	00b70733          	add	a4,a4,a1
   1dfe0:	02c735b3          	mulhu	a1,a4,a2
   1dfe4:	0025df13          	srli	t5,a1,0x2
   1dfe8:	ffc5f593          	andi	a1,a1,-4
   1dfec:	01e585b3          	add	a1,a1,t5
   1dff0:	40b70733          	sub	a4,a4,a1
   1dff4:	40e88733          	sub	a4,a7,a4
   1dff8:	00e8b5b3          	sltu	a1,a7,a4
   1dffc:	40b685b3          	sub	a1,a3,a1
   1e000:	02c73f33          	mulhu	t5,a4,a2
   1e004:	02c585b3          	mul	a1,a1,a2
   1e008:	02c70733          	mul	a4,a4,a2
   1e00c:	01e58633          	add	a2,a1,t5
   1e010:	01f61613          	slli	a2,a2,0x1f
   1e014:	00175713          	srli	a4,a4,0x1
   1e018:	00e60733          	add	a4,a2,a4
   1e01c:	00271613          	slli	a2,a4,0x2
   1e020:	00e60733          	add	a4,a2,a4
   1e024:	00171713          	slli	a4,a4,0x1
   1e028:	40e88733          	sub	a4,a7,a4
   1e02c:	03070713          	addi	a4,a4,48
   1e030:	feee8fa3          	sb	a4,-1(t4)
   1e034:	c60ff06f          	jal	zero,1d494 <_vfiprintf_r+0x760>
   1e038:	00900713          	addi	a4,zero,9
   1e03c:	cdd76863          	bltu	a4,t4,1d50c <_vfiprintf_r+0x7d8>
   1e040:	d8dff06f          	jal	zero,1ddcc <_vfiprintf_r+0x1098>
   1e044:	02070663          	beq	a4,zero,1e070 <_vfiprintf_r+0x133c>
   1e048:	00140813          	addi	a6,s0,1
   1e04c:	00040313          	addi	t1,s0,0
   1e050:	00000413          	addi	s0,zero,0
   1e054:	a00ff06f          	jal	zero,1d254 <_vfiprintf_r+0x520>
   1e058:	e7888893          	addi	a7,a7,-392
   1e05c:	a49ff06f          	jal	zero,1daa4 <_vfiprintf_r+0xd70>
   1e060:	e7888893          	addi	a7,a7,-392
   1e064:	948ff06f          	jal	zero,1d1ac <_vfiprintf_r+0x478>
   1e068:	e68e8e93          	addi	t4,t4,-408
   1e06c:	f80ff06f          	jal	zero,1d7ec <_vfiprintf_r+0xab8>
   1e070:	00040313          	addi	t1,s0,0
   1e074:	00040813          	addi	a6,s0,0
   1e078:	00000413          	addi	s0,zero,0
   1e07c:	e95fe06f          	jal	zero,1cf10 <_vfiprintf_r+0x1dc>
   1e080:	000a2403          	lw	s0,0(s4)
   1e084:	004a0a13          	addi	s4,s4,4
   1e088:	00045463          	bge	s0,zero,1e090 <_vfiprintf_r+0x135c>
   1e08c:	fff00413          	addi	s0,zero,-1
   1e090:	0014c683          	lbu	a3,1(s1)
   1e094:	00058493          	addi	s1,a1,0
   1e098:	e09fe06f          	jal	zero,1cea0 <_vfiprintf_r+0x16c>
   1e09c:	00000593          	addi	a1,zero,0
   1e0a0:	b31ff06f          	jal	zero,1dbd0 <_vfiprintf_r+0xe9c>
   1e0a4:	00023537          	lui	a0,0x23
   1e0a8:	00068a13          	addi	s4,a3,0
   1e0ac:	3c050513          	addi	a0,a0,960 # 233c0 <__clzsi2+0xb8>
   1e0b0:	00200593          	addi	a1,zero,2
   1e0b4:	b1dff06f          	jal	zero,1dbd0 <_vfiprintf_r+0xe9c>

0001e0b8 <vfiprintf>:
   1e0b8:	00050713          	addi	a4,a0,0
   1e0bc:	8741a503          	lw	a0,-1932(gp) # 7072c <_impure_ptr>
   1e0c0:	00060693          	addi	a3,a2,0
   1e0c4:	00058613          	addi	a2,a1,0
   1e0c8:	00070593          	addi	a1,a4,0
   1e0cc:	c69fe06f          	jal	zero,1cd34 <_vfiprintf_r>

0001e0d0 <__sbprintf>:
   1e0d0:	00c5d783          	lhu	a5,12(a1)
   1e0d4:	0645ae83          	lw	t4,100(a1)
   1e0d8:	00e5de03          	lhu	t3,14(a1)
   1e0dc:	01c5a303          	lw	t1,28(a1)
   1e0e0:	0245a883          	lw	a7,36(a1)
   1e0e4:	b7010113          	addi	sp,sp,-1168
   1e0e8:	ffd7f793          	andi	a5,a5,-3
   1e0ec:	08010813          	addi	a6,sp,128
   1e0f0:	40000713          	addi	a4,zero,1024
   1e0f4:	48812423          	sw	s0,1160(sp)
   1e0f8:	00058413          	addi	s0,a1,0
   1e0fc:	01810593          	addi	a1,sp,24
   1e100:	48912223          	sw	s1,1156(sp)
   1e104:	02f11223          	sh	a5,36(sp)
   1e108:	48112623          	sw	ra,1164(sp)
   1e10c:	02012823          	sw	zero,48(sp)
   1e110:	07d12e23          	sw	t4,124(sp)
   1e114:	03c11323          	sh	t3,38(sp)
   1e118:	02612a23          	sw	t1,52(sp)
   1e11c:	03112e23          	sw	a7,60(sp)
   1e120:	01012c23          	sw	a6,24(sp)
   1e124:	03012423          	sw	a6,40(sp)
   1e128:	02e12023          	sw	a4,32(sp)
   1e12c:	02e12623          	sw	a4,44(sp)
   1e130:	00050493          	addi	s1,a0,0
   1e134:	c01fe0ef          	jal	ra,1cd34 <_vfiprintf_r>
   1e138:	00050793          	addi	a5,a0,0
   1e13c:	02055a63          	bge	a0,zero,1e170 <__sbprintf+0xa0>
   1e140:	02415703          	lhu	a4,36(sp)
   1e144:	04077713          	andi	a4,a4,64
   1e148:	00070863          	beq	a4,zero,1e158 <__sbprintf+0x88>
   1e14c:	00c45703          	lhu	a4,12(s0)
   1e150:	04076713          	ori	a4,a4,64
   1e154:	00e41623          	sh	a4,12(s0)
   1e158:	48c12083          	lw	ra,1164(sp)
   1e15c:	48812403          	lw	s0,1160(sp)
   1e160:	48412483          	lw	s1,1156(sp)
   1e164:	00078513          	addi	a0,a5,0
   1e168:	49010113          	addi	sp,sp,1168
   1e16c:	00008067          	jalr	zero,0(ra)
   1e170:	00a12623          	sw	a0,12(sp)
   1e174:	01810593          	addi	a1,sp,24
   1e178:	00048513          	addi	a0,s1,0
   1e17c:	809f90ef          	jal	ra,17984 <_fflush_r>
   1e180:	00c12783          	lw	a5,12(sp)
   1e184:	fa050ee3          	beq	a0,zero,1e140 <__sbprintf+0x70>
   1e188:	fff00793          	addi	a5,zero,-1
   1e18c:	fb5ff06f          	jal	zero,1e140 <__sbprintf+0x70>

0001e190 <__errno>:
   1e190:	8741a503          	lw	a0,-1932(gp) # 7072c <_impure_ptr>
   1e194:	00008067          	jalr	zero,0(ra)

0001e198 <abort>:
   1e198:	ff010113          	addi	sp,sp,-16
   1e19c:	00600513          	addi	a0,zero,6
   1e1a0:	00112623          	sw	ra,12(sp)
   1e1a4:	274000ef          	jal	ra,1e418 <raise>
   1e1a8:	00100513          	addi	a0,zero,1
   1e1ac:	594000ef          	jal	ra,1e740 <_exit>

0001e1b0 <_init_signal_r>:
   1e1b0:	11852703          	lw	a4,280(a0)
   1e1b4:	00070663          	beq	a4,zero,1e1c0 <_init_signal_r+0x10>
   1e1b8:	00000513          	addi	a0,zero,0
   1e1bc:	00008067          	jalr	zero,0(ra)
   1e1c0:	fe010113          	addi	sp,sp,-32
   1e1c4:	08000593          	addi	a1,zero,128
   1e1c8:	00112e23          	sw	ra,28(sp)
   1e1cc:	00a12623          	sw	a0,12(sp)
   1e1d0:	a25f50ef          	jal	ra,13bf4 <_malloc_r>
   1e1d4:	00c12783          	lw	a5,12(sp)
   1e1d8:	10a7ac23          	sw	a0,280(a5)
   1e1dc:	02050263          	beq	a0,zero,1e200 <_init_signal_r+0x50>
   1e1e0:	08050793          	addi	a5,a0,128
   1e1e4:	00052023          	sw	zero,0(a0)
   1e1e8:	00450513          	addi	a0,a0,4
   1e1ec:	fef51ce3          	bne	a0,a5,1e1e4 <_init_signal_r+0x34>
   1e1f0:	00000513          	addi	a0,zero,0
   1e1f4:	01c12083          	lw	ra,28(sp)
   1e1f8:	02010113          	addi	sp,sp,32
   1e1fc:	00008067          	jalr	zero,0(ra)
   1e200:	fff00513          	addi	a0,zero,-1
   1e204:	ff1ff06f          	jal	zero,1e1f4 <_init_signal_r+0x44>

0001e208 <_signal_r>:
   1e208:	01f00713          	addi	a4,zero,31
   1e20c:	02b76063          	bltu	a4,a1,1e22c <_signal_r+0x24>
   1e210:	11852703          	lw	a4,280(a0)
   1e214:	02070463          	beq	a4,zero,1e23c <_signal_r+0x34>
   1e218:	00259593          	slli	a1,a1,0x2
   1e21c:	00b70733          	add	a4,a4,a1
   1e220:	00072503          	lw	a0,0(a4)
   1e224:	00c72023          	sw	a2,0(a4)
   1e228:	00008067          	jalr	zero,0(ra)
   1e22c:	01600713          	addi	a4,zero,22
   1e230:	00e52023          	sw	a4,0(a0)
   1e234:	fff00513          	addi	a0,zero,-1
   1e238:	00008067          	jalr	zero,0(ra)
   1e23c:	fe010113          	addi	sp,sp,-32
   1e240:	00b12223          	sw	a1,4(sp)
   1e244:	08000593          	addi	a1,zero,128
   1e248:	00c12423          	sw	a2,8(sp)
   1e24c:	00112e23          	sw	ra,28(sp)
   1e250:	00a12623          	sw	a0,12(sp)
   1e254:	9a1f50ef          	jal	ra,13bf4 <_malloc_r>
   1e258:	00c12683          	lw	a3,12(sp)
   1e25c:	00050713          	addi	a4,a0,0
   1e260:	08050593          	addi	a1,a0,128
   1e264:	10a6ac23          	sw	a0,280(a3)
   1e268:	00412783          	lw	a5,4(sp)
   1e26c:	00050693          	addi	a3,a0,0
   1e270:	00812603          	lw	a2,8(sp)
   1e274:	fff00513          	addi	a0,zero,-1
   1e278:	02070063          	beq	a4,zero,1e298 <_signal_r+0x90>
   1e27c:	0006a023          	sw	zero,0(a3)
   1e280:	00468693          	addi	a3,a3,4
   1e284:	feb69ce3          	bne	a3,a1,1e27c <_signal_r+0x74>
   1e288:	00279593          	slli	a1,a5,0x2
   1e28c:	00b70733          	add	a4,a4,a1
   1e290:	00072503          	lw	a0,0(a4)
   1e294:	00c72023          	sw	a2,0(a4)
   1e298:	01c12083          	lw	ra,28(sp)
   1e29c:	02010113          	addi	sp,sp,32
   1e2a0:	00008067          	jalr	zero,0(ra)

0001e2a4 <_raise_r>:
   1e2a4:	01f00793          	addi	a5,zero,31
   1e2a8:	08b7ea63          	bltu	a5,a1,1e33c <_raise_r+0x98>
   1e2ac:	11852783          	lw	a5,280(a0)
   1e2b0:	fe010113          	addi	sp,sp,-32
   1e2b4:	00112e23          	sw	ra,28(sp)
   1e2b8:	00050713          	addi	a4,a0,0
   1e2bc:	00058613          	addi	a2,a1,0
   1e2c0:	04078063          	beq	a5,zero,1e300 <_raise_r+0x5c>
   1e2c4:	00259693          	slli	a3,a1,0x2
   1e2c8:	00d787b3          	add	a5,a5,a3
   1e2cc:	0007a683          	lw	a3,0(a5)
   1e2d0:	02068863          	beq	a3,zero,1e300 <_raise_r+0x5c>
   1e2d4:	00100513          	addi	a0,zero,1
   1e2d8:	00a68c63          	beq	a3,a0,1e2f0 <_raise_r+0x4c>
   1e2dc:	fff00593          	addi	a1,zero,-1
   1e2e0:	04b68463          	beq	a3,a1,1e328 <_raise_r+0x84>
   1e2e4:	0007a023          	sw	zero,0(a5)
   1e2e8:	00060513          	addi	a0,a2,0
   1e2ec:	000680e7          	jalr	ra,0(a3)
   1e2f0:	01c12083          	lw	ra,28(sp)
   1e2f4:	00000513          	addi	a0,zero,0
   1e2f8:	02010113          	addi	sp,sp,32
   1e2fc:	00008067          	jalr	zero,0(ra)
   1e300:	00070513          	addi	a0,a4,0
   1e304:	00c12623          	sw	a2,12(sp)
   1e308:	00e12423          	sw	a4,8(sp)
   1e30c:	3f0000ef          	jal	ra,1e6fc <_getpid_r>
   1e310:	00c12603          	lw	a2,12(sp)
   1e314:	01c12083          	lw	ra,28(sp)
   1e318:	00050593          	addi	a1,a0,0
   1e31c:	00812503          	lw	a0,8(sp)
   1e320:	02010113          	addi	sp,sp,32
   1e324:	3740006f          	jal	zero,1e698 <_kill_r>
   1e328:	01c12083          	lw	ra,28(sp)
   1e32c:	01600793          	addi	a5,zero,22
   1e330:	00f72023          	sw	a5,0(a4)
   1e334:	02010113          	addi	sp,sp,32
   1e338:	00008067          	jalr	zero,0(ra)
   1e33c:	01600793          	addi	a5,zero,22
   1e340:	00f52023          	sw	a5,0(a0)
   1e344:	fff00513          	addi	a0,zero,-1
   1e348:	00008067          	jalr	zero,0(ra)

0001e34c <__sigtramp_r>:
   1e34c:	01f00793          	addi	a5,zero,31
   1e350:	0cb7e063          	bltu	a5,a1,1e410 <__sigtramp_r+0xc4>
   1e354:	11852783          	lw	a5,280(a0)
   1e358:	fe010113          	addi	sp,sp,-32
   1e35c:	00112e23          	sw	ra,28(sp)
   1e360:	00058713          	addi	a4,a1,0
   1e364:	06078463          	beq	a5,zero,1e3cc <__sigtramp_r+0x80>
   1e368:	00271693          	slli	a3,a4,0x2
   1e36c:	00d787b3          	add	a5,a5,a3
   1e370:	0007a683          	lw	a3,0(a5)
   1e374:	02068863          	beq	a3,zero,1e3a4 <__sigtramp_r+0x58>
   1e378:	fff00613          	addi	a2,zero,-1
   1e37c:	04c68463          	beq	a3,a2,1e3c4 <__sigtramp_r+0x78>
   1e380:	00100613          	addi	a2,zero,1
   1e384:	02c68863          	beq	a3,a2,1e3b4 <__sigtramp_r+0x68>
   1e388:	00070513          	addi	a0,a4,0
   1e38c:	0007a023          	sw	zero,0(a5)
   1e390:	000680e7          	jalr	ra,0(a3)
   1e394:	00000513          	addi	a0,zero,0
   1e398:	01c12083          	lw	ra,28(sp)
   1e39c:	02010113          	addi	sp,sp,32
   1e3a0:	00008067          	jalr	zero,0(ra)
   1e3a4:	01c12083          	lw	ra,28(sp)
   1e3a8:	00100513          	addi	a0,zero,1
   1e3ac:	02010113          	addi	sp,sp,32
   1e3b0:	00008067          	jalr	zero,0(ra)
   1e3b4:	01c12083          	lw	ra,28(sp)
   1e3b8:	00300513          	addi	a0,zero,3
   1e3bc:	02010113          	addi	sp,sp,32
   1e3c0:	00008067          	jalr	zero,0(ra)
   1e3c4:	00200513          	addi	a0,zero,2
   1e3c8:	fd1ff06f          	jal	zero,1e398 <__sigtramp_r+0x4c>
   1e3cc:	00b12623          	sw	a1,12(sp)
   1e3d0:	08000593          	addi	a1,zero,128
   1e3d4:	00a12423          	sw	a0,8(sp)
   1e3d8:	81df50ef          	jal	ra,13bf4 <_malloc_r>
   1e3dc:	00812683          	lw	a3,8(sp)
   1e3e0:	00050793          	addi	a5,a0,0
   1e3e4:	10a6ac23          	sw	a0,280(a3)
   1e3e8:	02050063          	beq	a0,zero,1e408 <__sigtramp_r+0xbc>
   1e3ec:	00c12703          	lw	a4,12(sp)
   1e3f0:	00050693          	addi	a3,a0,0
   1e3f4:	08050613          	addi	a2,a0,128
   1e3f8:	0006a023          	sw	zero,0(a3)
   1e3fc:	00468693          	addi	a3,a3,4
   1e400:	fec69ce3          	bne	a3,a2,1e3f8 <__sigtramp_r+0xac>
   1e404:	f65ff06f          	jal	zero,1e368 <__sigtramp_r+0x1c>
   1e408:	fff00513          	addi	a0,zero,-1
   1e40c:	f8dff06f          	jal	zero,1e398 <__sigtramp_r+0x4c>
   1e410:	fff00513          	addi	a0,zero,-1
   1e414:	00008067          	jalr	zero,0(ra)

0001e418 <raise>:
   1e418:	01f00793          	addi	a5,zero,31
   1e41c:	8741a803          	lw	a6,-1932(gp) # 7072c <_impure_ptr>
   1e420:	08a7e863          	bltu	a5,a0,1e4b0 <raise+0x98>
   1e424:	11882783          	lw	a5,280(a6)
   1e428:	fe010113          	addi	sp,sp,-32
   1e42c:	00112e23          	sw	ra,28(sp)
   1e430:	00050613          	addi	a2,a0,0
   1e434:	02078e63          	beq	a5,zero,1e470 <raise+0x58>
   1e438:	00251713          	slli	a4,a0,0x2
   1e43c:	00e787b3          	add	a5,a5,a4
   1e440:	0007a703          	lw	a4,0(a5)
   1e444:	02070663          	beq	a4,zero,1e470 <raise+0x58>
   1e448:	00100693          	addi	a3,zero,1
   1e44c:	00d70a63          	beq	a4,a3,1e460 <raise+0x48>
   1e450:	fff00613          	addi	a2,zero,-1
   1e454:	04c70263          	beq	a4,a2,1e498 <raise+0x80>
   1e458:	0007a023          	sw	zero,0(a5)
   1e45c:	000700e7          	jalr	ra,0(a4)
   1e460:	01c12083          	lw	ra,28(sp)
   1e464:	00000513          	addi	a0,zero,0
   1e468:	02010113          	addi	sp,sp,32
   1e46c:	00008067          	jalr	zero,0(ra)
   1e470:	00080513          	addi	a0,a6,0
   1e474:	00c12623          	sw	a2,12(sp)
   1e478:	01012423          	sw	a6,8(sp)
   1e47c:	280000ef          	jal	ra,1e6fc <_getpid_r>
   1e480:	00c12603          	lw	a2,12(sp)
   1e484:	01c12083          	lw	ra,28(sp)
   1e488:	00050593          	addi	a1,a0,0
   1e48c:	00812503          	lw	a0,8(sp)
   1e490:	02010113          	addi	sp,sp,32
   1e494:	2040006f          	jal	zero,1e698 <_kill_r>
   1e498:	01c12083          	lw	ra,28(sp)
   1e49c:	01600793          	addi	a5,zero,22
   1e4a0:	00f82023          	sw	a5,0(a6)
   1e4a4:	00068513          	addi	a0,a3,0
   1e4a8:	02010113          	addi	sp,sp,32
   1e4ac:	00008067          	jalr	zero,0(ra)
   1e4b0:	01600793          	addi	a5,zero,22
   1e4b4:	00f82023          	sw	a5,0(a6)
   1e4b8:	fff00513          	addi	a0,zero,-1
   1e4bc:	00008067          	jalr	zero,0(ra)

0001e4c0 <signal>:
   1e4c0:	01f00793          	addi	a5,zero,31
   1e4c4:	8741a603          	lw	a2,-1932(gp) # 7072c <_impure_ptr>
   1e4c8:	02a7e063          	bltu	a5,a0,1e4e8 <signal+0x28>
   1e4cc:	11862703          	lw	a4,280(a2)
   1e4d0:	02070463          	beq	a4,zero,1e4f8 <signal+0x38>
   1e4d4:	00251513          	slli	a0,a0,0x2
   1e4d8:	00a70733          	add	a4,a4,a0
   1e4dc:	00072503          	lw	a0,0(a4)
   1e4e0:	00b72023          	sw	a1,0(a4)
   1e4e4:	00008067          	jalr	zero,0(ra)
   1e4e8:	01600793          	addi	a5,zero,22
   1e4ec:	00f62023          	sw	a5,0(a2)
   1e4f0:	fff00513          	addi	a0,zero,-1
   1e4f4:	00008067          	jalr	zero,0(ra)
   1e4f8:	fe010113          	addi	sp,sp,-32
   1e4fc:	00b12623          	sw	a1,12(sp)
   1e500:	00a12423          	sw	a0,8(sp)
   1e504:	08000593          	addi	a1,zero,128
   1e508:	00060513          	addi	a0,a2,0
   1e50c:	00c12223          	sw	a2,4(sp)
   1e510:	00112e23          	sw	ra,28(sp)
   1e514:	ee0f50ef          	jal	ra,13bf4 <_malloc_r>
   1e518:	00412603          	lw	a2,4(sp)
   1e51c:	00050713          	addi	a4,a0,0
   1e520:	08050593          	addi	a1,a0,128
   1e524:	10a62c23          	sw	a0,280(a2)
   1e528:	00812783          	lw	a5,8(sp)
   1e52c:	00050613          	addi	a2,a0,0
   1e530:	00c12683          	lw	a3,12(sp)
   1e534:	fff00513          	addi	a0,zero,-1
   1e538:	02070063          	beq	a4,zero,1e558 <signal+0x98>
   1e53c:	00062023          	sw	zero,0(a2)
   1e540:	00460613          	addi	a2,a2,4
   1e544:	fec59ce3          	bne	a1,a2,1e53c <signal+0x7c>
   1e548:	00279513          	slli	a0,a5,0x2
   1e54c:	00a70733          	add	a4,a4,a0
   1e550:	00072503          	lw	a0,0(a4)
   1e554:	00d72023          	sw	a3,0(a4)
   1e558:	01c12083          	lw	ra,28(sp)
   1e55c:	02010113          	addi	sp,sp,32
   1e560:	00008067          	jalr	zero,0(ra)

0001e564 <_init_signal>:
   1e564:	8741a783          	lw	a5,-1932(gp) # 7072c <_impure_ptr>
   1e568:	1187a703          	lw	a4,280(a5)
   1e56c:	00070663          	beq	a4,zero,1e578 <_init_signal+0x14>
   1e570:	00000513          	addi	a0,zero,0
   1e574:	00008067          	jalr	zero,0(ra)
   1e578:	fe010113          	addi	sp,sp,-32
   1e57c:	00078513          	addi	a0,a5,0
   1e580:	08000593          	addi	a1,zero,128
   1e584:	00f12623          	sw	a5,12(sp)
   1e588:	00112e23          	sw	ra,28(sp)
   1e58c:	e68f50ef          	jal	ra,13bf4 <_malloc_r>
   1e590:	00c12783          	lw	a5,12(sp)
   1e594:	10a7ac23          	sw	a0,280(a5)
   1e598:	02050263          	beq	a0,zero,1e5bc <_init_signal+0x58>
   1e59c:	08050793          	addi	a5,a0,128
   1e5a0:	00052023          	sw	zero,0(a0)
   1e5a4:	00450513          	addi	a0,a0,4
   1e5a8:	fef51ce3          	bne	a0,a5,1e5a0 <_init_signal+0x3c>
   1e5ac:	00000513          	addi	a0,zero,0
   1e5b0:	01c12083          	lw	ra,28(sp)
   1e5b4:	02010113          	addi	sp,sp,32
   1e5b8:	00008067          	jalr	zero,0(ra)
   1e5bc:	fff00513          	addi	a0,zero,-1
   1e5c0:	ff1ff06f          	jal	zero,1e5b0 <_init_signal+0x4c>

0001e5c4 <__sigtramp>:
   1e5c4:	01f00793          	addi	a5,zero,31
   1e5c8:	0ca7e463          	bltu	a5,a0,1e690 <__sigtramp+0xcc>
   1e5cc:	8741a683          	lw	a3,-1932(gp) # 7072c <_impure_ptr>
   1e5d0:	fe010113          	addi	sp,sp,-32
   1e5d4:	00112e23          	sw	ra,28(sp)
   1e5d8:	1186a783          	lw	a5,280(a3)
   1e5dc:	00050713          	addi	a4,a0,0
   1e5e0:	06078463          	beq	a5,zero,1e648 <__sigtramp+0x84>
   1e5e4:	00271693          	slli	a3,a4,0x2
   1e5e8:	00d787b3          	add	a5,a5,a3
   1e5ec:	0007a683          	lw	a3,0(a5)
   1e5f0:	02068863          	beq	a3,zero,1e620 <__sigtramp+0x5c>
   1e5f4:	fff00613          	addi	a2,zero,-1
   1e5f8:	04c68463          	beq	a3,a2,1e640 <__sigtramp+0x7c>
   1e5fc:	00100613          	addi	a2,zero,1
   1e600:	02c68863          	beq	a3,a2,1e630 <__sigtramp+0x6c>
   1e604:	00070513          	addi	a0,a4,0
   1e608:	0007a023          	sw	zero,0(a5)
   1e60c:	000680e7          	jalr	ra,0(a3)
   1e610:	00000513          	addi	a0,zero,0
   1e614:	01c12083          	lw	ra,28(sp)
   1e618:	02010113          	addi	sp,sp,32
   1e61c:	00008067          	jalr	zero,0(ra)
   1e620:	01c12083          	lw	ra,28(sp)
   1e624:	00100513          	addi	a0,zero,1
   1e628:	02010113          	addi	sp,sp,32
   1e62c:	00008067          	jalr	zero,0(ra)
   1e630:	01c12083          	lw	ra,28(sp)
   1e634:	00300513          	addi	a0,zero,3
   1e638:	02010113          	addi	sp,sp,32
   1e63c:	00008067          	jalr	zero,0(ra)
   1e640:	00200513          	addi	a0,zero,2
   1e644:	fd1ff06f          	jal	zero,1e614 <__sigtramp+0x50>
   1e648:	00a12623          	sw	a0,12(sp)
   1e64c:	08000593          	addi	a1,zero,128
   1e650:	00068513          	addi	a0,a3,0
   1e654:	00d12423          	sw	a3,8(sp)
   1e658:	d9cf50ef          	jal	ra,13bf4 <_malloc_r>
   1e65c:	00812683          	lw	a3,8(sp)
   1e660:	00050793          	addi	a5,a0,0
   1e664:	10a6ac23          	sw	a0,280(a3)
   1e668:	02050063          	beq	a0,zero,1e688 <__sigtramp+0xc4>
   1e66c:	00c12703          	lw	a4,12(sp)
   1e670:	00050693          	addi	a3,a0,0
   1e674:	08050613          	addi	a2,a0,128
   1e678:	0006a023          	sw	zero,0(a3)
   1e67c:	00468693          	addi	a3,a3,4
   1e680:	fed61ce3          	bne	a2,a3,1e678 <__sigtramp+0xb4>
   1e684:	f61ff06f          	jal	zero,1e5e4 <__sigtramp+0x20>
   1e688:	fff00513          	addi	a0,zero,-1
   1e68c:	f89ff06f          	jal	zero,1e614 <__sigtramp+0x50>
   1e690:	fff00513          	addi	a0,zero,-1
   1e694:	00008067          	jalr	zero,0(ra)

0001e698 <_kill_r>:
   1e698:	ff010113          	addi	sp,sp,-16
   1e69c:	00058793          	addi	a5,a1,0
   1e6a0:	00812423          	sw	s0,8(sp)
   1e6a4:	00912223          	sw	s1,4(sp)
   1e6a8:	00060593          	addi	a1,a2,0
   1e6ac:	00050493          	addi	s1,a0,0
   1e6b0:	00078513          	addi	a0,a5,0
   1e6b4:	00112623          	sw	ra,12(sp)
   1e6b8:	8801a423          	sw	zero,-1912(gp) # 70740 <errno>
   1e6bc:	15c000ef          	jal	ra,1e818 <_kill>
   1e6c0:	fff00793          	addi	a5,zero,-1
   1e6c4:	00f50c63          	beq	a0,a5,1e6dc <_kill_r+0x44>
   1e6c8:	00c12083          	lw	ra,12(sp)
   1e6cc:	00812403          	lw	s0,8(sp)
   1e6d0:	00412483          	lw	s1,4(sp)
   1e6d4:	01010113          	addi	sp,sp,16
   1e6d8:	00008067          	jalr	zero,0(ra)
   1e6dc:	8881a783          	lw	a5,-1912(gp) # 70740 <errno>
   1e6e0:	fe0784e3          	beq	a5,zero,1e6c8 <_kill_r+0x30>
   1e6e4:	00c12083          	lw	ra,12(sp)
   1e6e8:	00812403          	lw	s0,8(sp)
   1e6ec:	00f4a023          	sw	a5,0(s1)
   1e6f0:	00412483          	lw	s1,4(sp)
   1e6f4:	01010113          	addi	sp,sp,16
   1e6f8:	00008067          	jalr	zero,0(ra)

0001e6fc <_getpid_r>:
   1e6fc:	0d40006f          	jal	zero,1e7d0 <_getpid>

0001e700 <_close>:
   1e700:	03900893          	addi	a7,zero,57
   1e704:	00000073          	ecall
   1e708:	00054463          	blt	a0,zero,1e710 <_close+0x10>
   1e70c:	00008067          	jalr	zero,0(ra)
   1e710:	fe010113          	addi	sp,sp,-32
   1e714:	00112e23          	sw	ra,28(sp)
   1e718:	00a12623          	sw	a0,12(sp)
   1e71c:	a75ff0ef          	jal	ra,1e190 <__errno>
   1e720:	00c12783          	lw	a5,12(sp)
   1e724:	01c12083          	lw	ra,28(sp)
   1e728:	40f007b3          	sub	a5,zero,a5
   1e72c:	00f52023          	sw	a5,0(a0)
   1e730:	fff00793          	addi	a5,zero,-1
   1e734:	00078513          	addi	a0,a5,0
   1e738:	02010113          	addi	sp,sp,32
   1e73c:	00008067          	jalr	zero,0(ra)

0001e740 <_exit>:
   1e740:	05d00893          	addi	a7,zero,93
   1e744:	00000073          	ecall
   1e748:	00054463          	blt	a0,zero,1e750 <_exit+0x10>
   1e74c:	0000006f          	jal	zero,1e74c <_exit+0xc>
   1e750:	fe010113          	addi	sp,sp,-32
   1e754:	00112e23          	sw	ra,28(sp)
   1e758:	00a12623          	sw	a0,12(sp)
   1e75c:	a35ff0ef          	jal	ra,1e190 <__errno>
   1e760:	00c12783          	lw	a5,12(sp)
   1e764:	40f007b3          	sub	a5,zero,a5
   1e768:	00f52023          	sw	a5,0(a0)
   1e76c:	0000006f          	jal	zero,1e76c <_exit+0x2c>

0001e770 <_fstat>:
   1e770:	f6010113          	addi	sp,sp,-160
   1e774:	00058793          	addi	a5,a1,0
   1e778:	08112e23          	sw	ra,156(sp)
   1e77c:	08812c23          	sw	s0,152(sp)
   1e780:	05000893          	addi	a7,zero,80
   1e784:	01010593          	addi	a1,sp,16
   1e788:	00000073          	ecall
   1e78c:	00050413          	addi	s0,a0,0
   1e790:	02054263          	blt	a0,zero,1e7b4 <_fstat+0x44>
   1e794:	01010593          	addi	a1,sp,16
   1e798:	00078513          	addi	a0,a5,0
   1e79c:	1d8000ef          	jal	ra,1e974 <_conv_stat>
   1e7a0:	09c12083          	lw	ra,156(sp)
   1e7a4:	00040513          	addi	a0,s0,0
   1e7a8:	09812403          	lw	s0,152(sp)
   1e7ac:	0a010113          	addi	sp,sp,160
   1e7b0:	00008067          	jalr	zero,0(ra)
   1e7b4:	00f12623          	sw	a5,12(sp)
   1e7b8:	40800433          	sub	s0,zero,s0
   1e7bc:	9d5ff0ef          	jal	ra,1e190 <__errno>
   1e7c0:	00852023          	sw	s0,0(a0)
   1e7c4:	00c12783          	lw	a5,12(sp)
   1e7c8:	fff00413          	addi	s0,zero,-1
   1e7cc:	fc9ff06f          	jal	zero,1e794 <_fstat+0x24>

0001e7d0 <_getpid>:
   1e7d0:	00100513          	addi	a0,zero,1
   1e7d4:	00008067          	jalr	zero,0(ra)

0001e7d8 <_isatty>:
   1e7d8:	f9010113          	addi	sp,sp,-112
   1e7dc:	00810593          	addi	a1,sp,8
   1e7e0:	06112623          	sw	ra,108(sp)
   1e7e4:	f8dff0ef          	jal	ra,1e770 <_fstat>
   1e7e8:	fff00793          	addi	a5,zero,-1
   1e7ec:	00f50e63          	beq	a0,a5,1e808 <_isatty+0x30>
   1e7f0:	00c12503          	lw	a0,12(sp)
   1e7f4:	06c12083          	lw	ra,108(sp)
   1e7f8:	00d55513          	srli	a0,a0,0xd
   1e7fc:	00157513          	andi	a0,a0,1
   1e800:	07010113          	addi	sp,sp,112
   1e804:	00008067          	jalr	zero,0(ra)
   1e808:	06c12083          	lw	ra,108(sp)
   1e80c:	00000513          	addi	a0,zero,0
   1e810:	07010113          	addi	sp,sp,112
   1e814:	00008067          	jalr	zero,0(ra)

0001e818 <_kill>:
   1e818:	ff010113          	addi	sp,sp,-16
   1e81c:	00112623          	sw	ra,12(sp)
   1e820:	971ff0ef          	jal	ra,1e190 <__errno>
   1e824:	00c12083          	lw	ra,12(sp)
   1e828:	01600793          	addi	a5,zero,22
   1e82c:	00f52023          	sw	a5,0(a0)
   1e830:	fff00513          	addi	a0,zero,-1
   1e834:	01010113          	addi	sp,sp,16
   1e838:	00008067          	jalr	zero,0(ra)

0001e83c <_lseek>:
   1e83c:	03e00893          	addi	a7,zero,62
   1e840:	00000073          	ecall
   1e844:	00054463          	blt	a0,zero,1e84c <_lseek+0x10>
   1e848:	00008067          	jalr	zero,0(ra)
   1e84c:	fe010113          	addi	sp,sp,-32
   1e850:	00112e23          	sw	ra,28(sp)
   1e854:	00a12623          	sw	a0,12(sp)
   1e858:	939ff0ef          	jal	ra,1e190 <__errno>
   1e85c:	00c12783          	lw	a5,12(sp)
   1e860:	01c12083          	lw	ra,28(sp)
   1e864:	40f007b3          	sub	a5,zero,a5
   1e868:	00f52023          	sw	a5,0(a0)
   1e86c:	fff00793          	addi	a5,zero,-1
   1e870:	00078513          	addi	a0,a5,0
   1e874:	02010113          	addi	sp,sp,32
   1e878:	00008067          	jalr	zero,0(ra)

0001e87c <_read>:
   1e87c:	03f00893          	addi	a7,zero,63
   1e880:	00000073          	ecall
   1e884:	00054463          	blt	a0,zero,1e88c <_read+0x10>
   1e888:	00008067          	jalr	zero,0(ra)
   1e88c:	fe010113          	addi	sp,sp,-32
   1e890:	00112e23          	sw	ra,28(sp)
   1e894:	00a12623          	sw	a0,12(sp)
   1e898:	8f9ff0ef          	jal	ra,1e190 <__errno>
   1e89c:	00c12783          	lw	a5,12(sp)
   1e8a0:	01c12083          	lw	ra,28(sp)
   1e8a4:	40f007b3          	sub	a5,zero,a5
   1e8a8:	00f52023          	sw	a5,0(a0)
   1e8ac:	fff00793          	addi	a5,zero,-1
   1e8b0:	00078513          	addi	a0,a5,0
   1e8b4:	02010113          	addi	sp,sp,32
   1e8b8:	00008067          	jalr	zero,0(ra)

0001e8bc <_sbrk>:
   1e8bc:	8a01a783          	lw	a5,-1888(gp) # 70758 <heap_end.0>
   1e8c0:	ff010113          	addi	sp,sp,-16
   1e8c4:	00112623          	sw	ra,12(sp)
   1e8c8:	00050713          	addi	a4,a0,0
   1e8cc:	02079063          	bne	a5,zero,1e8ec <_sbrk+0x30>
   1e8d0:	0d600893          	addi	a7,zero,214
   1e8d4:	00000513          	addi	a0,zero,0
   1e8d8:	00000073          	ecall
   1e8dc:	fff00793          	addi	a5,zero,-1
   1e8e0:	02f50c63          	beq	a0,a5,1e918 <_sbrk+0x5c>
   1e8e4:	00050793          	addi	a5,a0,0
   1e8e8:	8aa1a023          	sw	a0,-1888(gp) # 70758 <heap_end.0>
   1e8ec:	00f70533          	add	a0,a4,a5
   1e8f0:	0d600893          	addi	a7,zero,214
   1e8f4:	00000073          	ecall
   1e8f8:	8a01a783          	lw	a5,-1888(gp) # 70758 <heap_end.0>
   1e8fc:	00f70733          	add	a4,a4,a5
   1e900:	00e51c63          	bne	a0,a4,1e918 <_sbrk+0x5c>
   1e904:	00c12083          	lw	ra,12(sp)
   1e908:	8aa1a023          	sw	a0,-1888(gp) # 70758 <heap_end.0>
   1e90c:	00078513          	addi	a0,a5,0
   1e910:	01010113          	addi	sp,sp,16
   1e914:	00008067          	jalr	zero,0(ra)
   1e918:	879ff0ef          	jal	ra,1e190 <__errno>
   1e91c:	00c12083          	lw	ra,12(sp)
   1e920:	00c00793          	addi	a5,zero,12
   1e924:	00f52023          	sw	a5,0(a0)
   1e928:	fff00513          	addi	a0,zero,-1
   1e92c:	01010113          	addi	sp,sp,16
   1e930:	00008067          	jalr	zero,0(ra)

0001e934 <_write>:
   1e934:	04000893          	addi	a7,zero,64
   1e938:	00000073          	ecall
   1e93c:	00054463          	blt	a0,zero,1e944 <_write+0x10>
   1e940:	00008067          	jalr	zero,0(ra)
   1e944:	fe010113          	addi	sp,sp,-32
   1e948:	00112e23          	sw	ra,28(sp)
   1e94c:	00a12623          	sw	a0,12(sp)
   1e950:	841ff0ef          	jal	ra,1e190 <__errno>
   1e954:	00c12783          	lw	a5,12(sp)
   1e958:	01c12083          	lw	ra,28(sp)
   1e95c:	40f007b3          	sub	a5,zero,a5
   1e960:	00f52023          	sw	a5,0(a0)
   1e964:	fff00793          	addi	a5,zero,-1
   1e968:	00078513          	addi	a0,a5,0
   1e96c:	02010113          	addi	sp,sp,32
   1e970:	00008067          	jalr	zero,0(ra)

0001e974 <_conv_stat>:
   1e974:	0005a683          	lw	a3,0(a1)
   1e978:	0085a703          	lw	a4,8(a1)
   1e97c:	0105a783          	lw	a5,16(a1)
   1e980:	0145a383          	lw	t2,20(a1)
   1e984:	0185a283          	lw	t0,24(a1)
   1e988:	01c5af83          	lw	t6,28(a1)
   1e98c:	0205af03          	lw	t5,32(a1)
   1e990:	0305ae83          	lw	t4,48(a1)
   1e994:	0405ae03          	lw	t3,64(a1)
   1e998:	0385a303          	lw	t1,56(a1)
   1e99c:	0485a803          	lw	a6,72(a1)
   1e9a0:	04c5a883          	lw	a7,76(a1)
   1e9a4:	0585a603          	lw	a2,88(a1)
   1e9a8:	00d51023          	sh	a3,0(a0)
   1e9ac:	00e51123          	sh	a4,2(a0)
   1e9b0:	05c5a683          	lw	a3,92(a1)
   1e9b4:	0685a703          	lw	a4,104(a1)
   1e9b8:	00f52223          	sw	a5,4(a0)
   1e9bc:	06c5a783          	lw	a5,108(a1)
   1e9c0:	00751423          	sh	t2,8(a0)
   1e9c4:	00551523          	sh	t0,10(a0)
   1e9c8:	01f51623          	sh	t6,12(a0)
   1e9cc:	01e51723          	sh	t5,14(a0)
   1e9d0:	01d52823          	sw	t4,16(a0)
   1e9d4:	05c52623          	sw	t3,76(a0)
   1e9d8:	04652423          	sw	t1,72(a0)
   1e9dc:	01052c23          	sw	a6,24(a0)
   1e9e0:	01152e23          	sw	a7,28(a0)
   1e9e4:	02c52423          	sw	a2,40(a0)
   1e9e8:	02d52623          	sw	a3,44(a0)
   1e9ec:	02e52c23          	sw	a4,56(a0)
   1e9f0:	02f52e23          	sw	a5,60(a0)
   1e9f4:	00008067          	jalr	zero,0(ra)

0001e9f8 <__adddf3>:
   1e9f8:	00100737          	lui	a4,0x100
   1e9fc:	fe010113          	addi	sp,sp,-32
   1ea00:	fff70713          	addi	a4,a4,-1 # fffff <cipher_buffer.1+0x41687>
   1ea04:	00b777b3          	and	a5,a4,a1
   1ea08:	0146d893          	srli	a7,a3,0x14
   1ea0c:	00d77733          	and	a4,a4,a3
   1ea10:	00812c23          	sw	s0,24(sp)
   1ea14:	0145d413          	srli	s0,a1,0x14
   1ea18:	00371713          	slli	a4,a4,0x3
   1ea1c:	01d65813          	srli	a6,a2,0x1d
   1ea20:	01212823          	sw	s2,16(sp)
   1ea24:	7ff47413          	andi	s0,s0,2047
   1ea28:	01f5d913          	srli	s2,a1,0x1f
   1ea2c:	00379793          	slli	a5,a5,0x3
   1ea30:	01d55593          	srli	a1,a0,0x1d
   1ea34:	7ff8f893          	andi	a7,a7,2047
   1ea38:	00112e23          	sw	ra,28(sp)
   1ea3c:	00912a23          	sw	s1,20(sp)
   1ea40:	01312623          	sw	s3,12(sp)
   1ea44:	01f6d693          	srli	a3,a3,0x1f
   1ea48:	00f5e7b3          	or	a5,a1,a5
   1ea4c:	00e86833          	or	a6,a6,a4
   1ea50:	00351513          	slli	a0,a0,0x3
   1ea54:	00361613          	slli	a2,a2,0x3
   1ea58:	41140733          	sub	a4,s0,a7
   1ea5c:	7ff00593          	addi	a1,zero,2047
   1ea60:	30d91463          	bne	s2,a3,1ed68 <__adddf3+0x370>
   1ea64:	10e05263          	bge	zero,a4,1eb68 <__adddf3+0x170>
   1ea68:	02089c63          	bne	a7,zero,1eaa0 <__adddf3+0xa8>
   1ea6c:	00c86733          	or	a4,a6,a2
   1ea70:	02070463          	beq	a4,zero,1ea98 <__adddf3+0xa0>
   1ea74:	fff40713          	addi	a4,s0,-1
   1ea78:	00071e63          	bne	a4,zero,1ea94 <__adddf3+0x9c>
   1ea7c:	00c50633          	add	a2,a0,a2
   1ea80:	010787b3          	add	a5,a5,a6
   1ea84:	00a63533          	sltu	a0,a2,a0
   1ea88:	00a787b3          	add	a5,a5,a0
   1ea8c:	00100413          	addi	s0,zero,1
   1ea90:	0600006f          	jal	zero,1eaf0 <__adddf3+0xf8>
   1ea94:	00b41c63          	bne	s0,a1,1eaac <__adddf3+0xb4>
   1ea98:	00050613          	addi	a2,a0,0
   1ea9c:	1d80006f          	jal	zero,1ec74 <__adddf3+0x27c>
   1eaa0:	feb40ce3          	beq	s0,a1,1ea98 <__adddf3+0xa0>
   1eaa4:	008006b7          	lui	a3,0x800
   1eaa8:	00d86833          	or	a6,a6,a3
   1eaac:	03800693          	addi	a3,zero,56
   1eab0:	0ae6c663          	blt	a3,a4,1eb5c <__adddf3+0x164>
   1eab4:	01f00693          	addi	a3,zero,31
   1eab8:	02000893          	addi	a7,zero,32
   1eabc:	06e6c863          	blt	a3,a4,1eb2c <__adddf3+0x134>
   1eac0:	40e888b3          	sub	a7,a7,a4
   1eac4:	011816b3          	sll	a3,a6,a7
   1eac8:	00e655b3          	srl	a1,a2,a4
   1eacc:	011618b3          	sll	a7,a2,a7
   1ead0:	00b6e6b3          	or	a3,a3,a1
   1ead4:	011038b3          	sltu	a7,zero,a7
   1ead8:	0116e6b3          	or	a3,a3,a7
   1eadc:	00e85733          	srl	a4,a6,a4
   1eae0:	00a68633          	add	a2,a3,a0
   1eae4:	00f70733          	add	a4,a4,a5
   1eae8:	00d636b3          	sltu	a3,a2,a3
   1eaec:	00d707b3          	add	a5,a4,a3
   1eaf0:	00879713          	slli	a4,a5,0x8
   1eaf4:	22075663          	bge	a4,zero,1ed20 <__adddf3+0x328>
   1eaf8:	00140413          	addi	s0,s0,1
   1eafc:	7ff00713          	addi	a4,zero,2047
   1eb00:	60e40863          	beq	s0,a4,1f110 <__adddf3+0x718>
   1eb04:	ff800737          	lui	a4,0xff800
   1eb08:	fff70713          	addi	a4,a4,-1 # ff7fffff <__BSS_END__+0xff6ebc67>
   1eb0c:	00e7f7b3          	and	a5,a5,a4
   1eb10:	00165713          	srli	a4,a2,0x1
   1eb14:	00167613          	andi	a2,a2,1
   1eb18:	00c76733          	or	a4,a4,a2
   1eb1c:	01f79613          	slli	a2,a5,0x1f
   1eb20:	00e66633          	or	a2,a2,a4
   1eb24:	0017d793          	srli	a5,a5,0x1
   1eb28:	1f80006f          	jal	zero,1ed20 <__adddf3+0x328>
   1eb2c:	fe070693          	addi	a3,a4,-32
   1eb30:	00d856b3          	srl	a3,a6,a3
   1eb34:	00000593          	addi	a1,zero,0
   1eb38:	01170863          	beq	a4,a7,1eb48 <__adddf3+0x150>
   1eb3c:	04000593          	addi	a1,zero,64
   1eb40:	40e585b3          	sub	a1,a1,a4
   1eb44:	00b815b3          	sll	a1,a6,a1
   1eb48:	00c5e5b3          	or	a1,a1,a2
   1eb4c:	00b035b3          	sltu	a1,zero,a1
   1eb50:	00b6e6b3          	or	a3,a3,a1
   1eb54:	00000713          	addi	a4,zero,0
   1eb58:	f89ff06f          	jal	zero,1eae0 <__adddf3+0xe8>
   1eb5c:	00c866b3          	or	a3,a6,a2
   1eb60:	00d036b3          	sltu	a3,zero,a3
   1eb64:	ff1ff06f          	jal	zero,1eb54 <__adddf3+0x15c>
   1eb68:	0c070263          	beq	a4,zero,1ec2c <__adddf3+0x234>
   1eb6c:	40888733          	sub	a4,a7,s0
   1eb70:	02041263          	bne	s0,zero,1eb94 <__adddf3+0x19c>
   1eb74:	00a7e6b3          	or	a3,a5,a0
   1eb78:	00068863          	beq	a3,zero,1eb88 <__adddf3+0x190>
   1eb7c:	fff70693          	addi	a3,a4,-1
   1eb80:	ee068ee3          	beq	a3,zero,1ea7c <__adddf3+0x84>
   1eb84:	02b71063          	bne	a4,a1,1eba4 <__adddf3+0x1ac>
   1eb88:	00080793          	addi	a5,a6,0
   1eb8c:	00070413          	addi	s0,a4,0
   1eb90:	0e40006f          	jal	zero,1ec74 <__adddf3+0x27c>
   1eb94:	58b88663          	beq	a7,a1,1f120 <__adddf3+0x728>
   1eb98:	008006b7          	lui	a3,0x800
   1eb9c:	00d7e7b3          	or	a5,a5,a3
   1eba0:	00070693          	addi	a3,a4,0
   1eba4:	03800713          	addi	a4,zero,56
   1eba8:	06d74c63          	blt	a4,a3,1ec20 <__adddf3+0x228>
   1ebac:	01f00713          	addi	a4,zero,31
   1ebb0:	02000313          	addi	t1,zero,32
   1ebb4:	02d74e63          	blt	a4,a3,1ebf0 <__adddf3+0x1f8>
   1ebb8:	40d30333          	sub	t1,t1,a3
   1ebbc:	00679733          	sll	a4,a5,t1
   1ebc0:	00d555b3          	srl	a1,a0,a3
   1ebc4:	00651333          	sll	t1,a0,t1
   1ebc8:	00b76733          	or	a4,a4,a1
   1ebcc:	00603333          	sltu	t1,zero,t1
   1ebd0:	00676733          	or	a4,a4,t1
   1ebd4:	00d7d6b3          	srl	a3,a5,a3
   1ebd8:	00c70633          	add	a2,a4,a2
   1ebdc:	010686b3          	add	a3,a3,a6
   1ebe0:	00e63733          	sltu	a4,a2,a4
   1ebe4:	00e687b3          	add	a5,a3,a4
   1ebe8:	00088413          	addi	s0,a7,0
   1ebec:	f05ff06f          	jal	zero,1eaf0 <__adddf3+0xf8>
   1ebf0:	fe068713          	addi	a4,a3,-32 # 7fffe0 <__BSS_END__+0x6ebc48>
   1ebf4:	00e7d733          	srl	a4,a5,a4
   1ebf8:	00000593          	addi	a1,zero,0
   1ebfc:	00668863          	beq	a3,t1,1ec0c <__adddf3+0x214>
   1ec00:	04000593          	addi	a1,zero,64
   1ec04:	40d585b3          	sub	a1,a1,a3
   1ec08:	00b795b3          	sll	a1,a5,a1
   1ec0c:	00a5e5b3          	or	a1,a1,a0
   1ec10:	00b035b3          	sltu	a1,zero,a1
   1ec14:	00b76733          	or	a4,a4,a1
   1ec18:	00000693          	addi	a3,zero,0
   1ec1c:	fbdff06f          	jal	zero,1ebd8 <__adddf3+0x1e0>
   1ec20:	00a7e733          	or	a4,a5,a0
   1ec24:	00e03733          	sltu	a4,zero,a4
   1ec28:	ff1ff06f          	jal	zero,1ec18 <__adddf3+0x220>
   1ec2c:	00140713          	addi	a4,s0,1
   1ec30:	7fe77693          	andi	a3,a4,2046
   1ec34:	0c069263          	bne	a3,zero,1ecf8 <__adddf3+0x300>
   1ec38:	00a7e733          	or	a4,a5,a0
   1ec3c:	0a041463          	bne	s0,zero,1ece4 <__adddf3+0x2ec>
   1ec40:	4a070863          	beq	a4,zero,1f0f0 <__adddf3+0x6f8>
   1ec44:	00c86733          	or	a4,a6,a2
   1ec48:	4a070863          	beq	a4,zero,1f0f8 <__adddf3+0x700>
   1ec4c:	00c50633          	add	a2,a0,a2
   1ec50:	010787b3          	add	a5,a5,a6
   1ec54:	00a63533          	sltu	a0,a2,a0
   1ec58:	00a787b3          	add	a5,a5,a0
   1ec5c:	00879713          	slli	a4,a5,0x8
   1ec60:	32075a63          	bge	a4,zero,1ef94 <__adddf3+0x59c>
   1ec64:	ff800737          	lui	a4,0xff800
   1ec68:	fff70713          	addi	a4,a4,-1 # ff7fffff <__BSS_END__+0xff6ebc67>
   1ec6c:	00e7f7b3          	and	a5,a5,a4
   1ec70:	00100413          	addi	s0,zero,1
   1ec74:	01d79713          	slli	a4,a5,0x1d
   1ec78:	00365613          	srli	a2,a2,0x3
   1ec7c:	7ff00693          	addi	a3,zero,2047
   1ec80:	00c76733          	or	a4,a4,a2
   1ec84:	0037d793          	srli	a5,a5,0x3
   1ec88:	00d41e63          	bne	s0,a3,1eca4 <__adddf3+0x2ac>
   1ec8c:	00f76733          	or	a4,a4,a5
   1ec90:	00000793          	addi	a5,zero,0
   1ec94:	00070863          	beq	a4,zero,1eca4 <__adddf3+0x2ac>
   1ec98:	000807b7          	lui	a5,0x80
   1ec9c:	00000713          	addi	a4,zero,0
   1eca0:	00000913          	addi	s2,zero,0
   1eca4:	7ff47413          	andi	s0,s0,2047
   1eca8:	00c79793          	slli	a5,a5,0xc
   1ecac:	00c7d793          	srli	a5,a5,0xc
   1ecb0:	01441413          	slli	s0,s0,0x14
   1ecb4:	01f91593          	slli	a1,s2,0x1f
   1ecb8:	00f46433          	or	s0,s0,a5
   1ecbc:	01c12083          	lw	ra,28(sp)
   1ecc0:	00b467b3          	or	a5,s0,a1
   1ecc4:	01812403          	lw	s0,24(sp)
   1ecc8:	01412483          	lw	s1,20(sp)
   1eccc:	01012903          	lw	s2,16(sp)
   1ecd0:	00c12983          	lw	s3,12(sp)
   1ecd4:	00070513          	addi	a0,a4,0
   1ecd8:	00078593          	addi	a1,a5,0 # 80000 <__global_pointer$+0xf148>
   1ecdc:	02010113          	addi	sp,sp,32
   1ece0:	00008067          	jalr	zero,0(ra)
   1ece4:	40070e63          	beq	a4,zero,1f100 <__adddf3+0x708>
   1ece8:	00c86833          	or	a6,a6,a2
   1ecec:	2c081c63          	bne	a6,zero,1efc4 <__adddf3+0x5cc>
   1ecf0:	00050613          	addi	a2,a0,0
   1ecf4:	4100006f          	jal	zero,1f104 <__adddf3+0x70c>
   1ecf8:	40b70a63          	beq	a4,a1,1f10c <__adddf3+0x714>
   1ecfc:	00c50633          	add	a2,a0,a2
   1ed00:	00a63533          	sltu	a0,a2,a0
   1ed04:	010787b3          	add	a5,a5,a6
   1ed08:	00a787b3          	add	a5,a5,a0
   1ed0c:	01f79693          	slli	a3,a5,0x1f
   1ed10:	00165613          	srli	a2,a2,0x1
   1ed14:	00c6e633          	or	a2,a3,a2
   1ed18:	0017d793          	srli	a5,a5,0x1
   1ed1c:	00070413          	addi	s0,a4,0
   1ed20:	00767713          	andi	a4,a2,7
   1ed24:	02070063          	beq	a4,zero,1ed44 <__adddf3+0x34c>
   1ed28:	00f67713          	andi	a4,a2,15
   1ed2c:	00400693          	addi	a3,zero,4
   1ed30:	00d70a63          	beq	a4,a3,1ed44 <__adddf3+0x34c>
   1ed34:	00d60733          	add	a4,a2,a3
   1ed38:	00c736b3          	sltu	a3,a4,a2
   1ed3c:	00d787b3          	add	a5,a5,a3
   1ed40:	00070613          	addi	a2,a4,0
   1ed44:	00879713          	slli	a4,a5,0x8
   1ed48:	f20756e3          	bge	a4,zero,1ec74 <__adddf3+0x27c>
   1ed4c:	00140413          	addi	s0,s0,1
   1ed50:	7ff00713          	addi	a4,zero,2047
   1ed54:	3ae40e63          	beq	s0,a4,1f110 <__adddf3+0x718>
   1ed58:	ff800737          	lui	a4,0xff800
   1ed5c:	fff70713          	addi	a4,a4,-1 # ff7fffff <__BSS_END__+0xff6ebc67>
   1ed60:	00e7f7b3          	and	a5,a5,a4
   1ed64:	f11ff06f          	jal	zero,1ec74 <__adddf3+0x27c>
   1ed68:	0ee05063          	bge	zero,a4,1ee48 <__adddf3+0x450>
   1ed6c:	08089863          	bne	a7,zero,1edfc <__adddf3+0x404>
   1ed70:	00c86733          	or	a4,a6,a2
   1ed74:	d20702e3          	beq	a4,zero,1ea98 <__adddf3+0xa0>
   1ed78:	fff40713          	addi	a4,s0,-1
   1ed7c:	00071e63          	bne	a4,zero,1ed98 <__adddf3+0x3a0>
   1ed80:	40c50633          	sub	a2,a0,a2
   1ed84:	410787b3          	sub	a5,a5,a6
   1ed88:	00c53533          	sltu	a0,a0,a2
   1ed8c:	40a787b3          	sub	a5,a5,a0
   1ed90:	00100413          	addi	s0,zero,1
   1ed94:	04c0006f          	jal	zero,1ede0 <__adddf3+0x3e8>
   1ed98:	d0b400e3          	beq	s0,a1,1ea98 <__adddf3+0xa0>
   1ed9c:	03800693          	addi	a3,zero,56
   1eda0:	08e6ce63          	blt	a3,a4,1ee3c <__adddf3+0x444>
   1eda4:	01f00693          	addi	a3,zero,31
   1eda8:	02000893          	addi	a7,zero,32
   1edac:	06e6c063          	blt	a3,a4,1ee0c <__adddf3+0x414>
   1edb0:	40e888b3          	sub	a7,a7,a4
   1edb4:	011816b3          	sll	a3,a6,a7
   1edb8:	00e655b3          	srl	a1,a2,a4
   1edbc:	011618b3          	sll	a7,a2,a7
   1edc0:	00b6e6b3          	or	a3,a3,a1
   1edc4:	011038b3          	sltu	a7,zero,a7
   1edc8:	0116e6b3          	or	a3,a3,a7
   1edcc:	00e85733          	srl	a4,a6,a4
   1edd0:	40d50633          	sub	a2,a0,a3
   1edd4:	40e78733          	sub	a4,a5,a4
   1edd8:	00c53533          	sltu	a0,a0,a2
   1eddc:	40a707b3          	sub	a5,a4,a0
   1ede0:	00879713          	slli	a4,a5,0x8
   1ede4:	f2075ee3          	bge	a4,zero,1ed20 <__adddf3+0x328>
   1ede8:	008004b7          	lui	s1,0x800
   1edec:	fff48493          	addi	s1,s1,-1 # 7fffff <__BSS_END__+0x6ebc67>
   1edf0:	0097f4b3          	and	s1,a5,s1
   1edf4:	00060993          	addi	s3,a2,0
   1edf8:	2140006f          	jal	zero,1f00c <__adddf3+0x614>
   1edfc:	c8b40ee3          	beq	s0,a1,1ea98 <__adddf3+0xa0>
   1ee00:	008006b7          	lui	a3,0x800
   1ee04:	00d86833          	or	a6,a6,a3
   1ee08:	f95ff06f          	jal	zero,1ed9c <__adddf3+0x3a4>
   1ee0c:	fe070693          	addi	a3,a4,-32
   1ee10:	00d856b3          	srl	a3,a6,a3
   1ee14:	00000593          	addi	a1,zero,0
   1ee18:	01170863          	beq	a4,a7,1ee28 <__adddf3+0x430>
   1ee1c:	04000593          	addi	a1,zero,64
   1ee20:	40e585b3          	sub	a1,a1,a4
   1ee24:	00b815b3          	sll	a1,a6,a1
   1ee28:	00c5e5b3          	or	a1,a1,a2
   1ee2c:	00b035b3          	sltu	a1,zero,a1
   1ee30:	00b6e6b3          	or	a3,a3,a1
   1ee34:	00000713          	addi	a4,zero,0
   1ee38:	f99ff06f          	jal	zero,1edd0 <__adddf3+0x3d8>
   1ee3c:	00c866b3          	or	a3,a6,a2
   1ee40:	00d036b3          	sltu	a3,zero,a3
   1ee44:	ff1ff06f          	jal	zero,1ee34 <__adddf3+0x43c>
   1ee48:	0e070663          	beq	a4,zero,1ef34 <__adddf3+0x53c>
   1ee4c:	40888333          	sub	t1,a7,s0
   1ee50:	04041263          	bne	s0,zero,1ee94 <__adddf3+0x49c>
   1ee54:	00a7e733          	or	a4,a5,a0
   1ee58:	02070663          	beq	a4,zero,1ee84 <__adddf3+0x48c>
   1ee5c:	fff30713          	addi	a4,t1,-1
   1ee60:	02071063          	bne	a4,zero,1ee80 <__adddf3+0x488>
   1ee64:	40a60533          	sub	a0,a2,a0
   1ee68:	00a63733          	sltu	a4,a2,a0
   1ee6c:	40f807b3          	sub	a5,a6,a5
   1ee70:	00050613          	addi	a2,a0,0
   1ee74:	40e787b3          	sub	a5,a5,a4
   1ee78:	00068913          	addi	s2,a3,0 # 800000 <__BSS_END__+0x6ebc68>
   1ee7c:	f15ff06f          	jal	zero,1ed90 <__adddf3+0x398>
   1ee80:	02b31263          	bne	t1,a1,1eea4 <__adddf3+0x4ac>
   1ee84:	00068913          	addi	s2,a3,0
   1ee88:	00080793          	addi	a5,a6,0
   1ee8c:	00030413          	addi	s0,t1,0
   1ee90:	de5ff06f          	jal	zero,1ec74 <__adddf3+0x27c>
   1ee94:	28b88463          	beq	a7,a1,1f11c <__adddf3+0x724>
   1ee98:	00800737          	lui	a4,0x800
   1ee9c:	00e7e7b3          	or	a5,a5,a4
   1eea0:	00030713          	addi	a4,t1,0
   1eea4:	03800593          	addi	a1,zero,56
   1eea8:	08e5c063          	blt	a1,a4,1ef28 <__adddf3+0x530>
   1eeac:	01f00593          	addi	a1,zero,31
   1eeb0:	02000e13          	addi	t3,zero,32
   1eeb4:	04e5c263          	blt	a1,a4,1eef8 <__adddf3+0x500>
   1eeb8:	40ee0e33          	sub	t3,t3,a4
   1eebc:	01c795b3          	sll	a1,a5,t3
   1eec0:	00e55333          	srl	t1,a0,a4
   1eec4:	01c51e33          	sll	t3,a0,t3
   1eec8:	0065e5b3          	or	a1,a1,t1
   1eecc:	01c03e33          	sltu	t3,zero,t3
   1eed0:	01c5e5b3          	or	a1,a1,t3
   1eed4:	00e7d733          	srl	a4,a5,a4
   1eed8:	40b605b3          	sub	a1,a2,a1
   1eedc:	00b637b3          	sltu	a5,a2,a1
   1eee0:	40e80733          	sub	a4,a6,a4
   1eee4:	00058613          	addi	a2,a1,0
   1eee8:	40f707b3          	sub	a5,a4,a5
   1eeec:	00088413          	addi	s0,a7,0
   1eef0:	00068913          	addi	s2,a3,0
   1eef4:	eedff06f          	jal	zero,1ede0 <__adddf3+0x3e8>
   1eef8:	fe070593          	addi	a1,a4,-32 # 7fffe0 <__BSS_END__+0x6ebc48>
   1eefc:	00b7d5b3          	srl	a1,a5,a1
   1ef00:	00000313          	addi	t1,zero,0
   1ef04:	01c70863          	beq	a4,t3,1ef14 <__adddf3+0x51c>
   1ef08:	04000313          	addi	t1,zero,64
   1ef0c:	40e30333          	sub	t1,t1,a4
   1ef10:	00679333          	sll	t1,a5,t1
   1ef14:	00a36333          	or	t1,t1,a0
   1ef18:	00603333          	sltu	t1,zero,t1
   1ef1c:	0065e5b3          	or	a1,a1,t1
   1ef20:	00000713          	addi	a4,zero,0
   1ef24:	fb5ff06f          	jal	zero,1eed8 <__adddf3+0x4e0>
   1ef28:	00a7e5b3          	or	a1,a5,a0
   1ef2c:	00b035b3          	sltu	a1,zero,a1
   1ef30:	ff1ff06f          	jal	zero,1ef20 <__adddf3+0x528>
   1ef34:	00140713          	addi	a4,s0,1
   1ef38:	7fe77713          	andi	a4,a4,2046
   1ef3c:	0a071063          	bne	a4,zero,1efdc <__adddf3+0x5e4>
   1ef40:	00a7e8b3          	or	a7,a5,a0
   1ef44:	00c86733          	or	a4,a6,a2
   1ef48:	06041863          	bne	s0,zero,1efb8 <__adddf3+0x5c0>
   1ef4c:	00089a63          	bne	a7,zero,1ef60 <__adddf3+0x568>
   1ef50:	00080793          	addi	a5,a6,0
   1ef54:	02071e63          	bne	a4,zero,1ef90 <__adddf3+0x598>
   1ef58:	00000913          	addi	s2,zero,0
   1ef5c:	1b40006f          	jal	zero,1f110 <__adddf3+0x718>
   1ef60:	18070c63          	beq	a4,zero,1f0f8 <__adddf3+0x700>
   1ef64:	40c505b3          	sub	a1,a0,a2
   1ef68:	00b538b3          	sltu	a7,a0,a1
   1ef6c:	41078733          	sub	a4,a5,a6
   1ef70:	41170733          	sub	a4,a4,a7
   1ef74:	00871893          	slli	a7,a4,0x8
   1ef78:	0208d663          	bge	a7,zero,1efa4 <__adddf3+0x5ac>
   1ef7c:	40a60533          	sub	a0,a2,a0
   1ef80:	00a63733          	sltu	a4,a2,a0
   1ef84:	40f807b3          	sub	a5,a6,a5
   1ef88:	00050613          	addi	a2,a0,0
   1ef8c:	40e787b3          	sub	a5,a5,a4
   1ef90:	00068913          	addi	s2,a3,0
   1ef94:	00f66733          	or	a4,a2,a5
   1ef98:	1a070063          	beq	a4,zero,1f138 <__adddf3+0x740>
   1ef9c:	00000413          	addi	s0,zero,0
   1efa0:	d81ff06f          	jal	zero,1ed20 <__adddf3+0x328>
   1efa4:	00e5e633          	or	a2,a1,a4
   1efa8:	18060263          	beq	a2,zero,1f12c <__adddf3+0x734>
   1efac:	00070793          	addi	a5,a4,0
   1efb0:	00058613          	addi	a2,a1,0
   1efb4:	fe1ff06f          	jal	zero,1ef94 <__adddf3+0x59c>
   1efb8:	00089e63          	bne	a7,zero,1efd4 <__adddf3+0x5dc>
   1efbc:	00068913          	addi	s2,a3,0
   1efc0:	14071063          	bne	a4,zero,1f100 <__adddf3+0x708>
   1efc4:	00000913          	addi	s2,zero,0
   1efc8:	004007b7          	lui	a5,0x400
   1efcc:	00000613          	addi	a2,zero,0
   1efd0:	1340006f          	jal	zero,1f104 <__adddf3+0x70c>
   1efd4:	d0070ee3          	beq	a4,zero,1ecf0 <__adddf3+0x2f8>
   1efd8:	fedff06f          	jal	zero,1efc4 <__adddf3+0x5cc>
   1efdc:	40c50733          	sub	a4,a0,a2
   1efe0:	00e535b3          	sltu	a1,a0,a4
   1efe4:	410784b3          	sub	s1,a5,a6
   1efe8:	40b484b3          	sub	s1,s1,a1
   1efec:	00849593          	slli	a1,s1,0x8
   1eff0:	00070993          	addi	s3,a4,0
   1eff4:	0605de63          	bge	a1,zero,1f070 <__adddf3+0x678>
   1eff8:	40a609b3          	sub	s3,a2,a0
   1effc:	40f804b3          	sub	s1,a6,a5
   1f000:	01363633          	sltu	a2,a2,s3
   1f004:	40c484b3          	sub	s1,s1,a2
   1f008:	00068913          	addi	s2,a3,0
   1f00c:	06048e63          	beq	s1,zero,1f088 <__adddf3+0x690>
   1f010:	00048513          	addi	a0,s1,0
   1f014:	2f4040ef          	jal	ra,23308 <__clzsi2>
   1f018:	ff850713          	addi	a4,a0,-8
   1f01c:	02000793          	addi	a5,zero,32
   1f020:	40e787b3          	sub	a5,a5,a4
   1f024:	00e494b3          	sll	s1,s1,a4
   1f028:	00f9d7b3          	srl	a5,s3,a5
   1f02c:	0097e7b3          	or	a5,a5,s1
   1f030:	00e99633          	sll	a2,s3,a4
   1f034:	0a874463          	blt	a4,s0,1f0dc <__adddf3+0x6e4>
   1f038:	40870733          	sub	a4,a4,s0
   1f03c:	00170513          	addi	a0,a4,1
   1f040:	01f00693          	addi	a3,zero,31
   1f044:	02000593          	addi	a1,zero,32
   1f048:	06a6c263          	blt	a3,a0,1f0ac <__adddf3+0x6b4>
   1f04c:	40a585b3          	sub	a1,a1,a0
   1f050:	00b79733          	sll	a4,a5,a1
   1f054:	00a656b3          	srl	a3,a2,a0
   1f058:	00b615b3          	sll	a1,a2,a1
   1f05c:	00d76733          	or	a4,a4,a3
   1f060:	00b035b3          	sltu	a1,zero,a1
   1f064:	00b76633          	or	a2,a4,a1
   1f068:	00a7d7b3          	srl	a5,a5,a0
   1f06c:	f29ff06f          	jal	zero,1ef94 <__adddf3+0x59c>
   1f070:	00976633          	or	a2,a4,s1
   1f074:	f8061ce3          	bne	a2,zero,1f00c <__adddf3+0x614>
   1f078:	00000913          	addi	s2,zero,0
   1f07c:	00000793          	addi	a5,zero,0
   1f080:	00000413          	addi	s0,zero,0
   1f084:	bf1ff06f          	jal	zero,1ec74 <__adddf3+0x27c>
   1f088:	00098513          	addi	a0,s3,0
   1f08c:	27c040ef          	jal	ra,23308 <__clzsi2>
   1f090:	01850713          	addi	a4,a0,24
   1f094:	01f00793          	addi	a5,zero,31
   1f098:	f8e7d2e3          	bge	a5,a4,1f01c <__adddf3+0x624>
   1f09c:	ff850793          	addi	a5,a0,-8
   1f0a0:	00f997b3          	sll	a5,s3,a5
   1f0a4:	00000613          	addi	a2,zero,0
   1f0a8:	f8dff06f          	jal	zero,1f034 <__adddf3+0x63c>
   1f0ac:	fe170713          	addi	a4,a4,-31
   1f0b0:	00e7d733          	srl	a4,a5,a4
   1f0b4:	00000693          	addi	a3,zero,0
   1f0b8:	00b50863          	beq	a0,a1,1f0c8 <__adddf3+0x6d0>
   1f0bc:	04000693          	addi	a3,zero,64
   1f0c0:	40a686b3          	sub	a3,a3,a0
   1f0c4:	00d796b3          	sll	a3,a5,a3
   1f0c8:	00d666b3          	or	a3,a2,a3
   1f0cc:	00d036b3          	sltu	a3,zero,a3
   1f0d0:	00d76633          	or	a2,a4,a3
   1f0d4:	00000793          	addi	a5,zero,0
   1f0d8:	ebdff06f          	jal	zero,1ef94 <__adddf3+0x59c>
   1f0dc:	40e40433          	sub	s0,s0,a4
   1f0e0:	ff800737          	lui	a4,0xff800
   1f0e4:	fff70713          	addi	a4,a4,-1 # ff7fffff <__BSS_END__+0xff6ebc67>
   1f0e8:	00e7f7b3          	and	a5,a5,a4
   1f0ec:	c35ff06f          	jal	zero,1ed20 <__adddf3+0x328>
   1f0f0:	00080793          	addi	a5,a6,0
   1f0f4:	ea1ff06f          	jal	zero,1ef94 <__adddf3+0x59c>
   1f0f8:	00050613          	addi	a2,a0,0
   1f0fc:	e99ff06f          	jal	zero,1ef94 <__adddf3+0x59c>
   1f100:	00080793          	addi	a5,a6,0
   1f104:	00058413          	addi	s0,a1,0
   1f108:	b6dff06f          	jal	zero,1ec74 <__adddf3+0x27c>
   1f10c:	00070413          	addi	s0,a4,0
   1f110:	00000793          	addi	a5,zero,0
   1f114:	00000613          	addi	a2,zero,0
   1f118:	b5dff06f          	jal	zero,1ec74 <__adddf3+0x27c>
   1f11c:	00068913          	addi	s2,a3,0
   1f120:	00080793          	addi	a5,a6,0
   1f124:	00088413          	addi	s0,a7,0
   1f128:	b4dff06f          	jal	zero,1ec74 <__adddf3+0x27c>
   1f12c:	00000913          	addi	s2,zero,0
   1f130:	00000793          	addi	a5,zero,0
   1f134:	b41ff06f          	jal	zero,1ec74 <__adddf3+0x27c>
   1f138:	00000793          	addi	a5,zero,0
   1f13c:	00000613          	addi	a2,zero,0
   1f140:	f41ff06f          	jal	zero,1f080 <__adddf3+0x688>

0001f144 <__divdf3>:
   1f144:	fd010113          	addi	sp,sp,-48
   1f148:	0145d713          	srli	a4,a1,0x14
   1f14c:	02812423          	sw	s0,40(sp)
   1f150:	03212023          	sw	s2,32(sp)
   1f154:	01312e23          	sw	s3,28(sp)
   1f158:	01512a23          	sw	s5,20(sp)
   1f15c:	01712623          	sw	s7,12(sp)
   1f160:	00c59413          	slli	s0,a1,0xc
   1f164:	02112623          	sw	ra,44(sp)
   1f168:	02912223          	sw	s1,36(sp)
   1f16c:	01412c23          	sw	s4,24(sp)
   1f170:	01612823          	sw	s6,16(sp)
   1f174:	7ff77713          	andi	a4,a4,2047
   1f178:	00050993          	addi	s3,a0,0
   1f17c:	00060b93          	addi	s7,a2,0
   1f180:	00068a93          	addi	s5,a3,0
   1f184:	00c45413          	srli	s0,s0,0xc
   1f188:	01f5d913          	srli	s2,a1,0x1f
   1f18c:	0a070063          	beq	a4,zero,1f22c <__divdf3+0xe8>
   1f190:	7ff00793          	addi	a5,zero,2047
   1f194:	10f70063          	beq	a4,a5,1f294 <__divdf3+0x150>
   1f198:	01d55a13          	srli	s4,a0,0x1d
   1f19c:	00341413          	slli	s0,s0,0x3
   1f1a0:	008a6a33          	or	s4,s4,s0
   1f1a4:	008007b7          	lui	a5,0x800
   1f1a8:	00fa6a33          	or	s4,s4,a5
   1f1ac:	00351493          	slli	s1,a0,0x3
   1f1b0:	c0170993          	addi	s3,a4,-1023
   1f1b4:	00000b13          	addi	s6,zero,0
   1f1b8:	014ad793          	srli	a5,s5,0x14
   1f1bc:	00ca9413          	slli	s0,s5,0xc
   1f1c0:	7ff7f793          	andi	a5,a5,2047
   1f1c4:	00c45413          	srli	s0,s0,0xc
   1f1c8:	01fada93          	srli	s5,s5,0x1f
   1f1cc:	10078263          	beq	a5,zero,1f2d0 <__divdf3+0x18c>
   1f1d0:	7ff00693          	addi	a3,zero,2047
   1f1d4:	16d78663          	beq	a5,a3,1f340 <__divdf3+0x1fc>
   1f1d8:	00341413          	slli	s0,s0,0x3
   1f1dc:	01dbd693          	srli	a3,s7,0x1d
   1f1e0:	0086e6b3          	or	a3,a3,s0
   1f1e4:	00800437          	lui	s0,0x800
   1f1e8:	0086e433          	or	s0,a3,s0
   1f1ec:	003b9f13          	slli	t5,s7,0x3
   1f1f0:	c0178793          	addi	a5,a5,-1023 # 7ffc01 <__BSS_END__+0x6eb869>
   1f1f4:	00000693          	addi	a3,zero,0
   1f1f8:	40f98733          	sub	a4,s3,a5
   1f1fc:	002b1793          	slli	a5,s6,0x2
   1f200:	00d7e7b3          	or	a5,a5,a3
   1f204:	fff78793          	addi	a5,a5,-1
   1f208:	00e00613          	addi	a2,zero,14
   1f20c:	01594833          	xor	a6,s2,s5
   1f210:	16f66063          	bltu	a2,a5,1f370 <__divdf3+0x22c>
   1f214:	00070637          	lui	a2,0x70
   1f218:	00279793          	slli	a5,a5,0x2
   1f21c:	e8860613          	addi	a2,a2,-376 # 6fe88 <blanks.1+0x10>
   1f220:	00c787b3          	add	a5,a5,a2
   1f224:	0007a783          	lw	a5,0(a5)
   1f228:	00078067          	jalr	zero,0(a5)
   1f22c:	00a46a33          	or	s4,s0,a0
   1f230:	060a0e63          	beq	s4,zero,1f2ac <__divdf3+0x168>
   1f234:	04040063          	beq	s0,zero,1f274 <__divdf3+0x130>
   1f238:	00040513          	addi	a0,s0,0 # 800000 <__BSS_END__+0x6ebc68>
   1f23c:	0cc040ef          	jal	ra,23308 <__clzsi2>
   1f240:	00050793          	addi	a5,a0,0
   1f244:	ff550713          	addi	a4,a0,-11
   1f248:	01d00a13          	addi	s4,zero,29
   1f24c:	ff878693          	addi	a3,a5,-8
   1f250:	40ea0a33          	sub	s4,s4,a4
   1f254:	00d41433          	sll	s0,s0,a3
   1f258:	0149da33          	srl	s4,s3,s4
   1f25c:	008a6a33          	or	s4,s4,s0
   1f260:	00d99433          	sll	s0,s3,a3
   1f264:	c0d00713          	addi	a4,zero,-1011
   1f268:	40f709b3          	sub	s3,a4,a5
   1f26c:	00040493          	addi	s1,s0,0
   1f270:	f45ff06f          	jal	zero,1f1b4 <__divdf3+0x70>
   1f274:	094040ef          	jal	ra,23308 <__clzsi2>
   1f278:	01550713          	addi	a4,a0,21
   1f27c:	01c00693          	addi	a3,zero,28
   1f280:	02050793          	addi	a5,a0,32
   1f284:	fce6d2e3          	bge	a3,a4,1f248 <__divdf3+0x104>
   1f288:	ff850513          	addi	a0,a0,-8
   1f28c:	00a99a33          	sll	s4,s3,a0
   1f290:	fd5ff06f          	jal	zero,1f264 <__divdf3+0x120>
   1f294:	00a46a33          	or	s4,s0,a0
   1f298:	020a1263          	bne	s4,zero,1f2bc <__divdf3+0x178>
   1f29c:	00000493          	addi	s1,zero,0
   1f2a0:	00070993          	addi	s3,a4,0
   1f2a4:	00200b13          	addi	s6,zero,2
   1f2a8:	f11ff06f          	jal	zero,1f1b8 <__divdf3+0x74>
   1f2ac:	00000493          	addi	s1,zero,0
   1f2b0:	00000993          	addi	s3,zero,0
   1f2b4:	00100b13          	addi	s6,zero,1
   1f2b8:	f01ff06f          	jal	zero,1f1b8 <__divdf3+0x74>
   1f2bc:	00050493          	addi	s1,a0,0
   1f2c0:	00040a13          	addi	s4,s0,0
   1f2c4:	00070993          	addi	s3,a4,0
   1f2c8:	00300b13          	addi	s6,zero,3
   1f2cc:	eedff06f          	jal	zero,1f1b8 <__divdf3+0x74>
   1f2d0:	01746f33          	or	t5,s0,s7
   1f2d4:	080f0063          	beq	t5,zero,1f354 <__divdf3+0x210>
   1f2d8:	04040263          	beq	s0,zero,1f31c <__divdf3+0x1d8>
   1f2dc:	00040513          	addi	a0,s0,0
   1f2e0:	028040ef          	jal	ra,23308 <__clzsi2>
   1f2e4:	00050693          	addi	a3,a0,0
   1f2e8:	ff550793          	addi	a5,a0,-11
   1f2ec:	01d00593          	addi	a1,zero,29
   1f2f0:	ff868613          	addi	a2,a3,-8
   1f2f4:	40f585b3          	sub	a1,a1,a5
   1f2f8:	00c41433          	sll	s0,s0,a2
   1f2fc:	00bbd5b3          	srl	a1,s7,a1
   1f300:	0085e5b3          	or	a1,a1,s0
   1f304:	00cb9433          	sll	s0,s7,a2
   1f308:	c0d00793          	addi	a5,zero,-1011
   1f30c:	00040f13          	addi	t5,s0,0
   1f310:	40d787b3          	sub	a5,a5,a3
   1f314:	00058413          	addi	s0,a1,0
   1f318:	eddff06f          	jal	zero,1f1f4 <__divdf3+0xb0>
   1f31c:	000b8513          	addi	a0,s7,0
   1f320:	7e9030ef          	jal	ra,23308 <__clzsi2>
   1f324:	01550793          	addi	a5,a0,21
   1f328:	01c00613          	addi	a2,zero,28
   1f32c:	02050693          	addi	a3,a0,32
   1f330:	faf65ee3          	bge	a2,a5,1f2ec <__divdf3+0x1a8>
   1f334:	ff850593          	addi	a1,a0,-8
   1f338:	00bb95b3          	sll	a1,s7,a1
   1f33c:	fcdff06f          	jal	zero,1f308 <__divdf3+0x1c4>
   1f340:	01746f33          	or	t5,s0,s7
   1f344:	020f1063          	bne	t5,zero,1f364 <__divdf3+0x220>
   1f348:	00000413          	addi	s0,zero,0
   1f34c:	00200693          	addi	a3,zero,2
   1f350:	ea9ff06f          	jal	zero,1f1f8 <__divdf3+0xb4>
   1f354:	00000413          	addi	s0,zero,0
   1f358:	00000793          	addi	a5,zero,0
   1f35c:	00100693          	addi	a3,zero,1
   1f360:	e99ff06f          	jal	zero,1f1f8 <__divdf3+0xb4>
   1f364:	000b8f13          	addi	t5,s7,0
   1f368:	00300693          	addi	a3,zero,3
   1f36c:	e8dff06f          	jal	zero,1f1f8 <__divdf3+0xb4>
   1f370:	01446663          	bltu	s0,s4,1f37c <__divdf3+0x238>
   1f374:	308a1863          	bne	s4,s0,1f684 <__divdf3+0x540>
   1f378:	31e4e663          	bltu	s1,t5,1f684 <__divdf3+0x540>
   1f37c:	01fa1693          	slli	a3,s4,0x1f
   1f380:	0014d793          	srli	a5,s1,0x1
   1f384:	01f49613          	slli	a2,s1,0x1f
   1f388:	001a5a13          	srli	s4,s4,0x1
   1f38c:	00f6e4b3          	or	s1,a3,a5
   1f390:	00841893          	slli	a7,s0,0x8
   1f394:	018f5693          	srli	a3,t5,0x18
   1f398:	0116e6b3          	or	a3,a3,a7
   1f39c:	0108d893          	srli	a7,a7,0x10
   1f3a0:	031a55b3          	divu	a1,s4,a7
   1f3a4:	01069e93          	slli	t4,a3,0x10
   1f3a8:	010ede93          	srli	t4,t4,0x10
   1f3ac:	0104d793          	srli	a5,s1,0x10
   1f3b0:	008f1513          	slli	a0,t5,0x8
   1f3b4:	031a7a33          	remu	s4,s4,a7
   1f3b8:	02be8333          	mul	t1,t4,a1
   1f3bc:	010a1a13          	slli	s4,s4,0x10
   1f3c0:	0147e7b3          	or	a5,a5,s4
   1f3c4:	0067fa63          	bgeu	a5,t1,1f3d8 <__divdf3+0x294>
   1f3c8:	00f687b3          	add	a5,a3,a5
   1f3cc:	00d7e463          	bltu	a5,a3,1f3d4 <__divdf3+0x290>
   1f3d0:	2c67e063          	bltu	a5,t1,1f690 <__divdf3+0x54c>
   1f3d4:	fff58593          	addi	a1,a1,-1
   1f3d8:	406787b3          	sub	a5,a5,t1
   1f3dc:	0317d333          	divu	t1,a5,a7
   1f3e0:	01049493          	slli	s1,s1,0x10
   1f3e4:	0104d493          	srli	s1,s1,0x10
   1f3e8:	0317f7b3          	remu	a5,a5,a7
   1f3ec:	026e8e33          	mul	t3,t4,t1
   1f3f0:	01079793          	slli	a5,a5,0x10
   1f3f4:	00f4e4b3          	or	s1,s1,a5
   1f3f8:	01c4fa63          	bgeu	s1,t3,1f40c <__divdf3+0x2c8>
   1f3fc:	009684b3          	add	s1,a3,s1
   1f400:	01c4f463          	bgeu	s1,t3,1f408 <__divdf3+0x2c4>
   1f404:	28d4fc63          	bgeu	s1,a3,1f69c <__divdf3+0x558>
   1f408:	fff30313          	addi	t1,t1,-1
   1f40c:	01059593          	slli	a1,a1,0x10
   1f410:	0065e5b3          	or	a1,a1,t1
   1f414:	41c484b3          	sub	s1,s1,t3
   1f418:	01059793          	slli	a5,a1,0x10
   1f41c:	01051e13          	slli	t3,a0,0x10
   1f420:	0105df93          	srli	t6,a1,0x10
   1f424:	01055313          	srli	t1,a0,0x10
   1f428:	0107d793          	srli	a5,a5,0x10
   1f42c:	010e5e13          	srli	t3,t3,0x10
   1f430:	03c782b3          	mul	t0,a5,t3
   1f434:	03cf83b3          	mul	t2,t6,t3
   1f438:	02f307b3          	mul	a5,t1,a5
   1f43c:	00778f33          	add	t5,a5,t2
   1f440:	0102d793          	srli	a5,t0,0x10
   1f444:	01e787b3          	add	a5,a5,t5
   1f448:	026f8fb3          	mul	t6,t6,t1
   1f44c:	0077f663          	bgeu	a5,t2,1f458 <__divdf3+0x314>
   1f450:	00010f37          	lui	t5,0x10
   1f454:	01ef8fb3          	add	t6,t6,t5
   1f458:	0107df13          	srli	t5,a5,0x10
   1f45c:	01029293          	slli	t0,t0,0x10
   1f460:	01079793          	slli	a5,a5,0x10
   1f464:	0102d293          	srli	t0,t0,0x10
   1f468:	01ff0f33          	add	t5,t5,t6
   1f46c:	005787b3          	add	a5,a5,t0
   1f470:	01e4e663          	bltu	s1,t5,1f47c <__divdf3+0x338>
   1f474:	23e49a63          	bne	s1,t5,1f6a8 <__divdf3+0x564>
   1f478:	22f67863          	bgeu	a2,a5,1f6a8 <__divdf3+0x564>
   1f47c:	00a60fb3          	add	t6,a2,a0
   1f480:	00cfb2b3          	sltu	t0,t6,a2
   1f484:	00d283b3          	add	t2,t0,a3
   1f488:	007484b3          	add	s1,s1,t2
   1f48c:	fff58413          	addi	s0,a1,-1
   1f490:	000f8613          	addi	a2,t6,0
   1f494:	0096e663          	bltu	a3,s1,1f4a0 <__divdf3+0x35c>
   1f498:	02029463          	bne	t0,zero,1f4c0 <__divdf3+0x37c>
   1f49c:	02969263          	bne	a3,s1,1f4c0 <__divdf3+0x37c>
   1f4a0:	01e4e663          	bltu	s1,t5,1f4ac <__divdf3+0x368>
   1f4a4:	009f1e63          	bne	t5,s1,1f4c0 <__divdf3+0x37c>
   1f4a8:	00fffc63          	bgeu	t6,a5,1f4c0 <__divdf3+0x37c>
   1f4ac:	01f50633          	add	a2,a0,t6
   1f4b0:	ffe58413          	addi	s0,a1,-2
   1f4b4:	00a635b3          	sltu	a1,a2,a0
   1f4b8:	00d585b3          	add	a1,a1,a3
   1f4bc:	00b484b3          	add	s1,s1,a1
   1f4c0:	40f607b3          	sub	a5,a2,a5
   1f4c4:	41e484b3          	sub	s1,s1,t5
   1f4c8:	00f63633          	sltu	a2,a2,a5
   1f4cc:	40c484b3          	sub	s1,s1,a2
   1f4d0:	fff00f13          	addi	t5,zero,-1
   1f4d4:	10968663          	beq	a3,s1,1f5e0 <__divdf3+0x49c>
   1f4d8:	0314d5b3          	divu	a1,s1,a7
   1f4dc:	0107d613          	srli	a2,a5,0x10
   1f4e0:	0314f4b3          	remu	s1,s1,a7
   1f4e4:	02be8f33          	mul	t5,t4,a1
   1f4e8:	01049493          	slli	s1,s1,0x10
   1f4ec:	00966633          	or	a2,a2,s1
   1f4f0:	01e67a63          	bgeu	a2,t5,1f504 <__divdf3+0x3c0>
   1f4f4:	00c68633          	add	a2,a3,a2
   1f4f8:	00d66463          	bltu	a2,a3,1f500 <__divdf3+0x3bc>
   1f4fc:	1be66a63          	bltu	a2,t5,1f6b0 <__divdf3+0x56c>
   1f500:	fff58593          	addi	a1,a1,-1
   1f504:	41e60633          	sub	a2,a2,t5
   1f508:	03165f33          	divu	t5,a2,a7
   1f50c:	01079793          	slli	a5,a5,0x10
   1f510:	0107d793          	srli	a5,a5,0x10
   1f514:	03167633          	remu	a2,a2,a7
   1f518:	03ee8eb3          	mul	t4,t4,t5
   1f51c:	01061613          	slli	a2,a2,0x10
   1f520:	00c7e7b3          	or	a5,a5,a2
   1f524:	01d7fa63          	bgeu	a5,t4,1f538 <__divdf3+0x3f4>
   1f528:	00f687b3          	add	a5,a3,a5
   1f52c:	01d7f463          	bgeu	a5,t4,1f534 <__divdf3+0x3f0>
   1f530:	18d7f663          	bgeu	a5,a3,1f6bc <__divdf3+0x578>
   1f534:	ffff0f13          	addi	t5,t5,-1 # ffff <exit-0xb5>
   1f538:	01059613          	slli	a2,a1,0x10
   1f53c:	01e66633          	or	a2,a2,t5
   1f540:	01061593          	slli	a1,a2,0x10
   1f544:	0105d593          	srli	a1,a1,0x10
   1f548:	41d787b3          	sub	a5,a5,t4
   1f54c:	01065e93          	srli	t4,a2,0x10
   1f550:	02be0f33          	mul	t5,t3,a1
   1f554:	03ce8e33          	mul	t3,t4,t3
   1f558:	03d30eb3          	mul	t4,t1,t4
   1f55c:	02b30333          	mul	t1,t1,a1
   1f560:	010f5593          	srli	a1,t5,0x10
   1f564:	01c30333          	add	t1,t1,t3
   1f568:	006585b3          	add	a1,a1,t1
   1f56c:	01c5f663          	bgeu	a1,t3,1f578 <__divdf3+0x434>
   1f570:	000108b7          	lui	a7,0x10
   1f574:	011e8eb3          	add	t4,t4,a7
   1f578:	0105d893          	srli	a7,a1,0x10
   1f57c:	010f1f13          	slli	t5,t5,0x10
   1f580:	01059593          	slli	a1,a1,0x10
   1f584:	010f5f13          	srli	t5,t5,0x10
   1f588:	01d888b3          	add	a7,a7,t4
   1f58c:	01e585b3          	add	a1,a1,t5
   1f590:	0117e663          	bltu	a5,a7,1f59c <__divdf3+0x458>
   1f594:	05179463          	bne	a5,a7,1f5dc <__divdf3+0x498>
   1f598:	12058863          	beq	a1,zero,1f6c8 <__divdf3+0x584>
   1f59c:	00f68333          	add	t1,a3,a5
   1f5a0:	fff60f13          	addi	t5,a2,-1
   1f5a4:	00030793          	addi	a5,t1,0
   1f5a8:	02d36463          	bltu	t1,a3,1f5d0 <__divdf3+0x48c>
   1f5ac:	01136663          	bltu	t1,a7,1f5b8 <__divdf3+0x474>
   1f5b0:	03131463          	bne	t1,a7,1f5d8 <__divdf3+0x494>
   1f5b4:	00b57e63          	bgeu	a0,a1,1f5d0 <__divdf3+0x48c>
   1f5b8:	ffe60f13          	addi	t5,a2,-2
   1f5bc:	00151613          	slli	a2,a0,0x1
   1f5c0:	00a637b3          	sltu	a5,a2,a0
   1f5c4:	00d787b3          	add	a5,a5,a3
   1f5c8:	00f307b3          	add	a5,t1,a5
   1f5cc:	00060513          	addi	a0,a2,0
   1f5d0:	00b51463          	bne	a0,a1,1f5d8 <__divdf3+0x494>
   1f5d4:	01178663          	beq	a5,a7,1f5e0 <__divdf3+0x49c>
   1f5d8:	000f0613          	addi	a2,t5,0
   1f5dc:	00166f13          	ori	t5,a2,1
   1f5e0:	3ff70793          	addi	a5,a4,1023
   1f5e4:	12f05663          	bge	zero,a5,1f710 <__divdf3+0x5cc>
   1f5e8:	007f7693          	andi	a3,t5,7
   1f5ec:	02068063          	beq	a3,zero,1f60c <__divdf3+0x4c8>
   1f5f0:	00ff7693          	andi	a3,t5,15
   1f5f4:	00400613          	addi	a2,zero,4
   1f5f8:	00c68a63          	beq	a3,a2,1f60c <__divdf3+0x4c8>
   1f5fc:	00cf06b3          	add	a3,t5,a2
   1f600:	01e6b633          	sltu	a2,a3,t5
   1f604:	00c40433          	add	s0,s0,a2
   1f608:	00068f13          	addi	t5,a3,0
   1f60c:	00741693          	slli	a3,s0,0x7
   1f610:	0006da63          	bge	a3,zero,1f624 <__divdf3+0x4e0>
   1f614:	ff0007b7          	lui	a5,0xff000
   1f618:	fff78793          	addi	a5,a5,-1 # feffffff <__BSS_END__+0xfeeebc67>
   1f61c:	00f47433          	and	s0,s0,a5
   1f620:	40070793          	addi	a5,a4,1024
   1f624:	7fe00713          	addi	a4,zero,2046
   1f628:	1af74a63          	blt	a4,a5,1f7dc <__divdf3+0x698>
   1f62c:	01d41713          	slli	a4,s0,0x1d
   1f630:	003f5f13          	srli	t5,t5,0x3
   1f634:	01e76733          	or	a4,a4,t5
   1f638:	00345413          	srli	s0,s0,0x3
   1f63c:	00c41413          	slli	s0,s0,0xc
   1f640:	00c45413          	srli	s0,s0,0xc
   1f644:	01479793          	slli	a5,a5,0x14
   1f648:	02c12083          	lw	ra,44(sp)
   1f64c:	0087e7b3          	or	a5,a5,s0
   1f650:	02812403          	lw	s0,40(sp)
   1f654:	01f81813          	slli	a6,a6,0x1f
   1f658:	02412483          	lw	s1,36(sp)
   1f65c:	02012903          	lw	s2,32(sp)
   1f660:	01c12983          	lw	s3,28(sp)
   1f664:	01812a03          	lw	s4,24(sp)
   1f668:	01412a83          	lw	s5,20(sp)
   1f66c:	01012b03          	lw	s6,16(sp)
   1f670:	00c12b83          	lw	s7,12(sp)
   1f674:	00070513          	addi	a0,a4,0
   1f678:	0107e5b3          	or	a1,a5,a6
   1f67c:	03010113          	addi	sp,sp,48
   1f680:	00008067          	jalr	zero,0(ra)
   1f684:	fff70713          	addi	a4,a4,-1
   1f688:	00000613          	addi	a2,zero,0
   1f68c:	d05ff06f          	jal	zero,1f390 <__divdf3+0x24c>
   1f690:	ffe58593          	addi	a1,a1,-2
   1f694:	00d787b3          	add	a5,a5,a3
   1f698:	d41ff06f          	jal	zero,1f3d8 <__divdf3+0x294>
   1f69c:	ffe30313          	addi	t1,t1,-2
   1f6a0:	00d484b3          	add	s1,s1,a3
   1f6a4:	d69ff06f          	jal	zero,1f40c <__divdf3+0x2c8>
   1f6a8:	00058413          	addi	s0,a1,0
   1f6ac:	e15ff06f          	jal	zero,1f4c0 <__divdf3+0x37c>
   1f6b0:	ffe58593          	addi	a1,a1,-2
   1f6b4:	00d60633          	add	a2,a2,a3
   1f6b8:	e4dff06f          	jal	zero,1f504 <__divdf3+0x3c0>
   1f6bc:	ffef0f13          	addi	t5,t5,-2
   1f6c0:	00d787b3          	add	a5,a5,a3
   1f6c4:	e75ff06f          	jal	zero,1f538 <__divdf3+0x3f4>
   1f6c8:	00000513          	addi	a0,zero,0
   1f6cc:	00060f13          	addi	t5,a2,0
   1f6d0:	f01ff06f          	jal	zero,1f5d0 <__divdf3+0x48c>
   1f6d4:	000a8813          	addi	a6,s5,0
   1f6d8:	00068b13          	addi	s6,a3,0
   1f6dc:	00200793          	addi	a5,zero,2
   1f6e0:	0efb0e63          	beq	s6,a5,1f7dc <__divdf3+0x698>
   1f6e4:	00300793          	addi	a5,zero,3
   1f6e8:	0efb0063          	beq	s6,a5,1f7c8 <__divdf3+0x684>
   1f6ec:	00100793          	addi	a5,zero,1
   1f6f0:	eefb18e3          	bne	s6,a5,1f5e0 <__divdf3+0x49c>
   1f6f4:	00000413          	addi	s0,zero,0
   1f6f8:	00000713          	addi	a4,zero,0
   1f6fc:	08c0006f          	jal	zero,1f788 <__divdf3+0x644>
   1f700:	00090813          	addi	a6,s2,0
   1f704:	000a0413          	addi	s0,s4,0
   1f708:	00048f13          	addi	t5,s1,0
   1f70c:	fd1ff06f          	jal	zero,1f6dc <__divdf3+0x598>
   1f710:	08078063          	beq	a5,zero,1f790 <__divdf3+0x64c>
   1f714:	fc900693          	addi	a3,zero,-55
   1f718:	fcd7cee3          	blt	a5,a3,1f6f4 <__divdf3+0x5b0>
   1f71c:	fe200693          	addi	a3,zero,-30
   1f720:	06d7cc63          	blt	a5,a3,1f798 <__divdf3+0x654>
   1f724:	00100693          	addi	a3,zero,1
   1f728:	40f686b3          	sub	a3,a3,a5
   1f72c:	41e70713          	addi	a4,a4,1054
   1f730:	00df57b3          	srl	a5,t5,a3
   1f734:	00ef1f33          	sll	t5,t5,a4
   1f738:	01e03f33          	sltu	t5,zero,t5
   1f73c:	00e41733          	sll	a4,s0,a4
   1f740:	00ef6f33          	or	t5,t5,a4
   1f744:	01e7e7b3          	or	a5,a5,t5
   1f748:	00d45433          	srl	s0,s0,a3
   1f74c:	0077f713          	andi	a4,a5,7
   1f750:	02070063          	beq	a4,zero,1f770 <__divdf3+0x62c>
   1f754:	00f7f713          	andi	a4,a5,15
   1f758:	00400693          	addi	a3,zero,4
   1f75c:	00d70a63          	beq	a4,a3,1f770 <__divdf3+0x62c>
   1f760:	00d78733          	add	a4,a5,a3
   1f764:	00f736b3          	sltu	a3,a4,a5
   1f768:	00d40433          	add	s0,s0,a3
   1f76c:	00070793          	addi	a5,a4,0
   1f770:	00841713          	slli	a4,s0,0x8
   1f774:	06074c63          	blt	a4,zero,1f7ec <__divdf3+0x6a8>
   1f778:	01d41713          	slli	a4,s0,0x1d
   1f77c:	0037d793          	srli	a5,a5,0x3
   1f780:	00f76733          	or	a4,a4,a5
   1f784:	00345413          	srli	s0,s0,0x3
   1f788:	00000793          	addi	a5,zero,0
   1f78c:	eb1ff06f          	jal	zero,1f63c <__divdf3+0x4f8>
   1f790:	00100693          	addi	a3,zero,1
   1f794:	f99ff06f          	jal	zero,1f72c <__divdf3+0x5e8>
   1f798:	fe100593          	addi	a1,zero,-31
   1f79c:	40f586b3          	sub	a3,a1,a5
   1f7a0:	00d456b3          	srl	a3,s0,a3
   1f7a4:	00000613          	addi	a2,zero,0
   1f7a8:	00b78663          	beq	a5,a1,1f7b4 <__divdf3+0x670>
   1f7ac:	43e70713          	addi	a4,a4,1086
   1f7b0:	00e41633          	sll	a2,s0,a4
   1f7b4:	01e66633          	or	a2,a2,t5
   1f7b8:	00c03633          	sltu	a2,zero,a2
   1f7bc:	00c6e7b3          	or	a5,a3,a2
   1f7c0:	00000413          	addi	s0,zero,0
   1f7c4:	f89ff06f          	jal	zero,1f74c <__divdf3+0x608>
   1f7c8:	00080437          	lui	s0,0x80
   1f7cc:	00000713          	addi	a4,zero,0
   1f7d0:	7ff00793          	addi	a5,zero,2047
   1f7d4:	00000813          	addi	a6,zero,0
   1f7d8:	e65ff06f          	jal	zero,1f63c <__divdf3+0x4f8>
   1f7dc:	00000413          	addi	s0,zero,0
   1f7e0:	00000713          	addi	a4,zero,0
   1f7e4:	7ff00793          	addi	a5,zero,2047
   1f7e8:	e55ff06f          	jal	zero,1f63c <__divdf3+0x4f8>
   1f7ec:	00000413          	addi	s0,zero,0
   1f7f0:	00000713          	addi	a4,zero,0
   1f7f4:	00100793          	addi	a5,zero,1
   1f7f8:	e45ff06f          	jal	zero,1f63c <__divdf3+0x4f8>

0001f7fc <__eqdf2>:
   1f7fc:	001007b7          	lui	a5,0x100
   1f800:	0145d813          	srli	a6,a1,0x14
   1f804:	fff78793          	addi	a5,a5,-1 # fffff <cipher_buffer.1+0x41687>
   1f808:	0146d313          	srli	t1,a3,0x14
   1f80c:	7ff87813          	andi	a6,a6,2047
   1f810:	7ff00e93          	addi	t4,zero,2047
   1f814:	00b7f733          	and	a4,a5,a1
   1f818:	00050893          	addi	a7,a0,0
   1f81c:	01f5df93          	srli	t6,a1,0x1f
   1f820:	00d7f7b3          	and	a5,a5,a3
   1f824:	7ff37313          	andi	t1,t1,2047
   1f828:	01f6df13          	srli	t5,a3,0x1f
   1f82c:	01d81863          	bne	a6,t4,1f83c <__eqdf2+0x40>
   1f830:	00a76e33          	or	t3,a4,a0
   1f834:	00100513          	addi	a0,zero,1
   1f838:	040e1263          	bne	t3,zero,1f87c <__eqdf2+0x80>
   1f83c:	01d31863          	bne	t1,t4,1f84c <__eqdf2+0x50>
   1f840:	00c7e7b3          	or	a5,a5,a2
   1f844:	00100513          	addi	a0,zero,1
   1f848:	02079a63          	bne	a5,zero,1f87c <__eqdf2+0x80>
   1f84c:	00b6c6b3          	xor	a3,a3,a1
   1f850:	00169693          	slli	a3,a3,0x1
   1f854:	02069263          	bne	a3,zero,1f878 <__eqdf2+0x7c>
   1f858:	03161063          	bne	a2,a7,1f878 <__eqdf2+0x7c>
   1f85c:	00000513          	addi	a0,zero,0
   1f860:	01ef8e63          	beq	t6,t5,1f87c <__eqdf2+0x80>
   1f864:	00100513          	addi	a0,zero,1
   1f868:	00081a63          	bne	a6,zero,1f87c <__eqdf2+0x80>
   1f86c:	01176733          	or	a4,a4,a7
   1f870:	00e03533          	sltu	a0,zero,a4
   1f874:	00008067          	jalr	zero,0(ra)
   1f878:	00100513          	addi	a0,zero,1
   1f87c:	00008067          	jalr	zero,0(ra)

0001f880 <__gedf2>:
   1f880:	0145d893          	srli	a7,a1,0x14
   1f884:	00100737          	lui	a4,0x100
   1f888:	fff70713          	addi	a4,a4,-1 # fffff <cipher_buffer.1+0x41687>
   1f88c:	0146d813          	srli	a6,a3,0x14
   1f890:	7ff8f893          	andi	a7,a7,2047
   1f894:	7ff00793          	addi	a5,zero,2047
   1f898:	00b77333          	and	t1,a4,a1
   1f89c:	7ff87813          	andi	a6,a6,2047
   1f8a0:	00d77733          	and	a4,a4,a3
   1f8a4:	01f5d593          	srli	a1,a1,0x1f
   1f8a8:	01f6d693          	srli	a3,a3,0x1f
   1f8ac:	02f88063          	beq	a7,a5,1f8cc <__gedf2+0x4c>
   1f8b0:	7ff00e13          	addi	t3,zero,2047
   1f8b4:	00080793          	addi	a5,a6,0
   1f8b8:	03c81463          	bne	a6,t3,1f8e0 <__gedf2+0x60>
   1f8bc:	00c76e33          	or	t3,a4,a2
   1f8c0:	020e0063          	beq	t3,zero,1f8e0 <__gedf2+0x60>
   1f8c4:	ffe00793          	addi	a5,zero,-2
   1f8c8:	0100006f          	jal	zero,1f8d8 <__gedf2+0x58>
   1f8cc:	00a36e33          	or	t3,t1,a0
   1f8d0:	ffe00793          	addi	a5,zero,-2
   1f8d4:	fc0e0ee3          	beq	t3,zero,1f8b0 <__gedf2+0x30>
   1f8d8:	00078513          	addi	a0,a5,0
   1f8dc:	00008067          	jalr	zero,0(ra)
   1f8e0:	00000e13          	addi	t3,zero,0
   1f8e4:	00089663          	bne	a7,zero,1f8f0 <__gedf2+0x70>
   1f8e8:	00a36e33          	or	t3,t1,a0
   1f8ec:	001e3e13          	sltiu	t3,t3,1
   1f8f0:	04081863          	bne	a6,zero,1f940 <__gedf2+0xc0>
   1f8f4:	00c76eb3          	or	t4,a4,a2
   1f8f8:	000e0a63          	beq	t3,zero,1f90c <__gedf2+0x8c>
   1f8fc:	fc0e8ee3          	beq	t4,zero,1f8d8 <__gedf2+0x58>
   1f900:	00169793          	slli	a5,a3,0x1
   1f904:	fff78793          	addi	a5,a5,-1
   1f908:	fd1ff06f          	jal	zero,1f8d8 <__gedf2+0x58>
   1f90c:	020e9c63          	bne	t4,zero,1f944 <__gedf2+0xc4>
   1f910:	40b005b3          	sub	a1,zero,a1
   1f914:	0015e793          	ori	a5,a1,1
   1f918:	fc1ff06f          	jal	zero,1f8d8 <__gedf2+0x58>
   1f91c:	ff08c2e3          	blt	a7,a6,1f900 <__gedf2+0x80>
   1f920:	fe6768e3          	bltu	a4,t1,1f910 <__gedf2+0x90>
   1f924:	00a67463          	bgeu	a2,a0,1f92c <__gedf2+0xac>
   1f928:	fee304e3          	beq	t1,a4,1f910 <__gedf2+0x90>
   1f92c:	00c56663          	bltu	a0,a2,1f938 <__gedf2+0xb8>
   1f930:	00000793          	addi	a5,zero,0
   1f934:	fae372e3          	bgeu	t1,a4,1f8d8 <__gedf2+0x58>
   1f938:	00159793          	slli	a5,a1,0x1
   1f93c:	fc9ff06f          	jal	zero,1f904 <__gedf2+0x84>
   1f940:	fc0e10e3          	bne	t3,zero,1f900 <__gedf2+0x80>
   1f944:	fcb696e3          	bne	a3,a1,1f910 <__gedf2+0x90>
   1f948:	fd185ae3          	bge	a6,a7,1f91c <__gedf2+0x9c>
   1f94c:	40d006b3          	sub	a3,zero,a3
   1f950:	0016e793          	ori	a5,a3,1
   1f954:	f85ff06f          	jal	zero,1f8d8 <__gedf2+0x58>

0001f958 <__ledf2>:
   1f958:	0145d893          	srli	a7,a1,0x14
   1f95c:	00100737          	lui	a4,0x100
   1f960:	fff70713          	addi	a4,a4,-1 # fffff <cipher_buffer.1+0x41687>
   1f964:	0146d813          	srli	a6,a3,0x14
   1f968:	7ff8f893          	andi	a7,a7,2047
   1f96c:	7ff00793          	addi	a5,zero,2047
   1f970:	00b77333          	and	t1,a4,a1
   1f974:	7ff87813          	andi	a6,a6,2047
   1f978:	00d77733          	and	a4,a4,a3
   1f97c:	01f5d593          	srli	a1,a1,0x1f
   1f980:	01f6d693          	srli	a3,a3,0x1f
   1f984:	02f88063          	beq	a7,a5,1f9a4 <__ledf2+0x4c>
   1f988:	7ff00e13          	addi	t3,zero,2047
   1f98c:	00080793          	addi	a5,a6,0
   1f990:	03c81463          	bne	a6,t3,1f9b8 <__ledf2+0x60>
   1f994:	00c76e33          	or	t3,a4,a2
   1f998:	020e0063          	beq	t3,zero,1f9b8 <__ledf2+0x60>
   1f99c:	00200793          	addi	a5,zero,2
   1f9a0:	0100006f          	jal	zero,1f9b0 <__ledf2+0x58>
   1f9a4:	00a36e33          	or	t3,t1,a0
   1f9a8:	00200793          	addi	a5,zero,2
   1f9ac:	fc0e0ee3          	beq	t3,zero,1f988 <__ledf2+0x30>
   1f9b0:	00078513          	addi	a0,a5,0
   1f9b4:	00008067          	jalr	zero,0(ra)
   1f9b8:	00000e13          	addi	t3,zero,0
   1f9bc:	00089663          	bne	a7,zero,1f9c8 <__ledf2+0x70>
   1f9c0:	00a36e33          	or	t3,t1,a0
   1f9c4:	001e3e13          	sltiu	t3,t3,1
   1f9c8:	04081863          	bne	a6,zero,1fa18 <__ledf2+0xc0>
   1f9cc:	00c76eb3          	or	t4,a4,a2
   1f9d0:	000e0a63          	beq	t3,zero,1f9e4 <__ledf2+0x8c>
   1f9d4:	fc0e8ee3          	beq	t4,zero,1f9b0 <__ledf2+0x58>
   1f9d8:	00169793          	slli	a5,a3,0x1
   1f9dc:	fff78793          	addi	a5,a5,-1
   1f9e0:	fd1ff06f          	jal	zero,1f9b0 <__ledf2+0x58>
   1f9e4:	020e9c63          	bne	t4,zero,1fa1c <__ledf2+0xc4>
   1f9e8:	40b005b3          	sub	a1,zero,a1
   1f9ec:	0015e793          	ori	a5,a1,1
   1f9f0:	fc1ff06f          	jal	zero,1f9b0 <__ledf2+0x58>
   1f9f4:	ff08c2e3          	blt	a7,a6,1f9d8 <__ledf2+0x80>
   1f9f8:	fe6768e3          	bltu	a4,t1,1f9e8 <__ledf2+0x90>
   1f9fc:	00a67463          	bgeu	a2,a0,1fa04 <__ledf2+0xac>
   1fa00:	fee304e3          	beq	t1,a4,1f9e8 <__ledf2+0x90>
   1fa04:	00c56663          	bltu	a0,a2,1fa10 <__ledf2+0xb8>
   1fa08:	00000793          	addi	a5,zero,0
   1fa0c:	fae372e3          	bgeu	t1,a4,1f9b0 <__ledf2+0x58>
   1fa10:	00159793          	slli	a5,a1,0x1
   1fa14:	fc9ff06f          	jal	zero,1f9dc <__ledf2+0x84>
   1fa18:	fc0e10e3          	bne	t3,zero,1f9d8 <__ledf2+0x80>
   1fa1c:	fcb696e3          	bne	a3,a1,1f9e8 <__ledf2+0x90>
   1fa20:	fd185ae3          	bge	a6,a7,1f9f4 <__ledf2+0x9c>
   1fa24:	40d006b3          	sub	a3,zero,a3
   1fa28:	0016e793          	ori	a5,a3,1
   1fa2c:	f85ff06f          	jal	zero,1f9b0 <__ledf2+0x58>

0001fa30 <__muldf3>:
   1fa30:	fd010113          	addi	sp,sp,-48
   1fa34:	01312e23          	sw	s3,28(sp)
   1fa38:	0145d993          	srli	s3,a1,0x14
   1fa3c:	02812423          	sw	s0,40(sp)
   1fa40:	02912223          	sw	s1,36(sp)
   1fa44:	01412c23          	sw	s4,24(sp)
   1fa48:	01512a23          	sw	s5,20(sp)
   1fa4c:	01712623          	sw	s7,12(sp)
   1fa50:	00c59493          	slli	s1,a1,0xc
   1fa54:	02112623          	sw	ra,44(sp)
   1fa58:	03212023          	sw	s2,32(sp)
   1fa5c:	01612823          	sw	s6,16(sp)
   1fa60:	7ff9f993          	andi	s3,s3,2047
   1fa64:	00050413          	addi	s0,a0,0
   1fa68:	00060b93          	addi	s7,a2,0
   1fa6c:	00068a13          	addi	s4,a3,0
   1fa70:	00c4d493          	srli	s1,s1,0xc
   1fa74:	01f5da93          	srli	s5,a1,0x1f
   1fa78:	0c098263          	beq	s3,zero,1fb3c <__muldf3+0x10c>
   1fa7c:	7ff00793          	addi	a5,zero,2047
   1fa80:	12f98463          	beq	s3,a5,1fba8 <__muldf3+0x178>
   1fa84:	00349493          	slli	s1,s1,0x3
   1fa88:	01d55793          	srli	a5,a0,0x1d
   1fa8c:	0097e7b3          	or	a5,a5,s1
   1fa90:	008004b7          	lui	s1,0x800
   1fa94:	0097e4b3          	or	s1,a5,s1
   1fa98:	00351913          	slli	s2,a0,0x3
   1fa9c:	c0198993          	addi	s3,s3,-1023
   1faa0:	00000b13          	addi	s6,zero,0
   1faa4:	014a5713          	srli	a4,s4,0x14
   1faa8:	00ca1413          	slli	s0,s4,0xc
   1faac:	7ff77713          	andi	a4,a4,2047
   1fab0:	00c45413          	srli	s0,s0,0xc
   1fab4:	01fa5a13          	srli	s4,s4,0x1f
   1fab8:	12070063          	beq	a4,zero,1fbd8 <__muldf3+0x1a8>
   1fabc:	7ff00793          	addi	a5,zero,2047
   1fac0:	18f70463          	beq	a4,a5,1fc48 <__muldf3+0x218>
   1fac4:	00341413          	slli	s0,s0,0x3
   1fac8:	01dbd793          	srli	a5,s7,0x1d
   1facc:	0087e7b3          	or	a5,a5,s0
   1fad0:	00800437          	lui	s0,0x800
   1fad4:	0087e433          	or	s0,a5,s0
   1fad8:	c0170713          	addi	a4,a4,-1023
   1fadc:	003b9793          	slli	a5,s7,0x3
   1fae0:	00000813          	addi	a6,zero,0
   1fae4:	00e989b3          	add	s3,s3,a4
   1fae8:	002b1713          	slli	a4,s6,0x2
   1faec:	01076733          	or	a4,a4,a6
   1faf0:	00a00693          	addi	a3,zero,10
   1faf4:	00198513          	addi	a0,s3,1
   1faf8:	1ae6c263          	blt	a3,a4,1fc9c <__muldf3+0x26c>
   1fafc:	00200613          	addi	a2,zero,2
   1fb00:	014ac5b3          	xor	a1,s5,s4
   1fb04:	00100693          	addi	a3,zero,1
   1fb08:	16e64863          	blt	a2,a4,1fc78 <__muldf3+0x248>
   1fb0c:	fff70713          	addi	a4,a4,-1
   1fb10:	1ae6e663          	bltu	a3,a4,1fcbc <__muldf3+0x28c>
   1fb14:	00080b13          	addi	s6,a6,0
   1fb18:	00200713          	addi	a4,zero,2
   1fb1c:	4ceb0e63          	beq	s6,a4,1fff8 <__muldf3+0x5c8>
   1fb20:	00300713          	addi	a4,zero,3
   1fb24:	4ceb0463          	beq	s6,a4,1ffec <__muldf3+0x5bc>
   1fb28:	00100713          	addi	a4,zero,1
   1fb2c:	34eb1463          	bne	s6,a4,1fe74 <__muldf3+0x444>
   1fb30:	00000413          	addi	s0,zero,0
   1fb34:	00000613          	addi	a2,zero,0
   1fb38:	4640006f          	jal	zero,1ff9c <__muldf3+0x56c>
   1fb3c:	00a4e933          	or	s2,s1,a0
   1fb40:	06090e63          	beq	s2,zero,1fbbc <__muldf3+0x18c>
   1fb44:	04048263          	beq	s1,zero,1fb88 <__muldf3+0x158>
   1fb48:	00048513          	addi	a0,s1,0 # 800000 <__BSS_END__+0x6ebc68>
   1fb4c:	7bc030ef          	jal	ra,23308 <__clzsi2>
   1fb50:	00050713          	addi	a4,a0,0
   1fb54:	ff550693          	addi	a3,a0,-11
   1fb58:	01d00793          	addi	a5,zero,29
   1fb5c:	ff870613          	addi	a2,a4,-8
   1fb60:	40d787b3          	sub	a5,a5,a3
   1fb64:	00c494b3          	sll	s1,s1,a2
   1fb68:	00f457b3          	srl	a5,s0,a5
   1fb6c:	0097e7b3          	or	a5,a5,s1
   1fb70:	00c414b3          	sll	s1,s0,a2
   1fb74:	c0d00993          	addi	s3,zero,-1011
   1fb78:	00048913          	addi	s2,s1,0
   1fb7c:	40e989b3          	sub	s3,s3,a4
   1fb80:	00078493          	addi	s1,a5,0
   1fb84:	f1dff06f          	jal	zero,1faa0 <__muldf3+0x70>
   1fb88:	780030ef          	jal	ra,23308 <__clzsi2>
   1fb8c:	01550693          	addi	a3,a0,21
   1fb90:	01c00793          	addi	a5,zero,28
   1fb94:	02050713          	addi	a4,a0,32
   1fb98:	fcd7d0e3          	bge	a5,a3,1fb58 <__muldf3+0x128>
   1fb9c:	ff850793          	addi	a5,a0,-8
   1fba0:	00f417b3          	sll	a5,s0,a5
   1fba4:	fd1ff06f          	jal	zero,1fb74 <__muldf3+0x144>
   1fba8:	00a4e933          	or	s2,s1,a0
   1fbac:	02091063          	bne	s2,zero,1fbcc <__muldf3+0x19c>
   1fbb0:	00000493          	addi	s1,zero,0
   1fbb4:	00200b13          	addi	s6,zero,2
   1fbb8:	eedff06f          	jal	zero,1faa4 <__muldf3+0x74>
   1fbbc:	00000493          	addi	s1,zero,0
   1fbc0:	00000993          	addi	s3,zero,0
   1fbc4:	00100b13          	addi	s6,zero,1
   1fbc8:	eddff06f          	jal	zero,1faa4 <__muldf3+0x74>
   1fbcc:	00050913          	addi	s2,a0,0
   1fbd0:	00300b13          	addi	s6,zero,3
   1fbd4:	ed1ff06f          	jal	zero,1faa4 <__muldf3+0x74>
   1fbd8:	017467b3          	or	a5,s0,s7
   1fbdc:	08078063          	beq	a5,zero,1fc5c <__muldf3+0x22c>
   1fbe0:	04040263          	beq	s0,zero,1fc24 <__muldf3+0x1f4>
   1fbe4:	00040513          	addi	a0,s0,0 # 800000 <__BSS_END__+0x6ebc68>
   1fbe8:	720030ef          	jal	ra,23308 <__clzsi2>
   1fbec:	00050793          	addi	a5,a0,0
   1fbf0:	ff550713          	addi	a4,a0,-11
   1fbf4:	01d00693          	addi	a3,zero,29
   1fbf8:	ff878613          	addi	a2,a5,-8
   1fbfc:	40e686b3          	sub	a3,a3,a4
   1fc00:	00c41433          	sll	s0,s0,a2
   1fc04:	00dbd6b3          	srl	a3,s7,a3
   1fc08:	0086e6b3          	or	a3,a3,s0
   1fc0c:	00cb9433          	sll	s0,s7,a2
   1fc10:	c0d00713          	addi	a4,zero,-1011
   1fc14:	40f70733          	sub	a4,a4,a5
   1fc18:	00040793          	addi	a5,s0,0
   1fc1c:	00068413          	addi	s0,a3,0
   1fc20:	ec1ff06f          	jal	zero,1fae0 <__muldf3+0xb0>
   1fc24:	000b8513          	addi	a0,s7,0
   1fc28:	6e0030ef          	jal	ra,23308 <__clzsi2>
   1fc2c:	01550713          	addi	a4,a0,21
   1fc30:	01c00693          	addi	a3,zero,28
   1fc34:	02050793          	addi	a5,a0,32
   1fc38:	fae6dee3          	bge	a3,a4,1fbf4 <__muldf3+0x1c4>
   1fc3c:	ff850693          	addi	a3,a0,-8
   1fc40:	00db96b3          	sll	a3,s7,a3
   1fc44:	fcdff06f          	jal	zero,1fc10 <__muldf3+0x1e0>
   1fc48:	017467b3          	or	a5,s0,s7
   1fc4c:	02079063          	bne	a5,zero,1fc6c <__muldf3+0x23c>
   1fc50:	00000413          	addi	s0,zero,0
   1fc54:	00200813          	addi	a6,zero,2
   1fc58:	e8dff06f          	jal	zero,1fae4 <__muldf3+0xb4>
   1fc5c:	00000413          	addi	s0,zero,0
   1fc60:	00000713          	addi	a4,zero,0
   1fc64:	00100813          	addi	a6,zero,1
   1fc68:	e7dff06f          	jal	zero,1fae4 <__muldf3+0xb4>
   1fc6c:	000b8793          	addi	a5,s7,0
   1fc70:	00300813          	addi	a6,zero,3
   1fc74:	e71ff06f          	jal	zero,1fae4 <__muldf3+0xb4>
   1fc78:	00e69733          	sll	a4,a3,a4
   1fc7c:	53077613          	andi	a2,a4,1328
   1fc80:	02061863          	bne	a2,zero,1fcb0 <__muldf3+0x280>
   1fc84:	24077693          	andi	a3,a4,576
   1fc88:	34069a63          	bne	a3,zero,1ffdc <__muldf3+0x5ac>
   1fc8c:	08877713          	andi	a4,a4,136
   1fc90:	02070663          	beq	a4,zero,1fcbc <__muldf3+0x28c>
   1fc94:	000a0593          	addi	a1,s4,0
   1fc98:	e7dff06f          	jal	zero,1fb14 <__muldf3+0xe4>
   1fc9c:	00f00693          	addi	a3,zero,15
   1fca0:	34d70663          	beq	a4,a3,1ffec <__muldf3+0x5bc>
   1fca4:	00b00693          	addi	a3,zero,11
   1fca8:	000a8593          	addi	a1,s5,0
   1fcac:	fed704e3          	beq	a4,a3,1fc94 <__muldf3+0x264>
   1fcb0:	00048413          	addi	s0,s1,0
   1fcb4:	00090793          	addi	a5,s2,0
   1fcb8:	e61ff06f          	jal	zero,1fb18 <__muldf3+0xe8>
   1fcbc:	01095893          	srli	a7,s2,0x10
   1fcc0:	01079e13          	slli	t3,a5,0x10
   1fcc4:	01091913          	slli	s2,s2,0x10
   1fcc8:	0107d613          	srli	a2,a5,0x10
   1fccc:	01095913          	srli	s2,s2,0x10
   1fcd0:	010e5e13          	srli	t3,t3,0x10
   1fcd4:	03c907b3          	mul	a5,s2,t3
   1fcd8:	03c88333          	mul	t1,a7,t3
   1fcdc:	0107d813          	srli	a6,a5,0x10
   1fce0:	03260733          	mul	a4,a2,s2
   1fce4:	00670733          	add	a4,a4,t1
   1fce8:	00e80833          	add	a6,a6,a4
   1fcec:	02c886b3          	mul	a3,a7,a2
   1fcf0:	00687663          	bgeu	a6,t1,1fcfc <__muldf3+0x2cc>
   1fcf4:	00010737          	lui	a4,0x10
   1fcf8:	00e686b3          	add	a3,a3,a4
   1fcfc:	01045713          	srli	a4,s0,0x10
   1fd00:	01079793          	slli	a5,a5,0x10
   1fd04:	01041413          	slli	s0,s0,0x10
   1fd08:	0107d793          	srli	a5,a5,0x10
   1fd0c:	01045413          	srli	s0,s0,0x10
   1fd10:	01085f93          	srli	t6,a6,0x10
   1fd14:	01081813          	slli	a6,a6,0x10
   1fd18:	02890f33          	mul	t5,s2,s0
   1fd1c:	00f80833          	add	a6,a6,a5
   1fd20:	03270933          	mul	s2,a4,s2
   1fd24:	010f5313          	srli	t1,t5,0x10
   1fd28:	028887b3          	mul	a5,a7,s0
   1fd2c:	00f90933          	add	s2,s2,a5
   1fd30:	01230333          	add	t1,t1,s2
   1fd34:	02e888b3          	mul	a7,a7,a4
   1fd38:	00f37663          	bgeu	t1,a5,1fd44 <__muldf3+0x314>
   1fd3c:	000107b7          	lui	a5,0x10
   1fd40:	00f888b3          	add	a7,a7,a5
   1fd44:	010f1f13          	slli	t5,t5,0x10
   1fd48:	010f5f13          	srli	t5,t5,0x10
   1fd4c:	01031793          	slli	a5,t1,0x10
   1fd50:	01e787b3          	add	a5,a5,t5
   1fd54:	0104df13          	srli	t5,s1,0x10
   1fd58:	01049493          	slli	s1,s1,0x10
   1fd5c:	0104d493          	srli	s1,s1,0x10
   1fd60:	03c482b3          	mul	t0,s1,t3
   1fd64:	01035e93          	srli	t4,t1,0x10
   1fd68:	011e8eb3          	add	t4,t4,a7
   1fd6c:	00ff8fb3          	add	t6,t6,a5
   1fd70:	03cf0e33          	mul	t3,t5,t3
   1fd74:	0102d893          	srli	a7,t0,0x10
   1fd78:	03e603b3          	mul	t2,a2,t5
   1fd7c:	02960633          	mul	a2,a2,s1
   1fd80:	01c60633          	add	a2,a2,t3
   1fd84:	00c888b3          	add	a7,a7,a2
   1fd88:	01c8f663          	bgeu	a7,t3,1fd94 <__muldf3+0x364>
   1fd8c:	00010637          	lui	a2,0x10
   1fd90:	00c383b3          	add	t2,t2,a2
   1fd94:	02848633          	mul	a2,s1,s0
   1fd98:	01029293          	slli	t0,t0,0x10
   1fd9c:	0108d313          	srli	t1,a7,0x10
   1fda0:	0102d293          	srli	t0,t0,0x10
   1fda4:	01089893          	slli	a7,a7,0x10
   1fda8:	00730333          	add	t1,t1,t2
   1fdac:	005888b3          	add	a7,a7,t0
   1fdb0:	028f0433          	mul	s0,t5,s0
   1fdb4:	01065e13          	srli	t3,a2,0x10
   1fdb8:	03e70f33          	mul	t5,a4,t5
   1fdbc:	02970733          	mul	a4,a4,s1
   1fdc0:	00870733          	add	a4,a4,s0
   1fdc4:	00ee0e33          	add	t3,t3,a4
   1fdc8:	008e7663          	bgeu	t3,s0,1fdd4 <__muldf3+0x3a4>
   1fdcc:	00010737          	lui	a4,0x10
   1fdd0:	00ef0f33          	add	t5,t5,a4
   1fdd4:	01061613          	slli	a2,a2,0x10
   1fdd8:	010e1713          	slli	a4,t3,0x10
   1fddc:	01065613          	srli	a2,a2,0x10
   1fde0:	01f686b3          	add	a3,a3,t6
   1fde4:	00c70733          	add	a4,a4,a2
   1fde8:	01d70eb3          	add	t4,a4,t4
   1fdec:	00f6b7b3          	sltu	a5,a3,a5
   1fdf0:	00fe87b3          	add	a5,t4,a5
   1fdf4:	011688b3          	add	a7,a3,a7
   1fdf8:	00678333          	add	t1,a5,t1
   1fdfc:	00d8b6b3          	sltu	a3,a7,a3
   1fe00:	00eeb633          	sltu	a2,t4,a4
   1fe04:	00d306b3          	add	a3,t1,a3
   1fe08:	01d7beb3          	sltu	t4,a5,t4
   1fe0c:	00f33733          	sltu	a4,t1,a5
   1fe10:	01d66633          	or	a2,a2,t4
   1fe14:	0066b333          	sltu	t1,a3,t1
   1fe18:	010e5e13          	srli	t3,t3,0x10
   1fe1c:	00989793          	slli	a5,a7,0x9
   1fe20:	01c60633          	add	a2,a2,t3
   1fe24:	00676733          	or	a4,a4,t1
   1fe28:	00c70733          	add	a4,a4,a2
   1fe2c:	0107e7b3          	or	a5,a5,a6
   1fe30:	01e70733          	add	a4,a4,t5
   1fe34:	00f037b3          	sltu	a5,zero,a5
   1fe38:	0178d893          	srli	a7,a7,0x17
   1fe3c:	00971713          	slli	a4,a4,0x9
   1fe40:	0176d413          	srli	s0,a3,0x17
   1fe44:	0117e7b3          	or	a5,a5,a7
   1fe48:	00969693          	slli	a3,a3,0x9
   1fe4c:	00d7e7b3          	or	a5,a5,a3
   1fe50:	00771693          	slli	a3,a4,0x7
   1fe54:	00876433          	or	s0,a4,s0
   1fe58:	0c06d263          	bge	a3,zero,1ff1c <__muldf3+0x4ec>
   1fe5c:	0017d713          	srli	a4,a5,0x1
   1fe60:	0017f793          	andi	a5,a5,1
   1fe64:	00f76733          	or	a4,a4,a5
   1fe68:	01f41793          	slli	a5,s0,0x1f
   1fe6c:	00f767b3          	or	a5,a4,a5
   1fe70:	00145413          	srli	s0,s0,0x1
   1fe74:	3ff50713          	addi	a4,a0,1023
   1fe78:	0ae05663          	bge	zero,a4,1ff24 <__muldf3+0x4f4>
   1fe7c:	0077f693          	andi	a3,a5,7
   1fe80:	02068063          	beq	a3,zero,1fea0 <__muldf3+0x470>
   1fe84:	00f7f693          	andi	a3,a5,15
   1fe88:	00400613          	addi	a2,zero,4
   1fe8c:	00c68a63          	beq	a3,a2,1fea0 <__muldf3+0x470>
   1fe90:	00c786b3          	add	a3,a5,a2
   1fe94:	00f6b633          	sltu	a2,a3,a5
   1fe98:	00c40433          	add	s0,s0,a2
   1fe9c:	00068793          	addi	a5,a3,0
   1fea0:	00741693          	slli	a3,s0,0x7
   1fea4:	0006da63          	bge	a3,zero,1feb8 <__muldf3+0x488>
   1fea8:	ff000737          	lui	a4,0xff000
   1feac:	fff70713          	addi	a4,a4,-1 # feffffff <__BSS_END__+0xfeeebc67>
   1feb0:	00e47433          	and	s0,s0,a4
   1feb4:	40050713          	addi	a4,a0,1024
   1feb8:	7fe00693          	addi	a3,zero,2046
   1febc:	12e6ce63          	blt	a3,a4,1fff8 <__muldf3+0x5c8>
   1fec0:	01d41613          	slli	a2,s0,0x1d
   1fec4:	0037d793          	srli	a5,a5,0x3
   1fec8:	00f66633          	or	a2,a2,a5
   1fecc:	00345413          	srli	s0,s0,0x3
   1fed0:	00c41413          	slli	s0,s0,0xc
   1fed4:	00c45413          	srli	s0,s0,0xc
   1fed8:	01471713          	slli	a4,a4,0x14
   1fedc:	02c12083          	lw	ra,44(sp)
   1fee0:	00876733          	or	a4,a4,s0
   1fee4:	02812403          	lw	s0,40(sp)
   1fee8:	01f59593          	slli	a1,a1,0x1f
   1feec:	00b767b3          	or	a5,a4,a1
   1fef0:	02412483          	lw	s1,36(sp)
   1fef4:	02012903          	lw	s2,32(sp)
   1fef8:	01c12983          	lw	s3,28(sp)
   1fefc:	01812a03          	lw	s4,24(sp)
   1ff00:	01412a83          	lw	s5,20(sp)
   1ff04:	01012b03          	lw	s6,16(sp)
   1ff08:	00c12b83          	lw	s7,12(sp)
   1ff0c:	00060513          	addi	a0,a2,0 # 10000 <exit-0xb4>
   1ff10:	00078593          	addi	a1,a5,0 # 10000 <exit-0xb4>
   1ff14:	03010113          	addi	sp,sp,48
   1ff18:	00008067          	jalr	zero,0(ra)
   1ff1c:	00098513          	addi	a0,s3,0
   1ff20:	f55ff06f          	jal	zero,1fe74 <__muldf3+0x444>
   1ff24:	08070063          	beq	a4,zero,1ffa4 <__muldf3+0x574>
   1ff28:	fc900693          	addi	a3,zero,-55
   1ff2c:	c0d742e3          	blt	a4,a3,1fb30 <__muldf3+0x100>
   1ff30:	fe200693          	addi	a3,zero,-30
   1ff34:	06d74c63          	blt	a4,a3,1ffac <__muldf3+0x57c>
   1ff38:	00100693          	addi	a3,zero,1
   1ff3c:	40e68733          	sub	a4,a3,a4
   1ff40:	41e50513          	addi	a0,a0,1054
   1ff44:	00e7d6b3          	srl	a3,a5,a4
   1ff48:	00a797b3          	sll	a5,a5,a0
   1ff4c:	00f037b3          	sltu	a5,zero,a5
   1ff50:	00a41533          	sll	a0,s0,a0
   1ff54:	00a7e7b3          	or	a5,a5,a0
   1ff58:	00d7e7b3          	or	a5,a5,a3
   1ff5c:	00e45433          	srl	s0,s0,a4
   1ff60:	0077f713          	andi	a4,a5,7
   1ff64:	02070063          	beq	a4,zero,1ff84 <__muldf3+0x554>
   1ff68:	00f7f713          	andi	a4,a5,15
   1ff6c:	00400693          	addi	a3,zero,4
   1ff70:	00d70a63          	beq	a4,a3,1ff84 <__muldf3+0x554>
   1ff74:	00d78733          	add	a4,a5,a3
   1ff78:	00f736b3          	sltu	a3,a4,a5
   1ff7c:	00d40433          	add	s0,s0,a3
   1ff80:	00070793          	addi	a5,a4,0
   1ff84:	00841713          	slli	a4,s0,0x8
   1ff88:	08074063          	blt	a4,zero,20008 <__muldf3+0x5d8>
   1ff8c:	01d41613          	slli	a2,s0,0x1d
   1ff90:	0037d793          	srli	a5,a5,0x3
   1ff94:	00f66633          	or	a2,a2,a5
   1ff98:	00345413          	srli	s0,s0,0x3
   1ff9c:	00000713          	addi	a4,zero,0
   1ffa0:	f31ff06f          	jal	zero,1fed0 <__muldf3+0x4a0>
   1ffa4:	00100713          	addi	a4,zero,1
   1ffa8:	f99ff06f          	jal	zero,1ff40 <__muldf3+0x510>
   1ffac:	fe100813          	addi	a6,zero,-31
   1ffb0:	40e806b3          	sub	a3,a6,a4
   1ffb4:	00d456b3          	srl	a3,s0,a3
   1ffb8:	00000613          	addi	a2,zero,0
   1ffbc:	01070663          	beq	a4,a6,1ffc8 <__muldf3+0x598>
   1ffc0:	43e50513          	addi	a0,a0,1086
   1ffc4:	00a41633          	sll	a2,s0,a0
   1ffc8:	00c7e7b3          	or	a5,a5,a2
   1ffcc:	00f037b3          	sltu	a5,zero,a5
   1ffd0:	00f6e7b3          	or	a5,a3,a5
   1ffd4:	00000413          	addi	s0,zero,0
   1ffd8:	f89ff06f          	jal	zero,1ff60 <__muldf3+0x530>
   1ffdc:	00080437          	lui	s0,0x80
   1ffe0:	7ff00713          	addi	a4,zero,2047
   1ffe4:	00000593          	addi	a1,zero,0
   1ffe8:	ee9ff06f          	jal	zero,1fed0 <__muldf3+0x4a0>
   1ffec:	00080437          	lui	s0,0x80
   1fff0:	00000613          	addi	a2,zero,0
   1fff4:	fedff06f          	jal	zero,1ffe0 <__muldf3+0x5b0>
   1fff8:	00000413          	addi	s0,zero,0
   1fffc:	00000613          	addi	a2,zero,0
   20000:	7ff00713          	addi	a4,zero,2047
   20004:	ecdff06f          	jal	zero,1fed0 <__muldf3+0x4a0>
   20008:	00000413          	addi	s0,zero,0
   2000c:	00000613          	addi	a2,zero,0
   20010:	00100713          	addi	a4,zero,1
   20014:	ebdff06f          	jal	zero,1fed0 <__muldf3+0x4a0>

00020018 <__subdf3>:
   20018:	00100837          	lui	a6,0x100
   2001c:	fff80813          	addi	a6,a6,-1 # fffff <cipher_buffer.1+0x41687>
   20020:	fe010113          	addi	sp,sp,-32
   20024:	00b877b3          	and	a5,a6,a1
   20028:	0145d713          	srli	a4,a1,0x14
   2002c:	00d87833          	and	a6,a6,a3
   20030:	0146d893          	srli	a7,a3,0x14
   20034:	00912a23          	sw	s1,20(sp)
   20038:	00379793          	slli	a5,a5,0x3
   2003c:	7ff77493          	andi	s1,a4,2047
   20040:	01d55713          	srli	a4,a0,0x1d
   20044:	01212823          	sw	s2,16(sp)
   20048:	00f767b3          	or	a5,a4,a5
   2004c:	01f5d913          	srli	s2,a1,0x1f
   20050:	01d65713          	srli	a4,a2,0x1d
   20054:	00381813          	slli	a6,a6,0x3
   20058:	00112e23          	sw	ra,28(sp)
   2005c:	00812c23          	sw	s0,24(sp)
   20060:	01312623          	sw	s3,12(sp)
   20064:	7ff8f893          	andi	a7,a7,2047
   20068:	7ff00593          	addi	a1,zero,2047
   2006c:	00351513          	slli	a0,a0,0x3
   20070:	01f6d693          	srli	a3,a3,0x1f
   20074:	01076733          	or	a4,a4,a6
   20078:	00361613          	slli	a2,a2,0x3
   2007c:	00b89663          	bne	a7,a1,20088 <__subdf3+0x70>
   20080:	00c765b3          	or	a1,a4,a2
   20084:	00059463          	bne	a1,zero,2008c <__subdf3+0x74>
   20088:	0016c693          	xori	a3,a3,1
   2008c:	41148833          	sub	a6,s1,a7
   20090:	7ff00593          	addi	a1,zero,2047
   20094:	31269463          	bne	a3,s2,2039c <__subdf3+0x384>
   20098:	11005263          	bge	zero,a6,2019c <__subdf3+0x184>
   2009c:	02089c63          	bne	a7,zero,200d4 <__subdf3+0xbc>
   200a0:	00c766b3          	or	a3,a4,a2
   200a4:	02068463          	beq	a3,zero,200cc <__subdf3+0xb4>
   200a8:	fff48813          	addi	a6,s1,-1
   200ac:	00081e63          	bne	a6,zero,200c8 <__subdf3+0xb0>
   200b0:	00c50633          	add	a2,a0,a2
   200b4:	00e787b3          	add	a5,a5,a4
   200b8:	00a63533          	sltu	a0,a2,a0
   200bc:	00a787b3          	add	a5,a5,a0
   200c0:	00100493          	addi	s1,zero,1
   200c4:	0600006f          	jal	zero,20124 <__subdf3+0x10c>
   200c8:	00b49c63          	bne	s1,a1,200e0 <__subdf3+0xc8>
   200cc:	00050613          	addi	a2,a0,0
   200d0:	1d80006f          	jal	zero,202a8 <__subdf3+0x290>
   200d4:	feb48ce3          	beq	s1,a1,200cc <__subdf3+0xb4>
   200d8:	008006b7          	lui	a3,0x800
   200dc:	00d76733          	or	a4,a4,a3
   200e0:	03800693          	addi	a3,zero,56
   200e4:	0b06c663          	blt	a3,a6,20190 <__subdf3+0x178>
   200e8:	01f00693          	addi	a3,zero,31
   200ec:	02000893          	addi	a7,zero,32
   200f0:	0706c863          	blt	a3,a6,20160 <__subdf3+0x148>
   200f4:	410888b3          	sub	a7,a7,a6
   200f8:	011716b3          	sll	a3,a4,a7
   200fc:	010655b3          	srl	a1,a2,a6
   20100:	011618b3          	sll	a7,a2,a7
   20104:	00b6e6b3          	or	a3,a3,a1
   20108:	011038b3          	sltu	a7,zero,a7
   2010c:	0116e6b3          	or	a3,a3,a7
   20110:	01075833          	srl	a6,a4,a6
   20114:	00a68633          	add	a2,a3,a0
   20118:	00f80833          	add	a6,a6,a5
   2011c:	00d636b3          	sltu	a3,a2,a3
   20120:	00d807b3          	add	a5,a6,a3
   20124:	00879713          	slli	a4,a5,0x8
   20128:	22075663          	bge	a4,zero,20354 <__subdf3+0x33c>
   2012c:	00148493          	addi	s1,s1,1
   20130:	7ff00713          	addi	a4,zero,2047
   20134:	60e48863          	beq	s1,a4,20744 <__subdf3+0x72c>
   20138:	ff800737          	lui	a4,0xff800
   2013c:	fff70713          	addi	a4,a4,-1 # ff7fffff <__BSS_END__+0xff6ebc67>
   20140:	00e7f7b3          	and	a5,a5,a4
   20144:	00165713          	srli	a4,a2,0x1
   20148:	00167613          	andi	a2,a2,1
   2014c:	00c76733          	or	a4,a4,a2
   20150:	01f79613          	slli	a2,a5,0x1f
   20154:	00e66633          	or	a2,a2,a4
   20158:	0017d793          	srli	a5,a5,0x1
   2015c:	1f80006f          	jal	zero,20354 <__subdf3+0x33c>
   20160:	fe080693          	addi	a3,a6,-32
   20164:	00d756b3          	srl	a3,a4,a3
   20168:	00000593          	addi	a1,zero,0
   2016c:	01180863          	beq	a6,a7,2017c <__subdf3+0x164>
   20170:	04000593          	addi	a1,zero,64
   20174:	410585b3          	sub	a1,a1,a6
   20178:	00b715b3          	sll	a1,a4,a1
   2017c:	00c5e5b3          	or	a1,a1,a2
   20180:	00b035b3          	sltu	a1,zero,a1
   20184:	00b6e6b3          	or	a3,a3,a1
   20188:	00000813          	addi	a6,zero,0
   2018c:	f89ff06f          	jal	zero,20114 <__subdf3+0xfc>
   20190:	00c766b3          	or	a3,a4,a2
   20194:	00d036b3          	sltu	a3,zero,a3
   20198:	ff1ff06f          	jal	zero,20188 <__subdf3+0x170>
   2019c:	0c080263          	beq	a6,zero,20260 <__subdf3+0x248>
   201a0:	409886b3          	sub	a3,a7,s1
   201a4:	02049263          	bne	s1,zero,201c8 <__subdf3+0x1b0>
   201a8:	00a7e833          	or	a6,a5,a0
   201ac:	00080863          	beq	a6,zero,201bc <__subdf3+0x1a4>
   201b0:	fff68813          	addi	a6,a3,-1 # 7fffff <__BSS_END__+0x6ebc67>
   201b4:	ee080ee3          	beq	a6,zero,200b0 <__subdf3+0x98>
   201b8:	02b69063          	bne	a3,a1,201d8 <__subdf3+0x1c0>
   201bc:	00070793          	addi	a5,a4,0
   201c0:	00068493          	addi	s1,a3,0
   201c4:	0e40006f          	jal	zero,202a8 <__subdf3+0x290>
   201c8:	58b88663          	beq	a7,a1,20754 <__subdf3+0x73c>
   201cc:	008005b7          	lui	a1,0x800
   201d0:	00b7e7b3          	or	a5,a5,a1
   201d4:	00068813          	addi	a6,a3,0
   201d8:	03800693          	addi	a3,zero,56
   201dc:	0706cc63          	blt	a3,a6,20254 <__subdf3+0x23c>
   201e0:	01f00693          	addi	a3,zero,31
   201e4:	02000313          	addi	t1,zero,32
   201e8:	0306ce63          	blt	a3,a6,20224 <__subdf3+0x20c>
   201ec:	41030333          	sub	t1,t1,a6
   201f0:	006796b3          	sll	a3,a5,t1
   201f4:	010555b3          	srl	a1,a0,a6
   201f8:	00651333          	sll	t1,a0,t1
   201fc:	00b6e6b3          	or	a3,a3,a1
   20200:	00603333          	sltu	t1,zero,t1
   20204:	0066e6b3          	or	a3,a3,t1
   20208:	0107d833          	srl	a6,a5,a6
   2020c:	00c68633          	add	a2,a3,a2
   20210:	00e80833          	add	a6,a6,a4
   20214:	00d636b3          	sltu	a3,a2,a3
   20218:	00d807b3          	add	a5,a6,a3
   2021c:	00088493          	addi	s1,a7,0 # 10000 <exit-0xb4>
   20220:	f05ff06f          	jal	zero,20124 <__subdf3+0x10c>
   20224:	fe080693          	addi	a3,a6,-32
   20228:	00d7d6b3          	srl	a3,a5,a3
   2022c:	00000593          	addi	a1,zero,0
   20230:	00680863          	beq	a6,t1,20240 <__subdf3+0x228>
   20234:	04000593          	addi	a1,zero,64
   20238:	410585b3          	sub	a1,a1,a6
   2023c:	00b795b3          	sll	a1,a5,a1
   20240:	00a5e5b3          	or	a1,a1,a0
   20244:	00b035b3          	sltu	a1,zero,a1
   20248:	00b6e6b3          	or	a3,a3,a1
   2024c:	00000813          	addi	a6,zero,0
   20250:	fbdff06f          	jal	zero,2020c <__subdf3+0x1f4>
   20254:	00a7e6b3          	or	a3,a5,a0
   20258:	00d036b3          	sltu	a3,zero,a3
   2025c:	ff1ff06f          	jal	zero,2024c <__subdf3+0x234>
   20260:	00148693          	addi	a3,s1,1
   20264:	7fe6f813          	andi	a6,a3,2046
   20268:	0c081263          	bne	a6,zero,2032c <__subdf3+0x314>
   2026c:	00a7e6b3          	or	a3,a5,a0
   20270:	0a049463          	bne	s1,zero,20318 <__subdf3+0x300>
   20274:	4a068863          	beq	a3,zero,20724 <__subdf3+0x70c>
   20278:	00c766b3          	or	a3,a4,a2
   2027c:	4a068863          	beq	a3,zero,2072c <__subdf3+0x714>
   20280:	00c50633          	add	a2,a0,a2
   20284:	00e787b3          	add	a5,a5,a4
   20288:	00a63533          	sltu	a0,a2,a0
   2028c:	00a787b3          	add	a5,a5,a0
   20290:	00879713          	slli	a4,a5,0x8
   20294:	32075a63          	bge	a4,zero,205c8 <__subdf3+0x5b0>
   20298:	ff800737          	lui	a4,0xff800
   2029c:	fff70713          	addi	a4,a4,-1 # ff7fffff <__BSS_END__+0xff6ebc67>
   202a0:	00e7f7b3          	and	a5,a5,a4
   202a4:	00100493          	addi	s1,zero,1
   202a8:	01d79693          	slli	a3,a5,0x1d
   202ac:	00365613          	srli	a2,a2,0x3
   202b0:	7ff00713          	addi	a4,zero,2047
   202b4:	00c6e6b3          	or	a3,a3,a2
   202b8:	0037d793          	srli	a5,a5,0x3
   202bc:	00e49e63          	bne	s1,a4,202d8 <__subdf3+0x2c0>
   202c0:	00f6e6b3          	or	a3,a3,a5
   202c4:	00000793          	addi	a5,zero,0
   202c8:	00068863          	beq	a3,zero,202d8 <__subdf3+0x2c0>
   202cc:	000807b7          	lui	a5,0x80
   202d0:	00000693          	addi	a3,zero,0
   202d4:	00000913          	addi	s2,zero,0
   202d8:	7ff4f713          	andi	a4,s1,2047
   202dc:	00c79793          	slli	a5,a5,0xc
   202e0:	01c12083          	lw	ra,28(sp)
   202e4:	01812403          	lw	s0,24(sp)
   202e8:	00c7d793          	srli	a5,a5,0xc
   202ec:	01471713          	slli	a4,a4,0x14
   202f0:	01f91593          	slli	a1,s2,0x1f
   202f4:	00f76733          	or	a4,a4,a5
   202f8:	00b767b3          	or	a5,a4,a1
   202fc:	01412483          	lw	s1,20(sp)
   20300:	01012903          	lw	s2,16(sp)
   20304:	00c12983          	lw	s3,12(sp)
   20308:	00068513          	addi	a0,a3,0
   2030c:	00078593          	addi	a1,a5,0 # 80000 <__global_pointer$+0xf148>
   20310:	02010113          	addi	sp,sp,32
   20314:	00008067          	jalr	zero,0(ra)
   20318:	40068e63          	beq	a3,zero,20734 <__subdf3+0x71c>
   2031c:	00c76733          	or	a4,a4,a2
   20320:	2c071c63          	bne	a4,zero,205f8 <__subdf3+0x5e0>
   20324:	00050613          	addi	a2,a0,0
   20328:	4100006f          	jal	zero,20738 <__subdf3+0x720>
   2032c:	40b68a63          	beq	a3,a1,20740 <__subdf3+0x728>
   20330:	00c50633          	add	a2,a0,a2
   20334:	00e787b3          	add	a5,a5,a4
   20338:	00a63533          	sltu	a0,a2,a0
   2033c:	00a787b3          	add	a5,a5,a0
   20340:	01f79713          	slli	a4,a5,0x1f
   20344:	00165613          	srli	a2,a2,0x1
   20348:	00c76633          	or	a2,a4,a2
   2034c:	0017d793          	srli	a5,a5,0x1
   20350:	00068493          	addi	s1,a3,0
   20354:	00767713          	andi	a4,a2,7
   20358:	02070063          	beq	a4,zero,20378 <__subdf3+0x360>
   2035c:	00f67713          	andi	a4,a2,15
   20360:	00400693          	addi	a3,zero,4
   20364:	00d70a63          	beq	a4,a3,20378 <__subdf3+0x360>
   20368:	00d60733          	add	a4,a2,a3
   2036c:	00c736b3          	sltu	a3,a4,a2
   20370:	00d787b3          	add	a5,a5,a3
   20374:	00070613          	addi	a2,a4,0
   20378:	00879713          	slli	a4,a5,0x8
   2037c:	f20756e3          	bge	a4,zero,202a8 <__subdf3+0x290>
   20380:	00148493          	addi	s1,s1,1
   20384:	7ff00713          	addi	a4,zero,2047
   20388:	3ae48e63          	beq	s1,a4,20744 <__subdf3+0x72c>
   2038c:	ff800737          	lui	a4,0xff800
   20390:	fff70713          	addi	a4,a4,-1 # ff7fffff <__BSS_END__+0xff6ebc67>
   20394:	00e7f7b3          	and	a5,a5,a4
   20398:	f11ff06f          	jal	zero,202a8 <__subdf3+0x290>
   2039c:	0f005063          	bge	zero,a6,2047c <__subdf3+0x464>
   203a0:	08089863          	bne	a7,zero,20430 <__subdf3+0x418>
   203a4:	00c766b3          	or	a3,a4,a2
   203a8:	d20682e3          	beq	a3,zero,200cc <__subdf3+0xb4>
   203ac:	fff48813          	addi	a6,s1,-1
   203b0:	00081e63          	bne	a6,zero,203cc <__subdf3+0x3b4>
   203b4:	40c50633          	sub	a2,a0,a2
   203b8:	40e787b3          	sub	a5,a5,a4
   203bc:	00c53533          	sltu	a0,a0,a2
   203c0:	40a787b3          	sub	a5,a5,a0
   203c4:	00100493          	addi	s1,zero,1
   203c8:	04c0006f          	jal	zero,20414 <__subdf3+0x3fc>
   203cc:	d0b480e3          	beq	s1,a1,200cc <__subdf3+0xb4>
   203d0:	03800693          	addi	a3,zero,56
   203d4:	0906ce63          	blt	a3,a6,20470 <__subdf3+0x458>
   203d8:	01f00693          	addi	a3,zero,31
   203dc:	02000893          	addi	a7,zero,32
   203e0:	0706c063          	blt	a3,a6,20440 <__subdf3+0x428>
   203e4:	410888b3          	sub	a7,a7,a6
   203e8:	011716b3          	sll	a3,a4,a7
   203ec:	010655b3          	srl	a1,a2,a6
   203f0:	011618b3          	sll	a7,a2,a7
   203f4:	00b6e6b3          	or	a3,a3,a1
   203f8:	011038b3          	sltu	a7,zero,a7
   203fc:	0116e6b3          	or	a3,a3,a7
   20400:	01075833          	srl	a6,a4,a6
   20404:	40d50633          	sub	a2,a0,a3
   20408:	41078833          	sub	a6,a5,a6
   2040c:	00c53533          	sltu	a0,a0,a2
   20410:	40a807b3          	sub	a5,a6,a0
   20414:	00879713          	slli	a4,a5,0x8
   20418:	f2075ee3          	bge	a4,zero,20354 <__subdf3+0x33c>
   2041c:	00800437          	lui	s0,0x800
   20420:	fff40413          	addi	s0,s0,-1 # 7fffff <__BSS_END__+0x6ebc67>
   20424:	0087f433          	and	s0,a5,s0
   20428:	00060993          	addi	s3,a2,0
   2042c:	2140006f          	jal	zero,20640 <__subdf3+0x628>
   20430:	c8b48ee3          	beq	s1,a1,200cc <__subdf3+0xb4>
   20434:	008006b7          	lui	a3,0x800
   20438:	00d76733          	or	a4,a4,a3
   2043c:	f95ff06f          	jal	zero,203d0 <__subdf3+0x3b8>
   20440:	fe080693          	addi	a3,a6,-32
   20444:	00d756b3          	srl	a3,a4,a3
   20448:	00000593          	addi	a1,zero,0
   2044c:	01180863          	beq	a6,a7,2045c <__subdf3+0x444>
   20450:	04000593          	addi	a1,zero,64
   20454:	410585b3          	sub	a1,a1,a6
   20458:	00b715b3          	sll	a1,a4,a1
   2045c:	00c5e5b3          	or	a1,a1,a2
   20460:	00b035b3          	sltu	a1,zero,a1
   20464:	00b6e6b3          	or	a3,a3,a1
   20468:	00000813          	addi	a6,zero,0
   2046c:	f99ff06f          	jal	zero,20404 <__subdf3+0x3ec>
   20470:	00c766b3          	or	a3,a4,a2
   20474:	00d036b3          	sltu	a3,zero,a3
   20478:	ff1ff06f          	jal	zero,20468 <__subdf3+0x450>
   2047c:	0e080663          	beq	a6,zero,20568 <__subdf3+0x550>
   20480:	40988333          	sub	t1,a7,s1
   20484:	04049263          	bne	s1,zero,204c8 <__subdf3+0x4b0>
   20488:	00a7e833          	or	a6,a5,a0
   2048c:	02080663          	beq	a6,zero,204b8 <__subdf3+0x4a0>
   20490:	fff30813          	addi	a6,t1,-1
   20494:	02081063          	bne	a6,zero,204b4 <__subdf3+0x49c>
   20498:	40a60533          	sub	a0,a2,a0
   2049c:	00a635b3          	sltu	a1,a2,a0
   204a0:	40f707b3          	sub	a5,a4,a5
   204a4:	00050613          	addi	a2,a0,0
   204a8:	40b787b3          	sub	a5,a5,a1
   204ac:	00068913          	addi	s2,a3,0 # 800000 <__BSS_END__+0x6ebc68>
   204b0:	f15ff06f          	jal	zero,203c4 <__subdf3+0x3ac>
   204b4:	02b31263          	bne	t1,a1,204d8 <__subdf3+0x4c0>
   204b8:	00068913          	addi	s2,a3,0
   204bc:	00070793          	addi	a5,a4,0
   204c0:	00030493          	addi	s1,t1,0
   204c4:	de5ff06f          	jal	zero,202a8 <__subdf3+0x290>
   204c8:	28b88463          	beq	a7,a1,20750 <__subdf3+0x738>
   204cc:	008005b7          	lui	a1,0x800
   204d0:	00b7e7b3          	or	a5,a5,a1
   204d4:	00030813          	addi	a6,t1,0
   204d8:	03800593          	addi	a1,zero,56
   204dc:	0905c063          	blt	a1,a6,2055c <__subdf3+0x544>
   204e0:	01f00593          	addi	a1,zero,31
   204e4:	02000e13          	addi	t3,zero,32
   204e8:	0505c263          	blt	a1,a6,2052c <__subdf3+0x514>
   204ec:	410e0e33          	sub	t3,t3,a6
   204f0:	01c795b3          	sll	a1,a5,t3
   204f4:	01055333          	srl	t1,a0,a6
   204f8:	01c51e33          	sll	t3,a0,t3
   204fc:	0065e5b3          	or	a1,a1,t1
   20500:	01c03e33          	sltu	t3,zero,t3
   20504:	01c5e5b3          	or	a1,a1,t3
   20508:	0107d833          	srl	a6,a5,a6
   2050c:	40b605b3          	sub	a1,a2,a1
   20510:	00b637b3          	sltu	a5,a2,a1
   20514:	41070833          	sub	a6,a4,a6
   20518:	00058613          	addi	a2,a1,0 # 800000 <__BSS_END__+0x6ebc68>
   2051c:	40f807b3          	sub	a5,a6,a5
   20520:	00088493          	addi	s1,a7,0
   20524:	00068913          	addi	s2,a3,0
   20528:	eedff06f          	jal	zero,20414 <__subdf3+0x3fc>
   2052c:	fe080593          	addi	a1,a6,-32
   20530:	00b7d5b3          	srl	a1,a5,a1
   20534:	00000313          	addi	t1,zero,0
   20538:	01c80863          	beq	a6,t3,20548 <__subdf3+0x530>
   2053c:	04000313          	addi	t1,zero,64
   20540:	41030333          	sub	t1,t1,a6
   20544:	00679333          	sll	t1,a5,t1
   20548:	00a36333          	or	t1,t1,a0
   2054c:	00603333          	sltu	t1,zero,t1
   20550:	0065e5b3          	or	a1,a1,t1
   20554:	00000813          	addi	a6,zero,0
   20558:	fb5ff06f          	jal	zero,2050c <__subdf3+0x4f4>
   2055c:	00a7e5b3          	or	a1,a5,a0
   20560:	00b035b3          	sltu	a1,zero,a1
   20564:	ff1ff06f          	jal	zero,20554 <__subdf3+0x53c>
   20568:	00148813          	addi	a6,s1,1
   2056c:	7fe87813          	andi	a6,a6,2046
   20570:	0a081063          	bne	a6,zero,20610 <__subdf3+0x5f8>
   20574:	00c76833          	or	a6,a4,a2
   20578:	00a7e8b3          	or	a7,a5,a0
   2057c:	06049863          	bne	s1,zero,205ec <__subdf3+0x5d4>
   20580:	00089a63          	bne	a7,zero,20594 <__subdf3+0x57c>
   20584:	00070793          	addi	a5,a4,0
   20588:	02081e63          	bne	a6,zero,205c4 <__subdf3+0x5ac>
   2058c:	00000913          	addi	s2,zero,0
   20590:	1b40006f          	jal	zero,20744 <__subdf3+0x72c>
   20594:	18080c63          	beq	a6,zero,2072c <__subdf3+0x714>
   20598:	40c50833          	sub	a6,a0,a2
   2059c:	010538b3          	sltu	a7,a0,a6
   205a0:	40e785b3          	sub	a1,a5,a4
   205a4:	411585b3          	sub	a1,a1,a7
   205a8:	00859893          	slli	a7,a1,0x8
   205ac:	0208d663          	bge	a7,zero,205d8 <__subdf3+0x5c0>
   205b0:	40a60533          	sub	a0,a2,a0
   205b4:	00a635b3          	sltu	a1,a2,a0
   205b8:	40f707b3          	sub	a5,a4,a5
   205bc:	00050613          	addi	a2,a0,0
   205c0:	40b787b3          	sub	a5,a5,a1
   205c4:	00068913          	addi	s2,a3,0
   205c8:	00f66733          	or	a4,a2,a5
   205cc:	1a070063          	beq	a4,zero,2076c <__subdf3+0x754>
   205d0:	00000493          	addi	s1,zero,0
   205d4:	d81ff06f          	jal	zero,20354 <__subdf3+0x33c>
   205d8:	00b86633          	or	a2,a6,a1
   205dc:	18060263          	beq	a2,zero,20760 <__subdf3+0x748>
   205e0:	00058793          	addi	a5,a1,0
   205e4:	00080613          	addi	a2,a6,0
   205e8:	fe1ff06f          	jal	zero,205c8 <__subdf3+0x5b0>
   205ec:	00089e63          	bne	a7,zero,20608 <__subdf3+0x5f0>
   205f0:	00068913          	addi	s2,a3,0
   205f4:	14081063          	bne	a6,zero,20734 <__subdf3+0x71c>
   205f8:	00000913          	addi	s2,zero,0
   205fc:	004007b7          	lui	a5,0x400
   20600:	00000613          	addi	a2,zero,0
   20604:	1340006f          	jal	zero,20738 <__subdf3+0x720>
   20608:	d0080ee3          	beq	a6,zero,20324 <__subdf3+0x30c>
   2060c:	fedff06f          	jal	zero,205f8 <__subdf3+0x5e0>
   20610:	40c505b3          	sub	a1,a0,a2
   20614:	00b53833          	sltu	a6,a0,a1
   20618:	40e78433          	sub	s0,a5,a4
   2061c:	41040433          	sub	s0,s0,a6
   20620:	00841813          	slli	a6,s0,0x8
   20624:	00058993          	addi	s3,a1,0
   20628:	06085e63          	bge	a6,zero,206a4 <__subdf3+0x68c>
   2062c:	40a609b3          	sub	s3,a2,a0
   20630:	40f70433          	sub	s0,a4,a5
   20634:	01363633          	sltu	a2,a2,s3
   20638:	40c40433          	sub	s0,s0,a2
   2063c:	00068913          	addi	s2,a3,0
   20640:	06040e63          	beq	s0,zero,206bc <__subdf3+0x6a4>
   20644:	00040513          	addi	a0,s0,0
   20648:	4c1020ef          	jal	ra,23308 <__clzsi2>
   2064c:	ff850713          	addi	a4,a0,-8
   20650:	02000793          	addi	a5,zero,32
   20654:	40e787b3          	sub	a5,a5,a4
   20658:	00e41433          	sll	s0,s0,a4
   2065c:	00f9d7b3          	srl	a5,s3,a5
   20660:	0087e7b3          	or	a5,a5,s0
   20664:	00e99633          	sll	a2,s3,a4
   20668:	0a974463          	blt	a4,s1,20710 <__subdf3+0x6f8>
   2066c:	40970733          	sub	a4,a4,s1
   20670:	00170513          	addi	a0,a4,1
   20674:	01f00693          	addi	a3,zero,31
   20678:	02000593          	addi	a1,zero,32
   2067c:	06a6c263          	blt	a3,a0,206e0 <__subdf3+0x6c8>
   20680:	40a585b3          	sub	a1,a1,a0
   20684:	00b79733          	sll	a4,a5,a1
   20688:	00a656b3          	srl	a3,a2,a0
   2068c:	00b615b3          	sll	a1,a2,a1
   20690:	00d76733          	or	a4,a4,a3
   20694:	00b035b3          	sltu	a1,zero,a1
   20698:	00b76633          	or	a2,a4,a1
   2069c:	00a7d7b3          	srl	a5,a5,a0
   206a0:	f29ff06f          	jal	zero,205c8 <__subdf3+0x5b0>
   206a4:	0085e633          	or	a2,a1,s0
   206a8:	f8061ce3          	bne	a2,zero,20640 <__subdf3+0x628>
   206ac:	00000913          	addi	s2,zero,0
   206b0:	00000793          	addi	a5,zero,0
   206b4:	00000493          	addi	s1,zero,0
   206b8:	bf1ff06f          	jal	zero,202a8 <__subdf3+0x290>
   206bc:	00098513          	addi	a0,s3,0
   206c0:	449020ef          	jal	ra,23308 <__clzsi2>
   206c4:	01850713          	addi	a4,a0,24
   206c8:	01f00793          	addi	a5,zero,31
   206cc:	f8e7d2e3          	bge	a5,a4,20650 <__subdf3+0x638>
   206d0:	ff850793          	addi	a5,a0,-8
   206d4:	00f997b3          	sll	a5,s3,a5
   206d8:	00000613          	addi	a2,zero,0
   206dc:	f8dff06f          	jal	zero,20668 <__subdf3+0x650>
   206e0:	fe170713          	addi	a4,a4,-31
   206e4:	00e7d733          	srl	a4,a5,a4
   206e8:	00000693          	addi	a3,zero,0
   206ec:	00b50863          	beq	a0,a1,206fc <__subdf3+0x6e4>
   206f0:	04000693          	addi	a3,zero,64
   206f4:	40a686b3          	sub	a3,a3,a0
   206f8:	00d796b3          	sll	a3,a5,a3
   206fc:	00d666b3          	or	a3,a2,a3
   20700:	00d036b3          	sltu	a3,zero,a3
   20704:	00d76633          	or	a2,a4,a3
   20708:	00000793          	addi	a5,zero,0
   2070c:	ebdff06f          	jal	zero,205c8 <__subdf3+0x5b0>
   20710:	40e484b3          	sub	s1,s1,a4
   20714:	ff800737          	lui	a4,0xff800
   20718:	fff70713          	addi	a4,a4,-1 # ff7fffff <__BSS_END__+0xff6ebc67>
   2071c:	00e7f7b3          	and	a5,a5,a4
   20720:	c35ff06f          	jal	zero,20354 <__subdf3+0x33c>
   20724:	00070793          	addi	a5,a4,0
   20728:	ea1ff06f          	jal	zero,205c8 <__subdf3+0x5b0>
   2072c:	00050613          	addi	a2,a0,0
   20730:	e99ff06f          	jal	zero,205c8 <__subdf3+0x5b0>
   20734:	00070793          	addi	a5,a4,0
   20738:	00058493          	addi	s1,a1,0
   2073c:	b6dff06f          	jal	zero,202a8 <__subdf3+0x290>
   20740:	00068493          	addi	s1,a3,0
   20744:	00000793          	addi	a5,zero,0
   20748:	00000613          	addi	a2,zero,0
   2074c:	b5dff06f          	jal	zero,202a8 <__subdf3+0x290>
   20750:	00068913          	addi	s2,a3,0
   20754:	00070793          	addi	a5,a4,0
   20758:	00088493          	addi	s1,a7,0
   2075c:	b4dff06f          	jal	zero,202a8 <__subdf3+0x290>
   20760:	00000913          	addi	s2,zero,0
   20764:	00000793          	addi	a5,zero,0
   20768:	b41ff06f          	jal	zero,202a8 <__subdf3+0x290>
   2076c:	00000793          	addi	a5,zero,0
   20770:	00000613          	addi	a2,zero,0
   20774:	f41ff06f          	jal	zero,206b4 <__subdf3+0x69c>

00020778 <__fixdfsi>:
   20778:	0145d713          	srli	a4,a1,0x14
   2077c:	001006b7          	lui	a3,0x100
   20780:	fff68793          	addi	a5,a3,-1 # fffff <cipher_buffer.1+0x41687>
   20784:	7ff77713          	andi	a4,a4,2047
   20788:	3fe00613          	addi	a2,zero,1022
   2078c:	00b7f7b3          	and	a5,a5,a1
   20790:	01f5d593          	srli	a1,a1,0x1f
   20794:	04e65c63          	bge	a2,a4,207ec <__fixdfsi+0x74>
   20798:	41d00613          	addi	a2,zero,1053
   2079c:	00e65a63          	bge	a2,a4,207b0 <__fixdfsi+0x38>
   207a0:	80000537          	lui	a0,0x80000
   207a4:	fff50513          	addi	a0,a0,-1 # 7fffffff <__BSS_END__+0x7feebc67>
   207a8:	00a58533          	add	a0,a1,a0
   207ac:	00008067          	jalr	zero,0(ra)
   207b0:	00d7e7b3          	or	a5,a5,a3
   207b4:	41300693          	addi	a3,zero,1043
   207b8:	02e6d463          	bge	a3,a4,207e0 <__fixdfsi+0x68>
   207bc:	bed70693          	addi	a3,a4,-1043
   207c0:	00d797b3          	sll	a5,a5,a3
   207c4:	43300693          	addi	a3,zero,1075
   207c8:	40e68733          	sub	a4,a3,a4
   207cc:	00e55533          	srl	a0,a0,a4
   207d0:	00a7e533          	or	a0,a5,a0
   207d4:	00058e63          	beq	a1,zero,207f0 <__fixdfsi+0x78>
   207d8:	40a00533          	sub	a0,zero,a0
   207dc:	00008067          	jalr	zero,0(ra)
   207e0:	40e686b3          	sub	a3,a3,a4
   207e4:	00d7d533          	srl	a0,a5,a3
   207e8:	fedff06f          	jal	zero,207d4 <__fixdfsi+0x5c>
   207ec:	00000513          	addi	a0,zero,0
   207f0:	00008067          	jalr	zero,0(ra)

000207f4 <__floatsidf>:
   207f4:	ff010113          	addi	sp,sp,-16
   207f8:	00112623          	sw	ra,12(sp)
   207fc:	00812423          	sw	s0,8(sp)
   20800:	00912223          	sw	s1,4(sp)
   20804:	00050793          	addi	a5,a0,0
   20808:	08050063          	beq	a0,zero,20888 <__floatsidf+0x94>
   2080c:	41f55713          	srai	a4,a0,0x1f
   20810:	00a74433          	xor	s0,a4,a0
   20814:	40e40433          	sub	s0,s0,a4
   20818:	01f55493          	srli	s1,a0,0x1f
   2081c:	00040513          	addi	a0,s0,0
   20820:	2e9020ef          	jal	ra,23308 <__clzsi2>
   20824:	41e00793          	addi	a5,zero,1054
   20828:	00a00713          	addi	a4,zero,10
   2082c:	40a787b3          	sub	a5,a5,a0
   20830:	04a74463          	blt	a4,a0,20878 <__floatsidf+0x84>
   20834:	00b00713          	addi	a4,zero,11
   20838:	40a70733          	sub	a4,a4,a0
   2083c:	01550513          	addi	a0,a0,21
   20840:	00e45733          	srl	a4,s0,a4
   20844:	00a41433          	sll	s0,s0,a0
   20848:	00c12083          	lw	ra,12(sp)
   2084c:	00040513          	addi	a0,s0,0
   20850:	00c71713          	slli	a4,a4,0xc
   20854:	00812403          	lw	s0,8(sp)
   20858:	01479793          	slli	a5,a5,0x14
   2085c:	00c75713          	srli	a4,a4,0xc
   20860:	01f49493          	slli	s1,s1,0x1f
   20864:	00e7e7b3          	or	a5,a5,a4
   20868:	0097e5b3          	or	a1,a5,s1
   2086c:	00412483          	lw	s1,4(sp)
   20870:	01010113          	addi	sp,sp,16
   20874:	00008067          	jalr	zero,0(ra)
   20878:	ff550513          	addi	a0,a0,-11
   2087c:	00a41733          	sll	a4,s0,a0
   20880:	00000413          	addi	s0,zero,0
   20884:	fc5ff06f          	jal	zero,20848 <__floatsidf+0x54>
   20888:	00000493          	addi	s1,zero,0
   2088c:	00000713          	addi	a4,zero,0
   20890:	ff1ff06f          	jal	zero,20880 <__floatsidf+0x8c>

00020894 <__eqtf2>:
   20894:	00c52883          	lw	a7,12(a0)
   20898:	00c5a303          	lw	t1,12(a1)
   2089c:	0005a683          	lw	a3,0(a1)
   208a0:	0045a603          	lw	a2,4(a1)
   208a4:	0085a703          	lw	a4,8(a1)
   208a8:	000085b7          	lui	a1,0x8
   208ac:	0108d813          	srli	a6,a7,0x10
   208b0:	fff58593          	addi	a1,a1,-1 # 7fff <exit-0x80b5>
   208b4:	01089e13          	slli	t3,a7,0x10
   208b8:	01031293          	slli	t0,t1,0x10
   208bc:	01035793          	srli	a5,t1,0x10
   208c0:	00b87833          	and	a6,a6,a1
   208c4:	00052e83          	lw	t4,0(a0)
   208c8:	00452f83          	lw	t6,4(a0)
   208cc:	00852f03          	lw	t5,8(a0)
   208d0:	ff010113          	addi	sp,sp,-16
   208d4:	010e5e13          	srli	t3,t3,0x10
   208d8:	01f8d893          	srli	a7,a7,0x1f
   208dc:	0102d293          	srli	t0,t0,0x10
   208e0:	00b7f7b3          	and	a5,a5,a1
   208e4:	01f35313          	srli	t1,t1,0x1f
   208e8:	02b81063          	bne	a6,a1,20908 <__eqtf2+0x74>
   208ec:	01dfe5b3          	or	a1,t6,t4
   208f0:	01e5e5b3          	or	a1,a1,t5
   208f4:	01c5e5b3          	or	a1,a1,t3
   208f8:	00100513          	addi	a0,zero,1
   208fc:	06059c63          	bne	a1,zero,20974 <__eqtf2+0xe0>
   20900:	07079a63          	bne	a5,a6,20974 <__eqtf2+0xe0>
   20904:	0080006f          	jal	zero,2090c <__eqtf2+0x78>
   20908:	00b79c63          	bne	a5,a1,20920 <__eqtf2+0x8c>
   2090c:	00c6e5b3          	or	a1,a3,a2
   20910:	00e5e5b3          	or	a1,a1,a4
   20914:	0055e5b3          	or	a1,a1,t0
   20918:	00100513          	addi	a0,zero,1
   2091c:	04059c63          	bne	a1,zero,20974 <__eqtf2+0xe0>
   20920:	41d686b3          	sub	a3,a3,t4
   20924:	40cf8633          	sub	a2,t6,a2
   20928:	00d036b3          	sltu	a3,zero,a3
   2092c:	00c03633          	sltu	a2,zero,a2
   20930:	410787b3          	sub	a5,a5,a6
   20934:	00c6e6b3          	or	a3,a3,a2
   20938:	00f037b3          	sltu	a5,zero,a5
   2093c:	40ef0733          	sub	a4,t5,a4
   20940:	00d7e7b3          	or	a5,a5,a3
   20944:	00e03733          	sltu	a4,zero,a4
   20948:	00f76733          	or	a4,a4,a5
   2094c:	02071863          	bne	a4,zero,2097c <__eqtf2+0xe8>
   20950:	025e1663          	bne	t3,t0,2097c <__eqtf2+0xe8>
   20954:	00000513          	addi	a0,zero,0
   20958:	00688e63          	beq	a7,t1,20974 <__eqtf2+0xe0>
   2095c:	00100513          	addi	a0,zero,1
   20960:	00081a63          	bne	a6,zero,20974 <__eqtf2+0xe0>
   20964:	01dfe533          	or	a0,t6,t4
   20968:	01e56533          	or	a0,a0,t5
   2096c:	01c56533          	or	a0,a0,t3
   20970:	00a03533          	sltu	a0,zero,a0
   20974:	01010113          	addi	sp,sp,16
   20978:	00008067          	jalr	zero,0(ra)
   2097c:	00100513          	addi	a0,zero,1
   20980:	ff5ff06f          	jal	zero,20974 <__eqtf2+0xe0>

00020984 <__getf2>:
   20984:	00c52783          	lw	a5,12(a0)
   20988:	00c5a683          	lw	a3,12(a1)
   2098c:	00008737          	lui	a4,0x8
   20990:	fff70713          	addi	a4,a4,-1 # 7fff <exit-0x80b5>
   20994:	0005a283          	lw	t0,0(a1)
   20998:	0045a303          	lw	t1,4(a1)
   2099c:	0085a383          	lw	t2,8(a1)
   209a0:	0107d593          	srli	a1,a5,0x10
   209a4:	01079e13          	slli	t3,a5,0x10
   209a8:	0106d613          	srli	a2,a3,0x10
   209ac:	00e5f5b3          	and	a1,a1,a4
   209b0:	00052f03          	lw	t5,0(a0)
   209b4:	00452883          	lw	a7,4(a0)
   209b8:	00852f83          	lw	t6,8(a0)
   209bc:	ff010113          	addi	sp,sp,-16
   209c0:	010e5e13          	srli	t3,t3,0x10
   209c4:	01f7d793          	srli	a5,a5,0x1f
   209c8:	00e67633          	and	a2,a2,a4
   209cc:	01f6de93          	srli	t4,a3,0x1f
   209d0:	00e59c63          	bne	a1,a4,209e8 <__getf2+0x64>
   209d4:	01e8e733          	or	a4,a7,t5
   209d8:	01f76733          	or	a4,a4,t6
   209dc:	01c76733          	or	a4,a4,t3
   209e0:	ffe00513          	addi	a0,zero,-2
   209e4:	06071a63          	bne	a4,zero,20a58 <__getf2+0xd4>
   209e8:	00008737          	lui	a4,0x8
   209ec:	01069693          	slli	a3,a3,0x10
   209f0:	fff70713          	addi	a4,a4,-1 # 7fff <exit-0x80b5>
   209f4:	0106d693          	srli	a3,a3,0x10
   209f8:	00060513          	addi	a0,a2,0
   209fc:	00e61a63          	bne	a2,a4,20a10 <__getf2+0x8c>
   20a00:	00536733          	or	a4,t1,t0
   20a04:	00776733          	or	a4,a4,t2
   20a08:	00d76733          	or	a4,a4,a3
   20a0c:	04071a63          	bne	a4,zero,20a60 <__getf2+0xdc>
   20a10:	00000713          	addi	a4,zero,0
   20a14:	00059a63          	bne	a1,zero,20a28 <__getf2+0xa4>
   20a18:	01e8e733          	or	a4,a7,t5
   20a1c:	01f76733          	or	a4,a4,t6
   20a20:	01c76733          	or	a4,a4,t3
   20a24:	00173713          	sltiu	a4,a4,1
   20a28:	04061463          	bne	a2,zero,20a70 <__getf2+0xec>
   20a2c:	00536833          	or	a6,t1,t0
   20a30:	00786833          	or	a6,a6,t2
   20a34:	00d86833          	or	a6,a6,a3
   20a38:	00070a63          	beq	a4,zero,20a4c <__getf2+0xc8>
   20a3c:	00080e63          	beq	a6,zero,20a58 <__getf2+0xd4>
   20a40:	001e9513          	slli	a0,t4,0x1
   20a44:	fff50513          	addi	a0,a0,-1
   20a48:	0100006f          	jal	zero,20a58 <__getf2+0xd4>
   20a4c:	02081463          	bne	a6,zero,20a74 <__getf2+0xf0>
   20a50:	40f00533          	sub	a0,zero,a5
   20a54:	00156513          	ori	a0,a0,1
   20a58:	01010113          	addi	sp,sp,16
   20a5c:	00008067          	jalr	zero,0(ra)
   20a60:	ffe00513          	addi	a0,zero,-2
   20a64:	ff5ff06f          	jal	zero,20a58 <__getf2+0xd4>
   20a68:	00000513          	addi	a0,zero,0
   20a6c:	fedff06f          	jal	zero,20a58 <__getf2+0xd4>
   20a70:	fc0718e3          	bne	a4,zero,20a40 <__getf2+0xbc>
   20a74:	fcfe9ee3          	bne	t4,a5,20a50 <__getf2+0xcc>
   20a78:	41d00533          	sub	a0,zero,t4
   20a7c:	fcb64ce3          	blt	a2,a1,20a54 <__getf2+0xd0>
   20a80:	fcc5c0e3          	blt	a1,a2,20a40 <__getf2+0xbc>
   20a84:	fdc6e6e3          	bltu	a3,t3,20a50 <__getf2+0xcc>
   20a88:	02de1463          	bne	t3,a3,20ab0 <__getf2+0x12c>
   20a8c:	fdf3e2e3          	bltu	t2,t6,20a50 <__getf2+0xcc>
   20a90:	03f39063          	bne	t2,t6,20ab0 <__getf2+0x12c>
   20a94:	fb136ee3          	bltu	t1,a7,20a50 <__getf2+0xcc>
   20a98:	41130733          	sub	a4,t1,a7
   20a9c:	01e2f463          	bgeu	t0,t5,20aa4 <__getf2+0x120>
   20aa0:	fa0708e3          	beq	a4,zero,20a50 <__getf2+0xcc>
   20aa4:	0068e663          	bltu	a7,t1,20ab0 <__getf2+0x12c>
   20aa8:	fc5f70e3          	bgeu	t5,t0,20a68 <__getf2+0xe4>
   20aac:	fa071ee3          	bne	a4,zero,20a68 <__getf2+0xe4>
   20ab0:	00179513          	slli	a0,a5,0x1
   20ab4:	f91ff06f          	jal	zero,20a44 <__getf2+0xc0>

00020ab8 <__letf2>:
   20ab8:	00c52783          	lw	a5,12(a0)
   20abc:	00c5a683          	lw	a3,12(a1)
   20ac0:	00008737          	lui	a4,0x8
   20ac4:	fff70713          	addi	a4,a4,-1 # 7fff <exit-0x80b5>
   20ac8:	0005a283          	lw	t0,0(a1)
   20acc:	0045a303          	lw	t1,4(a1)
   20ad0:	0085a383          	lw	t2,8(a1)
   20ad4:	0107d593          	srli	a1,a5,0x10
   20ad8:	01079e13          	slli	t3,a5,0x10
   20adc:	0106d613          	srli	a2,a3,0x10
   20ae0:	00e5f5b3          	and	a1,a1,a4
   20ae4:	00052f03          	lw	t5,0(a0)
   20ae8:	00452883          	lw	a7,4(a0)
   20aec:	00852f83          	lw	t6,8(a0)
   20af0:	ff010113          	addi	sp,sp,-16
   20af4:	010e5e13          	srli	t3,t3,0x10
   20af8:	01f7d793          	srli	a5,a5,0x1f
   20afc:	00e67633          	and	a2,a2,a4
   20b00:	01f6de93          	srli	t4,a3,0x1f
   20b04:	00e59c63          	bne	a1,a4,20b1c <__letf2+0x64>
   20b08:	01e8e733          	or	a4,a7,t5
   20b0c:	01f76733          	or	a4,a4,t6
   20b10:	01c76733          	or	a4,a4,t3
   20b14:	00200513          	addi	a0,zero,2
   20b18:	06071a63          	bne	a4,zero,20b8c <__letf2+0xd4>
   20b1c:	00008737          	lui	a4,0x8
   20b20:	01069693          	slli	a3,a3,0x10
   20b24:	fff70713          	addi	a4,a4,-1 # 7fff <exit-0x80b5>
   20b28:	0106d693          	srli	a3,a3,0x10
   20b2c:	00060513          	addi	a0,a2,0
   20b30:	00e61a63          	bne	a2,a4,20b44 <__letf2+0x8c>
   20b34:	00536733          	or	a4,t1,t0
   20b38:	00776733          	or	a4,a4,t2
   20b3c:	00d76733          	or	a4,a4,a3
   20b40:	04071a63          	bne	a4,zero,20b94 <__letf2+0xdc>
   20b44:	00000713          	addi	a4,zero,0
   20b48:	00059a63          	bne	a1,zero,20b5c <__letf2+0xa4>
   20b4c:	01e8e733          	or	a4,a7,t5
   20b50:	01f76733          	or	a4,a4,t6
   20b54:	01c76733          	or	a4,a4,t3
   20b58:	00173713          	sltiu	a4,a4,1
   20b5c:	04061463          	bne	a2,zero,20ba4 <__letf2+0xec>
   20b60:	00536833          	or	a6,t1,t0
   20b64:	00786833          	or	a6,a6,t2
   20b68:	00d86833          	or	a6,a6,a3
   20b6c:	00070a63          	beq	a4,zero,20b80 <__letf2+0xc8>
   20b70:	00080e63          	beq	a6,zero,20b8c <__letf2+0xd4>
   20b74:	001e9513          	slli	a0,t4,0x1
   20b78:	fff50513          	addi	a0,a0,-1
   20b7c:	0100006f          	jal	zero,20b8c <__letf2+0xd4>
   20b80:	02081463          	bne	a6,zero,20ba8 <__letf2+0xf0>
   20b84:	40f00533          	sub	a0,zero,a5
   20b88:	00156513          	ori	a0,a0,1
   20b8c:	01010113          	addi	sp,sp,16
   20b90:	00008067          	jalr	zero,0(ra)
   20b94:	00200513          	addi	a0,zero,2
   20b98:	ff5ff06f          	jal	zero,20b8c <__letf2+0xd4>
   20b9c:	00000513          	addi	a0,zero,0
   20ba0:	fedff06f          	jal	zero,20b8c <__letf2+0xd4>
   20ba4:	fc0718e3          	bne	a4,zero,20b74 <__letf2+0xbc>
   20ba8:	fcfe9ee3          	bne	t4,a5,20b84 <__letf2+0xcc>
   20bac:	41d00533          	sub	a0,zero,t4
   20bb0:	fcb64ce3          	blt	a2,a1,20b88 <__letf2+0xd0>
   20bb4:	fcc5c0e3          	blt	a1,a2,20b74 <__letf2+0xbc>
   20bb8:	fdc6e6e3          	bltu	a3,t3,20b84 <__letf2+0xcc>
   20bbc:	02de1463          	bne	t3,a3,20be4 <__letf2+0x12c>
   20bc0:	fdf3e2e3          	bltu	t2,t6,20b84 <__letf2+0xcc>
   20bc4:	03f39063          	bne	t2,t6,20be4 <__letf2+0x12c>
   20bc8:	fb136ee3          	bltu	t1,a7,20b84 <__letf2+0xcc>
   20bcc:	41130733          	sub	a4,t1,a7
   20bd0:	01e2f463          	bgeu	t0,t5,20bd8 <__letf2+0x120>
   20bd4:	fa0708e3          	beq	a4,zero,20b84 <__letf2+0xcc>
   20bd8:	0068e663          	bltu	a7,t1,20be4 <__letf2+0x12c>
   20bdc:	fc5f70e3          	bgeu	t5,t0,20b9c <__letf2+0xe4>
   20be0:	fa071ee3          	bne	a4,zero,20b9c <__letf2+0xe4>
   20be4:	00179513          	slli	a0,a5,0x1
   20be8:	f91ff06f          	jal	zero,20b78 <__letf2+0xc0>

00020bec <__multf3>:
   20bec:	f5010113          	addi	sp,sp,-176
   20bf0:	09412c23          	sw	s4,152(sp)
   20bf4:	00c5aa03          	lw	s4,12(a1)
   20bf8:	0045a783          	lw	a5,4(a1)
   20bfc:	0085a683          	lw	a3,8(a1)
   20c00:	00a12423          	sw	a0,8(sp)
   20c04:	0005a503          	lw	a0,0(a1)
   20c08:	0b212023          	sw	s2,160(sp)
   20c0c:	09512a23          	sw	s5,148(sp)
   20c10:	00c62903          	lw	s2,12(a2)
   20c14:	00462a83          	lw	s5,4(a2)
   20c18:	09612823          	sw	s6,144(sp)
   20c1c:	09712623          	sw	s7,140(sp)
   20c20:	00062b03          	lw	s6,0(a2)
   20c24:	00862b83          	lw	s7,8(a2)
   20c28:	010a1713          	slli	a4,s4,0x10
   20c2c:	00008637          	lui	a2,0x8
   20c30:	0a912223          	sw	s1,164(sp)
   20c34:	01075713          	srli	a4,a4,0x10
   20c38:	010a5493          	srli	s1,s4,0x10
   20c3c:	fff60613          	addi	a2,a2,-1 # 7fff <exit-0x80b5>
   20c40:	0a812423          	sw	s0,168(sp)
   20c44:	0a112623          	sw	ra,172(sp)
   20c48:	09312e23          	sw	s3,156(sp)
   20c4c:	09812423          	sw	s8,136(sp)
   20c50:	09912223          	sw	s9,132(sp)
   20c54:	09a12023          	sw	s10,128(sp)
   20c58:	07b12e23          	sw	s11,124(sp)
   20c5c:	04a12823          	sw	a0,80(sp)
   20c60:	04f12a23          	sw	a5,84(sp)
   20c64:	04d12c23          	sw	a3,88(sp)
   20c68:	05412e23          	sw	s4,92(sp)
   20c6c:	02a12023          	sw	a0,32(sp)
   20c70:	02f12223          	sw	a5,36(sp)
   20c74:	02d12423          	sw	a3,40(sp)
   20c78:	02e12623          	sw	a4,44(sp)
   20c7c:	00c4f4b3          	and	s1,s1,a2
   20c80:	01fa5413          	srli	s0,s4,0x1f
   20c84:	16048ee3          	beq	s1,zero,21600 <__multf3+0xa14>
   20c88:	28c484e3          	beq	s1,a2,21710 <__multf3+0xb24>
   20c8c:	000107b7          	lui	a5,0x10
   20c90:	00f76733          	or	a4,a4,a5
   20c94:	02e12623          	sw	a4,44(sp)
   20c98:	02010613          	addi	a2,sp,32
   20c9c:	02c10793          	addi	a5,sp,44
   20ca0:	0007a703          	lw	a4,0(a5) # 10000 <exit-0xb4>
   20ca4:	ffc7a683          	lw	a3,-4(a5)
   20ca8:	ffc78793          	addi	a5,a5,-4
   20cac:	00371713          	slli	a4,a4,0x3
   20cb0:	01d6d693          	srli	a3,a3,0x1d
   20cb4:	00d76733          	or	a4,a4,a3
   20cb8:	00e7a223          	sw	a4,4(a5)
   20cbc:	fef612e3          	bne	a2,a5,20ca0 <__multf3+0xb4>
   20cc0:	ffffc7b7          	lui	a5,0xffffc
   20cc4:	00351513          	slli	a0,a0,0x3
   20cc8:	00178793          	addi	a5,a5,1 # ffffc001 <__BSS_END__+0xffee7c69>
   20ccc:	02a12023          	sw	a0,32(sp)
   20cd0:	00f484b3          	add	s1,s1,a5
   20cd4:	00000993          	addi	s3,zero,0
   20cd8:	01091513          	slli	a0,s2,0x10
   20cdc:	00008737          	lui	a4,0x8
   20ce0:	01095793          	srli	a5,s2,0x10
   20ce4:	01055513          	srli	a0,a0,0x10
   20ce8:	fff70713          	addi	a4,a4,-1 # 7fff <exit-0x80b5>
   20cec:	05212e23          	sw	s2,92(sp)
   20cf0:	05612823          	sw	s6,80(sp)
   20cf4:	05512a23          	sw	s5,84(sp)
   20cf8:	05712c23          	sw	s7,88(sp)
   20cfc:	03612823          	sw	s6,48(sp)
   20d00:	03512a23          	sw	s5,52(sp)
   20d04:	03712c23          	sw	s7,56(sp)
   20d08:	02a12e23          	sw	a0,60(sp)
   20d0c:	00e7f7b3          	and	a5,a5,a4
   20d10:	01f95913          	srli	s2,s2,0x1f
   20d14:	220782e3          	beq	a5,zero,21738 <__multf3+0xb4c>
   20d18:	32e78ae3          	beq	a5,a4,2184c <__multf3+0xc60>
   20d1c:	00010737          	lui	a4,0x10
   20d20:	00e56533          	or	a0,a0,a4
   20d24:	02a12e23          	sw	a0,60(sp)
   20d28:	03010593          	addi	a1,sp,48
   20d2c:	03c10713          	addi	a4,sp,60
   20d30:	00072683          	lw	a3,0(a4) # 10000 <exit-0xb4>
   20d34:	ffc72603          	lw	a2,-4(a4)
   20d38:	ffc70713          	addi	a4,a4,-4
   20d3c:	00369693          	slli	a3,a3,0x3
   20d40:	01d65613          	srli	a2,a2,0x1d
   20d44:	00c6e6b3          	or	a3,a3,a2
   20d48:	00d72223          	sw	a3,4(a4)
   20d4c:	fee592e3          	bne	a1,a4,20d30 <__multf3+0x144>
   20d50:	ffffc737          	lui	a4,0xffffc
   20d54:	003b1b13          	slli	s6,s6,0x3
   20d58:	00170713          	addi	a4,a4,1 # ffffc001 <__BSS_END__+0xffee7c69>
   20d5c:	03612823          	sw	s6,48(sp)
   20d60:	00e787b3          	add	a5,a5,a4
   20d64:	00000713          	addi	a4,zero,0
   20d68:	009787b3          	add	a5,a5,s1
   20d6c:	00f12823          	sw	a5,16(sp)
   20d70:	00178793          	addi	a5,a5,1
   20d74:	00f12623          	sw	a5,12(sp)
   20d78:	00299793          	slli	a5,s3,0x2
   20d7c:	00e7e7b3          	or	a5,a5,a4
   20d80:	00a00693          	addi	a3,zero,10
   20d84:	32f6c0e3          	blt	a3,a5,218a4 <__multf3+0xcb8>
   20d88:	00200613          	addi	a2,zero,2
   20d8c:	01244433          	xor	s0,s0,s2
   20d90:	00100693          	addi	a3,zero,1
   20d94:	2cf64ae3          	blt	a2,a5,21868 <__multf3+0xc7c>
   20d98:	fff78793          	addi	a5,a5,-1
   20d9c:	30f6fee3          	bgeu	a3,a5,218b8 <__multf3+0xccc>
   20da0:	02012803          	lw	a6,32(sp)
   20da4:	03012e03          	lw	t3,48(sp)
   20da8:	01085993          	srli	s3,a6,0x10
   20dac:	010e5693          	srli	a3,t3,0x10
   20db0:	01081813          	slli	a6,a6,0x10
   20db4:	010e1e13          	slli	t3,t3,0x10
   20db8:	01085813          	srli	a6,a6,0x10
   20dbc:	010e5e13          	srli	t3,t3,0x10
   20dc0:	030e0633          	mul	a2,t3,a6
   20dc4:	03c985b3          	mul	a1,s3,t3
   20dc8:	01065793          	srli	a5,a2,0x10
   20dcc:	03068733          	mul	a4,a3,a6
   20dd0:	00b70733          	add	a4,a4,a1
   20dd4:	00e787b3          	add	a5,a5,a4
   20dd8:	02d98c33          	mul	s8,s3,a3
   20ddc:	00b7f663          	bgeu	a5,a1,20de8 <__multf3+0x1fc>
   20de0:	00010737          	lui	a4,0x10
   20de4:	00ec0c33          	add	s8,s8,a4
   20de8:	03412303          	lw	t1,52(sp)
   20dec:	01061613          	slli	a2,a2,0x10
   20df0:	01065613          	srli	a2,a2,0x10
   20df4:	01035493          	srli	s1,t1,0x10
   20df8:	0107d713          	srli	a4,a5,0x10
   20dfc:	01031313          	slli	t1,t1,0x10
   20e00:	01079793          	slli	a5,a5,0x10
   20e04:	00c787b3          	add	a5,a5,a2
   20e08:	01035313          	srli	t1,t1,0x10
   20e0c:	026985b3          	mul	a1,s3,t1
   20e10:	00f12a23          	sw	a5,20(sp)
   20e14:	04f12823          	sw	a5,80(sp)
   20e18:	03048633          	mul	a2,s1,a6
   20e1c:	030307b3          	mul	a5,t1,a6
   20e20:	00b60633          	add	a2,a2,a1
   20e24:	0107df13          	srli	t5,a5,0x10
   20e28:	00cf0f33          	add	t5,t5,a2
   20e2c:	02998bb3          	mul	s7,s3,s1
   20e30:	00bf7663          	bgeu	t5,a1,20e3c <__multf3+0x250>
   20e34:	00010637          	lui	a2,0x10
   20e38:	00cb8bb3          	add	s7,s7,a2
   20e3c:	02412503          	lw	a0,36(sp)
   20e40:	01079793          	slli	a5,a5,0x10
   20e44:	0107d793          	srli	a5,a5,0x10
   20e48:	01055913          	srli	s2,a0,0x10
   20e4c:	01051513          	slli	a0,a0,0x10
   20e50:	01055513          	srli	a0,a0,0x10
   20e54:	010f5613          	srli	a2,t5,0x10
   20e58:	010f1f13          	slli	t5,t5,0x10
   20e5c:	00ff0f33          	add	t5,t5,a5
   20e60:	03c90fb3          	mul	t6,s2,t3
   20e64:	01e70733          	add	a4,a4,t5
   20e68:	03c507b3          	mul	a5,a0,t3
   20e6c:	02a688b3          	mul	a7,a3,a0
   20e70:	0107de93          	srli	t4,a5,0x10
   20e74:	01f888b3          	add	a7,a7,t6
   20e78:	011e8eb3          	add	t4,t4,a7
   20e7c:	032685b3          	mul	a1,a3,s2
   20e80:	01fef663          	bgeu	t4,t6,20e8c <__multf3+0x2a0>
   20e84:	000108b7          	lui	a7,0x10
   20e88:	011585b3          	add	a1,a1,a7
   20e8c:	010eda93          	srli	s5,t4,0x10
   20e90:	00ba8ab3          	add	s5,s5,a1
   20e94:	01079793          	slli	a5,a5,0x10
   20e98:	0107d793          	srli	a5,a5,0x10
   20e9c:	010e9e93          	slli	t4,t4,0x10
   20ea0:	00fe8eb3          	add	t4,t4,a5
   20ea4:	02a305b3          	mul	a1,t1,a0
   20ea8:	026908b3          	mul	a7,s2,t1
   20eac:	0105d793          	srli	a5,a1,0x10
   20eb0:	02a482b3          	mul	t0,s1,a0
   20eb4:	011282b3          	add	t0,t0,a7
   20eb8:	005787b3          	add	a5,a5,t0
   20ebc:	03248fb3          	mul	t6,s1,s2
   20ec0:	0117f663          	bgeu	a5,a7,20ecc <__multf3+0x2e0>
   20ec4:	000108b7          	lui	a7,0x10
   20ec8:	011f8fb3          	add	t6,t6,a7
   20ecc:	0107d893          	srli	a7,a5,0x10
   20ed0:	01f888b3          	add	a7,a7,t6
   20ed4:	01112c23          	sw	a7,24(sp)
   20ed8:	03812883          	lw	a7,56(sp)
   20edc:	01059593          	slli	a1,a1,0x10
   20ee0:	0105d593          	srli	a1,a1,0x10
   20ee4:	0108d293          	srli	t0,a7,0x10
   20ee8:	01079793          	slli	a5,a5,0x10
   20eec:	01089893          	slli	a7,a7,0x10
   20ef0:	00b787b3          	add	a5,a5,a1
   20ef4:	0108d893          	srli	a7,a7,0x10
   20ef8:	030885b3          	mul	a1,a7,a6
   20efc:	00f12e23          	sw	a5,28(sp)
   20f00:	031983b3          	mul	t2,s3,a7
   20f04:	0105da13          	srli	s4,a1,0x10
   20f08:	030287b3          	mul	a5,t0,a6
   20f0c:	007787b3          	add	a5,a5,t2
   20f10:	00fa07b3          	add	a5,s4,a5
   20f14:	02598fb3          	mul	t6,s3,t0
   20f18:	0077f663          	bgeu	a5,t2,20f24 <__multf3+0x338>
   20f1c:	000103b7          	lui	t2,0x10
   20f20:	007f8fb3          	add	t6,t6,t2
   20f24:	01059593          	slli	a1,a1,0x10
   20f28:	0107da13          	srli	s4,a5,0x10
   20f2c:	0105d593          	srli	a1,a1,0x10
   20f30:	01079793          	slli	a5,a5,0x10
   20f34:	00b787b3          	add	a5,a5,a1
   20f38:	02812583          	lw	a1,40(sp)
   20f3c:	01fa0a33          	add	s4,s4,t6
   20f40:	0105d393          	srli	t2,a1,0x10
   20f44:	01059593          	slli	a1,a1,0x10
   20f48:	0105d593          	srli	a1,a1,0x10
   20f4c:	03c58fb3          	mul	t6,a1,t3
   20f50:	03c38d33          	mul	s10,t2,t3
   20f54:	010fdd93          	srli	s11,t6,0x10
   20f58:	02b68b33          	mul	s6,a3,a1
   20f5c:	01ab0b33          	add	s6,s6,s10
   20f60:	016d8b33          	add	s6,s11,s6
   20f64:	02768cb3          	mul	s9,a3,t2
   20f68:	01ab7663          	bgeu	s6,s10,20f74 <__multf3+0x388>
   20f6c:	00010d37          	lui	s10,0x10
   20f70:	01ac8cb3          	add	s9,s9,s10
   20f74:	00ec0733          	add	a4,s8,a4
   20f78:	01e73f33          	sltu	t5,a4,t5
   20f7c:	01e60633          	add	a2,a2,t5
   20f80:	01760633          	add	a2,a2,s7
   20f84:	01d70eb3          	add	t4,a4,t4
   20f88:	01560ab3          	add	s5,a2,s5
   20f8c:	010f9f93          	slli	t6,t6,0x10
   20f90:	00eeb733          	sltu	a4,t4,a4
   20f94:	00ea8733          	add	a4,s5,a4
   20f98:	010b5d13          	srli	s10,s6,0x10
   20f9c:	010fdf93          	srli	t6,t6,0x10
   20fa0:	010b1b13          	slli	s6,s6,0x10
   20fa4:	01fb0fb3          	add	t6,s6,t6
   20fa8:	00cabb33          	sltu	s6,s5,a2
   20fac:	01573ab3          	sltu	s5,a4,s5
   20fb0:	01e63633          	sltu	a2,a2,t5
   20fb4:	01c12f03          	lw	t5,28(sp)
   20fb8:	015b6b33          	or	s6,s6,s5
   20fbc:	01812a83          	lw	s5,24(sp)
   20fc0:	00cb0633          	add	a2,s6,a2
   20fc4:	01e70f33          	add	t5,a4,t5
   20fc8:	01560ab3          	add	s5,a2,s5
   20fcc:	00ef3733          	sltu	a4,t5,a4
   20fd0:	00ea8733          	add	a4,s5,a4
   20fd4:	00ff07b3          	add	a5,t5,a5
   20fd8:	01470a33          	add	s4,a4,s4
   20fdc:	01e7bf33          	sltu	t5,a5,t5
   20fe0:	01ea0f33          	add	t5,s4,t5
   20fe4:	00cab633          	sltu	a2,s5,a2
   20fe8:	01573ab3          	sltu	s5,a4,s5
   20fec:	00ea3733          	sltu	a4,s4,a4
   20ff0:	014f3a33          	sltu	s4,t5,s4
   20ff4:	01476733          	or	a4,a4,s4
   20ff8:	03c12a03          	lw	s4,60(sp)
   20ffc:	01566633          	or	a2,a2,s5
   21000:	00e60633          	add	a2,a2,a4
   21004:	010a5a93          	srli	s5,s4,0x10
   21008:	010a1a13          	slli	s4,s4,0x10
   2100c:	010a5a13          	srli	s4,s4,0x10
   21010:	030a0733          	mul	a4,s4,a6
   21014:	01f78fb3          	add	t6,a5,t6
   21018:	019d0cb3          	add	s9,s10,s9
   2101c:	019f0cb3          	add	s9,t5,s9
   21020:	00ffb7b3          	sltu	a5,t6,a5
   21024:	00fc87b3          	add	a5,s9,a5
   21028:	01ecbf33          	sltu	t5,s9,t5
   2102c:	0197bcb3          	sltu	s9,a5,s9
   21030:	019f6f33          	or	t5,t5,s9
   21034:	00cf0f33          	add	t5,t5,a2
   21038:	03498b33          	mul	s6,s3,s4
   2103c:	01075613          	srli	a2,a4,0x10
   21040:	05d12a23          	sw	t4,84(sp)
   21044:	05f12c23          	sw	t6,88(sp)
   21048:	030a8833          	mul	a6,s5,a6
   2104c:	01680833          	add	a6,a6,s6
   21050:	01060633          	add	a2,a2,a6
   21054:	035989b3          	mul	s3,s3,s5
   21058:	01667663          	bgeu	a2,s6,21064 <__multf3+0x478>
   2105c:	00010837          	lui	a6,0x10
   21060:	010989b3          	add	s3,s3,a6
   21064:	02c12b03          	lw	s6,44(sp)
   21068:	01065813          	srli	a6,a2,0x10
   2106c:	013809b3          	add	s3,a6,s3
   21070:	01071713          	slli	a4,a4,0x10
   21074:	010b5813          	srli	a6,s6,0x10
   21078:	010b1b13          	slli	s6,s6,0x10
   2107c:	01075713          	srli	a4,a4,0x10
   21080:	010b5b13          	srli	s6,s6,0x10
   21084:	01061613          	slli	a2,a2,0x10
   21088:	03068bb3          	mul	s7,a3,a6
   2108c:	00e60633          	add	a2,a2,a4
   21090:	036686b3          	mul	a3,a3,s6
   21094:	03cb0733          	mul	a4,s6,t3
   21098:	03c80e33          	mul	t3,a6,t3
   2109c:	01075c13          	srli	s8,a4,0x10
   210a0:	01c686b3          	add	a3,a3,t3
   210a4:	00dc06b3          	add	a3,s8,a3
   210a8:	01c6f663          	bgeu	a3,t3,210b4 <__multf3+0x4c8>
   210ac:	00010e37          	lui	t3,0x10
   210b0:	01cb8bb3          	add	s7,s7,t3
   210b4:	0106de13          	srli	t3,a3,0x10
   210b8:	01071713          	slli	a4,a4,0x10
   210bc:	017e0e33          	add	t3,t3,s7
   210c0:	01069693          	slli	a3,a3,0x10
   210c4:	01075713          	srli	a4,a4,0x10
   210c8:	00e68db3          	add	s11,a3,a4
   210cc:	01c12c23          	sw	t3,24(sp)
   210d0:	031506b3          	mul	a3,a0,a7
   210d4:	03190e33          	mul	t3,s2,a7
   210d8:	0106dc13          	srli	s8,a3,0x10
   210dc:	02a28733          	mul	a4,t0,a0
   210e0:	01c70733          	add	a4,a4,t3
   210e4:	00ec0733          	add	a4,s8,a4
   210e8:	02590bb3          	mul	s7,s2,t0
   210ec:	01c77663          	bgeu	a4,t3,210f8 <__multf3+0x50c>
   210f0:	00010e37          	lui	t3,0x10
   210f4:	01cb8bb3          	add	s7,s7,t3
   210f8:	01069693          	slli	a3,a3,0x10
   210fc:	01075e13          	srli	t3,a4,0x10
   21100:	0106d693          	srli	a3,a3,0x10
   21104:	01071713          	slli	a4,a4,0x10
   21108:	017e0e33          	add	t3,t3,s7
   2110c:	00d70733          	add	a4,a4,a3
   21110:	02638c33          	mul	s8,t2,t1
   21114:	02b306b3          	mul	a3,t1,a1
   21118:	02b48bb3          	mul	s7,s1,a1
   2111c:	0106dd13          	srli	s10,a3,0x10
   21120:	018b8bb3          	add	s7,s7,s8
   21124:	017d0bb3          	add	s7,s10,s7
   21128:	02748cb3          	mul	s9,s1,t2
   2112c:	018bf663          	bgeu	s7,s8,21138 <__multf3+0x54c>
   21130:	00010c37          	lui	s8,0x10
   21134:	018c8cb3          	add	s9,s9,s8
   21138:	010bdc13          	srli	s8,s7,0x10
   2113c:	00c78633          	add	a2,a5,a2
   21140:	019c0c33          	add	s8,s8,s9
   21144:	01069693          	slli	a3,a3,0x10
   21148:	01812c83          	lw	s9,24(sp)
   2114c:	013f09b3          	add	s3,t5,s3
   21150:	010b9b93          	slli	s7,s7,0x10
   21154:	00f637b3          	sltu	a5,a2,a5
   21158:	0106d693          	srli	a3,a3,0x10
   2115c:	00f987b3          	add	a5,s3,a5
   21160:	00db86b3          	add	a3,s7,a3
   21164:	01b60bb3          	add	s7,a2,s11
   21168:	01978cb3          	add	s9,a5,s9
   2116c:	00cbb633          	sltu	a2,s7,a2
   21170:	00cc8633          	add	a2,s9,a2
   21174:	00eb8733          	add	a4,s7,a4
   21178:	01c60e33          	add	t3,a2,t3
   2117c:	01773bb3          	sltu	s7,a4,s7
   21180:	017e0bb3          	add	s7,t3,s7
   21184:	00d706b3          	add	a3,a4,a3
   21188:	018b8c33          	add	s8,s7,s8
   2118c:	01e9bf33          	sltu	t5,s3,t5
   21190:	00e6b733          	sltu	a4,a3,a4
   21194:	0137b9b3          	sltu	s3,a5,s3
   21198:	00fcb7b3          	sltu	a5,s9,a5
   2119c:	01963cb3          	sltu	s9,a2,s9
   211a0:	013f69b3          	or	s3,t5,s3
   211a4:	00ce3633          	sltu	a2,t3,a2
   211a8:	0197e7b3          	or	a5,a5,s9
   211ac:	01cbbe33          	sltu	t3,s7,t3
   211b0:	00ec0733          	add	a4,s8,a4
   211b4:	00f987b3          	add	a5,s3,a5
   211b8:	01c66633          	or	a2,a2,t3
   211bc:	017c3e33          	sltu	t3,s8,s7
   211c0:	01873c33          	sltu	s8,a4,s8
   211c4:	00f60633          	add	a2,a2,a5
   211c8:	018e6e33          	or	t3,t3,s8
   211cc:	03138f33          	mul	t5,t2,a7
   211d0:	00ce0e33          	add	t3,t3,a2
   211d4:	04d12e23          	sw	a3,92(sp)
   211d8:	02b88633          	mul	a2,a7,a1
   211dc:	02b28bb3          	mul	s7,t0,a1
   211e0:	01065793          	srli	a5,a2,0x10
   211e4:	01eb8bb3          	add	s7,s7,t5
   211e8:	017787b3          	add	a5,a5,s7
   211ec:	027289b3          	mul	s3,t0,t2
   211f0:	01e7f663          	bgeu	a5,t5,211fc <__multf3+0x610>
   211f4:	00010f37          	lui	t5,0x10
   211f8:	01e989b3          	add	s3,s3,t5
   211fc:	01061613          	slli	a2,a2,0x10
   21200:	0107df13          	srli	t5,a5,0x10
   21204:	01065613          	srli	a2,a2,0x10
   21208:	01079793          	slli	a5,a5,0x10
   2120c:	00c787b3          	add	a5,a5,a2
   21210:	013f0f33          	add	t5,t5,s3
   21214:	02aa0633          	mul	a2,s4,a0
   21218:	03490bb3          	mul	s7,s2,s4
   2121c:	01065993          	srli	s3,a2,0x10
   21220:	02aa8533          	mul	a0,s5,a0
   21224:	01750533          	add	a0,a0,s7
   21228:	00a989b3          	add	s3,s3,a0
   2122c:	03590933          	mul	s2,s2,s5
   21230:	0179f663          	bgeu	s3,s7,2123c <__multf3+0x650>
   21234:	00010537          	lui	a0,0x10
   21238:	00a90933          	add	s2,s2,a0
   2123c:	01061613          	slli	a2,a2,0x10
   21240:	0109d513          	srli	a0,s3,0x10
   21244:	01065613          	srli	a2,a2,0x10
   21248:	01099993          	slli	s3,s3,0x10
   2124c:	00c989b3          	add	s3,s3,a2
   21250:	01250933          	add	s2,a0,s2
   21254:	026b0633          	mul	a2,s6,t1
   21258:	03048bb3          	mul	s7,s1,a6
   2125c:	01065513          	srli	a0,a2,0x10
   21260:	02680333          	mul	t1,a6,t1
   21264:	036484b3          	mul	s1,s1,s6
   21268:	006484b3          	add	s1,s1,t1
   2126c:	00950533          	add	a0,a0,s1
   21270:	00657663          	bgeu	a0,t1,2127c <__multf3+0x690>
   21274:	00010337          	lui	t1,0x10
   21278:	006b8bb3          	add	s7,s7,t1
   2127c:	01061613          	slli	a2,a2,0x10
   21280:	01055313          	srli	t1,a0,0x10
   21284:	01065613          	srli	a2,a2,0x10
   21288:	01051513          	slli	a0,a0,0x10
   2128c:	034384b3          	mul	s1,t2,s4
   21290:	00c50533          	add	a0,a0,a2
   21294:	01730333          	add	t1,t1,s7
   21298:	02ba0633          	mul	a2,s4,a1
   2129c:	02ba85b3          	mul	a1,s5,a1
   212a0:	01065b93          	srli	s7,a2,0x10
   212a4:	009585b3          	add	a1,a1,s1
   212a8:	00bb85b3          	add	a1,s7,a1
   212ac:	035383b3          	mul	t2,t2,s5
   212b0:	0095f663          	bgeu	a1,s1,212bc <__multf3+0x6d0>
   212b4:	000104b7          	lui	s1,0x10
   212b8:	009383b3          	add	t2,t2,s1
   212bc:	0105d493          	srli	s1,a1,0x10
   212c0:	007483b3          	add	t2,s1,t2
   212c4:	01061613          	slli	a2,a2,0x10
   212c8:	01065613          	srli	a2,a2,0x10
   212cc:	01059593          	slli	a1,a1,0x10
   212d0:	00c585b3          	add	a1,a1,a2
   212d4:	031b04b3          	mul	s1,s6,a7
   212d8:	03028bb3          	mul	s7,t0,a6
   212dc:	0104d613          	srli	a2,s1,0x10
   212e0:	031808b3          	mul	a7,a6,a7
   212e4:	036282b3          	mul	t0,t0,s6
   212e8:	011282b3          	add	t0,t0,a7
   212ec:	00560633          	add	a2,a2,t0
   212f0:	01167663          	bgeu	a2,a7,212fc <__multf3+0x710>
   212f4:	000108b7          	lui	a7,0x10
   212f8:	011b8bb3          	add	s7,s7,a7
   212fc:	00f707b3          	add	a5,a4,a5
   21300:	01ee0f33          	add	t5,t3,t5
   21304:	00e7b733          	sltu	a4,a5,a4
   21308:	00ef0733          	add	a4,t5,a4
   2130c:	013789b3          	add	s3,a5,s3
   21310:	01270933          	add	s2,a4,s2
   21314:	00f9b7b3          	sltu	a5,s3,a5
   21318:	00f902b3          	add	t0,s2,a5
   2131c:	00a987b3          	add	a5,s3,a0
   21320:	036a0533          	mul	a0,s4,s6
   21324:	00628333          	add	t1,t0,t1
   21328:	06f12023          	sw	a5,96(sp)
   2132c:	0137b7b3          	sltu	a5,a5,s3
   21330:	00f307b3          	add	a5,t1,a5
   21334:	01cf3e33          	sltu	t3,t5,t3
   21338:	01e73f33          	sltu	t5,a4,t5
   2133c:	00e93733          	sltu	a4,s2,a4
   21340:	0122b933          	sltu	s2,t0,s2
   21344:	01276733          	or	a4,a4,s2
   21348:	03480a33          	mul	s4,a6,s4
   2134c:	005332b3          	sltu	t0,t1,t0
   21350:	01ee6e33          	or	t3,t3,t5
   21354:	0067b333          	sltu	t1,a5,t1
   21358:	00ee0e33          	add	t3,t3,a4
   2135c:	01049493          	slli	s1,s1,0x10
   21360:	0062e2b3          	or	t0,t0,t1
   21364:	00b785b3          	add	a1,a5,a1
   21368:	01065893          	srli	a7,a2,0x10
   2136c:	01c282b3          	add	t0,t0,t3
   21370:	030a8833          	mul	a6,s5,a6
   21374:	01061613          	slli	a2,a2,0x10
   21378:	0104d493          	srli	s1,s1,0x10
   2137c:	007283b3          	add	t2,t0,t2
   21380:	00960633          	add	a2,a2,s1
   21384:	00f5b7b3          	sltu	a5,a1,a5
   21388:	00f387b3          	add	a5,t2,a5
   2138c:	00c58633          	add	a2,a1,a2
   21390:	017888b3          	add	a7,a7,s7
   21394:	011788b3          	add	a7,a5,a7
   21398:	036a8ab3          	mul	s5,s5,s6
   2139c:	06c12223          	sw	a2,100(sp)
   213a0:	00b63633          	sltu	a2,a2,a1
   213a4:	00c88633          	add	a2,a7,a2
   213a8:	01055713          	srli	a4,a0,0x10
   213ac:	0053b2b3          	sltu	t0,t2,t0
   213b0:	0077b3b3          	sltu	t2,a5,t2
   213b4:	00f8b7b3          	sltu	a5,a7,a5
   213b8:	011638b3          	sltu	a7,a2,a7
   213bc:	0072e2b3          	or	t0,t0,t2
   213c0:	014a8ab3          	add	s5,s5,s4
   213c4:	01570733          	add	a4,a4,s5
   213c8:	0117e7b3          	or	a5,a5,a7
   213cc:	01477663          	bgeu	a4,s4,213d8 <__multf3+0x7ec>
   213d0:	000105b7          	lui	a1,0x10
   213d4:	00b80833          	add	a6,a6,a1
   213d8:	01051513          	slli	a0,a0,0x10
   213dc:	01075593          	srli	a1,a4,0x10
   213e0:	01055513          	srli	a0,a0,0x10
   213e4:	01071713          	slli	a4,a4,0x10
   213e8:	00a70733          	add	a4,a4,a0
   213ec:	005585b3          	add	a1,a1,t0
   213f0:	00e60733          	add	a4,a2,a4
   213f4:	00f587b3          	add	a5,a1,a5
   213f8:	00c73633          	sltu	a2,a4,a2
   213fc:	00f60633          	add	a2,a2,a5
   21400:	01412783          	lw	a5,20(sp)
   21404:	01060633          	add	a2,a2,a6
   21408:	00d69693          	slli	a3,a3,0xd
   2140c:	01d7e7b3          	or	a5,a5,t4
   21410:	00ffefb3          	or	t6,t6,a5
   21414:	06c12623          	sw	a2,108(sp)
   21418:	06e12423          	sw	a4,104(sp)
   2141c:	01f6e6b3          	or	a3,a3,t6
   21420:	05010793          	addi	a5,sp,80
   21424:	06010593          	addi	a1,sp,96
   21428:	00c7a703          	lw	a4,12(a5)
   2142c:	0107a603          	lw	a2,16(a5)
   21430:	00478793          	addi	a5,a5,4
   21434:	01375713          	srli	a4,a4,0x13
   21438:	00d61613          	slli	a2,a2,0xd
   2143c:	00c76733          	or	a4,a4,a2
   21440:	fee7ae23          	sw	a4,-4(a5)
   21444:	fef592e3          	bne	a1,a5,21428 <__multf3+0x83c>
   21448:	05012783          	lw	a5,80(sp)
   2144c:	00d036b3          	sltu	a3,zero,a3
   21450:	05c12703          	lw	a4,92(sp)
   21454:	00f6e6b3          	or	a3,a3,a5
   21458:	05812783          	lw	a5,88(sp)
   2145c:	04e12623          	sw	a4,76(sp)
   21460:	04d12023          	sw	a3,64(sp)
   21464:	04f12423          	sw	a5,72(sp)
   21468:	05412783          	lw	a5,84(sp)
   2146c:	04f12223          	sw	a5,68(sp)
   21470:	00b71793          	slli	a5,a4,0xb
   21474:	4a07da63          	bge	a5,zero,21928 <__multf3+0xd3c>
   21478:	01f69693          	slli	a3,a3,0x1f
   2147c:	04010793          	addi	a5,sp,64
   21480:	04c10513          	addi	a0,sp,76
   21484:	0007a603          	lw	a2,0(a5)
   21488:	0047a583          	lw	a1,4(a5)
   2148c:	00478793          	addi	a5,a5,4
   21490:	00165613          	srli	a2,a2,0x1
   21494:	01f59593          	slli	a1,a1,0x1f
   21498:	00b66633          	or	a2,a2,a1
   2149c:	fec7ae23          	sw	a2,-4(a5)
   214a0:	fef512e3          	bne	a0,a5,21484 <__multf3+0x898>
   214a4:	04012783          	lw	a5,64(sp)
   214a8:	01f6d693          	srli	a3,a3,0x1f
   214ac:	00175713          	srli	a4,a4,0x1
   214b0:	00d7e7b3          	or	a5,a5,a3
   214b4:	04e12623          	sw	a4,76(sp)
   214b8:	04f12023          	sw	a5,64(sp)
   214bc:	00c12703          	lw	a4,12(sp)
   214c0:	000047b7          	lui	a5,0x4
   214c4:	fff78793          	addi	a5,a5,-1 # 3fff <exit-0xc0b5>
   214c8:	00f707b3          	add	a5,a4,a5
   214cc:	46f05463          	bge	zero,a5,21934 <__multf3+0xd48>
   214d0:	04012703          	lw	a4,64(sp)
   214d4:	00777693          	andi	a3,a4,7
   214d8:	04068663          	beq	a3,zero,21524 <__multf3+0x938>
   214dc:	00f77693          	andi	a3,a4,15
   214e0:	00400613          	addi	a2,zero,4
   214e4:	04c68063          	beq	a3,a2,21524 <__multf3+0x938>
   214e8:	00c706b3          	add	a3,a4,a2
   214ec:	ffc73713          	sltiu	a4,a4,-4
   214f0:	04d12023          	sw	a3,64(sp)
   214f4:	00173693          	sltiu	a3,a4,1
   214f8:	04412703          	lw	a4,68(sp)
   214fc:	00e68733          	add	a4,a3,a4
   21500:	04e12223          	sw	a4,68(sp)
   21504:	00d73733          	sltu	a4,a4,a3
   21508:	04812683          	lw	a3,72(sp)
   2150c:	00e68733          	add	a4,a3,a4
   21510:	04e12423          	sw	a4,72(sp)
   21514:	00d73733          	sltu	a4,a4,a3
   21518:	04c12683          	lw	a3,76(sp)
   2151c:	00d70733          	add	a4,a4,a3
   21520:	04e12623          	sw	a4,76(sp)
   21524:	04c12703          	lw	a4,76(sp)
   21528:	00b71693          	slli	a3,a4,0xb
   2152c:	0206d063          	bge	a3,zero,2154c <__multf3+0x960>
   21530:	00c12683          	lw	a3,12(sp)
   21534:	fff007b7          	lui	a5,0xfff00
   21538:	fff78793          	addi	a5,a5,-1 # ffefffff <__BSS_END__+0xffdebc67>
   2153c:	00f77733          	and	a4,a4,a5
   21540:	000047b7          	lui	a5,0x4
   21544:	04e12623          	sw	a4,76(sp)
   21548:	00f687b3          	add	a5,a3,a5
   2154c:	04010693          	addi	a3,sp,64
   21550:	04c10513          	addi	a0,sp,76
   21554:	0006a603          	lw	a2,0(a3)
   21558:	0046a583          	lw	a1,4(a3)
   2155c:	00468693          	addi	a3,a3,4
   21560:	00365613          	srli	a2,a2,0x3
   21564:	01d59593          	slli	a1,a1,0x1d
   21568:	00b66633          	or	a2,a2,a1
   2156c:	fec6ae23          	sw	a2,-4(a3)
   21570:	fed512e3          	bne	a0,a3,21554 <__multf3+0x968>
   21574:	000086b7          	lui	a3,0x8
   21578:	ffe68693          	addi	a3,a3,-2 # 7ffe <exit-0x80b6>
   2157c:	58f6ca63          	blt	a3,a5,21b10 <__multf3+0xf24>
   21580:	00375713          	srli	a4,a4,0x3
   21584:	04e12623          	sw	a4,76(sp)
   21588:	04c12703          	lw	a4,76(sp)
   2158c:	0ac12083          	lw	ra,172(sp)
   21590:	0a412483          	lw	s1,164(sp)
   21594:	04e11e23          	sh	a4,92(sp)
   21598:	00f41713          	slli	a4,s0,0xf
   2159c:	00f767b3          	or	a5,a4,a5
   215a0:	04f11f23          	sh	a5,94(sp)
   215a4:	00812703          	lw	a4,8(sp)
   215a8:	04012783          	lw	a5,64(sp)
   215ac:	0a812403          	lw	s0,168(sp)
   215b0:	0a012903          	lw	s2,160(sp)
   215b4:	00f72023          	sw	a5,0(a4) # 10000 <exit-0xb4>
   215b8:	04412783          	lw	a5,68(sp)
   215bc:	09c12983          	lw	s3,156(sp)
   215c0:	09812a03          	lw	s4,152(sp)
   215c4:	00f72223          	sw	a5,4(a4)
   215c8:	04812783          	lw	a5,72(sp)
   215cc:	09412a83          	lw	s5,148(sp)
   215d0:	09012b03          	lw	s6,144(sp)
   215d4:	00f72423          	sw	a5,8(a4)
   215d8:	05c12783          	lw	a5,92(sp)
   215dc:	08c12b83          	lw	s7,140(sp)
   215e0:	08812c03          	lw	s8,136(sp)
   215e4:	00f72623          	sw	a5,12(a4)
   215e8:	08412c83          	lw	s9,132(sp)
   215ec:	08012d03          	lw	s10,128(sp)
   215f0:	07c12d83          	lw	s11,124(sp)
   215f4:	00070513          	addi	a0,a4,0
   215f8:	0b010113          	addi	sp,sp,176
   215fc:	00008067          	jalr	zero,0(ra)
   21600:	00a7e633          	or	a2,a5,a0
   21604:	00d66633          	or	a2,a2,a3
   21608:	00e66633          	or	a2,a2,a4
   2160c:	12060063          	beq	a2,zero,2172c <__multf3+0xb40>
   21610:	04070863          	beq	a4,zero,21660 <__multf3+0xa74>
   21614:	00070513          	addi	a0,a4,0
   21618:	4f1010ef          	jal	ra,23308 <__clzsi2>
   2161c:	ff450693          	addi	a3,a0,-12 # fff4 <exit-0xc0>
   21620:	4056d713          	srai	a4,a3,0x5
   21624:	01f6f693          	andi	a3,a3,31
   21628:	02c10793          	addi	a5,sp,44
   2162c:	06068463          	beq	a3,zero,21694 <__multf3+0xaa8>
   21630:	02000893          	addi	a7,zero,32
   21634:	00271813          	slli	a6,a4,0x2
   21638:	40d888b3          	sub	a7,a7,a3
   2163c:	02010593          	addi	a1,sp,32
   21640:	410787b3          	sub	a5,a5,a6
   21644:	08f59a63          	bne	a1,a5,216d8 <__multf3+0xaec>
   21648:	fff70793          	addi	a5,a4,-1
   2164c:	02012703          	lw	a4,32(sp)
   21650:	010585b3          	add	a1,a1,a6
   21654:	00d71733          	sll	a4,a4,a3
   21658:	00e5a023          	sw	a4,0(a1) # 10000 <exit-0xb4>
   2165c:	0600006f          	jal	zero,216bc <__multf3+0xad0>
   21660:	00068a63          	beq	a3,zero,21674 <__multf3+0xa88>
   21664:	00068513          	addi	a0,a3,0
   21668:	4a1010ef          	jal	ra,23308 <__clzsi2>
   2166c:	02050513          	addi	a0,a0,32
   21670:	fadff06f          	jal	zero,2161c <__multf3+0xa30>
   21674:	00078a63          	beq	a5,zero,21688 <__multf3+0xa9c>
   21678:	00078513          	addi	a0,a5,0 # 4000 <exit-0xc0b4>
   2167c:	48d010ef          	jal	ra,23308 <__clzsi2>
   21680:	04050513          	addi	a0,a0,64
   21684:	f99ff06f          	jal	zero,2161c <__multf3+0xa30>
   21688:	481010ef          	jal	ra,23308 <__clzsi2>
   2168c:	06050513          	addi	a0,a0,96
   21690:	f8dff06f          	jal	zero,2161c <__multf3+0xa30>
   21694:	ffc00613          	addi	a2,zero,-4
   21698:	02c70633          	mul	a2,a4,a2
   2169c:	00300693          	addi	a3,zero,3
   216a0:	00c785b3          	add	a1,a5,a2
   216a4:	0005a583          	lw	a1,0(a1)
   216a8:	fff68693          	addi	a3,a3,-1
   216ac:	ffc78793          	addi	a5,a5,-4
   216b0:	00b7a223          	sw	a1,4(a5)
   216b4:	fee6d6e3          	bge	a3,a4,216a0 <__multf3+0xab4>
   216b8:	fff70793          	addi	a5,a4,-1
   216bc:	fff00693          	addi	a3,zero,-1
   216c0:	02010613          	addi	a2,sp,32
   216c4:	02d79c63          	bne	a5,a3,216fc <__multf3+0xb10>
   216c8:	ffffc4b7          	lui	s1,0xffffc
   216cc:	01148493          	addi	s1,s1,17 # ffffc011 <__BSS_END__+0xffee7c79>
   216d0:	40a484b3          	sub	s1,s1,a0
   216d4:	e00ff06f          	jal	zero,20cd4 <__multf3+0xe8>
   216d8:	0007a603          	lw	a2,0(a5)
   216dc:	ffc7a303          	lw	t1,-4(a5)
   216e0:	01078e33          	add	t3,a5,a6
   216e4:	00d61633          	sll	a2,a2,a3
   216e8:	01135333          	srl	t1,t1,a7
   216ec:	00666633          	or	a2,a2,t1
   216f0:	00ce2023          	sw	a2,0(t3) # 10000 <exit-0xb4>
   216f4:	ffc78793          	addi	a5,a5,-4
   216f8:	f4dff06f          	jal	zero,21644 <__multf3+0xa58>
   216fc:	00279713          	slli	a4,a5,0x2
   21700:	00e60733          	add	a4,a2,a4
   21704:	00072023          	sw	zero,0(a4)
   21708:	fff78793          	addi	a5,a5,-1
   2170c:	fb9ff06f          	jal	zero,216c4 <__multf3+0xad8>
   21710:	00a7e7b3          	or	a5,a5,a0
   21714:	00d7e7b3          	or	a5,a5,a3
   21718:	00e7e7b3          	or	a5,a5,a4
   2171c:	00200993          	addi	s3,zero,2
   21720:	da078c63          	beq	a5,zero,20cd8 <__multf3+0xec>
   21724:	00300993          	addi	s3,zero,3
   21728:	db0ff06f          	jal	zero,20cd8 <__multf3+0xec>
   2172c:	00000493          	addi	s1,zero,0
   21730:	00100993          	addi	s3,zero,1
   21734:	da4ff06f          	jal	zero,20cd8 <__multf3+0xec>
   21738:	016ae7b3          	or	a5,s5,s6
   2173c:	0177e7b3          	or	a5,a5,s7
   21740:	00a7e7b3          	or	a5,a5,a0
   21744:	00100713          	addi	a4,zero,1
   21748:	e2078063          	beq	a5,zero,20d68 <__multf3+0x17c>
   2174c:	04050663          	beq	a0,zero,21798 <__multf3+0xbac>
   21750:	3b9010ef          	jal	ra,23308 <__clzsi2>
   21754:	ff450693          	addi	a3,a0,-12
   21758:	4056d713          	srai	a4,a3,0x5
   2175c:	01f6f693          	andi	a3,a3,31
   21760:	03c10793          	addi	a5,sp,60
   21764:	06068663          	beq	a3,zero,217d0 <__multf3+0xbe4>
   21768:	02000893          	addi	a7,zero,32
   2176c:	00271813          	slli	a6,a4,0x2
   21770:	40d888b3          	sub	a7,a7,a3
   21774:	03010593          	addi	a1,sp,48
   21778:	410787b3          	sub	a5,a5,a6
   2177c:	08f59c63          	bne	a1,a5,21814 <__multf3+0xc28>
   21780:	fff70793          	addi	a5,a4,-1
   21784:	03012703          	lw	a4,48(sp)
   21788:	010585b3          	add	a1,a1,a6
   2178c:	00d71733          	sll	a4,a4,a3
   21790:	00e5a023          	sw	a4,0(a1)
   21794:	0640006f          	jal	zero,217f8 <__multf3+0xc0c>
   21798:	000b8a63          	beq	s7,zero,217ac <__multf3+0xbc0>
   2179c:	000b8513          	addi	a0,s7,0
   217a0:	369010ef          	jal	ra,23308 <__clzsi2>
   217a4:	02050513          	addi	a0,a0,32
   217a8:	fadff06f          	jal	zero,21754 <__multf3+0xb68>
   217ac:	000a8a63          	beq	s5,zero,217c0 <__multf3+0xbd4>
   217b0:	000a8513          	addi	a0,s5,0
   217b4:	355010ef          	jal	ra,23308 <__clzsi2>
   217b8:	04050513          	addi	a0,a0,64
   217bc:	f99ff06f          	jal	zero,21754 <__multf3+0xb68>
   217c0:	000b0513          	addi	a0,s6,0
   217c4:	345010ef          	jal	ra,23308 <__clzsi2>
   217c8:	06050513          	addi	a0,a0,96
   217cc:	f89ff06f          	jal	zero,21754 <__multf3+0xb68>
   217d0:	ffc00613          	addi	a2,zero,-4
   217d4:	02c70633          	mul	a2,a4,a2
   217d8:	00300693          	addi	a3,zero,3
   217dc:	00c785b3          	add	a1,a5,a2
   217e0:	0005a583          	lw	a1,0(a1)
   217e4:	fff68693          	addi	a3,a3,-1
   217e8:	ffc78793          	addi	a5,a5,-4
   217ec:	00b7a223          	sw	a1,4(a5)
   217f0:	fee6d6e3          	bge	a3,a4,217dc <__multf3+0xbf0>
   217f4:	fff70793          	addi	a5,a4,-1
   217f8:	fff00693          	addi	a3,zero,-1
   217fc:	03010613          	addi	a2,sp,48
   21800:	02d79c63          	bne	a5,a3,21838 <__multf3+0xc4c>
   21804:	ffffc7b7          	lui	a5,0xffffc
   21808:	01178793          	addi	a5,a5,17 # ffffc011 <__BSS_END__+0xffee7c79>
   2180c:	40a787b3          	sub	a5,a5,a0
   21810:	d54ff06f          	jal	zero,20d64 <__multf3+0x178>
   21814:	0007a603          	lw	a2,0(a5)
   21818:	ffc7a303          	lw	t1,-4(a5)
   2181c:	01078e33          	add	t3,a5,a6
   21820:	00d61633          	sll	a2,a2,a3
   21824:	01135333          	srl	t1,t1,a7
   21828:	00666633          	or	a2,a2,t1
   2182c:	00ce2023          	sw	a2,0(t3)
   21830:	ffc78793          	addi	a5,a5,-4
   21834:	f49ff06f          	jal	zero,2177c <__multf3+0xb90>
   21838:	00279713          	slli	a4,a5,0x2
   2183c:	00e60733          	add	a4,a2,a4
   21840:	00072023          	sw	zero,0(a4)
   21844:	fff78793          	addi	a5,a5,-1
   21848:	fb9ff06f          	jal	zero,21800 <__multf3+0xc14>
   2184c:	016aeab3          	or	s5,s5,s6
   21850:	017aeab3          	or	s5,s5,s7
   21854:	00aaeab3          	or	s5,s5,a0
   21858:	00200713          	addi	a4,zero,2
   2185c:	d00a8663          	beq	s5,zero,20d68 <__multf3+0x17c>
   21860:	00300713          	addi	a4,zero,3
   21864:	d04ff06f          	jal	zero,20d68 <__multf3+0x17c>
   21868:	00f697b3          	sll	a5,a3,a5
   2186c:	5307f693          	andi	a3,a5,1328
   21870:	06069463          	bne	a3,zero,218d8 <__multf3+0xcec>
   21874:	0887f693          	andi	a3,a5,136
   21878:	02069e63          	bne	a3,zero,218b4 <__multf3+0xcc8>
   2187c:	2407f793          	andi	a5,a5,576
   21880:	d2078063          	beq	a5,zero,20da0 <__multf3+0x1b4>
   21884:	000087b7          	lui	a5,0x8
   21888:	04f12623          	sw	a5,76(sp)
   2188c:	04012423          	sw	zero,72(sp)
   21890:	04012223          	sw	zero,68(sp)
   21894:	04012023          	sw	zero,64(sp)
   21898:	fff78793          	addi	a5,a5,-1 # 7fff <exit-0x80b5>
   2189c:	00000413          	addi	s0,zero,0
   218a0:	ce9ff06f          	jal	zero,21588 <__multf3+0x99c>
   218a4:	00f00693          	addi	a3,zero,15
   218a8:	fcd78ee3          	beq	a5,a3,21884 <__multf3+0xc98>
   218ac:	00b00693          	addi	a3,zero,11
   218b0:	02d79463          	bne	a5,a3,218d8 <__multf3+0xcec>
   218b4:	00090413          	addi	s0,s2,0
   218b8:	03012783          	lw	a5,48(sp)
   218bc:	04f12023          	sw	a5,64(sp)
   218c0:	03412783          	lw	a5,52(sp)
   218c4:	04f12223          	sw	a5,68(sp)
   218c8:	03812783          	lw	a5,56(sp)
   218cc:	04f12423          	sw	a5,72(sp)
   218d0:	03c12783          	lw	a5,60(sp)
   218d4:	0240006f          	jal	zero,218f8 <__multf3+0xd0c>
   218d8:	02012783          	lw	a5,32(sp)
   218dc:	00098713          	addi	a4,s3,0
   218e0:	04f12023          	sw	a5,64(sp)
   218e4:	02412783          	lw	a5,36(sp)
   218e8:	04f12223          	sw	a5,68(sp)
   218ec:	02812783          	lw	a5,40(sp)
   218f0:	04f12423          	sw	a5,72(sp)
   218f4:	02c12783          	lw	a5,44(sp)
   218f8:	04f12623          	sw	a5,76(sp)
   218fc:	00200793          	addi	a5,zero,2
   21900:	20f70863          	beq	a4,a5,21b10 <__multf3+0xf24>
   21904:	00300793          	addi	a5,zero,3
   21908:	f6f70ee3          	beq	a4,a5,21884 <__multf3+0xc98>
   2190c:	00100793          	addi	a5,zero,1
   21910:	baf716e3          	bne	a4,a5,214bc <__multf3+0x8d0>
   21914:	04012623          	sw	zero,76(sp)
   21918:	04012423          	sw	zero,72(sp)
   2191c:	04012223          	sw	zero,68(sp)
   21920:	04012023          	sw	zero,64(sp)
   21924:	1c00006f          	jal	zero,21ae4 <__multf3+0xef8>
   21928:	01012783          	lw	a5,16(sp)
   2192c:	00f12623          	sw	a5,12(sp)
   21930:	b8dff06f          	jal	zero,214bc <__multf3+0x8d0>
   21934:	06078463          	beq	a5,zero,2199c <__multf3+0xdb0>
   21938:	f8d00713          	addi	a4,zero,-115
   2193c:	1ae7c863          	blt	a5,a4,21aec <__multf3+0xf00>
   21940:	00100713          	addi	a4,zero,1
   21944:	40f70733          	sub	a4,a4,a5
   21948:	04010513          	addi	a0,sp,64
   2194c:	40575693          	srai	a3,a4,0x5
   21950:	00050593          	addi	a1,a0,0
   21954:	01f77713          	andi	a4,a4,31
   21958:	00000793          	addi	a5,zero,0
   2195c:	00000613          	addi	a2,zero,0
   21960:	04d61263          	bne	a2,a3,219a4 <__multf3+0xdb8>
   21964:	00300613          	addi	a2,zero,3
   21968:	40d60633          	sub	a2,a2,a3
   2196c:	00269e13          	slli	t3,a3,0x2
   21970:	04071463          	bne	a4,zero,219b8 <__multf3+0xdcc>
   21974:	00050593          	addi	a1,a0,0
   21978:	01c58833          	add	a6,a1,t3
   2197c:	00082803          	lw	a6,0(a6) # 10000 <exit-0xb4>
   21980:	00170713          	addi	a4,a4,1
   21984:	00458593          	addi	a1,a1,4
   21988:	ff05ae23          	sw	a6,-4(a1)
   2198c:	fee656e3          	bge	a2,a4,21978 <__multf3+0xd8c>
   21990:	00400713          	addi	a4,zero,4
   21994:	40d706b3          	sub	a3,a4,a3
   21998:	05c0006f          	jal	zero,219f4 <__multf3+0xe08>
   2199c:	00100713          	addi	a4,zero,1
   219a0:	fa9ff06f          	jal	zero,21948 <__multf3+0xd5c>
   219a4:	0005a803          	lw	a6,0(a1)
   219a8:	00160613          	addi	a2,a2,1 # 10001 <exit-0xb3>
   219ac:	00458593          	addi	a1,a1,4
   219b0:	0107e7b3          	or	a5,a5,a6
   219b4:	fadff06f          	jal	zero,21960 <__multf3+0xd74>
   219b8:	01c505b3          	add	a1,a0,t3
   219bc:	0005a803          	lw	a6,0(a1)
   219c0:	02000893          	addi	a7,zero,32
   219c4:	40e888b3          	sub	a7,a7,a4
   219c8:	01181833          	sll	a6,a6,a7
   219cc:	0107e7b3          	or	a5,a5,a6
   219d0:	00000313          	addi	t1,zero,0
   219d4:	02c34463          	blt	t1,a2,219fc <__multf3+0xe10>
   219d8:	00400593          	addi	a1,zero,4
   219dc:	40d586b3          	sub	a3,a1,a3
   219e0:	04c12583          	lw	a1,76(sp)
   219e4:	00261613          	slli	a2,a2,0x2
   219e8:	00c50633          	add	a2,a0,a2
   219ec:	00e5d733          	srl	a4,a1,a4
   219f0:	00e62023          	sw	a4,0(a2)
   219f4:	00400613          	addi	a2,zero,4
   219f8:	03c0006f          	jal	zero,21a34 <__multf3+0xe48>
   219fc:	0005a803          	lw	a6,0(a1)
   21a00:	0045ae83          	lw	t4,4(a1)
   21a04:	41c58f33          	sub	t5,a1,t3
   21a08:	00e85833          	srl	a6,a6,a4
   21a0c:	011e9eb3          	sll	t4,t4,a7
   21a10:	01d86833          	or	a6,a6,t4
   21a14:	010f2023          	sw	a6,0(t5) # 10000 <exit-0xb4>
   21a18:	00130313          	addi	t1,t1,1 # 10001 <exit-0xb3>
   21a1c:	00458593          	addi	a1,a1,4
   21a20:	fb5ff06f          	jal	zero,219d4 <__multf3+0xde8>
   21a24:	00269713          	slli	a4,a3,0x2
   21a28:	00e50733          	add	a4,a0,a4
   21a2c:	00072023          	sw	zero,0(a4)
   21a30:	00168693          	addi	a3,a3,1
   21a34:	fec698e3          	bne	a3,a2,21a24 <__multf3+0xe38>
   21a38:	04012703          	lw	a4,64(sp)
   21a3c:	00f037b3          	sltu	a5,zero,a5
   21a40:	00e7e7b3          	or	a5,a5,a4
   21a44:	04f12023          	sw	a5,64(sp)
   21a48:	0077f713          	andi	a4,a5,7
   21a4c:	04070463          	beq	a4,zero,21a94 <__multf3+0xea8>
   21a50:	00f7f713          	andi	a4,a5,15
   21a54:	04d70063          	beq	a4,a3,21a94 <__multf3+0xea8>
   21a58:	00478713          	addi	a4,a5,4
   21a5c:	04e12023          	sw	a4,64(sp)
   21a60:	04412703          	lw	a4,68(sp)
   21a64:	ffc7b793          	sltiu	a5,a5,-4
   21a68:	0017b793          	sltiu	a5,a5,1
   21a6c:	00f707b3          	add	a5,a4,a5
   21a70:	04f12223          	sw	a5,68(sp)
   21a74:	00e7b7b3          	sltu	a5,a5,a4
   21a78:	04812703          	lw	a4,72(sp)
   21a7c:	00f707b3          	add	a5,a4,a5
   21a80:	04f12423          	sw	a5,72(sp)
   21a84:	00e7b7b3          	sltu	a5,a5,a4
   21a88:	04c12703          	lw	a4,76(sp)
   21a8c:	00e787b3          	add	a5,a5,a4
   21a90:	04f12623          	sw	a5,76(sp)
   21a94:	04c12703          	lw	a4,76(sp)
   21a98:	00c71793          	slli	a5,a4,0xc
   21a9c:	0007de63          	bge	a5,zero,21ab8 <__multf3+0xecc>
   21aa0:	04012623          	sw	zero,76(sp)
   21aa4:	04012423          	sw	zero,72(sp)
   21aa8:	04012223          	sw	zero,68(sp)
   21aac:	04012023          	sw	zero,64(sp)
   21ab0:	00100793          	addi	a5,zero,1
   21ab4:	ad5ff06f          	jal	zero,21588 <__multf3+0x99c>
   21ab8:	00c50613          	addi	a2,a0,12
   21abc:	00052783          	lw	a5,0(a0)
   21ac0:	00452683          	lw	a3,4(a0)
   21ac4:	00450513          	addi	a0,a0,4
   21ac8:	0037d793          	srli	a5,a5,0x3
   21acc:	01d69693          	slli	a3,a3,0x1d
   21ad0:	00d7e7b3          	or	a5,a5,a3
   21ad4:	fef52e23          	sw	a5,-4(a0)
   21ad8:	fea612e3          	bne	a2,a0,21abc <__multf3+0xed0>
   21adc:	00375713          	srli	a4,a4,0x3
   21ae0:	04e12623          	sw	a4,76(sp)
   21ae4:	00000793          	addi	a5,zero,0
   21ae8:	aa1ff06f          	jal	zero,21588 <__multf3+0x99c>
   21aec:	04412703          	lw	a4,68(sp)
   21af0:	04012783          	lw	a5,64(sp)
   21af4:	00e7e7b3          	or	a5,a5,a4
   21af8:	04812703          	lw	a4,72(sp)
   21afc:	00e7e7b3          	or	a5,a5,a4
   21b00:	04c12703          	lw	a4,76(sp)
   21b04:	00e7e7b3          	or	a5,a5,a4
   21b08:	fc078ee3          	beq	a5,zero,21ae4 <__multf3+0xef8>
   21b0c:	e09ff06f          	jal	zero,21914 <__multf3+0xd28>
   21b10:	000087b7          	lui	a5,0x8
   21b14:	04012623          	sw	zero,76(sp)
   21b18:	04012423          	sw	zero,72(sp)
   21b1c:	04012223          	sw	zero,68(sp)
   21b20:	04012023          	sw	zero,64(sp)
   21b24:	fff78793          	addi	a5,a5,-1 # 7fff <exit-0x80b5>
   21b28:	a61ff06f          	jal	zero,21588 <__multf3+0x99c>

00021b2c <__subtf3>:
   21b2c:	fa010113          	addi	sp,sp,-96
   21b30:	0085a783          	lw	a5,8(a1)
   21b34:	04812c23          	sw	s0,88(sp)
   21b38:	00050413          	addi	s0,a0,0
   21b3c:	00c5a503          	lw	a0,12(a1)
   21b40:	0045a803          	lw	a6,4(a1)
   21b44:	0005a683          	lw	a3,0(a1)
   21b48:	02f12c23          	sw	a5,56(sp)
   21b4c:	00f12c23          	sw	a5,24(sp)
   21b50:	01051793          	slli	a5,a0,0x10
   21b54:	0107d793          	srli	a5,a5,0x10
   21b58:	00062703          	lw	a4,0(a2)
   21b5c:	00462883          	lw	a7,4(a2)
   21b60:	00862583          	lw	a1,8(a2)
   21b64:	00c62f03          	lw	t5,12(a2)
   21b68:	02a12e23          	sw	a0,60(sp)
   21b6c:	00f12e23          	sw	a5,28(sp)
   21b70:	00151793          	slli	a5,a0,0x1
   21b74:	01f55513          	srli	a0,a0,0x1f
   21b78:	04912a23          	sw	s1,84(sp)
   21b7c:	05212823          	sw	s2,80(sp)
   21b80:	03012a23          	sw	a6,52(sp)
   21b84:	01012a23          	sw	a6,20(sp)
   21b88:	04112e23          	sw	ra,92(sp)
   21b8c:	05312623          	sw	s3,76(sp)
   21b90:	05412423          	sw	s4,72(sp)
   21b94:	05512223          	sw	s5,68(sp)
   21b98:	02d12823          	sw	a3,48(sp)
   21b9c:	00d12823          	sw	a3,16(sp)
   21ba0:	0117d913          	srli	s2,a5,0x11
   21ba4:	00050493          	addi	s1,a0,0
   21ba8:	01010293          	addi	t0,sp,16
   21bac:	01c10813          	addi	a6,sp,28
   21bb0:	00082783          	lw	a5,0(a6)
   21bb4:	ffc82603          	lw	a2,-4(a6)
   21bb8:	ffc80813          	addi	a6,a6,-4
   21bbc:	00379793          	slli	a5,a5,0x3
   21bc0:	01d65613          	srli	a2,a2,0x1d
   21bc4:	00c7e7b3          	or	a5,a5,a2
   21bc8:	00f82223          	sw	a5,4(a6)
   21bcc:	ff0292e3          	bne	t0,a6,21bb0 <__subtf3+0x84>
   21bd0:	010f1793          	slli	a5,t5,0x10
   21bd4:	0107d793          	srli	a5,a5,0x10
   21bd8:	00369693          	slli	a3,a3,0x3
   21bdc:	02f12623          	sw	a5,44(sp)
   21be0:	001f1793          	slli	a5,t5,0x1
   21be4:	03e12e23          	sw	t5,60(sp)
   21be8:	00d12823          	sw	a3,16(sp)
   21bec:	02e12823          	sw	a4,48(sp)
   21bf0:	03112a23          	sw	a7,52(sp)
   21bf4:	02b12c23          	sw	a1,56(sp)
   21bf8:	02e12023          	sw	a4,32(sp)
   21bfc:	03112223          	sw	a7,36(sp)
   21c00:	02b12423          	sw	a1,40(sp)
   21c04:	0117de13          	srli	t3,a5,0x11
   21c08:	01ff5f13          	srli	t5,t5,0x1f
   21c0c:	02010f93          	addi	t6,sp,32
   21c10:	02c10313          	addi	t1,sp,44
   21c14:	00032783          	lw	a5,0(t1)
   21c18:	ffc32603          	lw	a2,-4(t1)
   21c1c:	ffc30313          	addi	t1,t1,-4
   21c20:	00379793          	slli	a5,a5,0x3
   21c24:	01d65613          	srli	a2,a2,0x1d
   21c28:	00c7e7b3          	or	a5,a5,a2
   21c2c:	00f32223          	sw	a5,4(t1)
   21c30:	fe6f92e3          	bne	t6,t1,21c14 <__subtf3+0xe8>
   21c34:	00371713          	slli	a4,a4,0x3
   21c38:	000087b7          	lui	a5,0x8
   21c3c:	02e12023          	sw	a4,32(sp)
   21c40:	fff78793          	addi	a5,a5,-1 # 7fff <exit-0x80b5>
   21c44:	02fe1063          	bne	t3,a5,21c64 <__subtf3+0x138>
   21c48:	02812603          	lw	a2,40(sp)
   21c4c:	02412783          	lw	a5,36(sp)
   21c50:	00c7e7b3          	or	a5,a5,a2
   21c54:	02c12603          	lw	a2,44(sp)
   21c58:	00c7e7b3          	or	a5,a5,a2
   21c5c:	00e7e7b3          	or	a5,a5,a4
   21c60:	00079463          	bne	a5,zero,21c68 <__subtf3+0x13c>
   21c64:	001f4f13          	xori	t5,t5,1
   21c68:	41c907b3          	sub	a5,s2,t3
   21c6c:	02af18e3          	bne	t5,a0,2249c <__subtf3+0x970>
   21c70:	38f05863          	bge	zero,a5,22000 <__subtf3+0x4d4>
   21c74:	01412803          	lw	a6,20(sp)
   21c78:	01812e83          	lw	t4,24(sp)
   21c7c:	01c12883          	lw	a7,28(sp)
   21c80:	0a0e1263          	bne	t3,zero,21d24 <__subtf3+0x1f8>
   21c84:	02412503          	lw	a0,36(sp)
   21c88:	02812583          	lw	a1,40(sp)
   21c8c:	02c12e03          	lw	t3,44(sp)
   21c90:	00b56633          	or	a2,a0,a1
   21c94:	01c66633          	or	a2,a2,t3
   21c98:	00e66633          	or	a2,a2,a4
   21c9c:	00061c63          	bne	a2,zero,21cb4 <__subtf3+0x188>
   21ca0:	02d12823          	sw	a3,48(sp)
   21ca4:	03012a23          	sw	a6,52(sp)
   21ca8:	03d12c23          	sw	t4,56(sp)
   21cac:	03112e23          	sw	a7,60(sp)
   21cb0:	0940006f          	jal	zero,21d44 <__subtf3+0x218>
   21cb4:	fff78613          	addi	a2,a5,-1
   21cb8:	04061863          	bne	a2,zero,21d08 <__subtf3+0x1dc>
   21cbc:	00e68633          	add	a2,a3,a4
   21cc0:	01050833          	add	a6,a0,a6
   21cc4:	00d636b3          	sltu	a3,a2,a3
   21cc8:	00d806b3          	add	a3,a6,a3
   21ccc:	02d12a23          	sw	a3,52(sp)
   21cd0:	00a83533          	sltu	a0,a6,a0
   21cd4:	0106b6b3          	sltu	a3,a3,a6
   21cd8:	01d58eb3          	add	t4,a1,t4
   21cdc:	00d56533          	or	a0,a0,a3
   21ce0:	00ae8533          	add	a0,t4,a0
   21ce4:	02a12c23          	sw	a0,56(sp)
   21ce8:	00beb733          	sltu	a4,t4,a1
   21cec:	01d53533          	sltu	a0,a0,t4
   21cf0:	00a76733          	or	a4,a4,a0
   21cf4:	011e0e33          	add	t3,t3,a7
   21cf8:	02c12823          	sw	a2,48(sp)
   21cfc:	01c70733          	add	a4,a4,t3
   21d00:	00100793          	addi	a5,zero,1
   21d04:	2ec0006f          	jal	zero,21ff0 <__subtf3+0x4c4>
   21d08:	00008737          	lui	a4,0x8
   21d0c:	fff70713          	addi	a4,a4,-1 # 7fff <exit-0x80b5>
   21d10:	00e78463          	beq	a5,a4,21d18 <__subtf3+0x1ec>
   21d14:	0dc0106f          	jal	zero,22df0 <__subtf3+0x12c4>
   21d18:	02d12823          	sw	a3,48(sp)
   21d1c:	03012a23          	sw	a6,52(sp)
   21d20:	3840006f          	jal	zero,220a4 <__subtf3+0x578>
   21d24:	00008737          	lui	a4,0x8
   21d28:	fff70713          	addi	a4,a4,-1 # 7fff <exit-0x80b5>
   21d2c:	16e91263          	bne	s2,a4,21e90 <__subtf3+0x364>
   21d30:	02d12823          	sw	a3,48(sp)
   21d34:	03012a23          	sw	a6,52(sp)
   21d38:	03d12c23          	sw	t4,56(sp)
   21d3c:	03112e23          	sw	a7,60(sp)
   21d40:	00090793          	addi	a5,s2,0
   21d44:	03012703          	lw	a4,48(sp)
   21d48:	00777693          	andi	a3,a4,7
   21d4c:	04068663          	beq	a3,zero,21d98 <__subtf3+0x26c>
   21d50:	00f77693          	andi	a3,a4,15
   21d54:	00400613          	addi	a2,zero,4
   21d58:	04c68063          	beq	a3,a2,21d98 <__subtf3+0x26c>
   21d5c:	00c706b3          	add	a3,a4,a2
   21d60:	02d12823          	sw	a3,48(sp)
   21d64:	03412683          	lw	a3,52(sp)
   21d68:	ffc73713          	sltiu	a4,a4,-4
   21d6c:	00173713          	sltiu	a4,a4,1
   21d70:	00e68733          	add	a4,a3,a4
   21d74:	02e12a23          	sw	a4,52(sp)
   21d78:	00d73733          	sltu	a4,a4,a3
   21d7c:	03812683          	lw	a3,56(sp)
   21d80:	00e68733          	add	a4,a3,a4
   21d84:	02e12c23          	sw	a4,56(sp)
   21d88:	00d73733          	sltu	a4,a4,a3
   21d8c:	03c12683          	lw	a3,60(sp)
   21d90:	00d70733          	add	a4,a4,a3
   21d94:	02e12e23          	sw	a4,60(sp)
   21d98:	03c12703          	lw	a4,60(sp)
   21d9c:	00c71693          	slli	a3,a4,0xc
   21da0:	0206d463          	bge	a3,zero,21dc8 <__subtf3+0x29c>
   21da4:	000086b7          	lui	a3,0x8
   21da8:	00178793          	addi	a5,a5,1
   21dac:	fff68693          	addi	a3,a3,-1 # 7fff <exit-0x80b5>
   21db0:	00d79463          	bne	a5,a3,21db8 <__subtf3+0x28c>
   21db4:	0240106f          	jal	zero,22dd8 <__subtf3+0x12ac>
   21db8:	fff806b7          	lui	a3,0xfff80
   21dbc:	fff68693          	addi	a3,a3,-1 # fff7ffff <__BSS_END__+0xffe6bc67>
   21dc0:	00d77733          	and	a4,a4,a3
   21dc4:	02e12e23          	sw	a4,60(sp)
   21dc8:	03010693          	addi	a3,sp,48
   21dcc:	03c10513          	addi	a0,sp,60
   21dd0:	0006a603          	lw	a2,0(a3)
   21dd4:	0046a583          	lw	a1,4(a3)
   21dd8:	00468693          	addi	a3,a3,4
   21ddc:	00365613          	srli	a2,a2,0x3
   21de0:	01d59593          	slli	a1,a1,0x1d
   21de4:	00b66633          	or	a2,a2,a1
   21de8:	fec6ae23          	sw	a2,-4(a3)
   21dec:	fed512e3          	bne	a0,a3,21dd0 <__subtf3+0x2a4>
   21df0:	00008637          	lui	a2,0x8
   21df4:	fff60693          	addi	a3,a2,-1 # 7fff <exit-0x80b5>
   21df8:	00375713          	srli	a4,a4,0x3
   21dfc:	02d79a63          	bne	a5,a3,21e30 <__subtf3+0x304>
   21e00:	03412583          	lw	a1,52(sp)
   21e04:	03012683          	lw	a3,48(sp)
   21e08:	00b6e6b3          	or	a3,a3,a1
   21e0c:	03812583          	lw	a1,56(sp)
   21e10:	00b6e6b3          	or	a3,a3,a1
   21e14:	00d76733          	or	a4,a4,a3
   21e18:	00070c63          	beq	a4,zero,21e30 <__subtf3+0x304>
   21e1c:	02012c23          	sw	zero,56(sp)
   21e20:	02012a23          	sw	zero,52(sp)
   21e24:	02012823          	sw	zero,48(sp)
   21e28:	00060713          	addi	a4,a2,0
   21e2c:	00000493          	addi	s1,zero,0
   21e30:	01179793          	slli	a5,a5,0x11
   21e34:	0117d793          	srli	a5,a5,0x11
   21e38:	00f49493          	slli	s1,s1,0xf
   21e3c:	00f4e4b3          	or	s1,s1,a5
   21e40:	03012783          	lw	a5,48(sp)
   21e44:	00911723          	sh	s1,14(sp)
   21e48:	00e11623          	sh	a4,12(sp)
   21e4c:	00f42023          	sw	a5,0(s0)
   21e50:	03412783          	lw	a5,52(sp)
   21e54:	05c12083          	lw	ra,92(sp)
   21e58:	00040513          	addi	a0,s0,0
   21e5c:	00f42223          	sw	a5,4(s0)
   21e60:	03812783          	lw	a5,56(sp)
   21e64:	05412483          	lw	s1,84(sp)
   21e68:	05012903          	lw	s2,80(sp)
   21e6c:	00f42423          	sw	a5,8(s0)
   21e70:	00c12783          	lw	a5,12(sp)
   21e74:	04c12983          	lw	s3,76(sp)
   21e78:	04812a03          	lw	s4,72(sp)
   21e7c:	00f42623          	sw	a5,12(s0)
   21e80:	05812403          	lw	s0,88(sp)
   21e84:	04412a83          	lw	s5,68(sp)
   21e88:	06010113          	addi	sp,sp,96
   21e8c:	00008067          	jalr	zero,0(ra)
   21e90:	02c12703          	lw	a4,44(sp)
   21e94:	00080637          	lui	a2,0x80
   21e98:	00c76733          	or	a4,a4,a2
   21e9c:	02e12623          	sw	a4,44(sp)
   21ea0:	07400713          	addi	a4,zero,116
   21ea4:	74f74ae3          	blt	a4,a5,22df8 <__subtf3+0x12cc>
   21ea8:	00078613          	addi	a2,a5,0
   21eac:	40565793          	srai	a5,a2,0x5
   21eb0:	01f67e13          	andi	t3,a2,31
   21eb4:	00030593          	addi	a1,t1,0
   21eb8:	00000613          	addi	a2,zero,0
   21ebc:	00000713          	addi	a4,zero,0
   21ec0:	02f71c63          	bne	a4,a5,21ef8 <__subtf3+0x3cc>
   21ec4:	00300713          	addi	a4,zero,3
   21ec8:	40f70733          	sub	a4,a4,a5
   21ecc:	00279393          	slli	t2,a5,0x2
   21ed0:	020e1e63          	bne	t3,zero,21f0c <__subtf3+0x3e0>
   21ed4:	007305b3          	add	a1,t1,t2
   21ed8:	0005a583          	lw	a1,0(a1)
   21edc:	001e0e13          	addi	t3,t3,1
   21ee0:	00430313          	addi	t1,t1,4
   21ee4:	feb32e23          	sw	a1,-4(t1)
   21ee8:	ffc756e3          	bge	a4,t3,21ed4 <__subtf3+0x3a8>
   21eec:	00400713          	addi	a4,zero,4
   21ef0:	40f707b3          	sub	a5,a4,a5
   21ef4:	0580006f          	jal	zero,21f4c <__subtf3+0x420>
   21ef8:	0005a503          	lw	a0,0(a1)
   21efc:	00170713          	addi	a4,a4,1
   21f00:	00458593          	addi	a1,a1,4
   21f04:	00a66633          	or	a2,a2,a0
   21f08:	fb9ff06f          	jal	zero,21ec0 <__subtf3+0x394>
   21f0c:	007f85b3          	add	a1,t6,t2
   21f10:	0005a583          	lw	a1,0(a1)
   21f14:	02000513          	addi	a0,zero,32
   21f18:	41c50533          	sub	a0,a0,t3
   21f1c:	00a595b3          	sll	a1,a1,a0
   21f20:	00b66633          	or	a2,a2,a1
   21f24:	00730333          	add	t1,t1,t2
   21f28:	00000f13          	addi	t5,zero,0
   21f2c:	02ef4463          	blt	t5,a4,21f54 <__subtf3+0x428>
   21f30:	00400593          	addi	a1,zero,4
   21f34:	40f587b3          	sub	a5,a1,a5
   21f38:	02c12583          	lw	a1,44(sp)
   21f3c:	00271713          	slli	a4,a4,0x2
   21f40:	00ef8733          	add	a4,t6,a4
   21f44:	01c5d5b3          	srl	a1,a1,t3
   21f48:	00b72023          	sw	a1,0(a4)
   21f4c:	00400593          	addi	a1,zero,4
   21f50:	03c0006f          	jal	zero,21f8c <__subtf3+0x460>
   21f54:	00032583          	lw	a1,0(t1)
   21f58:	00432283          	lw	t0,4(t1)
   21f5c:	407309b3          	sub	s3,t1,t2
   21f60:	01c5d5b3          	srl	a1,a1,t3
   21f64:	00a292b3          	sll	t0,t0,a0
   21f68:	0055e5b3          	or	a1,a1,t0
   21f6c:	00b9a023          	sw	a1,0(s3)
   21f70:	001f0f13          	addi	t5,t5,1
   21f74:	00430313          	addi	t1,t1,4
   21f78:	fb5ff06f          	jal	zero,21f2c <__subtf3+0x400>
   21f7c:	00279713          	slli	a4,a5,0x2
   21f80:	00ef8733          	add	a4,t6,a4
   21f84:	00072023          	sw	zero,0(a4)
   21f88:	00178793          	addi	a5,a5,1
   21f8c:	feb798e3          	bne	a5,a1,21f7c <__subtf3+0x450>
   21f90:	02012783          	lw	a5,32(sp)
   21f94:	00c03633          	sltu	a2,zero,a2
   21f98:	00f66633          	or	a2,a2,a5
   21f9c:	02412783          	lw	a5,36(sp)
   21fa0:	00c68633          	add	a2,a3,a2
   21fa4:	02812703          	lw	a4,40(sp)
   21fa8:	01078833          	add	a6,a5,a6
   21fac:	00d636b3          	sltu	a3,a2,a3
   21fb0:	00d806b3          	add	a3,a6,a3
   21fb4:	02d12a23          	sw	a3,52(sp)
   21fb8:	00f837b3          	sltu	a5,a6,a5
   21fbc:	0106b6b3          	sltu	a3,a3,a6
   21fc0:	01d70eb3          	add	t4,a4,t4
   21fc4:	00d7e7b3          	or	a5,a5,a3
   21fc8:	00fe87b3          	add	a5,t4,a5
   21fcc:	02f12c23          	sw	a5,56(sp)
   21fd0:	00eeb733          	sltu	a4,t4,a4
   21fd4:	01d7b7b3          	sltu	a5,a5,t4
   21fd8:	00f76733          	or	a4,a4,a5
   21fdc:	02c12783          	lw	a5,44(sp)
   21fe0:	02c12823          	sw	a2,48(sp)
   21fe4:	00f887b3          	add	a5,a7,a5
   21fe8:	00f70733          	add	a4,a4,a5
   21fec:	00090793          	addi	a5,s2,0
   21ff0:	00c71693          	slli	a3,a4,0xc
   21ff4:	4406c063          	blt	a3,zero,22434 <__subtf3+0x908>
   21ff8:	02e12e23          	sw	a4,60(sp)
   21ffc:	d49ff06f          	jal	zero,21d44 <__subtf3+0x218>
   22000:	02412583          	lw	a1,36(sp)
   22004:	02812e83          	lw	t4,40(sp)
   22008:	02c12883          	lw	a7,44(sp)
   2200c:	22078e63          	beq	a5,zero,22248 <__subtf3+0x71c>
   22010:	412e07b3          	sub	a5,t3,s2
   22014:	0a091663          	bne	s2,zero,220c0 <__subtf3+0x594>
   22018:	01412303          	lw	t1,20(sp)
   2201c:	01812503          	lw	a0,24(sp)
   22020:	01c12f03          	lw	t5,28(sp)
   22024:	00a36633          	or	a2,t1,a0
   22028:	01e66633          	or	a2,a2,t5
   2202c:	00d66633          	or	a2,a2,a3
   22030:	00061863          	bne	a2,zero,22040 <__subtf3+0x514>
   22034:	02e12823          	sw	a4,48(sp)
   22038:	02b12a23          	sw	a1,52(sp)
   2203c:	c6dff06f          	jal	zero,21ca8 <__subtf3+0x17c>
   22040:	fff78913          	addi	s2,a5,-1
   22044:	04091663          	bne	s2,zero,22090 <__subtf3+0x564>
   22048:	00e68633          	add	a2,a3,a4
   2204c:	00b305b3          	add	a1,t1,a1
   22050:	00d636b3          	sltu	a3,a2,a3
   22054:	00d586b3          	add	a3,a1,a3
   22058:	02d12a23          	sw	a3,52(sp)
   2205c:	0065b333          	sltu	t1,a1,t1
   22060:	00b6b6b3          	sltu	a3,a3,a1
   22064:	01d50eb3          	add	t4,a0,t4
   22068:	00d36333          	or	t1,t1,a3
   2206c:	006e8333          	add	t1,t4,t1
   22070:	02612c23          	sw	t1,56(sp)
   22074:	00aeb733          	sltu	a4,t4,a0
   22078:	01d33333          	sltu	t1,t1,t4
   2207c:	00676733          	or	a4,a4,t1
   22080:	011f07b3          	add	a5,t5,a7
   22084:	02c12823          	sw	a2,48(sp)
   22088:	00f70733          	add	a4,a4,a5
   2208c:	c75ff06f          	jal	zero,21d00 <__subtf3+0x1d4>
   22090:	000086b7          	lui	a3,0x8
   22094:	fff68693          	addi	a3,a3,-1 # 7fff <exit-0x80b5>
   22098:	56d79ae3          	bne	a5,a3,22e0c <__subtf3+0x12e0>
   2209c:	02e12823          	sw	a4,48(sp)
   220a0:	02b12a23          	sw	a1,52(sp)
   220a4:	03d12c23          	sw	t4,56(sp)
   220a8:	03112e23          	sw	a7,60(sp)
   220ac:	000087b7          	lui	a5,0x8
   220b0:	fff78793          	addi	a5,a5,-1 # 7fff <exit-0x80b5>
   220b4:	c91ff06f          	jal	zero,21d44 <__subtf3+0x218>
   220b8:	00068713          	addi	a4,a3,0
   220bc:	fe1ff06f          	jal	zero,2209c <__subtf3+0x570>
   220c0:	000086b7          	lui	a3,0x8
   220c4:	fff68693          	addi	a3,a3,-1 # 7fff <exit-0x80b5>
   220c8:	fcde0ae3          	beq	t3,a3,2209c <__subtf3+0x570>
   220cc:	01c12683          	lw	a3,28(sp)
   220d0:	00080637          	lui	a2,0x80
   220d4:	00c6e6b3          	or	a3,a3,a2
   220d8:	00d12e23          	sw	a3,28(sp)
   220dc:	07400693          	addi	a3,zero,116
   220e0:	52f6cae3          	blt	a3,a5,22e14 <__subtf3+0x12e8>
   220e4:	00078913          	addi	s2,a5,0
   220e8:	02000793          	addi	a5,zero,32
   220ec:	02f947b3          	div	a5,s2,a5
   220f0:	00080513          	addi	a0,a6,0
   220f4:	00000613          	addi	a2,zero,0
   220f8:	00000693          	addi	a3,zero,0
   220fc:	02f6ce63          	blt	a3,a5,22138 <__subtf3+0x60c>
   22100:	00300693          	addi	a3,zero,3
   22104:	01f97f13          	andi	t5,s2,31
   22108:	40f68333          	sub	t1,a3,a5
   2210c:	00279393          	slli	t2,a5,0x2
   22110:	020f1e63          	bne	t5,zero,2214c <__subtf3+0x620>
   22114:	007806b3          	add	a3,a6,t2
   22118:	0006a683          	lw	a3,0(a3)
   2211c:	001f0f13          	addi	t5,t5,1
   22120:	00480813          	addi	a6,a6,4
   22124:	fed82e23          	sw	a3,-4(a6)
   22128:	ffe356e3          	bge	t1,t5,22114 <__subtf3+0x5e8>
   2212c:	00400693          	addi	a3,zero,4
   22130:	40f687b3          	sub	a5,a3,a5
   22134:	06c0006f          	jal	zero,221a0 <__subtf3+0x674>
   22138:	00052303          	lw	t1,0(a0)
   2213c:	00168693          	addi	a3,a3,1
   22140:	00450513          	addi	a0,a0,4
   22144:	00666633          	or	a2,a2,t1
   22148:	fb5ff06f          	jal	zero,220fc <__subtf3+0x5d0>
   2214c:	02000f93          	addi	t6,zero,32
   22150:	03f96933          	rem	s2,s2,t6
   22154:	fff7c693          	xori	a3,a5,-1
   22158:	41f6d693          	srai	a3,a3,0x1f
   2215c:	00d7f6b3          	and	a3,a5,a3
   22160:	00269693          	slli	a3,a3,0x2
   22164:	00d286b3          	add	a3,t0,a3
   22168:	0006a683          	lw	a3,0(a3)
   2216c:	00780833          	add	a6,a6,t2
   22170:	412f8fb3          	sub	t6,t6,s2
   22174:	01f696b3          	sll	a3,a3,t6
   22178:	00d66633          	or	a2,a2,a3
   2217c:	00000693          	addi	a3,zero,0
   22180:	0266c463          	blt	a3,t1,221a8 <__subtf3+0x67c>
   22184:	01c12503          	lw	a0,28(sp)
   22188:	00400693          	addi	a3,zero,4
   2218c:	40f687b3          	sub	a5,a3,a5
   22190:	00231693          	slli	a3,t1,0x2
   22194:	00d286b3          	add	a3,t0,a3
   22198:	01e55533          	srl	a0,a0,t5
   2219c:	00a6a023          	sw	a0,0(a3)
   221a0:	00300513          	addi	a0,zero,3
   221a4:	03c0006f          	jal	zero,221e0 <__subtf3+0x6b4>
   221a8:	00082503          	lw	a0,0(a6)
   221ac:	00482903          	lw	s2,4(a6)
   221b0:	407809b3          	sub	s3,a6,t2
   221b4:	01e55533          	srl	a0,a0,t5
   221b8:	01f91933          	sll	s2,s2,t6
   221bc:	01256533          	or	a0,a0,s2
   221c0:	00a9a023          	sw	a0,0(s3)
   221c4:	00168693          	addi	a3,a3,1
   221c8:	00480813          	addi	a6,a6,4
   221cc:	fb5ff06f          	jal	zero,22180 <__subtf3+0x654>
   221d0:	00279693          	slli	a3,a5,0x2
   221d4:	00d286b3          	add	a3,t0,a3
   221d8:	0006a023          	sw	zero,0(a3)
   221dc:	00178793          	addi	a5,a5,1
   221e0:	fef558e3          	bge	a0,a5,221d0 <__subtf3+0x6a4>
   221e4:	01012783          	lw	a5,16(sp)
   221e8:	00c03633          	sltu	a2,zero,a2
   221ec:	00f66633          	or	a2,a2,a5
   221f0:	01412683          	lw	a3,20(sp)
   221f4:	01812783          	lw	a5,24(sp)
   221f8:	00c70633          	add	a2,a4,a2
   221fc:	00b685b3          	add	a1,a3,a1
   22200:	00e63733          	sltu	a4,a2,a4
   22204:	00e58733          	add	a4,a1,a4
   22208:	01d78eb3          	add	t4,a5,t4
   2220c:	02e12a23          	sw	a4,52(sp)
   22210:	00d5b6b3          	sltu	a3,a1,a3
   22214:	00b73733          	sltu	a4,a4,a1
   22218:	00e6e6b3          	or	a3,a3,a4
   2221c:	00feb733          	sltu	a4,t4,a5
   22220:	01c12783          	lw	a5,28(sp)
   22224:	00de86b3          	add	a3,t4,a3
   22228:	02d12c23          	sw	a3,56(sp)
   2222c:	01d6b6b3          	sltu	a3,a3,t4
   22230:	00f887b3          	add	a5,a7,a5
   22234:	00d76733          	or	a4,a4,a3
   22238:	00f70733          	add	a4,a4,a5
   2223c:	02c12823          	sw	a2,48(sp)
   22240:	000e0793          	addi	a5,t3,0
   22244:	dadff06f          	jal	zero,21ff0 <__subtf3+0x4c4>
   22248:	00190793          	addi	a5,s2,1
   2224c:	01179513          	slli	a0,a5,0x11
   22250:	01255513          	srli	a0,a0,0x12
   22254:	01412603          	lw	a2,20(sp)
   22258:	01812303          	lw	t1,24(sp)
   2225c:	01c12803          	lw	a6,28(sp)
   22260:	03010e13          	addi	t3,sp,48
   22264:	03c10f13          	addi	t5,sp,60
   22268:	12051e63          	bne	a0,zero,223a4 <__subtf3+0x878>
   2226c:	006667b3          	or	a5,a2,t1
   22270:	0107e7b3          	or	a5,a5,a6
   22274:	00d7e7b3          	or	a5,a5,a3
   22278:	0a091463          	bne	s2,zero,22320 <__subtf3+0x7f4>
   2227c:	00079a63          	bne	a5,zero,22290 <__subtf3+0x764>
   22280:	02e12823          	sw	a4,48(sp)
   22284:	02b12a23          	sw	a1,52(sp)
   22288:	03d12c23          	sw	t4,56(sp)
   2228c:	0240006f          	jal	zero,222b0 <__subtf3+0x784>
   22290:	01d5e7b3          	or	a5,a1,t4
   22294:	0117e7b3          	or	a5,a5,a7
   22298:	00e7e7b3          	or	a5,a5,a4
   2229c:	02079063          	bne	a5,zero,222bc <__subtf3+0x790>
   222a0:	02d12823          	sw	a3,48(sp)
   222a4:	02c12a23          	sw	a2,52(sp)
   222a8:	02612c23          	sw	t1,56(sp)
   222ac:	00080893          	addi	a7,a6,0
   222b0:	03112e23          	sw	a7,60(sp)
   222b4:	00000793          	addi	a5,zero,0
   222b8:	a8dff06f          	jal	zero,21d44 <__subtf3+0x218>
   222bc:	00e687b3          	add	a5,a3,a4
   222c0:	00b605b3          	add	a1,a2,a1
   222c4:	02f12823          	sw	a5,48(sp)
   222c8:	00d7b7b3          	sltu	a5,a5,a3
   222cc:	00f587b3          	add	a5,a1,a5
   222d0:	00c5b6b3          	sltu	a3,a1,a2
   222d4:	02f12a23          	sw	a5,52(sp)
   222d8:	00b7b7b3          	sltu	a5,a5,a1
   222dc:	01d30eb3          	add	t4,t1,t4
   222e0:	00f6e6b3          	or	a3,a3,a5
   222e4:	00de86b3          	add	a3,t4,a3
   222e8:	02d12c23          	sw	a3,56(sp)
   222ec:	006eb733          	sltu	a4,t4,t1
   222f0:	01d6b6b3          	sltu	a3,a3,t4
   222f4:	00d76733          	or	a4,a4,a3
   222f8:	01180633          	add	a2,a6,a7
   222fc:	00c708b3          	add	a7,a4,a2
   22300:	00c89793          	slli	a5,a7,0xc
   22304:	fa07d6e3          	bge	a5,zero,222b0 <__subtf3+0x784>
   22308:	fff807b7          	lui	a5,0xfff80
   2230c:	fff78793          	addi	a5,a5,-1 # fff7ffff <__BSS_END__+0xffe6bc67>
   22310:	00f8f7b3          	and	a5,a7,a5
   22314:	02f12e23          	sw	a5,60(sp)
   22318:	00100793          	addi	a5,zero,1
   2231c:	a29ff06f          	jal	zero,21d44 <__subtf3+0x218>
   22320:	02078463          	beq	a5,zero,22348 <__subtf3+0x81c>
   22324:	01d5e5b3          	or	a1,a1,t4
   22328:	0115e5b3          	or	a1,a1,a7
   2232c:	00e5e5b3          	or	a1,a1,a4
   22330:	02059663          	bne	a1,zero,2235c <__subtf3+0x830>
   22334:	02d12823          	sw	a3,48(sp)
   22338:	02c12a23          	sw	a2,52(sp)
   2233c:	02612c23          	sw	t1,56(sp)
   22340:	03012e23          	sw	a6,60(sp)
   22344:	d69ff06f          	jal	zero,220ac <__subtf3+0x580>
   22348:	00070693          	addi	a3,a4,0
   2234c:	00058613          	addi	a2,a1,0
   22350:	000e8313          	addi	t1,t4,0
   22354:	00088813          	addi	a6,a7,0 # 10000 <exit-0xb4>
   22358:	fddff06f          	jal	zero,22334 <__subtf3+0x808>
   2235c:	000087b7          	lui	a5,0x8
   22360:	02f12e23          	sw	a5,60(sp)
   22364:	02012c23          	sw	zero,56(sp)
   22368:	02012a23          	sw	zero,52(sp)
   2236c:	02012823          	sw	zero,48(sp)
   22370:	000f0793          	addi	a5,t5,0
   22374:	0007a703          	lw	a4,0(a5) # 8000 <exit-0x80b4>
   22378:	ffc7a683          	lw	a3,-4(a5)
   2237c:	ffc78793          	addi	a5,a5,-4
   22380:	00371713          	slli	a4,a4,0x3
   22384:	01d6d693          	srli	a3,a3,0x1d
   22388:	00d76733          	or	a4,a4,a3
   2238c:	00e7a223          	sw	a4,4(a5)
   22390:	fefe12e3          	bne	t3,a5,22374 <__subtf3+0x848>
   22394:	000087b7          	lui	a5,0x8
   22398:	fff78793          	addi	a5,a5,-1 # 7fff <exit-0x80b5>
   2239c:	00000493          	addi	s1,zero,0
   223a0:	9a5ff06f          	jal	zero,21d44 <__subtf3+0x218>
   223a4:	00e68533          	add	a0,a3,a4
   223a8:	00b605b3          	add	a1,a2,a1
   223ac:	02a12823          	sw	a0,48(sp)
   223b0:	00d53533          	sltu	a0,a0,a3
   223b4:	00a58533          	add	a0,a1,a0
   223b8:	00c5b6b3          	sltu	a3,a1,a2
   223bc:	02a12a23          	sw	a0,52(sp)
   223c0:	00b53533          	sltu	a0,a0,a1
   223c4:	01d30eb3          	add	t4,t1,t4
   223c8:	00a6e6b3          	or	a3,a3,a0
   223cc:	00de86b3          	add	a3,t4,a3
   223d0:	02d12c23          	sw	a3,56(sp)
   223d4:	006eb733          	sltu	a4,t4,t1
   223d8:	01d6b6b3          	sltu	a3,a3,t4
   223dc:	00d76733          	or	a4,a4,a3
   223e0:	01180633          	add	a2,a6,a7
   223e4:	00c70733          	add	a4,a4,a2
   223e8:	02e12e23          	sw	a4,60(sp)
   223ec:	000e0693          	addi	a3,t3,0
   223f0:	0006a603          	lw	a2,0(a3)
   223f4:	0046a583          	lw	a1,4(a3)
   223f8:	00468693          	addi	a3,a3,4
   223fc:	00165613          	srli	a2,a2,0x1
   22400:	01f59593          	slli	a1,a1,0x1f
   22404:	00b66633          	or	a2,a2,a1
   22408:	fec6ae23          	sw	a2,-4(a3)
   2240c:	fedf12e3          	bne	t5,a3,223f0 <__subtf3+0x8c4>
   22410:	000086b7          	lui	a3,0x8
   22414:	fff68693          	addi	a3,a3,-1 # 7fff <exit-0x80b5>
   22418:	00175713          	srli	a4,a4,0x1
   2241c:	bcd79ee3          	bne	a5,a3,21ff8 <__subtf3+0x4cc>
   22420:	02012e23          	sw	zero,60(sp)
   22424:	02012c23          	sw	zero,56(sp)
   22428:	02012a23          	sw	zero,52(sp)
   2242c:	02012823          	sw	zero,48(sp)
   22430:	915ff06f          	jal	zero,21d44 <__subtf3+0x218>
   22434:	fff806b7          	lui	a3,0xfff80
   22438:	fff68693          	addi	a3,a3,-1 # fff7ffff <__BSS_END__+0xffe6bc67>
   2243c:	00d77733          	and	a4,a4,a3
   22440:	02e12e23          	sw	a4,60(sp)
   22444:	00178793          	addi	a5,a5,1
   22448:	01f61613          	slli	a2,a2,0x1f
   2244c:	03010693          	addi	a3,sp,48
   22450:	03c10813          	addi	a6,sp,60
   22454:	0006a583          	lw	a1,0(a3)
   22458:	0046a503          	lw	a0,4(a3)
   2245c:	00468693          	addi	a3,a3,4
   22460:	0015d593          	srli	a1,a1,0x1
   22464:	01f51513          	slli	a0,a0,0x1f
   22468:	00a5e5b3          	or	a1,a1,a0
   2246c:	feb6ae23          	sw	a1,-4(a3)
   22470:	fed812e3          	bne	a6,a3,22454 <__subtf3+0x928>
   22474:	00175713          	srli	a4,a4,0x1
   22478:	02e12e23          	sw	a4,60(sp)
   2247c:	03012703          	lw	a4,48(sp)
   22480:	01f65613          	srli	a2,a2,0x1f
   22484:	00c76733          	or	a4,a4,a2
   22488:	02e12823          	sw	a4,48(sp)
   2248c:	00008737          	lui	a4,0x8
   22490:	fff70713          	addi	a4,a4,-1 # 7fff <exit-0x80b5>
   22494:	8ae798e3          	bne	a5,a4,21d44 <__subtf3+0x218>
   22498:	f89ff06f          	jal	zero,22420 <__subtf3+0x8f4>
   2249c:	24f05c63          	bge	zero,a5,226f4 <__subtf3+0xbc8>
   224a0:	01412583          	lw	a1,20(sp)
   224a4:	01812e83          	lw	t4,24(sp)
   224a8:	01c12883          	lw	a7,28(sp)
   224ac:	0a0e1463          	bne	t3,zero,22554 <__subtf3+0xa28>
   224b0:	02412e03          	lw	t3,36(sp)
   224b4:	02812f03          	lw	t5,40(sp)
   224b8:	02c12503          	lw	a0,44(sp)
   224bc:	01ee6633          	or	a2,t3,t5
   224c0:	00a66633          	or	a2,a2,a0
   224c4:	00e66633          	or	a2,a2,a4
   224c8:	00061663          	bne	a2,zero,224d4 <__subtf3+0x9a8>
   224cc:	02d12823          	sw	a3,48(sp)
   224d0:	b69ff06f          	jal	zero,22038 <__subtf3+0x50c>
   224d4:	fff78613          	addi	a2,a5,-1
   224d8:	04061a63          	bne	a2,zero,2252c <__subtf3+0xa00>
   224dc:	41c587b3          	sub	a5,a1,t3
   224e0:	40e68633          	sub	a2,a3,a4
   224e4:	40be0e33          	sub	t3,t3,a1
   224e8:	00c6b6b3          	sltu	a3,a3,a2
   224ec:	001e3e13          	sltiu	t3,t3,1
   224f0:	40d78833          	sub	a6,a5,a3
   224f4:	01c6f6b3          	and	a3,a3,t3
   224f8:	00f5b7b3          	sltu	a5,a1,a5
   224fc:	00d7e7b3          	or	a5,a5,a3
   22500:	41df06b3          	sub	a3,t5,t4
   22504:	41ee85b3          	sub	a1,t4,t5
   22508:	0016b693          	sltiu	a3,a3,1
   2250c:	40f58733          	sub	a4,a1,a5
   22510:	00d7f7b3          	and	a5,a5,a3
   22514:	00beb5b3          	sltu	a1,t4,a1
   22518:	40a88533          	sub	a0,a7,a0
   2251c:	00f5e5b3          	or	a1,a1,a5
   22520:	40b50533          	sub	a0,a0,a1
   22524:	00100793          	addi	a5,zero,1
   22528:	19c0006f          	jal	zero,226c4 <__subtf3+0xb98>
   2252c:	00008737          	lui	a4,0x8
   22530:	fff70713          	addi	a4,a4,-1 # 7fff <exit-0x80b5>
   22534:	f8e78ce3          	beq	a5,a4,224cc <__subtf3+0x9a0>
   22538:	07400793          	addi	a5,zero,116
   2253c:	04c7d063          	bge	a5,a2,2257c <__subtf3+0xa50>
   22540:	02012623          	sw	zero,44(sp)
   22544:	02012423          	sw	zero,40(sp)
   22548:	02012223          	sw	zero,36(sp)
   2254c:	00100613          	addi	a2,zero,1
   22550:	11c0006f          	jal	zero,2266c <__subtf3+0xb40>
   22554:	00008737          	lui	a4,0x8
   22558:	fff70713          	addi	a4,a4,-1 # 7fff <exit-0x80b5>
   2255c:	b4e90ee3          	beq	s2,a4,220b8 <__subtf3+0x58c>
   22560:	02c12703          	lw	a4,44(sp)
   22564:	00080637          	lui	a2,0x80
   22568:	00c76733          	or	a4,a4,a2
   2256c:	02e12623          	sw	a4,44(sp)
   22570:	07400713          	addi	a4,zero,116
   22574:	fcf746e3          	blt	a4,a5,22540 <__subtf3+0xa14>
   22578:	00078613          	addi	a2,a5,0
   2257c:	40565793          	srai	a5,a2,0x5
   22580:	01f67e13          	andi	t3,a2,31
   22584:	00030513          	addi	a0,t1,0
   22588:	00000613          	addi	a2,zero,0
   2258c:	00000713          	addi	a4,zero,0
   22590:	02f71c63          	bne	a4,a5,225c8 <__subtf3+0xa9c>
   22594:	00300713          	addi	a4,zero,3
   22598:	40f70733          	sub	a4,a4,a5
   2259c:	00279393          	slli	t2,a5,0x2
   225a0:	020e1e63          	bne	t3,zero,225dc <__subtf3+0xab0>
   225a4:	00730533          	add	a0,t1,t2
   225a8:	00052503          	lw	a0,0(a0)
   225ac:	001e0e13          	addi	t3,t3,1
   225b0:	00430313          	addi	t1,t1,4
   225b4:	fea32e23          	sw	a0,-4(t1)
   225b8:	ffc756e3          	bge	a4,t3,225a4 <__subtf3+0xa78>
   225bc:	00400713          	addi	a4,zero,4
   225c0:	40f707b3          	sub	a5,a4,a5
   225c4:	0580006f          	jal	zero,2261c <__subtf3+0xaf0>
   225c8:	00052803          	lw	a6,0(a0)
   225cc:	00170713          	addi	a4,a4,1
   225d0:	00450513          	addi	a0,a0,4
   225d4:	01066633          	or	a2,a2,a6
   225d8:	fb9ff06f          	jal	zero,22590 <__subtf3+0xa64>
   225dc:	007f8533          	add	a0,t6,t2
   225e0:	00052503          	lw	a0,0(a0)
   225e4:	02000813          	addi	a6,zero,32
   225e8:	41c80833          	sub	a6,a6,t3
   225ec:	01051533          	sll	a0,a0,a6
   225f0:	00a66633          	or	a2,a2,a0
   225f4:	00730333          	add	t1,t1,t2
   225f8:	00000f13          	addi	t5,zero,0
   225fc:	02ef4463          	blt	t5,a4,22624 <__subtf3+0xaf8>
   22600:	00400513          	addi	a0,zero,4
   22604:	40f507b3          	sub	a5,a0,a5
   22608:	02c12503          	lw	a0,44(sp)
   2260c:	00271713          	slli	a4,a4,0x2
   22610:	00ef8733          	add	a4,t6,a4
   22614:	01c55533          	srl	a0,a0,t3
   22618:	00a72023          	sw	a0,0(a4)
   2261c:	00400513          	addi	a0,zero,4
   22620:	03c0006f          	jal	zero,2265c <__subtf3+0xb30>
   22624:	00032503          	lw	a0,0(t1)
   22628:	00432283          	lw	t0,4(t1)
   2262c:	407309b3          	sub	s3,t1,t2
   22630:	01c55533          	srl	a0,a0,t3
   22634:	010292b3          	sll	t0,t0,a6
   22638:	00556533          	or	a0,a0,t0
   2263c:	00a9a023          	sw	a0,0(s3)
   22640:	001f0f13          	addi	t5,t5,1
   22644:	00430313          	addi	t1,t1,4
   22648:	fb5ff06f          	jal	zero,225fc <__subtf3+0xad0>
   2264c:	00279713          	slli	a4,a5,0x2
   22650:	00ef8733          	add	a4,t6,a4
   22654:	00072023          	sw	zero,0(a4)
   22658:	00178793          	addi	a5,a5,1
   2265c:	fea798e3          	bne	a5,a0,2264c <__subtf3+0xb20>
   22660:	02012783          	lw	a5,32(sp)
   22664:	00c03633          	sltu	a2,zero,a2
   22668:	00f66633          	or	a2,a2,a5
   2266c:	02412703          	lw	a4,36(sp)
   22670:	40c68633          	sub	a2,a3,a2
   22674:	00c6b6b3          	sltu	a3,a3,a2
   22678:	40e587b3          	sub	a5,a1,a4
   2267c:	40d78833          	sub	a6,a5,a3
   22680:	40b70733          	sub	a4,a4,a1
   22684:	00f5b7b3          	sltu	a5,a1,a5
   22688:	02812583          	lw	a1,40(sp)
   2268c:	00173713          	sltiu	a4,a4,1
   22690:	00e6f6b3          	and	a3,a3,a4
   22694:	00d7e7b3          	or	a5,a5,a3
   22698:	02c12503          	lw	a0,44(sp)
   2269c:	40be86b3          	sub	a3,t4,a1
   226a0:	41d585b3          	sub	a1,a1,t4
   226a4:	0015b593          	sltiu	a1,a1,1
   226a8:	40f68733          	sub	a4,a3,a5
   226ac:	00b7f7b3          	and	a5,a5,a1
   226b0:	00deb6b3          	sltu	a3,t4,a3
   226b4:	00f6e6b3          	or	a3,a3,a5
   226b8:	40a88533          	sub	a0,a7,a0
   226bc:	40d50533          	sub	a0,a0,a3
   226c0:	00090793          	addi	a5,s2,0
   226c4:	02e12c23          	sw	a4,56(sp)
   226c8:	02a12e23          	sw	a0,60(sp)
   226cc:	03012a23          	sw	a6,52(sp)
   226d0:	02c12823          	sw	a2,48(sp)
   226d4:	00c51713          	slli	a4,a0,0xc
   226d8:	e6075663          	bge	a4,zero,21d44 <__subtf3+0x218>
   226dc:	00080737          	lui	a4,0x80
   226e0:	fff70713          	addi	a4,a4,-1 # 7ffff <__global_pointer$+0xf147>
   226e4:	00e57533          	and	a0,a0,a4
   226e8:	02a12e23          	sw	a0,60(sp)
   226ec:	00078913          	addi	s2,a5,0
   226f0:	4c40006f          	jal	zero,22bb4 <__subtf3+0x1088>
   226f4:	02412303          	lw	t1,36(sp)
   226f8:	02812583          	lw	a1,40(sp)
   226fc:	02c12f83          	lw	t6,44(sp)
   22700:	24078663          	beq	a5,zero,2294c <__subtf3+0xe20>
   22704:	412e07b3          	sub	a5,t3,s2
   22708:	0a091a63          	bne	s2,zero,227bc <__subtf3+0xc90>
   2270c:	01412883          	lw	a7,20(sp)
   22710:	01812e83          	lw	t4,24(sp)
   22714:	01c12503          	lw	a0,28(sp)
   22718:	01d8e633          	or	a2,a7,t4
   2271c:	00a66633          	or	a2,a2,a0
   22720:	00d66633          	or	a2,a2,a3
   22724:	00061e63          	bne	a2,zero,22740 <__subtf3+0xc14>
   22728:	02e12823          	sw	a4,48(sp)
   2272c:	02612a23          	sw	t1,52(sp)
   22730:	02b12c23          	sw	a1,56(sp)
   22734:	03f12e23          	sw	t6,60(sp)
   22738:	000f0493          	addi	s1,t5,0
   2273c:	e08ff06f          	jal	zero,21d44 <__subtf3+0x218>
   22740:	fff78913          	addi	s2,a5,-1
   22744:	04091a63          	bne	s2,zero,22798 <__subtf3+0xc6c>
   22748:	411307b3          	sub	a5,t1,a7
   2274c:	40d70633          	sub	a2,a4,a3
   22750:	406888b3          	sub	a7,a7,t1
   22754:	00c73733          	sltu	a4,a4,a2
   22758:	0018b893          	sltiu	a7,a7,1
   2275c:	40e78833          	sub	a6,a5,a4
   22760:	40be86b3          	sub	a3,t4,a1
   22764:	01177733          	and	a4,a4,a7
   22768:	00f337b3          	sltu	a5,t1,a5
   2276c:	00e7e7b3          	or	a5,a5,a4
   22770:	41d588b3          	sub	a7,a1,t4
   22774:	0016b693          	sltiu	a3,a3,1
   22778:	40f88733          	sub	a4,a7,a5
   2277c:	00d7f7b3          	and	a5,a5,a3
   22780:	0115b8b3          	sltu	a7,a1,a7
   22784:	40af8533          	sub	a0,t6,a0
   22788:	00f8e8b3          	or	a7,a7,a5
   2278c:	41150533          	sub	a0,a0,a7
   22790:	000f0493          	addi	s1,t5,0
   22794:	d91ff06f          	jal	zero,22524 <__subtf3+0x9f8>
   22798:	000086b7          	lui	a3,0x8
   2279c:	fff68693          	addi	a3,a3,-1 # 7fff <exit-0x80b5>
   227a0:	68d79463          	bne	a5,a3,22e28 <__subtf3+0x12fc>
   227a4:	02e12823          	sw	a4,48(sp)
   227a8:	02612a23          	sw	t1,52(sp)
   227ac:	02b12c23          	sw	a1,56(sp)
   227b0:	03f12e23          	sw	t6,60(sp)
   227b4:	000f0493          	addi	s1,t5,0
   227b8:	8f5ff06f          	jal	zero,220ac <__subtf3+0x580>
   227bc:	000086b7          	lui	a3,0x8
   227c0:	fff68693          	addi	a3,a3,-1 # 7fff <exit-0x80b5>
   227c4:	fede00e3          	beq	t3,a3,227a4 <__subtf3+0xc78>
   227c8:	01c12683          	lw	a3,28(sp)
   227cc:	00080637          	lui	a2,0x80
   227d0:	00c6e6b3          	or	a3,a3,a2
   227d4:	00d12e23          	sw	a3,28(sp)
   227d8:	07400693          	addi	a3,zero,116
   227dc:	64f6ca63          	blt	a3,a5,22e30 <__subtf3+0x1304>
   227e0:	00078913          	addi	s2,a5,0
   227e4:	02000793          	addi	a5,zero,32
   227e8:	02f947b3          	div	a5,s2,a5
   227ec:	00080513          	addi	a0,a6,0
   227f0:	00000613          	addi	a2,zero,0
   227f4:	00000693          	addi	a3,zero,0
   227f8:	02f6ce63          	blt	a3,a5,22834 <__subtf3+0xd08>
   227fc:	00300693          	addi	a3,zero,3
   22800:	01f97e93          	andi	t4,s2,31
   22804:	40f688b3          	sub	a7,a3,a5
   22808:	00279493          	slli	s1,a5,0x2
   2280c:	020e9e63          	bne	t4,zero,22848 <__subtf3+0xd1c>
   22810:	009806b3          	add	a3,a6,s1
   22814:	0006a683          	lw	a3,0(a3)
   22818:	001e8e93          	addi	t4,t4,1
   2281c:	00480813          	addi	a6,a6,4
   22820:	fed82e23          	sw	a3,-4(a6)
   22824:	ffd8d6e3          	bge	a7,t4,22810 <__subtf3+0xce4>
   22828:	00400693          	addi	a3,zero,4
   2282c:	40f687b3          	sub	a5,a3,a5
   22830:	06c0006f          	jal	zero,2289c <__subtf3+0xd70>
   22834:	00052883          	lw	a7,0(a0)
   22838:	00168693          	addi	a3,a3,1
   2283c:	00450513          	addi	a0,a0,4
   22840:	01166633          	or	a2,a2,a7
   22844:	fb5ff06f          	jal	zero,227f8 <__subtf3+0xccc>
   22848:	02000393          	addi	t2,zero,32
   2284c:	02796933          	rem	s2,s2,t2
   22850:	fff7c693          	xori	a3,a5,-1
   22854:	41f6d693          	srai	a3,a3,0x1f
   22858:	00d7f6b3          	and	a3,a5,a3
   2285c:	00269693          	slli	a3,a3,0x2
   22860:	00d286b3          	add	a3,t0,a3
   22864:	0006a683          	lw	a3,0(a3)
   22868:	00980833          	add	a6,a6,s1
   2286c:	412383b3          	sub	t2,t2,s2
   22870:	007696b3          	sll	a3,a3,t2
   22874:	00d66633          	or	a2,a2,a3
   22878:	00000693          	addi	a3,zero,0
   2287c:	0316c463          	blt	a3,a7,228a4 <__subtf3+0xd78>
   22880:	01c12503          	lw	a0,28(sp)
   22884:	00400693          	addi	a3,zero,4
   22888:	40f687b3          	sub	a5,a3,a5
   2288c:	00289693          	slli	a3,a7,0x2
   22890:	00d286b3          	add	a3,t0,a3
   22894:	01d55533          	srl	a0,a0,t4
   22898:	00a6a023          	sw	a0,0(a3)
   2289c:	00300513          	addi	a0,zero,3
   228a0:	03c0006f          	jal	zero,228dc <__subtf3+0xdb0>
   228a4:	00082503          	lw	a0,0(a6)
   228a8:	00482903          	lw	s2,4(a6)
   228ac:	409809b3          	sub	s3,a6,s1
   228b0:	01d55533          	srl	a0,a0,t4
   228b4:	00791933          	sll	s2,s2,t2
   228b8:	01256533          	or	a0,a0,s2
   228bc:	00a9a023          	sw	a0,0(s3)
   228c0:	00168693          	addi	a3,a3,1
   228c4:	00480813          	addi	a6,a6,4
   228c8:	fb5ff06f          	jal	zero,2287c <__subtf3+0xd50>
   228cc:	00279693          	slli	a3,a5,0x2
   228d0:	00d286b3          	add	a3,t0,a3
   228d4:	0006a023          	sw	zero,0(a3)
   228d8:	00178793          	addi	a5,a5,1
   228dc:	fef558e3          	bge	a0,a5,228cc <__subtf3+0xda0>
   228e0:	01012783          	lw	a5,16(sp)
   228e4:	00c03633          	sltu	a2,zero,a2
   228e8:	00f66633          	or	a2,a2,a5
   228ec:	01412683          	lw	a3,20(sp)
   228f0:	01812883          	lw	a7,24(sp)
   228f4:	40c70633          	sub	a2,a4,a2
   228f8:	40d307b3          	sub	a5,t1,a3
   228fc:	406686b3          	sub	a3,a3,t1
   22900:	00c73733          	sltu	a4,a4,a2
   22904:	0016b693          	sltiu	a3,a3,1
   22908:	40e78833          	sub	a6,a5,a4
   2290c:	01c12503          	lw	a0,28(sp)
   22910:	00d77733          	and	a4,a4,a3
   22914:	00f337b3          	sltu	a5,t1,a5
   22918:	411586b3          	sub	a3,a1,a7
   2291c:	40b888b3          	sub	a7,a7,a1
   22920:	00e7e7b3          	or	a5,a5,a4
   22924:	0018b893          	sltiu	a7,a7,1
   22928:	40f68733          	sub	a4,a3,a5
   2292c:	0117f7b3          	and	a5,a5,a7
   22930:	00d5b6b3          	sltu	a3,a1,a3
   22934:	00f6e6b3          	or	a3,a3,a5
   22938:	40af8533          	sub	a0,t6,a0
   2293c:	40d50533          	sub	a0,a0,a3
   22940:	000e0793          	addi	a5,t3,0
   22944:	000f0493          	addi	s1,t5,0
   22948:	d7dff06f          	jal	zero,226c4 <__subtf3+0xb98>
   2294c:	00190613          	addi	a2,s2,1
   22950:	01161e13          	slli	t3,a2,0x11
   22954:	012e5e13          	srli	t3,t3,0x12
   22958:	01412803          	lw	a6,20(sp)
   2295c:	01812e83          	lw	t4,24(sp)
   22960:	01c12883          	lw	a7,28(sp)
   22964:	000082b7          	lui	t0,0x8
   22968:	1a0e1463          	bne	t3,zero,22b10 <__subtf3+0xfe4>
   2296c:	00b36633          	or	a2,t1,a1
   22970:	01d86e33          	or	t3,a6,t4
   22974:	01f66633          	or	a2,a2,t6
   22978:	011e6e33          	or	t3,t3,a7
   2297c:	00e66633          	or	a2,a2,a4
   22980:	00de6e33          	or	t3,t3,a3
   22984:	0e091863          	bne	s2,zero,22a74 <__subtf3+0xf48>
   22988:	020e1063          	bne	t3,zero,229a8 <__subtf3+0xe7c>
   2298c:	00c03633          	sltu	a2,zero,a2
   22990:	02e12823          	sw	a4,48(sp)
   22994:	02612a23          	sw	t1,52(sp)
   22998:	02b12c23          	sw	a1,56(sp)
   2299c:	03f12e23          	sw	t6,60(sp)
   229a0:	01e674b3          	and	s1,a2,t5
   229a4:	ba0ff06f          	jal	zero,21d44 <__subtf3+0x218>
   229a8:	00061863          	bne	a2,zero,229b8 <__subtf3+0xe8c>
   229ac:	02d12823          	sw	a3,48(sp)
   229b0:	03012a23          	sw	a6,52(sp)
   229b4:	8d5ff06f          	jal	zero,22288 <__subtf3+0x75c>
   229b8:	40680633          	sub	a2,a6,t1
   229bc:	40e684b3          	sub	s1,a3,a4
   229c0:	0096be33          	sltu	t3,a3,s1
   229c4:	00163913          	sltiu	s2,a2,1
   229c8:	41c609b3          	sub	s3,a2,t3
   229cc:	40be82b3          	sub	t0,t4,a1
   229d0:	012e7e33          	and	t3,t3,s2
   229d4:	00c83633          	sltu	a2,a6,a2
   229d8:	01c66633          	or	a2,a2,t3
   229dc:	0012b393          	sltiu	t2,t0,1
   229e0:	40c28a33          	sub	s4,t0,a2
   229e4:	00c3f633          	and	a2,t2,a2
   229e8:	005eb2b3          	sltu	t0,t4,t0
   229ec:	00c2e2b3          	or	t0,t0,a2
   229f0:	41f88633          	sub	a2,a7,t6
   229f4:	40560633          	sub	a2,a2,t0
   229f8:	02c12e23          	sw	a2,60(sp)
   229fc:	03412c23          	sw	s4,56(sp)
   22a00:	03312a23          	sw	s3,52(sp)
   22a04:	02912823          	sw	s1,48(sp)
   22a08:	00c61e13          	slli	t3,a2,0xc
   22a0c:	040e5863          	bge	t3,zero,22a5c <__subtf3+0xf30>
   22a10:	40d706b3          	sub	a3,a4,a3
   22a14:	00d73733          	sltu	a4,a4,a3
   22a18:	41030833          	sub	a6,t1,a6
   22a1c:	40e80633          	sub	a2,a6,a4
   22a20:	01033833          	sltu	a6,t1,a6
   22a24:	01277733          	and	a4,a4,s2
   22a28:	00e86833          	or	a6,a6,a4
   22a2c:	41d58eb3          	sub	t4,a1,t4
   22a30:	01d5b5b3          	sltu	a1,a1,t4
   22a34:	0103f3b3          	and	t2,t2,a6
   22a38:	411f8fb3          	sub	t6,t6,a7
   22a3c:	0075e5b3          	or	a1,a1,t2
   22a40:	40bf8fb3          	sub	t6,t6,a1
   22a44:	410e8eb3          	sub	t4,t4,a6
   22a48:	03f12e23          	sw	t6,60(sp)
   22a4c:	03d12c23          	sw	t4,56(sp)
   22a50:	02c12a23          	sw	a2,52(sp)
   22a54:	02d12823          	sw	a3,48(sp)
   22a58:	ce1ff06f          	jal	zero,22738 <__subtf3+0xc0c>
   22a5c:	0134e4b3          	or	s1,s1,s3
   22a60:	0144e4b3          	or	s1,s1,s4
   22a64:	00c4e4b3          	or	s1,s1,a2
   22a68:	009034b3          	sltu	s1,zero,s1
   22a6c:	009574b3          	and	s1,a0,s1
   22a70:	ad4ff06f          	jal	zero,21d44 <__subtf3+0x218>
   22a74:	03010513          	addi	a0,sp,48
   22a78:	040e1e63          	bne	t3,zero,22ad4 <__subtf3+0xfa8>
   22a7c:	02061e63          	bne	a2,zero,22ab8 <__subtf3+0xf8c>
   22a80:	02512e23          	sw	t0,60(sp)
   22a84:	02012c23          	sw	zero,56(sp)
   22a88:	02012a23          	sw	zero,52(sp)
   22a8c:	02012823          	sw	zero,48(sp)
   22a90:	03c10793          	addi	a5,sp,60
   22a94:	0007a703          	lw	a4,0(a5)
   22a98:	ffc7a683          	lw	a3,-4(a5)
   22a9c:	ffc78793          	addi	a5,a5,-4
   22aa0:	00371713          	slli	a4,a4,0x3
   22aa4:	01d6d693          	srli	a3,a3,0x1d
   22aa8:	00d76733          	or	a4,a4,a3
   22aac:	00e7a223          	sw	a4,4(a5)
   22ab0:	fef512e3          	bne	a0,a5,22a94 <__subtf3+0xf68>
   22ab4:	8e1ff06f          	jal	zero,22394 <__subtf3+0x868>
   22ab8:	02e12823          	sw	a4,48(sp)
   22abc:	02612a23          	sw	t1,52(sp)
   22ac0:	02b12c23          	sw	a1,56(sp)
   22ac4:	03f12e23          	sw	t6,60(sp)
   22ac8:	000f0493          	addi	s1,t5,0
   22acc:	fff28793          	addi	a5,t0,-1 # 7fff <exit-0x80b5>
   22ad0:	a74ff06f          	jal	zero,21d44 <__subtf3+0x218>
   22ad4:	a4060263          	beq	a2,zero,21d18 <__subtf3+0x1ec>
   22ad8:	02512e23          	sw	t0,60(sp)
   22adc:	02012c23          	sw	zero,56(sp)
   22ae0:	02012a23          	sw	zero,52(sp)
   22ae4:	02012823          	sw	zero,48(sp)
   22ae8:	03c10793          	addi	a5,sp,60
   22aec:	0007a703          	lw	a4,0(a5)
   22af0:	ffc7a683          	lw	a3,-4(a5)
   22af4:	ffc78793          	addi	a5,a5,-4
   22af8:	00371713          	slli	a4,a4,0x3
   22afc:	01d6d693          	srli	a3,a3,0x1d
   22b00:	00d76733          	or	a4,a4,a3
   22b04:	00e7a223          	sw	a4,4(a5)
   22b08:	fef512e3          	bne	a0,a5,22aec <__subtf3+0xfc0>
   22b0c:	889ff06f          	jal	zero,22394 <__subtf3+0x868>
   22b10:	40680633          	sub	a2,a6,t1
   22b14:	40e682b3          	sub	t0,a3,a4
   22b18:	0056b533          	sltu	a0,a3,t0
   22b1c:	00163993          	sltiu	s3,a2,1
   22b20:	40a60a33          	sub	s4,a2,a0
   22b24:	40be8e33          	sub	t3,t4,a1
   22b28:	01357533          	and	a0,a0,s3
   22b2c:	00c83633          	sltu	a2,a6,a2
   22b30:	00a66633          	or	a2,a2,a0
   22b34:	001e3393          	sltiu	t2,t3,1
   22b38:	40ce0ab3          	sub	s5,t3,a2
   22b3c:	00c3f633          	and	a2,t2,a2
   22b40:	01cebe33          	sltu	t3,t4,t3
   22b44:	00ce6e33          	or	t3,t3,a2
   22b48:	41f88533          	sub	a0,a7,t6
   22b4c:	41c50533          	sub	a0,a0,t3
   22b50:	02a12e23          	sw	a0,60(sp)
   22b54:	03512c23          	sw	s5,56(sp)
   22b58:	03412a23          	sw	s4,52(sp)
   22b5c:	02512823          	sw	t0,48(sp)
   22b60:	00c51613          	slli	a2,a0,0xc
   22b64:	0a065463          	bge	a2,zero,22c0c <__subtf3+0x10e0>
   22b68:	40d706b3          	sub	a3,a4,a3
   22b6c:	00d73733          	sltu	a4,a4,a3
   22b70:	41030833          	sub	a6,t1,a6
   22b74:	40e807b3          	sub	a5,a6,a4
   22b78:	01377733          	and	a4,a4,s3
   22b7c:	01033833          	sltu	a6,t1,a6
   22b80:	00e86833          	or	a6,a6,a4
   22b84:	41d58eb3          	sub	t4,a1,t4
   22b88:	01d5b5b3          	sltu	a1,a1,t4
   22b8c:	007873b3          	and	t2,a6,t2
   22b90:	411f8533          	sub	a0,t6,a7
   22b94:	0075e5b3          	or	a1,a1,t2
   22b98:	40b50533          	sub	a0,a0,a1
   22b9c:	410e8eb3          	sub	t4,t4,a6
   22ba0:	02a12e23          	sw	a0,60(sp)
   22ba4:	03d12c23          	sw	t4,56(sp)
   22ba8:	02f12a23          	sw	a5,52(sp)
   22bac:	02d12823          	sw	a3,48(sp)
   22bb0:	000f0493          	addi	s1,t5,0
   22bb4:	06050663          	beq	a0,zero,22c20 <__subtf3+0x10f4>
   22bb8:	750000ef          	jal	ra,23308 <__clzsi2>
   22bbc:	ff450793          	addi	a5,a0,-12
   22bc0:	02000613          	addi	a2,zero,32
   22bc4:	01f7f813          	andi	a6,a5,31
   22bc8:	02c7c6b3          	div	a3,a5,a2
   22bcc:	03c10713          	addi	a4,sp,60
   22bd0:	08080463          	beq	a6,zero,22c58 <__subtf3+0x112c>
   22bd4:	00269893          	slli	a7,a3,0x2
   22bd8:	03010513          	addi	a0,sp,48
   22bdc:	41170733          	sub	a4,a4,a7
   22be0:	02c7e5b3          	rem	a1,a5,a2
   22be4:	40b60633          	sub	a2,a2,a1
   22be8:	08e51e63          	bne	a0,a4,22c84 <__subtf3+0x1158>
   22bec:	fff68713          	addi	a4,a3,-1
   22bf0:	03012683          	lw	a3,48(sp)
   22bf4:	01150533          	add	a0,a0,a7
   22bf8:	010696b3          	sll	a3,a3,a6
   22bfc:	00d52023          	sw	a3,0(a0)
   22c00:	fff00613          	addi	a2,zero,-1
   22c04:	03010893          	addi	a7,sp,48
   22c08:	0b00006f          	jal	zero,22cb8 <__subtf3+0x118c>
   22c0c:	0142e733          	or	a4,t0,s4
   22c10:	01576733          	or	a4,a4,s5
   22c14:	00a76733          	or	a4,a4,a0
   22c18:	f8070263          	beq	a4,zero,2239c <__subtf3+0x870>
   22c1c:	f99ff06f          	jal	zero,22bb4 <__subtf3+0x1088>
   22c20:	03812503          	lw	a0,56(sp)
   22c24:	00050863          	beq	a0,zero,22c34 <__subtf3+0x1108>
   22c28:	6e0000ef          	jal	ra,23308 <__clzsi2>
   22c2c:	02050513          	addi	a0,a0,32
   22c30:	f8dff06f          	jal	zero,22bbc <__subtf3+0x1090>
   22c34:	03412503          	lw	a0,52(sp)
   22c38:	00050863          	beq	a0,zero,22c48 <__subtf3+0x111c>
   22c3c:	6cc000ef          	jal	ra,23308 <__clzsi2>
   22c40:	04050513          	addi	a0,a0,64
   22c44:	f79ff06f          	jal	zero,22bbc <__subtf3+0x1090>
   22c48:	03012503          	lw	a0,48(sp)
   22c4c:	6bc000ef          	jal	ra,23308 <__clzsi2>
   22c50:	06050513          	addi	a0,a0,96
   22c54:	f69ff06f          	jal	zero,22bbc <__subtf3+0x1090>
   22c58:	ffc00593          	addi	a1,zero,-4
   22c5c:	02b685b3          	mul	a1,a3,a1
   22c60:	00300613          	addi	a2,zero,3
   22c64:	00b70533          	add	a0,a4,a1
   22c68:	00052503          	lw	a0,0(a0)
   22c6c:	fff60613          	addi	a2,a2,-1 # 7ffff <__global_pointer$+0xf147>
   22c70:	ffc70713          	addi	a4,a4,-4
   22c74:	00a72223          	sw	a0,4(a4)
   22c78:	fed656e3          	bge	a2,a3,22c64 <__subtf3+0x1138>
   22c7c:	fff68713          	addi	a4,a3,-1
   22c80:	f81ff06f          	jal	zero,22c00 <__subtf3+0x10d4>
   22c84:	00072583          	lw	a1,0(a4)
   22c88:	ffc72303          	lw	t1,-4(a4)
   22c8c:	01170e33          	add	t3,a4,a7
   22c90:	010595b3          	sll	a1,a1,a6
   22c94:	00c35333          	srl	t1,t1,a2
   22c98:	0065e5b3          	or	a1,a1,t1
   22c9c:	00be2023          	sw	a1,0(t3)
   22ca0:	ffc70713          	addi	a4,a4,-4
   22ca4:	f45ff06f          	jal	zero,22be8 <__subtf3+0x10bc>
   22ca8:	00271693          	slli	a3,a4,0x2
   22cac:	00d886b3          	add	a3,a7,a3
   22cb0:	0006a023          	sw	zero,0(a3)
   22cb4:	fff70713          	addi	a4,a4,-1
   22cb8:	fec718e3          	bne	a4,a2,22ca8 <__subtf3+0x117c>
   22cbc:	1127c263          	blt	a5,s2,22dc0 <__subtf3+0x1294>
   22cc0:	412787b3          	sub	a5,a5,s2
   22cc4:	00178793          	addi	a5,a5,1
   22cc8:	4057d713          	srai	a4,a5,0x5
   22ccc:	00088613          	addi	a2,a7,0
   22cd0:	01f7f793          	andi	a5,a5,31
   22cd4:	00088593          	addi	a1,a7,0
   22cd8:	00000813          	addi	a6,zero,0
   22cdc:	00000693          	addi	a3,zero,0
   22ce0:	02e69c63          	bne	a3,a4,22d18 <__subtf3+0x11ec>
   22ce4:	00300693          	addi	a3,zero,3
   22ce8:	40e686b3          	sub	a3,a3,a4
   22cec:	00271e13          	slli	t3,a4,0x2
   22cf0:	02079e63          	bne	a5,zero,22d2c <__subtf3+0x1200>
   22cf4:	01c605b3          	add	a1,a2,t3
   22cf8:	0005a583          	lw	a1,0(a1)
   22cfc:	00178793          	addi	a5,a5,1
   22d00:	00460613          	addi	a2,a2,4
   22d04:	feb62e23          	sw	a1,-4(a2)
   22d08:	fef6d6e3          	bge	a3,a5,22cf4 <__subtf3+0x11c8>
   22d0c:	00400793          	addi	a5,zero,4
   22d10:	40e78733          	sub	a4,a5,a4
   22d14:	0540006f          	jal	zero,22d68 <__subtf3+0x123c>
   22d18:	0005a503          	lw	a0,0(a1)
   22d1c:	00168693          	addi	a3,a3,1
   22d20:	00458593          	addi	a1,a1,4
   22d24:	00a86833          	or	a6,a6,a0
   22d28:	fb9ff06f          	jal	zero,22ce0 <__subtf3+0x11b4>
   22d2c:	01c88633          	add	a2,a7,t3
   22d30:	00062583          	lw	a1,0(a2)
   22d34:	02000513          	addi	a0,zero,32
   22d38:	40f50533          	sub	a0,a0,a5
   22d3c:	00a595b3          	sll	a1,a1,a0
   22d40:	00b86833          	or	a6,a6,a1
   22d44:	00000313          	addi	t1,zero,0
   22d48:	02d34463          	blt	t1,a3,22d70 <__subtf3+0x1244>
   22d4c:	00400613          	addi	a2,zero,4
   22d50:	40e60733          	sub	a4,a2,a4
   22d54:	03c12603          	lw	a2,60(sp)
   22d58:	00269693          	slli	a3,a3,0x2
   22d5c:	00d886b3          	add	a3,a7,a3
   22d60:	00f657b3          	srl	a5,a2,a5
   22d64:	00f6a023          	sw	a5,0(a3)
   22d68:	00400693          	addi	a3,zero,4
   22d6c:	03c0006f          	jal	zero,22da8 <__subtf3+0x127c>
   22d70:	00062583          	lw	a1,0(a2)
   22d74:	00462e83          	lw	t4,4(a2)
   22d78:	41c60f33          	sub	t5,a2,t3
   22d7c:	00f5d5b3          	srl	a1,a1,a5
   22d80:	00ae9eb3          	sll	t4,t4,a0
   22d84:	01d5e5b3          	or	a1,a1,t4
   22d88:	00bf2023          	sw	a1,0(t5)
   22d8c:	00130313          	addi	t1,t1,1
   22d90:	00460613          	addi	a2,a2,4
   22d94:	fb5ff06f          	jal	zero,22d48 <__subtf3+0x121c>
   22d98:	00271793          	slli	a5,a4,0x2
   22d9c:	00f887b3          	add	a5,a7,a5
   22da0:	0007a023          	sw	zero,0(a5)
   22da4:	00170713          	addi	a4,a4,1
   22da8:	fed718e3          	bne	a4,a3,22d98 <__subtf3+0x126c>
   22dac:	03012703          	lw	a4,48(sp)
   22db0:	010037b3          	sltu	a5,zero,a6
   22db4:	00f767b3          	or	a5,a4,a5
   22db8:	02f12823          	sw	a5,48(sp)
   22dbc:	cf8ff06f          	jal	zero,222b4 <__subtf3+0x788>
   22dc0:	03c12703          	lw	a4,60(sp)
   22dc4:	fff806b7          	lui	a3,0xfff80
   22dc8:	fff68693          	addi	a3,a3,-1 # fff7ffff <__BSS_END__+0xffe6bc67>
   22dcc:	40f907b3          	sub	a5,s2,a5
   22dd0:	00d77733          	and	a4,a4,a3
   22dd4:	a24ff06f          	jal	zero,21ff8 <__subtf3+0x4cc>
   22dd8:	02012e23          	sw	zero,60(sp)
   22ddc:	02012c23          	sw	zero,56(sp)
   22de0:	02012a23          	sw	zero,52(sp)
   22de4:	02012823          	sw	zero,48(sp)
   22de8:	00000713          	addi	a4,zero,0
   22dec:	fddfe06f          	jal	zero,21dc8 <__subtf3+0x29c>
   22df0:	07400793          	addi	a5,zero,116
   22df4:	8ac7dc63          	bge	a5,a2,21eac <__subtf3+0x380>
   22df8:	02012623          	sw	zero,44(sp)
   22dfc:	02012423          	sw	zero,40(sp)
   22e00:	02012223          	sw	zero,36(sp)
   22e04:	00100613          	addi	a2,zero,1
   22e08:	994ff06f          	jal	zero,21f9c <__subtf3+0x470>
   22e0c:	07400793          	addi	a5,zero,116
   22e10:	ad27dc63          	bge	a5,s2,220e8 <__subtf3+0x5bc>
   22e14:	00012e23          	sw	zero,28(sp)
   22e18:	00012c23          	sw	zero,24(sp)
   22e1c:	00012a23          	sw	zero,20(sp)
   22e20:	00100613          	addi	a2,zero,1
   22e24:	bccff06f          	jal	zero,221f0 <__subtf3+0x6c4>
   22e28:	07400793          	addi	a5,zero,116
   22e2c:	9b27dce3          	bge	a5,s2,227e4 <__subtf3+0xcb8>
   22e30:	00012e23          	sw	zero,28(sp)
   22e34:	00012c23          	sw	zero,24(sp)
   22e38:	00012a23          	sw	zero,20(sp)
   22e3c:	00100613          	addi	a2,zero,1
   22e40:	aadff06f          	jal	zero,228ec <__subtf3+0xdc0>

00022e44 <__unordtf2>:
   22e44:	00052703          	lw	a4,0(a0)
   22e48:	00452e83          	lw	t4,4(a0)
   22e4c:	00852e03          	lw	t3,8(a0)
   22e50:	00c52503          	lw	a0,12(a0)
   22e54:	00c5a603          	lw	a2,12(a1)
   22e58:	000086b7          	lui	a3,0x8
   22e5c:	fff68693          	addi	a3,a3,-1 # 7fff <exit-0x80b5>
   22e60:	01055813          	srli	a6,a0,0x10
   22e64:	0005a783          	lw	a5,0(a1)
   22e68:	0045a303          	lw	t1,4(a1)
   22e6c:	0085a883          	lw	a7,8(a1)
   22e70:	00d87833          	and	a6,a6,a3
   22e74:	01065593          	srli	a1,a2,0x10
   22e78:	ff010113          	addi	sp,sp,-16
   22e7c:	00d5f5b3          	and	a1,a1,a3
   22e80:	02d81063          	bne	a6,a3,22ea0 <__unordtf2+0x5c>
   22e84:	01d76733          	or	a4,a4,t4
   22e88:	01051513          	slli	a0,a0,0x10
   22e8c:	01055513          	srli	a0,a0,0x10
   22e90:	01c76733          	or	a4,a4,t3
   22e94:	00a76733          	or	a4,a4,a0
   22e98:	00100513          	addi	a0,zero,1
   22e9c:	02071663          	bne	a4,zero,22ec8 <__unordtf2+0x84>
   22ea0:	00008737          	lui	a4,0x8
   22ea4:	fff70713          	addi	a4,a4,-1 # 7fff <exit-0x80b5>
   22ea8:	00000513          	addi	a0,zero,0
   22eac:	00e59e63          	bne	a1,a4,22ec8 <__unordtf2+0x84>
   22eb0:	0067e533          	or	a0,a5,t1
   22eb4:	01061613          	slli	a2,a2,0x10
   22eb8:	01156533          	or	a0,a0,a7
   22ebc:	01065613          	srli	a2,a2,0x10
   22ec0:	00c56533          	or	a0,a0,a2
   22ec4:	00a03533          	sltu	a0,zero,a0
   22ec8:	01010113          	addi	sp,sp,16
   22ecc:	00008067          	jalr	zero,0(ra)

00022ed0 <__fixtfsi>:
   22ed0:	00052703          	lw	a4,0(a0)
   22ed4:	00c52783          	lw	a5,12(a0)
   22ed8:	00452683          	lw	a3,4(a0)
   22edc:	fe010113          	addi	sp,sp,-32
   22ee0:	00852583          	lw	a1,8(a0)
   22ee4:	00e12023          	sw	a4,0(sp)
   22ee8:	00e12823          	sw	a4,16(sp)
   22eec:	00179713          	slli	a4,a5,0x1
   22ef0:	00d12223          	sw	a3,4(sp)
   22ef4:	01175693          	srli	a3,a4,0x11
   22ef8:	00004737          	lui	a4,0x4
   22efc:	00b12423          	sw	a1,8(sp)
   22f00:	00f12623          	sw	a5,12(sp)
   22f04:	00b12c23          	sw	a1,24(sp)
   22f08:	ffe70713          	addi	a4,a4,-2 # 3ffe <exit-0xc0b6>
   22f0c:	00000513          	addi	a0,zero,0
   22f10:	02d75063          	bge	a4,a3,22f30 <__fixtfsi+0x60>
   22f14:	00004737          	lui	a4,0x4
   22f18:	01d70713          	addi	a4,a4,29 # 401d <exit-0xc097>
   22f1c:	01f7d813          	srli	a6,a5,0x1f
   22f20:	00d75c63          	bge	a4,a3,22f38 <__fixtfsi+0x68>
   22f24:	80000537          	lui	a0,0x80000
   22f28:	fff50513          	addi	a0,a0,-1 # 7fffffff <__BSS_END__+0x7feebc67>
   22f2c:	00a80533          	add	a0,a6,a0
   22f30:	02010113          	addi	sp,sp,32
   22f34:	00008067          	jalr	zero,0(ra)
   22f38:	01079793          	slli	a5,a5,0x10
   22f3c:	00010737          	lui	a4,0x10
   22f40:	0107d793          	srli	a5,a5,0x10
   22f44:	00e7e7b3          	or	a5,a5,a4
   22f48:	00004737          	lui	a4,0x4
   22f4c:	06f70713          	addi	a4,a4,111 # 406f <exit-0xc045>
   22f50:	40d70733          	sub	a4,a4,a3
   22f54:	40575513          	srai	a0,a4,0x5
   22f58:	00f12e23          	sw	a5,28(sp)
   22f5c:	01f77713          	andi	a4,a4,31
   22f60:	01010613          	addi	a2,sp,16
   22f64:	02071263          	bne	a4,zero,22f88 <__fixtfsi+0xb8>
   22f68:	00251513          	slli	a0,a0,0x2
   22f6c:	00a60633          	add	a2,a2,a0
   22f70:	00062783          	lw	a5,0(a2)
   22f74:	00f12823          	sw	a5,16(sp)
   22f78:	01012503          	lw	a0,16(sp)
   22f7c:	fa080ae3          	beq	a6,zero,22f30 <__fixtfsi+0x60>
   22f80:	40a00533          	sub	a0,zero,a0
   22f84:	fadff06f          	jal	zero,22f30 <__fixtfsi+0x60>
   22f88:	00200893          	addi	a7,zero,2
   22f8c:	00000693          	addi	a3,zero,0
   22f90:	03151063          	bne	a0,a7,22fb0 <__fixtfsi+0xe0>
   22f94:	02000693          	addi	a3,zero,32
   22f98:	40e686b3          	sub	a3,a3,a4
   22f9c:	00d796b3          	sll	a3,a5,a3
   22fa0:	00e5d5b3          	srl	a1,a1,a4
   22fa4:	00b6e6b3          	or	a3,a3,a1
   22fa8:	00d12823          	sw	a3,16(sp)
   22fac:	00100693          	addi	a3,zero,1
   22fb0:	00269693          	slli	a3,a3,0x2
   22fb4:	00d60633          	add	a2,a2,a3
   22fb8:	00e7d7b3          	srl	a5,a5,a4
   22fbc:	00f62023          	sw	a5,0(a2)
   22fc0:	fb9ff06f          	jal	zero,22f78 <__fixtfsi+0xa8>

00022fc4 <__floatsitf>:
   22fc4:	fd010113          	addi	sp,sp,-48
   22fc8:	02912223          	sw	s1,36(sp)
   22fcc:	02112623          	sw	ra,44(sp)
   22fd0:	02812423          	sw	s0,40(sp)
   22fd4:	03212023          	sw	s2,32(sp)
   22fd8:	00050493          	addi	s1,a0,0
   22fdc:	10058e63          	beq	a1,zero,230f8 <__floatsitf+0x134>
   22fe0:	41f5d793          	srai	a5,a1,0x1f
   22fe4:	00b7c433          	xor	s0,a5,a1
   22fe8:	40f40433          	sub	s0,s0,a5
   22fec:	00040513          	addi	a0,s0,0
   22ff0:	01f5d913          	srli	s2,a1,0x1f
   22ff4:	314000ef          	jal	ra,23308 <__clzsi2>
   22ff8:	000045b7          	lui	a1,0x4
   22ffc:	01e58593          	addi	a1,a1,30 # 401e <exit-0xc096>
   23000:	40a585b3          	sub	a1,a1,a0
   23004:	05150513          	addi	a0,a0,81
   23008:	40555793          	srai	a5,a0,0x5
   2300c:	00812823          	sw	s0,16(sp)
   23010:	00012a23          	sw	zero,20(sp)
   23014:	00012c23          	sw	zero,24(sp)
   23018:	00012e23          	sw	zero,28(sp)
   2301c:	01f57513          	andi	a0,a0,31
   23020:	01010693          	addi	a3,sp,16
   23024:	02050a63          	beq	a0,zero,23058 <__floatsitf+0x94>
   23028:	00200713          	addi	a4,zero,2
   2302c:	0ce79263          	bne	a5,a4,230f0 <__floatsitf+0x12c>
   23030:	02000713          	addi	a4,zero,32
   23034:	40a70733          	sub	a4,a4,a0
   23038:	00e45733          	srl	a4,s0,a4
   2303c:	00e12e23          	sw	a4,28(sp)
   23040:	fff78713          	addi	a4,a5,-1
   23044:	00279793          	slli	a5,a5,0x2
   23048:	00f687b3          	add	a5,a3,a5
   2304c:	00a41433          	sll	s0,s0,a0
   23050:	0087a023          	sw	s0,0(a5)
   23054:	0300006f          	jal	zero,23084 <__floatsitf+0xc0>
   23058:	00300713          	addi	a4,zero,3
   2305c:	40f70733          	sub	a4,a4,a5
   23060:	00271713          	slli	a4,a4,0x2
   23064:	00e68733          	add	a4,a3,a4
   23068:	00072703          	lw	a4,0(a4)
   2306c:	00200613          	addi	a2,zero,2
   23070:	00e12e23          	sw	a4,28(sp)
   23074:	00060713          	addi	a4,a2,0
   23078:	00c79663          	bne	a5,a2,23084 <__floatsitf+0xc0>
   2307c:	00812c23          	sw	s0,24(sp)
   23080:	00100713          	addi	a4,zero,1
   23084:	00271713          	slli	a4,a4,0x2
   23088:	00012823          	sw	zero,16(sp)
   2308c:	0006a223          	sw	zero,4(a3)
   23090:	ffc70713          	addi	a4,a4,-4
   23094:	00400793          	addi	a5,zero,4
   23098:	00f76463          	bltu	a4,a5,230a0 <__floatsitf+0xdc>
   2309c:	00012c23          	sw	zero,24(sp)
   230a0:	01c12783          	lw	a5,28(sp)
   230a4:	02c12083          	lw	ra,44(sp)
   230a8:	02812403          	lw	s0,40(sp)
   230ac:	00f11623          	sh	a5,12(sp)
   230b0:	00f91793          	slli	a5,s2,0xf
   230b4:	00b7e7b3          	or	a5,a5,a1
   230b8:	00f11723          	sh	a5,14(sp)
   230bc:	01012783          	lw	a5,16(sp)
   230c0:	02012903          	lw	s2,32(sp)
   230c4:	00048513          	addi	a0,s1,0
   230c8:	00f4a023          	sw	a5,0(s1)
   230cc:	01412783          	lw	a5,20(sp)
   230d0:	00f4a223          	sw	a5,4(s1)
   230d4:	01812783          	lw	a5,24(sp)
   230d8:	00f4a423          	sw	a5,8(s1)
   230dc:	00c12783          	lw	a5,12(sp)
   230e0:	00f4a623          	sw	a5,12(s1)
   230e4:	02412483          	lw	s1,36(sp)
   230e8:	03010113          	addi	sp,sp,48
   230ec:	00008067          	jalr	zero,0(ra)
   230f0:	00300793          	addi	a5,zero,3
   230f4:	f4dff06f          	jal	zero,23040 <__floatsitf+0x7c>
   230f8:	00012e23          	sw	zero,28(sp)
   230fc:	00012c23          	sw	zero,24(sp)
   23100:	00012a23          	sw	zero,20(sp)
   23104:	00012823          	sw	zero,16(sp)
   23108:	00000913          	addi	s2,zero,0
   2310c:	f95ff06f          	jal	zero,230a0 <__floatsitf+0xdc>

00023110 <__extenddftf2>:
   23110:	01465713          	srli	a4,a2,0x14
   23114:	00c61793          	slli	a5,a2,0xc
   23118:	7ff77713          	andi	a4,a4,2047
   2311c:	fd010113          	addi	sp,sp,-48
   23120:	00c7d793          	srli	a5,a5,0xc
   23124:	00170693          	addi	a3,a4,1
   23128:	02812423          	sw	s0,40(sp)
   2312c:	02912223          	sw	s1,36(sp)
   23130:	03212023          	sw	s2,32(sp)
   23134:	02112623          	sw	ra,44(sp)
   23138:	00b12823          	sw	a1,16(sp)
   2313c:	00f12a23          	sw	a5,20(sp)
   23140:	00012e23          	sw	zero,28(sp)
   23144:	00012c23          	sw	zero,24(sp)
   23148:	7fe6f693          	andi	a3,a3,2046
   2314c:	00050913          	addi	s2,a0,0
   23150:	00058493          	addi	s1,a1,0
   23154:	01f65413          	srli	s0,a2,0x1f
   23158:	08068263          	beq	a3,zero,231dc <__extenddftf2+0xcc>
   2315c:	000046b7          	lui	a3,0x4
   23160:	c0068693          	addi	a3,a3,-1024 # 3c00 <exit-0xc4b4>
   23164:	00d70733          	add	a4,a4,a3
   23168:	0047d693          	srli	a3,a5,0x4
   2316c:	00d12e23          	sw	a3,28(sp)
   23170:	01c79793          	slli	a5,a5,0x1c
   23174:	0045d693          	srli	a3,a1,0x4
   23178:	00d7e7b3          	or	a5,a5,a3
   2317c:	01c59493          	slli	s1,a1,0x1c
   23180:	00f12c23          	sw	a5,24(sp)
   23184:	00912a23          	sw	s1,20(sp)
   23188:	00012823          	sw	zero,16(sp)
   2318c:	01c12783          	lw	a5,28(sp)
   23190:	00f41413          	slli	s0,s0,0xf
   23194:	00e46433          	or	s0,s0,a4
   23198:	00f11623          	sh	a5,12(sp)
   2319c:	01012783          	lw	a5,16(sp)
   231a0:	00811723          	sh	s0,14(sp)
   231a4:	02c12083          	lw	ra,44(sp)
   231a8:	00f92023          	sw	a5,0(s2)
   231ac:	01412783          	lw	a5,20(sp)
   231b0:	02812403          	lw	s0,40(sp)
   231b4:	02412483          	lw	s1,36(sp)
   231b8:	00f92223          	sw	a5,4(s2)
   231bc:	01812783          	lw	a5,24(sp)
   231c0:	00090513          	addi	a0,s2,0
   231c4:	00f92423          	sw	a5,8(s2)
   231c8:	00c12783          	lw	a5,12(sp)
   231cc:	00f92623          	sw	a5,12(s2)
   231d0:	02012903          	lw	s2,32(sp)
   231d4:	03010113          	addi	sp,sp,48
   231d8:	00008067          	jalr	zero,0(ra)
   231dc:	00b7e533          	or	a0,a5,a1
   231e0:	0e071663          	bne	a4,zero,232cc <__extenddftf2+0x1bc>
   231e4:	fa0504e3          	beq	a0,zero,2318c <__extenddftf2+0x7c>
   231e8:	04078663          	beq	a5,zero,23234 <__extenddftf2+0x124>
   231ec:	00078513          	addi	a0,a5,0
   231f0:	118000ef          	jal	ra,23308 <__clzsi2>
   231f4:	03150693          	addi	a3,a0,49
   231f8:	4056d713          	srai	a4,a3,0x5
   231fc:	01f6f693          	andi	a3,a3,31
   23200:	01c10793          	addi	a5,sp,28
   23204:	02068e63          	beq	a3,zero,23240 <__extenddftf2+0x130>
   23208:	02000813          	addi	a6,zero,32
   2320c:	00271593          	slli	a1,a4,0x2
   23210:	40d80833          	sub	a6,a6,a3
   23214:	01010313          	addi	t1,sp,16
   23218:	40b787b3          	sub	a5,a5,a1
   2321c:	08679663          	bne	a5,t1,232a8 <__extenddftf2+0x198>
   23220:	00b787b3          	add	a5,a5,a1
   23224:	00d496b3          	sll	a3,s1,a3
   23228:	fff70713          	addi	a4,a4,-1
   2322c:	00d7a023          	sw	a3,0(a5)
   23230:	0380006f          	jal	zero,23268 <__extenddftf2+0x158>
   23234:	0d4000ef          	jal	ra,23308 <__clzsi2>
   23238:	02050513          	addi	a0,a0,32
   2323c:	fb9ff06f          	jal	zero,231f4 <__extenddftf2+0xe4>
   23240:	ffc00613          	addi	a2,zero,-4
   23244:	02c70633          	mul	a2,a4,a2
   23248:	00300693          	addi	a3,zero,3
   2324c:	00c785b3          	add	a1,a5,a2
   23250:	0005a583          	lw	a1,0(a1)
   23254:	fff68693          	addi	a3,a3,-1
   23258:	ffc78793          	addi	a5,a5,-4
   2325c:	00b7a223          	sw	a1,4(a5)
   23260:	fee6d6e3          	bge	a3,a4,2324c <__extenddftf2+0x13c>
   23264:	fff70713          	addi	a4,a4,-1
   23268:	00170713          	addi	a4,a4,1
   2326c:	00271713          	slli	a4,a4,0x2
   23270:	00800693          	addi	a3,zero,8
   23274:	01010793          	addi	a5,sp,16
   23278:	00d76a63          	bltu	a4,a3,2328c <__extenddftf2+0x17c>
   2327c:	00012823          	sw	zero,16(sp)
   23280:	0007a223          	sw	zero,4(a5)
   23284:	ff870713          	addi	a4,a4,-8
   23288:	01810793          	addi	a5,sp,24
   2328c:	00400693          	addi	a3,zero,4
   23290:	00d76463          	bltu	a4,a3,23298 <__extenddftf2+0x188>
   23294:	0007a023          	sw	zero,0(a5)
   23298:	00004737          	lui	a4,0x4
   2329c:	c0c70713          	addi	a4,a4,-1012 # 3c0c <exit-0xc4a8>
   232a0:	40a70733          	sub	a4,a4,a0
   232a4:	ee9ff06f          	jal	zero,2318c <__extenddftf2+0x7c>
   232a8:	0007a603          	lw	a2,0(a5)
   232ac:	ffc7a883          	lw	a7,-4(a5)
   232b0:	00b78e33          	add	t3,a5,a1
   232b4:	00d61633          	sll	a2,a2,a3
   232b8:	0108d8b3          	srl	a7,a7,a6
   232bc:	01166633          	or	a2,a2,a7
   232c0:	00ce2023          	sw	a2,0(t3)
   232c4:	ffc78793          	addi	a5,a5,-4
   232c8:	f55ff06f          	jal	zero,2321c <__extenddftf2+0x10c>
   232cc:	02050863          	beq	a0,zero,232fc <__extenddftf2+0x1ec>
   232d0:	01c79713          	slli	a4,a5,0x1c
   232d4:	0045d693          	srli	a3,a1,0x4
   232d8:	00d76733          	or	a4,a4,a3
   232dc:	00e12c23          	sw	a4,24(sp)
   232e0:	0047d793          	srli	a5,a5,0x4
   232e4:	00008737          	lui	a4,0x8
   232e8:	01c59493          	slli	s1,a1,0x1c
   232ec:	00e7e7b3          	or	a5,a5,a4
   232f0:	00912a23          	sw	s1,20(sp)
   232f4:	00012823          	sw	zero,16(sp)
   232f8:	00f12e23          	sw	a5,28(sp)
   232fc:	00008737          	lui	a4,0x8
   23300:	fff70713          	addi	a4,a4,-1 # 7fff <exit-0x80b5>
   23304:	e89ff06f          	jal	zero,2318c <__extenddftf2+0x7c>

00023308 <__clzsi2>:
   23308:	000107b7          	lui	a5,0x10
   2330c:	02f57a63          	bgeu	a0,a5,23340 <__clzsi2+0x38>
   23310:	10053793          	sltiu	a5,a0,256
   23314:	0017b793          	sltiu	a5,a5,1
   23318:	00379793          	slli	a5,a5,0x3
   2331c:	00070737          	lui	a4,0x70
   23320:	00f55533          	srl	a0,a0,a5
   23324:	ec470713          	addi	a4,a4,-316 # 6fec4 <__clz_tab>
   23328:	00a70733          	add	a4,a4,a0
   2332c:	00074503          	lbu	a0,0(a4)
   23330:	02000693          	addi	a3,zero,32
   23334:	40f686b3          	sub	a3,a3,a5
   23338:	40a68533          	sub	a0,a3,a0
   2333c:	00008067          	jalr	zero,0(ra)
   23340:	01000737          	lui	a4,0x1000
   23344:	01800793          	addi	a5,zero,24
   23348:	fce57ae3          	bgeu	a0,a4,2331c <__clzsi2+0x14>
   2334c:	01000793          	addi	a5,zero,16
   23350:	fcdff06f          	jal	zero,2331c <__clzsi2+0x14>
