
./rijndael_Oz:     file format elf32-littleriscv


Disassembly of section .text:

000100b4 <exit>:
   100b4:	ff010113          	addi	sp,sp,-16
   100b8:	00000593          	addi	a1,zero,0
   100bc:	00812423          	sw	s0,8(sp)
   100c0:	00112623          	sw	ra,12(sp)
   100c4:	00050413          	addi	s0,a0,0
   100c8:	2fd010ef          	jal	ra,11bc4 <__call_exitprocs>
   100cc:	8241a783          	lw	a5,-2012(gp) # 60afc <__stdio_exit_handler>
   100d0:	00078463          	beq	a5,zero,100d8 <exit+0x24>
   100d4:	000780e7          	jalr	ra,0(a5)
   100d8:	00040513          	addi	a0,s0,0
   100dc:	6c1020ef          	jal	ra,12f9c <_exit>

000100e0 <main>:
   100e0:	dc010113          	addi	sp,sp,-576
   100e4:	22912a23          	sw	s1,564(sp)
   100e8:	000134b7          	lui	s1,0x13
   100ec:	22812c23          	sw	s0,568(sp)
   100f0:	23312623          	sw	s3,556(sp)
   100f4:	23412423          	sw	s4,552(sp)
   100f8:	22112e23          	sw	ra,572(sp)
   100fc:	23212823          	sw	s2,560(sp)
   10100:	10c48493          	addi	s1,s1,268 # 1310c <__errno+0x8>
   10104:	00000413          	addi	s0,zero,0
   10108:	01410993          	addi	s3,sp,20
   1010c:	02000a13          	addi	s4,zero,32
   10110:	0004c503          	lbu	a0,0(s1)
   10114:	230000ef          	jal	ra,10344 <hex_value>
   10118:	00050913          	addi	s2,a0,0
   1011c:	0014c503          	lbu	a0,1(s1)
   10120:	224000ef          	jal	ra,10344 <hex_value>
   10124:	00190793          	addi	a5,s2,1
   10128:	0a078c63          	beq	a5,zero,101e0 <main+0x100>
   1012c:	00150793          	addi	a5,a0,1
   10130:	0a078863          	beq	a5,zero,101e0 <main+0x100>
   10134:	00491913          	slli	s2,s2,0x4
   10138:	008987b3          	add	a5,s3,s0
   1013c:	00a96933          	or	s2,s2,a0
   10140:	01278023          	sb	s2,0(a5)
   10144:	00140413          	addi	s0,s0,1
   10148:	00248493          	addi	s1,s1,2
   1014c:	fd4412e3          	bne	s0,s4,10110 <main+0x30>
   10150:	03410693          	addi	a3,sp,52
   10154:	00100613          	addi	a2,zero,1
   10158:	00040593          	addi	a1,s0,0
   1015c:	00098513          	addi	a0,s3,0
   10160:	254000ef          	jal	ra,103b4 <set_key>
   10164:	00055737          	lui	a4,0x55
   10168:	000af4b7          	lui	s1,0xaf
   1016c:	0004c5b7          	lui	a1,0x4c
   10170:	00013537          	lui	a0,0x13
   10174:	00c10793          	addi	a5,sp,12
   10178:	73070713          	addi	a4,a4,1840 # 55730 <input_small_data+0x423b8>
   1017c:	d3448693          	addi	a3,s1,-716 # aed34 <cipher_buffer.1>
   10180:	03410613          	addi	a2,sp,52
   10184:	21058593          	addi	a1,a1,528 # 4c210 <input_small_data+0x38e98>
   10188:	37850513          	addi	a0,a0,888 # 13378 <input_small_data>
   1018c:	52d000ef          	jal	ra,10eb8 <enc_buffer>
   10190:	00050793          	addi	a5,a0,0
   10194:	ffe00513          	addi	a0,zero,-2
   10198:	04079663          	bne	a5,zero,101e4 <main+0x104>
   1019c:	03410693          	addi	a3,sp,52
   101a0:	00200613          	addi	a2,zero,2
   101a4:	00040593          	addi	a1,s0,0
   101a8:	00098513          	addi	a0,s3,0
   101ac:	208000ef          	jal	ra,103b4 <set_key>
   101b0:	00c12583          	lw	a1,12(sp)
   101b4:	0004e737          	lui	a4,0x4e
   101b8:	000616b7          	lui	a3,0x61
   101bc:	01010793          	addi	a5,sp,16
   101c0:	20070713          	addi	a4,a4,512 # 4e200 <input_small_data+0x3ae88>
   101c4:	b3468693          	addi	a3,a3,-1228 # 60b34 <plain_buffer.0>
   101c8:	03410613          	addi	a2,sp,52
   101cc:	d3448513          	addi	a0,s1,-716
   101d0:	6a1000ef          	jal	ra,11070 <dec_buffer>
   101d4:	00050863          	beq	a0,zero,101e4 <main+0x104>
   101d8:	ffd00513          	addi	a0,zero,-3
   101dc:	0080006f          	jal	zero,101e4 <main+0x104>
   101e0:	fff00513          	addi	a0,zero,-1
   101e4:	23c12083          	lw	ra,572(sp)
   101e8:	23812403          	lw	s0,568(sp)
   101ec:	23412483          	lw	s1,564(sp)
   101f0:	23012903          	lw	s2,560(sp)
   101f4:	22c12983          	lw	s3,556(sp)
   101f8:	22812a03          	lw	s4,552(sp)
   101fc:	24010113          	addi	sp,sp,576
   10200:	00008067          	jalr	zero,0(ra)

00010204 <register_fini>:
   10204:	00000793          	addi	a5,zero,0
   10208:	00078863          	beq	a5,zero,10218 <register_fini+0x14>
   1020c:	00013537          	lui	a0,0x13
   10210:	e6850513          	addi	a0,a0,-408 # 12e68 <__libc_fini_array>
   10214:	2e50106f          	jal	zero,11cf8 <atexit>
   10218:	00008067          	jalr	zero,0(ra)

0001021c <_start>:
   1021c:	00051197          	auipc	gp,0x51
   10220:	0bc18193          	addi	gp,gp,188 # 612d8 <__global_pointer$>
   10224:	00051517          	auipc	a0,0x51
   10228:	8d450513          	addi	a0,a0,-1836 # 60af8 <r.2>
   1022c:	000f4617          	auipc	a2,0xf4
   10230:	52860613          	addi	a2,a2,1320 # 104754 <__BSS_END__>
   10234:	40a60633          	sub	a2,a2,a0
   10238:	00000593          	addi	a1,zero,0
   1023c:	0ad010ef          	jal	ra,11ae8 <memset>
   10240:	00002517          	auipc	a0,0x2
   10244:	ab850513          	addi	a0,a0,-1352 # 11cf8 <atexit>
   10248:	00050863          	beq	a0,zero,10258 <_start+0x3c>
   1024c:	00003517          	auipc	a0,0x3
   10250:	c1c50513          	addi	a0,a0,-996 # 12e68 <__libc_fini_array>
   10254:	2a5010ef          	jal	ra,11cf8 <atexit>
   10258:	7fc010ef          	jal	ra,11a54 <__libc_init_array>
   1025c:	00012503          	lw	a0,0(sp)
   10260:	00410593          	addi	a1,sp,4
   10264:	00000613          	addi	a2,zero,0
   10268:	e79ff0ef          	jal	ra,100e0 <main>
   1026c:	e49ff06f          	jal	zero,100b4 <exit>

00010270 <__do_global_dtors_aux>:
   10270:	ff010113          	addi	sp,sp,-16
   10274:	00812423          	sw	s0,8(sp)
   10278:	8401c783          	lbu	a5,-1984(gp) # 60b18 <completed.1>
   1027c:	00112623          	sw	ra,12(sp)
   10280:	02079263          	bne	a5,zero,102a4 <__do_global_dtors_aux+0x34>
   10284:	00000793          	addi	a5,zero,0
   10288:	00078a63          	beq	a5,zero,1029c <__do_global_dtors_aux+0x2c>
   1028c:	0005f537          	lui	a0,0x5f
   10290:	58c50513          	addi	a0,a0,1420 # 5f58c <__EH_FRAME_BEGIN__>
   10294:	00000097          	auipc	ra,0x0
   10298:	000000e7          	jalr	ra,0(zero) # 0 <exit-0x100b4>
   1029c:	00100793          	addi	a5,zero,1
   102a0:	84f18023          	sb	a5,-1984(gp) # 60b18 <completed.1>
   102a4:	00c12083          	lw	ra,12(sp)
   102a8:	00812403          	lw	s0,8(sp)
   102ac:	01010113          	addi	sp,sp,16
   102b0:	00008067          	jalr	zero,0(ra) # 10294 <__do_global_dtors_aux+0x24>

000102b4 <frame_dummy>:
   102b4:	00000793          	addi	a5,zero,0
   102b8:	00078c63          	beq	a5,zero,102d0 <frame_dummy+0x1c>
   102bc:	0005f537          	lui	a0,0x5f
   102c0:	84418593          	addi	a1,gp,-1980 # 60b1c <object.0>
   102c4:	58c50513          	addi	a0,a0,1420 # 5f58c <__EH_FRAME_BEGIN__>
   102c8:	00000317          	auipc	t1,0x0
   102cc:	00000067          	jalr	zero,0(zero) # 0 <exit-0x100b4>
   102d0:	00008067          	jalr	zero,0(ra)

000102d4 <gmul>:
   102d4:	00755693          	srli	a3,a0,0x7
   102d8:	40d006b3          	sub	a3,zero,a3
   102dc:	00151793          	slli	a5,a0,0x1
   102e0:	01b6f693          	andi	a3,a3,27
   102e4:	00f6c6b3          	xor	a3,a3,a5
   102e8:	01869793          	slli	a5,a3,0x18
   102ec:	41f7d713          	srai	a4,a5,0x1f
   102f0:	01b77713          	andi	a4,a4,27
   102f4:	00169793          	slli	a5,a3,0x1
   102f8:	00f74733          	xor	a4,a4,a5
   102fc:	0015d793          	srli	a5,a1,0x1
   10300:	0017f793          	andi	a5,a5,1
   10304:	02d787b3          	mul	a5,a5,a3
   10308:	0015f693          	andi	a3,a1,1
   1030c:	0025d593          	srli	a1,a1,0x2
   10310:	0015f593          	andi	a1,a1,1
   10314:	01871613          	slli	a2,a4,0x18
   10318:	02d50533          	mul	a0,a0,a3
   1031c:	41f65693          	srai	a3,a2,0x1f
   10320:	01b6f693          	andi	a3,a3,27
   10324:	02e585b3          	mul	a1,a1,a4
   10328:	00a7c7b3          	xor	a5,a5,a0
   1032c:	00171713          	slli	a4,a4,0x1
   10330:	00e6c733          	xor	a4,a3,a4
   10334:	00b7c7b3          	xor	a5,a5,a1
   10338:	00e7c533          	xor	a0,a5,a4
   1033c:	0ff57513          	andi	a0,a0,255
   10340:	00008067          	jalr	zero,0(ra)

00010344 <hex_value>:
   10344:	fd050793          	addi	a5,a0,-48
   10348:	0ff7f613          	andi	a2,a5,255
   1034c:	00900693          	addi	a3,zero,9
   10350:	00050713          	addi	a4,a0,0
   10354:	00c6e663          	bltu	a3,a2,10360 <hex_value+0x1c>
   10358:	00078513          	addi	a0,a5,0
   1035c:	00008067          	jalr	zero,0(ra)
   10360:	fbf50793          	addi	a5,a0,-65
   10364:	0ff7f793          	andi	a5,a5,255
   10368:	00500693          	addi	a3,zero,5
   1036c:	00f6e663          	bltu	a3,a5,10378 <hex_value+0x34>
   10370:	fc950513          	addi	a0,a0,-55
   10374:	00008067          	jalr	zero,0(ra)
   10378:	f9f50793          	addi	a5,a0,-97
   1037c:	0ff7f793          	andi	a5,a5,255
   10380:	fff00513          	addi	a0,zero,-1
   10384:	00f6e463          	bltu	a3,a5,1038c <hex_value+0x48>
   10388:	fa970513          	addi	a0,a4,-87
   1038c:	00008067          	jalr	zero,0(ra)

00010390 <my_memcpy.isra.0>:
   10390:	00000793          	addi	a5,zero,0
   10394:	00f61463          	bne	a2,a5,1039c <my_memcpy.isra.0+0xc>
   10398:	00008067          	jalr	zero,0(ra)
   1039c:	00f58733          	add	a4,a1,a5
   103a0:	00074683          	lbu	a3,0(a4)
   103a4:	00f50733          	add	a4,a0,a5
   103a8:	00178793          	addi	a5,a5,1
   103ac:	00d70023          	sb	a3,0(a4)
   103b0:	fe5ff06f          	jal	zero,10394 <my_memcpy.isra.0+0x4>

000103b4 <set_key>:
   103b4:	fb010113          	addi	sp,sp,-80
   103b8:	03312e23          	sw	s3,60(sp)
   103bc:	0025d993          	srli	s3,a1,0x2
   103c0:	05212023          	sw	s2,64(sp)
   103c4:	04112623          	sw	ra,76(sp)
   103c8:	04812423          	sw	s0,72(sp)
   103cc:	04912223          	sw	s1,68(sp)
   103d0:	03412c23          	sw	s4,56(sp)
   103d4:	03512a23          	sw	s5,52(sp)
   103d8:	03612823          	sw	s6,48(sp)
   103dc:	03712623          	sw	s7,44(sp)
   103e0:	03812423          	sw	s8,40(sp)
   103e4:	03912223          	sw	s9,36(sp)
   103e8:	03a12023          	sw	s10,32(sp)
   103ec:	01b12e23          	sw	s11,28(sp)
   103f0:	00698793          	addi	a5,s3,6
   103f4:	0136a023          	sw	s3,0(a3)
   103f8:	00f6a223          	sw	a5,4(a3)
   103fc:	1ec68423          	sb	a2,488(a3)
   10400:	00299813          	slli	a6,s3,0x2
   10404:	00000913          	addi	s2,zero,0
   10408:	27281a63          	bne	a6,s2,1067c <set_key+0x2c8>
   1040c:	0079b313          	sltiu	t1,s3,7
   10410:	00868b93          	addi	s7,a3,8
   10414:	00013537          	lui	a0,0x13
   10418:	01c90e13          	addi	t3,s2,28
   1041c:	00000793          	addi	a5,zero,0
   10420:	00134313          	xori	t1,t1,1
   10424:	012b88b3          	add	a7,s7,s2
   10428:	41200eb3          	sub	t4,zero,s2
   1042c:	00098813          	addi	a6,s3,0
   10430:	15050513          	addi	a0,a0,336 # 13150 <s_box>
   10434:	29c86263          	bltu	a6,t3,106b8 <set_key+0x304>
   10438:	00267613          	andi	a2,a2,2
   1043c:	00078413          	addi	s0,a5,0
   10440:	1e060e63          	beq	a2,zero,1063c <set_key+0x288>
   10444:	0f868793          	addi	a5,a3,248
   10448:	10868713          	addi	a4,a3,264
   1044c:	00499993          	slli	s3,s3,0x4
   10450:	01378633          	add	a2,a5,s3
   10454:	f7062603          	lw	a2,-144(a2)
   10458:	00478793          	addi	a5,a5,4
   1045c:	fec7ae23          	sw	a2,-4(a5)
   10460:	fef718e3          	bne	a4,a5,10450 <set_key+0x9c>
   10464:	ffff0ab7          	lui	s5,0xffff0
   10468:	ff010b37          	lui	s6,0xff010
   1046c:	00068493          	addi	s1,a3,0
   10470:	01490913          	addi	s2,s2,20
   10474:	00400d13          	addi	s10,zero,4
   10478:	0ffa8a93          	addi	s5,s5,255 # ffff00ff <__BSS_END__+0xffeeb9ab>
   1047c:	fffb0b13          	addi	s6,s6,-1 # ff00ffff <__BSS_END__+0xfef0b8ab>
   10480:	00291c93          	slli	s9,s2,0x2
   10484:	002d1c13          	slli	s8,s10,0x2
   10488:	01948cb3          	add	s9,s1,s9
   1048c:	01848c33          	add	s8,s1,s8
   10490:	00000d93          	addi	s11,zero,0
   10494:	008ca783          	lw	a5,8(s9)
   10498:	00e00593          	addi	a1,zero,14
   1049c:	001d8d93          	addi	s11,s11,1
   104a0:	0ff7f713          	andi	a4,a5,255
   104a4:	00e12623          	sw	a4,12(sp)
   104a8:	0087d613          	srli	a2,a5,0x8
   104ac:	00c12503          	lw	a0,12(sp)
   104b0:	0ff67713          	andi	a4,a2,255
   104b4:	0107d613          	srli	a2,a5,0x10
   104b8:	00e12423          	sw	a4,8(sp)
   104bc:	0187d793          	srli	a5,a5,0x18
   104c0:	0ff67713          	andi	a4,a2,255
   104c4:	00e12223          	sw	a4,4(sp)
   104c8:	00f12023          	sw	a5,0(sp)
   104cc:	e09ff0ef          	jal	ra,102d4 <gmul>
   104d0:	00050a13          	addi	s4,a0,0
   104d4:	00812503          	lw	a0,8(sp)
   104d8:	00b00593          	addi	a1,zero,11
   104dc:	004c8c93          	addi	s9,s9,4
   104e0:	df5ff0ef          	jal	ra,102d4 <gmul>
   104e4:	00aa4a33          	xor	s4,s4,a0
   104e8:	00412503          	lw	a0,4(sp)
   104ec:	00d00593          	addi	a1,zero,13
   104f0:	004c0c13          	addi	s8,s8,4
   104f4:	de1ff0ef          	jal	ra,102d4 <gmul>
   104f8:	00aa4a33          	xor	s4,s4,a0
   104fc:	00012503          	lw	a0,0(sp)
   10500:	00900593          	addi	a1,zero,9
   10504:	dd1ff0ef          	jal	ra,102d4 <gmul>
   10508:	00aa4a33          	xor	s4,s4,a0
   1050c:	00c12503          	lw	a0,12(sp)
   10510:	f0047793          	andi	a5,s0,-256
   10514:	0ffa7a13          	andi	s4,s4,255
   10518:	00900593          	addi	a1,zero,9
   1051c:	0147e433          	or	s0,a5,s4
   10520:	db5ff0ef          	jal	ra,102d4 <gmul>
   10524:	00050a13          	addi	s4,a0,0
   10528:	00812503          	lw	a0,8(sp)
   1052c:	00e00593          	addi	a1,zero,14
   10530:	da5ff0ef          	jal	ra,102d4 <gmul>
   10534:	00aa4a33          	xor	s4,s4,a0
   10538:	00412503          	lw	a0,4(sp)
   1053c:	00b00593          	addi	a1,zero,11
   10540:	d95ff0ef          	jal	ra,102d4 <gmul>
   10544:	00aa4a33          	xor	s4,s4,a0
   10548:	00012503          	lw	a0,0(sp)
   1054c:	00d00593          	addi	a1,zero,13
   10550:	d85ff0ef          	jal	ra,102d4 <gmul>
   10554:	00aa4a33          	xor	s4,s4,a0
   10558:	00c12503          	lw	a0,12(sp)
   1055c:	0ffa7a13          	andi	s4,s4,255
   10560:	015477b3          	and	a5,s0,s5
   10564:	008a1a13          	slli	s4,s4,0x8
   10568:	00d00593          	addi	a1,zero,13
   1056c:	0147e433          	or	s0,a5,s4
   10570:	d65ff0ef          	jal	ra,102d4 <gmul>
   10574:	00050a13          	addi	s4,a0,0
   10578:	00812503          	lw	a0,8(sp)
   1057c:	00900593          	addi	a1,zero,9
   10580:	d55ff0ef          	jal	ra,102d4 <gmul>
   10584:	00aa4a33          	xor	s4,s4,a0
   10588:	00412503          	lw	a0,4(sp)
   1058c:	00e00593          	addi	a1,zero,14
   10590:	d45ff0ef          	jal	ra,102d4 <gmul>
   10594:	00aa4a33          	xor	s4,s4,a0
   10598:	00012503          	lw	a0,0(sp)
   1059c:	00b00593          	addi	a1,zero,11
   105a0:	d35ff0ef          	jal	ra,102d4 <gmul>
   105a4:	00aa4a33          	xor	s4,s4,a0
   105a8:	00c12503          	lw	a0,12(sp)
   105ac:	0ffa7a13          	andi	s4,s4,255
   105b0:	016477b3          	and	a5,s0,s6
   105b4:	010a1a13          	slli	s4,s4,0x10
   105b8:	00b00593          	addi	a1,zero,11
   105bc:	0147e433          	or	s0,a5,s4
   105c0:	d15ff0ef          	jal	ra,102d4 <gmul>
   105c4:	00050a13          	addi	s4,a0,0
   105c8:	00812503          	lw	a0,8(sp)
   105cc:	00d00593          	addi	a1,zero,13
   105d0:	d05ff0ef          	jal	ra,102d4 <gmul>
   105d4:	00aa4a33          	xor	s4,s4,a0
   105d8:	00412503          	lw	a0,4(sp)
   105dc:	00900593          	addi	a1,zero,9
   105e0:	cf5ff0ef          	jal	ra,102d4 <gmul>
   105e4:	00aa4a33          	xor	s4,s4,a0
   105e8:	00012503          	lw	a0,0(sp)
   105ec:	00e00593          	addi	a1,zero,14
   105f0:	ce5ff0ef          	jal	ra,102d4 <gmul>
   105f4:	010007b7          	lui	a5,0x1000
   105f8:	00aa4a33          	xor	s4,s4,a0
   105fc:	fff78713          	addi	a4,a5,-1 # ffffff <__BSS_END__+0xefb8ab>
   10600:	018a1a13          	slli	s4,s4,0x18
   10604:	00e477b3          	and	a5,s0,a4
   10608:	0147e433          	or	s0,a5,s4
   1060c:	0e8c2a23          	sw	s0,244(s8)
   10610:	00400693          	addi	a3,zero,4
   10614:	e8dd90e3          	bne	s11,a3,10494 <set_key+0xe0>
   10618:	ffc90913          	addi	s2,s2,-4
   1061c:	00dd0d33          	add	s10,s10,a3
   10620:	e60910e3          	bne	s2,zero,10480 <set_key+0xcc>
   10624:	01848493          	addi	s1,s1,24
   10628:	000ba703          	lw	a4,0(s7)
   1062c:	013b87b3          	add	a5,s7,s3
   10630:	004b8b93          	addi	s7,s7,4
   10634:	14e7a823          	sw	a4,336(a5)
   10638:	fe9b98e3          	bne	s7,s1,10628 <set_key+0x274>
   1063c:	04c12083          	lw	ra,76(sp)
   10640:	04812403          	lw	s0,72(sp)
   10644:	04412483          	lw	s1,68(sp)
   10648:	04012903          	lw	s2,64(sp)
   1064c:	03c12983          	lw	s3,60(sp)
   10650:	03812a03          	lw	s4,56(sp)
   10654:	03412a83          	lw	s5,52(sp)
   10658:	03012b03          	lw	s6,48(sp)
   1065c:	02c12b83          	lw	s7,44(sp)
   10660:	02812c03          	lw	s8,40(sp)
   10664:	02412c83          	lw	s9,36(sp)
   10668:	02012d03          	lw	s10,32(sp)
   1066c:	01c12d83          	lw	s11,28(sp)
   10670:	00100513          	addi	a0,zero,1
   10674:	05010113          	addi	sp,sp,80
   10678:	00008067          	jalr	zero,0(ra)
   1067c:	012505b3          	add	a1,a0,s2
   10680:	0015c783          	lbu	a5,1(a1)
   10684:	0005c703          	lbu	a4,0(a1)
   10688:	00879793          	slli	a5,a5,0x8
   1068c:	00e7e7b3          	or	a5,a5,a4
   10690:	0025c703          	lbu	a4,2(a1)
   10694:	01071713          	slli	a4,a4,0x10
   10698:	00f76733          	or	a4,a4,a5
   1069c:	0035c783          	lbu	a5,3(a1)
   106a0:	01879793          	slli	a5,a5,0x18
   106a4:	00e7e7b3          	or	a5,a5,a4
   106a8:	01268733          	add	a4,a3,s2
   106ac:	00f72423          	sw	a5,8(a4)
   106b0:	00490913          	addi	s2,s2,4
   106b4:	d55ff06f          	jal	zero,10408 <set_key+0x54>
   106b8:	03387733          	remu	a4,a6,s3
   106bc:	ffc8a783          	lw	a5,-4(a7)
   106c0:	08071463          	bne	a4,zero,10748 <set_key+0x394>
   106c4:	0107d713          	srli	a4,a5,0x10
   106c8:	0187d593          	srli	a1,a5,0x18
   106cc:	0ff77713          	andi	a4,a4,255
   106d0:	00e50733          	add	a4,a0,a4
   106d4:	00b505b3          	add	a1,a0,a1
   106d8:	00074703          	lbu	a4,0(a4)
   106dc:	0005c583          	lbu	a1,0(a1)
   106e0:	00871713          	slli	a4,a4,0x8
   106e4:	01059593          	slli	a1,a1,0x10
   106e8:	00b76733          	or	a4,a4,a1
   106ec:	0087d593          	srli	a1,a5,0x8
   106f0:	0ff5f593          	andi	a1,a1,255
   106f4:	0ff7f793          	andi	a5,a5,255
   106f8:	00b505b3          	add	a1,a0,a1
   106fc:	00f507b3          	add	a5,a0,a5
   10700:	0005c583          	lbu	a1,0(a1)
   10704:	0007c783          	lbu	a5,0(a5)
   10708:	00b76733          	or	a4,a4,a1
   1070c:	01879793          	slli	a5,a5,0x18
   10710:	00f76733          	or	a4,a4,a5
   10714:	033857b3          	divu	a5,a6,s3
   10718:	fff78793          	addi	a5,a5,-1
   1071c:	00279793          	slli	a5,a5,0x2
   10720:	00f507b3          	add	a5,a0,a5
   10724:	1007a783          	lw	a5,256(a5)
   10728:	00f747b3          	xor	a5,a4,a5
   1072c:	01d88733          	add	a4,a7,t4
   10730:	00072703          	lw	a4,0(a4)
   10734:	00180813          	addi	a6,a6,1
   10738:	00488893          	addi	a7,a7,4
   1073c:	00f74733          	xor	a4,a4,a5
   10740:	fee8ae23          	sw	a4,-4(a7)
   10744:	cf1ff06f          	jal	zero,10434 <set_key+0x80>
   10748:	ffc70713          	addi	a4,a4,-4
   1074c:	fe0710e3          	bne	a4,zero,1072c <set_key+0x378>
   10750:	fc030ee3          	beq	t1,zero,1072c <set_key+0x378>
   10754:	0087d593          	srli	a1,a5,0x8
   10758:	0107df13          	srli	t5,a5,0x10
   1075c:	00013737          	lui	a4,0x13
   10760:	15070713          	addi	a4,a4,336 # 13150 <s_box>
   10764:	0ff5f593          	andi	a1,a1,255
   10768:	0fff7f13          	andi	t5,t5,255
   1076c:	00b705b3          	add	a1,a4,a1
   10770:	01e70f33          	add	t5,a4,t5
   10774:	0005c583          	lbu	a1,0(a1)
   10778:	000f4f03          	lbu	t5,0(t5)
   1077c:	00859593          	slli	a1,a1,0x8
   10780:	010f1f13          	slli	t5,t5,0x10
   10784:	01e5e5b3          	or	a1,a1,t5
   10788:	0ff7ff13          	andi	t5,a5,255
   1078c:	0187d793          	srli	a5,a5,0x18
   10790:	01e70f33          	add	t5,a4,t5
   10794:	00f70733          	add	a4,a4,a5
   10798:	000f4f03          	lbu	t5,0(t5)
   1079c:	00074783          	lbu	a5,0(a4)
   107a0:	01e5e5b3          	or	a1,a1,t5
   107a4:	01879793          	slli	a5,a5,0x18
   107a8:	00f5e7b3          	or	a5,a1,a5
   107ac:	f81ff06f          	jal	zero,1072c <set_key+0x378>

000107b0 <encrypt>:
   107b0:	fc010113          	addi	sp,sp,-64
   107b4:	00050313          	addi	t1,a0,0
   107b8:	02112e23          	sw	ra,60(sp)
   107bc:	00058513          	addi	a0,a1,0
   107c0:	02812c23          	sw	s0,56(sp)
   107c4:	02912a23          	sw	s1,52(sp)
   107c8:	03212823          	sw	s2,48(sp)
   107cc:	03312623          	sw	s3,44(sp)
   107d0:	00000793          	addi	a5,zero,0
   107d4:	00010593          	addi	a1,sp,0
   107d8:	01000693          	addi	a3,zero,16
   107dc:	00f30733          	add	a4,t1,a5
   107e0:	00f608b3          	add	a7,a2,a5
   107e4:	00072703          	lw	a4,0(a4)
   107e8:	0088a883          	lw	a7,8(a7)
   107ec:	00f58833          	add	a6,a1,a5
   107f0:	00478793          	addi	a5,a5,4
   107f4:	01174733          	xor	a4,a4,a7
   107f8:	00e82023          	sw	a4,0(a6)
   107fc:	fed790e3          	bne	a5,a3,107dc <encrypt+0x2c>
   10800:	00462f83          	lw	t6,4(a2)
   10804:	000137b7          	lui	a5,0x13
   10808:	01860e93          	addi	t4,a2,24
   1080c:	00100f13          	addi	t5,zero,1
   10810:	15078793          	addi	a5,a5,336 # 13150 <s_box>
   10814:	01010293          	addi	t0,sp,16
   10818:	01000393          	addi	t2,zero,16
   1081c:	03eff663          	bgeu	t6,t5,10848 <encrypt+0x98>
   10820:	01000613          	addi	a2,zero,16
   10824:	b6dff0ef          	jal	ra,10390 <my_memcpy.isra.0>
   10828:	03c12083          	lw	ra,60(sp)
   1082c:	03812403          	lw	s0,56(sp)
   10830:	03412483          	lw	s1,52(sp)
   10834:	03012903          	lw	s2,48(sp)
   10838:	02c12983          	lw	s3,44(sp)
   1083c:	00100513          	addi	a0,zero,1
   10840:	04010113          	addi	sp,sp,64
   10844:	00008067          	jalr	zero,0(ra)
   10848:	00014703          	lbu	a4,0(sp)
   1084c:	00e78733          	add	a4,a5,a4
   10850:	00074703          	lbu	a4,0(a4)
   10854:	00e10823          	sb	a4,16(sp)
   10858:	00514703          	lbu	a4,5(sp)
   1085c:	00e78733          	add	a4,a5,a4
   10860:	00074703          	lbu	a4,0(a4)
   10864:	00e108a3          	sb	a4,17(sp)
   10868:	00a14703          	lbu	a4,10(sp)
   1086c:	00e78733          	add	a4,a5,a4
   10870:	00074703          	lbu	a4,0(a4)
   10874:	00e10923          	sb	a4,18(sp)
   10878:	00f14703          	lbu	a4,15(sp)
   1087c:	00e78733          	add	a4,a5,a4
   10880:	00074703          	lbu	a4,0(a4)
   10884:	00e109a3          	sb	a4,19(sp)
   10888:	00414703          	lbu	a4,4(sp)
   1088c:	00e78733          	add	a4,a5,a4
   10890:	00074703          	lbu	a4,0(a4)
   10894:	00e10a23          	sb	a4,20(sp)
   10898:	00914703          	lbu	a4,9(sp)
   1089c:	00e78733          	add	a4,a5,a4
   108a0:	00074703          	lbu	a4,0(a4)
   108a4:	00e10aa3          	sb	a4,21(sp)
   108a8:	00e14703          	lbu	a4,14(sp)
   108ac:	00e78733          	add	a4,a5,a4
   108b0:	00074703          	lbu	a4,0(a4)
   108b4:	00e10b23          	sb	a4,22(sp)
   108b8:	00314703          	lbu	a4,3(sp)
   108bc:	00e78733          	add	a4,a5,a4
   108c0:	00074703          	lbu	a4,0(a4)
   108c4:	00e10ba3          	sb	a4,23(sp)
   108c8:	00814703          	lbu	a4,8(sp)
   108cc:	00e78733          	add	a4,a5,a4
   108d0:	00074703          	lbu	a4,0(a4)
   108d4:	00e10c23          	sb	a4,24(sp)
   108d8:	00d14703          	lbu	a4,13(sp)
   108dc:	00e78733          	add	a4,a5,a4
   108e0:	00074703          	lbu	a4,0(a4)
   108e4:	00e10ca3          	sb	a4,25(sp)
   108e8:	00214703          	lbu	a4,2(sp)
   108ec:	00e78733          	add	a4,a5,a4
   108f0:	00074703          	lbu	a4,0(a4)
   108f4:	00e10d23          	sb	a4,26(sp)
   108f8:	00714703          	lbu	a4,7(sp)
   108fc:	00e78733          	add	a4,a5,a4
   10900:	00074703          	lbu	a4,0(a4)
   10904:	00e10da3          	sb	a4,27(sp)
   10908:	00c14703          	lbu	a4,12(sp)
   1090c:	00e78733          	add	a4,a5,a4
   10910:	00074703          	lbu	a4,0(a4)
   10914:	00e10e23          	sb	a4,28(sp)
   10918:	00114703          	lbu	a4,1(sp)
   1091c:	00e78733          	add	a4,a5,a4
   10920:	00074703          	lbu	a4,0(a4)
   10924:	00e10ea3          	sb	a4,29(sp)
   10928:	00614703          	lbu	a4,6(sp)
   1092c:	00e78733          	add	a4,a5,a4
   10930:	00074703          	lbu	a4,0(a4)
   10934:	00e10f23          	sb	a4,30(sp)
   10938:	00b14703          	lbu	a4,11(sp)
   1093c:	00e78733          	add	a4,a5,a4
   10940:	00074703          	lbu	a4,0(a4)
   10944:	00e10fa3          	sb	a4,31(sp)
   10948:	0fff7c63          	bgeu	t5,t6,10a40 <encrypt+0x290>
   1094c:	00028313          	addi	t1,t0,0
   10950:	00058e13          	addi	t3,a1,0
   10954:	00034803          	lbu	a6,0(t1) # 102c8 <frame_dummy+0x14>
   10958:	00134403          	lbu	s0,1(t1)
   1095c:	00234903          	lbu	s2,2(t1)
   10960:	00785693          	srli	a3,a6,0x7
   10964:	40d006b3          	sub	a3,zero,a3
   10968:	00181713          	slli	a4,a6,0x1
   1096c:	01b6f693          	andi	a3,a3,27
   10970:	00e6c6b3          	xor	a3,a3,a4
   10974:	00745713          	srli	a4,s0,0x7
   10978:	00334883          	lbu	a7,3(t1)
   1097c:	40e00733          	sub	a4,zero,a4
   10980:	00141613          	slli	a2,s0,0x1
   10984:	01b77713          	andi	a4,a4,27
   10988:	012444b3          	xor	s1,s0,s2
   1098c:	00c74733          	xor	a4,a4,a2
   10990:	00e6c9b3          	xor	s3,a3,a4
   10994:	0098c633          	xor	a2,a7,s1
   10998:	01364633          	xor	a2,a2,s3
   1099c:	00ce0023          	sb	a2,0(t3)
   109a0:	00795613          	srli	a2,s2,0x7
   109a4:	40c00633          	sub	a2,zero,a2
   109a8:	00191993          	slli	s3,s2,0x1
   109ac:	01b67613          	andi	a2,a2,27
   109b0:	01364633          	xor	a2,a2,s3
   109b4:	00c74733          	xor	a4,a4,a2
   109b8:	01194933          	xor	s2,s2,a7
   109bc:	00e84733          	xor	a4,a6,a4
   109c0:	01274733          	xor	a4,a4,s2
   109c4:	00ee00a3          	sb	a4,1(t3)
   109c8:	0078d713          	srli	a4,a7,0x7
   109cc:	40e00733          	sub	a4,zero,a4
   109d0:	00189913          	slli	s2,a7,0x1
   109d4:	01b77713          	andi	a4,a4,27
   109d8:	01274733          	xor	a4,a4,s2
   109dc:	00884433          	xor	s0,a6,s0
   109e0:	00e64633          	xor	a2,a2,a4
   109e4:	00e6c6b3          	xor	a3,a3,a4
   109e8:	0088c8b3          	xor	a7,a7,s0
   109ec:	00984833          	xor	a6,a6,s1
   109f0:	00c8c8b3          	xor	a7,a7,a2
   109f4:	00d84833          	xor	a6,a6,a3
   109f8:	011e0123          	sb	a7,2(t3)
   109fc:	010e01a3          	sb	a6,3(t3)
   10a00:	00430313          	addi	t1,t1,4
   10a04:	02010713          	addi	a4,sp,32
   10a08:	004e0e13          	addi	t3,t3,4
   10a0c:	f46714e3          	bne	a4,t1,10954 <encrypt+0x1a4>
   10a10:	000e8713          	addi	a4,t4,0
   10a14:	00058693          	addi	a3,a1,0
   10a18:	010e8e93          	addi	t4,t4,16
   10a1c:	0006a603          	lw	a2,0(a3)
   10a20:	00072803          	lw	a6,0(a4)
   10a24:	00470713          	addi	a4,a4,4
   10a28:	00468693          	addi	a3,a3,4
   10a2c:	01064633          	xor	a2,a2,a6
   10a30:	fec6ae23          	sw	a2,-4(a3)
   10a34:	feee94e3          	bne	t4,a4,10a1c <encrypt+0x26c>
   10a38:	001f0f13          	addi	t5,t5,1
   10a3c:	de1ff06f          	jal	zero,1081c <encrypt+0x6c>
   10a40:	00000713          	addi	a4,zero,0
   10a44:	00e28633          	add	a2,t0,a4
   10a48:	00064603          	lbu	a2,0(a2)
   10a4c:	00e586b3          	add	a3,a1,a4
   10a50:	00170713          	addi	a4,a4,1
   10a54:	00c68023          	sb	a2,0(a3)
   10a58:	fe7716e3          	bne	a4,t2,10a44 <encrypt+0x294>
   10a5c:	fb5ff06f          	jal	zero,10a10 <encrypt+0x260>

00010a60 <decrypt>:
   10a60:	f9010113          	addi	sp,sp,-112
   10a64:	05412c23          	sw	s4,88(sp)
   10a68:	06112623          	sw	ra,108(sp)
   10a6c:	06812423          	sw	s0,104(sp)
   10a70:	06912223          	sw	s1,100(sp)
   10a74:	07212023          	sw	s2,96(sp)
   10a78:	05312e23          	sw	s3,92(sp)
   10a7c:	05512a23          	sw	s5,84(sp)
   10a80:	05612823          	sw	s6,80(sp)
   10a84:	05712623          	sw	s7,76(sp)
   10a88:	05812423          	sw	s8,72(sp)
   10a8c:	05912223          	sw	s9,68(sp)
   10a90:	05a12023          	sw	s10,64(sp)
   10a94:	03b12e23          	sw	s11,60(sp)
   10a98:	00b12623          	sw	a1,12(sp)
   10a9c:	00000793          	addi	a5,zero,0
   10aa0:	01010a13          	addi	s4,sp,16
   10aa4:	01000693          	addi	a3,zero,16
   10aa8:	00f50733          	add	a4,a0,a5
   10aac:	00f60833          	add	a6,a2,a5
   10ab0:	00072703          	lw	a4,0(a4)
   10ab4:	0f882803          	lw	a6,248(a6)
   10ab8:	00fa05b3          	add	a1,s4,a5
   10abc:	00478793          	addi	a5,a5,4
   10ac0:	01074733          	xor	a4,a4,a6
   10ac4:	00e5a023          	sw	a4,0(a1)
   10ac8:	fed790e3          	bne	a5,a3,10aa8 <decrypt+0x48>
   10acc:	00462b83          	lw	s7,4(a2)
   10ad0:	00013437          	lui	s0,0x13
   10ad4:	10860a93          	addi	s5,a2,264
   10ad8:	00100b13          	addi	s6,zero,1
   10adc:	15040413          	addi	s0,s0,336 # 13150 <s_box>
   10ae0:	02010c13          	addi	s8,sp,32
   10ae4:	01000c93          	addi	s9,zero,16
   10ae8:	056bfa63          	bgeu	s7,s6,10b3c <decrypt+0xdc>
   10aec:	00c12503          	lw	a0,12(sp)
   10af0:	000a0593          	addi	a1,s4,0
   10af4:	01000613          	addi	a2,zero,16
   10af8:	899ff0ef          	jal	ra,10390 <my_memcpy.isra.0>
   10afc:	06c12083          	lw	ra,108(sp)
   10b00:	06812403          	lw	s0,104(sp)
   10b04:	06412483          	lw	s1,100(sp)
   10b08:	06012903          	lw	s2,96(sp)
   10b0c:	05c12983          	lw	s3,92(sp)
   10b10:	05812a03          	lw	s4,88(sp)
   10b14:	05412a83          	lw	s5,84(sp)
   10b18:	05012b03          	lw	s6,80(sp)
   10b1c:	04c12b83          	lw	s7,76(sp)
   10b20:	04812c03          	lw	s8,72(sp)
   10b24:	04412c83          	lw	s9,68(sp)
   10b28:	04012d03          	lw	s10,64(sp)
   10b2c:	03c12d83          	lw	s11,60(sp)
   10b30:	00100513          	addi	a0,zero,1
   10b34:	07010113          	addi	sp,sp,112
   10b38:	00008067          	jalr	zero,0(ra)
   10b3c:	01014783          	lbu	a5,16(sp)
   10b40:	00f407b3          	add	a5,s0,a5
   10b44:	1287c783          	lbu	a5,296(a5)
   10b48:	02f10023          	sb	a5,32(sp)
   10b4c:	01d14783          	lbu	a5,29(sp)
   10b50:	00f407b3          	add	a5,s0,a5
   10b54:	1287c783          	lbu	a5,296(a5)
   10b58:	02f100a3          	sb	a5,33(sp)
   10b5c:	01a14783          	lbu	a5,26(sp)
   10b60:	00f407b3          	add	a5,s0,a5
   10b64:	1287c783          	lbu	a5,296(a5)
   10b68:	02f10123          	sb	a5,34(sp)
   10b6c:	01714783          	lbu	a5,23(sp)
   10b70:	00f407b3          	add	a5,s0,a5
   10b74:	1287c783          	lbu	a5,296(a5)
   10b78:	02f101a3          	sb	a5,35(sp)
   10b7c:	01414783          	lbu	a5,20(sp)
   10b80:	00f407b3          	add	a5,s0,a5
   10b84:	1287c783          	lbu	a5,296(a5)
   10b88:	02f10223          	sb	a5,36(sp)
   10b8c:	01114783          	lbu	a5,17(sp)
   10b90:	00f407b3          	add	a5,s0,a5
   10b94:	1287c783          	lbu	a5,296(a5)
   10b98:	02f102a3          	sb	a5,37(sp)
   10b9c:	01e14783          	lbu	a5,30(sp)
   10ba0:	00f407b3          	add	a5,s0,a5
   10ba4:	1287c783          	lbu	a5,296(a5)
   10ba8:	02f10323          	sb	a5,38(sp)
   10bac:	01b14783          	lbu	a5,27(sp)
   10bb0:	00f407b3          	add	a5,s0,a5
   10bb4:	1287c783          	lbu	a5,296(a5)
   10bb8:	02f103a3          	sb	a5,39(sp)
   10bbc:	01814783          	lbu	a5,24(sp)
   10bc0:	00f407b3          	add	a5,s0,a5
   10bc4:	1287c783          	lbu	a5,296(a5)
   10bc8:	02f10423          	sb	a5,40(sp)
   10bcc:	01514783          	lbu	a5,21(sp)
   10bd0:	00f407b3          	add	a5,s0,a5
   10bd4:	1287c783          	lbu	a5,296(a5)
   10bd8:	02f104a3          	sb	a5,41(sp)
   10bdc:	01214783          	lbu	a5,18(sp)
   10be0:	00f407b3          	add	a5,s0,a5
   10be4:	1287c783          	lbu	a5,296(a5)
   10be8:	02f10523          	sb	a5,42(sp)
   10bec:	01f14783          	lbu	a5,31(sp)
   10bf0:	00f407b3          	add	a5,s0,a5
   10bf4:	1287c783          	lbu	a5,296(a5)
   10bf8:	02f105a3          	sb	a5,43(sp)
   10bfc:	01c14783          	lbu	a5,28(sp)
   10c00:	00f407b3          	add	a5,s0,a5
   10c04:	1287c783          	lbu	a5,296(a5)
   10c08:	02f10623          	sb	a5,44(sp)
   10c0c:	01914783          	lbu	a5,25(sp)
   10c10:	00f407b3          	add	a5,s0,a5
   10c14:	1287c783          	lbu	a5,296(a5)
   10c18:	02f106a3          	sb	a5,45(sp)
   10c1c:	01614783          	lbu	a5,22(sp)
   10c20:	00f407b3          	add	a5,s0,a5
   10c24:	1287c783          	lbu	a5,296(a5)
   10c28:	02f10723          	sb	a5,46(sp)
   10c2c:	01314783          	lbu	a5,19(sp)
   10c30:	00f407b3          	add	a5,s0,a5
   10c34:	1287c783          	lbu	a5,296(a5)
   10c38:	02f107a3          	sb	a5,47(sp)
   10c3c:	177b7e63          	bgeu	s6,s7,10db8 <decrypt+0x358>
   10c40:	000c0493          	addi	s1,s8,0
   10c44:	000a0993          	addi	s3,s4,0
   10c48:	0004c783          	lbu	a5,0(s1)
   10c4c:	00e00593          	addi	a1,zero,14
   10c50:	00448493          	addi	s1,s1,4
   10c54:	00078d13          	addi	s10,a5,0
   10c58:	ffd4c783          	lbu	a5,-3(s1)
   10c5c:	000d0513          	addi	a0,s10,0
   10c60:	00498993          	addi	s3,s3,4
   10c64:	00078d93          	addi	s11,a5,0
   10c68:	ffe4c783          	lbu	a5,-2(s1)
   10c6c:	00f12223          	sw	a5,4(sp)
   10c70:	fff4c783          	lbu	a5,-1(s1)
   10c74:	00f12423          	sw	a5,8(sp)
   10c78:	e5cff0ef          	jal	ra,102d4 <gmul>
   10c7c:	00050913          	addi	s2,a0,0
   10c80:	00b00593          	addi	a1,zero,11
   10c84:	000d8513          	addi	a0,s11,0
   10c88:	e4cff0ef          	jal	ra,102d4 <gmul>
   10c8c:	00a94933          	xor	s2,s2,a0
   10c90:	00412503          	lw	a0,4(sp)
   10c94:	00d00593          	addi	a1,zero,13
   10c98:	e3cff0ef          	jal	ra,102d4 <gmul>
   10c9c:	00a94933          	xor	s2,s2,a0
   10ca0:	00812503          	lw	a0,8(sp)
   10ca4:	00900593          	addi	a1,zero,9
   10ca8:	e2cff0ef          	jal	ra,102d4 <gmul>
   10cac:	00a94933          	xor	s2,s2,a0
   10cb0:	ff298e23          	sb	s2,-4(s3)
   10cb4:	00900593          	addi	a1,zero,9
   10cb8:	000d0513          	addi	a0,s10,0
   10cbc:	e18ff0ef          	jal	ra,102d4 <gmul>
   10cc0:	00050913          	addi	s2,a0,0
   10cc4:	00e00593          	addi	a1,zero,14
   10cc8:	000d8513          	addi	a0,s11,0
   10ccc:	e08ff0ef          	jal	ra,102d4 <gmul>
   10cd0:	00a94933          	xor	s2,s2,a0
   10cd4:	00412503          	lw	a0,4(sp)
   10cd8:	00b00593          	addi	a1,zero,11
   10cdc:	df8ff0ef          	jal	ra,102d4 <gmul>
   10ce0:	00a94933          	xor	s2,s2,a0
   10ce4:	00812503          	lw	a0,8(sp)
   10ce8:	00d00593          	addi	a1,zero,13
   10cec:	de8ff0ef          	jal	ra,102d4 <gmul>
   10cf0:	00a94933          	xor	s2,s2,a0
   10cf4:	ff298ea3          	sb	s2,-3(s3)
   10cf8:	00d00593          	addi	a1,zero,13
   10cfc:	000d0513          	addi	a0,s10,0
   10d00:	dd4ff0ef          	jal	ra,102d4 <gmul>
   10d04:	00050913          	addi	s2,a0,0
   10d08:	00900593          	addi	a1,zero,9
   10d0c:	000d8513          	addi	a0,s11,0
   10d10:	dc4ff0ef          	jal	ra,102d4 <gmul>
   10d14:	00a94933          	xor	s2,s2,a0
   10d18:	00412503          	lw	a0,4(sp)
   10d1c:	00e00593          	addi	a1,zero,14
   10d20:	db4ff0ef          	jal	ra,102d4 <gmul>
   10d24:	00a94933          	xor	s2,s2,a0
   10d28:	00812503          	lw	a0,8(sp)
   10d2c:	00b00593          	addi	a1,zero,11
   10d30:	da4ff0ef          	jal	ra,102d4 <gmul>
   10d34:	00a94933          	xor	s2,s2,a0
   10d38:	ff298f23          	sb	s2,-2(s3)
   10d3c:	00b00593          	addi	a1,zero,11
   10d40:	000d0513          	addi	a0,s10,0
   10d44:	d90ff0ef          	jal	ra,102d4 <gmul>
   10d48:	00050913          	addi	s2,a0,0
   10d4c:	00d00593          	addi	a1,zero,13
   10d50:	000d8513          	addi	a0,s11,0
   10d54:	d80ff0ef          	jal	ra,102d4 <gmul>
   10d58:	00a94933          	xor	s2,s2,a0
   10d5c:	00412503          	lw	a0,4(sp)
   10d60:	00900593          	addi	a1,zero,9
   10d64:	d70ff0ef          	jal	ra,102d4 <gmul>
   10d68:	00a94933          	xor	s2,s2,a0
   10d6c:	00812503          	lw	a0,8(sp)
   10d70:	00e00593          	addi	a1,zero,14
   10d74:	d60ff0ef          	jal	ra,102d4 <gmul>
   10d78:	00a94933          	xor	s2,s2,a0
   10d7c:	ff298fa3          	sb	s2,-1(s3)
   10d80:	03010793          	addi	a5,sp,48
   10d84:	ec9792e3          	bne	a5,s1,10c48 <decrypt+0x1e8>
   10d88:	000a8793          	addi	a5,s5,0
   10d8c:	000a0713          	addi	a4,s4,0
   10d90:	010a8a93          	addi	s5,s5,16
   10d94:	00072683          	lw	a3,0(a4)
   10d98:	0007a603          	lw	a2,0(a5)
   10d9c:	00478793          	addi	a5,a5,4
   10da0:	00470713          	addi	a4,a4,4
   10da4:	00c6c6b3          	xor	a3,a3,a2
   10da8:	fed72e23          	sw	a3,-4(a4)
   10dac:	fefa94e3          	bne	s5,a5,10d94 <decrypt+0x334>
   10db0:	001b0b13          	addi	s6,s6,1
   10db4:	d35ff06f          	jal	zero,10ae8 <decrypt+0x88>
   10db8:	00000793          	addi	a5,zero,0
   10dbc:	00fc06b3          	add	a3,s8,a5
   10dc0:	0006c683          	lbu	a3,0(a3)
   10dc4:	00fa0733          	add	a4,s4,a5
   10dc8:	00178793          	addi	a5,a5,1
   10dcc:	00d70023          	sb	a3,0(a4)
   10dd0:	ff9796e3          	bne	a5,s9,10dbc <decrypt+0x35c>
   10dd4:	fb5ff06f          	jal	zero,10d88 <decrypt+0x328>

00010dd8 <fillrand>:
   10dd8:	00061637          	lui	a2,0x61
   10ddc:	ae060613          	addi	a2,a2,-1312 # 60ae0 <a.3>
   10de0:	000098b7          	lui	a7,0x9
   10de4:	00004337          	lui	t1,0x4
   10de8:	00000813          	addi	a6,zero,0
   10dec:	00062783          	lw	a5,0(a2)
   10df0:	00462703          	lw	a4,4(a2)
   10df4:	8101a683          	lw	a3,-2032(gp) # 60ae8 <count.4>
   10df8:	00000f13          	addi	t5,zero,0
   10dfc:	00000e93          	addi	t4,zero,0
   10e00:	00400293          	addi	t0,zero,4
   10e04:	06988893          	addi	a7,a7,105 # 9069 <exit-0x704b>
   10e08:	65030313          	addi	t1,t1,1616 # 4650 <exit-0xba64>
   10e0c:	82018393          	addi	t2,gp,-2016 # 60af8 <r.2>
   10e10:	02b84063          	blt	a6,a1,10e30 <fillrand+0x58>
   10e14:	000f0663          	beq	t5,zero,10e20 <fillrand+0x48>
   10e18:	00e62223          	sw	a4,4(a2)
   10e1c:	00f62023          	sw	a5,0(a2)
   10e20:	000e8663          	beq	t4,zero,10e2c <fillrand+0x54>
   10e24:	80d1a823          	sw	a3,-2032(gp) # 60ae8 <count.4>
   10e28:	00008067          	jalr	zero,0(ra)
   10e2c:	00008067          	jalr	zero,0(ra)
   10e30:	ff010113          	addi	sp,sp,-16
   10e34:	00812623          	sw	s0,12(sp)
   10e38:	04569063          	bne	a3,t0,10e78 <fillrand+0xa0>
   10e3c:	01079693          	slli	a3,a5,0x10
   10e40:	0106d693          	srli	a3,a3,0x10
   10e44:	031686b3          	mul	a3,a3,a7
   10e48:	0107d793          	srli	a5,a5,0x10
   10e4c:	00100f13          	addi	t5,zero,1
   10e50:	00f687b3          	add	a5,a3,a5
   10e54:	01071693          	slli	a3,a4,0x10
   10e58:	0106d693          	srli	a3,a3,0x10
   10e5c:	026686b3          	mul	a3,a3,t1
   10e60:	01075713          	srli	a4,a4,0x10
   10e64:	00e68733          	add	a4,a3,a4
   10e68:	01079693          	slli	a3,a5,0x10
   10e6c:	00e686b3          	add	a3,a3,a4
   10e70:	82d1a023          	sw	a3,-2016(gp) # 60af8 <r.2>
   10e74:	00000693          	addi	a3,zero,0
   10e78:	00768eb3          	add	t4,a3,t2
   10e7c:	000ec403          	lbu	s0,0(t4)
   10e80:	01050eb3          	add	t4,a0,a6
   10e84:	00180813          	addi	a6,a6,1
   10e88:	008e8023          	sb	s0,0(t4)
   10e8c:	00168693          	addi	a3,a3,1
   10e90:	00100e93          	addi	t4,zero,1
   10e94:	fab842e3          	blt	a6,a1,10e38 <fillrand+0x60>
   10e98:	000f0663          	beq	t5,zero,10ea4 <fillrand+0xcc>
   10e9c:	00e62223          	sw	a4,4(a2)
   10ea0:	00f62023          	sw	a5,0(a2)
   10ea4:	000e8463          	beq	t4,zero,10eac <fillrand+0xd4>
   10ea8:	80d1a823          	sw	a3,-2032(gp) # 60ae8 <count.4>
   10eac:	00c12403          	lw	s0,12(sp)
   10eb0:	01010113          	addi	sp,sp,16
   10eb4:	00008067          	jalr	zero,0(ra)

00010eb8 <enc_buffer>:
   10eb8:	00f58813          	addi	a6,a1,15
   10ebc:	ff087813          	andi	a6,a6,-16
   10ec0:	03080813          	addi	a6,a6,48
   10ec4:	1b076263          	bltu	a4,a6,11068 <enc_buffer+0x1b0>
   10ec8:	f9010113          	addi	sp,sp,-112
   10ecc:	06812423          	sw	s0,104(sp)
   10ed0:	05912223          	sw	s9,68(sp)
   10ed4:	00058413          	addi	s0,a1,0
   10ed8:	00050c93          	addi	s9,a0,0
   10edc:	01000593          	addi	a1,zero,16
   10ee0:	00068513          	addi	a0,a3,0
   10ee4:	06112623          	sw	ra,108(sp)
   10ee8:	06912223          	sw	s1,100(sp)
   10eec:	07212023          	sw	s2,96(sp)
   10ef0:	05312e23          	sw	s3,92(sp)
   10ef4:	05412c23          	sw	s4,88(sp)
   10ef8:	05612823          	sw	s6,80(sp)
   10efc:	05712623          	sw	s7,76(sp)
   10f00:	05812423          	sw	s8,72(sp)
   10f04:	05a12023          	sw	s10,64(sp)
   10f08:	03b12e23          	sw	s11,60(sp)
   10f0c:	00078c13          	addi	s8,a5,0
   10f10:	00d12223          	sw	a3,4(sp)
   10f14:	00c12423          	sw	a2,8(sp)
   10f18:	05512a23          	sw	s5,84(sp)
   10f1c:	ebdff0ef          	jal	ra,10dd8 <fillrand>
   10f20:	00412583          	lw	a1,4(sp)
   10f24:	01010b13          	addi	s6,sp,16
   10f28:	01000613          	addi	a2,zero,16
   10f2c:	000b0513          	addi	a0,s6,0
   10f30:	00f00d93          	addi	s11,zero,15
   10f34:	01000993          	addi	s3,zero,16
   10f38:	c58ff0ef          	jal	ra,10390 <my_memcpy.isra.0>
   10f3c:	00100493          	addi	s1,zero,1
   10f40:	00000913          	addi	s2,zero,0
   10f44:	02010a13          	addi	s4,sp,32
   10f48:	00098b93          	addi	s7,s3,0
   10f4c:	01b47d33          	and	s10,s0,s11
   10f50:	04896663          	bltu	s2,s0,10f9c <enc_buffer+0xe4>
   10f54:	04049463          	bne	s1,zero,10f9c <enc_buffer+0xe4>
   10f58:	06c12083          	lw	ra,108(sp)
   10f5c:	06812403          	lw	s0,104(sp)
   10f60:	013c2023          	sw	s3,0(s8)
   10f64:	06412483          	lw	s1,100(sp)
   10f68:	06012903          	lw	s2,96(sp)
   10f6c:	05c12983          	lw	s3,92(sp)
   10f70:	05812a03          	lw	s4,88(sp)
   10f74:	05412a83          	lw	s5,84(sp)
   10f78:	05012b03          	lw	s6,80(sp)
   10f7c:	04c12b83          	lw	s7,76(sp)
   10f80:	04812c03          	lw	s8,72(sp)
   10f84:	04412c83          	lw	s9,68(sp)
   10f88:	04012d03          	lw	s10,64(sp)
   10f8c:	03c12d83          	lw	s11,60(sp)
   10f90:	00000513          	addi	a0,zero,0
   10f94:	07010113          	addi	sp,sp,112
   10f98:	00008067          	jalr	zero,0(ra)
   10f9c:	00000a93          	addi	s5,zero,0
   10fa0:	015a0733          	add	a4,s4,s5
   10fa4:	00070023          	sb	zero,0(a4)
   10fa8:	001a8a93          	addi	s5,s5,1
   10fac:	ff7a9ae3          	bne	s5,s7,10fa0 <enc_buffer+0xe8>
   10fb0:	02048063          	beq	s1,zero,10fd0 <enc_buffer+0x118>
   10fb4:	00100593          	addi	a1,zero,1
   10fb8:	000a0513          	addi	a0,s4,0
   10fbc:	e1dff0ef          	jal	ra,10dd8 <fillrand>
   10fc0:	02014703          	lbu	a4,32(sp)
   10fc4:	ff077713          	andi	a4,a4,-16
   10fc8:	01a76733          	or	a4,a4,s10
   10fcc:	02e10023          	sb	a4,32(sp)
   10fd0:	41240633          	sub	a2,s0,s2
   10fd4:	00cdf463          	bgeu	s11,a2,10fdc <enc_buffer+0x124>
   10fd8:	000d8613          	addi	a2,s11,0
   10fdc:	41bb8533          	sub	a0,s7,s11
   10fe0:	012c85b3          	add	a1,s9,s2
   10fe4:	00aa0533          	add	a0,s4,a0
   10fe8:	00c12623          	sw	a2,12(sp)
   10fec:	ba4ff0ef          	jal	ra,10390 <my_memcpy.isra.0>
   10ff0:	00c12603          	lw	a2,12(sp)
   10ff4:	000a0693          	addi	a3,s4,0
   10ff8:	00000713          	addi	a4,zero,0
   10ffc:	00c90933          	add	s2,s2,a2
   11000:	00eb0633          	add	a2,s6,a4
   11004:	0006c583          	lbu	a1,0(a3)
   11008:	00064603          	lbu	a2,0(a2)
   1100c:	00170713          	addi	a4,a4,1
   11010:	00168693          	addi	a3,a3,1
   11014:	00b64633          	xor	a2,a2,a1
   11018:	fec68fa3          	sb	a2,-1(a3)
   1101c:	ff7712e3          	bne	a4,s7,11000 <enc_buffer+0x148>
   11020:	00812603          	lw	a2,8(sp)
   11024:	000b0593          	addi	a1,s6,0
   11028:	000a0513          	addi	a0,s4,0
   1102c:	f84ff0ef          	jal	ra,107b0 <encrypt>
   11030:	00412783          	lw	a5,4(sp)
   11034:	000b8613          	addi	a2,s7,0
   11038:	000b0593          	addi	a1,s6,0
   1103c:	01378533          	add	a0,a5,s3
   11040:	b50ff0ef          	jal	ra,10390 <my_memcpy.isra.0>
   11044:	00893733          	sltu	a4,s2,s0
   11048:	0014c493          	xori	s1,s1,1
   1104c:	00173713          	sltiu	a4,a4,1
   11050:	00977733          	and	a4,a4,s1
   11054:	01098993          	addi	s3,s3,16
   11058:	00000493          	addi	s1,zero,0
   1105c:	ee071ee3          	bne	a4,zero,10f58 <enc_buffer+0xa0>
   11060:	000a8d93          	addi	s11,s5,0
   11064:	eedff06f          	jal	zero,10f50 <enc_buffer+0x98>
   11068:	f9c00513          	addi	a0,zero,-100
   1106c:	00008067          	jalr	zero,0(ra)

00011070 <dec_buffer>:
   11070:	01f00813          	addi	a6,zero,31
   11074:	1ab87e63          	bgeu	a6,a1,11230 <dec_buffer+0x1c0>
   11078:	f8010113          	addi	sp,sp,-128
   1107c:	07612023          	sw	s6,96(sp)
   11080:	00c12423          	sw	a2,8(sp)
   11084:	01010b13          	addi	s6,sp,16
   11088:	01000613          	addi	a2,zero,16
   1108c:	06912a23          	sw	s1,116(sp)
   11090:	07412423          	sw	s4,104(sp)
   11094:	00050493          	addi	s1,a0,0
   11098:	00058a13          	addi	s4,a1,0
   1109c:	00c505b3          	add	a1,a0,a2
   110a0:	000b0513          	addi	a0,s6,0
   110a4:	06112e23          	sw	ra,124(sp)
   110a8:	06812c23          	sw	s0,120(sp)
   110ac:	07212823          	sw	s2,112(sp)
   110b0:	07312623          	sw	s3,108(sp)
   110b4:	05712e23          	sw	s7,92(sp)
   110b8:	00070993          	addi	s3,a4,0
   110bc:	00078b93          	addi	s7,a5,0
   110c0:	00068913          	addi	s2,a3,0
   110c4:	07512223          	sw	s5,100(sp)
   110c8:	05812c23          	sw	s8,88(sp)
   110cc:	05912a23          	sw	s9,84(sp)
   110d0:	05a12823          	sw	s10,80(sp)
   110d4:	05b12623          	sw	s11,76(sp)
   110d8:	ab8ff0ef          	jal	ra,10390 <my_memcpy.isra.0>
   110dc:	00812603          	lw	a2,8(sp)
   110e0:	03010413          	addi	s0,sp,48
   110e4:	00040593          	addi	a1,s0,0
   110e8:	000b0513          	addi	a0,s6,0
   110ec:	975ff0ef          	jal	ra,10a60 <decrypt>
   110f0:	00040713          	addi	a4,s0,0
   110f4:	00000793          	addi	a5,zero,0
   110f8:	01000613          	addi	a2,zero,16
   110fc:	00f486b3          	add	a3,s1,a5
   11100:	00074583          	lbu	a1,0(a4)
   11104:	0006c683          	lbu	a3,0(a3)
   11108:	00178793          	addi	a5,a5,1
   1110c:	00170713          	addi	a4,a4,1
   11110:	00b6c6b3          	xor	a3,a3,a1
   11114:	fed70fa3          	sb	a3,-1(a4)
   11118:	fec792e3          	bne	a5,a2,110fc <dec_buffer+0x8c>
   1111c:	03014c03          	lbu	s8,48(sp)
   11120:	00f00d93          	addi	s11,zero,15
   11124:	00000793          	addi	a5,zero,0
   11128:	02000a93          	addi	s5,zero,32
   1112c:	01000c93          	addi	s9,zero,16
   11130:	074aec63          	bltu	s5,s4,111a8 <dec_buffer+0x138>
   11134:	ff1d8d93          	addi	s11,s11,-15
   11138:	00fc7c13          	andi	s8,s8,15
   1113c:	01b03633          	sltu	a2,zero,s11
   11140:	01860633          	add	a2,a2,s8
   11144:	02060063          	beq	a2,zero,11164 <dec_buffer+0xf4>
   11148:	00f604b3          	add	s1,a2,a5
   1114c:	0099ec63          	bltu	s3,s1,11164 <dec_buffer+0xf4>
   11150:	001dbd93          	sltiu	s11,s11,1
   11154:	00f90533          	add	a0,s2,a5
   11158:	01b405b3          	add	a1,s0,s11
   1115c:	a34ff0ef          	jal	ra,10390 <my_memcpy.isra.0>
   11160:	00048793          	addi	a5,s1,0
   11164:	00fba023          	sw	a5,0(s7)
   11168:	00000513          	addi	a0,zero,0
   1116c:	07c12083          	lw	ra,124(sp)
   11170:	07812403          	lw	s0,120(sp)
   11174:	07412483          	lw	s1,116(sp)
   11178:	07012903          	lw	s2,112(sp)
   1117c:	06c12983          	lw	s3,108(sp)
   11180:	06812a03          	lw	s4,104(sp)
   11184:	06412a83          	lw	s5,100(sp)
   11188:	06012b03          	lw	s6,96(sp)
   1118c:	05c12b83          	lw	s7,92(sp)
   11190:	05812c03          	lw	s8,88(sp)
   11194:	05412c83          	lw	s9,84(sp)
   11198:	05012d03          	lw	s10,80(sp)
   1119c:	04c12d83          	lw	s11,76(sp)
   111a0:	08010113          	addi	sp,sp,128
   111a4:	00008067          	jalr	zero,0(ra)
   111a8:	01000613          	addi	a2,zero,16
   111ac:	015485b3          	add	a1,s1,s5
   111b0:	02010513          	addi	a0,sp,32
   111b4:	00f12623          	sw	a5,12(sp)
   111b8:	9d8ff0ef          	jal	ra,10390 <my_memcpy.isra.0>
   111bc:	00c12783          	lw	a5,12(sp)
   111c0:	00fd8d33          	add	s10,s11,a5
   111c4:	07a9ea63          	bltu	s3,s10,11238 <dec_buffer+0x1c8>
   111c8:	41bc85b3          	sub	a1,s9,s11
   111cc:	00f90533          	add	a0,s2,a5
   111d0:	000d8613          	addi	a2,s11,0
   111d4:	00b405b3          	add	a1,s0,a1
   111d8:	9b8ff0ef          	jal	ra,10390 <my_memcpy.isra.0>
   111dc:	00812603          	lw	a2,8(sp)
   111e0:	00040593          	addi	a1,s0,0
   111e4:	02010513          	addi	a0,sp,32
   111e8:	879ff0ef          	jal	ra,10a60 <decrypt>
   111ec:	010a8a93          	addi	s5,s5,16
   111f0:	00040793          	addi	a5,s0,0
   111f4:	00000d93          	addi	s11,zero,0
   111f8:	01bb0733          	add	a4,s6,s11
   111fc:	0007c683          	lbu	a3,0(a5)
   11200:	00074703          	lbu	a4,0(a4)
   11204:	001d8d93          	addi	s11,s11,1
   11208:	00178793          	addi	a5,a5,1
   1120c:	00d74733          	xor	a4,a4,a3
   11210:	fee78fa3          	sb	a4,-1(a5)
   11214:	ff9d92e3          	bne	s11,s9,111f8 <dec_buffer+0x188>
   11218:	000d8613          	addi	a2,s11,0
   1121c:	02010593          	addi	a1,sp,32
   11220:	000b0513          	addi	a0,s6,0
   11224:	96cff0ef          	jal	ra,10390 <my_memcpy.isra.0>
   11228:	000d0793          	addi	a5,s10,0
   1122c:	f05ff06f          	jal	zero,11130 <dec_buffer+0xc0>
   11230:	f3800513          	addi	a0,zero,-200
   11234:	00008067          	jalr	zero,0(ra)
   11238:	f3700513          	addi	a0,zero,-201
   1123c:	f31ff06f          	jal	zero,1116c <dec_buffer+0xfc>

00011240 <__fp_lock>:
   11240:	00000513          	addi	a0,zero,0
   11244:	00008067          	jalr	zero,0(ra)

00011248 <stdio_exit_handler>:
   11248:	00060637          	lui	a2,0x60
   1124c:	000135b7          	lui	a1,0x13
   11250:	00060537          	lui	a0,0x60
   11254:	5a060613          	addi	a2,a2,1440 # 605a0 <__sglue>
   11258:	9a858593          	addi	a1,a1,-1624 # 129a8 <_fclose_r>
   1125c:	5b050513          	addi	a0,a0,1456 # 605b0 <_impure_data>
   11260:	3700006f          	jal	zero,115d0 <_fwalk_sglue>

00011264 <cleanup_stdio>:
   11264:	00452583          	lw	a1,4(a0)
   11268:	ff010113          	addi	sp,sp,-16
   1126c:	001047b7          	lui	a5,0x104
   11270:	00812423          	sw	s0,8(sp)
   11274:	00112623          	sw	ra,12(sp)
   11278:	46478793          	addi	a5,a5,1124 # 104464 <__sf>
   1127c:	00050413          	addi	s0,a0,0
   11280:	00f58463          	beq	a1,a5,11288 <cleanup_stdio+0x24>
   11284:	724010ef          	jal	ra,129a8 <_fclose_r>
   11288:	00842583          	lw	a1,8(s0)
   1128c:	001047b7          	lui	a5,0x104
   11290:	4cc78793          	addi	a5,a5,1228 # 1044cc <__sf+0x68>
   11294:	00f58663          	beq	a1,a5,112a0 <cleanup_stdio+0x3c>
   11298:	00040513          	addi	a0,s0,0
   1129c:	70c010ef          	jal	ra,129a8 <_fclose_r>
   112a0:	00c42583          	lw	a1,12(s0)
   112a4:	001047b7          	lui	a5,0x104
   112a8:	53478793          	addi	a5,a5,1332 # 104534 <__sf+0xd0>
   112ac:	00f58c63          	beq	a1,a5,112c4 <cleanup_stdio+0x60>
   112b0:	00040513          	addi	a0,s0,0
   112b4:	00812403          	lw	s0,8(sp)
   112b8:	00c12083          	lw	ra,12(sp)
   112bc:	01010113          	addi	sp,sp,16
   112c0:	6e80106f          	jal	zero,129a8 <_fclose_r>
   112c4:	00c12083          	lw	ra,12(sp)
   112c8:	00812403          	lw	s0,8(sp)
   112cc:	01010113          	addi	sp,sp,16
   112d0:	00008067          	jalr	zero,0(ra)

000112d4 <__fp_unlock>:
   112d4:	00000513          	addi	a0,zero,0
   112d8:	00008067          	jalr	zero,0(ra)

000112dc <global_stdio_init.part.0>:
   112dc:	fe010113          	addi	sp,sp,-32
   112e0:	000117b7          	lui	a5,0x11
   112e4:	00812c23          	sw	s0,24(sp)
   112e8:	24878793          	addi	a5,a5,584 # 11248 <stdio_exit_handler>
   112ec:	00104437          	lui	s0,0x104
   112f0:	00104537          	lui	a0,0x104
   112f4:	46440413          	addi	s0,s0,1124 # 104464 <__sf>
   112f8:	00112e23          	sw	ra,28(sp)
   112fc:	00912a23          	sw	s1,20(sp)
   11300:	01212823          	sw	s2,16(sp)
   11304:	01312623          	sw	s3,12(sp)
   11308:	01412423          	sw	s4,8(sp)
   1130c:	82f1a223          	sw	a5,-2012(gp) # 60afc <__stdio_exit_handler>
   11310:	00800613          	addi	a2,zero,8
   11314:	00400793          	addi	a5,zero,4
   11318:	00000593          	addi	a1,zero,0
   1131c:	4c050513          	addi	a0,a0,1216 # 1044c0 <__sf+0x5c>
   11320:	00f42623          	sw	a5,12(s0)
   11324:	00042023          	sw	zero,0(s0)
   11328:	00042223          	sw	zero,4(s0)
   1132c:	00042423          	sw	zero,8(s0)
   11330:	06042223          	sw	zero,100(s0)
   11334:	00042823          	sw	zero,16(s0)
   11338:	00042a23          	sw	zero,20(s0)
   1133c:	00042c23          	sw	zero,24(s0)
   11340:	7a8000ef          	jal	ra,11ae8 <memset>
   11344:	00011a37          	lui	s4,0x11
   11348:	000119b7          	lui	s3,0x11
   1134c:	00011937          	lui	s2,0x11
   11350:	000114b7          	lui	s1,0x11
   11354:	00104537          	lui	a0,0x104
   11358:	000107b7          	lui	a5,0x10
   1135c:	684a0a13          	addi	s4,s4,1668 # 11684 <__sread>
   11360:	6e898993          	addi	s3,s3,1768 # 116e8 <__swrite>
   11364:	77090913          	addi	s2,s2,1904 # 11770 <__sseek>
   11368:	7d448493          	addi	s1,s1,2004 # 117d4 <__sclose>
   1136c:	00978793          	addi	a5,a5,9 # 10009 <exit-0xab>
   11370:	00800613          	addi	a2,zero,8
   11374:	00000593          	addi	a1,zero,0
   11378:	52850513          	addi	a0,a0,1320 # 104528 <__sf+0xc4>
   1137c:	06f42a23          	sw	a5,116(s0)
   11380:	03442023          	sw	s4,32(s0)
   11384:	03342223          	sw	s3,36(s0)
   11388:	03242423          	sw	s2,40(s0)
   1138c:	02942623          	sw	s1,44(s0)
   11390:	00842e23          	sw	s0,28(s0)
   11394:	06042423          	sw	zero,104(s0)
   11398:	06042623          	sw	zero,108(s0)
   1139c:	06042823          	sw	zero,112(s0)
   113a0:	0c042623          	sw	zero,204(s0)
   113a4:	06042c23          	sw	zero,120(s0)
   113a8:	06042e23          	sw	zero,124(s0)
   113ac:	08042023          	sw	zero,128(s0)
   113b0:	738000ef          	jal	ra,11ae8 <memset>
   113b4:	00104737          	lui	a4,0x104
   113b8:	00104537          	lui	a0,0x104
   113bc:	000207b7          	lui	a5,0x20
   113c0:	01278793          	addi	a5,a5,18 # 20012 <input_small_data+0xcc9a>
   113c4:	4cc70713          	addi	a4,a4,1228 # 1044cc <__sf+0x68>
   113c8:	59050513          	addi	a0,a0,1424 # 104590 <__sf+0x12c>
   113cc:	00800613          	addi	a2,zero,8
   113d0:	00000593          	addi	a1,zero,0
   113d4:	09442423          	sw	s4,136(s0)
   113d8:	09342623          	sw	s3,140(s0)
   113dc:	09242823          	sw	s2,144(s0)
   113e0:	08942a23          	sw	s1,148(s0)
   113e4:	0cf42e23          	sw	a5,220(s0)
   113e8:	0c042823          	sw	zero,208(s0)
   113ec:	0c042a23          	sw	zero,212(s0)
   113f0:	0c042c23          	sw	zero,216(s0)
   113f4:	12042a23          	sw	zero,308(s0)
   113f8:	0e042023          	sw	zero,224(s0)
   113fc:	0e042223          	sw	zero,228(s0)
   11400:	0e042423          	sw	zero,232(s0)
   11404:	08e42223          	sw	a4,132(s0)
   11408:	6e0000ef          	jal	ra,11ae8 <memset>
   1140c:	001047b7          	lui	a5,0x104
   11410:	53478793          	addi	a5,a5,1332 # 104534 <__sf+0xd0>
   11414:	0f442823          	sw	s4,240(s0)
   11418:	0f342a23          	sw	s3,244(s0)
   1141c:	0f242c23          	sw	s2,248(s0)
   11420:	0e942e23          	sw	s1,252(s0)
   11424:	01c12083          	lw	ra,28(sp)
   11428:	0ef42623          	sw	a5,236(s0)
   1142c:	01812403          	lw	s0,24(sp)
   11430:	01412483          	lw	s1,20(sp)
   11434:	01012903          	lw	s2,16(sp)
   11438:	00c12983          	lw	s3,12(sp)
   1143c:	00812a03          	lw	s4,8(sp)
   11440:	02010113          	addi	sp,sp,32
   11444:	00008067          	jalr	zero,0(ra)

00011448 <__sfp>:
   11448:	8241a783          	lw	a5,-2012(gp) # 60afc <__stdio_exit_handler>
   1144c:	fe010113          	addi	sp,sp,-32
   11450:	00912a23          	sw	s1,20(sp)
   11454:	00112e23          	sw	ra,28(sp)
   11458:	00812c23          	sw	s0,24(sp)
   1145c:	00050493          	addi	s1,a0,0
   11460:	0e078e63          	beq	a5,zero,1155c <__sfp+0x114>
   11464:	00060837          	lui	a6,0x60
   11468:	5a080813          	addi	a6,a6,1440 # 605a0 <__sglue>
   1146c:	fff00693          	addi	a3,zero,-1
   11470:	00482783          	lw	a5,4(a6)
   11474:	fff78793          	addi	a5,a5,-1
   11478:	0807c063          	blt	a5,zero,114f8 <__sfp+0xb0>
   1147c:	00882403          	lw	s0,8(a6)
   11480:	00c0006f          	jal	zero,1148c <__sfp+0x44>
   11484:	06840413          	addi	s0,s0,104
   11488:	06d78863          	beq	a5,a3,114f8 <__sfp+0xb0>
   1148c:	00c41703          	lh	a4,12(s0)
   11490:	fff78793          	addi	a5,a5,-1
   11494:	fe0718e3          	bne	a4,zero,11484 <__sfp+0x3c>
   11498:	ffff07b7          	lui	a5,0xffff0
   1149c:	00178793          	addi	a5,a5,1 # ffff0001 <__BSS_END__+0xffeeb8ad>
   114a0:	00f42623          	sw	a5,12(s0)
   114a4:	06042223          	sw	zero,100(s0)
   114a8:	00042023          	sw	zero,0(s0)
   114ac:	00042423          	sw	zero,8(s0)
   114b0:	00042223          	sw	zero,4(s0)
   114b4:	00042823          	sw	zero,16(s0)
   114b8:	00042a23          	sw	zero,20(s0)
   114bc:	00042c23          	sw	zero,24(s0)
   114c0:	00800613          	addi	a2,zero,8
   114c4:	00000593          	addi	a1,zero,0
   114c8:	05c40513          	addi	a0,s0,92
   114cc:	61c000ef          	jal	ra,11ae8 <memset>
   114d0:	02042823          	sw	zero,48(s0)
   114d4:	02042a23          	sw	zero,52(s0)
   114d8:	04042223          	sw	zero,68(s0)
   114dc:	04042423          	sw	zero,72(s0)
   114e0:	01c12083          	lw	ra,28(sp)
   114e4:	00040513          	addi	a0,s0,0
   114e8:	01812403          	lw	s0,24(sp)
   114ec:	01412483          	lw	s1,20(sp)
   114f0:	02010113          	addi	sp,sp,32
   114f4:	00008067          	jalr	zero,0(ra)
   114f8:	00082403          	lw	s0,0(a6)
   114fc:	00040663          	beq	s0,zero,11508 <__sfp+0xc0>
   11500:	00040813          	addi	a6,s0,0
   11504:	f6dff06f          	jal	zero,11470 <__sfp+0x28>
   11508:	1ac00593          	addi	a1,zero,428
   1150c:	00048513          	addi	a0,s1,0
   11510:	01012623          	sw	a6,12(sp)
   11514:	40d000ef          	jal	ra,12120 <_malloc_r>
   11518:	00c12803          	lw	a6,12(sp)
   1151c:	00050413          	addi	s0,a0,0
   11520:	04050263          	beq	a0,zero,11564 <__sfp+0x11c>
   11524:	00400793          	addi	a5,zero,4
   11528:	00f52223          	sw	a5,4(a0)
   1152c:	00c50513          	addi	a0,a0,12
   11530:	00042023          	sw	zero,0(s0)
   11534:	00a42423          	sw	a0,8(s0)
   11538:	1a000613          	addi	a2,zero,416
   1153c:	00000593          	addi	a1,zero,0
   11540:	01012623          	sw	a6,12(sp)
   11544:	5a4000ef          	jal	ra,11ae8 <memset>
   11548:	00c12803          	lw	a6,12(sp)
   1154c:	fff00693          	addi	a3,zero,-1
   11550:	00882023          	sw	s0,0(a6)
   11554:	00040813          	addi	a6,s0,0
   11558:	f19ff06f          	jal	zero,11470 <__sfp+0x28>
   1155c:	d81ff0ef          	jal	ra,112dc <global_stdio_init.part.0>
   11560:	f05ff06f          	jal	zero,11464 <__sfp+0x1c>
   11564:	00082023          	sw	zero,0(a6)
   11568:	00c00793          	addi	a5,zero,12
   1156c:	00f4a023          	sw	a5,0(s1)
   11570:	f71ff06f          	jal	zero,114e0 <__sfp+0x98>

00011574 <__sinit>:
   11574:	03452783          	lw	a5,52(a0)
   11578:	00078463          	beq	a5,zero,11580 <__sinit+0xc>
   1157c:	00008067          	jalr	zero,0(ra)
   11580:	000117b7          	lui	a5,0x11
   11584:	8241a703          	lw	a4,-2012(gp) # 60afc <__stdio_exit_handler>
   11588:	26478793          	addi	a5,a5,612 # 11264 <cleanup_stdio>
   1158c:	02f52a23          	sw	a5,52(a0)
   11590:	fe0716e3          	bne	a4,zero,1157c <__sinit+0x8>
   11594:	d49ff06f          	jal	zero,112dc <global_stdio_init.part.0>

00011598 <__sfp_lock_acquire>:
   11598:	00008067          	jalr	zero,0(ra)

0001159c <__sfp_lock_release>:
   1159c:	00008067          	jalr	zero,0(ra)

000115a0 <__fp_lock_all>:
   115a0:	00060637          	lui	a2,0x60
   115a4:	000115b7          	lui	a1,0x11
   115a8:	5a060613          	addi	a2,a2,1440 # 605a0 <__sglue>
   115ac:	24058593          	addi	a1,a1,576 # 11240 <__fp_lock>
   115b0:	00000513          	addi	a0,zero,0
   115b4:	01c0006f          	jal	zero,115d0 <_fwalk_sglue>

000115b8 <__fp_unlock_all>:
   115b8:	00060637          	lui	a2,0x60
   115bc:	000115b7          	lui	a1,0x11
   115c0:	5a060613          	addi	a2,a2,1440 # 605a0 <__sglue>
   115c4:	2d458593          	addi	a1,a1,724 # 112d4 <__fp_unlock>
   115c8:	00000513          	addi	a0,zero,0
   115cc:	0040006f          	jal	zero,115d0 <_fwalk_sglue>

000115d0 <_fwalk_sglue>:
   115d0:	fd010113          	addi	sp,sp,-48
   115d4:	03212023          	sw	s2,32(sp)
   115d8:	01312e23          	sw	s3,28(sp)
   115dc:	01412c23          	sw	s4,24(sp)
   115e0:	01512a23          	sw	s5,20(sp)
   115e4:	01612823          	sw	s6,16(sp)
   115e8:	01712623          	sw	s7,12(sp)
   115ec:	02112623          	sw	ra,44(sp)
   115f0:	02812423          	sw	s0,40(sp)
   115f4:	02912223          	sw	s1,36(sp)
   115f8:	00060a93          	addi	s5,a2,0
   115fc:	00050b13          	addi	s6,a0,0
   11600:	00058b93          	addi	s7,a1,0
   11604:	00000a13          	addi	s4,zero,0
   11608:	00100993          	addi	s3,zero,1
   1160c:	fff00913          	addi	s2,zero,-1
   11610:	004aa483          	lw	s1,4(s5)
   11614:	fff48493          	addi	s1,s1,-1
   11618:	0204ca63          	blt	s1,zero,1164c <_fwalk_sglue+0x7c>
   1161c:	008aa403          	lw	s0,8(s5)
   11620:	00c45783          	lhu	a5,12(s0)
   11624:	00f9fe63          	bgeu	s3,a5,11640 <_fwalk_sglue+0x70>
   11628:	00e41783          	lh	a5,14(s0)
   1162c:	00040593          	addi	a1,s0,0
   11630:	000b0513          	addi	a0,s6,0
   11634:	01278663          	beq	a5,s2,11640 <_fwalk_sglue+0x70>
   11638:	000b80e7          	jalr	ra,0(s7)
   1163c:	00aa6a33          	or	s4,s4,a0
   11640:	fff48493          	addi	s1,s1,-1
   11644:	06840413          	addi	s0,s0,104
   11648:	fd249ce3          	bne	s1,s2,11620 <_fwalk_sglue+0x50>
   1164c:	000aaa83          	lw	s5,0(s5)
   11650:	fc0a90e3          	bne	s5,zero,11610 <_fwalk_sglue+0x40>
   11654:	02c12083          	lw	ra,44(sp)
   11658:	02812403          	lw	s0,40(sp)
   1165c:	02412483          	lw	s1,36(sp)
   11660:	02012903          	lw	s2,32(sp)
   11664:	01c12983          	lw	s3,28(sp)
   11668:	01412a83          	lw	s5,20(sp)
   1166c:	01012b03          	lw	s6,16(sp)
   11670:	00c12b83          	lw	s7,12(sp)
   11674:	000a0513          	addi	a0,s4,0
   11678:	01812a03          	lw	s4,24(sp)
   1167c:	03010113          	addi	sp,sp,48
   11680:	00008067          	jalr	zero,0(ra)

00011684 <__sread>:
   11684:	ff010113          	addi	sp,sp,-16
   11688:	00812423          	sw	s0,8(sp)
   1168c:	00058413          	addi	s0,a1,0
   11690:	00e59583          	lh	a1,14(a1)
   11694:	00112623          	sw	ra,12(sp)
   11698:	2ec000ef          	jal	ra,11984 <_read_r>
   1169c:	02054063          	blt	a0,zero,116bc <__sread+0x38>
   116a0:	05042783          	lw	a5,80(s0)
   116a4:	00c12083          	lw	ra,12(sp)
   116a8:	00a787b3          	add	a5,a5,a0
   116ac:	04f42823          	sw	a5,80(s0)
   116b0:	00812403          	lw	s0,8(sp)
   116b4:	01010113          	addi	sp,sp,16
   116b8:	00008067          	jalr	zero,0(ra)
   116bc:	00c45783          	lhu	a5,12(s0)
   116c0:	fffff737          	lui	a4,0xfffff
   116c4:	fff70713          	addi	a4,a4,-1 # ffffefff <__BSS_END__+0xffefa8ab>
   116c8:	00e7f7b3          	and	a5,a5,a4
   116cc:	00c12083          	lw	ra,12(sp)
   116d0:	00f41623          	sh	a5,12(s0)
   116d4:	00812403          	lw	s0,8(sp)
   116d8:	01010113          	addi	sp,sp,16
   116dc:	00008067          	jalr	zero,0(ra)

000116e0 <__seofread>:
   116e0:	00000513          	addi	a0,zero,0
   116e4:	00008067          	jalr	zero,0(ra)

000116e8 <__swrite>:
   116e8:	00c59783          	lh	a5,12(a1)
   116ec:	fe010113          	addi	sp,sp,-32
   116f0:	00068313          	addi	t1,a3,0
   116f4:	00112e23          	sw	ra,28(sp)
   116f8:	1007f693          	andi	a3,a5,256
   116fc:	00058713          	addi	a4,a1,0
   11700:	00060893          	addi	a7,a2,0
   11704:	00050813          	addi	a6,a0,0
   11708:	02069863          	bne	a3,zero,11738 <__swrite+0x50>
   1170c:	fffff6b7          	lui	a3,0xfffff
   11710:	fff68693          	addi	a3,a3,-1 # ffffefff <__BSS_END__+0xffefa8ab>
   11714:	01c12083          	lw	ra,28(sp)
   11718:	00d7f7b3          	and	a5,a5,a3
   1171c:	00e71583          	lh	a1,14(a4)
   11720:	00f71623          	sh	a5,12(a4)
   11724:	00030693          	addi	a3,t1,0
   11728:	00088613          	addi	a2,a7,0
   1172c:	00080513          	addi	a0,a6,0
   11730:	02010113          	addi	sp,sp,32
   11734:	2b80006f          	jal	zero,119ec <_write_r>
   11738:	00e59583          	lh	a1,14(a1)
   1173c:	00c12423          	sw	a2,8(sp)
   11740:	00200693          	addi	a3,zero,2
   11744:	00000613          	addi	a2,zero,0
   11748:	00612623          	sw	t1,12(sp)
   1174c:	00e12023          	sw	a4,0(sp)
   11750:	00a12223          	sw	a0,4(sp)
   11754:	1c8000ef          	jal	ra,1191c <_lseek_r>
   11758:	00012703          	lw	a4,0(sp)
   1175c:	00c12303          	lw	t1,12(sp)
   11760:	00812883          	lw	a7,8(sp)
   11764:	00c71783          	lh	a5,12(a4)
   11768:	00412803          	lw	a6,4(sp)
   1176c:	fa1ff06f          	jal	zero,1170c <__swrite+0x24>

00011770 <__sseek>:
   11770:	ff010113          	addi	sp,sp,-16
   11774:	00812423          	sw	s0,8(sp)
   11778:	00058413          	addi	s0,a1,0
   1177c:	00e59583          	lh	a1,14(a1)
   11780:	00112623          	sw	ra,12(sp)
   11784:	198000ef          	jal	ra,1191c <_lseek_r>
   11788:	fff00713          	addi	a4,zero,-1
   1178c:	00c41783          	lh	a5,12(s0)
   11790:	02e50263          	beq	a0,a4,117b4 <__sseek+0x44>
   11794:	00001737          	lui	a4,0x1
   11798:	00e7e7b3          	or	a5,a5,a4
   1179c:	00c12083          	lw	ra,12(sp)
   117a0:	04a42823          	sw	a0,80(s0)
   117a4:	00f41623          	sh	a5,12(s0)
   117a8:	00812403          	lw	s0,8(sp)
   117ac:	01010113          	addi	sp,sp,16
   117b0:	00008067          	jalr	zero,0(ra)
   117b4:	80050713          	addi	a4,a0,-2048
   117b8:	80070713          	addi	a4,a4,-2048 # 800 <exit-0xf8b4>
   117bc:	00e7f7b3          	and	a5,a5,a4
   117c0:	00c12083          	lw	ra,12(sp)
   117c4:	00f41623          	sh	a5,12(s0)
   117c8:	00812403          	lw	s0,8(sp)
   117cc:	01010113          	addi	sp,sp,16
   117d0:	00008067          	jalr	zero,0(ra)

000117d4 <__sclose>:
   117d4:	00e59583          	lh	a1,14(a1)
   117d8:	0040006f          	jal	zero,117dc <_close_r>

000117dc <_close_r>:
   117dc:	ff010113          	addi	sp,sp,-16
   117e0:	00812423          	sw	s0,8(sp)
   117e4:	00912223          	sw	s1,4(sp)
   117e8:	00050493          	addi	s1,a0,0
   117ec:	00058513          	addi	a0,a1,0
   117f0:	00112623          	sw	ra,12(sp)
   117f4:	8201a423          	sw	zero,-2008(gp) # 60b00 <errno>
   117f8:	764010ef          	jal	ra,12f5c <_close>
   117fc:	fff00793          	addi	a5,zero,-1
   11800:	00f50c63          	beq	a0,a5,11818 <_close_r+0x3c>
   11804:	00c12083          	lw	ra,12(sp)
   11808:	00812403          	lw	s0,8(sp)
   1180c:	00412483          	lw	s1,4(sp)
   11810:	01010113          	addi	sp,sp,16
   11814:	00008067          	jalr	zero,0(ra)
   11818:	8281a783          	lw	a5,-2008(gp) # 60b00 <errno>
   1181c:	fe0784e3          	beq	a5,zero,11804 <_close_r+0x28>
   11820:	00c12083          	lw	ra,12(sp)
   11824:	00812403          	lw	s0,8(sp)
   11828:	00f4a023          	sw	a5,0(s1)
   1182c:	00412483          	lw	s1,4(sp)
   11830:	01010113          	addi	sp,sp,16
   11834:	00008067          	jalr	zero,0(ra)

00011838 <_reclaim_reent>:
   11838:	8141a783          	lw	a5,-2028(gp) # 60aec <_impure_ptr>
   1183c:	0ca78e63          	beq	a5,a0,11918 <_reclaim_reent+0xe0>
   11840:	04452583          	lw	a1,68(a0)
   11844:	fe010113          	addi	sp,sp,-32
   11848:	00912a23          	sw	s1,20(sp)
   1184c:	00112e23          	sw	ra,28(sp)
   11850:	00812c23          	sw	s0,24(sp)
   11854:	00050493          	addi	s1,a0,0
   11858:	04058863          	beq	a1,zero,118a8 <_reclaim_reent+0x70>
   1185c:	01212823          	sw	s2,16(sp)
   11860:	01312623          	sw	s3,12(sp)
   11864:	00000913          	addi	s2,zero,0
   11868:	08000993          	addi	s3,zero,128
   1186c:	012587b3          	add	a5,a1,s2
   11870:	0007a403          	lw	s0,0(a5)
   11874:	00040e63          	beq	s0,zero,11890 <_reclaim_reent+0x58>
   11878:	00040593          	addi	a1,s0,0
   1187c:	00042403          	lw	s0,0(s0)
   11880:	00048513          	addi	a0,s1,0
   11884:	5b4000ef          	jal	ra,11e38 <_free_r>
   11888:	fe0418e3          	bne	s0,zero,11878 <_reclaim_reent+0x40>
   1188c:	0444a583          	lw	a1,68(s1)
   11890:	00490913          	addi	s2,s2,4
   11894:	fd391ce3          	bne	s2,s3,1186c <_reclaim_reent+0x34>
   11898:	00048513          	addi	a0,s1,0
   1189c:	59c000ef          	jal	ra,11e38 <_free_r>
   118a0:	01012903          	lw	s2,16(sp)
   118a4:	00c12983          	lw	s3,12(sp)
   118a8:	0384a583          	lw	a1,56(s1)
   118ac:	00058663          	beq	a1,zero,118b8 <_reclaim_reent+0x80>
   118b0:	00048513          	addi	a0,s1,0
   118b4:	584000ef          	jal	ra,11e38 <_free_r>
   118b8:	0404a403          	lw	s0,64(s1)
   118bc:	00040c63          	beq	s0,zero,118d4 <_reclaim_reent+0x9c>
   118c0:	00040593          	addi	a1,s0,0
   118c4:	00042403          	lw	s0,0(s0)
   118c8:	00048513          	addi	a0,s1,0
   118cc:	56c000ef          	jal	ra,11e38 <_free_r>
   118d0:	fe0418e3          	bne	s0,zero,118c0 <_reclaim_reent+0x88>
   118d4:	04c4a583          	lw	a1,76(s1)
   118d8:	00058663          	beq	a1,zero,118e4 <_reclaim_reent+0xac>
   118dc:	00048513          	addi	a0,s1,0
   118e0:	558000ef          	jal	ra,11e38 <_free_r>
   118e4:	0344a783          	lw	a5,52(s1)
   118e8:	00078e63          	beq	a5,zero,11904 <_reclaim_reent+0xcc>
   118ec:	01812403          	lw	s0,24(sp)
   118f0:	01c12083          	lw	ra,28(sp)
   118f4:	00048513          	addi	a0,s1,0
   118f8:	01412483          	lw	s1,20(sp)
   118fc:	02010113          	addi	sp,sp,32
   11900:	00078067          	jalr	zero,0(a5)
   11904:	01c12083          	lw	ra,28(sp)
   11908:	01812403          	lw	s0,24(sp)
   1190c:	01412483          	lw	s1,20(sp)
   11910:	02010113          	addi	sp,sp,32
   11914:	00008067          	jalr	zero,0(ra)
   11918:	00008067          	jalr	zero,0(ra)

0001191c <_lseek_r>:
   1191c:	ff010113          	addi	sp,sp,-16
   11920:	00058793          	addi	a5,a1,0
   11924:	00812423          	sw	s0,8(sp)
   11928:	00912223          	sw	s1,4(sp)
   1192c:	00060593          	addi	a1,a2,0
   11930:	00050493          	addi	s1,a0,0
   11934:	00068613          	addi	a2,a3,0
   11938:	00078513          	addi	a0,a5,0
   1193c:	00112623          	sw	ra,12(sp)
   11940:	8201a423          	sw	zero,-2008(gp) # 60b00 <errno>
   11944:	688010ef          	jal	ra,12fcc <_lseek>
   11948:	fff00793          	addi	a5,zero,-1
   1194c:	00f50c63          	beq	a0,a5,11964 <_lseek_r+0x48>
   11950:	00c12083          	lw	ra,12(sp)
   11954:	00812403          	lw	s0,8(sp)
   11958:	00412483          	lw	s1,4(sp)
   1195c:	01010113          	addi	sp,sp,16
   11960:	00008067          	jalr	zero,0(ra)
   11964:	8281a783          	lw	a5,-2008(gp) # 60b00 <errno>
   11968:	fe0784e3          	beq	a5,zero,11950 <_lseek_r+0x34>
   1196c:	00c12083          	lw	ra,12(sp)
   11970:	00812403          	lw	s0,8(sp)
   11974:	00f4a023          	sw	a5,0(s1)
   11978:	00412483          	lw	s1,4(sp)
   1197c:	01010113          	addi	sp,sp,16
   11980:	00008067          	jalr	zero,0(ra)

00011984 <_read_r>:
   11984:	ff010113          	addi	sp,sp,-16
   11988:	00058793          	addi	a5,a1,0
   1198c:	00812423          	sw	s0,8(sp)
   11990:	00912223          	sw	s1,4(sp)
   11994:	00060593          	addi	a1,a2,0
   11998:	00050493          	addi	s1,a0,0
   1199c:	00068613          	addi	a2,a3,0
   119a0:	00078513          	addi	a0,a5,0
   119a4:	00112623          	sw	ra,12(sp)
   119a8:	8201a423          	sw	zero,-2008(gp) # 60b00 <errno>
   119ac:	660010ef          	jal	ra,1300c <_read>
   119b0:	fff00793          	addi	a5,zero,-1
   119b4:	00f50c63          	beq	a0,a5,119cc <_read_r+0x48>
   119b8:	00c12083          	lw	ra,12(sp)
   119bc:	00812403          	lw	s0,8(sp)
   119c0:	00412483          	lw	s1,4(sp)
   119c4:	01010113          	addi	sp,sp,16
   119c8:	00008067          	jalr	zero,0(ra)
   119cc:	8281a783          	lw	a5,-2008(gp) # 60b00 <errno>
   119d0:	fe0784e3          	beq	a5,zero,119b8 <_read_r+0x34>
   119d4:	00c12083          	lw	ra,12(sp)
   119d8:	00812403          	lw	s0,8(sp)
   119dc:	00f4a023          	sw	a5,0(s1)
   119e0:	00412483          	lw	s1,4(sp)
   119e4:	01010113          	addi	sp,sp,16
   119e8:	00008067          	jalr	zero,0(ra)

000119ec <_write_r>:
   119ec:	ff010113          	addi	sp,sp,-16
   119f0:	00058793          	addi	a5,a1,0
   119f4:	00812423          	sw	s0,8(sp)
   119f8:	00912223          	sw	s1,4(sp)
   119fc:	00060593          	addi	a1,a2,0
   11a00:	00050493          	addi	s1,a0,0
   11a04:	00068613          	addi	a2,a3,0
   11a08:	00078513          	addi	a0,a5,0
   11a0c:	00112623          	sw	ra,12(sp)
   11a10:	8201a423          	sw	zero,-2008(gp) # 60b00 <errno>
   11a14:	6b0010ef          	jal	ra,130c4 <_write>
   11a18:	fff00793          	addi	a5,zero,-1
   11a1c:	00f50c63          	beq	a0,a5,11a34 <_write_r+0x48>
   11a20:	00c12083          	lw	ra,12(sp)
   11a24:	00812403          	lw	s0,8(sp)
   11a28:	00412483          	lw	s1,4(sp)
   11a2c:	01010113          	addi	sp,sp,16
   11a30:	00008067          	jalr	zero,0(ra)
   11a34:	8281a783          	lw	a5,-2008(gp) # 60b00 <errno>
   11a38:	fe0784e3          	beq	a5,zero,11a20 <_write_r+0x34>
   11a3c:	00c12083          	lw	ra,12(sp)
   11a40:	00812403          	lw	s0,8(sp)
   11a44:	00f4a023          	sw	a5,0(s1)
   11a48:	00412483          	lw	s1,4(sp)
   11a4c:	01010113          	addi	sp,sp,16
   11a50:	00008067          	jalr	zero,0(ra)

00011a54 <__libc_init_array>:
   11a54:	ff010113          	addi	sp,sp,-16
   11a58:	00812423          	sw	s0,8(sp)
   11a5c:	01212023          	sw	s2,0(sp)
   11a60:	00060437          	lui	s0,0x60
   11a64:	00060937          	lui	s2,0x60
   11a68:	00112623          	sw	ra,12(sp)
   11a6c:	00912223          	sw	s1,4(sp)
   11a70:	59090913          	addi	s2,s2,1424 # 60590 <__init_array_start>
   11a74:	59040413          	addi	s0,s0,1424 # 60590 <__init_array_start>
   11a78:	02890263          	beq	s2,s0,11a9c <__libc_init_array+0x48>
   11a7c:	40890933          	sub	s2,s2,s0
   11a80:	40295913          	srai	s2,s2,0x2
   11a84:	00000493          	addi	s1,zero,0
   11a88:	00042783          	lw	a5,0(s0)
   11a8c:	00148493          	addi	s1,s1,1
   11a90:	00440413          	addi	s0,s0,4
   11a94:	000780e7          	jalr	ra,0(a5)
   11a98:	ff24e8e3          	bltu	s1,s2,11a88 <__libc_init_array+0x34>
   11a9c:	00060937          	lui	s2,0x60
   11aa0:	00060437          	lui	s0,0x60
   11aa4:	59890913          	addi	s2,s2,1432 # 60598 <__do_global_dtors_aux_fini_array_entry>
   11aa8:	59040413          	addi	s0,s0,1424 # 60590 <__init_array_start>
   11aac:	02890263          	beq	s2,s0,11ad0 <__libc_init_array+0x7c>
   11ab0:	40890933          	sub	s2,s2,s0
   11ab4:	40295913          	srai	s2,s2,0x2
   11ab8:	00000493          	addi	s1,zero,0
   11abc:	00042783          	lw	a5,0(s0)
   11ac0:	00148493          	addi	s1,s1,1
   11ac4:	00440413          	addi	s0,s0,4
   11ac8:	000780e7          	jalr	ra,0(a5)
   11acc:	ff24e8e3          	bltu	s1,s2,11abc <__libc_init_array+0x68>
   11ad0:	00c12083          	lw	ra,12(sp)
   11ad4:	00812403          	lw	s0,8(sp)
   11ad8:	00412483          	lw	s1,4(sp)
   11adc:	00012903          	lw	s2,0(sp)
   11ae0:	01010113          	addi	sp,sp,16
   11ae4:	00008067          	jalr	zero,0(ra)

00011ae8 <memset>:
   11ae8:	00f00313          	addi	t1,zero,15
   11aec:	00050713          	addi	a4,a0,0
   11af0:	02c37e63          	bgeu	t1,a2,11b2c <memset+0x44>
   11af4:	00f77793          	andi	a5,a4,15
   11af8:	0a079063          	bne	a5,zero,11b98 <memset+0xb0>
   11afc:	08059263          	bne	a1,zero,11b80 <memset+0x98>
   11b00:	ff067693          	andi	a3,a2,-16
   11b04:	00f67613          	andi	a2,a2,15
   11b08:	00e686b3          	add	a3,a3,a4
   11b0c:	00b72023          	sw	a1,0(a4)
   11b10:	00b72223          	sw	a1,4(a4)
   11b14:	00b72423          	sw	a1,8(a4)
   11b18:	00b72623          	sw	a1,12(a4)
   11b1c:	01070713          	addi	a4,a4,16
   11b20:	fed766e3          	bltu	a4,a3,11b0c <memset+0x24>
   11b24:	00061463          	bne	a2,zero,11b2c <memset+0x44>
   11b28:	00008067          	jalr	zero,0(ra)
   11b2c:	40c306b3          	sub	a3,t1,a2
   11b30:	00269693          	slli	a3,a3,0x2
   11b34:	00000297          	auipc	t0,0x0
   11b38:	005686b3          	add	a3,a3,t0
   11b3c:	00c68067          	jalr	zero,12(a3)
   11b40:	00b70723          	sb	a1,14(a4)
   11b44:	00b706a3          	sb	a1,13(a4)
   11b48:	00b70623          	sb	a1,12(a4)
   11b4c:	00b705a3          	sb	a1,11(a4)
   11b50:	00b70523          	sb	a1,10(a4)
   11b54:	00b704a3          	sb	a1,9(a4)
   11b58:	00b70423          	sb	a1,8(a4)
   11b5c:	00b703a3          	sb	a1,7(a4)
   11b60:	00b70323          	sb	a1,6(a4)
   11b64:	00b702a3          	sb	a1,5(a4)
   11b68:	00b70223          	sb	a1,4(a4)
   11b6c:	00b701a3          	sb	a1,3(a4)
   11b70:	00b70123          	sb	a1,2(a4)
   11b74:	00b700a3          	sb	a1,1(a4)
   11b78:	00b70023          	sb	a1,0(a4)
   11b7c:	00008067          	jalr	zero,0(ra)
   11b80:	0ff5f593          	andi	a1,a1,255
   11b84:	00859693          	slli	a3,a1,0x8
   11b88:	00d5e5b3          	or	a1,a1,a3
   11b8c:	01059693          	slli	a3,a1,0x10
   11b90:	00d5e5b3          	or	a1,a1,a3
   11b94:	f6dff06f          	jal	zero,11b00 <memset+0x18>
   11b98:	00279693          	slli	a3,a5,0x2
   11b9c:	00000297          	auipc	t0,0x0
   11ba0:	005686b3          	add	a3,a3,t0
   11ba4:	00008293          	addi	t0,ra,0
   11ba8:	fa0680e7          	jalr	ra,-96(a3)
   11bac:	00028093          	addi	ra,t0,0 # 11b9c <memset+0xb4>
   11bb0:	ff078793          	addi	a5,a5,-16
   11bb4:	40f70733          	sub	a4,a4,a5
   11bb8:	00f60633          	add	a2,a2,a5
   11bbc:	f6c378e3          	bgeu	t1,a2,11b2c <memset+0x44>
   11bc0:	f3dff06f          	jal	zero,11afc <memset+0x14>

00011bc4 <__call_exitprocs>:
   11bc4:	fd010113          	addi	sp,sp,-48
   11bc8:	01412c23          	sw	s4,24(sp)
   11bcc:	03212023          	sw	s2,32(sp)
   11bd0:	82c1a903          	lw	s2,-2004(gp) # 60b04 <__atexit>
   11bd4:	02112623          	sw	ra,44(sp)
   11bd8:	06090c63          	beq	s2,zero,11c50 <__call_exitprocs+0x8c>
   11bdc:	01312e23          	sw	s3,28(sp)
   11be0:	01512a23          	sw	s5,20(sp)
   11be4:	01612823          	sw	s6,16(sp)
   11be8:	01712623          	sw	s7,12(sp)
   11bec:	02812423          	sw	s0,40(sp)
   11bf0:	02912223          	sw	s1,36(sp)
   11bf4:	01812423          	sw	s8,8(sp)
   11bf8:	00050b13          	addi	s6,a0,0
   11bfc:	00058b93          	addi	s7,a1,0
   11c00:	fff00993          	addi	s3,zero,-1
   11c04:	00100a93          	addi	s5,zero,1
   11c08:	00492483          	lw	s1,4(s2)
   11c0c:	fff48413          	addi	s0,s1,-1
   11c10:	02044263          	blt	s0,zero,11c34 <__call_exitprocs+0x70>
   11c14:	00249493          	slli	s1,s1,0x2
   11c18:	009904b3          	add	s1,s2,s1
   11c1c:	040b8463          	beq	s7,zero,11c64 <__call_exitprocs+0xa0>
   11c20:	1044a783          	lw	a5,260(s1)
   11c24:	05778063          	beq	a5,s7,11c64 <__call_exitprocs+0xa0>
   11c28:	fff40413          	addi	s0,s0,-1
   11c2c:	ffc48493          	addi	s1,s1,-4
   11c30:	ff3418e3          	bne	s0,s3,11c20 <__call_exitprocs+0x5c>
   11c34:	02812403          	lw	s0,40(sp)
   11c38:	02412483          	lw	s1,36(sp)
   11c3c:	01c12983          	lw	s3,28(sp)
   11c40:	01412a83          	lw	s5,20(sp)
   11c44:	01012b03          	lw	s6,16(sp)
   11c48:	00c12b83          	lw	s7,12(sp)
   11c4c:	00812c03          	lw	s8,8(sp)
   11c50:	02c12083          	lw	ra,44(sp)
   11c54:	02012903          	lw	s2,32(sp)
   11c58:	01812a03          	lw	s4,24(sp)
   11c5c:	03010113          	addi	sp,sp,48
   11c60:	00008067          	jalr	zero,0(ra)
   11c64:	00492783          	lw	a5,4(s2)
   11c68:	0044a683          	lw	a3,4(s1)
   11c6c:	fff78793          	addi	a5,a5,-1
   11c70:	06878a63          	beq	a5,s0,11ce4 <__call_exitprocs+0x120>
   11c74:	0004a223          	sw	zero,4(s1)
   11c78:	02068663          	beq	a3,zero,11ca4 <__call_exitprocs+0xe0>
   11c7c:	18892783          	lw	a5,392(s2)
   11c80:	008a9733          	sll	a4,s5,s0
   11c84:	00492c03          	lw	s8,4(s2)
   11c88:	00f777b3          	and	a5,a4,a5
   11c8c:	02079463          	bne	a5,zero,11cb4 <__call_exitprocs+0xf0>
   11c90:	000680e7          	jalr	ra,0(a3)
   11c94:	00492703          	lw	a4,4(s2)
   11c98:	82c1a783          	lw	a5,-2004(gp) # 60b04 <__atexit>
   11c9c:	03871e63          	bne	a4,s8,11cd8 <__call_exitprocs+0x114>
   11ca0:	03279c63          	bne	a5,s2,11cd8 <__call_exitprocs+0x114>
   11ca4:	fff40413          	addi	s0,s0,-1
   11ca8:	ffc48493          	addi	s1,s1,-4
   11cac:	f73418e3          	bne	s0,s3,11c1c <__call_exitprocs+0x58>
   11cb0:	f85ff06f          	jal	zero,11c34 <__call_exitprocs+0x70>
   11cb4:	18c92783          	lw	a5,396(s2)
   11cb8:	0844a583          	lw	a1,132(s1)
   11cbc:	00f77733          	and	a4,a4,a5
   11cc0:	02071663          	bne	a4,zero,11cec <__call_exitprocs+0x128>
   11cc4:	000b0513          	addi	a0,s6,0
   11cc8:	000680e7          	jalr	ra,0(a3)
   11ccc:	00492703          	lw	a4,4(s2)
   11cd0:	82c1a783          	lw	a5,-2004(gp) # 60b04 <__atexit>
   11cd4:	fd8706e3          	beq	a4,s8,11ca0 <__call_exitprocs+0xdc>
   11cd8:	f4078ee3          	beq	a5,zero,11c34 <__call_exitprocs+0x70>
   11cdc:	00078913          	addi	s2,a5,0
   11ce0:	f29ff06f          	jal	zero,11c08 <__call_exitprocs+0x44>
   11ce4:	00892223          	sw	s0,4(s2)
   11ce8:	f91ff06f          	jal	zero,11c78 <__call_exitprocs+0xb4>
   11cec:	00058513          	addi	a0,a1,0
   11cf0:	000680e7          	jalr	ra,0(a3)
   11cf4:	fa1ff06f          	jal	zero,11c94 <__call_exitprocs+0xd0>

00011cf8 <atexit>:
   11cf8:	00050593          	addi	a1,a0,0
   11cfc:	00000693          	addi	a3,zero,0
   11d00:	00000613          	addi	a2,zero,0
   11d04:	00000513          	addi	a0,zero,0
   11d08:	1bc0106f          	jal	zero,12ec4 <__register_exitproc>

00011d0c <_malloc_trim_r>:
   11d0c:	fe010113          	addi	sp,sp,-32
   11d10:	01212823          	sw	s2,16(sp)
   11d14:	00060937          	lui	s2,0x60
   11d18:	00812c23          	sw	s0,24(sp)
   11d1c:	00912a23          	sw	s1,20(sp)
   11d20:	01312623          	sw	s3,12(sp)
   11d24:	00058413          	addi	s0,a1,0
   11d28:	00112e23          	sw	ra,28(sp)
   11d2c:	00050993          	addi	s3,a0,0
   11d30:	6d090913          	addi	s2,s2,1744 # 606d0 <__malloc_av_>
   11d34:	46d000ef          	jal	ra,129a0 <__malloc_lock>
   11d38:	00892783          	lw	a5,8(s2)
   11d3c:	00001737          	lui	a4,0x1
   11d40:	0047a483          	lw	s1,4(a5)
   11d44:	ffc4f493          	andi	s1,s1,-4
   11d48:	7ff48793          	addi	a5,s1,2047
   11d4c:	7f078793          	addi	a5,a5,2032
   11d50:	40878433          	sub	s0,a5,s0
   11d54:	00c45413          	srli	s0,s0,0xc
   11d58:	fff40413          	addi	s0,s0,-1
   11d5c:	00c41413          	slli	s0,s0,0xc
   11d60:	00e44e63          	blt	s0,a4,11d7c <_malloc_trim_r+0x70>
   11d64:	00000593          	addi	a1,zero,0
   11d68:	00098513          	addi	a0,s3,0
   11d6c:	0a0010ef          	jal	ra,12e0c <_sbrk_r>
   11d70:	00892783          	lw	a5,8(s2)
   11d74:	009787b3          	add	a5,a5,s1
   11d78:	02f50663          	beq	a0,a5,11da4 <_malloc_trim_r+0x98>
   11d7c:	00098513          	addi	a0,s3,0
   11d80:	425000ef          	jal	ra,129a4 <__malloc_unlock>
   11d84:	01c12083          	lw	ra,28(sp)
   11d88:	01812403          	lw	s0,24(sp)
   11d8c:	01412483          	lw	s1,20(sp)
   11d90:	01012903          	lw	s2,16(sp)
   11d94:	00c12983          	lw	s3,12(sp)
   11d98:	00000513          	addi	a0,zero,0
   11d9c:	02010113          	addi	sp,sp,32
   11da0:	00008067          	jalr	zero,0(ra)
   11da4:	408005b3          	sub	a1,zero,s0
   11da8:	00098513          	addi	a0,s3,0
   11dac:	060010ef          	jal	ra,12e0c <_sbrk_r>
   11db0:	fff00793          	addi	a5,zero,-1
   11db4:	04f50663          	beq	a0,a5,11e00 <_malloc_trim_r+0xf4>
   11db8:	00104737          	lui	a4,0x104
   11dbc:	00892683          	lw	a3,8(s2)
   11dc0:	59c72783          	lw	a5,1436(a4) # 10459c <__malloc_current_mallinfo>
   11dc4:	408484b3          	sub	s1,s1,s0
   11dc8:	0014e493          	ori	s1,s1,1
   11dcc:	00098513          	addi	a0,s3,0
   11dd0:	408787b3          	sub	a5,a5,s0
   11dd4:	0096a223          	sw	s1,4(a3)
   11dd8:	58f72e23          	sw	a5,1436(a4)
   11ddc:	3c9000ef          	jal	ra,129a4 <__malloc_unlock>
   11de0:	01c12083          	lw	ra,28(sp)
   11de4:	01812403          	lw	s0,24(sp)
   11de8:	01412483          	lw	s1,20(sp)
   11dec:	01012903          	lw	s2,16(sp)
   11df0:	00c12983          	lw	s3,12(sp)
   11df4:	00100513          	addi	a0,zero,1
   11df8:	02010113          	addi	sp,sp,32
   11dfc:	00008067          	jalr	zero,0(ra)
   11e00:	00000593          	addi	a1,zero,0
   11e04:	00098513          	addi	a0,s3,0
   11e08:	004010ef          	jal	ra,12e0c <_sbrk_r>
   11e0c:	00892703          	lw	a4,8(s2)
   11e10:	00f00693          	addi	a3,zero,15
   11e14:	40e507b3          	sub	a5,a0,a4
   11e18:	f6f6d2e3          	bge	a3,a5,11d7c <_malloc_trim_r+0x70>
   11e1c:	8181a603          	lw	a2,-2024(gp) # 60af0 <__malloc_sbrk_base>
   11e20:	0017e793          	ori	a5,a5,1
   11e24:	001046b7          	lui	a3,0x104
   11e28:	40c50533          	sub	a0,a0,a2
   11e2c:	00f72223          	sw	a5,4(a4)
   11e30:	58a6ae23          	sw	a0,1436(a3) # 10459c <__malloc_current_mallinfo>
   11e34:	f49ff06f          	jal	zero,11d7c <_malloc_trim_r+0x70>

00011e38 <_free_r>:
   11e38:	12058463          	beq	a1,zero,11f60 <_free_r+0x128>
   11e3c:	fe010113          	addi	sp,sp,-32
   11e40:	00812c23          	sw	s0,24(sp)
   11e44:	00b12623          	sw	a1,12(sp)
   11e48:	00050413          	addi	s0,a0,0
   11e4c:	00112e23          	sw	ra,28(sp)
   11e50:	351000ef          	jal	ra,129a0 <__malloc_lock>
   11e54:	00c12583          	lw	a1,12(sp)
   11e58:	00060837          	lui	a6,0x60
   11e5c:	6d080813          	addi	a6,a6,1744 # 606d0 <__malloc_av_>
   11e60:	ffc5a503          	lw	a0,-4(a1)
   11e64:	ff858713          	addi	a4,a1,-8
   11e68:	00882883          	lw	a7,8(a6)
   11e6c:	ffe57793          	andi	a5,a0,-2
   11e70:	00f70633          	add	a2,a4,a5
   11e74:	00462683          	lw	a3,4(a2)
   11e78:	00157313          	andi	t1,a0,1
   11e7c:	ffc6f693          	andi	a3,a3,-4
   11e80:	18c88863          	beq	a7,a2,12010 <_free_r+0x1d8>
   11e84:	00d62223          	sw	a3,4(a2)
   11e88:	00d608b3          	add	a7,a2,a3
   11e8c:	0048a883          	lw	a7,4(a7)
   11e90:	0018f893          	andi	a7,a7,1
   11e94:	08031a63          	bne	t1,zero,11f28 <_free_r+0xf0>
   11e98:	ff85a303          	lw	t1,-8(a1)
   11e9c:	000605b7          	lui	a1,0x60
   11ea0:	6d858593          	addi	a1,a1,1752 # 606d8 <__malloc_av_+0x8>
   11ea4:	40670733          	sub	a4,a4,t1
   11ea8:	00872503          	lw	a0,8(a4)
   11eac:	006787b3          	add	a5,a5,t1
   11eb0:	12b50a63          	beq	a0,a1,11fe4 <_free_r+0x1ac>
   11eb4:	00c72303          	lw	t1,12(a4)
   11eb8:	00652623          	sw	t1,12(a0)
   11ebc:	00a32423          	sw	a0,8(t1)
   11ec0:	18088c63          	beq	a7,zero,12058 <_free_r+0x220>
   11ec4:	0017e693          	ori	a3,a5,1
   11ec8:	00d72223          	sw	a3,4(a4)
   11ecc:	00f62023          	sw	a5,0(a2)
   11ed0:	1ff00693          	addi	a3,zero,511
   11ed4:	0af6e263          	bltu	a3,a5,11f78 <_free_r+0x140>
   11ed8:	ff87f693          	andi	a3,a5,-8
   11edc:	00868693          	addi	a3,a3,8
   11ee0:	00482583          	lw	a1,4(a6)
   11ee4:	00d806b3          	add	a3,a6,a3
   11ee8:	0006a603          	lw	a2,0(a3)
   11eec:	0057d513          	srli	a0,a5,0x5
   11ef0:	00100793          	addi	a5,zero,1
   11ef4:	00a797b3          	sll	a5,a5,a0
   11ef8:	00b7e7b3          	or	a5,a5,a1
   11efc:	ff868593          	addi	a1,a3,-8
   11f00:	00c72423          	sw	a2,8(a4)
   11f04:	00b72623          	sw	a1,12(a4)
   11f08:	00f82223          	sw	a5,4(a6)
   11f0c:	00e6a023          	sw	a4,0(a3)
   11f10:	00e62623          	sw	a4,12(a2)
   11f14:	00040513          	addi	a0,s0,0
   11f18:	01812403          	lw	s0,24(sp)
   11f1c:	01c12083          	lw	ra,28(sp)
   11f20:	02010113          	addi	sp,sp,32
   11f24:	2810006f          	jal	zero,129a4 <__malloc_unlock>
   11f28:	02089e63          	bne	a7,zero,11f64 <_free_r+0x12c>
   11f2c:	000605b7          	lui	a1,0x60
   11f30:	00d787b3          	add	a5,a5,a3
   11f34:	6d858593          	addi	a1,a1,1752 # 606d8 <__malloc_av_+0x8>
   11f38:	00862683          	lw	a3,8(a2)
   11f3c:	0017e893          	ori	a7,a5,1
   11f40:	00f70533          	add	a0,a4,a5
   11f44:	16b68063          	beq	a3,a1,120a4 <_free_r+0x26c>
   11f48:	00c62603          	lw	a2,12(a2)
   11f4c:	00c6a623          	sw	a2,12(a3)
   11f50:	00d62423          	sw	a3,8(a2)
   11f54:	01172223          	sw	a7,4(a4)
   11f58:	00f52023          	sw	a5,0(a0)
   11f5c:	f75ff06f          	jal	zero,11ed0 <_free_r+0x98>
   11f60:	00008067          	jalr	zero,0(ra)
   11f64:	00156513          	ori	a0,a0,1
   11f68:	fea5ae23          	sw	a0,-4(a1)
   11f6c:	00f62023          	sw	a5,0(a2)
   11f70:	1ff00693          	addi	a3,zero,511
   11f74:	f6f6f2e3          	bgeu	a3,a5,11ed8 <_free_r+0xa0>
   11f78:	0097d693          	srli	a3,a5,0x9
   11f7c:	00400613          	addi	a2,zero,4
   11f80:	0ed66063          	bltu	a2,a3,12060 <_free_r+0x228>
   11f84:	0067d693          	srli	a3,a5,0x6
   11f88:	03968593          	addi	a1,a3,57
   11f8c:	00359593          	slli	a1,a1,0x3
   11f90:	03868613          	addi	a2,a3,56
   11f94:	00b805b3          	add	a1,a6,a1
   11f98:	0005a683          	lw	a3,0(a1)
   11f9c:	ff858593          	addi	a1,a1,-8
   11fa0:	00d59863          	bne	a1,a3,11fb0 <_free_r+0x178>
   11fa4:	11c0006f          	jal	zero,120c0 <_free_r+0x288>
   11fa8:	0086a683          	lw	a3,8(a3)
   11fac:	00d58863          	beq	a1,a3,11fbc <_free_r+0x184>
   11fb0:	0046a603          	lw	a2,4(a3)
   11fb4:	ffc67613          	andi	a2,a2,-4
   11fb8:	fec7e8e3          	bltu	a5,a2,11fa8 <_free_r+0x170>
   11fbc:	00c6a583          	lw	a1,12(a3)
   11fc0:	00b72623          	sw	a1,12(a4)
   11fc4:	00d72423          	sw	a3,8(a4)
   11fc8:	00040513          	addi	a0,s0,0
   11fcc:	01812403          	lw	s0,24(sp)
   11fd0:	01c12083          	lw	ra,28(sp)
   11fd4:	00e5a423          	sw	a4,8(a1)
   11fd8:	00e6a623          	sw	a4,12(a3)
   11fdc:	02010113          	addi	sp,sp,32
   11fe0:	1c50006f          	jal	zero,129a4 <__malloc_unlock>
   11fe4:	0a089063          	bne	a7,zero,12084 <_free_r+0x24c>
   11fe8:	00c62583          	lw	a1,12(a2)
   11fec:	00862603          	lw	a2,8(a2)
   11ff0:	00f686b3          	add	a3,a3,a5
   11ff4:	0016e793          	ori	a5,a3,1
   11ff8:	00b62623          	sw	a1,12(a2)
   11ffc:	00c5a423          	sw	a2,8(a1)
   12000:	00f72223          	sw	a5,4(a4)
   12004:	00d70733          	add	a4,a4,a3
   12008:	00d72023          	sw	a3,0(a4)
   1200c:	f09ff06f          	jal	zero,11f14 <_free_r+0xdc>
   12010:	00d786b3          	add	a3,a5,a3
   12014:	02031063          	bne	t1,zero,12034 <_free_r+0x1fc>
   12018:	ff85a783          	lw	a5,-8(a1)
   1201c:	40f70733          	sub	a4,a4,a5
   12020:	00872603          	lw	a2,8(a4)
   12024:	00f686b3          	add	a3,a3,a5
   12028:	00c72783          	lw	a5,12(a4)
   1202c:	00f62623          	sw	a5,12(a2)
   12030:	00c7a423          	sw	a2,8(a5)
   12034:	0016e613          	ori	a2,a3,1
   12038:	81c1a783          	lw	a5,-2020(gp) # 60af4 <__malloc_trim_threshold>
   1203c:	00c72223          	sw	a2,4(a4)
   12040:	00e82423          	sw	a4,8(a6)
   12044:	ecf6e8e3          	bltu	a3,a5,11f14 <_free_r+0xdc>
   12048:	8381a583          	lw	a1,-1992(gp) # 60b10 <__malloc_top_pad>
   1204c:	00040513          	addi	a0,s0,0
   12050:	cbdff0ef          	jal	ra,11d0c <_malloc_trim_r>
   12054:	ec1ff06f          	jal	zero,11f14 <_free_r+0xdc>
   12058:	00d787b3          	add	a5,a5,a3
   1205c:	eddff06f          	jal	zero,11f38 <_free_r+0x100>
   12060:	01400613          	addi	a2,zero,20
   12064:	02d67863          	bgeu	a2,a3,12094 <_free_r+0x25c>
   12068:	05400613          	addi	a2,zero,84
   1206c:	06d66863          	bltu	a2,a3,120dc <_free_r+0x2a4>
   12070:	00c7d693          	srli	a3,a5,0xc
   12074:	06f68593          	addi	a1,a3,111
   12078:	00359593          	slli	a1,a1,0x3
   1207c:	06e68613          	addi	a2,a3,110
   12080:	f15ff06f          	jal	zero,11f94 <_free_r+0x15c>
   12084:	0017e693          	ori	a3,a5,1
   12088:	00d72223          	sw	a3,4(a4)
   1208c:	00f62023          	sw	a5,0(a2)
   12090:	e85ff06f          	jal	zero,11f14 <_free_r+0xdc>
   12094:	05c68593          	addi	a1,a3,92
   12098:	00359593          	slli	a1,a1,0x3
   1209c:	05b68613          	addi	a2,a3,91
   120a0:	ef5ff06f          	jal	zero,11f94 <_free_r+0x15c>
   120a4:	00e82a23          	sw	a4,20(a6)
   120a8:	00e82823          	sw	a4,16(a6)
   120ac:	00b72623          	sw	a1,12(a4)
   120b0:	00b72423          	sw	a1,8(a4)
   120b4:	01172223          	sw	a7,4(a4)
   120b8:	00f52023          	sw	a5,0(a0)
   120bc:	e59ff06f          	jal	zero,11f14 <_free_r+0xdc>
   120c0:	00482503          	lw	a0,4(a6)
   120c4:	40265613          	srai	a2,a2,0x2
   120c8:	00100793          	addi	a5,zero,1
   120cc:	00c797b3          	sll	a5,a5,a2
   120d0:	00a7e7b3          	or	a5,a5,a0
   120d4:	00f82223          	sw	a5,4(a6)
   120d8:	ee9ff06f          	jal	zero,11fc0 <_free_r+0x188>
   120dc:	15400613          	addi	a2,zero,340
   120e0:	00d66c63          	bltu	a2,a3,120f8 <_free_r+0x2c0>
   120e4:	00f7d693          	srli	a3,a5,0xf
   120e8:	07868593          	addi	a1,a3,120
   120ec:	00359593          	slli	a1,a1,0x3
   120f0:	07768613          	addi	a2,a3,119
   120f4:	ea1ff06f          	jal	zero,11f94 <_free_r+0x15c>
   120f8:	55400613          	addi	a2,zero,1364
   120fc:	00d66c63          	bltu	a2,a3,12114 <_free_r+0x2dc>
   12100:	0127d693          	srli	a3,a5,0x12
   12104:	07d68593          	addi	a1,a3,125
   12108:	00359593          	slli	a1,a1,0x3
   1210c:	07c68613          	addi	a2,a3,124
   12110:	e85ff06f          	jal	zero,11f94 <_free_r+0x15c>
   12114:	3f800593          	addi	a1,zero,1016
   12118:	07e00613          	addi	a2,zero,126
   1211c:	e79ff06f          	jal	zero,11f94 <_free_r+0x15c>

00012120 <_malloc_r>:
   12120:	fc010113          	addi	sp,sp,-64
   12124:	02812c23          	sw	s0,56(sp)
   12128:	02112e23          	sw	ra,60(sp)
   1212c:	00b58793          	addi	a5,a1,11
   12130:	01600713          	addi	a4,zero,22
   12134:	00050413          	addi	s0,a0,0
   12138:	08f76e63          	bltu	a4,a5,121d4 <_malloc_r+0xb4>
   1213c:	01000693          	addi	a3,zero,16
   12140:	06b6ec63          	bltu	a3,a1,121b8 <_malloc_r+0x98>
   12144:	05d000ef          	jal	ra,129a0 <__malloc_lock>
   12148:	01000693          	addi	a3,zero,16
   1214c:	01800713          	addi	a4,zero,24
   12150:	00200893          	addi	a7,zero,2
   12154:	00060837          	lui	a6,0x60
   12158:	6d080813          	addi	a6,a6,1744 # 606d0 <__malloc_av_>
   1215c:	00e80733          	add	a4,a6,a4
   12160:	00472783          	lw	a5,4(a4)
   12164:	ff870613          	addi	a2,a4,-8
   12168:	44c78e63          	beq	a5,a2,125c4 <_malloc_r+0x4a4>
   1216c:	0047a703          	lw	a4,4(a5)
   12170:	00c7a603          	lw	a2,12(a5)
   12174:	0087a583          	lw	a1,8(a5)
   12178:	ffc77713          	andi	a4,a4,-4
   1217c:	00e78733          	add	a4,a5,a4
   12180:	00472683          	lw	a3,4(a4)
   12184:	00c5a623          	sw	a2,12(a1)
   12188:	00f12623          	sw	a5,12(sp)
   1218c:	00b62423          	sw	a1,8(a2)
   12190:	0016e693          	ori	a3,a3,1
   12194:	00040513          	addi	a0,s0,0
   12198:	00d72223          	sw	a3,4(a4)
   1219c:	009000ef          	jal	ra,129a4 <__malloc_unlock>
   121a0:	00c12783          	lw	a5,12(sp)
   121a4:	03c12083          	lw	ra,60(sp)
   121a8:	03812403          	lw	s0,56(sp)
   121ac:	00878513          	addi	a0,a5,8
   121b0:	04010113          	addi	sp,sp,64
   121b4:	00008067          	jalr	zero,0(ra)
   121b8:	00c00793          	addi	a5,zero,12
   121bc:	00f42023          	sw	a5,0(s0)
   121c0:	00000513          	addi	a0,zero,0
   121c4:	03c12083          	lw	ra,60(sp)
   121c8:	03812403          	lw	s0,56(sp)
   121cc:	04010113          	addi	sp,sp,64
   121d0:	00008067          	jalr	zero,0(ra)
   121d4:	ff87f693          	andi	a3,a5,-8
   121d8:	fe07c0e3          	blt	a5,zero,121b8 <_malloc_r+0x98>
   121dc:	fcb6eee3          	bltu	a3,a1,121b8 <_malloc_r+0x98>
   121e0:	00d12623          	sw	a3,12(sp)
   121e4:	7bc000ef          	jal	ra,129a0 <__malloc_lock>
   121e8:	00c12683          	lw	a3,12(sp)
   121ec:	1f700793          	addi	a5,zero,503
   121f0:	4cd7f863          	bgeu	a5,a3,126c0 <_malloc_r+0x5a0>
   121f4:	0096d793          	srli	a5,a3,0x9
   121f8:	16078e63          	beq	a5,zero,12374 <_malloc_r+0x254>
   121fc:	00400713          	addi	a4,zero,4
   12200:	42f76a63          	bltu	a4,a5,12634 <_malloc_r+0x514>
   12204:	0066d793          	srli	a5,a3,0x6
   12208:	03978893          	addi	a7,a5,57
   1220c:	03878e13          	addi	t3,a5,56
   12210:	00389513          	slli	a0,a7,0x3
   12214:	00060837          	lui	a6,0x60
   12218:	6d080813          	addi	a6,a6,1744 # 606d0 <__malloc_av_>
   1221c:	00a80533          	add	a0,a6,a0
   12220:	00452783          	lw	a5,4(a0)
   12224:	ff850513          	addi	a0,a0,-8
   12228:	02f50863          	beq	a0,a5,12258 <_malloc_r+0x138>
   1222c:	00f00313          	addi	t1,zero,15
   12230:	0140006f          	jal	zero,12244 <_malloc_r+0x124>
   12234:	00c7a583          	lw	a1,12(a5)
   12238:	34065663          	bge	a2,zero,12584 <_malloc_r+0x464>
   1223c:	00b50e63          	beq	a0,a1,12258 <_malloc_r+0x138>
   12240:	00058793          	addi	a5,a1,0
   12244:	0047a703          	lw	a4,4(a5)
   12248:	ffc77713          	andi	a4,a4,-4
   1224c:	40d70633          	sub	a2,a4,a3
   12250:	fec352e3          	bge	t1,a2,12234 <_malloc_r+0x114>
   12254:	000e0893          	addi	a7,t3,0
   12258:	01082783          	lw	a5,16(a6)
   1225c:	00060e37          	lui	t3,0x60
   12260:	6d8e0e13          	addi	t3,t3,1752 # 606d8 <__malloc_av_+0x8>
   12264:	2dc78e63          	beq	a5,t3,12540 <_malloc_r+0x420>
   12268:	0047a703          	lw	a4,4(a5)
   1226c:	00f00593          	addi	a1,zero,15
   12270:	ffc77713          	andi	a4,a4,-4
   12274:	40d70633          	sub	a2,a4,a3
   12278:	46c5ce63          	blt	a1,a2,126f4 <_malloc_r+0x5d4>
   1227c:	01c82a23          	sw	t3,20(a6)
   12280:	01c82823          	sw	t3,16(a6)
   12284:	44065463          	bge	a2,zero,126cc <_malloc_r+0x5ac>
   12288:	1ff00613          	addi	a2,zero,511
   1228c:	00482303          	lw	t1,4(a6)
   12290:	34e66263          	bltu	a2,a4,125d4 <_malloc_r+0x4b4>
   12294:	ff877613          	andi	a2,a4,-8
   12298:	00860613          	addi	a2,a2,8
   1229c:	00c80633          	add	a2,a6,a2
   122a0:	00062583          	lw	a1,0(a2)
   122a4:	00575513          	srli	a0,a4,0x5
   122a8:	00100713          	addi	a4,zero,1
   122ac:	00a71733          	sll	a4,a4,a0
   122b0:	00e36333          	or	t1,t1,a4
   122b4:	ff860713          	addi	a4,a2,-8
   122b8:	00b7a423          	sw	a1,8(a5)
   122bc:	00e7a623          	sw	a4,12(a5)
   122c0:	00682223          	sw	t1,4(a6)
   122c4:	00f62023          	sw	a5,0(a2)
   122c8:	00f5a623          	sw	a5,12(a1)
   122cc:	4028d793          	srai	a5,a7,0x2
   122d0:	00100513          	addi	a0,zero,1
   122d4:	00f51533          	sll	a0,a0,a5
   122d8:	0aa36663          	bltu	t1,a0,12384 <_malloc_r+0x264>
   122dc:	006577b3          	and	a5,a0,t1
   122e0:	02079463          	bne	a5,zero,12308 <_malloc_r+0x1e8>
   122e4:	00151513          	slli	a0,a0,0x1
   122e8:	ffc8f893          	andi	a7,a7,-4
   122ec:	006577b3          	and	a5,a0,t1
   122f0:	00488893          	addi	a7,a7,4
   122f4:	00079a63          	bne	a5,zero,12308 <_malloc_r+0x1e8>
   122f8:	00151513          	slli	a0,a0,0x1
   122fc:	006577b3          	and	a5,a0,t1
   12300:	00488893          	addi	a7,a7,4
   12304:	fe078ae3          	beq	a5,zero,122f8 <_malloc_r+0x1d8>
   12308:	00f00e93          	addi	t4,zero,15
   1230c:	00389f13          	slli	t5,a7,0x3
   12310:	01e80f33          	add	t5,a6,t5
   12314:	000f0313          	addi	t1,t5,0
   12318:	00c32703          	lw	a4,12(t1)
   1231c:	00088f93          	addi	t6,a7,0
   12320:	32e30c63          	beq	t1,a4,12658 <_malloc_r+0x538>
   12324:	00472603          	lw	a2,4(a4)
   12328:	00070793          	addi	a5,a4,0
   1232c:	00c72703          	lw	a4,12(a4)
   12330:	ffc67613          	andi	a2,a2,-4
   12334:	40d605b3          	sub	a1,a2,a3
   12338:	32becc63          	blt	t4,a1,12670 <_malloc_r+0x550>
   1233c:	fe05c2e3          	blt	a1,zero,12320 <_malloc_r+0x200>
   12340:	00c78633          	add	a2,a5,a2
   12344:	00462683          	lw	a3,4(a2)
   12348:	0087a583          	lw	a1,8(a5)
   1234c:	00040513          	addi	a0,s0,0
   12350:	0016e693          	ori	a3,a3,1
   12354:	00d62223          	sw	a3,4(a2)
   12358:	00e5a623          	sw	a4,12(a1)
   1235c:	00b72423          	sw	a1,8(a4)
   12360:	00f12623          	sw	a5,12(sp)
   12364:	640000ef          	jal	ra,129a4 <__malloc_unlock>
   12368:	00c12783          	lw	a5,12(sp)
   1236c:	00878513          	addi	a0,a5,8
   12370:	e55ff06f          	jal	zero,121c4 <_malloc_r+0xa4>
   12374:	20000513          	addi	a0,zero,512
   12378:	04000893          	addi	a7,zero,64
   1237c:	03f00e13          	addi	t3,zero,63
   12380:	e95ff06f          	jal	zero,12214 <_malloc_r+0xf4>
   12384:	00882783          	lw	a5,8(a6)
   12388:	0047a703          	lw	a4,4(a5)
   1238c:	ffc77713          	andi	a4,a4,-4
   12390:	40d70633          	sub	a2,a4,a3
   12394:	00d76663          	bltu	a4,a3,123a0 <_malloc_r+0x280>
   12398:	01062593          	slti	a1,a2,16
   1239c:	1a058663          	beq	a1,zero,12548 <_malloc_r+0x428>
   123a0:	8381a583          	lw	a1,-1992(gp) # 60b10 <__malloc_top_pad>
   123a4:	8181a503          	lw	a0,-2024(gp) # 60af0 <__malloc_sbrk_base>
   123a8:	fff00613          	addi	a2,zero,-1
   123ac:	00b685b3          	add	a1,a3,a1
   123b0:	42c50663          	beq	a0,a2,127dc <_malloc_r+0x6bc>
   123b4:	00001637          	lui	a2,0x1
   123b8:	00f60613          	addi	a2,a2,15 # 100f <exit-0xf0a5>
   123bc:	00c585b3          	add	a1,a1,a2
   123c0:	fffff637          	lui	a2,0xfffff
   123c4:	00c5f5b3          	and	a1,a1,a2
   123c8:	00040513          	addi	a0,s0,0
   123cc:	01012e23          	sw	a6,28(sp)
   123d0:	00f12c23          	sw	a5,24(sp)
   123d4:	00d12a23          	sw	a3,20(sp)
   123d8:	00e12823          	sw	a4,16(sp)
   123dc:	00b12623          	sw	a1,12(sp)
   123e0:	22d000ef          	jal	ra,12e0c <_sbrk_r>
   123e4:	fff00613          	addi	a2,zero,-1
   123e8:	00c12583          	lw	a1,12(sp)
   123ec:	01012703          	lw	a4,16(sp)
   123f0:	01412683          	lw	a3,20(sp)
   123f4:	01812783          	lw	a5,24(sp)
   123f8:	01c12803          	lw	a6,28(sp)
   123fc:	00050893          	addi	a7,a0,0
   12400:	34c50863          	beq	a0,a2,12750 <_malloc_r+0x630>
   12404:	00e78533          	add	a0,a5,a4
   12408:	34a8e263          	bltu	a7,a0,1274c <_malloc_r+0x62c>
   1240c:	00104e37          	lui	t3,0x104
   12410:	59ce0e13          	addi	t3,t3,1436 # 10459c <__malloc_current_mallinfo>
   12414:	000e2603          	lw	a2,0(t3)
   12418:	00c58633          	add	a2,a1,a2
   1241c:	00ce2023          	sw	a2,0(t3)
   12420:	00060e93          	addi	t4,a2,0 # fffff000 <__BSS_END__+0xffefa8ac>
   12424:	49150863          	beq	a0,a7,128b4 <_malloc_r+0x794>
   12428:	8181af03          	lw	t5,-2024(gp) # 60af0 <__malloc_sbrk_base>
   1242c:	fff00613          	addi	a2,zero,-1
   12430:	4acf0063          	beq	t5,a2,128d0 <_malloc_r+0x7b0>
   12434:	40a88633          	sub	a2,a7,a0
   12438:	01d60633          	add	a2,a2,t4
   1243c:	00ce2023          	sw	a2,0(t3)
   12440:	0078fe93          	andi	t4,a7,7
   12444:	3a0e8c63          	beq	t4,zero,127fc <_malloc_r+0x6dc>
   12448:	ff88f893          	andi	a7,a7,-8
   1244c:	00001637          	lui	a2,0x1
   12450:	00888893          	addi	a7,a7,8
   12454:	00860613          	addi	a2,a2,8 # 1008 <exit-0xf0ac>
   12458:	00b88333          	add	t1,a7,a1
   1245c:	41d60633          	sub	a2,a2,t4
   12460:	40660633          	sub	a2,a2,t1
   12464:	01461613          	slli	a2,a2,0x14
   12468:	01465593          	srli	a1,a2,0x14
   1246c:	00040513          	addi	a0,s0,0
   12470:	03012623          	sw	a6,44(sp)
   12474:	03c12423          	sw	t3,40(sp)
   12478:	02f12223          	sw	a5,36(sp)
   1247c:	02d12023          	sw	a3,32(sp)
   12480:	00e12e23          	sw	a4,28(sp)
   12484:	01112c23          	sw	a7,24(sp)
   12488:	01d12a23          	sw	t4,20(sp)
   1248c:	00612823          	sw	t1,16(sp)
   12490:	00b12623          	sw	a1,12(sp)
   12494:	179000ef          	jal	ra,12e0c <_sbrk_r>
   12498:	fff00613          	addi	a2,zero,-1
   1249c:	00c12583          	lw	a1,12(sp)
   124a0:	01012303          	lw	t1,16(sp)
   124a4:	01412e83          	lw	t4,20(sp)
   124a8:	01812883          	lw	a7,24(sp)
   124ac:	01c12703          	lw	a4,28(sp)
   124b0:	02012683          	lw	a3,32(sp)
   124b4:	02412783          	lw	a5,36(sp)
   124b8:	02812e03          	lw	t3,40(sp)
   124bc:	02c12803          	lw	a6,44(sp)
   124c0:	44c50e63          	beq	a0,a2,1291c <_malloc_r+0x7fc>
   124c4:	000e2603          	lw	a2,0(t3)
   124c8:	41150533          	sub	a0,a0,a7
   124cc:	00b50533          	add	a0,a0,a1
   124d0:	00156513          	ori	a0,a0,1
   124d4:	01182423          	sw	a7,8(a6)
   124d8:	00c58633          	add	a2,a1,a2
   124dc:	00a8a223          	sw	a0,4(a7)
   124e0:	00ce2023          	sw	a2,0(t3)
   124e4:	03078e63          	beq	a5,a6,12520 <_malloc_r+0x400>
   124e8:	00f00513          	addi	a0,zero,15
   124ec:	3ee57663          	bgeu	a0,a4,128d8 <_malloc_r+0x7b8>
   124f0:	0047a583          	lw	a1,4(a5)
   124f4:	ff470713          	addi	a4,a4,-12
   124f8:	ff877713          	andi	a4,a4,-8
   124fc:	0015f593          	andi	a1,a1,1
   12500:	00e5e5b3          	or	a1,a1,a4
   12504:	00b7a223          	sw	a1,4(a5)
   12508:	00500313          	addi	t1,zero,5
   1250c:	00e785b3          	add	a1,a5,a4
   12510:	0065a223          	sw	t1,4(a1)
   12514:	0065a423          	sw	t1,8(a1)
   12518:	40e56a63          	bltu	a0,a4,1292c <_malloc_r+0x80c>
   1251c:	0048a503          	lw	a0,4(a7)
   12520:	8341a703          	lw	a4,-1996(gp) # 60b0c <__malloc_max_sbrked_mem>
   12524:	00c77463          	bgeu	a4,a2,1252c <_malloc_r+0x40c>
   12528:	82c1aa23          	sw	a2,-1996(gp) # 60b0c <__malloc_max_sbrked_mem>
   1252c:	8301a703          	lw	a4,-2000(gp) # 60b08 <__malloc_max_total_mem>
   12530:	00c77463          	bgeu	a4,a2,12538 <_malloc_r+0x418>
   12534:	82c1a823          	sw	a2,-2000(gp) # 60b08 <__malloc_max_total_mem>
   12538:	00088793          	addi	a5,a7,0
   1253c:	21c0006f          	jal	zero,12758 <_malloc_r+0x638>
   12540:	00482303          	lw	t1,4(a6)
   12544:	d89ff06f          	jal	zero,122cc <_malloc_r+0x1ac>
   12548:	0016e713          	ori	a4,a3,1
   1254c:	00e7a223          	sw	a4,4(a5)
   12550:	00d786b3          	add	a3,a5,a3
   12554:	00166613          	ori	a2,a2,1
   12558:	00d82423          	sw	a3,8(a6)
   1255c:	00040513          	addi	a0,s0,0
   12560:	00c6a223          	sw	a2,4(a3)
   12564:	00f12623          	sw	a5,12(sp)
   12568:	43c000ef          	jal	ra,129a4 <__malloc_unlock>
   1256c:	00c12783          	lw	a5,12(sp)
   12570:	03c12083          	lw	ra,60(sp)
   12574:	03812403          	lw	s0,56(sp)
   12578:	00878513          	addi	a0,a5,8
   1257c:	04010113          	addi	sp,sp,64
   12580:	00008067          	jalr	zero,0(ra)
   12584:	0087a603          	lw	a2,8(a5)
   12588:	00e78733          	add	a4,a5,a4
   1258c:	00472683          	lw	a3,4(a4)
   12590:	00b62623          	sw	a1,12(a2)
   12594:	00f12623          	sw	a5,12(sp)
   12598:	0016e693          	ori	a3,a3,1
   1259c:	00c5a423          	sw	a2,8(a1)
   125a0:	00040513          	addi	a0,s0,0
   125a4:	00d72223          	sw	a3,4(a4)
   125a8:	3fc000ef          	jal	ra,129a4 <__malloc_unlock>
   125ac:	00c12783          	lw	a5,12(sp)
   125b0:	03c12083          	lw	ra,60(sp)
   125b4:	03812403          	lw	s0,56(sp)
   125b8:	00878513          	addi	a0,a5,8
   125bc:	04010113          	addi	sp,sp,64
   125c0:	00008067          	jalr	zero,0(ra)
   125c4:	00c72783          	lw	a5,12(a4)
   125c8:	00288893          	addi	a7,a7,2
   125cc:	c8f706e3          	beq	a4,a5,12258 <_malloc_r+0x138>
   125d0:	b9dff06f          	jal	zero,1216c <_malloc_r+0x4c>
   125d4:	00975613          	srli	a2,a4,0x9
   125d8:	00400593          	addi	a1,zero,4
   125dc:	14c5fe63          	bgeu	a1,a2,12738 <_malloc_r+0x618>
   125e0:	01400593          	addi	a1,zero,20
   125e4:	28c5e063          	bltu	a1,a2,12864 <_malloc_r+0x744>
   125e8:	05c60513          	addi	a0,a2,92
   125ec:	00351513          	slli	a0,a0,0x3
   125f0:	05b60593          	addi	a1,a2,91
   125f4:	00a80533          	add	a0,a6,a0
   125f8:	00052603          	lw	a2,0(a0)
   125fc:	ff850513          	addi	a0,a0,-8
   12600:	00c51863          	bne	a0,a2,12610 <_malloc_r+0x4f0>
   12604:	1e00006f          	jal	zero,127e4 <_malloc_r+0x6c4>
   12608:	00862603          	lw	a2,8(a2)
   1260c:	00c50863          	beq	a0,a2,1261c <_malloc_r+0x4fc>
   12610:	00462583          	lw	a1,4(a2)
   12614:	ffc5f593          	andi	a1,a1,-4
   12618:	feb768e3          	bltu	a4,a1,12608 <_malloc_r+0x4e8>
   1261c:	00c62503          	lw	a0,12(a2)
   12620:	00a7a623          	sw	a0,12(a5)
   12624:	00c7a423          	sw	a2,8(a5)
   12628:	00f52423          	sw	a5,8(a0)
   1262c:	00f62623          	sw	a5,12(a2)
   12630:	c9dff06f          	jal	zero,122cc <_malloc_r+0x1ac>
   12634:	01400713          	addi	a4,zero,20
   12638:	14f77063          	bgeu	a4,a5,12778 <_malloc_r+0x658>
   1263c:	05400713          	addi	a4,zero,84
   12640:	24f76063          	bltu	a4,a5,12880 <_malloc_r+0x760>
   12644:	00c6d793          	srli	a5,a3,0xc
   12648:	06f78893          	addi	a7,a5,111
   1264c:	06e78e13          	addi	t3,a5,110
   12650:	00389513          	slli	a0,a7,0x3
   12654:	bc1ff06f          	jal	zero,12214 <_malloc_r+0xf4>
   12658:	001f8f93          	addi	t6,t6,1
   1265c:	003ff793          	andi	a5,t6,3
   12660:	00830313          	addi	t1,t1,8
   12664:	12078863          	beq	a5,zero,12794 <_malloc_r+0x674>
   12668:	00c32703          	lw	a4,12(t1)
   1266c:	cb5ff06f          	jal	zero,12320 <_malloc_r+0x200>
   12670:	0087a503          	lw	a0,8(a5)
   12674:	0016e893          	ori	a7,a3,1
   12678:	0117a223          	sw	a7,4(a5)
   1267c:	00e52623          	sw	a4,12(a0)
   12680:	00a72423          	sw	a0,8(a4)
   12684:	00d786b3          	add	a3,a5,a3
   12688:	00d82a23          	sw	a3,20(a6)
   1268c:	00d82823          	sw	a3,16(a6)
   12690:	0015e713          	ori	a4,a1,1
   12694:	00c78633          	add	a2,a5,a2
   12698:	01c6a623          	sw	t3,12(a3)
   1269c:	01c6a423          	sw	t3,8(a3)
   126a0:	00e6a223          	sw	a4,4(a3)
   126a4:	00040513          	addi	a0,s0,0
   126a8:	00b62023          	sw	a1,0(a2)
   126ac:	00f12623          	sw	a5,12(sp)
   126b0:	2f4000ef          	jal	ra,129a4 <__malloc_unlock>
   126b4:	00c12783          	lw	a5,12(sp)
   126b8:	00878513          	addi	a0,a5,8
   126bc:	b09ff06f          	jal	zero,121c4 <_malloc_r+0xa4>
   126c0:	0036d893          	srli	a7,a3,0x3
   126c4:	00868713          	addi	a4,a3,8
   126c8:	a8dff06f          	jal	zero,12154 <_malloc_r+0x34>
   126cc:	00e78733          	add	a4,a5,a4
   126d0:	00472683          	lw	a3,4(a4)
   126d4:	00f12623          	sw	a5,12(sp)
   126d8:	00040513          	addi	a0,s0,0
   126dc:	0016e693          	ori	a3,a3,1
   126e0:	00d72223          	sw	a3,4(a4)
   126e4:	2c0000ef          	jal	ra,129a4 <__malloc_unlock>
   126e8:	00c12783          	lw	a5,12(sp)
   126ec:	00878513          	addi	a0,a5,8
   126f0:	ad5ff06f          	jal	zero,121c4 <_malloc_r+0xa4>
   126f4:	0016e593          	ori	a1,a3,1
   126f8:	00b7a223          	sw	a1,4(a5)
   126fc:	00d786b3          	add	a3,a5,a3
   12700:	00d82a23          	sw	a3,20(a6)
   12704:	00d82823          	sw	a3,16(a6)
   12708:	00166593          	ori	a1,a2,1
   1270c:	00e78733          	add	a4,a5,a4
   12710:	01c6a623          	sw	t3,12(a3)
   12714:	01c6a423          	sw	t3,8(a3)
   12718:	00b6a223          	sw	a1,4(a3)
   1271c:	00040513          	addi	a0,s0,0
   12720:	00c72023          	sw	a2,0(a4)
   12724:	00f12623          	sw	a5,12(sp)
   12728:	27c000ef          	jal	ra,129a4 <__malloc_unlock>
   1272c:	00c12783          	lw	a5,12(sp)
   12730:	00878513          	addi	a0,a5,8
   12734:	a91ff06f          	jal	zero,121c4 <_malloc_r+0xa4>
   12738:	00675613          	srli	a2,a4,0x6
   1273c:	03960513          	addi	a0,a2,57
   12740:	00351513          	slli	a0,a0,0x3
   12744:	03860593          	addi	a1,a2,56
   12748:	eadff06f          	jal	zero,125f4 <_malloc_r+0x4d4>
   1274c:	15078863          	beq	a5,a6,1289c <_malloc_r+0x77c>
   12750:	00882783          	lw	a5,8(a6)
   12754:	0047a503          	lw	a0,4(a5)
   12758:	ffc57513          	andi	a0,a0,-4
   1275c:	40d50633          	sub	a2,a0,a3
   12760:	00d56663          	bltu	a0,a3,1276c <_malloc_r+0x64c>
   12764:	01062713          	slti	a4,a2,16
   12768:	de0700e3          	beq	a4,zero,12548 <_malloc_r+0x428>
   1276c:	00040513          	addi	a0,s0,0
   12770:	234000ef          	jal	ra,129a4 <__malloc_unlock>
   12774:	a4dff06f          	jal	zero,121c0 <_malloc_r+0xa0>
   12778:	05c78893          	addi	a7,a5,92
   1277c:	05b78e13          	addi	t3,a5,91
   12780:	00389513          	slli	a0,a7,0x3
   12784:	a91ff06f          	jal	zero,12214 <_malloc_r+0xf4>
   12788:	008f2783          	lw	a5,8(t5)
   1278c:	fff88893          	addi	a7,a7,-1
   12790:	21e79463          	bne	a5,t5,12998 <_malloc_r+0x878>
   12794:	0038f793          	andi	a5,a7,3
   12798:	ff8f0f13          	addi	t5,t5,-8
   1279c:	fe0796e3          	bne	a5,zero,12788 <_malloc_r+0x668>
   127a0:	00482703          	lw	a4,4(a6)
   127a4:	fff54793          	xori	a5,a0,-1
   127a8:	00e7f7b3          	and	a5,a5,a4
   127ac:	00f82223          	sw	a5,4(a6)
   127b0:	00151513          	slli	a0,a0,0x1
   127b4:	fff50713          	addi	a4,a0,-1
   127b8:	bcf776e3          	bgeu	a4,a5,12384 <_malloc_r+0x264>
   127bc:	00f57733          	and	a4,a0,a5
   127c0:	00071a63          	bne	a4,zero,127d4 <_malloc_r+0x6b4>
   127c4:	00151513          	slli	a0,a0,0x1
   127c8:	00f57733          	and	a4,a0,a5
   127cc:	004f8f93          	addi	t6,t6,4
   127d0:	fe070ae3          	beq	a4,zero,127c4 <_malloc_r+0x6a4>
   127d4:	000f8893          	addi	a7,t6,0
   127d8:	b35ff06f          	jal	zero,1230c <_malloc_r+0x1ec>
   127dc:	01058593          	addi	a1,a1,16
   127e0:	be9ff06f          	jal	zero,123c8 <_malloc_r+0x2a8>
   127e4:	4025d593          	srai	a1,a1,0x2
   127e8:	00100713          	addi	a4,zero,1
   127ec:	00b71733          	sll	a4,a4,a1
   127f0:	00e36333          	or	t1,t1,a4
   127f4:	00682223          	sw	t1,4(a6)
   127f8:	e29ff06f          	jal	zero,12620 <_malloc_r+0x500>
   127fc:	00b88333          	add	t1,a7,a1
   12800:	40600633          	sub	a2,zero,t1
   12804:	01461613          	slli	a2,a2,0x14
   12808:	01465593          	srli	a1,a2,0x14
   1280c:	00040513          	addi	a0,s0,0
   12810:	03012423          	sw	a6,40(sp)
   12814:	03c12223          	sw	t3,36(sp)
   12818:	02f12023          	sw	a5,32(sp)
   1281c:	00d12e23          	sw	a3,28(sp)
   12820:	00e12c23          	sw	a4,24(sp)
   12824:	01112a23          	sw	a7,20(sp)
   12828:	00b12623          	sw	a1,12(sp)
   1282c:	00612823          	sw	t1,16(sp)
   12830:	5dc000ef          	jal	ra,12e0c <_sbrk_r>
   12834:	fff00613          	addi	a2,zero,-1
   12838:	00c12583          	lw	a1,12(sp)
   1283c:	01412883          	lw	a7,20(sp)
   12840:	01812703          	lw	a4,24(sp)
   12844:	01c12683          	lw	a3,28(sp)
   12848:	02012783          	lw	a5,32(sp)
   1284c:	02412e03          	lw	t3,36(sp)
   12850:	02812803          	lw	a6,40(sp)
   12854:	c6c518e3          	bne	a0,a2,124c4 <_malloc_r+0x3a4>
   12858:	01012503          	lw	a0,16(sp)
   1285c:	00000593          	addi	a1,zero,0
   12860:	c65ff06f          	jal	zero,124c4 <_malloc_r+0x3a4>
   12864:	05400593          	addi	a1,zero,84
   12868:	06c5ee63          	bltu	a1,a2,128e4 <_malloc_r+0x7c4>
   1286c:	00c75613          	srli	a2,a4,0xc
   12870:	06f60513          	addi	a0,a2,111
   12874:	00351513          	slli	a0,a0,0x3
   12878:	06e60593          	addi	a1,a2,110
   1287c:	d79ff06f          	jal	zero,125f4 <_malloc_r+0x4d4>
   12880:	15400713          	addi	a4,zero,340
   12884:	06f76e63          	bltu	a4,a5,12900 <_malloc_r+0x7e0>
   12888:	00f6d793          	srli	a5,a3,0xf
   1288c:	07878893          	addi	a7,a5,120
   12890:	07778e13          	addi	t3,a5,119
   12894:	00389513          	slli	a0,a7,0x3
   12898:	97dff06f          	jal	zero,12214 <_malloc_r+0xf4>
   1289c:	00104e37          	lui	t3,0x104
   128a0:	59ce0e13          	addi	t3,t3,1436 # 10459c <__malloc_current_mallinfo>
   128a4:	000e2e83          	lw	t4,0(t3)
   128a8:	01d58eb3          	add	t4,a1,t4
   128ac:	01de2023          	sw	t4,0(t3)
   128b0:	b79ff06f          	jal	zero,12428 <_malloc_r+0x308>
   128b4:	01489f13          	slli	t5,a7,0x14
   128b8:	b60f18e3          	bne	t5,zero,12428 <_malloc_r+0x308>
   128bc:	00882883          	lw	a7,8(a6)
   128c0:	00b705b3          	add	a1,a4,a1
   128c4:	0015e513          	ori	a0,a1,1
   128c8:	00a8a223          	sw	a0,4(a7)
   128cc:	c55ff06f          	jal	zero,12520 <_malloc_r+0x400>
   128d0:	8111ac23          	sw	a7,-2024(gp) # 60af0 <__malloc_sbrk_base>
   128d4:	b6dff06f          	jal	zero,12440 <_malloc_r+0x320>
   128d8:	00100793          	addi	a5,zero,1
   128dc:	00f8a223          	sw	a5,4(a7)
   128e0:	e8dff06f          	jal	zero,1276c <_malloc_r+0x64c>
   128e4:	15400593          	addi	a1,zero,340
   128e8:	06c5ec63          	bltu	a1,a2,12960 <_malloc_r+0x840>
   128ec:	00f75613          	srli	a2,a4,0xf
   128f0:	07860513          	addi	a0,a2,120
   128f4:	00351513          	slli	a0,a0,0x3
   128f8:	07760593          	addi	a1,a2,119
   128fc:	cf9ff06f          	jal	zero,125f4 <_malloc_r+0x4d4>
   12900:	55400713          	addi	a4,zero,1364
   12904:	06f76c63          	bltu	a4,a5,1297c <_malloc_r+0x85c>
   12908:	0126d793          	srli	a5,a3,0x12
   1290c:	07d78893          	addi	a7,a5,125
   12910:	07c78e13          	addi	t3,a5,124
   12914:	00389513          	slli	a0,a7,0x3
   12918:	8fdff06f          	jal	zero,12214 <_malloc_r+0xf4>
   1291c:	ff8e8e93          	addi	t4,t4,-8
   12920:	01d30533          	add	a0,t1,t4
   12924:	00000593          	addi	a1,zero,0
   12928:	b9dff06f          	jal	zero,124c4 <_malloc_r+0x3a4>
   1292c:	00040513          	addi	a0,s0,0
   12930:	00878593          	addi	a1,a5,8
   12934:	01012a23          	sw	a6,20(sp)
   12938:	01c12823          	sw	t3,16(sp)
   1293c:	00d12623          	sw	a3,12(sp)
   12940:	cf8ff0ef          	jal	ra,11e38 <_free_r>
   12944:	01412803          	lw	a6,20(sp)
   12948:	01012e03          	lw	t3,16(sp)
   1294c:	00c12683          	lw	a3,12(sp)
   12950:	00882883          	lw	a7,8(a6)
   12954:	000e2603          	lw	a2,0(t3)
   12958:	0048a503          	lw	a0,4(a7)
   1295c:	bc5ff06f          	jal	zero,12520 <_malloc_r+0x400>
   12960:	55400593          	addi	a1,zero,1364
   12964:	02c5e463          	bltu	a1,a2,1298c <_malloc_r+0x86c>
   12968:	01275613          	srli	a2,a4,0x12
   1296c:	07d60513          	addi	a0,a2,125
   12970:	00351513          	slli	a0,a0,0x3
   12974:	07c60593          	addi	a1,a2,124
   12978:	c7dff06f          	jal	zero,125f4 <_malloc_r+0x4d4>
   1297c:	3f800513          	addi	a0,zero,1016
   12980:	07f00893          	addi	a7,zero,127
   12984:	07e00e13          	addi	t3,zero,126
   12988:	88dff06f          	jal	zero,12214 <_malloc_r+0xf4>
   1298c:	3f800513          	addi	a0,zero,1016
   12990:	07e00593          	addi	a1,zero,126
   12994:	c61ff06f          	jal	zero,125f4 <_malloc_r+0x4d4>
   12998:	00482783          	lw	a5,4(a6)
   1299c:	e15ff06f          	jal	zero,127b0 <_malloc_r+0x690>

000129a0 <__malloc_lock>:
   129a0:	00008067          	jalr	zero,0(ra)

000129a4 <__malloc_unlock>:
   129a4:	00008067          	jalr	zero,0(ra)

000129a8 <_fclose_r>:
   129a8:	ff010113          	addi	sp,sp,-16
   129ac:	00112623          	sw	ra,12(sp)
   129b0:	01212023          	sw	s2,0(sp)
   129b4:	02058863          	beq	a1,zero,129e4 <_fclose_r+0x3c>
   129b8:	00812423          	sw	s0,8(sp)
   129bc:	00912223          	sw	s1,4(sp)
   129c0:	00058413          	addi	s0,a1,0
   129c4:	00050493          	addi	s1,a0,0
   129c8:	00050663          	beq	a0,zero,129d4 <_fclose_r+0x2c>
   129cc:	03452783          	lw	a5,52(a0)
   129d0:	0c078c63          	beq	a5,zero,12aa8 <_fclose_r+0x100>
   129d4:	00c41783          	lh	a5,12(s0)
   129d8:	02079263          	bne	a5,zero,129fc <_fclose_r+0x54>
   129dc:	00812403          	lw	s0,8(sp)
   129e0:	00412483          	lw	s1,4(sp)
   129e4:	00c12083          	lw	ra,12(sp)
   129e8:	00000913          	addi	s2,zero,0
   129ec:	00090513          	addi	a0,s2,0
   129f0:	00012903          	lw	s2,0(sp)
   129f4:	01010113          	addi	sp,sp,16
   129f8:	00008067          	jalr	zero,0(ra)
   129fc:	00040593          	addi	a1,s0,0
   12a00:	00048513          	addi	a0,s1,0
   12a04:	0b8000ef          	jal	ra,12abc <__sflush_r>
   12a08:	02c42783          	lw	a5,44(s0)
   12a0c:	00050913          	addi	s2,a0,0
   12a10:	00078a63          	beq	a5,zero,12a24 <_fclose_r+0x7c>
   12a14:	01c42583          	lw	a1,28(s0)
   12a18:	00048513          	addi	a0,s1,0
   12a1c:	000780e7          	jalr	ra,0(a5)
   12a20:	06054463          	blt	a0,zero,12a88 <_fclose_r+0xe0>
   12a24:	00c45783          	lhu	a5,12(s0)
   12a28:	0807f793          	andi	a5,a5,128
   12a2c:	06079663          	bne	a5,zero,12a98 <_fclose_r+0xf0>
   12a30:	03042583          	lw	a1,48(s0)
   12a34:	00058c63          	beq	a1,zero,12a4c <_fclose_r+0xa4>
   12a38:	04040793          	addi	a5,s0,64
   12a3c:	00f58663          	beq	a1,a5,12a48 <_fclose_r+0xa0>
   12a40:	00048513          	addi	a0,s1,0
   12a44:	bf4ff0ef          	jal	ra,11e38 <_free_r>
   12a48:	02042823          	sw	zero,48(s0)
   12a4c:	04442583          	lw	a1,68(s0)
   12a50:	00058863          	beq	a1,zero,12a60 <_fclose_r+0xb8>
   12a54:	00048513          	addi	a0,s1,0
   12a58:	be0ff0ef          	jal	ra,11e38 <_free_r>
   12a5c:	04042223          	sw	zero,68(s0)
   12a60:	b39fe0ef          	jal	ra,11598 <__sfp_lock_acquire>
   12a64:	00041623          	sh	zero,12(s0)
   12a68:	b35fe0ef          	jal	ra,1159c <__sfp_lock_release>
   12a6c:	00c12083          	lw	ra,12(sp)
   12a70:	00812403          	lw	s0,8(sp)
   12a74:	00412483          	lw	s1,4(sp)
   12a78:	00090513          	addi	a0,s2,0
   12a7c:	00012903          	lw	s2,0(sp)
   12a80:	01010113          	addi	sp,sp,16
   12a84:	00008067          	jalr	zero,0(ra)
   12a88:	00c45783          	lhu	a5,12(s0)
   12a8c:	fff00913          	addi	s2,zero,-1
   12a90:	0807f793          	andi	a5,a5,128
   12a94:	f8078ee3          	beq	a5,zero,12a30 <_fclose_r+0x88>
   12a98:	01042583          	lw	a1,16(s0)
   12a9c:	00048513          	addi	a0,s1,0
   12aa0:	b98ff0ef          	jal	ra,11e38 <_free_r>
   12aa4:	f8dff06f          	jal	zero,12a30 <_fclose_r+0x88>
   12aa8:	acdfe0ef          	jal	ra,11574 <__sinit>
   12aac:	f29ff06f          	jal	zero,129d4 <_fclose_r+0x2c>

00012ab0 <fclose>:
   12ab0:	00050593          	addi	a1,a0,0
   12ab4:	8141a503          	lw	a0,-2028(gp) # 60aec <_impure_ptr>
   12ab8:	ef1ff06f          	jal	zero,129a8 <_fclose_r>

00012abc <__sflush_r>:
   12abc:	00c59703          	lh	a4,12(a1)
   12ac0:	fe010113          	addi	sp,sp,-32
   12ac4:	00812c23          	sw	s0,24(sp)
   12ac8:	01312623          	sw	s3,12(sp)
   12acc:	00112e23          	sw	ra,28(sp)
   12ad0:	00877793          	andi	a5,a4,8
   12ad4:	00058413          	addi	s0,a1,0
   12ad8:	00050993          	addi	s3,a0,0
   12adc:	12079263          	bne	a5,zero,12c00 <__sflush_r+0x144>
   12ae0:	000017b7          	lui	a5,0x1
   12ae4:	80078793          	addi	a5,a5,-2048 # 800 <exit-0xf8b4>
   12ae8:	0045a683          	lw	a3,4(a1)
   12aec:	00f767b3          	or	a5,a4,a5
   12af0:	00f59623          	sh	a5,12(a1)
   12af4:	18d05c63          	bge	zero,a3,12c8c <__sflush_r+0x1d0>
   12af8:	02842803          	lw	a6,40(s0)
   12afc:	0e080663          	beq	a6,zero,12be8 <__sflush_r+0x12c>
   12b00:	00912a23          	sw	s1,20(sp)
   12b04:	01371693          	slli	a3,a4,0x13
   12b08:	0009a483          	lw	s1,0(s3)
   12b0c:	0009a023          	sw	zero,0(s3)
   12b10:	1806ca63          	blt	a3,zero,12ca4 <__sflush_r+0x1e8>
   12b14:	01c42583          	lw	a1,28(s0)
   12b18:	00000613          	addi	a2,zero,0
   12b1c:	00100693          	addi	a3,zero,1
   12b20:	00098513          	addi	a0,s3,0
   12b24:	000800e7          	jalr	ra,0(a6)
   12b28:	fff00793          	addi	a5,zero,-1
   12b2c:	00050613          	addi	a2,a0,0
   12b30:	1af50c63          	beq	a0,a5,12ce8 <__sflush_r+0x22c>
   12b34:	00c41783          	lh	a5,12(s0)
   12b38:	02842803          	lw	a6,40(s0)
   12b3c:	0047f793          	andi	a5,a5,4
   12b40:	00078e63          	beq	a5,zero,12b5c <__sflush_r+0xa0>
   12b44:	00442703          	lw	a4,4(s0)
   12b48:	03042783          	lw	a5,48(s0)
   12b4c:	40e60633          	sub	a2,a2,a4
   12b50:	00078663          	beq	a5,zero,12b5c <__sflush_r+0xa0>
   12b54:	03c42783          	lw	a5,60(s0)
   12b58:	40f60633          	sub	a2,a2,a5
   12b5c:	01c42583          	lw	a1,28(s0)
   12b60:	00000693          	addi	a3,zero,0
   12b64:	00098513          	addi	a0,s3,0
   12b68:	000800e7          	jalr	ra,0(a6)
   12b6c:	fff00713          	addi	a4,zero,-1
   12b70:	00c41783          	lh	a5,12(s0)
   12b74:	12e51c63          	bne	a0,a4,12cac <__sflush_r+0x1f0>
   12b78:	0009a683          	lw	a3,0(s3)
   12b7c:	01d00713          	addi	a4,zero,29
   12b80:	18d76263          	bltu	a4,a3,12d04 <__sflush_r+0x248>
   12b84:	20400737          	lui	a4,0x20400
   12b88:	00170713          	addi	a4,a4,1 # 20400001 <__BSS_END__+0x202fb8ad>
   12b8c:	00d75733          	srl	a4,a4,a3
   12b90:	00177713          	andi	a4,a4,1
   12b94:	16070863          	beq	a4,zero,12d04 <__sflush_r+0x248>
   12b98:	01042683          	lw	a3,16(s0)
   12b9c:	fffff737          	lui	a4,0xfffff
   12ba0:	7ff70713          	addi	a4,a4,2047 # fffff7ff <__BSS_END__+0xffefb0ab>
   12ba4:	00e7f733          	and	a4,a5,a4
   12ba8:	00e41623          	sh	a4,12(s0)
   12bac:	00042223          	sw	zero,4(s0)
   12bb0:	00d42023          	sw	a3,0(s0)
   12bb4:	01379713          	slli	a4,a5,0x13
   12bb8:	00075663          	bge	a4,zero,12bc4 <__sflush_r+0x108>
   12bbc:	0009a783          	lw	a5,0(s3)
   12bc0:	10078863          	beq	a5,zero,12cd0 <__sflush_r+0x214>
   12bc4:	03042583          	lw	a1,48(s0)
   12bc8:	0099a023          	sw	s1,0(s3)
   12bcc:	10058a63          	beq	a1,zero,12ce0 <__sflush_r+0x224>
   12bd0:	04040793          	addi	a5,s0,64
   12bd4:	00f58663          	beq	a1,a5,12be0 <__sflush_r+0x124>
   12bd8:	00098513          	addi	a0,s3,0
   12bdc:	a5cff0ef          	jal	ra,11e38 <_free_r>
   12be0:	01412483          	lw	s1,20(sp)
   12be4:	02042823          	sw	zero,48(s0)
   12be8:	01c12083          	lw	ra,28(sp)
   12bec:	01812403          	lw	s0,24(sp)
   12bf0:	00c12983          	lw	s3,12(sp)
   12bf4:	00000513          	addi	a0,zero,0
   12bf8:	02010113          	addi	sp,sp,32
   12bfc:	00008067          	jalr	zero,0(ra)
   12c00:	01212823          	sw	s2,16(sp)
   12c04:	0105a903          	lw	s2,16(a1)
   12c08:	08090a63          	beq	s2,zero,12c9c <__sflush_r+0x1e0>
   12c0c:	00912a23          	sw	s1,20(sp)
   12c10:	0005a483          	lw	s1,0(a1)
   12c14:	00377713          	andi	a4,a4,3
   12c18:	0125a023          	sw	s2,0(a1)
   12c1c:	412484b3          	sub	s1,s1,s2
   12c20:	00000793          	addi	a5,zero,0
   12c24:	00071463          	bne	a4,zero,12c2c <__sflush_r+0x170>
   12c28:	0145a783          	lw	a5,20(a1)
   12c2c:	00f42423          	sw	a5,8(s0)
   12c30:	00904863          	blt	zero,s1,12c40 <__sflush_r+0x184>
   12c34:	0640006f          	jal	zero,12c98 <__sflush_r+0x1dc>
   12c38:	00a90933          	add	s2,s2,a0
   12c3c:	04905e63          	bge	zero,s1,12c98 <__sflush_r+0x1dc>
   12c40:	02442783          	lw	a5,36(s0)
   12c44:	01c42583          	lw	a1,28(s0)
   12c48:	00048693          	addi	a3,s1,0
   12c4c:	00090613          	addi	a2,s2,0
   12c50:	00098513          	addi	a0,s3,0
   12c54:	000780e7          	jalr	ra,0(a5)
   12c58:	40a484b3          	sub	s1,s1,a0
   12c5c:	fca04ee3          	blt	zero,a0,12c38 <__sflush_r+0x17c>
   12c60:	00c45783          	lhu	a5,12(s0)
   12c64:	01012903          	lw	s2,16(sp)
   12c68:	0407e793          	ori	a5,a5,64
   12c6c:	01c12083          	lw	ra,28(sp)
   12c70:	00f41623          	sh	a5,12(s0)
   12c74:	01812403          	lw	s0,24(sp)
   12c78:	01412483          	lw	s1,20(sp)
   12c7c:	00c12983          	lw	s3,12(sp)
   12c80:	fff00513          	addi	a0,zero,-1
   12c84:	02010113          	addi	sp,sp,32
   12c88:	00008067          	jalr	zero,0(ra)
   12c8c:	03c5a683          	lw	a3,60(a1)
   12c90:	e6d044e3          	blt	zero,a3,12af8 <__sflush_r+0x3c>
   12c94:	f55ff06f          	jal	zero,12be8 <__sflush_r+0x12c>
   12c98:	01412483          	lw	s1,20(sp)
   12c9c:	01012903          	lw	s2,16(sp)
   12ca0:	f49ff06f          	jal	zero,12be8 <__sflush_r+0x12c>
   12ca4:	05042603          	lw	a2,80(s0)
   12ca8:	e95ff06f          	jal	zero,12b3c <__sflush_r+0x80>
   12cac:	01042683          	lw	a3,16(s0)
   12cb0:	fffff737          	lui	a4,0xfffff
   12cb4:	7ff70713          	addi	a4,a4,2047 # fffff7ff <__BSS_END__+0xffefb0ab>
   12cb8:	00e7f733          	and	a4,a5,a4
   12cbc:	00e41623          	sh	a4,12(s0)
   12cc0:	00042223          	sw	zero,4(s0)
   12cc4:	00d42023          	sw	a3,0(s0)
   12cc8:	01379713          	slli	a4,a5,0x13
   12ccc:	ee075ce3          	bge	a4,zero,12bc4 <__sflush_r+0x108>
   12cd0:	03042583          	lw	a1,48(s0)
   12cd4:	04a42823          	sw	a0,80(s0)
   12cd8:	0099a023          	sw	s1,0(s3)
   12cdc:	ee059ae3          	bne	a1,zero,12bd0 <__sflush_r+0x114>
   12ce0:	01412483          	lw	s1,20(sp)
   12ce4:	f05ff06f          	jal	zero,12be8 <__sflush_r+0x12c>
   12ce8:	0009a783          	lw	a5,0(s3)
   12cec:	e40784e3          	beq	a5,zero,12b34 <__sflush_r+0x78>
   12cf0:	fe378713          	addi	a4,a5,-29
   12cf4:	00070c63          	beq	a4,zero,12d0c <__sflush_r+0x250>
   12cf8:	fea78793          	addi	a5,a5,-22
   12cfc:	00078863          	beq	a5,zero,12d0c <__sflush_r+0x250>
   12d00:	00c45783          	lhu	a5,12(s0)
   12d04:	0407e793          	ori	a5,a5,64
   12d08:	f65ff06f          	jal	zero,12c6c <__sflush_r+0x1b0>
   12d0c:	0099a023          	sw	s1,0(s3)
   12d10:	01412483          	lw	s1,20(sp)
   12d14:	ed5ff06f          	jal	zero,12be8 <__sflush_r+0x12c>

00012d18 <_fflush_r>:
   12d18:	00050793          	addi	a5,a0,0
   12d1c:	00050663          	beq	a0,zero,12d28 <_fflush_r+0x10>
   12d20:	03452703          	lw	a4,52(a0)
   12d24:	00070e63          	beq	a4,zero,12d40 <_fflush_r+0x28>
   12d28:	00c59703          	lh	a4,12(a1)
   12d2c:	00071663          	bne	a4,zero,12d38 <_fflush_r+0x20>
   12d30:	00000513          	addi	a0,zero,0
   12d34:	00008067          	jalr	zero,0(ra)
   12d38:	00078513          	addi	a0,a5,0
   12d3c:	d81ff06f          	jal	zero,12abc <__sflush_r>
   12d40:	fe010113          	addi	sp,sp,-32
   12d44:	00b12623          	sw	a1,12(sp)
   12d48:	00112e23          	sw	ra,28(sp)
   12d4c:	00a12423          	sw	a0,8(sp)
   12d50:	825fe0ef          	jal	ra,11574 <__sinit>
   12d54:	00c12583          	lw	a1,12(sp)
   12d58:	00812783          	lw	a5,8(sp)
   12d5c:	00c59703          	lh	a4,12(a1)
   12d60:	00070a63          	beq	a4,zero,12d74 <_fflush_r+0x5c>
   12d64:	01c12083          	lw	ra,28(sp)
   12d68:	00078513          	addi	a0,a5,0
   12d6c:	02010113          	addi	sp,sp,32
   12d70:	d4dff06f          	jal	zero,12abc <__sflush_r>
   12d74:	01c12083          	lw	ra,28(sp)
   12d78:	00000513          	addi	a0,zero,0
   12d7c:	02010113          	addi	sp,sp,32
   12d80:	00008067          	jalr	zero,0(ra)

00012d84 <fflush>:
   12d84:	06050063          	beq	a0,zero,12de4 <fflush+0x60>
   12d88:	00050593          	addi	a1,a0,0
   12d8c:	8141a503          	lw	a0,-2028(gp) # 60aec <_impure_ptr>
   12d90:	00050663          	beq	a0,zero,12d9c <fflush+0x18>
   12d94:	03452783          	lw	a5,52(a0)
   12d98:	00078c63          	beq	a5,zero,12db0 <fflush+0x2c>
   12d9c:	00c59783          	lh	a5,12(a1)
   12da0:	00079663          	bne	a5,zero,12dac <fflush+0x28>
   12da4:	00000513          	addi	a0,zero,0
   12da8:	00008067          	jalr	zero,0(ra)
   12dac:	d11ff06f          	jal	zero,12abc <__sflush_r>
   12db0:	fe010113          	addi	sp,sp,-32
   12db4:	00b12623          	sw	a1,12(sp)
   12db8:	00a12423          	sw	a0,8(sp)
   12dbc:	00112e23          	sw	ra,28(sp)
   12dc0:	fb4fe0ef          	jal	ra,11574 <__sinit>
   12dc4:	00c12583          	lw	a1,12(sp)
   12dc8:	00812503          	lw	a0,8(sp)
   12dcc:	00c59783          	lh	a5,12(a1)
   12dd0:	02079863          	bne	a5,zero,12e00 <fflush+0x7c>
   12dd4:	01c12083          	lw	ra,28(sp)
   12dd8:	00000513          	addi	a0,zero,0
   12ddc:	02010113          	addi	sp,sp,32
   12de0:	00008067          	jalr	zero,0(ra)
   12de4:	00060637          	lui	a2,0x60
   12de8:	000135b7          	lui	a1,0x13
   12dec:	00060537          	lui	a0,0x60
   12df0:	5a060613          	addi	a2,a2,1440 # 605a0 <__sglue>
   12df4:	d1858593          	addi	a1,a1,-744 # 12d18 <_fflush_r>
   12df8:	5b050513          	addi	a0,a0,1456 # 605b0 <_impure_data>
   12dfc:	fd4fe06f          	jal	zero,115d0 <_fwalk_sglue>
   12e00:	01c12083          	lw	ra,28(sp)
   12e04:	02010113          	addi	sp,sp,32
   12e08:	cb5ff06f          	jal	zero,12abc <__sflush_r>

00012e0c <_sbrk_r>:
   12e0c:	ff010113          	addi	sp,sp,-16
   12e10:	00812423          	sw	s0,8(sp)
   12e14:	00912223          	sw	s1,4(sp)
   12e18:	00050493          	addi	s1,a0,0
   12e1c:	00058513          	addi	a0,a1,0
   12e20:	00112623          	sw	ra,12(sp)
   12e24:	8201a423          	sw	zero,-2008(gp) # 60b00 <errno>
   12e28:	224000ef          	jal	ra,1304c <_sbrk>
   12e2c:	fff00793          	addi	a5,zero,-1
   12e30:	00f50c63          	beq	a0,a5,12e48 <_sbrk_r+0x3c>
   12e34:	00c12083          	lw	ra,12(sp)
   12e38:	00812403          	lw	s0,8(sp)
   12e3c:	00412483          	lw	s1,4(sp)
   12e40:	01010113          	addi	sp,sp,16
   12e44:	00008067          	jalr	zero,0(ra)
   12e48:	8281a783          	lw	a5,-2008(gp) # 60b00 <errno>
   12e4c:	fe0784e3          	beq	a5,zero,12e34 <_sbrk_r+0x28>
   12e50:	00c12083          	lw	ra,12(sp)
   12e54:	00812403          	lw	s0,8(sp)
   12e58:	00f4a023          	sw	a5,0(s1)
   12e5c:	00412483          	lw	s1,4(sp)
   12e60:	01010113          	addi	sp,sp,16
   12e64:	00008067          	jalr	zero,0(ra)

00012e68 <__libc_fini_array>:
   12e68:	ff010113          	addi	sp,sp,-16
   12e6c:	00812423          	sw	s0,8(sp)
   12e70:	000607b7          	lui	a5,0x60
   12e74:	00060437          	lui	s0,0x60
   12e78:	59c78793          	addi	a5,a5,1436 # 6059c <__fini_array_end>
   12e7c:	59840413          	addi	s0,s0,1432 # 60598 <__do_global_dtors_aux_fini_array_entry>
   12e80:	408787b3          	sub	a5,a5,s0
   12e84:	00912223          	sw	s1,4(sp)
   12e88:	00112623          	sw	ra,12(sp)
   12e8c:	4027d493          	srai	s1,a5,0x2
   12e90:	02048063          	beq	s1,zero,12eb0 <__libc_fini_array+0x48>
   12e94:	ffc40413          	addi	s0,s0,-4
   12e98:	00f40433          	add	s0,s0,a5
   12e9c:	00042783          	lw	a5,0(s0)
   12ea0:	fff48493          	addi	s1,s1,-1
   12ea4:	ffc40413          	addi	s0,s0,-4
   12ea8:	000780e7          	jalr	ra,0(a5)
   12eac:	fe0498e3          	bne	s1,zero,12e9c <__libc_fini_array+0x34>
   12eb0:	00c12083          	lw	ra,12(sp)
   12eb4:	00812403          	lw	s0,8(sp)
   12eb8:	00412483          	lw	s1,4(sp)
   12ebc:	01010113          	addi	sp,sp,16
   12ec0:	00008067          	jalr	zero,0(ra)

00012ec4 <__register_exitproc>:
   12ec4:	82c1a783          	lw	a5,-2004(gp) # 60b04 <__atexit>
   12ec8:	04078c63          	beq	a5,zero,12f20 <__register_exitproc+0x5c>
   12ecc:	0047a703          	lw	a4,4(a5)
   12ed0:	01f00813          	addi	a6,zero,31
   12ed4:	08e84063          	blt	a6,a4,12f54 <__register_exitproc+0x90>
   12ed8:	00271813          	slli	a6,a4,0x2
   12edc:	02050663          	beq	a0,zero,12f08 <__register_exitproc+0x44>
   12ee0:	01078333          	add	t1,a5,a6
   12ee4:	08c32423          	sw	a2,136(t1)
   12ee8:	1887a883          	lw	a7,392(a5)
   12eec:	00100613          	addi	a2,zero,1
   12ef0:	00e61633          	sll	a2,a2,a4
   12ef4:	00c8e8b3          	or	a7,a7,a2
   12ef8:	1917a423          	sw	a7,392(a5)
   12efc:	10d32423          	sw	a3,264(t1)
   12f00:	00200693          	addi	a3,zero,2
   12f04:	02d50663          	beq	a0,a3,12f30 <__register_exitproc+0x6c>
   12f08:	00170713          	addi	a4,a4,1
   12f0c:	00e7a223          	sw	a4,4(a5)
   12f10:	010787b3          	add	a5,a5,a6
   12f14:	00b7a423          	sw	a1,8(a5)
   12f18:	00000513          	addi	a0,zero,0
   12f1c:	00008067          	jalr	zero,0(ra)
   12f20:	001047b7          	lui	a5,0x104
   12f24:	5c478793          	addi	a5,a5,1476 # 1045c4 <__atexit0>
   12f28:	82f1a623          	sw	a5,-2004(gp) # 60b04 <__atexit>
   12f2c:	fa1ff06f          	jal	zero,12ecc <__register_exitproc+0x8>
   12f30:	18c7a683          	lw	a3,396(a5)
   12f34:	00170713          	addi	a4,a4,1
   12f38:	00e7a223          	sw	a4,4(a5)
   12f3c:	00c6e6b3          	or	a3,a3,a2
   12f40:	18d7a623          	sw	a3,396(a5)
   12f44:	010787b3          	add	a5,a5,a6
   12f48:	00b7a423          	sw	a1,8(a5)
   12f4c:	00000513          	addi	a0,zero,0
   12f50:	00008067          	jalr	zero,0(ra)
   12f54:	fff00513          	addi	a0,zero,-1
   12f58:	00008067          	jalr	zero,0(ra)

00012f5c <_close>:
   12f5c:	03900893          	addi	a7,zero,57
   12f60:	00000073          	ecall
   12f64:	00054463          	blt	a0,zero,12f6c <_close+0x10>
   12f68:	00008067          	jalr	zero,0(ra)
   12f6c:	fe010113          	addi	sp,sp,-32
   12f70:	00112e23          	sw	ra,28(sp)
   12f74:	00a12623          	sw	a0,12(sp)
   12f78:	18c000ef          	jal	ra,13104 <__errno>
   12f7c:	00c12783          	lw	a5,12(sp)
   12f80:	01c12083          	lw	ra,28(sp)
   12f84:	40f007b3          	sub	a5,zero,a5
   12f88:	00f52023          	sw	a5,0(a0)
   12f8c:	fff00793          	addi	a5,zero,-1
   12f90:	00078513          	addi	a0,a5,0
   12f94:	02010113          	addi	sp,sp,32
   12f98:	00008067          	jalr	zero,0(ra)

00012f9c <_exit>:
   12f9c:	05d00893          	addi	a7,zero,93
   12fa0:	00000073          	ecall
   12fa4:	00054463          	blt	a0,zero,12fac <_exit+0x10>
   12fa8:	0000006f          	jal	zero,12fa8 <_exit+0xc>
   12fac:	fe010113          	addi	sp,sp,-32
   12fb0:	00112e23          	sw	ra,28(sp)
   12fb4:	00a12623          	sw	a0,12(sp)
   12fb8:	14c000ef          	jal	ra,13104 <__errno>
   12fbc:	00c12783          	lw	a5,12(sp)
   12fc0:	40f007b3          	sub	a5,zero,a5
   12fc4:	00f52023          	sw	a5,0(a0)
   12fc8:	0000006f          	jal	zero,12fc8 <_exit+0x2c>

00012fcc <_lseek>:
   12fcc:	03e00893          	addi	a7,zero,62
   12fd0:	00000073          	ecall
   12fd4:	00054463          	blt	a0,zero,12fdc <_lseek+0x10>
   12fd8:	00008067          	jalr	zero,0(ra)
   12fdc:	fe010113          	addi	sp,sp,-32
   12fe0:	00112e23          	sw	ra,28(sp)
   12fe4:	00a12623          	sw	a0,12(sp)
   12fe8:	11c000ef          	jal	ra,13104 <__errno>
   12fec:	00c12783          	lw	a5,12(sp)
   12ff0:	01c12083          	lw	ra,28(sp)
   12ff4:	40f007b3          	sub	a5,zero,a5
   12ff8:	00f52023          	sw	a5,0(a0)
   12ffc:	fff00793          	addi	a5,zero,-1
   13000:	00078513          	addi	a0,a5,0
   13004:	02010113          	addi	sp,sp,32
   13008:	00008067          	jalr	zero,0(ra)

0001300c <_read>:
   1300c:	03f00893          	addi	a7,zero,63
   13010:	00000073          	ecall
   13014:	00054463          	blt	a0,zero,1301c <_read+0x10>
   13018:	00008067          	jalr	zero,0(ra)
   1301c:	fe010113          	addi	sp,sp,-32
   13020:	00112e23          	sw	ra,28(sp)
   13024:	00a12623          	sw	a0,12(sp)
   13028:	0dc000ef          	jal	ra,13104 <__errno>
   1302c:	00c12783          	lw	a5,12(sp)
   13030:	01c12083          	lw	ra,28(sp)
   13034:	40f007b3          	sub	a5,zero,a5
   13038:	00f52023          	sw	a5,0(a0)
   1303c:	fff00793          	addi	a5,zero,-1
   13040:	00078513          	addi	a0,a5,0
   13044:	02010113          	addi	sp,sp,32
   13048:	00008067          	jalr	zero,0(ra)

0001304c <_sbrk>:
   1304c:	83c1a783          	lw	a5,-1988(gp) # 60b14 <heap_end.0>
   13050:	ff010113          	addi	sp,sp,-16
   13054:	00112623          	sw	ra,12(sp)
   13058:	00050713          	addi	a4,a0,0
   1305c:	02079063          	bne	a5,zero,1307c <_sbrk+0x30>
   13060:	0d600893          	addi	a7,zero,214
   13064:	00000513          	addi	a0,zero,0
   13068:	00000073          	ecall
   1306c:	fff00793          	addi	a5,zero,-1
   13070:	02f50c63          	beq	a0,a5,130a8 <_sbrk+0x5c>
   13074:	00050793          	addi	a5,a0,0
   13078:	82a1ae23          	sw	a0,-1988(gp) # 60b14 <heap_end.0>
   1307c:	00f70533          	add	a0,a4,a5
   13080:	0d600893          	addi	a7,zero,214
   13084:	00000073          	ecall
   13088:	83c1a783          	lw	a5,-1988(gp) # 60b14 <heap_end.0>
   1308c:	00f70733          	add	a4,a4,a5
   13090:	00e51c63          	bne	a0,a4,130a8 <_sbrk+0x5c>
   13094:	00c12083          	lw	ra,12(sp)
   13098:	82a1ae23          	sw	a0,-1988(gp) # 60b14 <heap_end.0>
   1309c:	00078513          	addi	a0,a5,0
   130a0:	01010113          	addi	sp,sp,16
   130a4:	00008067          	jalr	zero,0(ra)
   130a8:	05c000ef          	jal	ra,13104 <__errno>
   130ac:	00c12083          	lw	ra,12(sp)
   130b0:	00c00793          	addi	a5,zero,12
   130b4:	00f52023          	sw	a5,0(a0)
   130b8:	fff00513          	addi	a0,zero,-1
   130bc:	01010113          	addi	sp,sp,16
   130c0:	00008067          	jalr	zero,0(ra)

000130c4 <_write>:
   130c4:	04000893          	addi	a7,zero,64
   130c8:	00000073          	ecall
   130cc:	00054463          	blt	a0,zero,130d4 <_write+0x10>
   130d0:	00008067          	jalr	zero,0(ra)
   130d4:	fe010113          	addi	sp,sp,-32
   130d8:	00112e23          	sw	ra,28(sp)
   130dc:	00a12623          	sw	a0,12(sp)
   130e0:	024000ef          	jal	ra,13104 <__errno>
   130e4:	00c12783          	lw	a5,12(sp)
   130e8:	01c12083          	lw	ra,28(sp)
   130ec:	40f007b3          	sub	a5,zero,a5
   130f0:	00f52023          	sw	a5,0(a0)
   130f4:	fff00793          	addi	a5,zero,-1
   130f8:	00078513          	addi	a0,a5,0
   130fc:	02010113          	addi	sp,sp,32
   13100:	00008067          	jalr	zero,0(ra)

00013104 <__errno>:
   13104:	8141a503          	lw	a0,-2028(gp) # 60aec <_impure_ptr>
   13108:	00008067          	jalr	zero,0(ra)
