
./rijndael_O3:     file format elf32-littleriscv


Disassembly of section .text:

000100b4 <exit>:
   100b4:	ff010113          	addi	sp,sp,-16
   100b8:	00000593          	addi	a1,zero,0
   100bc:	00812423          	sw	s0,8(sp)
   100c0:	00112623          	sw	ra,12(sp)
   100c4:	00050413          	addi	s0,a0,0
   100c8:	101050ef          	jal	ra,159c8 <__call_exitprocs>
   100cc:	8881a783          	lw	a5,-1912(gp) # 78740 <__stdio_exit_handler>
   100d0:	00078463          	beq	a5,zero,100d8 <exit+0x24>
   100d4:	000780e7          	jalr	ra,0(a5)
   100d8:	00040513          	addi	a0,s0,0
   100dc:	195100ef          	jal	ra,20a70 <_exit>

000100e0 <main>:
   100e0:	000256b7          	lui	a3,0x25
   100e4:	da010113          	addi	sp,sp,-608
   100e8:	75468693          	addi	a3,a3,1876 # 25754 <__clzsi2+0x11c>
   100ec:	24112e23          	sw	ra,604(sp)
   100f0:	25312623          	sw	s3,588(sp)
   100f4:	00012623          	sw	zero,12(sp)
   100f8:	00012823          	sw	zero,16(sp)
   100fc:	04068893          	addi	a7,a3,64
   10100:	01410613          	addi	a2,sp,20
   10104:	00900513          	addi	a0,zero,9
   10108:	00500593          	addi	a1,zero,5
   1010c:	0640006f          	jal	zero,10170 <main+0x90>
   10110:	fbf70793          	addi	a5,a4,-65
   10114:	0ff7f793          	andi	a5,a5,255
   10118:	18f5f263          	bgeu	a1,a5,1029c <main+0x1bc>
   1011c:	f9f70793          	addi	a5,a4,-97
   10120:	0ff7f793          	andi	a5,a5,255
   10124:	1af5e263          	bltu	a1,a5,102c8 <main+0x1e8>
   10128:	0016c803          	lbu	a6,1(a3)
   1012c:	fa970793          	addi	a5,a4,-87
   10130:	fd080713          	addi	a4,a6,-48
   10134:	0ff77313          	andi	t1,a4,255
   10138:	02657063          	bgeu	a0,t1,10158 <main+0x78>
   1013c:	fbf80713          	addi	a4,a6,-65
   10140:	0ff77713          	andi	a4,a4,255
   10144:	04e5fc63          	bgeu	a1,a4,1019c <main+0xbc>
   10148:	f9f80713          	addi	a4,a6,-97
   1014c:	0ff77713          	andi	a4,a4,255
   10150:	16e5ec63          	bltu	a1,a4,102c8 <main+0x1e8>
   10154:	fa980713          	addi	a4,a6,-87
   10158:	00479793          	slli	a5,a5,0x4
   1015c:	00e7e7b3          	or	a5,a5,a4
   10160:	00f60023          	sb	a5,0(a2)
   10164:	00268693          	addi	a3,a3,2
   10168:	00160613          	addi	a2,a2,1
   1016c:	04d88663          	beq	a7,a3,101b8 <main+0xd8>
   10170:	0006c703          	lbu	a4,0(a3)
   10174:	fd070793          	addi	a5,a4,-48
   10178:	0ff7f813          	andi	a6,a5,255
   1017c:	f9056ae3          	bltu	a0,a6,10110 <main+0x30>
   10180:	0016c803          	lbu	a6,1(a3)
   10184:	fd080713          	addi	a4,a6,-48
   10188:	0ff77313          	andi	t1,a4,255
   1018c:	fc6576e3          	bgeu	a0,t1,10158 <main+0x78>
   10190:	fbf80713          	addi	a4,a6,-65
   10194:	0ff77713          	andi	a4,a4,255
   10198:	fae5e8e3          	bltu	a1,a4,10148 <main+0x68>
   1019c:	fc980713          	addi	a4,a6,-55
   101a0:	00479793          	slli	a5,a5,0x4
   101a4:	00e7e7b3          	or	a5,a5,a4
   101a8:	00f60023          	sb	a5,0(a2)
   101ac:	00268693          	addi	a3,a3,2
   101b0:	00160613          	addi	a2,a2,1
   101b4:	fad89ee3          	bne	a7,a3,10170 <main+0x90>
   101b8:	03410693          	addi	a3,sp,52
   101bc:	00100613          	addi	a2,zero,1
   101c0:	02000593          	addi	a1,zero,32
   101c4:	01410513          	addi	a0,sp,20
   101c8:	24912a23          	sw	s1,596(sp)
   101cc:	24812c23          	sw	s0,600(sp)
   101d0:	25212823          	sw	s2,592(sp)
   101d4:	728030ef          	jal	ra,138fc <set_key>
   101d8:	000c54b7          	lui	s1,0xc5
   101dc:	00026537          	lui	a0,0x26
   101e0:	0004c737          	lui	a4,0x4c
   101e4:	0004c5b7          	lui	a1,0x4c
   101e8:	00c10793          	addi	a5,sp,12
   101ec:	03410613          	addi	a2,sp,52
   101f0:	24070713          	addi	a4,a4,576 # 4c240 <input_small_data+0x268a4>
   101f4:	99048693          	addi	a3,s1,-1648 # c4990 <cipher_buffer.1>
   101f8:	21058593          	addi	a1,a1,528 # 4c210 <input_small_data+0x26874>
   101fc:	99c50513          	addi	a0,a0,-1636 # 2599c <input_small_data>
   10200:	60d030ef          	jal	ra,1400c <enc_buffer>
   10204:	0a051863          	bne	a0,zero,102b4 <main+0x1d4>
   10208:	02000593          	addi	a1,zero,32
   1020c:	01410513          	addi	a0,sp,20
   10210:	03410693          	addi	a3,sp,52
   10214:	00200613          	addi	a2,zero,2
   10218:	6e4030ef          	jal	ra,138fc <set_key>
   1021c:	00c12583          	lw	a1,12(sp)
   10220:	01f00793          	addi	a5,zero,31
   10224:	0ab7fc63          	bgeu	a5,a1,102dc <main+0x1fc>
   10228:	00078437          	lui	s0,0x78
   1022c:	0004c737          	lui	a4,0x4c
   10230:	03410613          	addi	a2,sp,52
   10234:	99048513          	addi	a0,s1,-1648
   10238:	21170713          	addi	a4,a4,529 # 4c211 <input_small_data+0x26875>
   1023c:	77c40693          	addi	a3,s0,1916 # 7877c <plain_buffer.0>
   10240:	01010793          	addi	a5,sp,16
   10244:	13c030ef          	jal	ra,13380 <dec_buffer.part.0>
   10248:	00050993          	addi	s3,a0,0
   1024c:	02051863          	bne	a0,zero,1027c <main+0x19c>
   10250:	01012483          	lw	s1,16(sp)
   10254:	02048463          	beq	s1,zero,1027c <main+0x19c>
   10258:	77c40413          	addi	s0,s0,1916
   1025c:	00025937          	lui	s2,0x25
   10260:	009404b3          	add	s1,s0,s1
   10264:	79890913          	addi	s2,s2,1944 # 25798 <__clzsi2+0x160>
   10268:	00044583          	lbu	a1,0(s0)
   1026c:	00090513          	addi	a0,s2,0
   10270:	00140413          	addi	s0,s0,1
   10274:	1c8050ef          	jal	ra,1543c <printf>
   10278:	fe9418e3          	bne	s0,s1,10268 <main+0x188>
   1027c:	25812403          	lw	s0,600(sp)
   10280:	25412483          	lw	s1,596(sp)
   10284:	25012903          	lw	s2,592(sp)
   10288:	25c12083          	lw	ra,604(sp)
   1028c:	00098513          	addi	a0,s3,0
   10290:	24c12983          	lw	s3,588(sp)
   10294:	26010113          	addi	sp,sp,608
   10298:	00008067          	jalr	zero,0(ra)
   1029c:	0016c803          	lbu	a6,1(a3)
   102a0:	fc970793          	addi	a5,a4,-55
   102a4:	fd080713          	addi	a4,a6,-48
   102a8:	0ff77313          	andi	t1,a4,255
   102ac:	e86568e3          	bltu	a0,t1,1013c <main+0x5c>
   102b0:	ea9ff06f          	jal	zero,10158 <main+0x78>
   102b4:	25812403          	lw	s0,600(sp)
   102b8:	25412483          	lw	s1,596(sp)
   102bc:	25012903          	lw	s2,592(sp)
   102c0:	f9c00993          	addi	s3,zero,-100
   102c4:	fc5ff06f          	jal	zero,10288 <main+0x1a8>
   102c8:	00025537          	lui	a0,0x25
   102cc:	79c50513          	addi	a0,a0,1948 # 2579c <__clzsi2+0x164>
   102d0:	16c050ef          	jal	ra,1543c <printf>
   102d4:	fff00993          	addi	s3,zero,-1
   102d8:	fb1ff06f          	jal	zero,10288 <main+0x1a8>
   102dc:	00025537          	lui	a0,0x25
   102e0:	72850513          	addi	a0,a0,1832 # 25728 <__clzsi2+0xf0>
   102e4:	158050ef          	jal	ra,1543c <printf>
   102e8:	f3800993          	addi	s3,zero,-200
   102ec:	25812403          	lw	s0,600(sp)
   102f0:	25412483          	lw	s1,596(sp)
   102f4:	25012903          	lw	s2,592(sp)
   102f8:	f91ff06f          	jal	zero,10288 <main+0x1a8>

000102fc <register_fini>:
   102fc:	00000793          	addi	a5,zero,0
   10300:	00078863          	beq	a5,zero,10310 <register_fini+0x14>
   10304:	0001a537          	lui	a0,0x1a
   10308:	59450513          	addi	a0,a0,1428 # 1a594 <__libc_fini_array>
   1030c:	7f00506f          	jal	zero,15afc <atexit>
   10310:	00008067          	jalr	zero,0(ra)

00010314 <_start>:
   10314:	00069197          	auipc	gp,0x69
   10318:	ba418193          	addi	gp,gp,-1116 # 78eb8 <__global_pointer$>
   1031c:	00068517          	auipc	a0,0x68
   10320:	41850513          	addi	a0,a0,1048 # 78734 <r3.2>
   10324:	00101617          	auipc	a2,0x101
   10328:	b9c60613          	addi	a2,a2,-1124 # 110ec0 <__BSS_END__>
   1032c:	40a60633          	sub	a2,a2,a0
   10330:	00000593          	addi	a1,zero,0
   10334:	5b8050ef          	jal	ra,158ec <memset>
   10338:	00005517          	auipc	a0,0x5
   1033c:	7c450513          	addi	a0,a0,1988 # 15afc <atexit>
   10340:	00050863          	beq	a0,zero,10350 <_start+0x3c>
   10344:	0000a517          	auipc	a0,0xa
   10348:	25050513          	addi	a0,a0,592 # 1a594 <__libc_fini_array>
   1034c:	7b0050ef          	jal	ra,15afc <atexit>
   10350:	508050ef          	jal	ra,15858 <__libc_init_array>
   10354:	00012503          	lw	a0,0(sp)
   10358:	00410593          	addi	a1,sp,4
   1035c:	00000613          	addi	a2,zero,0
   10360:	d81ff0ef          	jal	ra,100e0 <main>
   10364:	d51ff06f          	jal	zero,100b4 <exit>

00010368 <__do_global_dtors_aux>:
   10368:	ff010113          	addi	sp,sp,-16
   1036c:	00812423          	sw	s0,8(sp)
   10370:	8a81c783          	lbu	a5,-1880(gp) # 78760 <completed.1>
   10374:	00112623          	sw	ra,12(sp)
   10378:	02079263          	bne	a5,zero,1039c <__do_global_dtors_aux+0x34>
   1037c:	00000793          	addi	a5,zero,0
   10380:	00078a63          	beq	a5,zero,10394 <__do_global_dtors_aux+0x2c>
   10384:	00077537          	lui	a0,0x77
   10388:	44450513          	addi	a0,a0,1092 # 77444 <__EH_FRAME_BEGIN__>
   1038c:	00000097          	auipc	ra,0x0
   10390:	000000e7          	jalr	ra,0(zero) # 0 <exit-0x100b4>
   10394:	00100793          	addi	a5,zero,1
   10398:	8af18423          	sb	a5,-1880(gp) # 78760 <completed.1>
   1039c:	00c12083          	lw	ra,12(sp)
   103a0:	00812403          	lw	s0,8(sp)
   103a4:	01010113          	addi	sp,sp,16
   103a8:	00008067          	jalr	zero,0(ra) # 1038c <__do_global_dtors_aux+0x24>

000103ac <frame_dummy>:
   103ac:	00000793          	addi	a5,zero,0
   103b0:	00078c63          	beq	a5,zero,103c8 <frame_dummy+0x1c>
   103b4:	00077537          	lui	a0,0x77
   103b8:	8ac18593          	addi	a1,gp,-1876 # 78764 <object.0>
   103bc:	44450513          	addi	a0,a0,1092 # 77444 <__EH_FRAME_BEGIN__>
   103c0:	00000317          	auipc	t1,0x0
   103c4:	00000067          	jalr	zero,0(zero) # 0 <exit-0x100b4>
   103c8:	00008067          	jalr	zero,0(ra)

000103cc <encrypt.part.0>:
   103cc:	00052803          	lw	a6,0(a0)
   103d0:	00862703          	lw	a4,8(a2)
   103d4:	00452e03          	lw	t3,4(a0)
   103d8:	00c62783          	lw	a5,12(a2)
   103dc:	00852683          	lw	a3,8(a0)
   103e0:	01062303          	lw	t1,16(a2)
   103e4:	00e84833          	xor	a6,a6,a4
   103e8:	00fe4e33          	xor	t3,t3,a5
   103ec:	00c52703          	lw	a4,12(a0)
   103f0:	00462783          	lw	a5,4(a2)
   103f4:	01462503          	lw	a0,20(a2)
   103f8:	ff010113          	addi	sp,sp,-16
   103fc:	00812623          	sw	s0,12(sp)
   10400:	00c00893          	addi	a7,zero,12
   10404:	00a74733          	xor	a4,a4,a0
   10408:	0066c6b3          	xor	a3,a3,t1
   1040c:	01860513          	addi	a0,a2,24
   10410:	01179463          	bne	a5,a7,10418 <encrypt.part.0+0x4c>
   10414:	7340106f          	jal	zero,11b48 <encrypt.part.0+0x177c>
   10418:	00e00893          	addi	a7,zero,14
   1041c:	01179463          	bne	a5,a7,10424 <encrypt.part.0+0x58>
   10420:	0940106f          	jal	zero,114b4 <encrypt.part.0+0x10e8>
   10424:	00a00613          	addi	a2,zero,10
   10428:	00c78463          	beq	a5,a2,10430 <encrypt.part.0+0x64>
   1042c:	0680106f          	jal	zero,11494 <encrypt.part.0+0x10c8>
   10430:	000767b7          	lui	a5,0x76
   10434:	bb078793          	addi	a5,a5,-1104 # 75bb0 <ft_tab>
   10438:	0086d893          	srli	a7,a3,0x8
   1043c:	01885f13          	srli	t5,a6,0x18
   10440:	0ff8f893          	andi	a7,a7,255
   10444:	300f0f13          	addi	t5,t5,768
   10448:	10088893          	addi	a7,a7,256
   1044c:	0186d613          	srli	a2,a3,0x18
   10450:	002f1f13          	slli	t5,t5,0x2
   10454:	00289893          	slli	a7,a7,0x2
   10458:	01e78f33          	add	t5,a5,t5
   1045c:	011788b3          	add	a7,a5,a7
   10460:	0ff77293          	andi	t0,a4,255
   10464:	30060613          	addi	a2,a2,768
   10468:	000f2383          	lw	t2,0(t5)
   1046c:	0ffe7f93          	andi	t6,t3,255
   10470:	0008af03          	lw	t5,0(a7)
   10474:	00261613          	slli	a2,a2,0x2
   10478:	00885893          	srli	a7,a6,0x8
   1047c:	00229293          	slli	t0,t0,0x2
   10480:	00c78633          	add	a2,a5,a2
   10484:	005782b3          	add	t0,a5,t0
   10488:	002f9f93          	slli	t6,t6,0x2
   1048c:	0ff8f893          	andi	a7,a7,255
   10490:	0002a283          	lw	t0,0(t0)
   10494:	00062603          	lw	a2,0(a2)
   10498:	01f78fb3          	add	t6,a5,t6
   1049c:	10088893          	addi	a7,a7,256
   104a0:	000faf83          	lw	t6,0(t6)
   104a4:	00289893          	slli	a7,a7,0x2
   104a8:	011788b3          	add	a7,a5,a7
   104ac:	00c2c633          	xor	a2,t0,a2
   104b0:	0008a283          	lw	t0,0(a7)
   104b4:	01075893          	srli	a7,a4,0x10
   104b8:	007fcfb3          	xor	t6,t6,t2
   104bc:	0ff8f893          	andi	a7,a7,255
   104c0:	00452383          	lw	t2,4(a0)
   104c4:	20088893          	addi	a7,a7,512
   104c8:	00289893          	slli	a7,a7,0x2
   104cc:	011788b3          	add	a7,a5,a7
   104d0:	007fcfb3          	xor	t6,t6,t2
   104d4:	01efcfb3          	xor	t6,t6,t5
   104d8:	01875313          	srli	t1,a4,0x18
   104dc:	00875f13          	srli	t5,a4,0x8
   104e0:	0008a703          	lw	a4,0(a7)
   104e4:	30030313          	addi	t1,t1,768 # 106c0 <encrypt.part.0+0x2f4>
   104e8:	010e5893          	srli	a7,t3,0x10
   104ec:	00efc733          	xor	a4,t6,a4
   104f0:	0ff87f93          	andi	t6,a6,255
   104f4:	00231313          	slli	t1,t1,0x2
   104f8:	002f9f93          	slli	t6,t6,0x2
   104fc:	018e5e93          	srli	t4,t3,0x18
   10500:	00678333          	add	t1,a5,t1
   10504:	01f78fb3          	add	t6,a5,t6
   10508:	008e5e13          	srli	t3,t3,0x8
   1050c:	01085813          	srli	a6,a6,0x10
   10510:	0ff8f893          	andi	a7,a7,255
   10514:	00c52383          	lw	t2,12(a0)
   10518:	00032303          	lw	t1,0(t1)
   1051c:	000faf83          	lw	t6,0(t6)
   10520:	0ffe7e13          	andi	t3,t3,255
   10524:	0ff87813          	andi	a6,a6,255
   10528:	20088893          	addi	a7,a7,512
   1052c:	100e0e13          	addi	t3,t3,256
   10530:	20080813          	addi	a6,a6,512
   10534:	00289893          	slli	a7,a7,0x2
   10538:	011788b3          	add	a7,a5,a7
   1053c:	002e1e13          	slli	t3,t3,0x2
   10540:	00281813          	slli	a6,a6,0x2
   10544:	01c78e33          	add	t3,a5,t3
   10548:	01078833          	add	a6,a5,a6
   1054c:	00764633          	xor	a2,a2,t2
   10550:	0008a383          	lw	t2,0(a7)
   10554:	006fc8b3          	xor	a7,t6,t1
   10558:	00052303          	lw	t1,0(a0)
   1055c:	00564633          	xor	a2,a2,t0
   10560:	000e2283          	lw	t0,0(t3)
   10564:	00082e03          	lw	t3,0(a6)
   10568:	0106d813          	srli	a6,a3,0x10
   1056c:	0ff87813          	andi	a6,a6,255
   10570:	0068c8b3          	xor	a7,a7,t1
   10574:	300e8e93          	addi	t4,t4,768
   10578:	0ff6f313          	andi	t1,a3,255
   1057c:	20080813          	addi	a6,a6,512
   10580:	00231693          	slli	a3,t1,0x2
   10584:	002e9e93          	slli	t4,t4,0x2
   10588:	0fff7f13          	andi	t5,t5,255
   1058c:	00281813          	slli	a6,a6,0x2
   10590:	00d786b3          	add	a3,a5,a3
   10594:	01078833          	add	a6,a5,a6
   10598:	01d78eb3          	add	t4,a5,t4
   1059c:	100f0f13          	addi	t5,t5,256
   105a0:	000eae83          	lw	t4,0(t4)
   105a4:	0006a303          	lw	t1,0(a3)
   105a8:	002f1f13          	slli	t5,t5,0x2
   105ac:	00082683          	lw	a3,0(a6)
   105b0:	00852f83          	lw	t6,8(a0)
   105b4:	01e78f33          	add	t5,a5,t5
   105b8:	00764633          	xor	a2,a2,t2
   105bc:	000f2f03          	lw	t5,0(t5)
   105c0:	0058c8b3          	xor	a7,a7,t0
   105c4:	00d8c6b3          	xor	a3,a7,a3
   105c8:	01d34333          	xor	t1,t1,t4
   105cc:	01865893          	srli	a7,a2,0x18
   105d0:	01f34333          	xor	t1,t1,t6
   105d4:	30088893          	addi	a7,a7,768
   105d8:	01e34333          	xor	t1,t1,t5
   105dc:	00289893          	slli	a7,a7,0x2
   105e0:	01c34333          	xor	t1,t1,t3
   105e4:	011788b3          	add	a7,a5,a7
   105e8:	01065e13          	srli	t3,a2,0x10
   105ec:	0008a883          	lw	a7,0(a7)
   105f0:	00875f13          	srli	t5,a4,0x8
   105f4:	0ff6f293          	andi	t0,a3,255
   105f8:	0ffe7e13          	andi	t3,t3,255
   105fc:	0fff7f13          	andi	t5,t5,255
   10600:	00229293          	slli	t0,t0,0x2
   10604:	200e0e13          	addi	t3,t3,512
   10608:	005782b3          	add	t0,a5,t0
   1060c:	100f0f13          	addi	t5,t5,256
   10610:	002e1e13          	slli	t3,t3,0x2
   10614:	00088413          	addi	s0,a7,0
   10618:	01c78e33          	add	t3,a5,t3
   1061c:	0002a883          	lw	a7,0(t0)
   10620:	01035e93          	srli	t4,t1,0x10
   10624:	00835813          	srli	a6,t1,0x8
   10628:	002f1f13          	slli	t5,t5,0x2
   1062c:	000e2283          	lw	t0,0(t3)
   10630:	0186df93          	srli	t6,a3,0x18
   10634:	01052e03          	lw	t3,16(a0)
   10638:	01e78f33          	add	t5,a5,t5
   1063c:	0ffefe93          	andi	t4,t4,255
   10640:	0ff87813          	andi	a6,a6,255
   10644:	000f2f03          	lw	t5,0(t5)
   10648:	300f8f93          	addi	t6,t6,768
   1064c:	200e8e93          	addi	t4,t4,512
   10650:	10080813          	addi	a6,a6,256
   10654:	0088c8b3          	xor	a7,a7,s0
   10658:	002f9f93          	slli	t6,t6,0x2
   1065c:	002e9e93          	slli	t4,t4,0x2
   10660:	00281813          	slli	a6,a6,0x2
   10664:	01f78fb3          	add	t6,a5,t6
   10668:	01078833          	add	a6,a5,a6
   1066c:	01d78eb3          	add	t4,a5,t4
   10670:	01c8c8b3          	xor	a7,a7,t3
   10674:	01875e13          	srli	t3,a4,0x18
   10678:	000fa383          	lw	t2,0(t6)
   1067c:	000eae83          	lw	t4,0(t4)
   10680:	00082f83          	lw	t6,0(a6)
   10684:	01e8c8b3          	xor	a7,a7,t5
   10688:	0ff77813          	andi	a6,a4,255
   1068c:	01835f13          	srli	t5,t1,0x18
   10690:	300e0e13          	addi	t3,t3,768
   10694:	0ff37313          	andi	t1,t1,255
   10698:	00281813          	slli	a6,a6,0x2
   1069c:	002e1e13          	slli	t3,t3,0x2
   106a0:	00231313          	slli	t1,t1,0x2
   106a4:	00678333          	add	t1,a5,t1
   106a8:	01078833          	add	a6,a5,a6
   106ac:	01c78e33          	add	t3,a5,t3
   106b0:	01d8c8b3          	xor	a7,a7,t4
   106b4:	000e2e03          	lw	t3,0(t3)
   106b8:	00032e83          	lw	t4,0(t1)
   106bc:	00082803          	lw	a6,0(a6)
   106c0:	01075713          	srli	a4,a4,0x10
   106c4:	01ceceb3          	xor	t4,t4,t3
   106c8:	00784833          	xor	a6,a6,t2
   106cc:	00865e13          	srli	t3,a2,0x8
   106d0:	01452383          	lw	t2,20(a0)
   106d4:	300f0f13          	addi	t5,t5,768
   106d8:	0ff77713          	andi	a4,a4,255
   106dc:	0ff67613          	andi	a2,a2,255
   106e0:	0086d313          	srli	t1,a3,0x8
   106e4:	002f1f13          	slli	t5,t5,0x2
   106e8:	20070713          	addi	a4,a4,512
   106ec:	0ffe7e13          	andi	t3,t3,255
   106f0:	00261613          	slli	a2,a2,0x2
   106f4:	01e78f33          	add	t5,a5,t5
   106f8:	00c78633          	add	a2,a5,a2
   106fc:	00271713          	slli	a4,a4,0x2
   10700:	0106d693          	srli	a3,a3,0x10
   10704:	0ff37313          	andi	t1,t1,255
   10708:	100e0e13          	addi	t3,t3,256
   1070c:	00e78733          	add	a4,a5,a4
   10710:	00784833          	xor	a6,a6,t2
   10714:	10030313          	addi	t1,t1,256
   10718:	000f2383          	lw	t2,0(t5)
   1071c:	002e1e13          	slli	t3,t3,0x2
   10720:	00062f03          	lw	t5,0(a2)
   10724:	0ff6f693          	andi	a3,a3,255
   10728:	00231613          	slli	a2,t1,0x2
   1072c:	20068693          	addi	a3,a3,512
   10730:	01c78333          	add	t1,a5,t3
   10734:	00072e03          	lw	t3,0(a4)
   10738:	01852703          	lw	a4,24(a0)
   1073c:	00c78633          	add	a2,a5,a2
   10740:	01f84833          	xor	a6,a6,t6
   10744:	00269693          	slli	a3,a3,0x2
   10748:	00584833          	xor	a6,a6,t0
   1074c:	00062f83          	lw	t6,0(a2)
   10750:	00032283          	lw	t0,0(t1)
   10754:	00d786b3          	add	a3,a5,a3
   10758:	007f4333          	xor	t1,t5,t2
   1075c:	0188d613          	srli	a2,a7,0x18
   10760:	01c52f03          	lw	t5,28(a0)
   10764:	00eec733          	xor	a4,t4,a4
   10768:	30060613          	addi	a2,a2,768
   1076c:	0006ae83          	lw	t4,0(a3)
   10770:	00261613          	slli	a2,a2,0x2
   10774:	01e346b3          	xor	a3,t1,t5
   10778:	00574733          	xor	a4,a4,t0
   1077c:	00c78633          	add	a2,a5,a2
   10780:	01d74733          	xor	a4,a4,t4
   10784:	00062603          	lw	a2,0(a2)
   10788:	01f6c6b3          	xor	a3,a3,t6
   1078c:	0ff87293          	andi	t0,a6,255
   10790:	01885f93          	srli	t6,a6,0x18
   10794:	01c6c6b3          	xor	a3,a3,t3
   10798:	300f8f93          	addi	t6,t6,768
   1079c:	00875e13          	srli	t3,a4,0x8
   107a0:	00229293          	slli	t0,t0,0x2
   107a4:	005782b3          	add	t0,a5,t0
   107a8:	01875f13          	srli	t5,a4,0x18
   107ac:	0086d313          	srli	t1,a3,0x8
   107b0:	0ffe7e13          	andi	t3,t3,255
   107b4:	002f9f93          	slli	t6,t6,0x2
   107b8:	01f78fb3          	add	t6,a5,t6
   107bc:	00060413          	addi	s0,a2,0
   107c0:	300f0f13          	addi	t5,t5,768
   107c4:	0002a603          	lw	a2,0(t0)
   107c8:	0ff37313          	andi	t1,t1,255
   107cc:	100e0e13          	addi	t3,t3,256
   107d0:	000fa383          	lw	t2,0(t6)
   107d4:	002f1f13          	slli	t5,t5,0x2
   107d8:	02452f83          	lw	t6,36(a0)
   107dc:	10030313          	addi	t1,t1,256
   107e0:	002e1e13          	slli	t3,t3,0x2
   107e4:	01e78f33          	add	t5,a5,t5
   107e8:	01c78e33          	add	t3,a5,t3
   107ec:	00231313          	slli	t1,t1,0x2
   107f0:	000f2283          	lw	t0,0(t5)
   107f4:	00678333          	add	t1,a5,t1
   107f8:	000e2f03          	lw	t5,0(t3)
   107fc:	00864633          	xor	a2,a2,s0
   10800:	00032e03          	lw	t3,0(t1)
   10804:	01f64633          	xor	a2,a2,t6
   10808:	0ff77313          	andi	t1,a4,255
   1080c:	0106df93          	srli	t6,a3,0x10
   10810:	00231313          	slli	t1,t1,0x2
   10814:	0fffff93          	andi	t6,t6,255
   10818:	0186de93          	srli	t4,a3,0x18
   1081c:	01e64633          	xor	a2,a2,t5
   10820:	00678333          	add	t1,a5,t1
   10824:	0088df13          	srli	t5,a7,0x8
   10828:	0ff6f693          	andi	a3,a3,255
   1082c:	200f8f93          	addi	t6,t6,512
   10830:	00032303          	lw	t1,0(t1)
   10834:	00269693          	slli	a3,a3,0x2
   10838:	0fff7f13          	andi	t5,t5,255
   1083c:	01075713          	srli	a4,a4,0x10
   10840:	002f9f93          	slli	t6,t6,0x2
   10844:	00d786b3          	add	a3,a5,a3
   10848:	01f78fb3          	add	t6,a5,t6
   1084c:	100f0f13          	addi	t5,t5,256
   10850:	0ff77713          	andi	a4,a4,255
   10854:	000faf83          	lw	t6,0(t6)
   10858:	0006a683          	lw	a3,0(a3)
   1085c:	002f1f13          	slli	t5,t5,0x2
   10860:	20070713          	addi	a4,a4,512
   10864:	00734333          	xor	t1,t1,t2
   10868:	01e78f33          	add	t5,a5,t5
   1086c:	02c52383          	lw	t2,44(a0)
   10870:	00271713          	slli	a4,a4,0x2
   10874:	000f2f03          	lw	t5,0(t5)
   10878:	00e78733          	add	a4,a5,a4
   1087c:	01f64633          	xor	a2,a2,t6
   10880:	0056c6b3          	xor	a3,a3,t0
   10884:	00072f83          	lw	t6,0(a4)
   10888:	300e8e93          	addi	t4,t4,768
   1088c:	0ff8f713          	andi	a4,a7,255
   10890:	0076c6b3          	xor	a3,a3,t2
   10894:	002e9e93          	slli	t4,t4,0x2
   10898:	00271713          	slli	a4,a4,0x2
   1089c:	01d78eb3          	add	t4,a5,t4
   108a0:	01e6c6b3          	xor	a3,a3,t5
   108a4:	00e78733          	add	a4,a5,a4
   108a8:	01085f13          	srli	t5,a6,0x10
   108ac:	0108d893          	srli	a7,a7,0x10
   108b0:	00885813          	srli	a6,a6,0x8
   108b4:	000eae83          	lw	t4,0(t4)
   108b8:	00072703          	lw	a4,0(a4)
   108bc:	0ff8f893          	andi	a7,a7,255
   108c0:	0ff87813          	andi	a6,a6,255
   108c4:	20088893          	addi	a7,a7,512
   108c8:	10080813          	addi	a6,a6,256
   108cc:	00289893          	slli	a7,a7,0x2
   108d0:	00281813          	slli	a6,a6,0x2
   108d4:	011788b3          	add	a7,a5,a7
   108d8:	01078833          	add	a6,a5,a6
   108dc:	01d74733          	xor	a4,a4,t4
   108e0:	0fff7f13          	andi	t5,t5,255
   108e4:	02052e83          	lw	t4,32(a0)
   108e8:	0008a383          	lw	t2,0(a7)
   108ec:	200f0f13          	addi	t5,t5,512
   108f0:	00082883          	lw	a7,0(a6)
   108f4:	002f1f13          	slli	t5,t5,0x2
   108f8:	01e78f33          	add	t5,a5,t5
   108fc:	01d74733          	xor	a4,a4,t4
   10900:	000f2803          	lw	a6,0(t5)
   10904:	01174733          	xor	a4,a4,a7
   10908:	02852883          	lw	a7,40(a0)
   1090c:	0106c6b3          	xor	a3,a3,a6
   10910:	00865293          	srli	t0,a2,0x8
   10914:	011348b3          	xor	a7,t1,a7
   10918:	01f74733          	xor	a4,a4,t6
   1091c:	0186de93          	srli	t4,a3,0x18
   10920:	0ff2f813          	andi	a6,t0,255
   10924:	01c8c8b3          	xor	a7,a7,t3
   10928:	0078c8b3          	xor	a7,a7,t2
   1092c:	300e8313          	addi	t1,t4,768
   10930:	0ff77f93          	andi	t6,a4,255
   10934:	10080813          	addi	a6,a6,256
   10938:	0108de13          	srli	t3,a7,0x10
   1093c:	01865393          	srli	t2,a2,0x18
   10940:	00281813          	slli	a6,a6,0x2
   10944:	00231313          	slli	t1,t1,0x2
   10948:	002f9f93          	slli	t6,t6,0x2
   1094c:	0188d293          	srli	t0,a7,0x18
   10950:	01078833          	add	a6,a5,a6
   10954:	00678333          	add	t1,a5,t1
   10958:	01f78fb3          	add	t6,a5,t6
   1095c:	30038393          	addi	t2,t2,768
   10960:	0ffe7e13          	andi	t3,t3,255
   10964:	30028e93          	addi	t4,t0,768
   10968:	200e0e13          	addi	t3,t3,512
   1096c:	00239293          	slli	t0,t2,0x2
   10970:	00082383          	lw	t2,0(a6)
   10974:	00032803          	lw	a6,0(t1)
   10978:	000fa303          	lw	t1,0(t6)
   1097c:	002e1e13          	slli	t3,t3,0x2
   10980:	01875f13          	srli	t5,a4,0x18
   10984:	01c78e33          	add	t3,a5,t3
   10988:	0ff67f93          	andi	t6,a2,255
   1098c:	01034333          	xor	t1,t1,a6
   10990:	300f0f13          	addi	t5,t5,768
   10994:	01065813          	srli	a6,a2,0x10
   10998:	03052603          	lw	a2,48(a0)
   1099c:	000e2e03          	lw	t3,0(t3)
   109a0:	002f1f13          	slli	t5,t5,0x2
   109a4:	002e9e93          	slli	t4,t4,0x2
   109a8:	002f9f93          	slli	t6,t6,0x2
   109ac:	01e78f33          	add	t5,a5,t5
   109b0:	01d78eb3          	add	t4,a5,t4
   109b4:	01f78fb3          	add	t6,a5,t6
   109b8:	000faf83          	lw	t6,0(t6)
   109bc:	000e0413          	addi	s0,t3,0
   109c0:	00c34333          	xor	t1,t1,a2
   109c4:	000eae03          	lw	t3,0(t4)
   109c8:	000f2603          	lw	a2,0(t5)
   109cc:	0088de93          	srli	t4,a7,0x8
   109d0:	0ff8f893          	andi	a7,a7,255
   109d4:	0ffefe93          	andi	t4,t4,255
   109d8:	00289893          	slli	a7,a7,0x2
   109dc:	005782b3          	add	t0,a5,t0
   109e0:	011788b3          	add	a7,a5,a7
   109e4:	0ff87813          	andi	a6,a6,255
   109e8:	100e8e93          	addi	t4,t4,256
   109ec:	0002af03          	lw	t5,0(t0)
   109f0:	00cfc633          	xor	a2,t6,a2
   109f4:	002e9e93          	slli	t4,t4,0x2
   109f8:	0008af83          	lw	t6,0(a7)
   109fc:	20080813          	addi	a6,a6,512
   10a00:	03452283          	lw	t0,52(a0)
   10a04:	01d788b3          	add	a7,a5,t4
   10a08:	00281813          	slli	a6,a6,0x2
   10a0c:	0008a883          	lw	a7,0(a7)
   10a10:	01078833          	add	a6,a5,a6
   10a14:	00082e83          	lw	t4,0(a6)
   10a18:	01efcfb3          	xor	t6,t6,t5
   10a1c:	0ff6f813          	andi	a6,a3,255
   10a20:	0086df13          	srli	t5,a3,0x8
   10a24:	0106d693          	srli	a3,a3,0x10
   10a28:	00564633          	xor	a2,a2,t0
   10a2c:	0ff6f693          	andi	a3,a3,255
   10a30:	01164633          	xor	a2,a2,a7
   10a34:	0fff7f13          	andi	t5,t5,255
   10a38:	00875893          	srli	a7,a4,0x8
   10a3c:	20068693          	addi	a3,a3,512
   10a40:	01075713          	srli	a4,a4,0x10
   10a44:	100f0f13          	addi	t5,t5,256
   10a48:	0ff77713          	andi	a4,a4,255
   10a4c:	00269693          	slli	a3,a3,0x2
   10a50:	00d786b3          	add	a3,a5,a3
   10a54:	002f1f13          	slli	t5,t5,0x2
   10a58:	20070713          	addi	a4,a4,512
   10a5c:	0006a283          	lw	t0,0(a3)
   10a60:	01e78f33          	add	t5,a5,t5
   10a64:	03852683          	lw	a3,56(a0)
   10a68:	00271713          	slli	a4,a4,0x2
   10a6c:	000f2f03          	lw	t5,0(t5)
   10a70:	00e78733          	add	a4,a5,a4
   10a74:	00072703          	lw	a4,0(a4)
   10a78:	00281813          	slli	a6,a6,0x2
   10a7c:	0ff8f893          	andi	a7,a7,255
   10a80:	01078833          	add	a6,a5,a6
   10a84:	00dfc6b3          	xor	a3,t6,a3
   10a88:	10088893          	addi	a7,a7,256
   10a8c:	00082803          	lw	a6,0(a6)
   10a90:	01e6c6b3          	xor	a3,a3,t5
   10a94:	00289893          	slli	a7,a7,0x2
   10a98:	00e6c6b3          	xor	a3,a3,a4
   10a9c:	011788b3          	add	a7,a5,a7
   10aa0:	03c52703          	lw	a4,60(a0)
   10aa4:	0008a883          	lw	a7,0(a7)
   10aa8:	01c84833          	xor	a6,a6,t3
   10aac:	00e84833          	xor	a6,a6,a4
   10ab0:	01184833          	xor	a6,a6,a7
   10ab4:	01d84833          	xor	a6,a6,t4
   10ab8:	00885713          	srli	a4,a6,0x8
   10abc:	00734333          	xor	t1,t1,t2
   10ac0:	0ff77713          	andi	a4,a4,255
   10ac4:	00834333          	xor	t1,t1,s0
   10ac8:	10070713          	addi	a4,a4,256
   10acc:	00564633          	xor	a2,a2,t0
   10ad0:	01035f13          	srli	t5,t1,0x10
   10ad4:	00271713          	slli	a4,a4,0x2
   10ad8:	00865e13          	srli	t3,a2,0x8
   10adc:	01865f93          	srli	t6,a2,0x18
   10ae0:	00e78733          	add	a4,a5,a4
   10ae4:	0fff7f13          	andi	t5,t5,255
   10ae8:	00072703          	lw	a4,0(a4)
   10aec:	0106d893          	srli	a7,a3,0x10
   10af0:	0ff6f293          	andi	t0,a3,255
   10af4:	0ffe7e13          	andi	t3,t3,255
   10af8:	200f0f13          	addi	t5,t5,512
   10afc:	300f8f93          	addi	t6,t6,768
   10b00:	0ff8f893          	andi	a7,a7,255
   10b04:	100e0e13          	addi	t3,t3,256
   10b08:	002f1f13          	slli	t5,t5,0x2
   10b0c:	002f9f93          	slli	t6,t6,0x2
   10b10:	00229293          	slli	t0,t0,0x2
   10b14:	01e78f33          	add	t5,a5,t5
   10b18:	01f78fb3          	add	t6,a5,t6
   10b1c:	005782b3          	add	t0,a5,t0
   10b20:	20088893          	addi	a7,a7,512
   10b24:	002e1e13          	slli	t3,t3,0x2
   10b28:	000f2383          	lw	t2,0(t5)
   10b2c:	01c78e33          	add	t3,a5,t3
   10b30:	000faf03          	lw	t5,0(t6)
   10b34:	00070413          	addi	s0,a4,0
   10b38:	00289893          	slli	a7,a7,0x2
   10b3c:	0002a703          	lw	a4,0(t0)
   10b40:	011788b3          	add	a7,a5,a7
   10b44:	000e2283          	lw	t0,0(t3)
   10b48:	04852e03          	lw	t3,72(a0)
   10b4c:	0008af83          	lw	t6,0(a7)
   10b50:	0086d893          	srli	a7,a3,0x8
   10b54:	01e74733          	xor	a4,a4,t5
   10b58:	0ff8f893          	andi	a7,a7,255
   10b5c:	01c74733          	xor	a4,a4,t3
   10b60:	0186de13          	srli	t3,a3,0x18
   10b64:	10088693          	addi	a3,a7,256
   10b68:	00269693          	slli	a3,a3,0x2
   10b6c:	00d786b3          	add	a3,a5,a3
   10b70:	01885e93          	srli	t4,a6,0x18
   10b74:	0006af03          	lw	t5,0(a3)
   10b78:	0ff37893          	andi	a7,t1,255
   10b7c:	01835693          	srli	a3,t1,0x18
   10b80:	300e8e93          	addi	t4,t4,768
   10b84:	002e9e93          	slli	t4,t4,0x2
   10b88:	30068693          	addi	a3,a3,768
   10b8c:	00289893          	slli	a7,a7,0x2
   10b90:	01d78eb3          	add	t4,a5,t4
   10b94:	011788b3          	add	a7,a5,a7
   10b98:	00269693          	slli	a3,a3,0x2
   10b9c:	000eae83          	lw	t4,0(t4)
   10ba0:	00d786b3          	add	a3,a5,a3
   10ba4:	0008a883          	lw	a7,0(a7)
   10ba8:	00874733          	xor	a4,a4,s0
   10bac:	00774733          	xor	a4,a4,t2
   10bb0:	0006a383          	lw	t2,0(a3)
   10bb4:	04052683          	lw	a3,64(a0)
   10bb8:	01d8c8b3          	xor	a7,a7,t4
   10bbc:	01085e93          	srli	t4,a6,0x10
   10bc0:	00d8c8b3          	xor	a7,a7,a3
   10bc4:	0ff67693          	andi	a3,a2,255
   10bc8:	00269693          	slli	a3,a3,0x2
   10bcc:	00d786b3          	add	a3,a5,a3
   10bd0:	0ffefe93          	andi	t4,t4,255
   10bd4:	0006a683          	lw	a3,0(a3)
   10bd8:	0058c8b3          	xor	a7,a7,t0
   10bdc:	200e8e93          	addi	t4,t4,512
   10be0:	01f8c8b3          	xor	a7,a7,t6
   10be4:	300e0e13          	addi	t3,t3,768
   10be8:	04452f83          	lw	t6,68(a0)
   10bec:	0ff87813          	andi	a6,a6,255
   10bf0:	002e9e93          	slli	t4,t4,0x2
   10bf4:	01d78eb3          	add	t4,a5,t4
   10bf8:	002e1e13          	slli	t3,t3,0x2
   10bfc:	00835313          	srli	t1,t1,0x8
   10c00:	00281813          	slli	a6,a6,0x2
   10c04:	000eae83          	lw	t4,0(t4)
   10c08:	01c78e33          	add	t3,a5,t3
   10c0c:	01078833          	add	a6,a5,a6
   10c10:	0076c6b3          	xor	a3,a3,t2
   10c14:	0ff37313          	andi	t1,t1,255
   10c18:	00082803          	lw	a6,0(a6)
   10c1c:	01f6c6b3          	xor	a3,a3,t6
   10c20:	000e2e03          	lw	t3,0(t3)
   10c24:	10030313          	addi	t1,t1,256
   10c28:	01e6c6b3          	xor	a3,a3,t5
   10c2c:	00231313          	slli	t1,t1,0x2
   10c30:	01065613          	srli	a2,a2,0x10
   10c34:	01d6c6b3          	xor	a3,a3,t4
   10c38:	00678333          	add	t1,a5,t1
   10c3c:	04c52e83          	lw	t4,76(a0)
   10c40:	0ff67613          	andi	a2,a2,255
   10c44:	01c84833          	xor	a6,a6,t3
   10c48:	20060613          	addi	a2,a2,512
   10c4c:	00032e03          	lw	t3,0(t1)
   10c50:	00261613          	slli	a2,a2,0x2
   10c54:	00c78633          	add	a2,a5,a2
   10c58:	01d84833          	xor	a6,a6,t4
   10c5c:	00062303          	lw	t1,0(a2)
   10c60:	01c84633          	xor	a2,a6,t3
   10c64:	0188de13          	srli	t3,a7,0x18
   10c68:	300e0e13          	addi	t3,t3,768
   10c6c:	01875813          	srli	a6,a4,0x18
   10c70:	002e1e13          	slli	t3,t3,0x2
   10c74:	01c78e33          	add	t3,a5,t3
   10c78:	00875e93          	srli	t4,a4,0x8
   10c7c:	30080813          	addi	a6,a6,768
   10c80:	00664633          	xor	a2,a2,t1
   10c84:	0ff6f393          	andi	t2,a3,255
   10c88:	0ff77293          	andi	t0,a4,255
   10c8c:	01075313          	srli	t1,a4,0x10
   10c90:	0ffefe93          	andi	t4,t4,255
   10c94:	00281713          	slli	a4,a6,0x2
   10c98:	000e2803          	lw	a6,0(t3)
   10c9c:	00239393          	slli	t2,t2,0x2
   10ca0:	100e8e93          	addi	t4,t4,256
   10ca4:	007783b3          	add	t2,a5,t2
   10ca8:	002e9e93          	slli	t4,t4,0x2
   10cac:	00080413          	addi	s0,a6,0
   10cb0:	00e78733          	add	a4,a5,a4
   10cb4:	0003a803          	lw	a6,0(t2)
   10cb8:	01d78eb3          	add	t4,a5,t4
   10cbc:	01865f13          	srli	t5,a2,0x18
   10cc0:	00072383          	lw	t2,0(a4)
   10cc4:	300f0f13          	addi	t5,t5,768
   10cc8:	000ea703          	lw	a4,0(t4)
   10ccc:	05452e83          	lw	t4,84(a0)
   10cd0:	0186df93          	srli	t6,a3,0x18
   10cd4:	00229293          	slli	t0,t0,0x2
   10cd8:	002f1f13          	slli	t5,t5,0x2
   10cdc:	005782b3          	add	t0,a5,t0
   10ce0:	01e78f33          	add	t5,a5,t5
   10ce4:	00884833          	xor	a6,a6,s0
   10ce8:	300f8f93          	addi	t6,t6,768
   10cec:	0002ae03          	lw	t3,0(t0)
   10cf0:	01d84833          	xor	a6,a6,t4
   10cf4:	000f2283          	lw	t0,0(t5)
   10cf8:	002f9f93          	slli	t6,t6,0x2
   10cfc:	00865f13          	srli	t5,a2,0x8
   10d00:	01f78fb3          	add	t6,a5,t6
   10d04:	00e84833          	xor	a6,a6,a4
   10d08:	0fff7f13          	andi	t5,t5,255
   10d0c:	0ff8f713          	andi	a4,a7,255
   10d10:	000faf83          	lw	t6,0(t6)
   10d14:	00271713          	slli	a4,a4,0x2
   10d18:	100f0f13          	addi	t5,t5,256
   10d1c:	00e78733          	add	a4,a5,a4
   10d20:	002f1f13          	slli	t5,t5,0x2
   10d24:	01e78f33          	add	t5,a5,t5
   10d28:	00072703          	lw	a4,0(a4)
   10d2c:	01fe4e33          	xor	t3,t3,t6
   10d30:	01065e93          	srli	t4,a2,0x10
   10d34:	000f2f83          	lw	t6,0(t5)
   10d38:	05052f03          	lw	t5,80(a0)
   10d3c:	0ffefe93          	andi	t4,t4,255
   10d40:	00574733          	xor	a4,a4,t0
   10d44:	200e8e93          	addi	t4,t4,512
   10d48:	01e74733          	xor	a4,a4,t5
   10d4c:	002e9e93          	slli	t4,t4,0x2
   10d50:	0086df13          	srli	t5,a3,0x8
   10d54:	01d78eb3          	add	t4,a5,t4
   10d58:	0ff37313          	andi	t1,t1,255
   10d5c:	0fff7f13          	andi	t5,t5,255
   10d60:	000eae83          	lw	t4,0(t4)
   10d64:	20030313          	addi	t1,t1,512
   10d68:	100f0f13          	addi	t5,t5,256
   10d6c:	00231313          	slli	t1,t1,0x2
   10d70:	002f1f13          	slli	t5,t5,0x2
   10d74:	00678333          	add	t1,a5,t1
   10d78:	01e78f33          	add	t5,a5,t5
   10d7c:	01d84833          	xor	a6,a6,t4
   10d80:	00032283          	lw	t0,0(t1)
   10d84:	0088de93          	srli	t4,a7,0x8
   10d88:	0108d313          	srli	t1,a7,0x10
   10d8c:	0ff67613          	andi	a2,a2,255
   10d90:	0106d893          	srli	a7,a3,0x10
   10d94:	000f2683          	lw	a3,0(t5)
   10d98:	00261613          	slli	a2,a2,0x2
   10d9c:	0ffefe93          	andi	t4,t4,255
   10da0:	00c78633          	add	a2,a5,a2
   10da4:	100e8e93          	addi	t4,t4,256
   10da8:	0ff8f893          	andi	a7,a7,255
   10dac:	00062603          	lw	a2,0(a2)
   10db0:	00d74733          	xor	a4,a4,a3
   10db4:	0ff37313          	andi	t1,t1,255
   10db8:	002e9e93          	slli	t4,t4,0x2
   10dbc:	20088893          	addi	a7,a7,512
   10dc0:	00574733          	xor	a4,a4,t0
   10dc4:	01d78eb3          	add	t4,a5,t4
   10dc8:	05c52283          	lw	t0,92(a0)
   10dcc:	20030313          	addi	t1,t1,512
   10dd0:	00289893          	slli	a7,a7,0x2
   10dd4:	000eaf03          	lw	t5,0(t4)
   10dd8:	05852683          	lw	a3,88(a0)
   10ddc:	011788b3          	add	a7,a5,a7
   10de0:	00231313          	slli	t1,t1,0x2
   10de4:	0008a883          	lw	a7,0(a7)
   10de8:	00678333          	add	t1,a5,t1
   10dec:	00764633          	xor	a2,a2,t2
   10df0:	00032e83          	lw	t4,0(t1)
   10df4:	00564633          	xor	a2,a2,t0
   10df8:	00de46b3          	xor	a3,t3,a3
   10dfc:	01e64633          	xor	a2,a2,t5
   10e00:	01164633          	xor	a2,a2,a7
   10e04:	00885313          	srli	t1,a6,0x8
   10e08:	01f6c6b3          	xor	a3,a3,t6
   10e0c:	01d6c6b3          	xor	a3,a3,t4
   10e10:	01865f13          	srli	t5,a2,0x18
   10e14:	0ff37313          	andi	t1,t1,255
   10e18:	0186d393          	srli	t2,a3,0x18
   10e1c:	0ff77293          	andi	t0,a4,255
   10e20:	10030313          	addi	t1,t1,256
   10e24:	300f0f13          	addi	t5,t5,768
   10e28:	0106de13          	srli	t3,a3,0x10
   10e2c:	002f1f13          	slli	t5,t5,0x2
   10e30:	30038393          	addi	t2,t2,768
   10e34:	00231313          	slli	t1,t1,0x2
   10e38:	00229293          	slli	t0,t0,0x2
   10e3c:	00678333          	add	t1,a5,t1
   10e40:	005782b3          	add	t0,a5,t0
   10e44:	0086df93          	srli	t6,a3,0x8
   10e48:	01875e93          	srli	t4,a4,0x18
   10e4c:	0ff6f893          	andi	a7,a3,255
   10e50:	00239393          	slli	t2,t2,0x2
   10e54:	01e786b3          	add	a3,a5,t5
   10e58:	0ffe7e13          	andi	t3,t3,255
   10e5c:	00778f33          	add	t5,a5,t2
   10e60:	200e0e13          	addi	t3,t3,512
   10e64:	00032383          	lw	t2,0(t1)
   10e68:	300e8e93          	addi	t4,t4,768
   10e6c:	0006a303          	lw	t1,0(a3)
   10e70:	0002a683          	lw	a3,0(t0)
   10e74:	002e1e13          	slli	t3,t3,0x2
   10e78:	002e9e93          	slli	t4,t4,0x2
   10e7c:	01c78e33          	add	t3,a5,t3
   10e80:	01d78eb3          	add	t4,a5,t4
   10e84:	000e2283          	lw	t0,0(t3)
   10e88:	0066c6b3          	xor	a3,a3,t1
   10e8c:	000eae03          	lw	t3,0(t4)
   10e90:	0ff87313          	andi	t1,a6,255
   10e94:	06052e83          	lw	t4,96(a0)
   10e98:	00231313          	slli	t1,t1,0x2
   10e9c:	00678333          	add	t1,a5,t1
   10ea0:	01d6c6b3          	xor	a3,a3,t4
   10ea4:	00032e83          	lw	t4,0(t1)
   10ea8:	0076c6b3          	xor	a3,a3,t2
   10eac:	0056c333          	xor	t1,a3,t0
   10eb0:	0fffff93          	andi	t6,t6,255
   10eb4:	01885693          	srli	a3,a6,0x18
   10eb8:	01ceceb3          	xor	t4,t4,t3
   10ebc:	100f8f93          	addi	t6,t6,256
   10ec0:	0ff67e13          	andi	t3,a2,255
   10ec4:	30068693          	addi	a3,a3,768
   10ec8:	002f9f93          	slli	t6,t6,0x2
   10ecc:	00289893          	slli	a7,a7,0x2
   10ed0:	002e1e13          	slli	t3,t3,0x2
   10ed4:	00269693          	slli	a3,a3,0x2
   10ed8:	011788b3          	add	a7,a5,a7
   10edc:	01c78e33          	add	t3,a5,t3
   10ee0:	00d786b3          	add	a3,a5,a3
   10ee4:	01f78fb3          	add	t6,a5,t6
   10ee8:	01085813          	srli	a6,a6,0x10
   10eec:	000faf83          	lw	t6,0(t6)
   10ef0:	0ff87813          	andi	a6,a6,255
   10ef4:	000f2383          	lw	t2,0(t5)
   10ef8:	000e2283          	lw	t0,0(t3)
   10efc:	0006ae03          	lw	t3,0(a3)
   10f00:	0008a683          	lw	a3,0(a7)
   10f04:	20080813          	addi	a6,a6,512
   10f08:	00281813          	slli	a6,a6,0x2
   10f0c:	01078833          	add	a6,a5,a6
   10f10:	01c6c6b3          	xor	a3,a3,t3
   10f14:	00875e13          	srli	t3,a4,0x8
   10f18:	00082f03          	lw	t5,0(a6)
   10f1c:	0ffe7e13          	andi	t3,t3,255
   10f20:	06452803          	lw	a6,100(a0)
   10f24:	100e0e13          	addi	t3,t3,256
   10f28:	002e1e13          	slli	t3,t3,0x2
   10f2c:	0072c8b3          	xor	a7,t0,t2
   10f30:	01c78e33          	add	t3,a5,t3
   10f34:	06c52283          	lw	t0,108(a0)
   10f38:	010eceb3          	xor	t4,t4,a6
   10f3c:	01feceb3          	xor	t4,t4,t6
   10f40:	01065813          	srli	a6,a2,0x10
   10f44:	000e2f83          	lw	t6,0(t3)
   10f48:	00865613          	srli	a2,a2,0x8
   10f4c:	0ff87813          	andi	a6,a6,255
   10f50:	0ff67613          	andi	a2,a2,255
   10f54:	01075713          	srli	a4,a4,0x10
   10f58:	0058c8b3          	xor	a7,a7,t0
   10f5c:	20080813          	addi	a6,a6,512
   10f60:	10060613          	addi	a2,a2,256
   10f64:	0ff77713          	andi	a4,a4,255
   10f68:	01f8c8b3          	xor	a7,a7,t6
   10f6c:	00281813          	slli	a6,a6,0x2
   10f70:	00261613          	slli	a2,a2,0x2
   10f74:	20070713          	addi	a4,a4,512
   10f78:	01e8c8b3          	xor	a7,a7,t5
   10f7c:	00c78633          	add	a2,a5,a2
   10f80:	06852f03          	lw	t5,104(a0)
   10f84:	01078833          	add	a6,a5,a6
   10f88:	00271713          	slli	a4,a4,0x2
   10f8c:	00062e03          	lw	t3,0(a2)
   10f90:	00082803          	lw	a6,0(a6)
   10f94:	00e78733          	add	a4,a5,a4
   10f98:	00072703          	lw	a4,0(a4)
   10f9c:	01e6c6b3          	xor	a3,a3,t5
   10fa0:	010ec633          	xor	a2,t4,a6
   10fa4:	01c6c6b3          	xor	a3,a3,t3
   10fa8:	01835813          	srli	a6,t1,0x18
   10fac:	00e6c6b3          	xor	a3,a3,a4
   10fb0:	0ff67293          	andi	t0,a2,255
   10fb4:	0ff37f93          	andi	t6,t1,255
   10fb8:	30080813          	addi	a6,a6,768
   10fbc:	0188de93          	srli	t4,a7,0x18
   10fc0:	0086de13          	srli	t3,a3,0x8
   10fc4:	00281813          	slli	a6,a6,0x2
   10fc8:	00229293          	slli	t0,t0,0x2
   10fcc:	002f9f93          	slli	t6,t6,0x2
   10fd0:	01078833          	add	a6,a5,a6
   10fd4:	005782b3          	add	t0,a5,t0
   10fd8:	01865f13          	srli	t5,a2,0x18
   10fdc:	00865713          	srli	a4,a2,0x8
   10fe0:	01f78fb3          	add	t6,a5,t6
   10fe4:	300e8e93          	addi	t4,t4,768
   10fe8:	0ffe7e13          	andi	t3,t3,255
   10fec:	01065613          	srli	a2,a2,0x10
   10ff0:	00082383          	lw	t2,0(a6)
   10ff4:	000faf83          	lw	t6,0(t6)
   10ff8:	0002a803          	lw	a6,0(t0)
   10ffc:	300f0f13          	addi	t5,t5,768
   11000:	002e9e93          	slli	t4,t4,0x2
   11004:	0ff77713          	andi	a4,a4,255
   11008:	100e0e13          	addi	t3,t3,256
   1100c:	0ff67613          	andi	a2,a2,255
   11010:	01d78eb3          	add	t4,a5,t4
   11014:	002f1f13          	slli	t5,t5,0x2
   11018:	10070713          	addi	a4,a4,256
   1101c:	002e1e13          	slli	t3,t3,0x2
   11020:	20060613          	addi	a2,a2,512
   11024:	01e78f33          	add	t5,a5,t5
   11028:	01c78e33          	add	t3,a5,t3
   1102c:	000eae83          	lw	t4,0(t4)
   11030:	00261613          	slli	a2,a2,0x2
   11034:	00271713          	slli	a4,a4,0x2
   11038:	000f8413          	addi	s0,t6,0
   1103c:	00e78733          	add	a4,a5,a4
   11040:	000f2f83          	lw	t6,0(t5)
   11044:	00784833          	xor	a6,a6,t2
   11048:	000e2f03          	lw	t5,0(t3)
   1104c:	07452383          	lw	t2,116(a0)
   11050:	00c78e33          	add	t3,a5,a2
   11054:	07052603          	lw	a2,112(a0)
   11058:	00072283          	lw	t0,0(a4)
   1105c:	01d44eb3          	xor	t4,s0,t4
   11060:	00784833          	xor	a6,a6,t2
   11064:	00cec633          	xor	a2,t4,a2
   11068:	00564eb3          	xor	t4,a2,t0
   1106c:	01e84833          	xor	a6,a6,t5
   11070:	0106d613          	srli	a2,a3,0x10
   11074:	0108df13          	srli	t5,a7,0x10
   11078:	0ff6f713          	andi	a4,a3,255
   1107c:	0fff7f13          	andi	t5,t5,255
   11080:	0ff67613          	andi	a2,a2,255
   11084:	00271713          	slli	a4,a4,0x2
   11088:	200f0f13          	addi	t5,t5,512
   1108c:	20060613          	addi	a2,a2,512
   11090:	00e78733          	add	a4,a5,a4
   11094:	002f1f13          	slli	t5,t5,0x2
   11098:	00261613          	slli	a2,a2,0x2
   1109c:	00072703          	lw	a4,0(a4)
   110a0:	01e78f33          	add	t5,a5,t5
   110a4:	00c78633          	add	a2,a5,a2
   110a8:	000f2f03          	lw	t5,0(t5)
   110ac:	00062603          	lw	a2,0(a2)
   110b0:	0186d293          	srli	t0,a3,0x18
   110b4:	01f74733          	xor	a4,a4,t6
   110b8:	00835693          	srli	a3,t1,0x8
   110bc:	0088df93          	srli	t6,a7,0x8
   110c0:	30028293          	addi	t0,t0,768
   110c4:	0ff8f893          	andi	a7,a7,255
   110c8:	00cec633          	xor	a2,t4,a2
   110cc:	01e84833          	xor	a6,a6,t5
   110d0:	07852e83          	lw	t4,120(a0)
   110d4:	01035f13          	srli	t5,t1,0x10
   110d8:	0fffff93          	andi	t6,t6,255
   110dc:	00229293          	slli	t0,t0,0x2
   110e0:	00289893          	slli	a7,a7,0x2
   110e4:	0ff6f693          	andi	a3,a3,255
   110e8:	005782b3          	add	t0,a5,t0
   110ec:	011788b3          	add	a7,a5,a7
   110f0:	100f8f93          	addi	t6,t6,256
   110f4:	0fff7313          	andi	t1,t5,255
   110f8:	10068693          	addi	a3,a3,256
   110fc:	0002a383          	lw	t2,0(t0)
   11100:	002f9f13          	slli	t5,t6,0x2
   11104:	20030313          	addi	t1,t1,512
   11108:	0008af83          	lw	t6,0(a7)
   1110c:	00269693          	slli	a3,a3,0x2
   11110:	01e78f33          	add	t5,a5,t5
   11114:	00d786b3          	add	a3,a5,a3
   11118:	00231893          	slli	a7,t1,0x2
   1111c:	01d74733          	xor	a4,a4,t4
   11120:	07c52e83          	lw	t4,124(a0)
   11124:	000f2283          	lw	t0,0(t5)
   11128:	0006a303          	lw	t1,0(a3)
   1112c:	011788b3          	add	a7,a5,a7
   11130:	0008af03          	lw	t5,0(a7)
   11134:	007fc6b3          	xor	a3,t6,t2
   11138:	000e2883          	lw	a7,0(t3)
   1113c:	01d6c6b3          	xor	a3,a3,t4
   11140:	00574733          	xor	a4,a4,t0
   11144:	0066c6b3          	xor	a3,a3,t1
   11148:	0116c6b3          	xor	a3,a3,a7
   1114c:	01e74733          	xor	a4,a4,t5
   11150:	01885e13          	srli	t3,a6,0x18
   11154:	01875f13          	srli	t5,a4,0x18
   11158:	0ff67293          	andi	t0,a2,255
   1115c:	0ff77f93          	andi	t6,a4,255
   11160:	0086d313          	srli	t1,a3,0x8
   11164:	0186de93          	srli	t4,a3,0x18
   11168:	300e0e13          	addi	t3,t3,768
   1116c:	300f0f13          	addi	t5,t5,768
   11170:	002e1e13          	slli	t3,t3,0x2
   11174:	00229293          	slli	t0,t0,0x2
   11178:	002f9f93          	slli	t6,t6,0x2
   1117c:	0ff37313          	andi	t1,t1,255
   11180:	300e8e93          	addi	t4,t4,768
   11184:	01c78e33          	add	t3,a5,t3
   11188:	01f78fb3          	add	t6,a5,t6
   1118c:	005782b3          	add	t0,a5,t0
   11190:	002f1f13          	slli	t5,t5,0x2
   11194:	10030313          	addi	t1,t1,256
   11198:	002e9e93          	slli	t4,t4,0x2
   1119c:	0002a283          	lw	t0,0(t0)
   111a0:	01e78f33          	add	t5,a5,t5
   111a4:	000e2383          	lw	t2,0(t3)
   111a8:	01d78eb3          	add	t4,a5,t4
   111ac:	000fae03          	lw	t3,0(t6)
   111b0:	00231313          	slli	t1,t1,0x2
   111b4:	000f2f83          	lw	t6,0(t5)
   111b8:	00678333          	add	t1,a5,t1
   111bc:	000eaf03          	lw	t5,0(t4)
   111c0:	08852e83          	lw	t4,136(a0)
   111c4:	00032303          	lw	t1,0(t1)
   111c8:	007e4e33          	xor	t3,t3,t2
   111cc:	01de4e33          	xor	t3,t3,t4
   111d0:	01e2c2b3          	xor	t0,t0,t5
   111d4:	006e4e33          	xor	t3,t3,t1
   111d8:	01065f13          	srli	t5,a2,0x10
   111dc:	0ff6f313          	andi	t1,a3,255
   111e0:	00231313          	slli	t1,t1,0x2
   111e4:	0fff7f13          	andi	t5,t5,255
   111e8:	00885e93          	srli	t4,a6,0x8
   111ec:	00678333          	add	t1,a5,t1
   111f0:	200f0f13          	addi	t5,t5,512
   111f4:	00032303          	lw	t1,0(t1)
   111f8:	00875893          	srli	a7,a4,0x8
   111fc:	0106d693          	srli	a3,a3,0x10
   11200:	01075713          	srli	a4,a4,0x10
   11204:	0ffefe93          	andi	t4,t4,255
   11208:	002f1f13          	slli	t5,t5,0x2
   1120c:	01e78f33          	add	t5,a5,t5
   11210:	0ff77713          	andi	a4,a4,255
   11214:	0ff6f693          	andi	a3,a3,255
   11218:	100e8e93          	addi	t4,t4,256
   1121c:	000f2f03          	lw	t5,0(t5)
   11220:	20070713          	addi	a4,a4,512
   11224:	20068693          	addi	a3,a3,512
   11228:	002e9e93          	slli	t4,t4,0x2
   1122c:	01d78eb3          	add	t4,a5,t4
   11230:	01f34333          	xor	t1,t1,t6
   11234:	00271713          	slli	a4,a4,0x2
   11238:	08052f83          	lw	t6,128(a0)
   1123c:	00269693          	slli	a3,a3,0x2
   11240:	000eae83          	lw	t4,0(t4)
   11244:	00e78733          	add	a4,a5,a4
   11248:	00d786b3          	add	a3,a5,a3
   1124c:	01ee4e33          	xor	t3,t3,t5
   11250:	0006af03          	lw	t5,0(a3)
   11254:	00072683          	lw	a3,0(a4)
   11258:	01f2c733          	xor	a4,t0,t6
   1125c:	01d74733          	xor	a4,a4,t4
   11260:	00d74733          	xor	a4,a4,a3
   11264:	00865e93          	srli	t4,a2,0x8
   11268:	01865693          	srli	a3,a2,0x18
   1126c:	30068693          	addi	a3,a3,768
   11270:	0ffef613          	andi	a2,t4,255
   11274:	00269693          	slli	a3,a3,0x2
   11278:	10060613          	addi	a2,a2,256
   1127c:	00d786b3          	add	a3,a5,a3
   11280:	00261613          	slli	a2,a2,0x2
   11284:	08c52383          	lw	t2,140(a0)
   11288:	0006ae83          	lw	t4,0(a3)
   1128c:	00c786b3          	add	a3,a5,a2
   11290:	0006a683          	lw	a3,0(a3)
   11294:	01085613          	srli	a2,a6,0x10
   11298:	0ff87813          	andi	a6,a6,255
   1129c:	0ff8f893          	andi	a7,a7,255
   112a0:	00281813          	slli	a6,a6,0x2
   112a4:	0ff67613          	andi	a2,a2,255
   112a8:	01078833          	add	a6,a5,a6
   112ac:	00734333          	xor	t1,t1,t2
   112b0:	10088893          	addi	a7,a7,256
   112b4:	20060613          	addi	a2,a2,512
   112b8:	00d34333          	xor	t1,t1,a3
   112bc:	00261613          	slli	a2,a2,0x2
   112c0:	00082683          	lw	a3,0(a6)
   112c4:	00289893          	slli	a7,a7,0x2
   112c8:	08452803          	lw	a6,132(a0)
   112cc:	011788b3          	add	a7,a5,a7
   112d0:	00c787b3          	add	a5,a5,a2
   112d4:	0007a603          	lw	a2,0(a5)
   112d8:	0008a883          	lw	a7,0(a7)
   112dc:	01d6c7b3          	xor	a5,a3,t4
   112e0:	0107c7b3          	xor	a5,a5,a6
   112e4:	00c34333          	xor	t1,t1,a2
   112e8:	0117c7b3          	xor	a5,a5,a7
   112ec:	01e7c7b3          	xor	a5,a5,t5
   112f0:	010e5293          	srli	t0,t3,0x10
   112f4:	01035693          	srli	a3,t1,0x10
   112f8:	0ff2f293          	andi	t0,t0,255
   112fc:	0087de93          	srli	t4,a5,0x8
   11300:	01835f13          	srli	t5,t1,0x18
   11304:	0ff6f693          	andi	a3,a3,255
   11308:	20028813          	addi	a6,t0,512
   1130c:	0ffefe93          	andi	t4,t4,255
   11310:	0ff77293          	andi	t0,a4,255
   11314:	000748b7          	lui	a7,0x74
   11318:	300f0f13          	addi	t5,t5,768
   1131c:	20068693          	addi	a3,a3,512
   11320:	bb088893          	addi	a7,a7,-1104 # 73bb0 <fl_tab>
   11324:	00281813          	slli	a6,a6,0x2
   11328:	00229293          	slli	t0,t0,0x2
   1132c:	002f1f13          	slli	t5,t5,0x2
   11330:	002e9e93          	slli	t4,t4,0x2
   11334:	00269693          	slli	a3,a3,0x2
   11338:	01088833          	add	a6,a7,a6
   1133c:	005882b3          	add	t0,a7,t0
   11340:	01d88eb3          	add	t4,a7,t4
   11344:	00d886b3          	add	a3,a7,a3
   11348:	008e5613          	srli	a2,t3,0x8
   1134c:	01e88f33          	add	t5,a7,t5
   11350:	00082383          	lw	t2,0(a6)
   11354:	000f2f03          	lw	t5,0(t5)
   11358:	0002a803          	lw	a6,0(t0)
   1135c:	0ff67613          	andi	a2,a2,255
   11360:	400ea283          	lw	t0,1024(t4)
   11364:	0006ae83          	lw	t4,0(a3)
   11368:	0187d693          	srli	a3,a5,0x18
   1136c:	00261613          	slli	a2,a2,0x2
   11370:	30068693          	addi	a3,a3,768
   11374:	00c88633          	add	a2,a7,a2
   11378:	00269693          	slli	a3,a3,0x2
   1137c:	000f0413          	addi	s0,t5,0
   11380:	00d886b3          	add	a3,a7,a3
   11384:	40062f03          	lw	t5,1024(a2)
   11388:	09052603          	lw	a2,144(a0)
   1138c:	0006a683          	lw	a3,0(a3)
   11390:	00884833          	xor	a6,a6,s0
   11394:	01875f93          	srli	t6,a4,0x18
   11398:	00c84833          	xor	a6,a6,a2
   1139c:	00068413          	addi	s0,a3,0
   113a0:	00584833          	xor	a6,a6,t0
   113a4:	0ffe7693          	andi	a3,t3,255
   113a8:	018e5293          	srli	t0,t3,0x18
   113ac:	300f8f93          	addi	t6,t6,768
   113b0:	0ff7fe13          	andi	t3,a5,255
   113b4:	002e1e13          	slli	t3,t3,0x2
   113b8:	002f9f93          	slli	t6,t6,0x2
   113bc:	01f88fb3          	add	t6,a7,t6
   113c0:	0107d613          	srli	a2,a5,0x10
   113c4:	01c887b3          	add	a5,a7,t3
   113c8:	000faf83          	lw	t6,0(t6)
   113cc:	0007ae03          	lw	t3,0(a5)
   113d0:	09452783          	lw	a5,148(a0)
   113d4:	00784833          	xor	a6,a6,t2
   113d8:	01fe4e33          	xor	t3,t3,t6
   113dc:	00fe43b3          	xor	t2,t3,a5
   113e0:	00875e13          	srli	t3,a4,0x8
   113e4:	01075713          	srli	a4,a4,0x10
   113e8:	0ff77713          	andi	a4,a4,255
   113ec:	00269693          	slli	a3,a3,0x2
   113f0:	20070713          	addi	a4,a4,512
   113f4:	00d886b3          	add	a3,a7,a3
   113f8:	00271713          	slli	a4,a4,0x2
   113fc:	00e887b3          	add	a5,a7,a4
   11400:	0006a683          	lw	a3,0(a3)
   11404:	00835f93          	srli	t6,t1,0x8
   11408:	09852703          	lw	a4,152(a0)
   1140c:	30028293          	addi	t0,t0,768
   11410:	0ff37313          	andi	t1,t1,255
   11414:	00229293          	slli	t0,t0,0x2
   11418:	00231313          	slli	t1,t1,0x2
   1141c:	00688333          	add	t1,a7,t1
   11420:	005882b3          	add	t0,a7,t0
   11424:	0ff67613          	andi	a2,a2,255
   11428:	0fffff93          	andi	t6,t6,255
   1142c:	0ffe7e13          	andi	t3,t3,255
   11430:	0086c6b3          	xor	a3,a3,s0
   11434:	0002a283          	lw	t0,0(t0)
   11438:	00070413          	addi	s0,a4,0
   1143c:	20060613          	addi	a2,a2,512
   11440:	00032703          	lw	a4,0(t1)
   11444:	002f9f93          	slli	t6,t6,0x2
   11448:	002e1e13          	slli	t3,t3,0x2
   1144c:	01c88e33          	add	t3,a7,t3
   11450:	09c52303          	lw	t1,156(a0)
   11454:	00261613          	slli	a2,a2,0x2
   11458:	01f88fb3          	add	t6,a7,t6
   1145c:	400e2503          	lw	a0,1024(t3)
   11460:	00c88633          	add	a2,a7,a2
   11464:	400fa883          	lw	a7,1024(t6)
   11468:	00062603          	lw	a2,0(a2)
   1146c:	0007a783          	lw	a5,0(a5)
   11470:	00574733          	xor	a4,a4,t0
   11474:	0086c6b3          	xor	a3,a3,s0
   11478:	00674733          	xor	a4,a4,t1
   1147c:	01e3ce33          	xor	t3,t2,t5
   11480:	0116c6b3          	xor	a3,a3,a7
   11484:	00a74733          	xor	a4,a4,a0
   11488:	01de4e33          	xor	t3,t3,t4
   1148c:	00f6c6b3          	xor	a3,a3,a5
   11490:	00c74733          	xor	a4,a4,a2
   11494:	00c12403          	lw	s0,12(sp)
   11498:	0105a023          	sw	a6,0(a1)
   1149c:	01c5a223          	sw	t3,4(a1)
   114a0:	00d5a423          	sw	a3,8(a1)
   114a4:	00e5a623          	sw	a4,12(a1)
   114a8:	00100513          	addi	a0,zero,1
   114ac:	01010113          	addi	sp,sp,16
   114b0:	00008067          	jalr	zero,0(ra)
   114b4:	01885893          	srli	a7,a6,0x18
   114b8:	30088893          	addi	a7,a7,768
   114bc:	000767b7          	lui	a5,0x76
   114c0:	bb078793          	addi	a5,a5,-1104 # 75bb0 <ft_tab>
   114c4:	0086d513          	srli	a0,a3,0x8
   114c8:	00289893          	slli	a7,a7,0x2
   114cc:	0ffe7293          	andi	t0,t3,255
   114d0:	01875313          	srli	t1,a4,0x18
   114d4:	0ff57513          	andi	a0,a0,255
   114d8:	011788b3          	add	a7,a5,a7
   114dc:	0008a883          	lw	a7,0(a7)
   114e0:	0ff77f93          	andi	t6,a4,255
   114e4:	00229293          	slli	t0,t0,0x2
   114e8:	30030313          	addi	t1,t1,768
   114ec:	00251513          	slli	a0,a0,0x2
   114f0:	00a78533          	add	a0,a5,a0
   114f4:	002f9f93          	slli	t6,t6,0x2
   114f8:	005782b3          	add	t0,a5,t0
   114fc:	00231313          	slli	t1,t1,0x2
   11500:	40052383          	lw	t2,1024(a0)
   11504:	0002a283          	lw	t0,0(t0)
   11508:	01f78fb3          	add	t6,a5,t6
   1150c:	00678333          	add	t1,a5,t1
   11510:	01075513          	srli	a0,a4,0x10
   11514:	00088413          	addi	s0,a7,0
   11518:	0ff57513          	andi	a0,a0,255
   1151c:	000fa883          	lw	a7,0(t6)
   11520:	00032f83          	lw	t6,0(t1)
   11524:	00875313          	srli	t1,a4,0x8
   11528:	01c62703          	lw	a4,28(a2)
   1152c:	0186df13          	srli	t5,a3,0x18
   11530:	018e5e93          	srli	t4,t3,0x18
   11534:	20050513          	addi	a0,a0,512
   11538:	0082c2b3          	xor	t0,t0,s0
   1153c:	300f0f13          	addi	t5,t5,768
   11540:	300e8e93          	addi	t4,t4,768
   11544:	0ff37313          	andi	t1,t1,255
   11548:	00251513          	slli	a0,a0,0x2
   1154c:	00e2c733          	xor	a4,t0,a4
   11550:	002f1f13          	slli	t5,t5,0x2
   11554:	0ff6f293          	andi	t0,a3,255
   11558:	002e9e93          	slli	t4,t4,0x2
   1155c:	00231313          	slli	t1,t1,0x2
   11560:	00a78533          	add	a0,a5,a0
   11564:	00052503          	lw	a0,0(a0)
   11568:	01e78f33          	add	t5,a5,t5
   1156c:	01d78eb3          	add	t4,a5,t4
   11570:	00678333          	add	t1,a5,t1
   11574:	00229293          	slli	t0,t0,0x2
   11578:	00912423          	sw	s1,8(sp)
   1157c:	00088493          	addi	s1,a7,0
   11580:	000f2883          	lw	a7,0(t5)
   11584:	000eaf03          	lw	t5,0(t4)
   11588:	40032e83          	lw	t4,1024(t1)
   1158c:	0106d313          	srli	t1,a3,0x10
   11590:	005786b3          	add	a3,a5,t0
   11594:	0006a683          	lw	a3,0(a3)
   11598:	00774733          	xor	a4,a4,t2
   1159c:	00a74733          	xor	a4,a4,a0
   115a0:	0ff87513          	andi	a0,a6,255
   115a4:	00251513          	slli	a0,a0,0x2
   115a8:	00a78533          	add	a0,a5,a0
   115ac:	01e6c6b3          	xor	a3,a3,t5
   115b0:	00885f13          	srli	t5,a6,0x8
   115b4:	00052383          	lw	t2,0(a0)
   115b8:	0fff7f13          	andi	t5,t5,255
   115bc:	01085513          	srli	a0,a6,0x10
   115c0:	0ff37313          	andi	t1,t1,255
   115c4:	002f1813          	slli	a6,t5,0x2
   115c8:	0ff57513          	andi	a0,a0,255
   115cc:	01078833          	add	a6,a5,a6
   115d0:	20030313          	addi	t1,t1,512
   115d4:	20050513          	addi	a0,a0,512
   115d8:	40082f03          	lw	t5,1024(a6)
   115dc:	00231313          	slli	t1,t1,0x2
   115e0:	01862803          	lw	a6,24(a2)
   115e4:	00251513          	slli	a0,a0,0x2
   115e8:	00678333          	add	t1,a5,t1
   115ec:	00a78533          	add	a0,a5,a0
   115f0:	00052283          	lw	t0,0(a0)
   115f4:	01f3c533          	xor	a0,t2,t6
   115f8:	00032f83          	lw	t6,0(t1)
   115fc:	008e5313          	srli	t1,t3,0x8
   11600:	010e5e13          	srli	t3,t3,0x10
   11604:	01054533          	xor	a0,a0,a6
   11608:	0ffe7813          	andi	a6,t3,255
   1160c:	0ff37313          	andi	t1,t1,255
   11610:	20080813          	addi	a6,a6,512
   11614:	00231313          	slli	t1,t1,0x2
   11618:	00281813          	slli	a6,a6,0x2
   1161c:	00678333          	add	t1,a5,t1
   11620:	01078833          	add	a6,a5,a6
   11624:	40032e03          	lw	t3,1024(t1)
   11628:	00082303          	lw	t1,0(a6)
   1162c:	02462803          	lw	a6,36(a2)
   11630:	0114c8b3          	xor	a7,s1,a7
   11634:	01c54533          	xor	a0,a0,t3
   11638:	0108c8b3          	xor	a7,a7,a6
   1163c:	02062803          	lw	a6,32(a2)
   11640:	01e8c8b3          	xor	a7,a7,t5
   11644:	0068c8b3          	xor	a7,a7,t1
   11648:	0106c6b3          	xor	a3,a3,a6
   1164c:	01d6c6b3          	xor	a3,a3,t4
   11650:	0056c6b3          	xor	a3,a3,t0
   11654:	01f54533          	xor	a0,a0,t6
   11658:	00875393          	srli	t2,a4,0x8
   1165c:	0188df13          	srli	t5,a7,0x18
   11660:	0ff3f393          	andi	t2,t2,255
   11664:	0ff57f93          	andi	t6,a0,255
   11668:	0086d313          	srli	t1,a3,0x8
   1166c:	300f0f13          	addi	t5,t5,768
   11670:	0108d813          	srli	a6,a7,0x10
   11674:	00239293          	slli	t0,t2,0x2
   11678:	0ff37313          	andi	t1,t1,255
   1167c:	002f9f93          	slli	t6,t6,0x2
   11680:	002f1f13          	slli	t5,t5,0x2
   11684:	01855e93          	srli	t4,a0,0x18
   11688:	01e78f33          	add	t5,a5,t5
   1168c:	0ff87813          	andi	a6,a6,255
   11690:	00231313          	slli	t1,t1,0x2
   11694:	005782b3          	add	t0,a5,t0
   11698:	01f78fb3          	add	t6,a5,t6
   1169c:	000f2383          	lw	t2,0(t5)
   116a0:	4002a283          	lw	t0,1024(t0)
   116a4:	000faf83          	lw	t6,0(t6)
   116a8:	0106de13          	srli	t3,a3,0x10
   116ac:	00678333          	add	t1,a5,t1
   116b0:	300e8e93          	addi	t4,t4,768
   116b4:	20080813          	addi	a6,a6,512
   116b8:	40032f03          	lw	t5,1024(t1)
   116bc:	0ffe7e13          	andi	t3,t3,255
   116c0:	01875313          	srli	t1,a4,0x18
   116c4:	002e9e93          	slli	t4,t4,0x2
   116c8:	00281813          	slli	a6,a6,0x2
   116cc:	01d78eb3          	add	t4,a5,t4
   116d0:	01078833          	add	a6,a5,a6
   116d4:	200e0e13          	addi	t3,t3,512
   116d8:	30030313          	addi	t1,t1,768
   116dc:	00028413          	addi	s0,t0,0
   116e0:	002e1e13          	slli	t3,t3,0x2
   116e4:	000ea283          	lw	t0,0(t4)
   116e8:	00231313          	slli	t1,t1,0x2
   116ec:	00082e83          	lw	t4,0(a6)
   116f0:	007fc833          	xor	a6,t6,t2
   116f4:	02862f83          	lw	t6,40(a2)
   116f8:	00678333          	add	t1,a5,t1
   116fc:	01c78e33          	add	t3,a5,t3
   11700:	00032383          	lw	t2,0(t1)
   11704:	000e2e03          	lw	t3,0(t3)
   11708:	0ff77313          	andi	t1,a4,255
   1170c:	01f84833          	xor	a6,a6,t6
   11710:	00231313          	slli	t1,t1,0x2
   11714:	0186df93          	srli	t6,a3,0x18
   11718:	00678333          	add	t1,a5,t1
   1171c:	00884833          	xor	a6,a6,s0
   11720:	0ff6f693          	andi	a3,a3,255
   11724:	00269693          	slli	a3,a3,0x2
   11728:	01c84833          	xor	a6,a6,t3
   1172c:	00032e03          	lw	t3,0(t1)
   11730:	00d786b3          	add	a3,a5,a3
   11734:	0006a683          	lw	a3,0(a3)
   11738:	02c62303          	lw	t1,44(a2)
   1173c:	005e4e33          	xor	t3,t3,t0
   11740:	300f8f93          	addi	t6,t6,768
   11744:	0088d293          	srli	t0,a7,0x8
   11748:	0ff8f893          	andi	a7,a7,255
   1174c:	002f9f93          	slli	t6,t6,0x2
   11750:	01075713          	srli	a4,a4,0x10
   11754:	00289893          	slli	a7,a7,0x2
   11758:	01f78fb3          	add	t6,a5,t6
   1175c:	006e4e33          	xor	t3,t3,t1
   11760:	0ff77713          	andi	a4,a4,255
   11764:	00855313          	srli	t1,a0,0x8
   11768:	011788b3          	add	a7,a5,a7
   1176c:	0008a883          	lw	a7,0(a7)
   11770:	0076c6b3          	xor	a3,a3,t2
   11774:	20070713          	addi	a4,a4,512
   11778:	000fa383          	lw	t2,0(t6)
   1177c:	0ff2f293          	andi	t0,t0,255
   11780:	01055513          	srli	a0,a0,0x10
   11784:	0ff37313          	andi	t1,t1,255
   11788:	00271713          	slli	a4,a4,0x2
   1178c:	00229293          	slli	t0,t0,0x2
   11790:	0ff57513          	andi	a0,a0,255
   11794:	00231313          	slli	t1,t1,0x2
   11798:	00e78733          	add	a4,a5,a4
   1179c:	005782b3          	add	t0,a5,t0
   117a0:	00678333          	add	t1,a5,t1
   117a4:	20050513          	addi	a0,a0,512
   117a8:	4002af83          	lw	t6,1024(t0)
   117ac:	01ee4e33          	xor	t3,t3,t5
   117b0:	03062283          	lw	t0,48(a2)
   117b4:	40032f03          	lw	t5,1024(t1)
   117b8:	00251513          	slli	a0,a0,0x2
   117bc:	00072303          	lw	t1,0(a4)
   117c0:	0078c733          	xor	a4,a7,t2
   117c4:	03462883          	lw	a7,52(a2)
   117c8:	00a78533          	add	a0,a5,a0
   117cc:	00052503          	lw	a0,0(a0)
   117d0:	0056c6b3          	xor	a3,a3,t0
   117d4:	01174733          	xor	a4,a4,a7
   117d8:	01f6c6b3          	xor	a3,a3,t6
   117dc:	01e74733          	xor	a4,a4,t5
   117e0:	00a6c6b3          	xor	a3,a3,a0
   117e4:	01de4e33          	xor	t3,t3,t4
   117e8:	00674733          	xor	a4,a4,t1
   117ec:	03860513          	addi	a0,a2,56
   117f0:	01885893          	srli	a7,a6,0x18
   117f4:	30088893          	addi	a7,a7,768
   117f8:	00885613          	srli	a2,a6,0x8
   117fc:	00289893          	slli	a7,a7,0x2
   11800:	0ff67613          	andi	a2,a2,255
   11804:	011788b3          	add	a7,a5,a7
   11808:	0008a883          	lw	a7,0(a7)
   1180c:	0186d313          	srli	t1,a3,0x18
   11810:	0ffe7293          	andi	t0,t3,255
   11814:	0086de93          	srli	t4,a3,0x8
   11818:	10060613          	addi	a2,a2,256
   1181c:	0ff77f93          	andi	t6,a4,255
   11820:	30030313          	addi	t1,t1,768
   11824:	00229293          	slli	t0,t0,0x2
   11828:	0ffefe93          	andi	t4,t4,255
   1182c:	00261613          	slli	a2,a2,0x2
   11830:	005782b3          	add	t0,a5,t0
   11834:	00c78633          	add	a2,a5,a2
   11838:	00231313          	slli	t1,t1,0x2
   1183c:	002f9f93          	slli	t6,t6,0x2
   11840:	100e8e93          	addi	t4,t4,256
   11844:	00062383          	lw	t2,0(a2)
   11848:	00088413          	addi	s0,a7,0
   1184c:	00678333          	add	t1,a5,t1
   11850:	0002a883          	lw	a7,0(t0)
   11854:	01f78fb3          	add	t6,a5,t6
   11858:	01875613          	srli	a2,a4,0x18
   1185c:	002e9e93          	slli	t4,t4,0x2
   11860:	00032283          	lw	t0,0(t1)
   11864:	01d78eb3          	add	t4,a5,t4
   11868:	000fa303          	lw	t1,0(t6)
   1186c:	30060613          	addi	a2,a2,768
   11870:	00452f83          	lw	t6,4(a0)
   11874:	000eae83          	lw	t4,0(t4)
   11878:	00261613          	slli	a2,a2,0x2
   1187c:	0088c8b3          	xor	a7,a7,s0
   11880:	00c78633          	add	a2,a5,a2
   11884:	00534333          	xor	t1,t1,t0
   11888:	01f8c8b3          	xor	a7,a7,t6
   1188c:	00062283          	lw	t0,0(a2)
   11890:	01075613          	srli	a2,a4,0x10
   11894:	00875713          	srli	a4,a4,0x8
   11898:	01d8c8b3          	xor	a7,a7,t4
   1189c:	0ff77e93          	andi	t4,a4,255
   118a0:	0ff67713          	andi	a4,a2,255
   118a4:	20070713          	addi	a4,a4,512
   118a8:	100e8613          	addi	a2,t4,256
   118ac:	00271713          	slli	a4,a4,0x2
   118b0:	00c52e83          	lw	t4,12(a0)
   118b4:	00e78733          	add	a4,a5,a4
   118b8:	00072703          	lw	a4,0(a4)
   118bc:	01d34333          	xor	t1,t1,t4
   118c0:	010e5e93          	srli	t4,t3,0x10
   118c4:	0ffefe93          	andi	t4,t4,255
   118c8:	00e8c8b3          	xor	a7,a7,a4
   118cc:	00261613          	slli	a2,a2,0x2
   118d0:	0ff87713          	andi	a4,a6,255
   118d4:	200e8e93          	addi	t4,t4,512
   118d8:	00c78633          	add	a2,a5,a2
   118dc:	01085813          	srli	a6,a6,0x10
   118e0:	00271713          	slli	a4,a4,0x2
   118e4:	002e9e93          	slli	t4,t4,0x2
   118e8:	00062f83          	lw	t6,0(a2)
   118ec:	018e5f13          	srli	t5,t3,0x18
   118f0:	0ff87613          	andi	a2,a6,255
   118f4:	008e5e13          	srli	t3,t3,0x8
   118f8:	00e78733          	add	a4,a5,a4
   118fc:	01d78eb3          	add	t4,a5,t4
   11900:	0ffe7813          	andi	a6,t3,255
   11904:	20060e13          	addi	t3,a2,512
   11908:	00072603          	lw	a2,0(a4)
   1190c:	000ea703          	lw	a4,0(t4)
   11910:	00734333          	xor	t1,t1,t2
   11914:	00564633          	xor	a2,a2,t0
   11918:	00e34333          	xor	t1,t1,a4
   1191c:	00052703          	lw	a4,0(a0)
   11920:	300f0f13          	addi	t5,t5,768
   11924:	002f1f13          	slli	t5,t5,0x2
   11928:	00e64633          	xor	a2,a2,a4
   1192c:	0ff6f713          	andi	a4,a3,255
   11930:	00271713          	slli	a4,a4,0x2
   11934:	01e78f33          	add	t5,a5,t5
   11938:	00e78733          	add	a4,a5,a4
   1193c:	000f2f03          	lw	t5,0(t5)
   11940:	00072703          	lw	a4,0(a4)
   11944:	00852e83          	lw	t4,8(a0)
   11948:	002e1e13          	slli	t3,t3,0x2
   1194c:	01c78e33          	add	t3,a5,t3
   11950:	0106d693          	srli	a3,a3,0x10
   11954:	000e2e03          	lw	t3,0(t3)
   11958:	01e74733          	xor	a4,a4,t5
   1195c:	10080813          	addi	a6,a6,256
   11960:	0ff6f693          	andi	a3,a3,255
   11964:	01d74733          	xor	a4,a4,t4
   11968:	00281813          	slli	a6,a6,0x2
   1196c:	20068693          	addi	a3,a3,512
   11970:	01f74733          	xor	a4,a4,t6
   11974:	01078833          	add	a6,a5,a6
   11978:	00269693          	slli	a3,a3,0x2
   1197c:	01c74733          	xor	a4,a4,t3
   11980:	00082803          	lw	a6,0(a6)
   11984:	00d786b3          	add	a3,a5,a3
   11988:	0006a683          	lw	a3,0(a3)
   1198c:	01075e93          	srli	t4,a4,0x10
   11990:	0ffefe93          	andi	t4,t4,255
   11994:	01064633          	xor	a2,a2,a6
   11998:	200e8e93          	addi	t4,t4,512
   1199c:	00d64633          	xor	a2,a2,a3
   119a0:	002e9e93          	slli	t4,t4,0x2
   119a4:	01035693          	srli	a3,t1,0x10
   119a8:	0088d293          	srli	t0,a7,0x8
   119ac:	0ff6f693          	andi	a3,a3,255
   119b0:	01d78eb3          	add	t4,a5,t4
   119b4:	000eae83          	lw	t4,0(t4)
   119b8:	0ff2f293          	andi	t0,t0,255
   119bc:	01835813          	srli	a6,t1,0x18
   119c0:	01865f93          	srli	t6,a2,0x18
   119c4:	20068693          	addi	a3,a3,512
   119c8:	10028f13          	addi	t5,t0,256
   119cc:	30080813          	addi	a6,a6,768
   119d0:	0ff67293          	andi	t0,a2,255
   119d4:	300f8f93          	addi	t6,t6,768
   119d8:	00269693          	slli	a3,a3,0x2
   119dc:	00875e13          	srli	t3,a4,0x8
   119e0:	00d786b3          	add	a3,a5,a3
   119e4:	002f1f13          	slli	t5,t5,0x2
   119e8:	00281813          	slli	a6,a6,0x2
   119ec:	00229293          	slli	t0,t0,0x2
   119f0:	002f9f93          	slli	t6,t6,0x2
   119f4:	000e8493          	addi	s1,t4,0
   119f8:	01078833          	add	a6,a5,a6
   119fc:	0006ae83          	lw	t4,0(a3)
   11a00:	005782b3          	add	t0,a5,t0
   11a04:	01f78fb3          	add	t6,a5,t6
   11a08:	0188d693          	srli	a3,a7,0x18
   11a0c:	0ffe7e13          	andi	t3,t3,255
   11a10:	01e78f33          	add	t5,a5,t5
   11a14:	00082383          	lw	t2,0(a6)
   11a18:	000f2f03          	lw	t5,0(t5)
   11a1c:	0002a803          	lw	a6,0(t0)
   11a20:	100e0e13          	addi	t3,t3,256
   11a24:	000fa283          	lw	t0,0(t6)
   11a28:	30068693          	addi	a3,a3,768
   11a2c:	01875f93          	srli	t6,a4,0x18
   11a30:	0ff77713          	andi	a4,a4,255
   11a34:	002e1e13          	slli	t3,t3,0x2
   11a38:	00269693          	slli	a3,a3,0x2
   11a3c:	00271713          	slli	a4,a4,0x2
   11a40:	01c78e33          	add	t3,a5,t3
   11a44:	00d786b3          	add	a3,a5,a3
   11a48:	00e78733          	add	a4,a5,a4
   11a4c:	000f0413          	addi	s0,t5,0
   11a50:	00784833          	xor	a6,a6,t2
   11a54:	000e2f03          	lw	t5,0(t3)
   11a58:	0006a383          	lw	t2,0(a3)
   11a5c:	01052e03          	lw	t3,16(a0)
   11a60:	00072683          	lw	a3,0(a4)
   11a64:	0ff8f713          	andi	a4,a7,255
   11a68:	00271713          	slli	a4,a4,0x2
   11a6c:	00e78733          	add	a4,a5,a4
   11a70:	01c84833          	xor	a6,a6,t3
   11a74:	00072e03          	lw	t3,0(a4)
   11a78:	0ff37713          	andi	a4,t1,255
   11a7c:	300f8f93          	addi	t6,t6,768
   11a80:	005e4e33          	xor	t3,t3,t0
   11a84:	00835293          	srli	t0,t1,0x8
   11a88:	01452303          	lw	t1,20(a0)
   11a8c:	002f9f93          	slli	t6,t6,0x2
   11a90:	00271713          	slli	a4,a4,0x2
   11a94:	006e4e33          	xor	t3,t3,t1
   11a98:	01f78fb3          	add	t6,a5,t6
   11a9c:	00865313          	srli	t1,a2,0x8
   11aa0:	00e78733          	add	a4,a5,a4
   11aa4:	0076c6b3          	xor	a3,a3,t2
   11aa8:	0108d893          	srli	a7,a7,0x10
   11aac:	01852383          	lw	t2,24(a0)
   11ab0:	0ff2f293          	andi	t0,t0,255
   11ab4:	000faf83          	lw	t6,0(t6)
   11ab8:	00072703          	lw	a4,0(a4)
   11abc:	01065613          	srli	a2,a2,0x10
   11ac0:	0ff37313          	andi	t1,t1,255
   11ac4:	0ff8f893          	andi	a7,a7,255
   11ac8:	10028293          	addi	t0,t0,256
   11acc:	0ff67613          	andi	a2,a2,255
   11ad0:	10030313          	addi	t1,t1,256
   11ad4:	20088893          	addi	a7,a7,512
   11ad8:	00229293          	slli	t0,t0,0x2
   11adc:	20060613          	addi	a2,a2,512
   11ae0:	00231313          	slli	t1,t1,0x2
   11ae4:	01f74733          	xor	a4,a4,t6
   11ae8:	00289893          	slli	a7,a7,0x2
   11aec:	01c52f83          	lw	t6,28(a0)
   11af0:	005782b3          	add	t0,a5,t0
   11af4:	00261613          	slli	a2,a2,0x2
   11af8:	00678333          	add	t1,a5,t1
   11afc:	01ee4e33          	xor	t3,t3,t5
   11b00:	00032303          	lw	t1,0(t1)
   11b04:	0002af03          	lw	t5,0(t0)
   11b08:	011788b3          	add	a7,a5,a7
   11b0c:	00c78633          	add	a2,a5,a2
   11b10:	0008a883          	lw	a7,0(a7)
   11b14:	00062603          	lw	a2,0(a2)
   11b18:	0076c6b3          	xor	a3,a3,t2
   11b1c:	01f74733          	xor	a4,a4,t6
   11b20:	00884833          	xor	a6,a6,s0
   11b24:	01e6c6b3          	xor	a3,a3,t5
   11b28:	00674733          	xor	a4,a4,t1
   11b2c:	00984833          	xor	a6,a6,s1
   11b30:	01de4e33          	xor	t3,t3,t4
   11b34:	00812483          	lw	s1,8(sp)
   11b38:	00c6c6b3          	xor	a3,a3,a2
   11b3c:	01174733          	xor	a4,a4,a7
   11b40:	02050513          	addi	a0,a0,32
   11b44:	8f5fe06f          	jal	zero,10438 <encrypt.part.0+0x6c>
   11b48:	000767b7          	lui	a5,0x76
   11b4c:	00912423          	sw	s1,8(sp)
   11b50:	bb078793          	addi	a5,a5,-1104 # 75bb0 <ft_tab>
   11b54:	c9dff06f          	jal	zero,117f0 <encrypt.part.0+0x1424>

00011b58 <decrypt.part.0>:
   11b58:	00052803          	lw	a6,0(a0)
   11b5c:	10862703          	lw	a4,264(a2)
   11b60:	00452e03          	lw	t3,4(a0)
   11b64:	10c62783          	lw	a5,268(a2)
   11b68:	00852683          	lw	a3,8(a0)
   11b6c:	11062303          	lw	t1,272(a2)
   11b70:	00e84833          	xor	a6,a6,a4
   11b74:	00fe4e33          	xor	t3,t3,a5
   11b78:	00c52703          	lw	a4,12(a0)
   11b7c:	00462783          	lw	a5,4(a2)
   11b80:	11462503          	lw	a0,276(a2)
   11b84:	ff010113          	addi	sp,sp,-16
   11b88:	00812623          	sw	s0,12(sp)
   11b8c:	00c00893          	addi	a7,zero,12
   11b90:	00a74733          	xor	a4,a4,a0
   11b94:	0066c6b3          	xor	a3,a3,t1
   11b98:	11860513          	addi	a0,a2,280
   11b9c:	01179463          	bne	a5,a7,11ba4 <decrypt.part.0+0x4c>
   11ba0:	7c80106f          	jal	zero,13368 <decrypt.part.0+0x1810>
   11ba4:	00e00893          	addi	a7,zero,14
   11ba8:	01179463          	bne	a5,a7,11bb0 <decrypt.part.0+0x58>
   11bac:	12c0106f          	jal	zero,12cd8 <decrypt.part.0+0x1180>
   11bb0:	00a00613          	addi	a2,zero,10
   11bb4:	00c78463          	beq	a5,a2,11bbc <decrypt.part.0+0x64>
   11bb8:	1000106f          	jal	zero,12cb8 <decrypt.part.0+0x1160>
   11bbc:	000757b7          	lui	a5,0x75
   11bc0:	00912423          	sw	s1,8(sp)
   11bc4:	01212223          	sw	s2,4(sp)
   11bc8:	01312023          	sw	s3,0(sp)
   11bcc:	bb078793          	addi	a5,a5,-1104 # 74bb0 <it_tab>
   11bd0:	018e5893          	srli	a7,t3,0x18
   11bd4:	00875f93          	srli	t6,a4,0x8
   11bd8:	0ff87313          	andi	t1,a6,255
   11bdc:	30088893          	addi	a7,a7,768
   11be0:	0fffff93          	andi	t6,t6,255
   11be4:	0186de93          	srli	t4,a3,0x18
   11be8:	0086d613          	srli	a2,a3,0x8
   11bec:	00289893          	slli	a7,a7,0x2
   11bf0:	00231413          	slli	s0,t1,0x2
   11bf4:	100f8f93          	addi	t6,t6,256
   11bf8:	0106d313          	srli	t1,a3,0x10
   11bfc:	0ff6f693          	andi	a3,a3,255
   11c00:	00269493          	slli	s1,a3,0x2
   11c04:	008e5f13          	srli	t5,t3,0x8
   11c08:	011786b3          	add	a3,a5,a7
   11c0c:	002f9f93          	slli	t6,t6,0x2
   11c10:	0006a683          	lw	a3,0(a3)
   11c14:	01f78fb3          	add	t6,a5,t6
   11c18:	0fff7f13          	andi	t5,t5,255
   11c1c:	0ff67613          	andi	a2,a2,255
   11c20:	0ff37313          	andi	t1,t1,255
   11c24:	000faf83          	lw	t6,0(t6)
   11c28:	100f0f13          	addi	t5,t5,256
   11c2c:	10060613          	addi	a2,a2,256
   11c30:	20030313          	addi	t1,t1,512
   11c34:	00878433          	add	s0,a5,s0
   11c38:	002f1f13          	slli	t5,t5,0x2
   11c3c:	00261613          	slli	a2,a2,0x2
   11c40:	00231313          	slli	t1,t1,0x2
   11c44:	009788b3          	add	a7,a5,s1
   11c48:	01e78f33          	add	t5,a5,t5
   11c4c:	00068493          	addi	s1,a3,0
   11c50:	00c78633          	add	a2,a5,a2
   11c54:	00042683          	lw	a3,0(s0)
   11c58:	00678333          	add	t1,a5,t1
   11c5c:	000f8413          	addi	s0,t6,0
   11c60:	000f2f83          	lw	t6,0(t5)
   11c64:	00062f03          	lw	t5,0(a2)
   11c68:	00032603          	lw	a2,0(t1)
   11c6c:	00052303          	lw	t1,0(a0)
   11c70:	01875393          	srli	t2,a4,0x18
   11c74:	0096c6b3          	xor	a3,a3,s1
   11c78:	30038393          	addi	t2,t2,768
   11c7c:	01885293          	srli	t0,a6,0x18
   11c80:	0066c6b3          	xor	a3,a3,t1
   11c84:	00239393          	slli	t2,t2,0x2
   11c88:	01085313          	srli	t1,a6,0x10
   11c8c:	00885813          	srli	a6,a6,0x8
   11c90:	007783b3          	add	t2,a5,t2
   11c94:	0ff87813          	andi	a6,a6,255
   11c98:	0003a383          	lw	t2,0(t2)
   11c9c:	0008a883          	lw	a7,0(a7)
   11ca0:	10080813          	addi	a6,a6,256
   11ca4:	0086c6b3          	xor	a3,a3,s0
   11ca8:	00281813          	slli	a6,a6,0x2
   11cac:	00c6c6b3          	xor	a3,a3,a2
   11cb0:	01078833          	add	a6,a5,a6
   11cb4:	0ff77613          	andi	a2,a4,255
   11cb8:	0078c8b3          	xor	a7,a7,t2
   11cbc:	00261613          	slli	a2,a2,0x2
   11cc0:	00082383          	lw	t2,0(a6)
   11cc4:	00852803          	lw	a6,8(a0)
   11cc8:	00c78633          	add	a2,a5,a2
   11ccc:	0ff37313          	andi	t1,t1,255
   11cd0:	00062603          	lw	a2,0(a2)
   11cd4:	20030313          	addi	t1,t1,512
   11cd8:	0108c8b3          	xor	a7,a7,a6
   11cdc:	300e8e93          	addi	t4,t4,768
   11ce0:	0ffe7813          	andi	a6,t3,255
   11ce4:	00231313          	slli	t1,t1,0x2
   11ce8:	00678333          	add	t1,a5,t1
   11cec:	002e9e93          	slli	t4,t4,0x2
   11cf0:	00281813          	slli	a6,a6,0x2
   11cf4:	00060413          	addi	s0,a2,0
   11cf8:	01d78eb3          	add	t4,a5,t4
   11cfc:	00032603          	lw	a2,0(t1)
   11d00:	01078833          	add	a6,a5,a6
   11d04:	000eae83          	lw	t4,0(t4)
   11d08:	00082803          	lw	a6,0(a6)
   11d0c:	30028293          	addi	t0,t0,768
   11d10:	01f8c8b3          	xor	a7,a7,t6
   11d14:	00229293          	slli	t0,t0,0x2
   11d18:	00c8c8b3          	xor	a7,a7,a2
   11d1c:	005782b3          	add	t0,a5,t0
   11d20:	010e5613          	srli	a2,t3,0x10
   11d24:	01075713          	srli	a4,a4,0x10
   11d28:	0002a283          	lw	t0,0(t0)
   11d2c:	01d84833          	xor	a6,a6,t4
   11d30:	0ff77713          	andi	a4,a4,255
   11d34:	00452e83          	lw	t4,4(a0)
   11d38:	0ff67613          	andi	a2,a2,255
   11d3c:	00c52e03          	lw	t3,12(a0)
   11d40:	20070713          	addi	a4,a4,512
   11d44:	20060613          	addi	a2,a2,512
   11d48:	00271713          	slli	a4,a4,0x2
   11d4c:	00261613          	slli	a2,a2,0x2
   11d50:	00e78333          	add	t1,a5,a4
   11d54:	00c78633          	add	a2,a5,a2
   11d58:	00544733          	xor	a4,s0,t0
   11d5c:	01d84833          	xor	a6,a6,t4
   11d60:	0086de93          	srli	t4,a3,0x8
   11d64:	01c74733          	xor	a4,a4,t3
   11d68:	0ffefe93          	andi	t4,t4,255
   11d6c:	00062e03          	lw	t3,0(a2)
   11d70:	100e8e93          	addi	t4,t4,256
   11d74:	00032603          	lw	a2,0(t1)
   11d78:	01e74733          	xor	a4,a4,t5
   11d7c:	002e9e93          	slli	t4,t4,0x2
   11d80:	01c74733          	xor	a4,a4,t3
   11d84:	00784833          	xor	a6,a6,t2
   11d88:	01d78eb3          	add	t4,a5,t4
   11d8c:	0188d393          	srli	t2,a7,0x18
   11d90:	000eae83          	lw	t4,0(t4)
   11d94:	01075e13          	srli	t3,a4,0x10
   11d98:	30038393          	addi	t2,t2,768
   11d9c:	00c84833          	xor	a6,a6,a2
   11da0:	0108d313          	srli	t1,a7,0x10
   11da4:	00875613          	srli	a2,a4,0x8
   11da8:	0ffe7e13          	andi	t3,t3,255
   11dac:	00239393          	slli	t2,t2,0x2
   11db0:	007783b3          	add	t2,a5,t2
   11db4:	01885f93          	srli	t6,a6,0x18
   11db8:	0186d413          	srli	s0,a3,0x18
   11dbc:	0ff87f13          	andi	t5,a6,255
   11dc0:	0ff67613          	andi	a2,a2,255
   11dc4:	0ff37313          	andi	t1,t1,255
   11dc8:	200e0e13          	addi	t3,t3,512
   11dcc:	000e8493          	addi	s1,t4,0
   11dd0:	10060613          	addi	a2,a2,256
   11dd4:	0003ae83          	lw	t4,0(t2)
   11dd8:	300f8f93          	addi	t6,t6,768
   11ddc:	20030313          	addi	t1,t1,512
   11de0:	30040413          	addi	s0,s0,768
   11de4:	002f1f13          	slli	t5,t5,0x2
   11de8:	002e1e13          	slli	t3,t3,0x2
   11dec:	01e78f33          	add	t5,a5,t5
   11df0:	01c78e33          	add	t3,a5,t3
   11df4:	00261613          	slli	a2,a2,0x2
   11df8:	002f9f93          	slli	t6,t6,0x2
   11dfc:	00231313          	slli	t1,t1,0x2
   11e00:	00241413          	slli	s0,s0,0x2
   11e04:	000f2383          	lw	t2,0(t5)
   11e08:	000e2e03          	lw	t3,0(t3)
   11e0c:	00c78633          	add	a2,a5,a2
   11e10:	01f78fb3          	add	t6,a5,t6
   11e14:	00678333          	add	t1,a5,t1
   11e18:	00878433          	add	s0,a5,s0
   11e1c:	00040993          	addi	s3,s0,0
   11e20:	000e8413          	addi	s0,t4,0
   11e24:	00062e83          	lw	t4,0(a2)
   11e28:	000fa603          	lw	a2,0(t6)
   11e2c:	00032f83          	lw	t6,0(t1)
   11e30:	01452303          	lw	t1,20(a0)
   11e34:	000e0913          	addi	s2,t3,0
   11e38:	0083ce33          	xor	t3,t2,s0
   11e3c:	00060f13          	addi	t5,a2,0
   11e40:	006e4e33          	xor	t3,t3,t1
   11e44:	0ff6f613          	andi	a2,a3,255
   11e48:	0106d313          	srli	t1,a3,0x10
   11e4c:	00261613          	slli	a2,a2,0x2
   11e50:	0ff37313          	andi	t1,t1,255
   11e54:	00c78633          	add	a2,a5,a2
   11e58:	20030313          	addi	t1,t1,512
   11e5c:	00062603          	lw	a2,0(a2)
   11e60:	00231313          	slli	t1,t1,0x2
   11e64:	00678433          	add	s0,a5,t1
   11e68:	01052303          	lw	t1,16(a0)
   11e6c:	01875293          	srli	t0,a4,0x18
   11e70:	01e64633          	xor	a2,a2,t5
   11e74:	0ff8f393          	andi	t2,a7,255
   11e78:	30028293          	addi	t0,t0,768
   11e7c:	0ff77713          	andi	a4,a4,255
   11e80:	009e46b3          	xor	a3,t3,s1
   11e84:	00664633          	xor	a2,a2,t1
   11e88:	00885e13          	srli	t3,a6,0x8
   11e8c:	00229293          	slli	t0,t0,0x2
   11e90:	00271713          	slli	a4,a4,0x2
   11e94:	0088d893          	srli	a7,a7,0x8
   11e98:	00239393          	slli	t2,t2,0x2
   11e9c:	005782b3          	add	t0,a5,t0
   11ea0:	00e78733          	add	a4,a5,a4
   11ea4:	007783b3          	add	t2,a5,t2
   11ea8:	01d64633          	xor	a2,a2,t4
   11eac:	0ff8f893          	andi	a7,a7,255
   11eb0:	0ffe7e13          	andi	t3,t3,255
   11eb4:	01f64633          	xor	a2,a2,t6
   11eb8:	0002a283          	lw	t0,0(t0)
   11ebc:	0003a383          	lw	t2,0(t2)
   11ec0:	10088893          	addi	a7,a7,256
   11ec4:	01852f83          	lw	t6,24(a0)
   11ec8:	100e0e13          	addi	t3,t3,256
   11ecc:	0009ae83          	lw	t4,0(s3)
   11ed0:	00072703          	lw	a4,0(a4)
   11ed4:	00289893          	slli	a7,a7,0x2
   11ed8:	002e1e13          	slli	t3,t3,0x2
   11edc:	011788b3          	add	a7,a5,a7
   11ee0:	01c78e33          	add	t3,a5,t3
   11ee4:	01085813          	srli	a6,a6,0x10
   11ee8:	01d74733          	xor	a4,a4,t4
   11eec:	0ff87813          	andi	a6,a6,255
   11ef0:	0008ae83          	lw	t4,0(a7)
   11ef4:	000e2883          	lw	a7,0(t3)
   11ef8:	0053c333          	xor	t1,t2,t0
   11efc:	20080813          	addi	a6,a6,512
   11f00:	01c52f03          	lw	t5,28(a0)
   11f04:	01f34333          	xor	t1,t1,t6
   11f08:	00281813          	slli	a6,a6,0x2
   11f0c:	01078833          	add	a6,a5,a6
   11f10:	01134333          	xor	t1,t1,a7
   11f14:	00042883          	lw	a7,0(s0)
   11f18:	00082803          	lw	a6,0(a6)
   11f1c:	01e74733          	xor	a4,a4,t5
   11f20:	01134333          	xor	t1,t1,a7
   11f24:	01d74733          	xor	a4,a4,t4
   11f28:	01074733          	xor	a4,a4,a6
   11f2c:	00835f13          	srli	t5,t1,0x8
   11f30:	01865813          	srli	a6,a2,0x18
   11f34:	30080813          	addi	a6,a6,768
   11f38:	0fff7f13          	andi	t5,t5,255
   11f3c:	0126c6b3          	xor	a3,a3,s2
   11f40:	00281813          	slli	a6,a6,0x2
   11f44:	100f0f13          	addi	t5,t5,256
   11f48:	01875893          	srli	a7,a4,0x18
   11f4c:	0086de93          	srli	t4,a3,0x8
   11f50:	01078833          	add	a6,a5,a6
   11f54:	002f1f13          	slli	t5,t5,0x2
   11f58:	00082803          	lw	a6,0(a6)
   11f5c:	0ff77e13          	andi	t3,a4,255
   11f60:	0ff37293          	andi	t0,t1,255
   11f64:	01e78f33          	add	t5,a5,t5
   11f68:	30088893          	addi	a7,a7,768
   11f6c:	0ffefe93          	andi	t4,t4,255
   11f70:	000f2f03          	lw	t5,0(t5)
   11f74:	002e1413          	slli	s0,t3,0x2
   11f78:	00289893          	slli	a7,a7,0x2
   11f7c:	0106de13          	srli	t3,a3,0x10
   11f80:	00229293          	slli	t0,t0,0x2
   11f84:	100e8e93          	addi	t4,t4,256
   11f88:	00878433          	add	s0,a5,s0
   11f8c:	01835393          	srli	t2,t1,0x18
   11f90:	011788b3          	add	a7,a5,a7
   11f94:	005782b3          	add	t0,a5,t0
   11f98:	0ffe7e13          	andi	t3,t3,255
   11f9c:	002e9e93          	slli	t4,t4,0x2
   11fa0:	0002a283          	lw	t0,0(t0)
   11fa4:	00080493          	addi	s1,a6,0
   11fa8:	01d78eb3          	add	t4,a5,t4
   11fac:	00042803          	lw	a6,0(s0)
   11fb0:	0008a883          	lw	a7,0(a7)
   11fb4:	0186df93          	srli	t6,a3,0x18
   11fb8:	30038393          	addi	t2,t2,768
   11fbc:	0ff6f693          	andi	a3,a3,255
   11fc0:	200e0e13          	addi	t3,t3,512
   11fc4:	000f0413          	addi	s0,t5,0
   11fc8:	00239393          	slli	t2,t2,0x2
   11fcc:	000eaf03          	lw	t5,0(t4)
   11fd0:	00269693          	slli	a3,a3,0x2
   11fd4:	02c52e83          	lw	t4,44(a0)
   11fd8:	002e1e13          	slli	t3,t3,0x2
   11fdc:	007783b3          	add	t2,a5,t2
   11fe0:	00d786b3          	add	a3,a5,a3
   11fe4:	01c78e33          	add	t3,a5,t3
   11fe8:	0003a383          	lw	t2,0(t2)
   11fec:	000e2e03          	lw	t3,0(t3)
   11ff0:	0006a683          	lw	a3,0(a3)
   11ff4:	00984833          	xor	a6,a6,s1
   11ff8:	0112c8b3          	xor	a7,t0,a7
   11ffc:	00865293          	srli	t0,a2,0x8
   12000:	01d84833          	xor	a6,a6,t4
   12004:	0ff2f293          	andi	t0,t0,255
   12008:	00884833          	xor	a6,a6,s0
   1200c:	10028293          	addi	t0,t0,256
   12010:	01c84833          	xor	a6,a6,t3
   12014:	0076c6b3          	xor	a3,a3,t2
   12018:	01065e13          	srli	t3,a2,0x10
   1201c:	0ff67393          	andi	t2,a2,255
   12020:	300f8f93          	addi	t6,t6,768
   12024:	01075613          	srli	a2,a4,0x10
   12028:	00229293          	slli	t0,t0,0x2
   1202c:	00875e93          	srli	t4,a4,0x8
   12030:	005782b3          	add	t0,a5,t0
   12034:	00239713          	slli	a4,t2,0x2
   12038:	002f9f93          	slli	t6,t6,0x2
   1203c:	02452383          	lw	t2,36(a0)
   12040:	0ff67613          	andi	a2,a2,255
   12044:	0002a283          	lw	t0,0(t0)
   12048:	01f78fb3          	add	t6,a5,t6
   1204c:	00e78733          	add	a4,a5,a4
   12050:	20060613          	addi	a2,a2,512
   12054:	000faf83          	lw	t6,0(t6)
   12058:	00072703          	lw	a4,0(a4)
   1205c:	01035313          	srli	t1,t1,0x10
   12060:	0ffe7e13          	andi	t3,t3,255
   12064:	0ffefe93          	andi	t4,t4,255
   12068:	00261613          	slli	a2,a2,0x2
   1206c:	00c78633          	add	a2,a5,a2
   12070:	0076c6b3          	xor	a3,a3,t2
   12074:	0ff37313          	andi	t1,t1,255
   12078:	200e0e13          	addi	t3,t3,512
   1207c:	100e8e93          	addi	t4,t4,256
   12080:	00062603          	lw	a2,0(a2)
   12084:	0056c6b3          	xor	a3,a3,t0
   12088:	20030313          	addi	t1,t1,512
   1208c:	02852283          	lw	t0,40(a0)
   12090:	002e1e13          	slli	t3,t3,0x2
   12094:	002e9e93          	slli	t4,t4,0x2
   12098:	01c78e33          	add	t3,a5,t3
   1209c:	01d78eb3          	add	t4,a5,t4
   120a0:	01f74733          	xor	a4,a4,t6
   120a4:	00231313          	slli	t1,t1,0x2
   120a8:	02052f83          	lw	t6,32(a0)
   120ac:	000e2e03          	lw	t3,0(t3)
   120b0:	000eae83          	lw	t4,0(t4)
   120b4:	00678333          	add	t1,a5,t1
   120b8:	00c6c6b3          	xor	a3,a3,a2
   120bc:	0058c8b3          	xor	a7,a7,t0
   120c0:	00032603          	lw	a2,0(t1)
   120c4:	01f74733          	xor	a4,a4,t6
   120c8:	01e8c8b3          	xor	a7,a7,t5
   120cc:	00885313          	srli	t1,a6,0x8
   120d0:	01c8c8b3          	xor	a7,a7,t3
   120d4:	01d74733          	xor	a4,a4,t4
   120d8:	0ff37313          	andi	t1,t1,255
   120dc:	00c74733          	xor	a4,a4,a2
   120e0:	10030313          	addi	t1,t1,256
   120e4:	0188d613          	srli	a2,a7,0x18
   120e8:	30060613          	addi	a2,a2,768
   120ec:	00231313          	slli	t1,t1,0x2
   120f0:	00261493          	slli	s1,a2,0x2
   120f4:	0186de93          	srli	t4,a3,0x18
   120f8:	01875293          	srli	t0,a4,0x18
   120fc:	0ff77f93          	andi	t6,a4,255
   12100:	00875e13          	srli	t3,a4,0x8
   12104:	01075613          	srli	a2,a4,0x10
   12108:	00678733          	add	a4,a5,t1
   1210c:	00072703          	lw	a4,0(a4)
   12110:	300e8e93          	addi	t4,t4,768
   12114:	0108df13          	srli	t5,a7,0x10
   12118:	0ff6f413          	andi	s0,a3,255
   1211c:	002e9e93          	slli	t4,t4,0x2
   12120:	002f9f93          	slli	t6,t6,0x2
   12124:	01d78333          	add	t1,a5,t4
   12128:	01f78fb3          	add	t6,a5,t6
   1212c:	00241413          	slli	s0,s0,0x2
   12130:	0fff7f13          	andi	t5,t5,255
   12134:	00878933          	add	s2,a5,s0
   12138:	200f0f13          	addi	t5,t5,512
   1213c:	00070413          	addi	s0,a4,0
   12140:	00032703          	lw	a4,0(t1)
   12144:	000fa303          	lw	t1,0(t6)
   12148:	002f1f13          	slli	t5,t5,0x2
   1214c:	01e78f33          	add	t5,a5,t5
   12150:	0ffe7e13          	andi	t3,t3,255
   12154:	00e34333          	xor	t1,t1,a4
   12158:	100e0e13          	addi	t3,t3,256
   1215c:	000f2703          	lw	a4,0(t5)
   12160:	30028293          	addi	t0,t0,768
   12164:	002e1e13          	slli	t3,t3,0x2
   12168:	009789b3          	add	s3,a5,s1
   1216c:	01c78e33          	add	t3,a5,t3
   12170:	00229293          	slli	t0,t0,0x2
   12174:	00578eb3          	add	t4,a5,t0
   12178:	00070493          	addi	s1,a4,0
   1217c:	0009a703          	lw	a4,0(s3)
   12180:	000e2283          	lw	t0,0(t3)
   12184:	03052e03          	lw	t3,48(a0)
   12188:	00092f03          	lw	t5,0(s2)
   1218c:	01885393          	srli	t2,a6,0x18
   12190:	01c34333          	xor	t1,t1,t3
   12194:	0ff87e13          	andi	t3,a6,255
   12198:	002e1e13          	slli	t3,t3,0x2
   1219c:	01c78e33          	add	t3,a5,t3
   121a0:	000f0913          	addi	s2,t5,0
   121a4:	000e2e03          	lw	t3,0(t3)
   121a8:	000eaf03          	lw	t5,0(t4)
   121ac:	01085813          	srli	a6,a6,0x10
   121b0:	0ff87813          	andi	a6,a6,255
   121b4:	20080813          	addi	a6,a6,512
   121b8:	01ee4e33          	xor	t3,t3,t5
   121bc:	00281813          	slli	a6,a6,0x2
   121c0:	03452f03          	lw	t5,52(a0)
   121c4:	01078833          	add	a6,a5,a6
   121c8:	00082803          	lw	a6,0(a6)
   121cc:	00e94733          	xor	a4,s2,a4
   121d0:	01e74733          	xor	a4,a4,t5
   121d4:	0ff8fe93          	andi	t4,a7,255
   121d8:	00574733          	xor	a4,a4,t0
   121dc:	30038393          	addi	t2,t2,768
   121e0:	01074733          	xor	a4,a4,a6
   121e4:	00239393          	slli	t2,t2,0x2
   121e8:	0086d813          	srli	a6,a3,0x8
   121ec:	0088d893          	srli	a7,a7,0x8
   121f0:	002e9e93          	slli	t4,t4,0x2
   121f4:	007783b3          	add	t2,a5,t2
   121f8:	01d78eb3          	add	t4,a5,t4
   121fc:	0ff8f893          	andi	a7,a7,255
   12200:	0ff87813          	andi	a6,a6,255
   12204:	0003af83          	lw	t6,0(t2)
   12208:	10088893          	addi	a7,a7,256
   1220c:	000ea383          	lw	t2,0(t4)
   12210:	10080813          	addi	a6,a6,256
   12214:	03852f03          	lw	t5,56(a0)
   12218:	00289893          	slli	a7,a7,0x2
   1221c:	0106d693          	srli	a3,a3,0x10
   12220:	00281813          	slli	a6,a6,0x2
   12224:	011788b3          	add	a7,a5,a7
   12228:	01078833          	add	a6,a5,a6
   1222c:	0ff67613          	andi	a2,a2,255
   12230:	0ff6f693          	andi	a3,a3,255
   12234:	0008ae83          	lw	t4,0(a7)
   12238:	00082803          	lw	a6,0(a6)
   1223c:	01f3c8b3          	xor	a7,t2,t6
   12240:	20060613          	addi	a2,a2,512
   12244:	20068693          	addi	a3,a3,512
   12248:	01e8c8b3          	xor	a7,a7,t5
   1224c:	00261613          	slli	a2,a2,0x2
   12250:	03c52f03          	lw	t5,60(a0)
   12254:	00269693          	slli	a3,a3,0x2
   12258:	00c78633          	add	a2,a5,a2
   1225c:	00d786b3          	add	a3,a5,a3
   12260:	00834333          	xor	t1,t1,s0
   12264:	0108c8b3          	xor	a7,a7,a6
   12268:	0006a803          	lw	a6,0(a3)
   1226c:	00062683          	lw	a3,0(a2)
   12270:	00934333          	xor	t1,t1,s1
   12274:	01ee4e33          	xor	t3,t3,t5
   12278:	01de4e33          	xor	t3,t3,t4
   1227c:	00835e93          	srli	t4,t1,0x8
   12280:	00d8c8b3          	xor	a7,a7,a3
   12284:	0ffefe93          	andi	t4,t4,255
   12288:	01035693          	srli	a3,t1,0x10
   1228c:	010e4e33          	xor	t3,t3,a6
   12290:	0ff6f693          	andi	a3,a3,255
   12294:	0188d813          	srli	a6,a7,0x18
   12298:	100e8e93          	addi	t4,t4,256
   1229c:	30080813          	addi	a6,a6,768
   122a0:	20068693          	addi	a3,a3,512
   122a4:	002e9e93          	slli	t4,t4,0x2
   122a8:	00281493          	slli	s1,a6,0x2
   122ac:	00875f13          	srli	t5,a4,0x8
   122b0:	01875393          	srli	t2,a4,0x18
   122b4:	0ff77413          	andi	s0,a4,255
   122b8:	01075813          	srli	a6,a4,0x10
   122bc:	00269713          	slli	a4,a3,0x2
   122c0:	01d786b3          	add	a3,a5,t4
   122c4:	0006ae83          	lw	t4,0(a3)
   122c8:	009786b3          	add	a3,a5,s1
   122cc:	0006a683          	lw	a3,0(a3)
   122d0:	010e5293          	srli	t0,t3,0x10
   122d4:	008e5613          	srli	a2,t3,0x8
   122d8:	00241413          	slli	s0,s0,0x2
   122dc:	00878433          	add	s0,a5,s0
   122e0:	0ff2f293          	andi	t0,t0,255
   122e4:	0ff67613          	andi	a2,a2,255
   122e8:	00068493          	addi	s1,a3,0
   122ec:	20028293          	addi	t0,t0,512
   122f0:	00042683          	lw	a3,0(s0)
   122f4:	10060613          	addi	a2,a2,256
   122f8:	00229293          	slli	t0,t0,0x2
   122fc:	00261613          	slli	a2,a2,0x2
   12300:	005782b3          	add	t0,a5,t0
   12304:	00c78633          	add	a2,a5,a2
   12308:	00068413          	addi	s0,a3,0
   1230c:	0002a683          	lw	a3,0(t0)
   12310:	00062283          	lw	t0,0(a2)
   12314:	018e5613          	srli	a2,t3,0x18
   12318:	30060613          	addi	a2,a2,768
   1231c:	00261613          	slli	a2,a2,0x2
   12320:	00c78633          	add	a2,a5,a2
   12324:	00062603          	lw	a2,0(a2)
   12328:	00e78733          	add	a4,a5,a4
   1232c:	00068913          	addi	s2,a3,0
   12330:	00072683          	lw	a3,0(a4)
   12334:	00944733          	xor	a4,s0,s1
   12338:	04452403          	lw	s0,68(a0)
   1233c:	00060493          	addi	s1,a2,0
   12340:	01835613          	srli	a2,t1,0x18
   12344:	00874733          	xor	a4,a4,s0
   12348:	0ff37313          	andi	t1,t1,255
   1234c:	30060613          	addi	a2,a2,768
   12350:	30038393          	addi	t2,t2,768
   12354:	0108df93          	srli	t6,a7,0x10
   12358:	01d74eb3          	xor	t4,a4,t4
   1235c:	0ff8f413          	andi	s0,a7,255
   12360:	0088d713          	srli	a4,a7,0x8
   12364:	00239393          	slli	t2,t2,0x2
   12368:	00231893          	slli	a7,t1,0x2
   1236c:	00261313          	slli	t1,a2,0x2
   12370:	011788b3          	add	a7,a5,a7
   12374:	007783b3          	add	t2,a5,t2
   12378:	00678333          	add	t1,a5,t1
   1237c:	0fffff93          	andi	t6,t6,255
   12380:	0fff7f13          	andi	t5,t5,255
   12384:	0ff87813          	andi	a6,a6,255
   12388:	0ffe7e13          	andi	t3,t3,255
   1238c:	0ff77713          	andi	a4,a4,255
   12390:	0003a383          	lw	t2,0(t2)
   12394:	0008a603          	lw	a2,0(a7)
   12398:	00032303          	lw	t1,0(t1)
   1239c:	200f8f93          	addi	t6,t6,512
   123a0:	100f0f13          	addi	t5,t5,256
   123a4:	20080813          	addi	a6,a6,512
   123a8:	002e1e13          	slli	t3,t3,0x2
   123ac:	10070713          	addi	a4,a4,256
   123b0:	01c78e33          	add	t3,a5,t3
   123b4:	002f9f93          	slli	t6,t6,0x2
   123b8:	002f1f13          	slli	t5,t5,0x2
   123bc:	00281813          	slli	a6,a6,0x2
   123c0:	00241413          	slli	s0,s0,0x2
   123c4:	00271713          	slli	a4,a4,0x2
   123c8:	000e2e03          	lw	t3,0(t3)
   123cc:	01078833          	add	a6,a5,a6
   123d0:	00878433          	add	s0,a5,s0
   123d4:	00e78733          	add	a4,a5,a4
   123d8:	01f78fb3          	add	t6,a5,t6
   123dc:	01e78f33          	add	t5,a5,t5
   123e0:	000faf83          	lw	t6,0(t6)
   123e4:	000f2f03          	lw	t5,0(t5)
   123e8:	00042883          	lw	a7,0(s0)
   123ec:	00764633          	xor	a2,a2,t2
   123f0:	00030413          	addi	s0,t1,0
   123f4:	00072383          	lw	t2,0(a4)
   123f8:	00082303          	lw	t1,0(a6)
   123fc:	04052803          	lw	a6,64(a0)
   12400:	008e4733          	xor	a4,t3,s0
   12404:	04c52e03          	lw	t3,76(a0)
   12408:	01064633          	xor	a2,a2,a6
   1240c:	04852803          	lw	a6,72(a0)
   12410:	012eceb3          	xor	t4,t4,s2
   12414:	0098c8b3          	xor	a7,a7,s1
   12418:	00564633          	xor	a2,a2,t0
   1241c:	01c74733          	xor	a4,a4,t3
   12420:	01f64633          	xor	a2,a2,t6
   12424:	0108c833          	xor	a6,a7,a6
   12428:	00774733          	xor	a4,a4,t2
   1242c:	008edf93          	srli	t6,t4,0x8
   12430:	00674733          	xor	a4,a4,t1
   12434:	01e84833          	xor	a6,a6,t5
   12438:	0fffff93          	andi	t6,t6,255
   1243c:	00d846b3          	xor	a3,a6,a3
   12440:	01875e13          	srli	t3,a4,0x18
   12444:	018ed813          	srli	a6,t4,0x18
   12448:	100f8f93          	addi	t6,t6,256
   1244c:	0ff6f413          	andi	s0,a3,255
   12450:	0ff77293          	andi	t0,a4,255
   12454:	0086df13          	srli	t5,a3,0x8
   12458:	0ff67393          	andi	t2,a2,255
   1245c:	00875313          	srli	t1,a4,0x8
   12460:	300e0e13          	addi	t3,t3,768
   12464:	30080813          	addi	a6,a6,768
   12468:	002f9f93          	slli	t6,t6,0x2
   1246c:	01f78fb3          	add	t6,a5,t6
   12470:	002e1e13          	slli	t3,t3,0x2
   12474:	00241413          	slli	s0,s0,0x2
   12478:	00229293          	slli	t0,t0,0x2
   1247c:	0fff7f13          	andi	t5,t5,255
   12480:	00281813          	slli	a6,a6,0x2
   12484:	00239393          	slli	t2,t2,0x2
   12488:	0ff37313          	andi	t1,t1,255
   1248c:	000faf83          	lw	t6,0(t6)
   12490:	01c78e33          	add	t3,a5,t3
   12494:	00878433          	add	s0,a5,s0
   12498:	005782b3          	add	t0,a5,t0
   1249c:	01078833          	add	a6,a5,a6
   124a0:	007783b3          	add	t2,a5,t2
   124a4:	100f0f13          	addi	t5,t5,256
   124a8:	10030313          	addi	t1,t1,256
   124ac:	000e2e03          	lw	t3,0(t3)
   124b0:	00042403          	lw	s0,0(s0)
   124b4:	0002a283          	lw	t0,0(t0)
   124b8:	00082803          	lw	a6,0(a6)
   124bc:	0003a383          	lw	t2,0(t2)
   124c0:	002f1f13          	slli	t5,t5,0x2
   124c4:	00231313          	slli	t1,t1,0x2
   124c8:	01e78f33          	add	t5,a5,t5
   124cc:	00678333          	add	t1,a5,t1
   124d0:	000f8493          	addi	s1,t6,0
   124d4:	000f2f83          	lw	t6,0(t5)
   124d8:	00032f03          	lw	t5,0(t1)
   124dc:	05852303          	lw	t1,88(a0)
   124e0:	00028913          	addi	s2,t0,0
   124e4:	01c442b3          	xor	t0,s0,t3
   124e8:	0103ce33          	xor	t3,t2,a6
   124ec:	01065393          	srli	t2,a2,0x10
   124f0:	01865893          	srli	a7,a2,0x18
   124f4:	0186d413          	srli	s0,a3,0x18
   124f8:	00865813          	srli	a6,a2,0x8
   124fc:	0ff3f393          	andi	t2,t2,255
   12500:	0106d613          	srli	a2,a3,0x10
   12504:	010ed693          	srli	a3,t4,0x10
   12508:	0062c2b3          	xor	t0,t0,t1
   1250c:	20038393          	addi	t2,t2,512
   12510:	0ffef313          	andi	t1,t4,255
   12514:	0ff6fe93          	andi	t4,a3,255
   12518:	00231693          	slli	a3,t1,0x2
   1251c:	200e8313          	addi	t1,t4,512
   12520:	00239e93          	slli	t4,t2,0x2
   12524:	01d78eb3          	add	t4,a5,t4
   12528:	30088893          	addi	a7,a7,768
   1252c:	0ff67613          	andi	a2,a2,255
   12530:	000eae83          	lw	t4,0(t4)
   12534:	00289893          	slli	a7,a7,0x2
   12538:	20060613          	addi	a2,a2,512
   1253c:	011788b3          	add	a7,a5,a7
   12540:	00261613          	slli	a2,a2,0x2
   12544:	00c78633          	add	a2,a5,a2
   12548:	0008a883          	lw	a7,0(a7)
   1254c:	30040413          	addi	s0,s0,768
   12550:	0092c2b3          	xor	t0,t0,s1
   12554:	00241413          	slli	s0,s0,0x2
   12558:	000e8493          	addi	s1,t4,0
   1255c:	00062e83          	lw	t4,0(a2)
   12560:	05c52603          	lw	a2,92(a0)
   12564:	00878433          	add	s0,a5,s0
   12568:	01075713          	srli	a4,a4,0x10
   1256c:	0ff87813          	andi	a6,a6,255
   12570:	00042383          	lw	t2,0(s0)
   12574:	011948b3          	xor	a7,s2,a7
   12578:	00d786b3          	add	a3,a5,a3
   1257c:	0ff77713          	andi	a4,a4,255
   12580:	10080813          	addi	a6,a6,256
   12584:	0006a683          	lw	a3,0(a3)
   12588:	00c8c8b3          	xor	a7,a7,a2
   1258c:	20070713          	addi	a4,a4,512
   12590:	00231313          	slli	t1,t1,0x2
   12594:	00281813          	slli	a6,a6,0x2
   12598:	00678333          	add	t1,a5,t1
   1259c:	01078833          	add	a6,a5,a6
   125a0:	01f8c8b3          	xor	a7,a7,t6
   125a4:	00271713          	slli	a4,a4,0x2
   125a8:	05452f83          	lw	t6,84(a0)
   125ac:	00038413          	addi	s0,t2,0
   125b0:	00e78733          	add	a4,a5,a4
   125b4:	00032383          	lw	t2,0(t1)
   125b8:	00082303          	lw	t1,0(a6)
   125bc:	00072703          	lw	a4,0(a4)
   125c0:	0086c6b3          	xor	a3,a3,s0
   125c4:	0092c633          	xor	a2,t0,s1
   125c8:	05052803          	lw	a6,80(a0)
   125cc:	01f6c6b3          	xor	a3,a3,t6
   125d0:	0078c8b3          	xor	a7,a7,t2
   125d4:	0066c6b3          	xor	a3,a3,t1
   125d8:	01065313          	srli	t1,a2,0x10
   125dc:	00e6c6b3          	xor	a3,a3,a4
   125e0:	0ff37313          	andi	t1,t1,255
   125e4:	0088d713          	srli	a4,a7,0x8
   125e8:	010e4833          	xor	a6,t3,a6
   125ec:	0ff77713          	andi	a4,a4,255
   125f0:	20030313          	addi	t1,t1,512
   125f4:	01e84833          	xor	a6,a6,t5
   125f8:	10070713          	addi	a4,a4,256
   125fc:	00231313          	slli	t1,t1,0x2
   12600:	01d84833          	xor	a6,a6,t4
   12604:	0186df13          	srli	t5,a3,0x18
   12608:	00678333          	add	t1,a5,t1
   1260c:	00271713          	slli	a4,a4,0x2
   12610:	00032303          	lw	t1,0(t1)
   12614:	01865e13          	srli	t3,a2,0x18
   12618:	0188d413          	srli	s0,a7,0x18
   1261c:	0ff87393          	andi	t2,a6,255
   12620:	00e78733          	add	a4,a5,a4
   12624:	300f0f13          	addi	t5,t5,768
   12628:	00072703          	lw	a4,0(a4)
   1262c:	0ff6fe93          	andi	t4,a3,255
   12630:	300e0e13          	addi	t3,t3,768
   12634:	30040413          	addi	s0,s0,768
   12638:	002f1f13          	slli	t5,t5,0x2
   1263c:	00239393          	slli	t2,t2,0x2
   12640:	007783b3          	add	t2,a5,t2
   12644:	01e78f33          	add	t5,a5,t5
   12648:	002e1e13          	slli	t3,t3,0x2
   1264c:	002e9e93          	slli	t4,t4,0x2
   12650:	00241413          	slli	s0,s0,0x2
   12654:	000f2f03          	lw	t5,0(t5)
   12658:	01d78eb3          	add	t4,a5,t4
   1265c:	00878433          	add	s0,a5,s0
   12660:	00030493          	addi	s1,t1,0
   12664:	01c78e33          	add	t3,a5,t3
   12668:	0003a303          	lw	t1,0(t2)
   1266c:	000e2e03          	lw	t3,0(t3)
   12670:	00040913          	addi	s2,s0,0
   12674:	00070413          	addi	s0,a4,0
   12678:	000ea703          	lw	a4,0(t4)
   1267c:	00885293          	srli	t0,a6,0x8
   12680:	01e34333          	xor	t1,t1,t5
   12684:	0ff2f293          	andi	t0,t0,255
   12688:	06052f03          	lw	t5,96(a0)
   1268c:	01c74733          	xor	a4,a4,t3
   12690:	10028293          	addi	t0,t0,256
   12694:	0ff67e13          	andi	t3,a2,255
   12698:	00865613          	srli	a2,a2,0x8
   1269c:	00229293          	slli	t0,t0,0x2
   126a0:	0ff67613          	andi	a2,a2,255
   126a4:	01885f93          	srli	t6,a6,0x18
   126a8:	005782b3          	add	t0,a5,t0
   126ac:	00261613          	slli	a2,a2,0x2
   126b0:	01e34333          	xor	t1,t1,t5
   126b4:	0108de93          	srli	t4,a7,0x10
   126b8:	0086df13          	srli	t5,a3,0x8
   126bc:	01085813          	srli	a6,a6,0x10
   126c0:	002e1e13          	slli	t3,t3,0x2
   126c4:	00c789b3          	add	s3,a5,a2
   126c8:	0002a283          	lw	t0,0(t0)
   126cc:	01c78e33          	add	t3,a5,t3
   126d0:	0106d613          	srli	a2,a3,0x10
   126d4:	0ff87813          	andi	a6,a6,255
   126d8:	00092683          	lw	a3,0(s2)
   126dc:	0ff8f893          	andi	a7,a7,255
   126e0:	0fff7f13          	andi	t5,t5,255
   126e4:	0ffefe93          	andi	t4,t4,255
   126e8:	000e2383          	lw	t2,0(t3)
   126ec:	300f8f93          	addi	t6,t6,768
   126f0:	20080813          	addi	a6,a6,512
   126f4:	00289893          	slli	a7,a7,0x2
   126f8:	100f0f13          	addi	t5,t5,256
   126fc:	200e8e93          	addi	t4,t4,512
   12700:	011788b3          	add	a7,a5,a7
   12704:	002e9e93          	slli	t4,t4,0x2
   12708:	002f9f93          	slli	t6,t6,0x2
   1270c:	00281813          	slli	a6,a6,0x2
   12710:	002f1f13          	slli	t5,t5,0x2
   12714:	01078833          	add	a6,a5,a6
   12718:	01e78f33          	add	t5,a5,t5
   1271c:	01f78fb3          	add	t6,a5,t6
   12720:	00834333          	xor	t1,t1,s0
   12724:	00068413          	addi	s0,a3,0
   12728:	0008a683          	lw	a3,0(a7)
   1272c:	01d788b3          	add	a7,a5,t4
   12730:	000faf83          	lw	t6,0(t6)
   12734:	000f2e83          	lw	t4,0(t5)
   12738:	0008af03          	lw	t5,0(a7)
   1273c:	00082883          	lw	a7,0(a6)
   12740:	0083c833          	xor	a6,t2,s0
   12744:	06452383          	lw	t2,100(a0)
   12748:	01f6c6b3          	xor	a3,a3,t6
   1274c:	0ff67613          	andi	a2,a2,255
   12750:	06852f83          	lw	t6,104(a0)
   12754:	00774733          	xor	a4,a4,t2
   12758:	00574733          	xor	a4,a4,t0
   1275c:	20060613          	addi	a2,a2,512
   12760:	01e74733          	xor	a4,a4,t5
   12764:	00261613          	slli	a2,a2,0x2
   12768:	06c52f03          	lw	t5,108(a0)
   1276c:	4009ae03          	lw	t3,1024(s3)
   12770:	00c78633          	add	a2,a5,a2
   12774:	01f84833          	xor	a6,a6,t6
   12778:	00062603          	lw	a2,0(a2)
   1277c:	01d84833          	xor	a6,a6,t4
   12780:	01184833          	xor	a6,a6,a7
   12784:	01e6c6b3          	xor	a3,a3,t5
   12788:	01c6c6b3          	xor	a3,a3,t3
   1278c:	01875893          	srli	a7,a4,0x18
   12790:	01885293          	srli	t0,a6,0x18
   12794:	00c6c6b3          	xor	a3,a3,a2
   12798:	30088893          	addi	a7,a7,768
   1279c:	0ff77613          	andi	a2,a4,255
   127a0:	30028293          	addi	t0,t0,768
   127a4:	00934333          	xor	t1,t1,s1
   127a8:	00289893          	slli	a7,a7,0x2
   127ac:	00261493          	slli	s1,a2,0x2
   127b0:	00229293          	slli	t0,t0,0x2
   127b4:	00978933          	add	s2,a5,s1
   127b8:	005782b3          	add	t0,a5,t0
   127bc:	011788b3          	add	a7,a5,a7
   127c0:	0008a883          	lw	a7,0(a7)
   127c4:	01835e93          	srli	t4,t1,0x18
   127c8:	0ff37413          	andi	s0,t1,255
   127cc:	0086df13          	srli	t5,a3,0x8
   127d0:	00835e13          	srli	t3,t1,0x8
   127d4:	0186df93          	srli	t6,a3,0x18
   127d8:	0ff6f393          	andi	t2,a3,255
   127dc:	0106d613          	srli	a2,a3,0x10
   127e0:	01035693          	srli	a3,t1,0x10
   127e4:	0002a303          	lw	t1,0(t0)
   127e8:	00092283          	lw	t0,0(s2)
   127ec:	00241413          	slli	s0,s0,0x2
   127f0:	00239393          	slli	t2,t2,0x2
   127f4:	00878433          	add	s0,a5,s0
   127f8:	007783b3          	add	t2,a5,t2
   127fc:	0ffe7e13          	andi	t3,t3,255
   12800:	00088493          	addi	s1,a7,0
   12804:	0fff7f13          	andi	t5,t5,255
   12808:	00042883          	lw	a7,0(s0)
   1280c:	300f8f93          	addi	t6,t6,768
   12810:	00028413          	addi	s0,t0,0
   12814:	100e0e13          	addi	t3,t3,256
   12818:	0003a283          	lw	t0,0(t2)
   1281c:	100f0f13          	addi	t5,t5,256
   12820:	002f9f93          	slli	t6,t6,0x2
   12824:	002e1e13          	slli	t3,t3,0x2
   12828:	0ff6f693          	andi	a3,a3,255
   1282c:	01f78fb3          	add	t6,a5,t6
   12830:	01c78e33          	add	t3,a5,t3
   12834:	20068693          	addi	a3,a3,512
   12838:	002f1f13          	slli	t5,t5,0x2
   1283c:	00028913          	addi	s2,t0,0
   12840:	01e78f33          	add	t5,a5,t5
   12844:	000fa283          	lw	t0,0(t6)
   12848:	000e2f83          	lw	t6,0(t3)
   1284c:	00269e13          	slli	t3,a3,0x2
   12850:	07052683          	lw	a3,112(a0)
   12854:	000f2f03          	lw	t5,0(t5)
   12858:	0098c8b3          	xor	a7,a7,s1
   1285c:	0ff67613          	andi	a2,a2,255
   12860:	00d8c8b3          	xor	a7,a7,a3
   12864:	20060613          	addi	a2,a2,512
   12868:	00885693          	srli	a3,a6,0x8
   1286c:	01e8c8b3          	xor	a7,a7,t5
   12870:	01085393          	srli	t2,a6,0x10
   12874:	00875f13          	srli	t5,a4,0x8
   12878:	00261613          	slli	a2,a2,0x2
   1287c:	0ff87813          	andi	a6,a6,255
   12880:	00c78633          	add	a2,a5,a2
   12884:	00644333          	xor	t1,s0,t1
   12888:	00281813          	slli	a6,a6,0x2
   1288c:	0ff6f413          	andi	s0,a3,255
   12890:	0fff7f13          	andi	t5,t5,255
   12894:	00062603          	lw	a2,0(a2)
   12898:	01078833          	add	a6,a5,a6
   1289c:	01075693          	srli	a3,a4,0x10
   128a0:	100f0f13          	addi	t5,t5,256
   128a4:	00241713          	slli	a4,s0,0x2
   128a8:	0ff3f393          	andi	t2,t2,255
   128ac:	00e78433          	add	s0,a5,a4
   128b0:	20038393          	addi	t2,t2,512
   128b4:	00082703          	lw	a4,0(a6)
   128b8:	002f1813          	slli	a6,t5,0x2
   128bc:	01078833          	add	a6,a5,a6
   128c0:	00239393          	slli	t2,t2,0x2
   128c4:	300e8e93          	addi	t4,t4,768
   128c8:	00778f33          	add	t5,a5,t2
   128cc:	002e9e93          	slli	t4,t4,0x2
   128d0:	40042383          	lw	t2,1024(s0)
   128d4:	0ff6f693          	andi	a3,a3,255
   128d8:	00060413          	addi	s0,a2,0
   128dc:	00082603          	lw	a2,0(a6)
   128e0:	07452803          	lw	a6,116(a0)
   128e4:	000f2f03          	lw	t5,0(t5)
   128e8:	01d78eb3          	add	t4,a5,t4
   128ec:	20068693          	addi	a3,a3,512
   128f0:	000eae83          	lw	t4,0(t4)
   128f4:	00269693          	slli	a3,a3,0x2
   128f8:	00d786b3          	add	a3,a5,a3
   128fc:	01c78e33          	add	t3,a5,t3
   12900:	01034333          	xor	t1,t1,a6
   12904:	07c52803          	lw	a6,124(a0)
   12908:	01e8c8b3          	xor	a7,a7,t5
   1290c:	0006af03          	lw	t5,0(a3)
   12910:	000e2683          	lw	a3,0(t3)
   12914:	07852e03          	lw	t3,120(a0)
   12918:	01d94eb3          	xor	t4,s2,t4
   1291c:	00574733          	xor	a4,a4,t0
   12920:	010ec833          	xor	a6,t4,a6
   12924:	0188d293          	srli	t0,a7,0x18
   12928:	01f34333          	xor	t1,t1,t6
   1292c:	00784833          	xor	a6,a6,t2
   12930:	01c74733          	xor	a4,a4,t3
   12934:	01e84833          	xor	a6,a6,t5
   12938:	00834333          	xor	t1,t1,s0
   1293c:	00c74733          	xor	a4,a4,a2
   12940:	30028413          	addi	s0,t0,768
   12944:	00d74733          	xor	a4,a4,a3
   12948:	0ff8f293          	andi	t0,a7,255
   1294c:	0ff87693          	andi	a3,a6,255
   12950:	00241413          	slli	s0,s0,0x2
   12954:	00040493          	addi	s1,s0,0
   12958:	0ff77393          	andi	t2,a4,255
   1295c:	00269413          	slli	s0,a3,0x2
   12960:	00229293          	slli	t0,t0,0x2
   12964:	00978933          	add	s2,a5,s1
   12968:	01835613          	srli	a2,t1,0x18
   1296c:	008784b3          	add	s1,a5,s0
   12970:	01885f93          	srli	t6,a6,0x18
   12974:	00875e93          	srli	t4,a4,0x8
   12978:	01875f13          	srli	t5,a4,0x18
   1297c:	01075693          	srli	a3,a4,0x10
   12980:	00239713          	slli	a4,t2,0x2
   12984:	005783b3          	add	t2,a5,t0
   12988:	00e78433          	add	s0,a5,a4
   1298c:	00885e13          	srli	t3,a6,0x8
   12990:	01085713          	srli	a4,a6,0x10
   12994:	30060613          	addi	a2,a2,768
   12998:	0003a803          	lw	a6,0(t2)
   1299c:	300f8f93          	addi	t6,t6,768
   129a0:	0004a283          	lw	t0,0(s1)
   129a4:	00261613          	slli	a2,a2,0x2
   129a8:	002f9f93          	slli	t6,t6,0x2
   129ac:	00c78633          	add	a2,a5,a2
   129b0:	01f78fb3          	add	t6,a5,t6
   129b4:	0ffefe93          	andi	t4,t4,255
   129b8:	0ffe7e13          	andi	t3,t3,255
   129bc:	0ff6f693          	andi	a3,a3,255
   129c0:	00092383          	lw	t2,0(s2)
   129c4:	000faf83          	lw	t6,0(t6)
   129c8:	00028493          	addi	s1,t0,0
   129cc:	100e8e93          	addi	t4,t4,256
   129d0:	00062283          	lw	t0,0(a2)
   129d4:	100e0e13          	addi	t3,t3,256
   129d8:	20068693          	addi	a3,a3,512
   129dc:	002e9e93          	slli	t4,t4,0x2
   129e0:	002e1e13          	slli	t3,t3,0x2
   129e4:	00269693          	slli	a3,a3,0x2
   129e8:	01d78eb3          	add	t4,a5,t4
   129ec:	01c78e33          	add	t3,a5,t3
   129f0:	00d786b3          	add	a3,a5,a3
   129f4:	00042603          	lw	a2,0(s0)
   129f8:	00584833          	xor	a6,a6,t0
   129fc:	000f8413          	addi	s0,t6,0
   12a00:	00835293          	srli	t0,t1,0x8
   12a04:	000eaf83          	lw	t6,0(t4)
   12a08:	000e2e83          	lw	t4,0(t3)
   12a0c:	0074ce33          	xor	t3,s1,t2
   12a10:	0006a383          	lw	t2,0(a3)
   12a14:	01035693          	srli	a3,t1,0x10
   12a18:	0ff37313          	andi	t1,t1,255
   12a1c:	00231313          	slli	t1,t1,0x2
   12a20:	00678333          	add	t1,a5,t1
   12a24:	00032303          	lw	t1,0(t1)
   12a28:	00864633          	xor	a2,a2,s0
   12a2c:	0ff77713          	andi	a4,a4,255
   12a30:	00030413          	addi	s0,t1,0
   12a34:	08c52303          	lw	t1,140(a0)
   12a38:	0ff2f293          	andi	t0,t0,255
   12a3c:	0ff6f693          	andi	a3,a3,255
   12a40:	006e4e33          	xor	t3,t3,t1
   12a44:	0088d313          	srli	t1,a7,0x8
   12a48:	0108d893          	srli	a7,a7,0x10
   12a4c:	0ff37313          	andi	t1,t1,255
   12a50:	0ff8f893          	andi	a7,a7,255
   12a54:	300f0f13          	addi	t5,t5,768
   12a58:	20070713          	addi	a4,a4,512
   12a5c:	10028293          	addi	t0,t0,256
   12a60:	20068693          	addi	a3,a3,512
   12a64:	10030313          	addi	t1,t1,256
   12a68:	20088893          	addi	a7,a7,512
   12a6c:	00289893          	slli	a7,a7,0x2
   12a70:	002f1f13          	slli	t5,t5,0x2
   12a74:	00271713          	slli	a4,a4,0x2
   12a78:	00229293          	slli	t0,t0,0x2
   12a7c:	00269693          	slli	a3,a3,0x2
   12a80:	00231313          	slli	t1,t1,0x2
   12a84:	00e78733          	add	a4,a5,a4
   12a88:	01e78f33          	add	t5,a5,t5
   12a8c:	005782b3          	add	t0,a5,t0
   12a90:	00d786b3          	add	a3,a5,a3
   12a94:	00678333          	add	t1,a5,t1
   12a98:	011787b3          	add	a5,a5,a7
   12a9c:	08052883          	lw	a7,128(a0)
   12aa0:	000f2f03          	lw	t5,0(t5)
   12aa4:	0007a783          	lw	a5,0(a5)
   12aa8:	011848b3          	xor	a7,a6,a7
   12aac:	08852803          	lw	a6,136(a0)
   12ab0:	0006a683          	lw	a3,0(a3)
   12ab4:	00032303          	lw	t1,0(t1)
   12ab8:	00078913          	addi	s2,a5,0
   12abc:	01e447b3          	xor	a5,s0,t5
   12ac0:	08452f03          	lw	t5,132(a0)
   12ac4:	01064633          	xor	a2,a2,a6
   12ac8:	01fe4833          	xor	a6,t3,t6
   12acc:	00d84833          	xor	a6,a6,a3
   12ad0:	00030493          	addi	s1,t1,0
   12ad4:	00072303          	lw	t1,0(a4)
   12ad8:	01d8c733          	xor	a4,a7,t4
   12adc:	007746b3          	xor	a3,a4,t2
   12ae0:	0002a283          	lw	t0,0(t0)
   12ae4:	01e7c733          	xor	a4,a5,t5
   12ae8:	00885f13          	srli	t5,a6,0x8
   12aec:	00974733          	xor	a4,a4,s1
   12af0:	0fff7f13          	andi	t5,t5,255
   12af4:	000737b7          	lui	a5,0x73
   12af8:	bb078793          	addi	a5,a5,-1104 # 72bb0 <il_tab>
   12afc:	00674733          	xor	a4,a4,t1
   12b00:	01085893          	srli	a7,a6,0x10
   12b04:	002f1f13          	slli	t5,t5,0x2
   12b08:	00564633          	xor	a2,a2,t0
   12b0c:	0086de13          	srli	t3,a3,0x8
   12b10:	01875293          	srli	t0,a4,0x18
   12b14:	0186d413          	srli	s0,a3,0x18
   12b18:	01e78f33          	add	t5,a5,t5
   12b1c:	0ff8f893          	andi	a7,a7,255
   12b20:	400f2f03          	lw	t5,1024(t5)
   12b24:	0ff6f313          	andi	t1,a3,255
   12b28:	0ffe7e13          	andi	t3,t3,255
   12b2c:	30028293          	addi	t0,t0,768
   12b30:	20088893          	addi	a7,a7,512
   12b34:	30040413          	addi	s0,s0,768
   12b38:	00231313          	slli	t1,t1,0x2
   12b3c:	00229293          	slli	t0,t0,0x2
   12b40:	002e1e13          	slli	t3,t3,0x2
   12b44:	00289893          	slli	a7,a7,0x2
   12b48:	00241413          	slli	s0,s0,0x2
   12b4c:	01c78e33          	add	t3,a5,t3
   12b50:	011788b3          	add	a7,a5,a7
   12b54:	00878433          	add	s0,a5,s0
   12b58:	00678333          	add	t1,a5,t1
   12b5c:	005782b3          	add	t0,a5,t0
   12b60:	01264633          	xor	a2,a2,s2
   12b64:	00032303          	lw	t1,0(t1)
   12b68:	00040913          	addi	s2,s0,0
   12b6c:	0002a283          	lw	t0,0(t0)
   12b70:	000f0413          	addi	s0,t5,0
   12b74:	400e2f03          	lw	t5,1024(t3)
   12b78:	0008ae03          	lw	t3,0(a7)
   12b7c:	0ff77893          	andi	a7,a4,255
   12b80:	00289893          	slli	a7,a7,0x2
   12b84:	011788b3          	add	a7,a5,a7
   12b88:	0008a883          	lw	a7,0(a7)
   12b8c:	005342b3          	xor	t0,t1,t0
   12b90:	09052303          	lw	t1,144(a0)
   12b94:	01065e93          	srli	t4,a2,0x10
   12b98:	0106d693          	srli	a3,a3,0x10
   12b9c:	0062c2b3          	xor	t0,t0,t1
   12ba0:	00088313          	addi	t1,a7,0
   12ba4:	0ff67893          	andi	a7,a2,255
   12ba8:	00289893          	slli	a7,a7,0x2
   12bac:	011788b3          	add	a7,a5,a7
   12bb0:	0008a883          	lw	a7,0(a7)
   12bb4:	01865393          	srli	t2,a2,0x18
   12bb8:	01885f93          	srli	t6,a6,0x18
   12bbc:	00088493          	addi	s1,a7,0
   12bc0:	00875893          	srli	a7,a4,0x8
   12bc4:	01075713          	srli	a4,a4,0x10
   12bc8:	0ffefe93          	andi	t4,t4,255
   12bcc:	0ff6f693          	andi	a3,a3,255
   12bd0:	00865613          	srli	a2,a2,0x8
   12bd4:	0ff77713          	andi	a4,a4,255
   12bd8:	200e8e93          	addi	t4,t4,512
   12bdc:	30038393          	addi	t2,t2,768
   12be0:	300f8f93          	addi	t6,t6,768
   12be4:	0ff87813          	andi	a6,a6,255
   12be8:	20068693          	addi	a3,a3,512
   12bec:	0ff67613          	andi	a2,a2,255
   12bf0:	0ff8f893          	andi	a7,a7,255
   12bf4:	20070713          	addi	a4,a4,512
   12bf8:	00271713          	slli	a4,a4,0x2
   12bfc:	002e9e93          	slli	t4,t4,0x2
   12c00:	00239393          	slli	t2,t2,0x2
   12c04:	002f9f93          	slli	t6,t6,0x2
   12c08:	00281813          	slli	a6,a6,0x2
   12c0c:	00269693          	slli	a3,a3,0x2
   12c10:	00261613          	slli	a2,a2,0x2
   12c14:	00289893          	slli	a7,a7,0x2
   12c18:	01078833          	add	a6,a5,a6
   12c1c:	00d786b3          	add	a3,a5,a3
   12c20:	00c78633          	add	a2,a5,a2
   12c24:	01d78eb3          	add	t4,a5,t4
   12c28:	007783b3          	add	t2,a5,t2
   12c2c:	01f78fb3          	add	t6,a5,t6
   12c30:	011788b3          	add	a7,a5,a7
   12c34:	00e787b3          	add	a5,a5,a4
   12c38:	09452703          	lw	a4,148(a0)
   12c3c:	000eae83          	lw	t4,0(t4)
   12c40:	0003a383          	lw	t2,0(t2)
   12c44:	000faf83          	lw	t6,0(t6)
   12c48:	0082c2b3          	xor	t0,t0,s0
   12c4c:	00070413          	addi	s0,a4,0
   12c50:	09852703          	lw	a4,152(a0)
   12c54:	01f4cfb3          	xor	t6,s1,t6
   12c58:	007343b3          	xor	t2,t1,t2
   12c5c:	00070493          	addi	s1,a4,0
   12c60:	00082703          	lw	a4,0(a6)
   12c64:	00092803          	lw	a6,0(s2)
   12c68:	09c52303          	lw	t1,156(a0)
   12c6c:	4008a883          	lw	a7,1024(a7)
   12c70:	00080913          	addi	s2,a6,0
   12c74:	40062803          	lw	a6,1024(a2)
   12c78:	0006a503          	lw	a0,0(a3)
   12c7c:	01274733          	xor	a4,a4,s2
   12c80:	0007a783          	lw	a5,0(a5)
   12c84:	009fc6b3          	xor	a3,t6,s1
   12c88:	0083c633          	xor	a2,t2,s0
   12c8c:	00674733          	xor	a4,a4,t1
   12c90:	00812483          	lw	s1,8(sp)
   12c94:	00412903          	lw	s2,4(sp)
   12c98:	00012983          	lw	s3,0(sp)
   12c9c:	01074733          	xor	a4,a4,a6
   12ca0:	01e64633          	xor	a2,a2,t5
   12ca4:	0116c6b3          	xor	a3,a3,a7
   12ca8:	01d2c833          	xor	a6,t0,t4
   12cac:	01c64e33          	xor	t3,a2,t3
   12cb0:	00a6c6b3          	xor	a3,a3,a0
   12cb4:	00f74733          	xor	a4,a4,a5
   12cb8:	00c12403          	lw	s0,12(sp)
   12cbc:	0105a023          	sw	a6,0(a1)
   12cc0:	01c5a223          	sw	t3,4(a1)
   12cc4:	00d5a423          	sw	a3,8(a1)
   12cc8:	00e5a623          	sw	a4,12(a1)
   12ccc:	00100513          	addi	a0,zero,1
   12cd0:	01010113          	addi	sp,sp,16
   12cd4:	00008067          	jalr	zero,0(ra)
   12cd8:	018e5513          	srli	a0,t3,0x18
   12cdc:	00875893          	srli	a7,a4,0x8
   12ce0:	30050513          	addi	a0,a0,768
   12ce4:	000757b7          	lui	a5,0x75
   12ce8:	0ff8f893          	andi	a7,a7,255
   12cec:	bb078793          	addi	a5,a5,-1104 # 74bb0 <it_tab>
   12cf0:	00251513          	slli	a0,a0,0x2
   12cf4:	00289893          	slli	a7,a7,0x2
   12cf8:	0ff87293          	andi	t0,a6,255
   12cfc:	0186d313          	srli	t1,a3,0x18
   12d00:	011788b3          	add	a7,a5,a7
   12d04:	00a78533          	add	a0,a5,a0
   12d08:	4008a383          	lw	t2,1024(a7)
   12d0c:	00052503          	lw	a0,0(a0)
   12d10:	0ff6ff93          	andi	t6,a3,255
   12d14:	0106d893          	srli	a7,a3,0x10
   12d18:	00229293          	slli	t0,t0,0x2
   12d1c:	30030313          	addi	t1,t1,768
   12d20:	002f9f93          	slli	t6,t6,0x2
   12d24:	005782b3          	add	t0,a5,t0
   12d28:	00231313          	slli	t1,t1,0x2
   12d2c:	0ff8f893          	andi	a7,a7,255
   12d30:	0002a283          	lw	t0,0(t0)
   12d34:	01f78fb3          	add	t6,a5,t6
   12d38:	00678333          	add	t1,a5,t1
   12d3c:	20088893          	addi	a7,a7,512
   12d40:	00050413          	addi	s0,a0,0
   12d44:	00289893          	slli	a7,a7,0x2
   12d48:	000fa503          	lw	a0,0(t6)
   12d4c:	00032f83          	lw	t6,0(t1)
   12d50:	0086d313          	srli	t1,a3,0x8
   12d54:	11862683          	lw	a3,280(a2)
   12d58:	011788b3          	add	a7,a5,a7
   12d5c:	0008a883          	lw	a7,0(a7)
   12d60:	0082c2b3          	xor	t0,t0,s0
   12d64:	01875f13          	srli	t5,a4,0x18
   12d68:	01885e93          	srli	t4,a6,0x18
   12d6c:	00d2c6b3          	xor	a3,t0,a3
   12d70:	0076c6b3          	xor	a3,a3,t2
   12d74:	300f0f13          	addi	t5,t5,768
   12d78:	300e8e93          	addi	t4,t4,768
   12d7c:	0ff37313          	andi	t1,t1,255
   12d80:	0116c6b3          	xor	a3,a3,a7
   12d84:	0ff77293          	andi	t0,a4,255
   12d88:	0ffe7893          	andi	a7,t3,255
   12d8c:	002f1f13          	slli	t5,t5,0x2
   12d90:	002e9e93          	slli	t4,t4,0x2
   12d94:	00231313          	slli	t1,t1,0x2
   12d98:	01e78f33          	add	t5,a5,t5
   12d9c:	01d78eb3          	add	t4,a5,t4
   12da0:	00678333          	add	t1,a5,t1
   12da4:	00289893          	slli	a7,a7,0x2
   12da8:	00229293          	slli	t0,t0,0x2
   12dac:	00912423          	sw	s1,8(sp)
   12db0:	005782b3          	add	t0,a5,t0
   12db4:	00050493          	addi	s1,a0,0
   12db8:	000f2503          	lw	a0,0(t5)
   12dbc:	000eaf03          	lw	t5,0(t4)
   12dc0:	40032e83          	lw	t4,1024(t1)
   12dc4:	01075313          	srli	t1,a4,0x10
   12dc8:	01178733          	add	a4,a5,a7
   12dcc:	0002a883          	lw	a7,0(t0)
   12dd0:	00072283          	lw	t0,0(a4)
   12dd4:	010e5713          	srli	a4,t3,0x10
   12dd8:	0ff37313          	andi	t1,t1,255
   12ddc:	0ff77713          	andi	a4,a4,255
   12de0:	20030313          	addi	t1,t1,512
   12de4:	20070713          	addi	a4,a4,512
   12de8:	01e8c8b3          	xor	a7,a7,t5
   12dec:	00231313          	slli	t1,t1,0x2
   12df0:	008e5f13          	srli	t5,t3,0x8
   12df4:	00271713          	slli	a4,a4,0x2
   12df8:	00678333          	add	t1,a5,t1
   12dfc:	0fff7f13          	andi	t5,t5,255
   12e00:	00e78733          	add	a4,a5,a4
   12e04:	002f1e13          	slli	t3,t5,0x2
   12e08:	00072f03          	lw	t5,0(a4)
   12e0c:	01f2c733          	xor	a4,t0,t6
   12e10:	00032f83          	lw	t6,0(t1)
   12e14:	00885313          	srli	t1,a6,0x8
   12e18:	01085813          	srli	a6,a6,0x10
   12e1c:	0ff87813          	andi	a6,a6,255
   12e20:	11c62383          	lw	t2,284(a2)
   12e24:	0ff37313          	andi	t1,t1,255
   12e28:	20080813          	addi	a6,a6,512
   12e2c:	00231313          	slli	t1,t1,0x2
   12e30:	00281813          	slli	a6,a6,0x2
   12e34:	00678333          	add	t1,a5,t1
   12e38:	01078833          	add	a6,a5,a6
   12e3c:	00774733          	xor	a4,a4,t2
   12e40:	40032383          	lw	t2,1024(t1)
   12e44:	00082303          	lw	t1,0(a6)
   12e48:	12062803          	lw	a6,288(a2)
   12e4c:	00a4c533          	xor	a0,s1,a0
   12e50:	01c78e33          	add	t3,a5,t3
   12e54:	400e2e03          	lw	t3,1024(t3)
   12e58:	01054533          	xor	a0,a0,a6
   12e5c:	12462803          	lw	a6,292(a2)
   12e60:	01c54533          	xor	a0,a0,t3
   12e64:	00654533          	xor	a0,a0,t1
   12e68:	0108c8b3          	xor	a7,a7,a6
   12e6c:	01d8c8b3          	xor	a7,a7,t4
   12e70:	01e8c8b3          	xor	a7,a7,t5
   12e74:	00774733          	xor	a4,a4,t2
   12e78:	01855f13          	srli	t5,a0,0x18
   12e7c:	01f74733          	xor	a4,a4,t6
   12e80:	300f0f13          	addi	t5,t5,768
   12e84:	0ff77f93          	andi	t6,a4,255
   12e88:	002f1f13          	slli	t5,t5,0x2
   12e8c:	0108de13          	srli	t3,a7,0x10
   12e90:	002f9f93          	slli	t6,t6,0x2
   12e94:	01e78f33          	add	t5,a5,t5
   12e98:	000f2f03          	lw	t5,0(t5)
   12e9c:	0086d293          	srli	t0,a3,0x8
   12ea0:	0ffe7e13          	andi	t3,t3,255
   12ea4:	01f78fb3          	add	t6,a5,t6
   12ea8:	000faf83          	lw	t6,0(t6)
   12eac:	0ff2f293          	andi	t0,t0,255
   12eb0:	200e0e13          	addi	t3,t3,512
   12eb4:	00229293          	slli	t0,t0,0x2
   12eb8:	002e1e13          	slli	t3,t3,0x2
   12ebc:	01055813          	srli	a6,a0,0x10
   12ec0:	005782b3          	add	t0,a5,t0
   12ec4:	01c78e33          	add	t3,a5,t3
   12ec8:	000f0413          	addi	s0,t5,0
   12ecc:	4002a383          	lw	t2,1024(t0)
   12ed0:	0088d313          	srli	t1,a7,0x8
   12ed4:	000e2283          	lw	t0,0(t3)
   12ed8:	01875e93          	srli	t4,a4,0x18
   12edc:	008fce33          	xor	t3,t6,s0
   12ee0:	0ff87813          	andi	a6,a6,255
   12ee4:	12c62f83          	lw	t6,300(a2)
   12ee8:	0ff37313          	andi	t1,t1,255
   12eec:	300e8e93          	addi	t4,t4,768
   12ef0:	20080813          	addi	a6,a6,512
   12ef4:	00231313          	slli	t1,t1,0x2
   12ef8:	002e9e93          	slli	t4,t4,0x2
   12efc:	00281813          	slli	a6,a6,0x2
   12f00:	00678333          	add	t1,a5,t1
   12f04:	01d78eb3          	add	t4,a5,t4
   12f08:	01078833          	add	a6,a5,a6
   12f0c:	01fe4e33          	xor	t3,t3,t6
   12f10:	40032f03          	lw	t5,1024(t1)
   12f14:	007e4e33          	xor	t3,t3,t2
   12f18:	000ea303          	lw	t1,0(t4)
   12f1c:	00082e83          	lw	t4,0(a6)
   12f20:	0188d813          	srli	a6,a7,0x18
   12f24:	30080813          	addi	a6,a6,768
   12f28:	005e4e33          	xor	t3,t3,t0
   12f2c:	0ff6f293          	andi	t0,a3,255
   12f30:	00281813          	slli	a6,a6,0x2
   12f34:	00229293          	slli	t0,t0,0x2
   12f38:	01078833          	add	a6,a5,a6
   12f3c:	005782b3          	add	t0,a5,t0
   12f40:	00082803          	lw	a6,0(a6)
   12f44:	01212223          	sw	s2,4(sp)
   12f48:	01312023          	sw	s3,0(sp)
   12f4c:	0002a283          	lw	t0,0(t0)
   12f50:	12862383          	lw	t2,296(a2)
   12f54:	0186df93          	srli	t6,a3,0x18
   12f58:	0062c2b3          	xor	t0,t0,t1
   12f5c:	0ff57313          	andi	t1,a0,255
   12f60:	00231313          	slli	t1,t1,0x2
   12f64:	00678333          	add	t1,a5,t1
   12f68:	0072c2b3          	xor	t0,t0,t2
   12f6c:	0ff8f893          	andi	a7,a7,255
   12f70:	00032383          	lw	t2,0(t1)
   12f74:	300f8f93          	addi	t6,t6,768
   12f78:	00875313          	srli	t1,a4,0x8
   12f7c:	00289893          	slli	a7,a7,0x2
   12f80:	002f9f93          	slli	t6,t6,0x2
   12f84:	0106d693          	srli	a3,a3,0x10
   12f88:	01075713          	srli	a4,a4,0x10
   12f8c:	01f78fb3          	add	t6,a5,t6
   12f90:	011788b3          	add	a7,a5,a7
   12f94:	0ff6f693          	andi	a3,a3,255
   12f98:	00855513          	srli	a0,a0,0x8
   12f9c:	0ff77713          	andi	a4,a4,255
   12fa0:	0008a883          	lw	a7,0(a7)
   12fa4:	0103c3b3          	xor	t2,t2,a6
   12fa8:	20068693          	addi	a3,a3,512
   12fac:	01e2c833          	xor	a6,t0,t5
   12fb0:	0ff57513          	andi	a0,a0,255
   12fb4:	000fa283          	lw	t0,0(t6)
   12fb8:	0ff37313          	andi	t1,t1,255
   12fbc:	20070713          	addi	a4,a4,512
   12fc0:	00269693          	slli	a3,a3,0x2
   12fc4:	00251513          	slli	a0,a0,0x2
   12fc8:	00231313          	slli	t1,t1,0x2
   12fcc:	00271713          	slli	a4,a4,0x2
   12fd0:	00d786b3          	add	a3,a5,a3
   12fd4:	00a78533          	add	a0,a5,a0
   12fd8:	00678333          	add	t1,a5,t1
   12fdc:	00e78733          	add	a4,a5,a4
   12fe0:	40052f03          	lw	t5,1024(a0)
   12fe4:	40032f83          	lw	t6,1024(t1)
   12fe8:	00072503          	lw	a0,0(a4)
   12fec:	0006a303          	lw	t1,0(a3)
   12ff0:	0058c733          	xor	a4,a7,t0
   12ff4:	13062683          	lw	a3,304(a2)
   12ff8:	13462883          	lw	a7,308(a2)
   12ffc:	01d84833          	xor	a6,a6,t4
   13000:	00d3c6b3          	xor	a3,t2,a3
   13004:	01174733          	xor	a4,a4,a7
   13008:	01f6c6b3          	xor	a3,a3,t6
   1300c:	01e74733          	xor	a4,a4,t5
   13010:	00a74733          	xor	a4,a4,a0
   13014:	0066c6b3          	xor	a3,a3,t1
   13018:	13860513          	addi	a0,a2,312
   1301c:	008e5613          	srli	a2,t3,0x8
   13020:	0ff67613          	andi	a2,a2,255
   13024:	018e5f13          	srli	t5,t3,0x18
   13028:	01875893          	srli	a7,a4,0x18
   1302c:	10060613          	addi	a2,a2,256
   13030:	0ff87293          	andi	t0,a6,255
   13034:	0ff6ff93          	andi	t6,a3,255
   13038:	300f0f13          	addi	t5,t5,768
   1303c:	30088893          	addi	a7,a7,768
   13040:	00261613          	slli	a2,a2,0x2
   13044:	00c78633          	add	a2,a5,a2
   13048:	002f1f13          	slli	t5,t5,0x2
   1304c:	00229293          	slli	t0,t0,0x2
   13050:	00289893          	slli	a7,a7,0x2
   13054:	002f9f93          	slli	t6,t6,0x2
   13058:	00062383          	lw	t2,0(a2)
   1305c:	00875313          	srli	t1,a4,0x8
   13060:	0186d613          	srli	a2,a3,0x18
   13064:	01e78f33          	add	t5,a5,t5
   13068:	005782b3          	add	t0,a5,t0
   1306c:	011788b3          	add	a7,a5,a7
   13070:	01f78fb3          	add	t6,a5,t6
   13074:	000f2f03          	lw	t5,0(t5)
   13078:	000faf83          	lw	t6,0(t6)
   1307c:	0002a283          	lw	t0,0(t0)
   13080:	0008a883          	lw	a7,0(a7)
   13084:	0ff37313          	andi	t1,t1,255
   13088:	30060613          	addi	a2,a2,768
   1308c:	10030313          	addi	t1,t1,256
   13090:	00261613          	slli	a2,a2,0x2
   13094:	00c78633          	add	a2,a5,a2
   13098:	00231313          	slli	t1,t1,0x2
   1309c:	01e2c2b3          	xor	t0,t0,t5
   130a0:	011fc8b3          	xor	a7,t6,a7
   130a4:	00052f03          	lw	t5,0(a0)
   130a8:	00062f83          	lw	t6,0(a2)
   130ac:	00678333          	add	t1,a5,t1
   130b0:	0106d613          	srli	a2,a3,0x10
   130b4:	00032303          	lw	t1,0(t1)
   130b8:	0ff67613          	andi	a2,a2,255
   130bc:	20060613          	addi	a2,a2,512
   130c0:	01e2c2b3          	xor	t0,t0,t5
   130c4:	00261613          	slli	a2,a2,0x2
   130c8:	0062c2b3          	xor	t0,t0,t1
   130cc:	00c78633          	add	a2,a5,a2
   130d0:	0086d313          	srli	t1,a3,0x8
   130d4:	0ff37313          	andi	t1,t1,255
   130d8:	00062683          	lw	a3,0(a2)
   130dc:	00852603          	lw	a2,8(a0)
   130e0:	10030313          	addi	t1,t1,256
   130e4:	00231313          	slli	t1,t1,0x2
   130e8:	00678333          	add	t1,a5,t1
   130ec:	00c8c8b3          	xor	a7,a7,a2
   130f0:	01085613          	srli	a2,a6,0x10
   130f4:	00d2c6b3          	xor	a3,t0,a3
   130f8:	00032f03          	lw	t5,0(t1)
   130fc:	0ffe7293          	andi	t0,t3,255
   13100:	010e5313          	srli	t1,t3,0x10
   13104:	0ff67e13          	andi	t3,a2,255
   13108:	01885e93          	srli	t4,a6,0x18
   1310c:	200e0e13          	addi	t3,t3,512
   13110:	00885813          	srli	a6,a6,0x8
   13114:	0ff87813          	andi	a6,a6,255
   13118:	002e1e13          	slli	t3,t3,0x2
   1311c:	00229613          	slli	a2,t0,0x2
   13120:	10080813          	addi	a6,a6,256
   13124:	01c78e33          	add	t3,a5,t3
   13128:	000e2e03          	lw	t3,0(t3)
   1312c:	00c78633          	add	a2,a5,a2
   13130:	00281813          	slli	a6,a6,0x2
   13134:	00062603          	lw	a2,0(a2)
   13138:	01078833          	add	a6,a5,a6
   1313c:	0078c8b3          	xor	a7,a7,t2
   13140:	00082383          	lw	t2,0(a6)
   13144:	00452803          	lw	a6,4(a0)
   13148:	01c8c8b3          	xor	a7,a7,t3
   1314c:	300e8e93          	addi	t4,t4,768
   13150:	0ff77e13          	andi	t3,a4,255
   13154:	01f64633          	xor	a2,a2,t6
   13158:	002e1e13          	slli	t3,t3,0x2
   1315c:	002e9e93          	slli	t4,t4,0x2
   13160:	01064633          	xor	a2,a2,a6
   13164:	01d78eb3          	add	t4,a5,t4
   13168:	01075813          	srli	a6,a4,0x10
   1316c:	0ff37313          	andi	t1,t1,255
   13170:	01c78733          	add	a4,a5,t3
   13174:	000eae83          	lw	t4,0(t4)
   13178:	00072703          	lw	a4,0(a4)
   1317c:	20030313          	addi	t1,t1,512
   13180:	0ff87813          	andi	a6,a6,255
   13184:	00c52e03          	lw	t3,12(a0)
   13188:	00231313          	slli	t1,t1,0x2
   1318c:	20080813          	addi	a6,a6,512
   13190:	00678333          	add	t1,a5,t1
   13194:	00281813          	slli	a6,a6,0x2
   13198:	00032303          	lw	t1,0(t1)
   1319c:	01d74733          	xor	a4,a4,t4
   131a0:	01078833          	add	a6,a5,a6
   131a4:	00082803          	lw	a6,0(a6)
   131a8:	01c74733          	xor	a4,a4,t3
   131ac:	0188de13          	srli	t3,a7,0x18
   131b0:	01e74733          	xor	a4,a4,t5
   131b4:	300e0e13          	addi	t3,t3,768
   131b8:	00674733          	xor	a4,a4,t1
   131bc:	0086d293          	srli	t0,a3,0x8
   131c0:	00764633          	xor	a2,a2,t2
   131c4:	002e1e13          	slli	t3,t3,0x2
   131c8:	01064633          	xor	a2,a2,a6
   131cc:	0ff2f293          	andi	t0,t0,255
   131d0:	00875313          	srli	t1,a4,0x8
   131d4:	01c78e33          	add	t3,a5,t3
   131d8:	000e2e03          	lw	t3,0(t3)
   131dc:	01865f93          	srli	t6,a2,0x18
   131e0:	10028f13          	addi	t5,t0,256
   131e4:	0ff37313          	andi	t1,t1,255
   131e8:	0ff67293          	andi	t0,a2,255
   131ec:	01075e93          	srli	t4,a4,0x10
   131f0:	10030313          	addi	t1,t1,256
   131f4:	300f8f93          	addi	t6,t6,768
   131f8:	00229293          	slli	t0,t0,0x2
   131fc:	005782b3          	add	t0,a5,t0
   13200:	0ffefe93          	andi	t4,t4,255
   13204:	002f1f13          	slli	t5,t5,0x2
   13208:	00231313          	slli	t1,t1,0x2
   1320c:	002f9f93          	slli	t6,t6,0x2
   13210:	01e78f33          	add	t5,a5,t5
   13214:	00678333          	add	t1,a5,t1
   13218:	01f78fb3          	add	t6,a5,t6
   1321c:	000e0413          	addi	s0,t3,0
   13220:	200e8e93          	addi	t4,t4,512
   13224:	0002ae03          	lw	t3,0(t0)
   13228:	000f2383          	lw	t2,0(t5)
   1322c:	002e9e93          	slli	t4,t4,0x2
   13230:	00032f03          	lw	t5,0(t1)
   13234:	000fa303          	lw	t1,0(t6)
   13238:	01452f83          	lw	t6,20(a0)
   1323c:	01d78eb3          	add	t4,a5,t4
   13240:	000ea283          	lw	t0,0(t4)
   13244:	008e4e33          	xor	t3,t3,s0
   13248:	01fe4e33          	xor	t3,t3,t6
   1324c:	007e4e33          	xor	t3,t3,t2
   13250:	005e4e33          	xor	t3,t3,t0
   13254:	0ff6f293          	andi	t0,a3,255
   13258:	0108d813          	srli	a6,a7,0x10
   1325c:	00229293          	slli	t0,t0,0x2
   13260:	0ff87813          	andi	a6,a6,255
   13264:	005782b3          	add	t0,a5,t0
   13268:	0002a283          	lw	t0,0(t0)
   1326c:	20080813          	addi	a6,a6,512
   13270:	00281813          	slli	a6,a6,0x2
   13274:	01078833          	add	a6,a5,a6
   13278:	01052383          	lw	t2,16(a0)
   1327c:	00082e83          	lw	t4,0(a6)
   13280:	0062c2b3          	xor	t0,t0,t1
   13284:	01875813          	srli	a6,a4,0x18
   13288:	0ff8f313          	andi	t1,a7,255
   1328c:	30080813          	addi	a6,a6,768
   13290:	00231313          	slli	t1,t1,0x2
   13294:	00678333          	add	t1,a5,t1
   13298:	00281813          	slli	a6,a6,0x2
   1329c:	0072c2b3          	xor	t0,t0,t2
   132a0:	0186df93          	srli	t6,a3,0x18
   132a4:	00032383          	lw	t2,0(t1)
   132a8:	01078833          	add	a6,a5,a6
   132ac:	00865313          	srli	t1,a2,0x8
   132b0:	0106d693          	srli	a3,a3,0x10
   132b4:	0088d893          	srli	a7,a7,0x8
   132b8:	00082803          	lw	a6,0(a6)
   132bc:	0ff77713          	andi	a4,a4,255
   132c0:	300f8f93          	addi	t6,t6,768
   132c4:	0ff6f693          	andi	a3,a3,255
   132c8:	0ff8f893          	andi	a7,a7,255
   132cc:	0ff37313          	andi	t1,t1,255
   132d0:	00271713          	slli	a4,a4,0x2
   132d4:	002f9f93          	slli	t6,t6,0x2
   132d8:	20068693          	addi	a3,a3,512
   132dc:	10088893          	addi	a7,a7,256
   132e0:	01065613          	srli	a2,a2,0x10
   132e4:	10030313          	addi	t1,t1,256
   132e8:	01f78fb3          	add	t6,a5,t6
   132ec:	00e78733          	add	a4,a5,a4
   132f0:	00269693          	slli	a3,a3,0x2
   132f4:	00289893          	slli	a7,a7,0x2
   132f8:	0ff67613          	andi	a2,a2,255
   132fc:	00231313          	slli	t1,t1,0x2
   13300:	00072703          	lw	a4,0(a4)
   13304:	00d786b3          	add	a3,a5,a3
   13308:	011788b3          	add	a7,a5,a7
   1330c:	0103c3b3          	xor	t2,t2,a6
   13310:	00678333          	add	t1,a5,t1
   13314:	01e2c833          	xor	a6,t0,t5
   13318:	20060613          	addi	a2,a2,512
   1331c:	000fa283          	lw	t0,0(t6)
   13320:	0008af03          	lw	t5,0(a7)
   13324:	00032f83          	lw	t6,0(t1)
   13328:	0006a883          	lw	a7,0(a3)
   1332c:	01c52303          	lw	t1,28(a0)
   13330:	01852683          	lw	a3,24(a0)
   13334:	00261613          	slli	a2,a2,0x2
   13338:	00c78633          	add	a2,a5,a2
   1333c:	00062603          	lw	a2,0(a2)
   13340:	00574733          	xor	a4,a4,t0
   13344:	00d3c6b3          	xor	a3,t2,a3
   13348:	00674733          	xor	a4,a4,t1
   1334c:	01f6c6b3          	xor	a3,a3,t6
   13350:	01e74733          	xor	a4,a4,t5
   13354:	01d84833          	xor	a6,a6,t4
   13358:	0116c6b3          	xor	a3,a3,a7
   1335c:	00c74733          	xor	a4,a4,a2
   13360:	02050513          	addi	a0,a0,32
   13364:	86dfe06f          	jal	zero,11bd0 <decrypt.part.0+0x78>
   13368:	000757b7          	lui	a5,0x75
   1336c:	00912423          	sw	s1,8(sp)
   13370:	01212223          	sw	s2,4(sp)
   13374:	01312023          	sw	s3,0(sp)
   13378:	bb078793          	addi	a5,a5,-1104 # 74bb0 <it_tab>
   1337c:	ca1ff06f          	jal	zero,1301c <decrypt.part.0+0x14c4>

00013380 <dec_buffer.part.0>:
   13380:	f7010113          	addi	sp,sp,-144
   13384:	08812423          	sw	s0,136(sp)
   13388:	07312e23          	sw	s3,124(sp)
   1338c:	07412c23          	sw	s4,120(sp)
   13390:	07912223          	sw	s9,100(sp)
   13394:	00050413          	addi	s0,a0,0
   13398:	08112623          	sw	ra,140(sp)
   1339c:	09212023          	sw	s2,128(sp)
   133a0:	07612823          	sw	s6,112(sp)
   133a4:	07a12023          	sw	s10,96(sp)
   133a8:	05b12e23          	sw	s11,92(sp)
   133ac:	00357513          	andi	a0,a0,3
   133b0:	00d12223          	sw	a3,4(sp)
   133b4:	00f12623          	sw	a5,12(sp)
   133b8:	00058993          	addi	s3,a1,0
   133bc:	00060c93          	addi	s9,a2,0
   133c0:	00070a13          	addi	s4,a4,0
   133c4:	48051063          	bne	a0,zero,13844 <dec_buffer.part.0+0x4c4>
   133c8:	00042603          	lw	a2,0(s0)
   133cc:	00442683          	lw	a3,4(s0)
   133d0:	00842703          	lw	a4,8(s0)
   133d4:	00c42783          	lw	a5,12(s0)
   133d8:	00c12823          	sw	a2,16(sp)
   133dc:	00d12a23          	sw	a3,20(sp)
   133e0:	00e12c23          	sw	a4,24(sp)
   133e4:	00f12e23          	sw	a5,28(sp)
   133e8:	00347793          	andi	a5,s0,3
   133ec:	3c079a63          	bne	a5,zero,137c0 <dec_buffer.part.0+0x440>
   133f0:	01042603          	lw	a2,16(s0)
   133f4:	01442683          	lw	a3,20(s0)
   133f8:	01842703          	lw	a4,24(s0)
   133fc:	01c42783          	lw	a5,28(s0)
   13400:	02c12023          	sw	a2,32(sp)
   13404:	02d12223          	sw	a3,36(sp)
   13408:	02e12423          	sw	a4,40(sp)
   1340c:	02f12623          	sw	a5,44(sp)
   13410:	208cc783          	lbu	a5,520(s9)
   13414:	0027f793          	andi	a5,a5,2
   13418:	00078a63          	beq	a5,zero,1342c <dec_buffer.part.0+0xac>
   1341c:	000c8613          	addi	a2,s9,0
   13420:	04010593          	addi	a1,sp,64
   13424:	02010513          	addi	a0,sp,32
   13428:	f30fe0ef          	jal	ra,11b58 <decrypt.part.0>
   1342c:	04012b03          	lw	s6,64(sp)
   13430:	04c12783          	lw	a5,76(sp)
   13434:	01012803          	lw	a6,16(sp)
   13438:	01c12603          	lw	a2,28(sp)
   1343c:	04412503          	lw	a0,68(sp)
   13440:	04812703          	lw	a4,72(sp)
   13444:	01412683          	lw	a3,20(sp)
   13448:	01812583          	lw	a1,24(sp)
   1344c:	010b4b33          	xor	s6,s6,a6
   13450:	00c7c7b3          	xor	a5,a5,a2
   13454:	00a6c6b3          	xor	a3,a3,a0
   13458:	00b74733          	xor	a4,a4,a1
   1345c:	04f12623          	sw	a5,76(sp)
   13460:	00fb7793          	andi	a5,s6,15
   13464:	05612023          	sw	s6,64(sp)
   13468:	04d12223          	sw	a3,68(sp)
   1346c:	04e12423          	sw	a4,72(sp)
   13470:	02000d13          	addi	s10,zero,32
   13474:	00f12423          	sw	a5,8(sp)
   13478:	453d7863          	bgeu	s10,s3,138c8 <dec_buffer.part.0+0x548>
   1347c:	08912223          	sw	s1,132(sp)
   13480:	fe098493          	addi	s1,s3,-32
   13484:	ff04f493          	andi	s1,s1,-16
   13488:	07512a23          	sw	s5,116(sp)
   1348c:	07712623          	sw	s7,108(sp)
   13490:	07812423          	sw	s8,104(sp)
   13494:	01a484b3          	add	s1,s1,s10
   13498:	01a40433          	add	s0,s0,s10
   1349c:	00000693          	addi	a3,zero,0
   134a0:	00f00613          	addi	a2,zero,15
   134a4:	04010b13          	addi	s6,sp,64
   134a8:	1c9d0863          	beq	s10,s1,13678 <dec_buffer.part.0+0x2f8>
   134ac:	00d60db3          	add	s11,a2,a3
   134b0:	2fba6663          	bltu	s4,s11,1379c <dec_buffer.part.0+0x41c>
   134b4:	00144883          	lbu	a7,1(s0)
   134b8:	00544503          	lbu	a0,5(s0)
   134bc:	00944703          	lbu	a4,9(s0)
   134c0:	00044f03          	lbu	t5,0(s0)
   134c4:	00444e83          	lbu	t4,4(s0)
   134c8:	00244e03          	lbu	t3,2(s0)
   134cc:	00644303          	lbu	t1,6(s0)
   134d0:	00d44783          	lbu	a5,13(s0)
   134d4:	00844f83          	lbu	t6,8(s0)
   134d8:	00a44803          	lbu	a6,10(s0)
   134dc:	031108a3          	sb	a7,49(sp)
   134e0:	00889b93          	slli	s7,a7,0x8
   134e4:	00851893          	slli	a7,a0,0x8
   134e8:	00412583          	lw	a1,4(sp)
   134ec:	017f6bb3          	or	s7,t5,s7
   134f0:	03e10823          	sb	t5,48(sp)
   134f4:	03c10923          	sb	t3,50(sp)
   134f8:	00c44f03          	lbu	t5,12(s0)
   134fc:	010e1e13          	slli	t3,t3,0x10
   13500:	02a10aa3          	sb	a0,53(sp)
   13504:	011ee8b3          	or	a7,t4,a7
   13508:	03d10a23          	sb	t4,52(sp)
   1350c:	02610b23          	sb	t1,54(sp)
   13510:	00e44e83          	lbu	t4,14(s0)
   13514:	01031313          	slli	t1,t1,0x10
   13518:	00871513          	slli	a0,a4,0x8
   1351c:	01cbebb3          	or	s7,s7,t3
   13520:	0068e8b3          	or	a7,a7,t1
   13524:	00344e03          	lbu	t3,3(s0)
   13528:	00744303          	lbu	t1,7(s0)
   1352c:	02e10ca3          	sb	a4,57(sp)
   13530:	03010d23          	sb	a6,58(sp)
   13534:	00b44703          	lbu	a4,11(s0)
   13538:	01081813          	slli	a6,a6,0x10
   1353c:	02f10ea3          	sb	a5,61(sp)
   13540:	00879c13          	slli	s8,a5,0x8
   13544:	00afe533          	or	a0,t6,a0
   13548:	01000793          	addi	a5,zero,16
   1354c:	01056533          	or	a0,a0,a6
   13550:	40c787b3          	sub	a5,a5,a2
   13554:	00f44803          	lbu	a6,15(s0)
   13558:	03d10f23          	sb	t4,62(sp)
   1355c:	00d586b3          	add	a3,a1,a3
   13560:	010e9e93          	slli	t4,t4,0x10
   13564:	018f6c33          	or	s8,t5,s8
   13568:	00fb07b3          	add	a5,s6,a5
   1356c:	03c109a3          	sb	t3,51(sp)
   13570:	02610ba3          	sb	t1,55(sp)
   13574:	02e10da3          	sb	a4,59(sp)
   13578:	01dc6c33          	or	s8,s8,t4
   1357c:	03f10c23          	sb	t6,56(sp)
   13580:	03e10e23          	sb	t5,60(sp)
   13584:	00f6eeb3          	or	t4,a3,a5
   13588:	018e1e13          	slli	t3,t3,0x18
   1358c:	01831313          	slli	t1,t1,0x18
   13590:	01871713          	slli	a4,a4,0x18
   13594:	03010fa3          	sb	a6,63(sp)
   13598:	003efe93          	andi	t4,t4,3
   1359c:	01881813          	slli	a6,a6,0x18
   135a0:	010d0d13          	addi	s10,s10,16
   135a4:	01cbebb3          	or	s7,s7,t3
   135a8:	0068eab3          	or	s5,a7,t1
   135ac:	00e56933          	or	s2,a0,a4
   135b0:	010c6c33          	or	s8,s8,a6
   135b4:	100e9863          	bne	t4,zero,136c4 <dec_buffer.part.0+0x344>
   135b8:	01c67e13          	andi	t3,a2,28
   135bc:	01c78833          	add	a6,a5,t3
   135c0:	00068713          	addi	a4,a3,0
   135c4:	0007a503          	lw	a0,0(a5)
   135c8:	00478793          	addi	a5,a5,4
   135cc:	00470713          	addi	a4,a4,4
   135d0:	fea72e23          	sw	a0,-4(a4)
   135d4:	fef818e3          	bne	a6,a5,135c4 <dec_buffer.part.0+0x244>
   135d8:	03c60063          	beq	a2,t3,135f8 <dec_buffer.part.0+0x278>
   135dc:	00084783          	lbu	a5,0(a6)
   135e0:	01c68e33          	add	t3,a3,t3
   135e4:	00fe0023          	sb	a5,0(t3)
   135e8:	00184783          	lbu	a5,1(a6)
   135ec:	00fe00a3          	sb	a5,1(t3)
   135f0:	00284783          	lbu	a5,2(a6)
   135f4:	00fe0123          	sb	a5,2(t3)
   135f8:	208cc783          	lbu	a5,520(s9)
   135fc:	0027f793          	andi	a5,a5,2
   13600:	00078a63          	beq	a5,zero,13614 <dec_buffer.part.0+0x294>
   13604:	000c8613          	addi	a2,s9,0
   13608:	000b0593          	addi	a1,s6,0
   1360c:	03010513          	addi	a0,sp,48
   13610:	d48fe0ef          	jal	ra,11b58 <decrypt.part.0>
   13614:	04412603          	lw	a2,68(sp)
   13618:	02412e83          	lw	t4,36(sp)
   1361c:	04812683          	lw	a3,72(sp)
   13620:	02812e03          	lw	t3,40(sp)
   13624:	04c12703          	lw	a4,76(sp)
   13628:	02c12803          	lw	a6,44(sp)
   1362c:	04012783          	lw	a5,64(sp)
   13630:	02012503          	lw	a0,32(sp)
   13634:	01d64633          	xor	a2,a2,t4
   13638:	01c6c6b3          	xor	a3,a3,t3
   1363c:	01074733          	xor	a4,a4,a6
   13640:	00a7c7b3          	xor	a5,a5,a0
   13644:	04c12223          	sw	a2,68(sp)
   13648:	03512223          	sw	s5,36(sp)
   1364c:	04d12423          	sw	a3,72(sp)
   13650:	03212423          	sw	s2,40(sp)
   13654:	04e12623          	sw	a4,76(sp)
   13658:	03812623          	sw	s8,44(sp)
   1365c:	04f12023          	sw	a5,64(sp)
   13660:	03712023          	sw	s7,32(sp)
   13664:	01040413          	addi	s0,s0,16
   13668:	01000613          	addi	a2,zero,16
   1366c:	073d7a63          	bgeu	s10,s3,136e0 <dec_buffer.part.0+0x360>
   13670:	000d8693          	addi	a3,s11,0
   13674:	e29d1ce3          	bne	s10,s1,134ac <dec_buffer.part.0+0x12c>
   13678:	00025537          	lui	a0,0x25
   1367c:	68850513          	addi	a0,a0,1672 # 25688 <__clzsi2+0x50>
   13680:	5bd010ef          	jal	ra,1543c <printf>
   13684:	08412483          	lw	s1,132(sp)
   13688:	07412a83          	lw	s5,116(sp)
   1368c:	06c12b83          	lw	s7,108(sp)
   13690:	06812c03          	lw	s8,104(sp)
   13694:	f3600513          	addi	a0,zero,-202
   13698:	08c12083          	lw	ra,140(sp)
   1369c:	08812403          	lw	s0,136(sp)
   136a0:	08012903          	lw	s2,128(sp)
   136a4:	07c12983          	lw	s3,124(sp)
   136a8:	07812a03          	lw	s4,120(sp)
   136ac:	07012b03          	lw	s6,112(sp)
   136b0:	06412c83          	lw	s9,100(sp)
   136b4:	06012d03          	lw	s10,96(sp)
   136b8:	05c12d83          	lw	s11,92(sp)
   136bc:	09010113          	addi	sp,sp,144
   136c0:	00008067          	jalr	zero,0(ra)
   136c4:	00c68633          	add	a2,a3,a2
   136c8:	0007c703          	lbu	a4,0(a5)
   136cc:	00168693          	addi	a3,a3,1
   136d0:	00178793          	addi	a5,a5,1
   136d4:	fee68fa3          	sb	a4,-1(a3)
   136d8:	fed618e3          	bne	a2,a3,136c8 <dec_buffer.part.0+0x348>
   136dc:	f1dff06f          	jal	zero,135f8 <dec_buffer.part.0+0x278>
   136e0:	00812783          	lw	a5,8(sp)
   136e4:	08412483          	lw	s1,132(sp)
   136e8:	07412a83          	lw	s5,116(sp)
   136ec:	06c12b83          	lw	s7,108(sp)
   136f0:	06812c03          	lw	s8,104(sp)
   136f4:	00178793          	addi	a5,a5,1
   136f8:	00f12423          	sw	a5,8(sp)
   136fc:	00000713          	addi	a4,zero,0
   13700:	01b78533          	add	a0,a5,s11
   13704:	0aaa6463          	bltu	s4,a0,137ac <dec_buffer.part.0+0x42c>
   13708:	00412783          	lw	a5,4(sp)
   1370c:	01b78933          	add	s2,a5,s11
   13710:	04010793          	addi	a5,sp,64
   13714:	00e787b3          	add	a5,a5,a4
   13718:	00812703          	lw	a4,8(sp)
   1371c:	fff70813          	addi	a6,a4,-1
   13720:	00500713          	addi	a4,zero,5
   13724:	1b077c63          	bgeu	a4,a6,138dc <dec_buffer.part.0+0x55c>
   13728:	0127e733          	or	a4,a5,s2
   1372c:	00377713          	andi	a4,a4,3
   13730:	1a071663          	bne	a4,zero,138dc <dec_buffer.part.0+0x55c>
   13734:	00812703          	lw	a4,8(sp)
   13738:	ffc77593          	andi	a1,a4,-4
   1373c:	00b78633          	add	a2,a5,a1
   13740:	00090713          	addi	a4,s2,0
   13744:	0007a683          	lw	a3,0(a5)
   13748:	00478793          	addi	a5,a5,4
   1374c:	00470713          	addi	a4,a4,4
   13750:	fed72e23          	sw	a3,-4(a4)
   13754:	fef618e3          	bne	a2,a5,13744 <dec_buffer.part.0+0x3c4>
   13758:	00812783          	lw	a5,8(sp)
   1375c:	02b78863          	beq	a5,a1,1378c <dec_buffer.part.0+0x40c>
   13760:	00064783          	lbu	a5,0(a2)
   13764:	00b90933          	add	s2,s2,a1
   13768:	40b80733          	sub	a4,a6,a1
   1376c:	00f90023          	sb	a5,0(s2)
   13770:	00b80e63          	beq	a6,a1,1378c <dec_buffer.part.0+0x40c>
   13774:	00164683          	lbu	a3,1(a2)
   13778:	00100793          	addi	a5,zero,1
   1377c:	00d900a3          	sb	a3,1(s2)
   13780:	00f70663          	beq	a4,a5,1378c <dec_buffer.part.0+0x40c>
   13784:	00264783          	lbu	a5,2(a2)
   13788:	00f90123          	sb	a5,2(s2)
   1378c:	00c12783          	lw	a5,12(sp)
   13790:	00a7a023          	sw	a0,0(a5)
   13794:	00000513          	addi	a0,zero,0
   13798:	f01ff06f          	jal	zero,13698 <dec_buffer.part.0+0x318>
   1379c:	08412483          	lw	s1,132(sp)
   137a0:	07412a83          	lw	s5,116(sp)
   137a4:	06c12b83          	lw	s7,108(sp)
   137a8:	06812c03          	lw	s8,104(sp)
   137ac:	00025537          	lui	a0,0x25
   137b0:	6ac50513          	addi	a0,a0,1708 # 256ac <__clzsi2+0x74>
   137b4:	489010ef          	jal	ra,1543c <printf>
   137b8:	f3700513          	addi	a0,zero,-201
   137bc:	eddff06f          	jal	zero,13698 <dec_buffer.part.0+0x318>
   137c0:	01044883          	lbu	a7,16(s0)
   137c4:	01144803          	lbu	a6,17(s0)
   137c8:	01244503          	lbu	a0,18(s0)
   137cc:	01344583          	lbu	a1,19(s0)
   137d0:	01444603          	lbu	a2,20(s0)
   137d4:	01544683          	lbu	a3,21(s0)
   137d8:	01644703          	lbu	a4,22(s0)
   137dc:	01744783          	lbu	a5,23(s0)
   137e0:	03110023          	sb	a7,32(sp)
   137e4:	030100a3          	sb	a6,33(sp)
   137e8:	01844883          	lbu	a7,24(s0)
   137ec:	01944803          	lbu	a6,25(s0)
   137f0:	02a10123          	sb	a0,34(sp)
   137f4:	02b101a3          	sb	a1,35(sp)
   137f8:	01a44503          	lbu	a0,26(s0)
   137fc:	01b44583          	lbu	a1,27(s0)
   13800:	02c10223          	sb	a2,36(sp)
   13804:	02d102a3          	sb	a3,37(sp)
   13808:	01c44603          	lbu	a2,28(s0)
   1380c:	01d44683          	lbu	a3,29(s0)
   13810:	02e10323          	sb	a4,38(sp)
   13814:	02f103a3          	sb	a5,39(sp)
   13818:	01e44703          	lbu	a4,30(s0)
   1381c:	01f44783          	lbu	a5,31(s0)
   13820:	03110423          	sb	a7,40(sp)
   13824:	030104a3          	sb	a6,41(sp)
   13828:	02a10523          	sb	a0,42(sp)
   1382c:	02b105a3          	sb	a1,43(sp)
   13830:	02c10623          	sb	a2,44(sp)
   13834:	02d106a3          	sb	a3,45(sp)
   13838:	02e10723          	sb	a4,46(sp)
   1383c:	02f107a3          	sb	a5,47(sp)
   13840:	bd1ff06f          	jal	zero,13410 <dec_buffer.part.0+0x90>
   13844:	00044883          	lbu	a7,0(s0)
   13848:	00144803          	lbu	a6,1(s0)
   1384c:	00244503          	lbu	a0,2(s0)
   13850:	00344583          	lbu	a1,3(s0)
   13854:	00444603          	lbu	a2,4(s0)
   13858:	00544683          	lbu	a3,5(s0)
   1385c:	00644703          	lbu	a4,6(s0)
   13860:	00744783          	lbu	a5,7(s0)
   13864:	01110823          	sb	a7,16(sp)
   13868:	010108a3          	sb	a6,17(sp)
   1386c:	00844883          	lbu	a7,8(s0)
   13870:	00944803          	lbu	a6,9(s0)
   13874:	00a10923          	sb	a0,18(sp)
   13878:	00b109a3          	sb	a1,19(sp)
   1387c:	00a44503          	lbu	a0,10(s0)
   13880:	00b44583          	lbu	a1,11(s0)
   13884:	00c10a23          	sb	a2,20(sp)
   13888:	00d10aa3          	sb	a3,21(sp)
   1388c:	00c44603          	lbu	a2,12(s0)
   13890:	00d44683          	lbu	a3,13(s0)
   13894:	00e10b23          	sb	a4,22(sp)
   13898:	00f10ba3          	sb	a5,23(sp)
   1389c:	00e44703          	lbu	a4,14(s0)
   138a0:	00f44783          	lbu	a5,15(s0)
   138a4:	01110c23          	sb	a7,24(sp)
   138a8:	01010ca3          	sb	a6,25(sp)
   138ac:	00a10d23          	sb	a0,26(sp)
   138b0:	00b10da3          	sb	a1,27(sp)
   138b4:	00c10e23          	sb	a2,28(sp)
   138b8:	00d10ea3          	sb	a3,29(sp)
   138bc:	00e10f23          	sb	a4,30(sp)
   138c0:	00f10fa3          	sb	a5,31(sp)
   138c4:	b25ff06f          	jal	zero,133e8 <dec_buffer.part.0+0x68>
   138c8:	00000513          	addi	a0,zero,0
   138cc:	ec0780e3          	beq	a5,zero,1378c <dec_buffer.part.0+0x40c>
   138d0:	00100713          	addi	a4,zero,1
   138d4:	00000d93          	addi	s11,zero,0
   138d8:	e29ff06f          	jal	zero,13700 <dec_buffer.part.0+0x380>
   138dc:	00812703          	lw	a4,8(sp)
   138e0:	00e90b33          	add	s6,s2,a4
   138e4:	0007c703          	lbu	a4,0(a5)
   138e8:	00190913          	addi	s2,s2,1
   138ec:	00178793          	addi	a5,a5,1
   138f0:	fee90fa3          	sb	a4,-1(s2)
   138f4:	ff6918e3          	bne	s2,s6,138e4 <dec_buffer.part.0+0x564>
   138f8:	e95ff06f          	jal	zero,1378c <dec_buffer.part.0+0x40c>

000138fc <set_key>:
   138fc:	0075f793          	andi	a5,a1,7
   13900:	38079263          	bne	a5,zero,13c84 <set_key+0x388>
   13904:	ff058793          	addi	a5,a1,-16
   13908:	01000713          	addi	a4,zero,16
   1390c:	36f76063          	bltu	a4,a5,13c6c <set_key+0x370>
   13910:	00367613          	andi	a2,a2,3
   13914:	36060863          	beq	a2,zero,13c84 <set_key+0x388>
   13918:	2086c283          	lbu	t0,520(a3)
   1391c:	0025d593          	srli	a1,a1,0x2
   13920:	00658793          	addi	a5,a1,6
   13924:	ffc2f293          	andi	t0,t0,-4
   13928:	ff010113          	addi	sp,sp,-16
   1392c:	00f6a223          	sw	a5,4(a3)
   13930:	00c2e7b3          	or	a5,t0,a2
   13934:	20f68423          	sb	a5,520(a3)
   13938:	00b6a023          	sw	a1,0(a3)
   1393c:	00052803          	lw	a6,0(a0)
   13940:	00758e13          	addi	t3,a1,7
   13944:	002e1e13          	slli	t3,t3,0x2
   13948:	0106a423          	sw	a6,8(a3)
   1394c:	00452883          	lw	a7,4(a0)
   13950:	40be0e33          	sub	t3,t3,a1
   13954:	00912423          	sw	s1,8(sp)
   13958:	0116a623          	sw	a7,12(a3)
   1395c:	00852303          	lw	t1,8(a0)
   13960:	00078493          	addi	s1,a5,0
   13964:	002e1e13          	slli	t3,t3,0x2
   13968:	0066a823          	sw	t1,16(a3)
   1396c:	00c52703          	lw	a4,12(a0)
   13970:	00868793          	addi	a5,a3,8
   13974:	00600613          	addi	a2,zero,6
   13978:	00e6aa23          	sw	a4,20(a3)
   1397c:	01c78e33          	add	t3,a5,t3
   13980:	46c58463          	beq	a1,a2,13de8 <set_key+0x4ec>
   13984:	00800613          	addi	a2,zero,8
   13988:	30c58863          	beq	a1,a2,13c98 <set_key+0x39c>
   1398c:	00400613          	addi	a2,zero,4
   13990:	0ac59263          	bne	a1,a2,13a34 <set_key+0x138>
   13994:	00026f37          	lui	t5,0x26
   13998:	00074637          	lui	a2,0x74
   1399c:	928f0f13          	addi	t5,t5,-1752 # 25928 <rcon_tab>
   139a0:	bb060613          	addi	a2,a2,-1104 # 73bb0 <fl_tab>
   139a4:	01875593          	srli	a1,a4,0x18
   139a8:	0ff77e93          	andi	t4,a4,255
   139ac:	20058593          	addi	a1,a1,512
   139b0:	300e8e93          	addi	t4,t4,768
   139b4:	01075513          	srli	a0,a4,0x10
   139b8:	00259593          	slli	a1,a1,0x2
   139bc:	002e9e93          	slli	t4,t4,0x2
   139c0:	00675f93          	srli	t6,a4,0x6
   139c4:	01d60eb3          	add	t4,a2,t4
   139c8:	00b605b3          	add	a1,a2,a1
   139cc:	0ff57513          	andi	a0,a0,255
   139d0:	000ea383          	lw	t2,0(t4)
   139d4:	0005a583          	lw	a1,0(a1)
   139d8:	3fcffe93          	andi	t4,t6,1020
   139dc:	10050513          	addi	a0,a0,256
   139e0:	000f2f83          	lw	t6,0(t5)
   139e4:	01d60eb3          	add	t4,a2,t4
   139e8:	00251513          	slli	a0,a0,0x2
   139ec:	000eae83          	lw	t4,0(t4)
   139f0:	00a60533          	add	a0,a2,a0
   139f4:	00052503          	lw	a0,0(a0)
   139f8:	0075c5b3          	xor	a1,a1,t2
   139fc:	01f5c5b3          	xor	a1,a1,t6
   13a00:	01d5c5b3          	xor	a1,a1,t4
   13a04:	00a5c5b3          	xor	a1,a1,a0
   13a08:	00b84833          	xor	a6,a6,a1
   13a0c:	0108c8b3          	xor	a7,a7,a6
   13a10:	01134333          	xor	t1,t1,a7
   13a14:	00674733          	xor	a4,a4,t1
   13a18:	00e7ae23          	sw	a4,28(a5)
   13a1c:	0067ac23          	sw	t1,24(a5)
   13a20:	0117aa23          	sw	a7,20(a5)
   13a24:	0107a823          	sw	a6,16(a5)
   13a28:	01078793          	addi	a5,a5,16
   13a2c:	004f0f13          	addi	t5,t5,4
   13a30:	f7c7eae3          	bltu	a5,t3,139a4 <set_key+0xa8>
   13a34:	0034f293          	andi	t0,s1,3
   13a38:	00100513          	addi	a0,zero,1
   13a3c:	22a28063          	beq	t0,a0,13c5c <set_key+0x360>
   13a40:	0046a703          	lw	a4,4(a3)
   13a44:	0086a603          	lw	a2,8(a3)
   13a48:	10868793          	addi	a5,a3,264
   13a4c:	00471713          	slli	a4,a4,0x4
   13a50:	00e787b3          	add	a5,a5,a4
   13a54:	00c7a023          	sw	a2,0(a5)
   13a58:	00c6a703          	lw	a4,12(a3)
   13a5c:	ff078613          	addi	a2,a5,-16
   13a60:	01868593          	addi	a1,a3,24
   13a64:	00e7a223          	sw	a4,4(a5)
   13a68:	0106a703          	lw	a4,16(a3)
   13a6c:	00e7a423          	sw	a4,8(a5)
   13a70:	0146a703          	lw	a4,20(a3)
   13a74:	00e7a623          	sw	a4,12(a5)
   13a78:	0046a783          	lw	a5,4(a3)
   13a7c:	1cf57063          	bgeu	a0,a5,13c3c <set_key+0x340>
   13a80:	000727b7          	lui	a5,0x72
   13a84:	bb078793          	addi	a5,a5,-1104 # 71bb0 <im_tab>
   13a88:	0005a703          	lw	a4,0(a1)
   13a8c:	00150513          	addi	a0,a0,1
   13a90:	01058593          	addi	a1,a1,16
   13a94:	01875893          	srli	a7,a4,0x18
   13a98:	00875813          	srli	a6,a4,0x8
   13a9c:	0ff77313          	andi	t1,a4,255
   13aa0:	30088893          	addi	a7,a7,768
   13aa4:	0ff87813          	andi	a6,a6,255
   13aa8:	01075713          	srli	a4,a4,0x10
   13aac:	00289893          	slli	a7,a7,0x2
   13ab0:	00231313          	slli	t1,t1,0x2
   13ab4:	10080813          	addi	a6,a6,256
   13ab8:	0ff77713          	andi	a4,a4,255
   13abc:	011788b3          	add	a7,a5,a7
   13ac0:	00678333          	add	t1,a5,t1
   13ac4:	00281813          	slli	a6,a6,0x2
   13ac8:	20070713          	addi	a4,a4,512
   13acc:	0008ae03          	lw	t3,0(a7)
   13ad0:	01078833          	add	a6,a5,a6
   13ad4:	00032883          	lw	a7,0(t1)
   13ad8:	00271713          	slli	a4,a4,0x2
   13adc:	00082303          	lw	t1,0(a6)
   13ae0:	00e78733          	add	a4,a5,a4
   13ae4:	00072803          	lw	a6,0(a4)
   13ae8:	01c8c733          	xor	a4,a7,t3
   13aec:	00674733          	xor	a4,a4,t1
   13af0:	01074733          	xor	a4,a4,a6
   13af4:	00e62023          	sw	a4,0(a2)
   13af8:	ff45a703          	lw	a4,-12(a1)
   13afc:	ff060613          	addi	a2,a2,-16
   13b00:	01875893          	srli	a7,a4,0x18
   13b04:	00875813          	srli	a6,a4,0x8
   13b08:	0ff77313          	andi	t1,a4,255
   13b0c:	30088893          	addi	a7,a7,768
   13b10:	0ff87813          	andi	a6,a6,255
   13b14:	01075713          	srli	a4,a4,0x10
   13b18:	00289893          	slli	a7,a7,0x2
   13b1c:	00231313          	slli	t1,t1,0x2
   13b20:	10080813          	addi	a6,a6,256
   13b24:	0ff77713          	andi	a4,a4,255
   13b28:	011788b3          	add	a7,a5,a7
   13b2c:	00678333          	add	t1,a5,t1
   13b30:	00281813          	slli	a6,a6,0x2
   13b34:	20070713          	addi	a4,a4,512
   13b38:	0008ae03          	lw	t3,0(a7)
   13b3c:	01078833          	add	a6,a5,a6
   13b40:	00032883          	lw	a7,0(t1)
   13b44:	00271713          	slli	a4,a4,0x2
   13b48:	00082303          	lw	t1,0(a6)
   13b4c:	00e78733          	add	a4,a5,a4
   13b50:	00072803          	lw	a6,0(a4)
   13b54:	01c8c733          	xor	a4,a7,t3
   13b58:	00674733          	xor	a4,a4,t1
   13b5c:	01074733          	xor	a4,a4,a6
   13b60:	00e62a23          	sw	a4,20(a2)
   13b64:	ff85a703          	lw	a4,-8(a1)
   13b68:	01875893          	srli	a7,a4,0x18
   13b6c:	00875813          	srli	a6,a4,0x8
   13b70:	0ff77313          	andi	t1,a4,255
   13b74:	30088893          	addi	a7,a7,768
   13b78:	0ff87813          	andi	a6,a6,255
   13b7c:	01075713          	srli	a4,a4,0x10
   13b80:	00289893          	slli	a7,a7,0x2
   13b84:	00231313          	slli	t1,t1,0x2
   13b88:	10080813          	addi	a6,a6,256
   13b8c:	0ff77713          	andi	a4,a4,255
   13b90:	011788b3          	add	a7,a5,a7
   13b94:	00678333          	add	t1,a5,t1
   13b98:	00281813          	slli	a6,a6,0x2
   13b9c:	20070713          	addi	a4,a4,512
   13ba0:	0008ae03          	lw	t3,0(a7)
   13ba4:	01078833          	add	a6,a5,a6
   13ba8:	00032883          	lw	a7,0(t1)
   13bac:	00271713          	slli	a4,a4,0x2
   13bb0:	00082303          	lw	t1,0(a6)
   13bb4:	00e78733          	add	a4,a5,a4
   13bb8:	00072803          	lw	a6,0(a4)
   13bbc:	01c8c733          	xor	a4,a7,t3
   13bc0:	00674733          	xor	a4,a4,t1
   13bc4:	01074733          	xor	a4,a4,a6
   13bc8:	00e62c23          	sw	a4,24(a2)
   13bcc:	ffc5a703          	lw	a4,-4(a1)
   13bd0:	01875893          	srli	a7,a4,0x18
   13bd4:	00875813          	srli	a6,a4,0x8
   13bd8:	0ff77313          	andi	t1,a4,255
   13bdc:	30088893          	addi	a7,a7,768
   13be0:	0ff87813          	andi	a6,a6,255
   13be4:	01075713          	srli	a4,a4,0x10
   13be8:	00289893          	slli	a7,a7,0x2
   13bec:	00231313          	slli	t1,t1,0x2
   13bf0:	10080813          	addi	a6,a6,256
   13bf4:	0ff77713          	andi	a4,a4,255
   13bf8:	011788b3          	add	a7,a5,a7
   13bfc:	00678333          	add	t1,a5,t1
   13c00:	00281813          	slli	a6,a6,0x2
   13c04:	20070713          	addi	a4,a4,512
   13c08:	0008ae03          	lw	t3,0(a7)
   13c0c:	01078833          	add	a6,a5,a6
   13c10:	00032883          	lw	a7,0(t1)
   13c14:	00271713          	slli	a4,a4,0x2
   13c18:	00082303          	lw	t1,0(a6)
   13c1c:	00e78733          	add	a4,a5,a4
   13c20:	00072803          	lw	a6,0(a4)
   13c24:	01c8c733          	xor	a4,a7,t3
   13c28:	00674733          	xor	a4,a4,t1
   13c2c:	01074733          	xor	a4,a4,a6
   13c30:	00e62e23          	sw	a4,28(a2)
   13c34:	0046a703          	lw	a4,4(a3)
   13c38:	e4e568e3          	bltu	a0,a4,13a88 <set_key+0x18c>
   13c3c:	0005a783          	lw	a5,0(a1)
   13c40:	00f62023          	sw	a5,0(a2)
   13c44:	0045a783          	lw	a5,4(a1)
   13c48:	00f62223          	sw	a5,4(a2)
   13c4c:	0085a783          	lw	a5,8(a1)
   13c50:	00f62423          	sw	a5,8(a2)
   13c54:	00c5a783          	lw	a5,12(a1)
   13c58:	00f62623          	sw	a5,12(a2)
   13c5c:	00812483          	lw	s1,8(sp)
   13c60:	00100513          	addi	a0,zero,1
   13c64:	01010113          	addi	sp,sp,16
   13c68:	00008067          	jalr	zero,0(ra)
   13c6c:	00059c63          	bne	a1,zero,13c84 <set_key+0x388>
   13c70:	0006a503          	lw	a0,0(a3)
   13c74:	00251513          	slli	a0,a0,0x2
   13c78:	01051513          	slli	a0,a0,0x10
   13c7c:	41055513          	srai	a0,a0,0x10
   13c80:	00008067          	jalr	zero,0(ra)
   13c84:	2086c783          	lbu	a5,520(a3)
   13c88:	00000513          	addi	a0,zero,0
   13c8c:	ffc7f793          	andi	a5,a5,-4
   13c90:	20f68423          	sb	a5,520(a3)
   13c94:	00008067          	jalr	zero,0(ra)
   13c98:	01052f83          	lw	t6,16(a0)
   13c9c:	000263b7          	lui	t2,0x26
   13ca0:	00074637          	lui	a2,0x74
   13ca4:	01f6ac23          	sw	t6,24(a3)
   13ca8:	01452f03          	lw	t5,20(a0)
   13cac:	00812623          	sw	s0,12(sp)
   13cb0:	92838393          	addi	t2,t2,-1752 # 25928 <rcon_tab>
   13cb4:	01e6ae23          	sw	t5,28(a3)
   13cb8:	01852e83          	lw	t4,24(a0)
   13cbc:	bb060613          	addi	a2,a2,-1104 # 73bb0 <fl_tab>
   13cc0:	03d6a023          	sw	t4,32(a3)
   13cc4:	01c52503          	lw	a0,28(a0)
   13cc8:	02a6a223          	sw	a0,36(a3)
   13ccc:	01855293          	srli	t0,a0,0x18
   13cd0:	0ff57593          	andi	a1,a0,255
   13cd4:	20028293          	addi	t0,t0,512
   13cd8:	30058593          	addi	a1,a1,768
   13cdc:	00229293          	slli	t0,t0,0x2
   13ce0:	00259593          	slli	a1,a1,0x2
   13ce4:	00560433          	add	s0,a2,t0
   13ce8:	00b602b3          	add	t0,a2,a1
   13cec:	0002a283          	lw	t0,0(t0)
   13cf0:	00042583          	lw	a1,0(s0)
   13cf4:	02078793          	addi	a5,a5,32
   13cf8:	00028413          	addi	s0,t0,0
   13cfc:	0085c5b3          	xor	a1,a1,s0
   13d00:	0003a403          	lw	s0,0(t2)
   13d04:	01055293          	srli	t0,a0,0x10
   13d08:	0ff2f293          	andi	t0,t0,255
   13d0c:	0085c5b3          	xor	a1,a1,s0
   13d10:	00655413          	srli	s0,a0,0x6
   13d14:	10028293          	addi	t0,t0,256
   13d18:	3fc47413          	andi	s0,s0,1020
   13d1c:	00229293          	slli	t0,t0,0x2
   13d20:	00860433          	add	s0,a2,s0
   13d24:	00042403          	lw	s0,0(s0)
   13d28:	005602b3          	add	t0,a2,t0
   13d2c:	0002a283          	lw	t0,0(t0)
   13d30:	0085c5b3          	xor	a1,a1,s0
   13d34:	00438393          	addi	t2,t2,4
   13d38:	0055c5b3          	xor	a1,a1,t0
   13d3c:	00b84833          	xor	a6,a6,a1
   13d40:	0108c8b3          	xor	a7,a7,a6
   13d44:	01134333          	xor	t1,t1,a7
   13d48:	00674733          	xor	a4,a4,t1
   13d4c:	01875593          	srli	a1,a4,0x18
   13d50:	30058593          	addi	a1,a1,768
   13d54:	0ff77293          	andi	t0,a4,255
   13d58:	00229293          	slli	t0,t0,0x2
   13d5c:	00259593          	slli	a1,a1,0x2
   13d60:	00b605b3          	add	a1,a2,a1
   13d64:	00560433          	add	s0,a2,t0
   13d68:	0005a283          	lw	t0,0(a1)
   13d6c:	00042583          	lw	a1,0(s0)
   13d70:	00e7a623          	sw	a4,12(a5)
   13d74:	0067a423          	sw	t1,8(a5)
   13d78:	0055c2b3          	xor	t0,a1,t0
   13d7c:	00875593          	srli	a1,a4,0x8
   13d80:	0ff5f593          	andi	a1,a1,255
   13d84:	10058593          	addi	a1,a1,256
   13d88:	00259593          	slli	a1,a1,0x2
   13d8c:	00b605b3          	add	a1,a2,a1
   13d90:	0005a583          	lw	a1,0(a1)
   13d94:	0117a223          	sw	a7,4(a5)
   13d98:	0107a023          	sw	a6,0(a5)
   13d9c:	00b2c2b3          	xor	t0,t0,a1
   13da0:	01075593          	srli	a1,a4,0x10
   13da4:	0ff5f593          	andi	a1,a1,255
   13da8:	20058593          	addi	a1,a1,512
   13dac:	00259593          	slli	a1,a1,0x2
   13db0:	00b605b3          	add	a1,a2,a1
   13db4:	0005a583          	lw	a1,0(a1)
   13db8:	00b2c5b3          	xor	a1,t0,a1
   13dbc:	00bfcfb3          	xor	t6,t6,a1
   13dc0:	01ff4f33          	xor	t5,t5,t6
   13dc4:	01eeceb3          	xor	t4,t4,t5
   13dc8:	01d54533          	xor	a0,a0,t4
   13dcc:	00a7ae23          	sw	a0,28(a5)
   13dd0:	01d7ac23          	sw	t4,24(a5)
   13dd4:	01e7aa23          	sw	t5,20(a5)
   13dd8:	01f7a823          	sw	t6,16(a5)
   13ddc:	efc7e8e3          	bltu	a5,t3,13ccc <set_key+0x3d0>
   13de0:	00c12403          	lw	s0,12(sp)
   13de4:	c51ff06f          	jal	zero,13a34 <set_key+0x138>
   13de8:	01052f03          	lw	t5,16(a0)
   13dec:	00026fb7          	lui	t6,0x26
   13df0:	00074637          	lui	a2,0x74
   13df4:	01e6ac23          	sw	t5,24(a3)
   13df8:	01452e83          	lw	t4,20(a0)
   13dfc:	928f8f93          	addi	t6,t6,-1752 # 25928 <rcon_tab>
   13e00:	bb060613          	addi	a2,a2,-1104 # 73bb0 <fl_tab>
   13e04:	01d6ae23          	sw	t4,28(a3)
   13e08:	018ed593          	srli	a1,t4,0x18
   13e0c:	0ffef513          	andi	a0,t4,255
   13e10:	20058593          	addi	a1,a1,512
   13e14:	30050513          	addi	a0,a0,768
   13e18:	00259593          	slli	a1,a1,0x2
   13e1c:	00251513          	slli	a0,a0,0x2
   13e20:	00a60533          	add	a0,a2,a0
   13e24:	00b605b3          	add	a1,a2,a1
   13e28:	00052383          	lw	t2,0(a0)
   13e2c:	0005a583          	lw	a1,0(a1)
   13e30:	010ed513          	srli	a0,t4,0x10
   13e34:	0ff57513          	andi	a0,a0,255
   13e38:	0075c5b3          	xor	a1,a1,t2
   13e3c:	000fa383          	lw	t2,0(t6)
   13e40:	10050513          	addi	a0,a0,256
   13e44:	00251513          	slli	a0,a0,0x2
   13e48:	0075c5b3          	xor	a1,a1,t2
   13e4c:	006ed393          	srli	t2,t4,0x6
   13e50:	3fc3f393          	andi	t2,t2,1020
   13e54:	007603b3          	add	t2,a2,t2
   13e58:	0003a383          	lw	t2,0(t2)
   13e5c:	00a60533          	add	a0,a2,a0
   13e60:	00052503          	lw	a0,0(a0)
   13e64:	0075c5b3          	xor	a1,a1,t2
   13e68:	01878793          	addi	a5,a5,24
   13e6c:	00a5c5b3          	xor	a1,a1,a0
   13e70:	00b84833          	xor	a6,a6,a1
   13e74:	0108c8b3          	xor	a7,a7,a6
   13e78:	01134333          	xor	t1,t1,a7
   13e7c:	00674733          	xor	a4,a4,t1
   13e80:	00ef4f33          	xor	t5,t5,a4
   13e84:	01eeceb3          	xor	t4,t4,t5
   13e88:	01d7aa23          	sw	t4,20(a5)
   13e8c:	01e7a823          	sw	t5,16(a5)
   13e90:	00e7a623          	sw	a4,12(a5)
   13e94:	0067a423          	sw	t1,8(a5)
   13e98:	0117a223          	sw	a7,4(a5)
   13e9c:	0107a023          	sw	a6,0(a5)
   13ea0:	004f8f93          	addi	t6,t6,4
   13ea4:	f7c7e2e3          	bltu	a5,t3,13e08 <set_key+0x50c>
   13ea8:	b8dff06f          	jal	zero,13a34 <set_key+0x138>

00013eac <encrypt>:
   13eac:	20864783          	lbu	a5,520(a2)
   13eb0:	0017f793          	andi	a5,a5,1
   13eb4:	00078463          	beq	a5,zero,13ebc <encrypt+0x10>
   13eb8:	d14fc06f          	jal	zero,103cc <encrypt.part.0>
   13ebc:	00000513          	addi	a0,zero,0
   13ec0:	00008067          	jalr	zero,0(ra)

00013ec4 <decrypt>:
   13ec4:	20864783          	lbu	a5,520(a2)
   13ec8:	0027f793          	andi	a5,a5,2
   13ecc:	00078463          	beq	a5,zero,13ed4 <decrypt+0x10>
   13ed0:	c89fd06f          	jal	zero,11b58 <decrypt.part.0>
   13ed4:	00000513          	addi	a0,zero,0
   13ed8:	00008067          	jalr	zero,0(ra)

00013edc <fillrand>:
   13edc:	86c1a703          	lw	a4,-1940(gp) # 78724 <mt.5>
   13ee0:	02070263          	beq	a4,zero,13f04 <fillrand+0x28>
   13ee4:	8601a623          	sw	zero,-1940(gp) # 78724 <mt.5>
   13ee8:	0000f6b7          	lui	a3,0xf
   13eec:	00003737          	lui	a4,0x3
   13ef0:	88018793          	addi	a5,gp,-1920 # 78738 <a.4>
   13ef4:	af368693          	addi	a3,a3,-1293 # eaf3 <exit-0x15c1>
   13ef8:	5fe70713          	addi	a4,a4,1534 # 35fe <exit-0xcab6>
   13efc:	00d7a023          	sw	a3,0(a5)
   13f00:	00e7a223          	sw	a4,4(a5)
   13f04:	10b05263          	bge	zero,a1,14008 <fillrand+0x12c>
   13f08:	ff010113          	addi	sp,sp,-16
   13f0c:	88018f13          	addi	t5,gp,-1920 # 78738 <a.4>
   13f10:	01212223          	sw	s2,4(sp)
   13f14:	000f2703          	lw	a4,0(t5)
   13f18:	004f2683          	lw	a3,4(t5)
   13f1c:	8681a783          	lw	a5,-1944(gp) # 78720 <count.3>
   13f20:	000092b7          	lui	t0,0x9
   13f24:	00004fb7          	lui	t6,0x4
   13f28:	00812623          	sw	s0,12(sp)
   13f2c:	00912423          	sw	s1,8(sp)
   13f30:	00b505b3          	add	a1,a0,a1
   13f34:	87c18e93          	addi	t4,gp,-1924 # 78734 <r3.2>
   13f38:	06928293          	addi	t0,t0,105 # 9069 <exit-0x704b>
   13f3c:	650f8f93          	addi	t6,t6,1616 # 4650 <exit-0xba64>
   13f40:	00000413          	addi	s0,zero,0
   13f44:	00400493          	addi	s1,zero,4
   13f48:	01071813          	slli	a6,a4,0x10
   13f4c:	01069613          	slli	a2,a3,0x10
   13f50:	01085813          	srli	a6,a6,0x10
   13f54:	01065613          	srli	a2,a2,0x10
   13f58:	01075e13          	srli	t3,a4,0x10
   13f5c:	0106d313          	srli	t1,a3,0x10
   13f60:	00150893          	addi	a7,a0,1
   13f64:	08979e63          	bne	a5,s1,14000 <fillrand+0x124>
   13f68:	02580733          	mul	a4,a6,t0
   13f6c:	00200793          	addi	a5,zero,2
   13f70:	000e8813          	addi	a6,t4,0
   13f74:	00100413          	addi	s0,zero,1
   13f78:	03f606b3          	mul	a3,a2,t6
   13f7c:	01c70733          	add	a4,a4,t3
   13f80:	01071613          	slli	a2,a4,0x10
   13f84:	006686b3          	add	a3,a3,t1
   13f88:	00d60633          	add	a2,a2,a3
   13f8c:	86c1ae23          	sw	a2,-1924(gp) # 78734 <r3.2>
   13f90:	00c50023          	sb	a2,0(a0)
   13f94:	05158463          	beq	a1,a7,13fdc <fillrand+0x100>
   13f98:	001ec603          	lbu	a2,1(t4)
   13f9c:	00c500a3          	sb	a2,1(a0)
   13fa0:	00f50533          	add	a0,a0,a5
   13fa4:	00a58e63          	beq	a1,a0,13fc0 <fillrand+0xe4>
   13fa8:	00f80833          	add	a6,a6,a5
   13fac:	00084603          	lbu	a2,0(a6)
   13fb0:	00150513          	addi	a0,a0,1
   13fb4:	00178793          	addi	a5,a5,1
   13fb8:	fec50fa3          	sb	a2,-1(a0)
   13fbc:	f8a596e3          	bne	a1,a0,13f48 <fillrand+0x6c>
   13fc0:	86f1a423          	sw	a5,-1944(gp) # 78720 <count.3>
   13fc4:	02041063          	bne	s0,zero,13fe4 <fillrand+0x108>
   13fc8:	00c12403          	lw	s0,12(sp)
   13fcc:	00812483          	lw	s1,8(sp)
   13fd0:	00412903          	lw	s2,4(sp)
   13fd4:	01010113          	addi	sp,sp,16
   13fd8:	00008067          	jalr	zero,0(ra)
   13fdc:	00100793          	addi	a5,zero,1
   13fe0:	86f1a423          	sw	a5,-1944(gp) # 78720 <count.3>
   13fe4:	00c12403          	lw	s0,12(sp)
   13fe8:	00df2223          	sw	a3,4(t5)
   13fec:	00ef2023          	sw	a4,0(t5)
   13ff0:	00812483          	lw	s1,8(sp)
   13ff4:	00412903          	lw	s2,4(sp)
   13ff8:	01010113          	addi	sp,sp,16
   13ffc:	00008067          	jalr	zero,0(ra)
   14000:	87c18813          	addi	a6,gp,-1924 # 78734 <r3.2>
   14004:	fa5ff06f          	jal	zero,13fa8 <fillrand+0xcc>
   14008:	00008067          	jalr	zero,0(ra)

0001400c <enc_buffer>:
   1400c:	f8010113          	addi	sp,sp,-128
   14010:	07212823          	sw	s2,112(sp)
   14014:	00058913          	addi	s2,a1,0
   14018:	00f58593          	addi	a1,a1,15
   1401c:	ff05f593          	andi	a1,a1,-16
   14020:	06112e23          	sw	ra,124(sp)
   14024:	03058593          	addi	a1,a1,48
   14028:	00a12023          	sw	a0,0(sp)
   1402c:	00f12423          	sw	a5,8(sp)
   14030:	62b76ae3          	bltu	a4,a1,14e64 <enc_buffer+0xe58>
   14034:	86c1a783          	lw	a5,-1940(gp) # 78724 <mt.5>
   14038:	05812c23          	sw	s8,88(sp)
   1403c:	05a12823          	sw	s10,80(sp)
   14040:	00060c13          	addi	s8,a2,0
   14044:	06812c23          	sw	s0,120(sp)
   14048:	06912a23          	sw	s1,116(sp)
   1404c:	07312623          	sw	s3,108(sp)
   14050:	07412423          	sw	s4,104(sp)
   14054:	07512223          	sw	s5,100(sp)
   14058:	07612023          	sw	s6,96(sp)
   1405c:	05712e23          	sw	s7,92(sp)
   14060:	05912a23          	sw	s9,84(sp)
   14064:	05b12623          	sw	s11,76(sp)
   14068:	00068d13          	addi	s10,a3,0
   1406c:	88018613          	addi	a2,gp,-1920 # 78738 <a.4>
   14070:	64079e63          	bne	a5,zero,146cc <enc_buffer+0x6c0>
   14074:	8681aa83          	lw	s5,-1944(gp) # 78720 <count.3>
   14078:	00400893          	addi	a7,zero,4
   1407c:	00062783          	lw	a5,0(a2)
   14080:	00462703          	lw	a4,4(a2)
   14084:	671a8863          	beq	s5,a7,146f4 <enc_buffer+0x6e8>
   14088:	87c18693          	addi	a3,gp,-1924 # 78734 <r3.2>
   1408c:	01568333          	add	t1,a3,s5
   14090:	00034d83          	lbu	s11,0(t1)
   14094:	001a8313          	addi	t1,s5,1
   14098:	01b10823          	sb	s11,16(sp)
   1409c:	1b131ae3          	bne	t1,a7,14a50 <enc_buffer+0xa44>
   140a0:	01079893          	slli	a7,a5,0x10
   140a4:	00009e37          	lui	t3,0x9
   140a8:	069e0e13          	addi	t3,t3,105 # 9069 <exit-0x704b>
   140ac:	0108d893          	srli	a7,a7,0x10
   140b0:	03c888b3          	mul	a7,a7,t3
   140b4:	01071313          	slli	t1,a4,0x10
   140b8:	00004e37          	lui	t3,0x4
   140bc:	650e0e13          	addi	t3,t3,1616 # 4650 <exit-0xba64>
   140c0:	01035313          	srli	t1,t1,0x10
   140c4:	0107d793          	srli	a5,a5,0x10
   140c8:	01075713          	srli	a4,a4,0x10
   140cc:	03c30333          	mul	t1,t1,t3
   140d0:	00f887b3          	add	a5,a7,a5
   140d4:	01079893          	slli	a7,a5,0x10
   140d8:	00e30733          	add	a4,t1,a4
   140dc:	00e888b3          	add	a7,a7,a4
   140e0:	8711ae23          	sw	a7,-1924(gp) # 78734 <r3.2>
   140e4:	0016ca03          	lbu	s4,1(a3)
   140e8:	0026cc83          	lbu	s9,2(a3)
   140ec:	0036ce03          	lbu	t3,3(a3)
   140f0:	01112223          	sw	a7,4(sp)
   140f4:	011108a3          	sb	a7,17(sp)
   140f8:	01410923          	sb	s4,18(sp)
   140fc:	019109a3          	sb	s9,19(sp)
   14100:	01c10a23          	sb	t3,20(sp)
   14104:	01079313          	slli	t1,a5,0x10
   14108:	00009eb7          	lui	t4,0x9
   1410c:	069e8e93          	addi	t4,t4,105 # 9069 <exit-0x704b>
   14110:	01035313          	srli	t1,t1,0x10
   14114:	03d30333          	mul	t1,t1,t4
   14118:	01071893          	slli	a7,a4,0x10
   1411c:	00004eb7          	lui	t4,0x4
   14120:	0108d893          	srli	a7,a7,0x10
   14124:	650e8e93          	addi	t4,t4,1616 # 4650 <exit-0xba64>
   14128:	0107d793          	srli	a5,a5,0x10
   1412c:	01075713          	srli	a4,a4,0x10
   14130:	03d888b3          	mul	a7,a7,t4
   14134:	00f307b3          	add	a5,t1,a5
   14138:	01079993          	slli	s3,a5,0x10
   1413c:	00e88733          	add	a4,a7,a4
   14140:	00e989b3          	add	s3,s3,a4
   14144:	8731ae23          	sw	s3,-1924(gp) # 78734 <r3.2>
   14148:	0016c483          	lbu	s1,1(a3)
   1414c:	0026c403          	lbu	s0,2(a3)
   14150:	0036c303          	lbu	t1,3(a3)
   14154:	01310aa3          	sb	s3,21(sp)
   14158:	00910b23          	sb	s1,22(sp)
   1415c:	00810ba3          	sb	s0,23(sp)
   14160:	00610c23          	sb	t1,24(sp)
   14164:	01079e93          	slli	t4,a5,0x10
   14168:	00009f37          	lui	t5,0x9
   1416c:	069f0f13          	addi	t5,t5,105 # 9069 <exit-0x704b>
   14170:	010ede93          	srli	t4,t4,0x10
   14174:	03ee8eb3          	mul	t4,t4,t5
   14178:	01071893          	slli	a7,a4,0x10
   1417c:	00004f37          	lui	t5,0x4
   14180:	0108d893          	srli	a7,a7,0x10
   14184:	650f0f13          	addi	t5,t5,1616 # 4650 <exit-0xba64>
   14188:	0107d793          	srli	a5,a5,0x10
   1418c:	01075713          	srli	a4,a4,0x10
   14190:	03e888b3          	mul	a7,a7,t5
   14194:	00fe87b3          	add	a5,t4,a5
   14198:	01079393          	slli	t2,a5,0x10
   1419c:	00e88733          	add	a4,a7,a4
   141a0:	00e383b3          	add	t2,t2,a4
   141a4:	8671ae23          	sw	t2,-1924(gp) # 78734 <r3.2>
   141a8:	0016c283          	lbu	t0,1(a3)
   141ac:	0026cf83          	lbu	t6,2(a3)
   141b0:	0036c883          	lbu	a7,3(a3)
   141b4:	00710ca3          	sb	t2,25(sp)
   141b8:	00510d23          	sb	t0,26(sp)
   141bc:	01f10da3          	sb	t6,27(sp)
   141c0:	01110e23          	sb	a7,28(sp)
   141c4:	01079f13          	slli	t5,a5,0x10
   141c8:	00009eb7          	lui	t4,0x9
   141cc:	069e8e93          	addi	t4,t4,105 # 9069 <exit-0x704b>
   141d0:	010f5f13          	srli	t5,t5,0x10
   141d4:	03df0f33          	mul	t5,t5,t4
   141d8:	01071a93          	slli	s5,a4,0x10
   141dc:	00004eb7          	lui	t4,0x4
   141e0:	010ada93          	srli	s5,s5,0x10
   141e4:	650e8e93          	addi	t4,t4,1616 # 4650 <exit-0xba64>
   141e8:	0107d793          	srli	a5,a5,0x10
   141ec:	01075713          	srli	a4,a4,0x10
   141f0:	00300b13          	addi	s6,zero,3
   141f4:	8761a423          	sw	s6,-1944(gp) # 78720 <count.3>
   141f8:	03da8eb3          	mul	t4,s5,t4
   141fc:	00ff07b3          	add	a5,t5,a5
   14200:	01079f13          	slli	t5,a5,0x10
   14204:	00ee8733          	add	a4,t4,a4
   14208:	00ef0f33          	add	t5,t5,a4
   1420c:	87e1ae23          	sw	t5,-1924(gp) # 78734 <r3.2>
   14210:	0016ce83          	lbu	t4,1(a3)
   14214:	0026cb03          	lbu	s6,2(a3)
   14218:	01e10ea3          	sb	t5,29(sp)
   1421c:	01d10f23          	sb	t4,30(sp)
   14220:	01610fa3          	sb	s6,31(sp)
   14224:	00e62223          	sw	a4,4(a2)
   14228:	00f62023          	sw	a5,0(a2)
   1422c:	003d7793          	andi	a5,s10,3
   14230:	1a079ce3          	bne	a5,zero,14be8 <enc_buffer+0xbdc>
   14234:	01012703          	lw	a4,16(sp)
   14238:	01412a83          	lw	s5,20(sp)
   1423c:	01812a03          	lw	s4,24(sp)
   14240:	01c12783          	lw	a5,28(sp)
   14244:	00ed2023          	sw	a4,0(s10)
   14248:	015d2223          	sw	s5,4(s10)
   1424c:	014d2423          	sw	s4,8(s10)
   14250:	00fd2623          	sw	a5,12(s10)
   14254:	02e12023          	sw	a4,32(sp)
   14258:	86c1a703          	lw	a4,-1940(gp) # 78724 <mt.5>
   1425c:	01000993          	addi	s3,zero,16
   14260:	03512223          	sw	s5,36(sp)
   14264:	03412423          	sw	s4,40(sp)
   14268:	02f12623          	sw	a5,44(sp)
   1426c:	02012823          	sw	zero,48(sp)
   14270:	02012a23          	sw	zero,52(sp)
   14274:	02012c23          	sw	zero,56(sp)
   14278:	02012e23          	sw	zero,60(sp)
   1427c:	41a989b3          	sub	s3,s3,s10
   14280:	000d0413          	addi	s0,s10,0
   14284:	02070063          	beq	a4,zero,142a4 <enc_buffer+0x298>
   14288:	0000f737          	lui	a4,0xf
   1428c:	000037b7          	lui	a5,0x3
   14290:	af370713          	addi	a4,a4,-1293 # eaf3 <exit-0x15c1>
   14294:	5fe78793          	addi	a5,a5,1534 # 35fe <exit-0xcab6>
   14298:	8601a623          	sw	zero,-1940(gp) # 78724 <mt.5>
   1429c:	00e62023          	sw	a4,0(a2)
   142a0:	00f62223          	sw	a5,4(a2)
   142a4:	8681a783          	lw	a5,-1944(gp) # 78720 <count.3>
   142a8:	00400713          	addi	a4,zero,4
   142ac:	00178813          	addi	a6,a5,1
   142b0:	06e79063          	bne	a5,a4,14310 <enc_buffer+0x304>
   142b4:	00062703          	lw	a4,0(a2)
   142b8:	00462803          	lw	a6,4(a2)
   142bc:	000098b7          	lui	a7,0x9
   142c0:	01071793          	slli	a5,a4,0x10
   142c4:	06988893          	addi	a7,a7,105 # 9069 <exit-0x704b>
   142c8:	0107d793          	srli	a5,a5,0x10
   142cc:	01075313          	srli	t1,a4,0x10
   142d0:	031787b3          	mul	a5,a5,a7
   142d4:	01081713          	slli	a4,a6,0x10
   142d8:	01085893          	srli	a7,a6,0x10
   142dc:	00004837          	lui	a6,0x4
   142e0:	65080813          	addi	a6,a6,1616 # 4650 <exit-0xba64>
   142e4:	01075713          	srli	a4,a4,0x10
   142e8:	03070733          	mul	a4,a4,a6
   142ec:	006787b3          	add	a5,a5,t1
   142f0:	01079313          	slli	t1,a5,0x10
   142f4:	00f62023          	sw	a5,0(a2)
   142f8:	00100813          	addi	a6,zero,1
   142fc:	00000793          	addi	a5,zero,0
   14300:	01170733          	add	a4,a4,a7
   14304:	00e308b3          	add	a7,t1,a4
   14308:	8711ae23          	sw	a7,-1924(gp) # 78734 <r3.2>
   1430c:	00e62223          	sw	a4,4(a2)
   14310:	00f686b3          	add	a3,a3,a5
   14314:	0006c783          	lbu	a5,0(a3)
   14318:	00f97713          	andi	a4,s2,15
   1431c:	8701a423          	sw	a6,-1944(gp) # 78720 <count.3>
   14320:	ff07f793          	andi	a5,a5,-16
   14324:	00e7e7b3          	or	a5,a5,a4
   14328:	00100813          	addi	a6,zero,1
   1432c:	01000d93          	addi	s11,zero,16
   14330:	02f10823          	sb	a5,48(sp)
   14334:	00000493          	addi	s1,zero,0
   14338:	01a12223          	sw	s10,4(sp)
   1433c:	00080a13          	addi	s4,a6,0
   14340:	000d8c93          	addi	s9,s11,0
   14344:	00f00593          	addi	a1,zero,15
   14348:	03010b93          	addi	s7,sp,48
   1434c:	00500b13          	addi	s6,zero,5
   14350:	00200a93          	addi	s5,zero,2
   14354:	1b24fa63          	bgeu	s1,s2,14508 <enc_buffer+0x4fc>
   14358:	40990533          	sub	a0,s2,s1
   1435c:	00050613          	addi	a2,a0,0
   14360:	00a5f463          	bgeu	a1,a0,14368 <enc_buffer+0x35c>
   14364:	00058613          	addi	a2,a1,0
   14368:	00012703          	lw	a4,0(sp)
   1436c:	40bc87b3          	sub	a5,s9,a1
   14370:	fff60313          	addi	t1,a2,-1
   14374:	00fb87b3          	add	a5,s7,a5
   14378:	009706b3          	add	a3,a4,s1
   1437c:	5a6b7a63          	bgeu	s6,t1,14930 <enc_buffer+0x924>
   14380:	00f6e733          	or	a4,a3,a5
   14384:	00377713          	andi	a4,a4,3
   14388:	6a071463          	bne	a4,zero,14a30 <enc_buffer+0xa24>
   1438c:	0006a883          	lw	a7,0(a3)
   14390:	00265713          	srli	a4,a2,0x2
   14394:	0117a023          	sw	a7,0(a5)
   14398:	57470e63          	beq	a4,s4,14914 <enc_buffer+0x908>
   1439c:	0046a883          	lw	a7,4(a3)
   143a0:	0117a223          	sw	a7,4(a5)
   143a4:	4f570063          	beq	a4,s5,14884 <enc_buffer+0x878>
   143a8:	0086a883          	lw	a7,8(a3)
   143ac:	0117a423          	sw	a7,8(a5)
   143b0:	00400893          	addi	a7,zero,4
   143b4:	4d171863          	bne	a4,a7,14884 <enc_buffer+0x878>
   143b8:	00c6a703          	lw	a4,12(a3)
   143bc:	00e7a623          	sw	a4,12(a5)
   143c0:	50b56663          	bltu	a0,a1,148cc <enc_buffer+0x8c0>
   143c4:	03812683          	lw	a3,56(sp)
   143c8:	02812783          	lw	a5,40(sp)
   143cc:	02412703          	lw	a4,36(sp)
   143d0:	00c484b3          	add	s1,s1,a2
   143d4:	00d7c7b3          	xor	a5,a5,a3
   143d8:	03412603          	lw	a2,52(sp)
   143dc:	02012683          	lw	a3,32(sp)
   143e0:	02f12c23          	sw	a5,56(sp)
   143e4:	03012783          	lw	a5,48(sp)
   143e8:	00c74733          	xor	a4,a4,a2
   143ec:	02e12a23          	sw	a4,52(sp)
   143f0:	03c12603          	lw	a2,60(sp)
   143f4:	00d7c7b3          	xor	a5,a5,a3
   143f8:	02c12703          	lw	a4,44(sp)
   143fc:	02f12823          	sw	a5,48(sp)
   14400:	208c4783          	lbu	a5,520(s8)
   14404:	00c74733          	xor	a4,a4,a2
   14408:	02e12e23          	sw	a4,60(sp)
   1440c:	0017f793          	andi	a5,a5,1
   14410:	02014d83          	lbu	s11,32(sp)
   14414:	02114603          	lbu	a2,33(sp)
   14418:	02214d03          	lbu	s10,34(sp)
   1441c:	02314383          	lbu	t2,35(sp)
   14420:	02414283          	lbu	t0,36(sp)
   14424:	02514f83          	lbu	t6,37(sp)
   14428:	02614f03          	lbu	t5,38(sp)
   1442c:	02714e83          	lbu	t4,39(sp)
   14430:	02814e03          	lbu	t3,40(sp)
   14434:	02914303          	lbu	t1,41(sp)
   14438:	02a14883          	lbu	a7,42(sp)
   1443c:	02b14803          	lbu	a6,43(sp)
   14440:	02c14503          	lbu	a0,44(sp)
   14444:	02d14583          	lbu	a1,45(sp)
   14448:	02e14683          	lbu	a3,46(sp)
   1444c:	02f14703          	lbu	a4,47(sp)
   14450:	04078a63          	beq	a5,zero,144a4 <enc_buffer+0x498>
   14454:	000c0613          	addi	a2,s8,0
   14458:	02010593          	addi	a1,sp,32
   1445c:	000b8513          	addi	a0,s7,0
   14460:	f6dfb0ef          	jal	ra,103cc <encrypt.part.0>
   14464:	02114603          	lbu	a2,33(sp)
   14468:	02014d83          	lbu	s11,32(sp)
   1446c:	02214d03          	lbu	s10,34(sp)
   14470:	02314383          	lbu	t2,35(sp)
   14474:	02414283          	lbu	t0,36(sp)
   14478:	02514f83          	lbu	t6,37(sp)
   1447c:	02614f03          	lbu	t5,38(sp)
   14480:	02714e83          	lbu	t4,39(sp)
   14484:	02814e03          	lbu	t3,40(sp)
   14488:	02914303          	lbu	t1,41(sp)
   1448c:	02a14883          	lbu	a7,42(sp)
   14490:	02b14803          	lbu	a6,43(sp)
   14494:	02c14503          	lbu	a0,44(sp)
   14498:	02d14583          	lbu	a1,45(sp)
   1449c:	02e14683          	lbu	a3,46(sp)
   144a0:	02f14703          	lbu	a4,47(sp)
   144a4:	01040da3          	sb	a6,27(s0)
   144a8:	00b40ea3          	sb	a1,29(s0)
   144ac:	01b40823          	sb	s11,16(s0)
   144b0:	00c408a3          	sb	a2,17(s0)
   144b4:	01a40923          	sb	s10,18(s0)
   144b8:	007409a3          	sb	t2,19(s0)
   144bc:	00540a23          	sb	t0,20(s0)
   144c0:	01f40aa3          	sb	t6,21(s0)
   144c4:	01e40b23          	sb	t5,22(s0)
   144c8:	01d40ba3          	sb	t4,23(s0)
   144cc:	01c40c23          	sb	t3,24(s0)
   144d0:	00640ca3          	sb	t1,25(s0)
   144d4:	01140d23          	sb	a7,26(s0)
   144d8:	00a40e23          	sb	a0,28(s0)
   144dc:	00d40f23          	sb	a3,30(s0)
   144e0:	00e40fa3          	sb	a4,31(s0)
   144e4:	02012823          	sw	zero,48(sp)
   144e8:	01040413          	addi	s0,s0,16
   144ec:	02012a23          	sw	zero,52(sp)
   144f0:	02012c23          	sw	zero,56(sp)
   144f4:	02012e23          	sw	zero,60(sp)
   144f8:	01340db3          	add	s11,s0,s3
   144fc:	00000813          	addi	a6,zero,0
   14500:	01000593          	addi	a1,zero,16
   14504:	e524eae3          	bltu	s1,s2,14358 <enc_buffer+0x34c>
   14508:	ff158793          	addi	a5,a1,-15
   1450c:	00412d03          	lw	s10,4(sp)
   14510:	16079a63          	bne	a5,zero,14684 <enc_buffer+0x678>
   14514:	16080863          	beq	a6,zero,14684 <enc_buffer+0x678>
   14518:	020108a3          	sb	zero,49(sp)
   1451c:	02010923          	sb	zero,50(sp)
   14520:	00300793          	addi	a5,zero,3
   14524:	00100613          	addi	a2,zero,1
   14528:	002787b3          	add	a5,a5,sp
   1452c:	02078823          	sb	zero,48(a5)
   14530:	00360713          	addi	a4,a2,3
   14534:	01000793          	addi	a5,zero,16
   14538:	0cf70063          	beq	a4,a5,145f8 <enc_buffer+0x5ec>
   1453c:	00f106b3          	add	a3,sp,a5
   14540:	00d60733          	add	a4,a2,a3
   14544:	020701a3          	sb	zero,35(a4)
   14548:	00460713          	addi	a4,a2,4
   1454c:	0af70663          	beq	a4,a5,145f8 <enc_buffer+0x5ec>
   14550:	00d60733          	add	a4,a2,a3
   14554:	02070223          	sb	zero,36(a4)
   14558:	00560713          	addi	a4,a2,5
   1455c:	08f70e63          	beq	a4,a5,145f8 <enc_buffer+0x5ec>
   14560:	00d60733          	add	a4,a2,a3
   14564:	020702a3          	sb	zero,37(a4)
   14568:	00660713          	addi	a4,a2,6
   1456c:	08f70663          	beq	a4,a5,145f8 <enc_buffer+0x5ec>
   14570:	00d60733          	add	a4,a2,a3
   14574:	02070323          	sb	zero,38(a4)
   14578:	00760713          	addi	a4,a2,7
   1457c:	06f70e63          	beq	a4,a5,145f8 <enc_buffer+0x5ec>
   14580:	00d60733          	add	a4,a2,a3
   14584:	020703a3          	sb	zero,39(a4)
   14588:	00860713          	addi	a4,a2,8
   1458c:	06f70663          	beq	a4,a5,145f8 <enc_buffer+0x5ec>
   14590:	00d60733          	add	a4,a2,a3
   14594:	02070423          	sb	zero,40(a4)
   14598:	00960713          	addi	a4,a2,9
   1459c:	04f70e63          	beq	a4,a5,145f8 <enc_buffer+0x5ec>
   145a0:	00d60733          	add	a4,a2,a3
   145a4:	020704a3          	sb	zero,41(a4)
   145a8:	00a60713          	addi	a4,a2,10
   145ac:	04f70663          	beq	a4,a5,145f8 <enc_buffer+0x5ec>
   145b0:	00d60733          	add	a4,a2,a3
   145b4:	02070523          	sb	zero,42(a4)
   145b8:	00b60713          	addi	a4,a2,11
   145bc:	02f70e63          	beq	a4,a5,145f8 <enc_buffer+0x5ec>
   145c0:	00d60733          	add	a4,a2,a3
   145c4:	020705a3          	sb	zero,43(a4)
   145c8:	00c60713          	addi	a4,a2,12
   145cc:	02f70663          	beq	a4,a5,145f8 <enc_buffer+0x5ec>
   145d0:	00d60733          	add	a4,a2,a3
   145d4:	02070623          	sb	zero,44(a4)
   145d8:	00d60793          	addi	a5,a2,13
   145dc:	01000713          	addi	a4,zero,16
   145e0:	00e78c63          	beq	a5,a4,145f8 <enc_buffer+0x5ec>
   145e4:	00d607b3          	add	a5,a2,a3
   145e8:	020786a3          	sb	zero,45(a5)
   145ec:	00100793          	addi	a5,zero,1
   145f0:	00f61463          	bne	a2,a5,145f8 <enc_buffer+0x5ec>
   145f4:	02010fa3          	sb	zero,63(sp)
   145f8:	03012303          	lw	t1,48(sp)
   145fc:	03412883          	lw	a7,52(sp)
   14600:	03812803          	lw	a6,56(sp)
   14604:	03c12703          	lw	a4,60(sp)
   14608:	02012583          	lw	a1,32(sp)
   1460c:	02412603          	lw	a2,36(sp)
   14610:	02812683          	lw	a3,40(sp)
   14614:	02c12503          	lw	a0,44(sp)
   14618:	208c4783          	lbu	a5,520(s8)
   1461c:	0065c5b3          	xor	a1,a1,t1
   14620:	01164633          	xor	a2,a2,a7
   14624:	0106c6b3          	xor	a3,a3,a6
   14628:	00a74733          	xor	a4,a4,a0
   1462c:	02b12823          	sw	a1,48(sp)
   14630:	02c12a23          	sw	a2,52(sp)
   14634:	02d12c23          	sw	a3,56(sp)
   14638:	02e12e23          	sw	a4,60(sp)
   1463c:	0017f793          	andi	a5,a5,1
   14640:	00078a63          	beq	a5,zero,14654 <enc_buffer+0x648>
   14644:	000c0613          	addi	a2,s8,0
   14648:	02010593          	addi	a1,sp,32
   1464c:	03010513          	addi	a0,sp,48
   14650:	d7dfb0ef          	jal	ra,103cc <encrypt.part.0>
   14654:	01bd07b3          	add	a5,s10,s11
   14658:	0037f713          	andi	a4,a5,3
   1465c:	5e071263          	bne	a4,zero,14c40 <enc_buffer+0xc34>
   14660:	02012583          	lw	a1,32(sp)
   14664:	02412603          	lw	a2,36(sp)
   14668:	02812683          	lw	a3,40(sp)
   1466c:	02c12703          	lw	a4,44(sp)
   14670:	00b7a023          	sw	a1,0(a5)
   14674:	00c7a223          	sw	a2,4(a5)
   14678:	00d7a423          	sw	a3,8(a5)
   1467c:	00e7a623          	sw	a4,12(a5)
   14680:	010d8d93          	addi	s11,s11,16
   14684:	00812783          	lw	a5,8(sp)
   14688:	07812403          	lw	s0,120(sp)
   1468c:	07412483          	lw	s1,116(sp)
   14690:	01b7a023          	sw	s11,0(a5)
   14694:	06c12983          	lw	s3,108(sp)
   14698:	06812a03          	lw	s4,104(sp)
   1469c:	06412a83          	lw	s5,100(sp)
   146a0:	06012b03          	lw	s6,96(sp)
   146a4:	05c12b83          	lw	s7,92(sp)
   146a8:	05812c03          	lw	s8,88(sp)
   146ac:	05412c83          	lw	s9,84(sp)
   146b0:	05012d03          	lw	s10,80(sp)
   146b4:	04c12d83          	lw	s11,76(sp)
   146b8:	00000513          	addi	a0,zero,0
   146bc:	07c12083          	lw	ra,124(sp)
   146c0:	07012903          	lw	s2,112(sp)
   146c4:	08010113          	addi	sp,sp,128
   146c8:	00008067          	jalr	zero,0(ra)
   146cc:	0000f7b7          	lui	a5,0xf
   146d0:	00003737          	lui	a4,0x3
   146d4:	8681aa83          	lw	s5,-1944(gp) # 78720 <count.3>
   146d8:	af378793          	addi	a5,a5,-1293 # eaf3 <exit-0x15c1>
   146dc:	5fe70713          	addi	a4,a4,1534 # 35fe <exit-0xcab6>
   146e0:	8601a623          	sw	zero,-1940(gp) # 78724 <mt.5>
   146e4:	00f62023          	sw	a5,0(a2)
   146e8:	00e62223          	sw	a4,4(a2)
   146ec:	00400893          	addi	a7,zero,4
   146f0:	991a9ce3          	bne	s5,a7,14088 <enc_buffer+0x7c>
   146f4:	01079893          	slli	a7,a5,0x10
   146f8:	000096b7          	lui	a3,0x9
   146fc:	01071313          	slli	t1,a4,0x10
   14700:	06968693          	addi	a3,a3,105 # 9069 <exit-0x704b>
   14704:	0108d893          	srli	a7,a7,0x10
   14708:	00004e37          	lui	t3,0x4
   1470c:	02d888b3          	mul	a7,a7,a3
   14710:	01035313          	srli	t1,t1,0x10
   14714:	650e0e13          	addi	t3,t3,1616 # 4650 <exit-0xba64>
   14718:	0107d793          	srli	a5,a5,0x10
   1471c:	01075713          	srli	a4,a4,0x10
   14720:	87c18693          	addi	a3,gp,-1924 # 78734 <r3.2>
   14724:	00100e93          	addi	t4,zero,1
   14728:	00300a93          	addi	s5,zero,3
   1472c:	01d12623          	sw	t4,12(sp)
   14730:	03c30333          	mul	t1,t1,t3
   14734:	00f887b3          	add	a5,a7,a5
   14738:	01079893          	slli	a7,a5,0x10
   1473c:	00e30733          	add	a4,t1,a4
   14740:	00e888b3          	add	a7,a7,a4
   14744:	8711ae23          	sw	a7,-1924(gp) # 78734 <r3.2>
   14748:	0016c303          	lbu	t1,1(a3)
   1474c:	0026ca03          	lbu	s4,2(a3)
   14750:	00088d93          	addi	s11,a7,0
   14754:	00612223          	sw	t1,4(sp)
   14758:	01110823          	sb	a7,16(sp)
   1475c:	006108a3          	sb	t1,17(sp)
   14760:	01410923          	sb	s4,18(sp)
   14764:	015688b3          	add	a7,a3,s5
   14768:	0008cc83          	lbu	s9,0(a7)
   1476c:	00400e93          	addi	t4,zero,4
   14770:	001a8893          	addi	a7,s5,1
   14774:	019109a3          	sb	s9,19(sp)
   14778:	71d89263          	bne	a7,t4,14e7c <enc_buffer+0xe70>
   1477c:	01079313          	slli	t1,a5,0x10
   14780:	00009e37          	lui	t3,0x9
   14784:	069e0e13          	addi	t3,t3,105 # 9069 <exit-0x704b>
   14788:	01035313          	srli	t1,t1,0x10
   1478c:	03c30333          	mul	t1,t1,t3
   14790:	01071893          	slli	a7,a4,0x10
   14794:	00004e37          	lui	t3,0x4
   14798:	650e0e13          	addi	t3,t3,1616 # 4650 <exit-0xba64>
   1479c:	0108d893          	srli	a7,a7,0x10
   147a0:	0107d793          	srli	a5,a5,0x10
   147a4:	01075713          	srli	a4,a4,0x10
   147a8:	03c888b3          	mul	a7,a7,t3
   147ac:	00f307b3          	add	a5,t1,a5
   147b0:	01079e13          	slli	t3,a5,0x10
   147b4:	00e88733          	add	a4,a7,a4
   147b8:	00ee0e33          	add	t3,t3,a4
   147bc:	87c1ae23          	sw	t3,-1924(gp) # 78734 <r3.2>
   147c0:	0016c983          	lbu	s3,1(a3)
   147c4:	0026c483          	lbu	s1,2(a3)
   147c8:	0036c403          	lbu	s0,3(a3)
   147cc:	01c12a23          	sw	t3,20(sp)
   147d0:	01079313          	slli	t1,a5,0x10
   147d4:	00009eb7          	lui	t4,0x9
   147d8:	069e8e93          	addi	t4,t4,105 # 9069 <exit-0x704b>
   147dc:	01035313          	srli	t1,t1,0x10
   147e0:	03d30333          	mul	t1,t1,t4
   147e4:	01071893          	slli	a7,a4,0x10
   147e8:	00004eb7          	lui	t4,0x4
   147ec:	0108d893          	srli	a7,a7,0x10
   147f0:	650e8e93          	addi	t4,t4,1616 # 4650 <exit-0xba64>
   147f4:	0107d793          	srli	a5,a5,0x10
   147f8:	01075713          	srli	a4,a4,0x10
   147fc:	03d888b3          	mul	a7,a7,t4
   14800:	00f307b3          	add	a5,t1,a5
   14804:	01079313          	slli	t1,a5,0x10
   14808:	00e88733          	add	a4,a7,a4
   1480c:	00e30333          	add	t1,t1,a4
   14810:	8661ae23          	sw	t1,-1924(gp) # 78734 <r3.2>
   14814:	0016c383          	lbu	t2,1(a3)
   14818:	0026c283          	lbu	t0,2(a3)
   1481c:	0036cf83          	lbu	t6,3(a3)
   14820:	00612c23          	sw	t1,24(sp)
   14824:	01079e93          	slli	t4,a5,0x10
   14828:	000098b7          	lui	a7,0x9
   1482c:	06988893          	addi	a7,a7,105 # 9069 <exit-0x704b>
   14830:	010ede93          	srli	t4,t4,0x10
   14834:	031e8eb3          	mul	t4,t4,a7
   14838:	01071f13          	slli	t5,a4,0x10
   1483c:	000048b7          	lui	a7,0x4
   14840:	65088893          	addi	a7,a7,1616 # 4650 <exit-0xba64>
   14844:	010f5f13          	srli	t5,t5,0x10
   14848:	0107d793          	srli	a5,a5,0x10
   1484c:	01075713          	srli	a4,a4,0x10
   14850:	00400a93          	addi	s5,zero,4
   14854:	8751a423          	sw	s5,-1944(gp) # 78720 <count.3>
   14858:	031f0f33          	mul	t5,t5,a7
   1485c:	00fe87b3          	add	a5,t4,a5
   14860:	01079893          	slli	a7,a5,0x10
   14864:	00ef0733          	add	a4,t5,a4
   14868:	00e888b3          	add	a7,a7,a4
   1486c:	8711ae23          	sw	a7,-1924(gp) # 78734 <r3.2>
   14870:	0016cf03          	lbu	t5,1(a3)
   14874:	0026ce83          	lbu	t4,2(a3)
   14878:	0036cb03          	lbu	s6,3(a3)
   1487c:	01112e23          	sw	a7,28(sp)
   14880:	9a5ff06f          	jal	zero,14224 <enc_buffer+0x218>
   14884:	ffc67893          	andi	a7,a2,-4
   14888:	41130733          	sub	a4,t1,a7
   1488c:	01178333          	add	t1,a5,a7
   14890:	00367793          	andi	a5,a2,3
   14894:	011688b3          	add	a7,a3,a7
   14898:	b20784e3          	beq	a5,zero,143c0 <enc_buffer+0x3b4>
   1489c:	0008c783          	lbu	a5,0(a7)
   148a0:	00f30023          	sb	a5,0(t1)
   148a4:	b0070ee3          	beq	a4,zero,143c0 <enc_buffer+0x3b4>
   148a8:	fff70713          	addi	a4,a4,-1
   148ac:	00188793          	addi	a5,a7,1
   148b0:	00130e13          	addi	t3,t1,1
   148b4:	0007c783          	lbu	a5,0(a5)
   148b8:	00fe0023          	sb	a5,0(t3)
   148bc:	b00702e3          	beq	a4,zero,143c0 <enc_buffer+0x3b4>
   148c0:	0028c783          	lbu	a5,2(a7)
   148c4:	00f30123          	sb	a5,2(t1)
   148c8:	aeb57ee3          	bgeu	a0,a1,143c4 <enc_buffer+0x3b8>
   148cc:	ff158793          	addi	a5,a1,-15
   148d0:	00412d03          	lw	s10,4(sp)
   148d4:	00079a63          	bne	a5,zero,148e8 <enc_buffer+0x8dc>
   148d8:	00080863          	beq	a6,zero,148e8 <enc_buffer+0x8dc>
   148dc:	00160613          	addi	a2,a2,1
   148e0:	01000793          	addi	a5,zero,16
   148e4:	d0f60ae3          	beq	a2,a5,145f8 <enc_buffer+0x5ec>
   148e8:	002607b3          	add	a5,a2,sp
   148ec:	02078823          	sb	zero,48(a5)
   148f0:	01000713          	addi	a4,zero,16
   148f4:	00160793          	addi	a5,a2,1
   148f8:	d0e780e3          	beq	a5,a4,145f8 <enc_buffer+0x5ec>
   148fc:	00e106b3          	add	a3,sp,a4
   14900:	00d607b3          	add	a5,a2,a3
   14904:	020780a3          	sb	zero,33(a5)
   14908:	00260793          	addi	a5,a2,2
   1490c:	c0e79ee3          	bne	a5,a4,14528 <enc_buffer+0x51c>
   14910:	ce9ff06f          	jal	zero,145f8 <enc_buffer+0x5ec>
   14914:	0046c883          	lbu	a7,4(a3)
   14918:	00478313          	addi	t1,a5,4
   1491c:	00578e13          	addi	t3,a5,5
   14920:	01178223          	sb	a7,4(a5)
   14924:	00468893          	addi	a7,a3,4
   14928:	00568793          	addi	a5,a3,5
   1492c:	f89ff06f          	jal	zero,148b4 <enc_buffer+0x8a8>
   14930:	0006c703          	lbu	a4,0(a3)
   14934:	00e78023          	sb	a4,0(a5)
   14938:	a80304e3          	beq	t1,zero,143c0 <enc_buffer+0x3b4>
   1493c:	0016c883          	lbu	a7,1(a3)
   14940:	00200713          	addi	a4,zero,2
   14944:	011780a3          	sb	a7,1(a5)
   14948:	a6e60ce3          	beq	a2,a4,143c0 <enc_buffer+0x3b4>
   1494c:	00e68733          	add	a4,a3,a4
   14950:	00278313          	addi	t1,a5,2
   14954:	ffd60893          	addi	a7,a2,-3
   14958:	00074703          	lbu	a4,0(a4)
   1495c:	00e30023          	sb	a4,0(t1)
   14960:	a60880e3          	beq	a7,zero,143c0 <enc_buffer+0x3b4>
   14964:	0036c883          	lbu	a7,3(a3)
   14968:	00400713          	addi	a4,zero,4
   1496c:	011781a3          	sb	a7,3(a5)
   14970:	a4e608e3          	beq	a2,a4,143c0 <enc_buffer+0x3b4>
   14974:	0046c883          	lbu	a7,4(a3)
   14978:	00500713          	addi	a4,zero,5
   1497c:	01178223          	sb	a7,4(a5)
   14980:	a4e600e3          	beq	a2,a4,143c0 <enc_buffer+0x3b4>
   14984:	0056c883          	lbu	a7,5(a3)
   14988:	00600713          	addi	a4,zero,6
   1498c:	011782a3          	sb	a7,5(a5)
   14990:	a2e608e3          	beq	a2,a4,143c0 <enc_buffer+0x3b4>
   14994:	0066c883          	lbu	a7,6(a3)
   14998:	00700713          	addi	a4,zero,7
   1499c:	01178323          	sb	a7,6(a5)
   149a0:	a2e600e3          	beq	a2,a4,143c0 <enc_buffer+0x3b4>
   149a4:	0076c883          	lbu	a7,7(a3)
   149a8:	00800713          	addi	a4,zero,8
   149ac:	011783a3          	sb	a7,7(a5)
   149b0:	a0e608e3          	beq	a2,a4,143c0 <enc_buffer+0x3b4>
   149b4:	0086c883          	lbu	a7,8(a3)
   149b8:	00900713          	addi	a4,zero,9
   149bc:	01178423          	sb	a7,8(a5)
   149c0:	a0e600e3          	beq	a2,a4,143c0 <enc_buffer+0x3b4>
   149c4:	0096c883          	lbu	a7,9(a3)
   149c8:	00a00713          	addi	a4,zero,10
   149cc:	011784a3          	sb	a7,9(a5)
   149d0:	9ee608e3          	beq	a2,a4,143c0 <enc_buffer+0x3b4>
   149d4:	00a6c883          	lbu	a7,10(a3)
   149d8:	00b00713          	addi	a4,zero,11
   149dc:	01178523          	sb	a7,10(a5)
   149e0:	9ee600e3          	beq	a2,a4,143c0 <enc_buffer+0x3b4>
   149e4:	00b6c883          	lbu	a7,11(a3)
   149e8:	00c00713          	addi	a4,zero,12
   149ec:	011785a3          	sb	a7,11(a5)
   149f0:	9ce608e3          	beq	a2,a4,143c0 <enc_buffer+0x3b4>
   149f4:	00c6c883          	lbu	a7,12(a3)
   149f8:	00d00713          	addi	a4,zero,13
   149fc:	01178623          	sb	a7,12(a5)
   14a00:	9ce600e3          	beq	a2,a4,143c0 <enc_buffer+0x3b4>
   14a04:	00d6c883          	lbu	a7,13(a3)
   14a08:	00e00713          	addi	a4,zero,14
   14a0c:	011786a3          	sb	a7,13(a5)
   14a10:	9ae608e3          	beq	a2,a4,143c0 <enc_buffer+0x3b4>
   14a14:	00e6c883          	lbu	a7,14(a3)
   14a18:	00f00713          	addi	a4,zero,15
   14a1c:	01178723          	sb	a7,14(a5)
   14a20:	9ae600e3          	beq	a2,a4,143c0 <enc_buffer+0x3b4>
   14a24:	00f6c703          	lbu	a4,15(a3)
   14a28:	00e787a3          	sb	a4,15(a5)
   14a2c:	995ff06f          	jal	zero,143c0 <enc_buffer+0x3b4>
   14a30:	0006c303          	lbu	t1,0(a3)
   14a34:	0016c883          	lbu	a7,1(a3)
   14a38:	00268713          	addi	a4,a3,2
   14a3c:	00678023          	sb	t1,0(a5)
   14a40:	011780a3          	sb	a7,1(a5)
   14a44:	00278313          	addi	t1,a5,2
   14a48:	ffd60893          	addi	a7,a2,-3
   14a4c:	f0dff06f          	jal	zero,14958 <enc_buffer+0x94c>
   14a50:	00668333          	add	t1,a3,t1
   14a54:	00034303          	lbu	t1,0(t1)
   14a58:	00612223          	sw	t1,4(sp)
   14a5c:	00412e03          	lw	t3,4(sp)
   14a60:	002a8313          	addi	t1,s5,2
   14a64:	01c108a3          	sb	t3,17(sp)
   14a68:	25131e63          	bne	t1,a7,14cc4 <enc_buffer+0xcb8>
   14a6c:	01079313          	slli	t1,a5,0x10
   14a70:	00009e37          	lui	t3,0x9
   14a74:	069e0e13          	addi	t3,t3,105 # 9069 <exit-0x704b>
   14a78:	01035313          	srli	t1,t1,0x10
   14a7c:	03c30333          	mul	t1,t1,t3
   14a80:	01071893          	slli	a7,a4,0x10
   14a84:	00004e37          	lui	t3,0x4
   14a88:	650e0e13          	addi	t3,t3,1616 # 4650 <exit-0xba64>
   14a8c:	0108d893          	srli	a7,a7,0x10
   14a90:	0107d793          	srli	a5,a5,0x10
   14a94:	01075713          	srli	a4,a4,0x10
   14a98:	03c888b3          	mul	a7,a7,t3
   14a9c:	00f307b3          	add	a5,t1,a5
   14aa0:	01079a13          	slli	s4,a5,0x10
   14aa4:	00e88733          	add	a4,a7,a4
   14aa8:	00ea0a33          	add	s4,s4,a4
   14aac:	8741ae23          	sw	s4,-1924(gp) # 78734 <r3.2>
   14ab0:	0016cc83          	lbu	s9,1(a3)
   14ab4:	0026ce03          	lbu	t3,2(a3)
   14ab8:	0036c983          	lbu	s3,3(a3)
   14abc:	01410923          	sb	s4,18(sp)
   14ac0:	019109a3          	sb	s9,19(sp)
   14ac4:	01c10a23          	sb	t3,20(sp)
   14ac8:	01310aa3          	sb	s3,21(sp)
   14acc:	01079313          	slli	t1,a5,0x10
   14ad0:	00009eb7          	lui	t4,0x9
   14ad4:	069e8e93          	addi	t4,t4,105 # 9069 <exit-0x704b>
   14ad8:	01035313          	srli	t1,t1,0x10
   14adc:	03d30333          	mul	t1,t1,t4
   14ae0:	01071893          	slli	a7,a4,0x10
   14ae4:	00004eb7          	lui	t4,0x4
   14ae8:	0108d893          	srli	a7,a7,0x10
   14aec:	650e8e93          	addi	t4,t4,1616 # 4650 <exit-0xba64>
   14af0:	0107d793          	srli	a5,a5,0x10
   14af4:	01075713          	srli	a4,a4,0x10
   14af8:	03d888b3          	mul	a7,a7,t4
   14afc:	00f307b3          	add	a5,t1,a5
   14b00:	01079493          	slli	s1,a5,0x10
   14b04:	00e88733          	add	a4,a7,a4
   14b08:	00e484b3          	add	s1,s1,a4
   14b0c:	8691ae23          	sw	s1,-1924(gp) # 78734 <r3.2>
   14b10:	0016c403          	lbu	s0,1(a3)
   14b14:	0026c303          	lbu	t1,2(a3)
   14b18:	0036c383          	lbu	t2,3(a3)
   14b1c:	00910b23          	sb	s1,22(sp)
   14b20:	00810ba3          	sb	s0,23(sp)
   14b24:	00610c23          	sb	t1,24(sp)
   14b28:	00710ca3          	sb	t2,25(sp)
   14b2c:	01079e93          	slli	t4,a5,0x10
   14b30:	00009f37          	lui	t5,0x9
   14b34:	069f0f13          	addi	t5,t5,105 # 9069 <exit-0x704b>
   14b38:	010ede93          	srli	t4,t4,0x10
   14b3c:	03ee8eb3          	mul	t4,t4,t5
   14b40:	01071893          	slli	a7,a4,0x10
   14b44:	00004f37          	lui	t5,0x4
   14b48:	650f0f13          	addi	t5,t5,1616 # 4650 <exit-0xba64>
   14b4c:	0108d893          	srli	a7,a7,0x10
   14b50:	0107d793          	srli	a5,a5,0x10
   14b54:	01075713          	srli	a4,a4,0x10
   14b58:	03e888b3          	mul	a7,a7,t5
   14b5c:	00fe87b3          	add	a5,t4,a5
   14b60:	01079293          	slli	t0,a5,0x10
   14b64:	00e88733          	add	a4,a7,a4
   14b68:	00e282b3          	add	t0,t0,a4
   14b6c:	8651ae23          	sw	t0,-1924(gp) # 78734 <r3.2>
   14b70:	0016cf83          	lbu	t6,1(a3)
   14b74:	0026c883          	lbu	a7,2(a3)
   14b78:	0036cf03          	lbu	t5,3(a3)
   14b7c:	00510d23          	sb	t0,26(sp)
   14b80:	01f10da3          	sb	t6,27(sp)
   14b84:	01110e23          	sb	a7,28(sp)
   14b88:	01e10ea3          	sb	t5,29(sp)
   14b8c:	01079a93          	slli	s5,a5,0x10
   14b90:	00009eb7          	lui	t4,0x9
   14b94:	01071b13          	slli	s6,a4,0x10
   14b98:	069e8e93          	addi	t4,t4,105 # 9069 <exit-0x704b>
   14b9c:	010ada93          	srli	s5,s5,0x10
   14ba0:	00004bb7          	lui	s7,0x4
   14ba4:	03da8ab3          	mul	s5,s5,t4
   14ba8:	010b5b13          	srli	s6,s6,0x10
   14bac:	00200e93          	addi	t4,zero,2
   14bb0:	650b8b93          	addi	s7,s7,1616 # 4650 <exit-0xba64>
   14bb4:	87d1a423          	sw	t4,-1944(gp) # 78720 <count.3>
   14bb8:	0107d793          	srli	a5,a5,0x10
   14bbc:	01075713          	srli	a4,a4,0x10
   14bc0:	037b0eb3          	mul	t4,s6,s7
   14bc4:	00fa87b3          	add	a5,s5,a5
   14bc8:	01079a93          	slli	s5,a5,0x10
   14bcc:	00ee8733          	add	a4,t4,a4
   14bd0:	00ea8eb3          	add	t4,s5,a4
   14bd4:	87d1ae23          	sw	t4,-1924(gp) # 78734 <r3.2>
   14bd8:	0016cb03          	lbu	s6,1(a3)
   14bdc:	01d10f23          	sb	t4,30(sp)
   14be0:	01610fa3          	sb	s6,31(sp)
   14be4:	e40ff06f          	jal	zero,14224 <enc_buffer+0x218>
   14be8:	00412783          	lw	a5,4(sp)
   14bec:	014d0123          	sb	s4,2(s10)
   14bf0:	01012703          	lw	a4,16(sp)
   14bf4:	00fd00a3          	sb	a5,1(s10)
   14bf8:	01412a83          	lw	s5,20(sp)
   14bfc:	01812a03          	lw	s4,24(sp)
   14c00:	01c12783          	lw	a5,28(sp)
   14c04:	01bd0023          	sb	s11,0(s10)
   14c08:	019d01a3          	sb	s9,3(s10)
   14c0c:	01cd0223          	sb	t3,4(s10)
   14c10:	013d02a3          	sb	s3,5(s10)
   14c14:	009d0323          	sb	s1,6(s10)
   14c18:	008d03a3          	sb	s0,7(s10)
   14c1c:	006d0423          	sb	t1,8(s10)
   14c20:	007d04a3          	sb	t2,9(s10)
   14c24:	005d0523          	sb	t0,10(s10)
   14c28:	01fd05a3          	sb	t6,11(s10)
   14c2c:	011d0623          	sb	a7,12(s10)
   14c30:	01ed06a3          	sb	t5,13(s10)
   14c34:	01dd0723          	sb	t4,14(s10)
   14c38:	016d07a3          	sb	s6,15(s10)
   14c3c:	e18ff06f          	jal	zero,14254 <enc_buffer+0x248>
   14c40:	02014503          	lbu	a0,32(sp)
   14c44:	02114583          	lbu	a1,33(sp)
   14c48:	02214603          	lbu	a2,34(sp)
   14c4c:	02314683          	lbu	a3,35(sp)
   14c50:	02414703          	lbu	a4,36(sp)
   14c54:	02514f03          	lbu	t5,37(sp)
   14c58:	02614e83          	lbu	t4,38(sp)
   14c5c:	02714e03          	lbu	t3,39(sp)
   14c60:	02814303          	lbu	t1,40(sp)
   14c64:	02914883          	lbu	a7,41(sp)
   14c68:	02a14803          	lbu	a6,42(sp)
   14c6c:	00a78023          	sb	a0,0(a5)
   14c70:	00b780a3          	sb	a1,1(a5)
   14c74:	02b14503          	lbu	a0,43(sp)
   14c78:	02c14583          	lbu	a1,44(sp)
   14c7c:	00c78123          	sb	a2,2(a5)
   14c80:	00d781a3          	sb	a3,3(a5)
   14c84:	02d14603          	lbu	a2,45(sp)
   14c88:	02e14683          	lbu	a3,46(sp)
   14c8c:	00e78223          	sb	a4,4(a5)
   14c90:	02f14703          	lbu	a4,47(sp)
   14c94:	01e782a3          	sb	t5,5(a5)
   14c98:	01d78323          	sb	t4,6(a5)
   14c9c:	01c783a3          	sb	t3,7(a5)
   14ca0:	00678423          	sb	t1,8(a5)
   14ca4:	011784a3          	sb	a7,9(a5)
   14ca8:	01078523          	sb	a6,10(a5)
   14cac:	00a785a3          	sb	a0,11(a5)
   14cb0:	00b78623          	sb	a1,12(a5)
   14cb4:	00c786a3          	sb	a2,13(a5)
   14cb8:	00d78723          	sb	a3,14(a5)
   14cbc:	00e787a3          	sb	a4,15(a5)
   14cc0:	9c1ff06f          	jal	zero,14680 <enc_buffer+0x674>
   14cc4:	00668333          	add	t1,a3,t1
   14cc8:	00034a03          	lbu	s4,0(t1)
   14ccc:	003a8a93          	addi	s5,s5,3
   14cd0:	01410923          	sb	s4,18(sp)
   14cd4:	191a9463          	bne	s5,a7,14e5c <enc_buffer+0xe50>
   14cd8:	01079893          	slli	a7,a5,0x10
   14cdc:	00009e37          	lui	t3,0x9
   14ce0:	069e0e13          	addi	t3,t3,105 # 9069 <exit-0x704b>
   14ce4:	0108d893          	srli	a7,a7,0x10
   14ce8:	03c888b3          	mul	a7,a7,t3
   14cec:	01071313          	slli	t1,a4,0x10
   14cf0:	00004e37          	lui	t3,0x4
   14cf4:	650e0e13          	addi	t3,t3,1616 # 4650 <exit-0xba64>
   14cf8:	01035313          	srli	t1,t1,0x10
   14cfc:	0107d793          	srli	a5,a5,0x10
   14d00:	01075713          	srli	a4,a4,0x10
   14d04:	03c30333          	mul	t1,t1,t3
   14d08:	00f887b3          	add	a5,a7,a5
   14d0c:	01079893          	slli	a7,a5,0x10
   14d10:	00e30733          	add	a4,t1,a4
   14d14:	00e888b3          	add	a7,a7,a4
   14d18:	8711ae23          	sw	a7,-1924(gp) # 78734 <r3.2>
   14d1c:	0016ce03          	lbu	t3,1(a3)
   14d20:	0026c983          	lbu	s3,2(a3)
   14d24:	0036c483          	lbu	s1,3(a3)
   14d28:	00088c93          	addi	s9,a7,0
   14d2c:	011109a3          	sb	a7,19(sp)
   14d30:	01c10a23          	sb	t3,20(sp)
   14d34:	01310aa3          	sb	s3,21(sp)
   14d38:	00910b23          	sb	s1,22(sp)
   14d3c:	01079313          	slli	t1,a5,0x10
   14d40:	00009eb7          	lui	t4,0x9
   14d44:	069e8e93          	addi	t4,t4,105 # 9069 <exit-0x704b>
   14d48:	01035313          	srli	t1,t1,0x10
   14d4c:	03d30333          	mul	t1,t1,t4
   14d50:	01071893          	slli	a7,a4,0x10
   14d54:	00004eb7          	lui	t4,0x4
   14d58:	0108d893          	srli	a7,a7,0x10
   14d5c:	650e8e93          	addi	t4,t4,1616 # 4650 <exit-0xba64>
   14d60:	0107d793          	srli	a5,a5,0x10
   14d64:	01075713          	srli	a4,a4,0x10
   14d68:	03d888b3          	mul	a7,a7,t4
   14d6c:	00f307b3          	add	a5,t1,a5
   14d70:	01079413          	slli	s0,a5,0x10
   14d74:	00e88733          	add	a4,a7,a4
   14d78:	00e40433          	add	s0,s0,a4
   14d7c:	8681ae23          	sw	s0,-1924(gp) # 78734 <r3.2>
   14d80:	0016c303          	lbu	t1,1(a3)
   14d84:	0026c383          	lbu	t2,2(a3)
   14d88:	0036c283          	lbu	t0,3(a3)
   14d8c:	00810ba3          	sb	s0,23(sp)
   14d90:	00610c23          	sb	t1,24(sp)
   14d94:	00710ca3          	sb	t2,25(sp)
   14d98:	00510d23          	sb	t0,26(sp)
   14d9c:	01079e93          	slli	t4,a5,0x10
   14da0:	00009f37          	lui	t5,0x9
   14da4:	069f0f13          	addi	t5,t5,105 # 9069 <exit-0x704b>
   14da8:	010ede93          	srli	t4,t4,0x10
   14dac:	03ee8eb3          	mul	t4,t4,t5
   14db0:	01071893          	slli	a7,a4,0x10
   14db4:	00004f37          	lui	t5,0x4
   14db8:	650f0f13          	addi	t5,t5,1616 # 4650 <exit-0xba64>
   14dbc:	0108d893          	srli	a7,a7,0x10
   14dc0:	0107d793          	srli	a5,a5,0x10
   14dc4:	01075713          	srli	a4,a4,0x10
   14dc8:	03e888b3          	mul	a7,a7,t5
   14dcc:	00fe87b3          	add	a5,t4,a5
   14dd0:	01079f93          	slli	t6,a5,0x10
   14dd4:	00e88733          	add	a4,a7,a4
   14dd8:	00ef8fb3          	add	t6,t6,a4
   14ddc:	87f1ae23          	sw	t6,-1924(gp) # 78734 <r3.2>
   14de0:	0016c883          	lbu	a7,1(a3)
   14de4:	0026cf03          	lbu	t5,2(a3)
   14de8:	0036ce83          	lbu	t4,3(a3)
   14dec:	01f10da3          	sb	t6,27(sp)
   14df0:	01110e23          	sb	a7,28(sp)
   14df4:	01e10ea3          	sb	t5,29(sp)
   14df8:	01d10f23          	sb	t4,30(sp)
   14dfc:	01079a93          	slli	s5,a5,0x10
   14e00:	00009b37          	lui	s6,0x9
   14e04:	069b0b13          	addi	s6,s6,105 # 9069 <exit-0x704b>
   14e08:	010ada93          	srli	s5,s5,0x10
   14e0c:	036a8ab3          	mul	s5,s5,s6
   14e10:	01071b93          	slli	s7,a4,0x10
   14e14:	00004b37          	lui	s6,0x4
   14e18:	01075713          	srli	a4,a4,0x10
   14e1c:	650b0b13          	addi	s6,s6,1616 # 4650 <exit-0xba64>
   14e20:	00e12623          	sw	a4,12(sp)
   14e24:	010bdb93          	srli	s7,s7,0x10
   14e28:	00100713          	addi	a4,zero,1
   14e2c:	86e1a423          	sw	a4,-1944(gp) # 78720 <count.3>
   14e30:	0107d793          	srli	a5,a5,0x10
   14e34:	036b8733          	mul	a4,s7,s6
   14e38:	00c12b03          	lw	s6,12(sp)
   14e3c:	00fa87b3          	add	a5,s5,a5
   14e40:	01079a93          	slli	s5,a5,0x10
   14e44:	01670733          	add	a4,a4,s6
   14e48:	00ea8ab3          	add	s5,s5,a4
   14e4c:	000a8b13          	addi	s6,s5,0
   14e50:	8751ae23          	sw	s5,-1924(gp) # 78734 <r3.2>
   14e54:	01510fa3          	sb	s5,31(sp)
   14e58:	bccff06f          	jal	zero,14224 <enc_buffer+0x218>
   14e5c:	00012623          	sw	zero,12(sp)
   14e60:	905ff06f          	jal	zero,14764 <enc_buffer+0x758>
   14e64:	00025537          	lui	a0,0x25
   14e68:	00070613          	addi	a2,a4,0
   14e6c:	6e450513          	addi	a0,a0,1764 # 256e4 <__clzsi2+0xac>
   14e70:	5cc000ef          	jal	ra,1543c <printf>
   14e74:	f9c00513          	addi	a0,zero,-100
   14e78:	845ff06f          	jal	zero,146bc <enc_buffer+0x6b0>
   14e7c:	011688b3          	add	a7,a3,a7
   14e80:	0008ce03          	lbu	t3,0(a7)
   14e84:	002a8893          	addi	a7,s5,2
   14e88:	01c10a23          	sb	t3,20(sp)
   14e8c:	a7d88c63          	beq	a7,t4,14104 <enc_buffer+0xf8>
   14e90:	011688b3          	add	a7,a3,a7
   14e94:	0008c983          	lbu	s3,0(a7)
   14e98:	003a8893          	addi	a7,s5,3
   14e9c:	01310aa3          	sb	s3,21(sp)
   14ea0:	c3d886e3          	beq	a7,t4,14acc <enc_buffer+0xac0>
   14ea4:	011688b3          	add	a7,a3,a7
   14ea8:	0008c483          	lbu	s1,0(a7)
   14eac:	004a8893          	addi	a7,s5,4
   14eb0:	00910b23          	sb	s1,22(sp)
   14eb4:	e9d884e3          	beq	a7,t4,14d3c <enc_buffer+0xd30>
   14eb8:	011688b3          	add	a7,a3,a7
   14ebc:	0008c403          	lbu	s0,0(a7)
   14ec0:	005a8893          	addi	a7,s5,5
   14ec4:	00810ba3          	sb	s0,23(sp)
   14ec8:	91d884e3          	beq	a7,t4,147d0 <enc_buffer+0x7c4>
   14ecc:	011688b3          	add	a7,a3,a7
   14ed0:	0008c303          	lbu	t1,0(a7)
   14ed4:	006a8893          	addi	a7,s5,6
   14ed8:	00610c23          	sb	t1,24(sp)
   14edc:	a9d88463          	beq	a7,t4,14164 <enc_buffer+0x158>
   14ee0:	011688b3          	add	a7,a3,a7
   14ee4:	0008c383          	lbu	t2,0(a7)
   14ee8:	007a8893          	addi	a7,s5,7
   14eec:	00710ca3          	sb	t2,25(sp)
   14ef0:	c3d88ee3          	beq	a7,t4,14b2c <enc_buffer+0xb20>
   14ef4:	011688b3          	add	a7,a3,a7
   14ef8:	0008c283          	lbu	t0,0(a7)
   14efc:	008a8893          	addi	a7,s5,8
   14f00:	00510d23          	sb	t0,26(sp)
   14f04:	e9d88ce3          	beq	a7,t4,14d9c <enc_buffer+0xd90>
   14f08:	011688b3          	add	a7,a3,a7
   14f0c:	0008cf83          	lbu	t6,0(a7)
   14f10:	009a8893          	addi	a7,s5,9
   14f14:	01f10da3          	sb	t6,27(sp)
   14f18:	91d886e3          	beq	a7,t4,14824 <enc_buffer+0x818>
   14f1c:	011688b3          	add	a7,a3,a7
   14f20:	0008c883          	lbu	a7,0(a7)
   14f24:	00aa8f13          	addi	t5,s5,10
   14f28:	01110e23          	sb	a7,28(sp)
   14f2c:	a9df0c63          	beq	t5,t4,141c4 <enc_buffer+0x1b8>
   14f30:	01e68f33          	add	t5,a3,t5
   14f34:	000f4f03          	lbu	t5,0(t5)
   14f38:	00ba8e93          	addi	t4,s5,11
   14f3c:	00400b13          	addi	s6,zero,4
   14f40:	01e10ea3          	sb	t5,29(sp)
   14f44:	c56e84e3          	beq	t4,s6,14b8c <enc_buffer+0xb80>
   14f48:	01d68eb3          	add	t4,a3,t4
   14f4c:	000ece83          	lbu	t4,0(t4)
   14f50:	00ca8b13          	addi	s6,s5,12
   14f54:	00400b93          	addi	s7,zero,4
   14f58:	01d10f23          	sb	t4,30(sp)
   14f5c:	eb7b00e3          	beq	s6,s7,14dfc <enc_buffer+0xdf0>
   14f60:	01668b33          	add	s6,a3,s6
   14f64:	00da8a93          	addi	s5,s5,13
   14f68:	000b4b03          	lbu	s6,0(s6)
   14f6c:	8751a423          	sw	s5,-1944(gp) # 78720 <count.3>
   14f70:	00c12a83          	lw	s5,12(sp)
   14f74:	01610fa3          	sb	s6,31(sp)
   14f78:	aa0a8a63          	beq	s5,zero,1422c <enc_buffer+0x220>
   14f7c:	aa8ff06f          	jal	zero,14224 <enc_buffer+0x218>

00014f80 <dec_buffer>:
   14f80:	01f00813          	addi	a6,zero,31
   14f84:	00b87463          	bgeu	a6,a1,14f8c <dec_buffer+0xc>
   14f88:	bf8fe06f          	jal	zero,13380 <dec_buffer.part.0>
   14f8c:	00025537          	lui	a0,0x25
   14f90:	ff010113          	addi	sp,sp,-16
   14f94:	72850513          	addi	a0,a0,1832 # 25728 <__clzsi2+0xf0>
   14f98:	00112623          	sw	ra,12(sp)
   14f9c:	4a0000ef          	jal	ra,1543c <printf>
   14fa0:	00c12083          	lw	ra,12(sp)
   14fa4:	f3800513          	addi	a0,zero,-200
   14fa8:	01010113          	addi	sp,sp,16
   14fac:	00008067          	jalr	zero,0(ra)

00014fb0 <__fp_lock>:
   14fb0:	00000513          	addi	a0,zero,0
   14fb4:	00008067          	jalr	zero,0(ra)

00014fb8 <stdio_exit_handler>:
   14fb8:	00078637          	lui	a2,0x78
   14fbc:	0001a5b7          	lui	a1,0x1a
   14fc0:	00078537          	lui	a0,0x78
   14fc4:	01060613          	addi	a2,a2,16 # 78010 <__sglue>
   14fc8:	94458593          	addi	a1,a1,-1724 # 19944 <_fclose_r>
   14fcc:	02050513          	addi	a0,a0,32 # 78020 <_impure_data>
   14fd0:	3700006f          	jal	zero,15340 <_fwalk_sglue>

00014fd4 <cleanup_stdio>:
   14fd4:	00452583          	lw	a1,4(a0)
   14fd8:	ff010113          	addi	sp,sp,-16
   14fdc:	001117b7          	lui	a5,0x111
   14fe0:	00812423          	sw	s0,8(sp)
   14fe4:	00112623          	sw	ra,12(sp)
   14fe8:	bd078793          	addi	a5,a5,-1072 # 110bd0 <__sf>
   14fec:	00050413          	addi	s0,a0,0
   14ff0:	00f58463          	beq	a1,a5,14ff8 <cleanup_stdio+0x24>
   14ff4:	151040ef          	jal	ra,19944 <_fclose_r>
   14ff8:	00842583          	lw	a1,8(s0)
   14ffc:	001117b7          	lui	a5,0x111
   15000:	c3878793          	addi	a5,a5,-968 # 110c38 <__sf+0x68>
   15004:	00f58663          	beq	a1,a5,15010 <cleanup_stdio+0x3c>
   15008:	00040513          	addi	a0,s0,0
   1500c:	139040ef          	jal	ra,19944 <_fclose_r>
   15010:	00c42583          	lw	a1,12(s0)
   15014:	001117b7          	lui	a5,0x111
   15018:	ca078793          	addi	a5,a5,-864 # 110ca0 <__sf+0xd0>
   1501c:	00f58c63          	beq	a1,a5,15034 <cleanup_stdio+0x60>
   15020:	00040513          	addi	a0,s0,0
   15024:	00812403          	lw	s0,8(sp)
   15028:	00c12083          	lw	ra,12(sp)
   1502c:	01010113          	addi	sp,sp,16
   15030:	1150406f          	jal	zero,19944 <_fclose_r>
   15034:	00c12083          	lw	ra,12(sp)
   15038:	00812403          	lw	s0,8(sp)
   1503c:	01010113          	addi	sp,sp,16
   15040:	00008067          	jalr	zero,0(ra)

00015044 <__fp_unlock>:
   15044:	00000513          	addi	a0,zero,0
   15048:	00008067          	jalr	zero,0(ra)

0001504c <global_stdio_init.part.0>:
   1504c:	fe010113          	addi	sp,sp,-32
   15050:	000157b7          	lui	a5,0x15
   15054:	00812c23          	sw	s0,24(sp)
   15058:	fb878793          	addi	a5,a5,-72 # 14fb8 <stdio_exit_handler>
   1505c:	00111437          	lui	s0,0x111
   15060:	00111537          	lui	a0,0x111
   15064:	bd040413          	addi	s0,s0,-1072 # 110bd0 <__sf>
   15068:	00112e23          	sw	ra,28(sp)
   1506c:	00912a23          	sw	s1,20(sp)
   15070:	01212823          	sw	s2,16(sp)
   15074:	01312623          	sw	s3,12(sp)
   15078:	01412423          	sw	s4,8(sp)
   1507c:	88f1a423          	sw	a5,-1912(gp) # 78740 <__stdio_exit_handler>
   15080:	00800613          	addi	a2,zero,8
   15084:	00400793          	addi	a5,zero,4
   15088:	00000593          	addi	a1,zero,0
   1508c:	c2c50513          	addi	a0,a0,-980 # 110c2c <__sf+0x5c>
   15090:	00f42623          	sw	a5,12(s0)
   15094:	00042023          	sw	zero,0(s0)
   15098:	00042223          	sw	zero,4(s0)
   1509c:	00042423          	sw	zero,8(s0)
   150a0:	06042223          	sw	zero,100(s0)
   150a4:	00042823          	sw	zero,16(s0)
   150a8:	00042a23          	sw	zero,20(s0)
   150ac:	00042c23          	sw	zero,24(s0)
   150b0:	03d000ef          	jal	ra,158ec <memset>
   150b4:	00015a37          	lui	s4,0x15
   150b8:	000159b7          	lui	s3,0x15
   150bc:	00015937          	lui	s2,0x15
   150c0:	000154b7          	lui	s1,0x15
   150c4:	00111537          	lui	a0,0x111
   150c8:	000107b7          	lui	a5,0x10
   150cc:	488a0a13          	addi	s4,s4,1160 # 15488 <__sread>
   150d0:	4ec98993          	addi	s3,s3,1260 # 154ec <__swrite>
   150d4:	57490913          	addi	s2,s2,1396 # 15574 <__sseek>
   150d8:	5d848493          	addi	s1,s1,1496 # 155d8 <__sclose>
   150dc:	00978793          	addi	a5,a5,9 # 10009 <exit-0xab>
   150e0:	00800613          	addi	a2,zero,8
   150e4:	00000593          	addi	a1,zero,0
   150e8:	c9450513          	addi	a0,a0,-876 # 110c94 <__sf+0xc4>
   150ec:	06f42a23          	sw	a5,116(s0)
   150f0:	03442023          	sw	s4,32(s0)
   150f4:	03342223          	sw	s3,36(s0)
   150f8:	03242423          	sw	s2,40(s0)
   150fc:	02942623          	sw	s1,44(s0)
   15100:	00842e23          	sw	s0,28(s0)
   15104:	06042423          	sw	zero,104(s0)
   15108:	06042623          	sw	zero,108(s0)
   1510c:	06042823          	sw	zero,112(s0)
   15110:	0c042623          	sw	zero,204(s0)
   15114:	06042c23          	sw	zero,120(s0)
   15118:	06042e23          	sw	zero,124(s0)
   1511c:	08042023          	sw	zero,128(s0)
   15120:	7cc000ef          	jal	ra,158ec <memset>
   15124:	00111737          	lui	a4,0x111
   15128:	00111537          	lui	a0,0x111
   1512c:	000207b7          	lui	a5,0x20
   15130:	01278793          	addi	a5,a5,18 # 20012 <_vfiprintf_r+0xfae>
   15134:	c3870713          	addi	a4,a4,-968 # 110c38 <__sf+0x68>
   15138:	cfc50513          	addi	a0,a0,-772 # 110cfc <__sf+0x12c>
   1513c:	00800613          	addi	a2,zero,8
   15140:	00000593          	addi	a1,zero,0
   15144:	09442423          	sw	s4,136(s0)
   15148:	09342623          	sw	s3,140(s0)
   1514c:	09242823          	sw	s2,144(s0)
   15150:	08942a23          	sw	s1,148(s0)
   15154:	0cf42e23          	sw	a5,220(s0)
   15158:	0c042823          	sw	zero,208(s0)
   1515c:	0c042a23          	sw	zero,212(s0)
   15160:	0c042c23          	sw	zero,216(s0)
   15164:	12042a23          	sw	zero,308(s0)
   15168:	0e042023          	sw	zero,224(s0)
   1516c:	0e042223          	sw	zero,228(s0)
   15170:	0e042423          	sw	zero,232(s0)
   15174:	08e42223          	sw	a4,132(s0)
   15178:	774000ef          	jal	ra,158ec <memset>
   1517c:	001117b7          	lui	a5,0x111
   15180:	ca078793          	addi	a5,a5,-864 # 110ca0 <__sf+0xd0>
   15184:	0f442823          	sw	s4,240(s0)
   15188:	0f342a23          	sw	s3,244(s0)
   1518c:	0f242c23          	sw	s2,248(s0)
   15190:	0e942e23          	sw	s1,252(s0)
   15194:	01c12083          	lw	ra,28(sp)
   15198:	0ef42623          	sw	a5,236(s0)
   1519c:	01812403          	lw	s0,24(sp)
   151a0:	01412483          	lw	s1,20(sp)
   151a4:	01012903          	lw	s2,16(sp)
   151a8:	00c12983          	lw	s3,12(sp)
   151ac:	00812a03          	lw	s4,8(sp)
   151b0:	02010113          	addi	sp,sp,32
   151b4:	00008067          	jalr	zero,0(ra)

000151b8 <__sfp>:
   151b8:	8881a783          	lw	a5,-1912(gp) # 78740 <__stdio_exit_handler>
   151bc:	fe010113          	addi	sp,sp,-32
   151c0:	00912a23          	sw	s1,20(sp)
   151c4:	00112e23          	sw	ra,28(sp)
   151c8:	00812c23          	sw	s0,24(sp)
   151cc:	00050493          	addi	s1,a0,0
   151d0:	0e078e63          	beq	a5,zero,152cc <__sfp+0x114>
   151d4:	00078837          	lui	a6,0x78
   151d8:	01080813          	addi	a6,a6,16 # 78010 <__sglue>
   151dc:	fff00693          	addi	a3,zero,-1
   151e0:	00482783          	lw	a5,4(a6)
   151e4:	fff78793          	addi	a5,a5,-1
   151e8:	0807c063          	blt	a5,zero,15268 <__sfp+0xb0>
   151ec:	00882403          	lw	s0,8(a6)
   151f0:	00c0006f          	jal	zero,151fc <__sfp+0x44>
   151f4:	06840413          	addi	s0,s0,104
   151f8:	06d78863          	beq	a5,a3,15268 <__sfp+0xb0>
   151fc:	00c41703          	lh	a4,12(s0)
   15200:	fff78793          	addi	a5,a5,-1
   15204:	fe0718e3          	bne	a4,zero,151f4 <__sfp+0x3c>
   15208:	ffff07b7          	lui	a5,0xffff0
   1520c:	00178793          	addi	a5,a5,1 # ffff0001 <__BSS_END__+0xffedf141>
   15210:	00f42623          	sw	a5,12(s0)
   15214:	06042223          	sw	zero,100(s0)
   15218:	00042023          	sw	zero,0(s0)
   1521c:	00042423          	sw	zero,8(s0)
   15220:	00042223          	sw	zero,4(s0)
   15224:	00042823          	sw	zero,16(s0)
   15228:	00042a23          	sw	zero,20(s0)
   1522c:	00042c23          	sw	zero,24(s0)
   15230:	00800613          	addi	a2,zero,8
   15234:	00000593          	addi	a1,zero,0
   15238:	05c40513          	addi	a0,s0,92
   1523c:	6b0000ef          	jal	ra,158ec <memset>
   15240:	02042823          	sw	zero,48(s0)
   15244:	02042a23          	sw	zero,52(s0)
   15248:	04042223          	sw	zero,68(s0)
   1524c:	04042423          	sw	zero,72(s0)
   15250:	01c12083          	lw	ra,28(sp)
   15254:	00040513          	addi	a0,s0,0
   15258:	01812403          	lw	s0,24(sp)
   1525c:	01412483          	lw	s1,20(sp)
   15260:	02010113          	addi	sp,sp,32
   15264:	00008067          	jalr	zero,0(ra)
   15268:	00082403          	lw	s0,0(a6)
   1526c:	00040663          	beq	s0,zero,15278 <__sfp+0xc0>
   15270:	00040813          	addi	a6,s0,0
   15274:	f6dff06f          	jal	zero,151e0 <__sfp+0x28>
   15278:	1ac00593          	addi	a1,zero,428
   1527c:	00048513          	addi	a0,s1,0
   15280:	01012623          	sw	a6,12(sp)
   15284:	4a1000ef          	jal	ra,15f24 <_malloc_r>
   15288:	00c12803          	lw	a6,12(sp)
   1528c:	00050413          	addi	s0,a0,0
   15290:	04050263          	beq	a0,zero,152d4 <__sfp+0x11c>
   15294:	00400793          	addi	a5,zero,4
   15298:	00f52223          	sw	a5,4(a0)
   1529c:	00c50513          	addi	a0,a0,12
   152a0:	00042023          	sw	zero,0(s0)
   152a4:	00a42423          	sw	a0,8(s0)
   152a8:	1a000613          	addi	a2,zero,416
   152ac:	00000593          	addi	a1,zero,0
   152b0:	01012623          	sw	a6,12(sp)
   152b4:	638000ef          	jal	ra,158ec <memset>
   152b8:	00c12803          	lw	a6,12(sp)
   152bc:	fff00693          	addi	a3,zero,-1
   152c0:	00882023          	sw	s0,0(a6)
   152c4:	00040813          	addi	a6,s0,0
   152c8:	f19ff06f          	jal	zero,151e0 <__sfp+0x28>
   152cc:	d81ff0ef          	jal	ra,1504c <global_stdio_init.part.0>
   152d0:	f05ff06f          	jal	zero,151d4 <__sfp+0x1c>
   152d4:	00082023          	sw	zero,0(a6)
   152d8:	00c00793          	addi	a5,zero,12
   152dc:	00f4a023          	sw	a5,0(s1)
   152e0:	f71ff06f          	jal	zero,15250 <__sfp+0x98>

000152e4 <__sinit>:
   152e4:	03452783          	lw	a5,52(a0)
   152e8:	00078463          	beq	a5,zero,152f0 <__sinit+0xc>
   152ec:	00008067          	jalr	zero,0(ra)
   152f0:	000157b7          	lui	a5,0x15
   152f4:	8881a703          	lw	a4,-1912(gp) # 78740 <__stdio_exit_handler>
   152f8:	fd478793          	addi	a5,a5,-44 # 14fd4 <cleanup_stdio>
   152fc:	02f52a23          	sw	a5,52(a0)
   15300:	fe0716e3          	bne	a4,zero,152ec <__sinit+0x8>
   15304:	d49ff06f          	jal	zero,1504c <global_stdio_init.part.0>

00015308 <__sfp_lock_acquire>:
   15308:	00008067          	jalr	zero,0(ra)

0001530c <__sfp_lock_release>:
   1530c:	00008067          	jalr	zero,0(ra)

00015310 <__fp_lock_all>:
   15310:	00078637          	lui	a2,0x78
   15314:	000155b7          	lui	a1,0x15
   15318:	01060613          	addi	a2,a2,16 # 78010 <__sglue>
   1531c:	fb058593          	addi	a1,a1,-80 # 14fb0 <__fp_lock>
   15320:	00000513          	addi	a0,zero,0
   15324:	01c0006f          	jal	zero,15340 <_fwalk_sglue>

00015328 <__fp_unlock_all>:
   15328:	00078637          	lui	a2,0x78
   1532c:	000155b7          	lui	a1,0x15
   15330:	01060613          	addi	a2,a2,16 # 78010 <__sglue>
   15334:	04458593          	addi	a1,a1,68 # 15044 <__fp_unlock>
   15338:	00000513          	addi	a0,zero,0
   1533c:	0040006f          	jal	zero,15340 <_fwalk_sglue>

00015340 <_fwalk_sglue>:
   15340:	fd010113          	addi	sp,sp,-48
   15344:	03212023          	sw	s2,32(sp)
   15348:	01312e23          	sw	s3,28(sp)
   1534c:	01412c23          	sw	s4,24(sp)
   15350:	01512a23          	sw	s5,20(sp)
   15354:	01612823          	sw	s6,16(sp)
   15358:	01712623          	sw	s7,12(sp)
   1535c:	02112623          	sw	ra,44(sp)
   15360:	02812423          	sw	s0,40(sp)
   15364:	02912223          	sw	s1,36(sp)
   15368:	00060a93          	addi	s5,a2,0
   1536c:	00050b13          	addi	s6,a0,0
   15370:	00058b93          	addi	s7,a1,0
   15374:	00000a13          	addi	s4,zero,0
   15378:	00100993          	addi	s3,zero,1
   1537c:	fff00913          	addi	s2,zero,-1
   15380:	004aa483          	lw	s1,4(s5)
   15384:	fff48493          	addi	s1,s1,-1
   15388:	0204ca63          	blt	s1,zero,153bc <_fwalk_sglue+0x7c>
   1538c:	008aa403          	lw	s0,8(s5)
   15390:	00c45783          	lhu	a5,12(s0)
   15394:	00f9fe63          	bgeu	s3,a5,153b0 <_fwalk_sglue+0x70>
   15398:	00e41783          	lh	a5,14(s0)
   1539c:	00040593          	addi	a1,s0,0
   153a0:	000b0513          	addi	a0,s6,0
   153a4:	01278663          	beq	a5,s2,153b0 <_fwalk_sglue+0x70>
   153a8:	000b80e7          	jalr	ra,0(s7)
   153ac:	00aa6a33          	or	s4,s4,a0
   153b0:	fff48493          	addi	s1,s1,-1
   153b4:	06840413          	addi	s0,s0,104
   153b8:	fd249ce3          	bne	s1,s2,15390 <_fwalk_sglue+0x50>
   153bc:	000aaa83          	lw	s5,0(s5)
   153c0:	fc0a90e3          	bne	s5,zero,15380 <_fwalk_sglue+0x40>
   153c4:	02c12083          	lw	ra,44(sp)
   153c8:	02812403          	lw	s0,40(sp)
   153cc:	02412483          	lw	s1,36(sp)
   153d0:	02012903          	lw	s2,32(sp)
   153d4:	01c12983          	lw	s3,28(sp)
   153d8:	01412a83          	lw	s5,20(sp)
   153dc:	01012b03          	lw	s6,16(sp)
   153e0:	00c12b83          	lw	s7,12(sp)
   153e4:	000a0513          	addi	a0,s4,0
   153e8:	01812a03          	lw	s4,24(sp)
   153ec:	03010113          	addi	sp,sp,48
   153f0:	00008067          	jalr	zero,0(ra)

000153f4 <_printf_r>:
   153f4:	fc010113          	addi	sp,sp,-64
   153f8:	00058e13          	addi	t3,a1,0
   153fc:	00852583          	lw	a1,8(a0)
   15400:	02810313          	addi	t1,sp,40
   15404:	02c12423          	sw	a2,40(sp)
   15408:	02d12623          	sw	a3,44(sp)
   1540c:	000e0613          	addi	a2,t3,0
   15410:	00030693          	addi	a3,t1,0
   15414:	00112e23          	sw	ra,28(sp)
   15418:	02e12823          	sw	a4,48(sp)
   1541c:	02f12a23          	sw	a5,52(sp)
   15420:	03012c23          	sw	a6,56(sp)
   15424:	03112e23          	sw	a7,60(sp)
   15428:	00612623          	sw	t1,12(sp)
   1542c:	380010ef          	jal	ra,167ac <_vfprintf_r>
   15430:	01c12083          	lw	ra,28(sp)
   15434:	04010113          	addi	sp,sp,64
   15438:	00008067          	jalr	zero,0(ra)

0001543c <printf>:
   1543c:	8701a303          	lw	t1,-1936(gp) # 78728 <_impure_ptr>
   15440:	fc010113          	addi	sp,sp,-64
   15444:	02c12423          	sw	a2,40(sp)
   15448:	02d12623          	sw	a3,44(sp)
   1544c:	02b12223          	sw	a1,36(sp)
   15450:	02e12823          	sw	a4,48(sp)
   15454:	02f12a23          	sw	a5,52(sp)
   15458:	03012c23          	sw	a6,56(sp)
   1545c:	03112e23          	sw	a7,60(sp)
   15460:	00832583          	lw	a1,8(t1)
   15464:	02410693          	addi	a3,sp,36
   15468:	00050613          	addi	a2,a0,0
   1546c:	00030513          	addi	a0,t1,0
   15470:	00112e23          	sw	ra,28(sp)
   15474:	00d12623          	sw	a3,12(sp)
   15478:	334010ef          	jal	ra,167ac <_vfprintf_r>
   1547c:	01c12083          	lw	ra,28(sp)
   15480:	04010113          	addi	sp,sp,64
   15484:	00008067          	jalr	zero,0(ra)

00015488 <__sread>:
   15488:	ff010113          	addi	sp,sp,-16
   1548c:	00812423          	sw	s0,8(sp)
   15490:	00058413          	addi	s0,a1,0
   15494:	00e59583          	lh	a1,14(a1)
   15498:	00112623          	sw	ra,12(sp)
   1549c:	2ec000ef          	jal	ra,15788 <_read_r>
   154a0:	02054063          	blt	a0,zero,154c0 <__sread+0x38>
   154a4:	05042783          	lw	a5,80(s0)
   154a8:	00c12083          	lw	ra,12(sp)
   154ac:	00a787b3          	add	a5,a5,a0
   154b0:	04f42823          	sw	a5,80(s0)
   154b4:	00812403          	lw	s0,8(sp)
   154b8:	01010113          	addi	sp,sp,16
   154bc:	00008067          	jalr	zero,0(ra)
   154c0:	00c45783          	lhu	a5,12(s0)
   154c4:	fffff737          	lui	a4,0xfffff
   154c8:	fff70713          	addi	a4,a4,-1 # ffffefff <__BSS_END__+0xffeee13f>
   154cc:	00e7f7b3          	and	a5,a5,a4
   154d0:	00c12083          	lw	ra,12(sp)
   154d4:	00f41623          	sh	a5,12(s0)
   154d8:	00812403          	lw	s0,8(sp)
   154dc:	01010113          	addi	sp,sp,16
   154e0:	00008067          	jalr	zero,0(ra)

000154e4 <__seofread>:
   154e4:	00000513          	addi	a0,zero,0
   154e8:	00008067          	jalr	zero,0(ra)

000154ec <__swrite>:
   154ec:	00c59783          	lh	a5,12(a1)
   154f0:	fe010113          	addi	sp,sp,-32
   154f4:	00068313          	addi	t1,a3,0
   154f8:	00112e23          	sw	ra,28(sp)
   154fc:	1007f693          	andi	a3,a5,256
   15500:	00058713          	addi	a4,a1,0
   15504:	00060893          	addi	a7,a2,0
   15508:	00050813          	addi	a6,a0,0
   1550c:	02069863          	bne	a3,zero,1553c <__swrite+0x50>
   15510:	fffff6b7          	lui	a3,0xfffff
   15514:	fff68693          	addi	a3,a3,-1 # ffffefff <__BSS_END__+0xffeee13f>
   15518:	01c12083          	lw	ra,28(sp)
   1551c:	00d7f7b3          	and	a5,a5,a3
   15520:	00e71583          	lh	a1,14(a4)
   15524:	00f71623          	sh	a5,12(a4)
   15528:	00030693          	addi	a3,t1,0
   1552c:	00088613          	addi	a2,a7,0
   15530:	00080513          	addi	a0,a6,0
   15534:	02010113          	addi	sp,sp,32
   15538:	2b80006f          	jal	zero,157f0 <_write_r>
   1553c:	00e59583          	lh	a1,14(a1)
   15540:	00c12423          	sw	a2,8(sp)
   15544:	00200693          	addi	a3,zero,2
   15548:	00000613          	addi	a2,zero,0
   1554c:	00612623          	sw	t1,12(sp)
   15550:	00e12023          	sw	a4,0(sp)
   15554:	00a12223          	sw	a0,4(sp)
   15558:	1c8000ef          	jal	ra,15720 <_lseek_r>
   1555c:	00012703          	lw	a4,0(sp)
   15560:	00c12303          	lw	t1,12(sp)
   15564:	00812883          	lw	a7,8(sp)
   15568:	00c71783          	lh	a5,12(a4)
   1556c:	00412803          	lw	a6,4(sp)
   15570:	fa1ff06f          	jal	zero,15510 <__swrite+0x24>

00015574 <__sseek>:
   15574:	ff010113          	addi	sp,sp,-16
   15578:	00812423          	sw	s0,8(sp)
   1557c:	00058413          	addi	s0,a1,0
   15580:	00e59583          	lh	a1,14(a1)
   15584:	00112623          	sw	ra,12(sp)
   15588:	198000ef          	jal	ra,15720 <_lseek_r>
   1558c:	fff00713          	addi	a4,zero,-1
   15590:	00c41783          	lh	a5,12(s0)
   15594:	02e50263          	beq	a0,a4,155b8 <__sseek+0x44>
   15598:	00001737          	lui	a4,0x1
   1559c:	00e7e7b3          	or	a5,a5,a4
   155a0:	00c12083          	lw	ra,12(sp)
   155a4:	04a42823          	sw	a0,80(s0)
   155a8:	00f41623          	sh	a5,12(s0)
   155ac:	00812403          	lw	s0,8(sp)
   155b0:	01010113          	addi	sp,sp,16
   155b4:	00008067          	jalr	zero,0(ra)
   155b8:	80050713          	addi	a4,a0,-2048
   155bc:	80070713          	addi	a4,a4,-2048 # 800 <exit-0xf8b4>
   155c0:	00e7f7b3          	and	a5,a5,a4
   155c4:	00c12083          	lw	ra,12(sp)
   155c8:	00f41623          	sh	a5,12(s0)
   155cc:	00812403          	lw	s0,8(sp)
   155d0:	01010113          	addi	sp,sp,16
   155d4:	00008067          	jalr	zero,0(ra)

000155d8 <__sclose>:
   155d8:	00e59583          	lh	a1,14(a1)
   155dc:	0040006f          	jal	zero,155e0 <_close_r>

000155e0 <_close_r>:
   155e0:	ff010113          	addi	sp,sp,-16
   155e4:	00812423          	sw	s0,8(sp)
   155e8:	00912223          	sw	s1,4(sp)
   155ec:	00050493          	addi	s1,a0,0
   155f0:	00058513          	addi	a0,a1,0
   155f4:	00112623          	sw	ra,12(sp)
   155f8:	8801a623          	sw	zero,-1908(gp) # 78744 <errno>
   155fc:	4340b0ef          	jal	ra,20a30 <_close>
   15600:	fff00793          	addi	a5,zero,-1
   15604:	00f50c63          	beq	a0,a5,1561c <_close_r+0x3c>
   15608:	00c12083          	lw	ra,12(sp)
   1560c:	00812403          	lw	s0,8(sp)
   15610:	00412483          	lw	s1,4(sp)
   15614:	01010113          	addi	sp,sp,16
   15618:	00008067          	jalr	zero,0(ra)
   1561c:	88c1a783          	lw	a5,-1908(gp) # 78744 <errno>
   15620:	fe0784e3          	beq	a5,zero,15608 <_close_r+0x28>
   15624:	00c12083          	lw	ra,12(sp)
   15628:	00812403          	lw	s0,8(sp)
   1562c:	00f4a023          	sw	a5,0(s1)
   15630:	00412483          	lw	s1,4(sp)
   15634:	01010113          	addi	sp,sp,16
   15638:	00008067          	jalr	zero,0(ra)

0001563c <_reclaim_reent>:
   1563c:	8701a783          	lw	a5,-1936(gp) # 78728 <_impure_ptr>
   15640:	0ca78e63          	beq	a5,a0,1571c <_reclaim_reent+0xe0>
   15644:	04452583          	lw	a1,68(a0)
   15648:	fe010113          	addi	sp,sp,-32
   1564c:	00912a23          	sw	s1,20(sp)
   15650:	00112e23          	sw	ra,28(sp)
   15654:	00812c23          	sw	s0,24(sp)
   15658:	00050493          	addi	s1,a0,0
   1565c:	04058863          	beq	a1,zero,156ac <_reclaim_reent+0x70>
   15660:	01212823          	sw	s2,16(sp)
   15664:	01312623          	sw	s3,12(sp)
   15668:	00000913          	addi	s2,zero,0
   1566c:	08000993          	addi	s3,zero,128
   15670:	012587b3          	add	a5,a1,s2
   15674:	0007a403          	lw	s0,0(a5)
   15678:	00040e63          	beq	s0,zero,15694 <_reclaim_reent+0x58>
   1567c:	00040593          	addi	a1,s0,0
   15680:	00042403          	lw	s0,0(s0)
   15684:	00048513          	addi	a0,s1,0
   15688:	5b4000ef          	jal	ra,15c3c <_free_r>
   1568c:	fe0418e3          	bne	s0,zero,1567c <_reclaim_reent+0x40>
   15690:	0444a583          	lw	a1,68(s1)
   15694:	00490913          	addi	s2,s2,4
   15698:	fd391ce3          	bne	s2,s3,15670 <_reclaim_reent+0x34>
   1569c:	00048513          	addi	a0,s1,0
   156a0:	59c000ef          	jal	ra,15c3c <_free_r>
   156a4:	01012903          	lw	s2,16(sp)
   156a8:	00c12983          	lw	s3,12(sp)
   156ac:	0384a583          	lw	a1,56(s1)
   156b0:	00058663          	beq	a1,zero,156bc <_reclaim_reent+0x80>
   156b4:	00048513          	addi	a0,s1,0
   156b8:	584000ef          	jal	ra,15c3c <_free_r>
   156bc:	0404a403          	lw	s0,64(s1)
   156c0:	00040c63          	beq	s0,zero,156d8 <_reclaim_reent+0x9c>
   156c4:	00040593          	addi	a1,s0,0
   156c8:	00042403          	lw	s0,0(s0)
   156cc:	00048513          	addi	a0,s1,0
   156d0:	56c000ef          	jal	ra,15c3c <_free_r>
   156d4:	fe0418e3          	bne	s0,zero,156c4 <_reclaim_reent+0x88>
   156d8:	04c4a583          	lw	a1,76(s1)
   156dc:	00058663          	beq	a1,zero,156e8 <_reclaim_reent+0xac>
   156e0:	00048513          	addi	a0,s1,0
   156e4:	558000ef          	jal	ra,15c3c <_free_r>
   156e8:	0344a783          	lw	a5,52(s1)
   156ec:	00078e63          	beq	a5,zero,15708 <_reclaim_reent+0xcc>
   156f0:	01812403          	lw	s0,24(sp)
   156f4:	01c12083          	lw	ra,28(sp)
   156f8:	00048513          	addi	a0,s1,0
   156fc:	01412483          	lw	s1,20(sp)
   15700:	02010113          	addi	sp,sp,32
   15704:	00078067          	jalr	zero,0(a5)
   15708:	01c12083          	lw	ra,28(sp)
   1570c:	01812403          	lw	s0,24(sp)
   15710:	01412483          	lw	s1,20(sp)
   15714:	02010113          	addi	sp,sp,32
   15718:	00008067          	jalr	zero,0(ra)
   1571c:	00008067          	jalr	zero,0(ra)

00015720 <_lseek_r>:
   15720:	ff010113          	addi	sp,sp,-16
   15724:	00058793          	addi	a5,a1,0
   15728:	00812423          	sw	s0,8(sp)
   1572c:	00912223          	sw	s1,4(sp)
   15730:	00060593          	addi	a1,a2,0
   15734:	00050493          	addi	s1,a0,0
   15738:	00068613          	addi	a2,a3,0
   1573c:	00078513          	addi	a0,a5,0
   15740:	00112623          	sw	ra,12(sp)
   15744:	8801a623          	sw	zero,-1908(gp) # 78744 <errno>
   15748:	4240b0ef          	jal	ra,20b6c <_lseek>
   1574c:	fff00793          	addi	a5,zero,-1
   15750:	00f50c63          	beq	a0,a5,15768 <_lseek_r+0x48>
   15754:	00c12083          	lw	ra,12(sp)
   15758:	00812403          	lw	s0,8(sp)
   1575c:	00412483          	lw	s1,4(sp)
   15760:	01010113          	addi	sp,sp,16
   15764:	00008067          	jalr	zero,0(ra)
   15768:	88c1a783          	lw	a5,-1908(gp) # 78744 <errno>
   1576c:	fe0784e3          	beq	a5,zero,15754 <_lseek_r+0x34>
   15770:	00c12083          	lw	ra,12(sp)
   15774:	00812403          	lw	s0,8(sp)
   15778:	00f4a023          	sw	a5,0(s1)
   1577c:	00412483          	lw	s1,4(sp)
   15780:	01010113          	addi	sp,sp,16
   15784:	00008067          	jalr	zero,0(ra)

00015788 <_read_r>:
   15788:	ff010113          	addi	sp,sp,-16
   1578c:	00058793          	addi	a5,a1,0
   15790:	00812423          	sw	s0,8(sp)
   15794:	00912223          	sw	s1,4(sp)
   15798:	00060593          	addi	a1,a2,0
   1579c:	00050493          	addi	s1,a0,0
   157a0:	00068613          	addi	a2,a3,0
   157a4:	00078513          	addi	a0,a5,0
   157a8:	00112623          	sw	ra,12(sp)
   157ac:	8801a623          	sw	zero,-1908(gp) # 78744 <errno>
   157b0:	3fc0b0ef          	jal	ra,20bac <_read>
   157b4:	fff00793          	addi	a5,zero,-1
   157b8:	00f50c63          	beq	a0,a5,157d0 <_read_r+0x48>
   157bc:	00c12083          	lw	ra,12(sp)
   157c0:	00812403          	lw	s0,8(sp)
   157c4:	00412483          	lw	s1,4(sp)
   157c8:	01010113          	addi	sp,sp,16
   157cc:	00008067          	jalr	zero,0(ra)
   157d0:	88c1a783          	lw	a5,-1908(gp) # 78744 <errno>
   157d4:	fe0784e3          	beq	a5,zero,157bc <_read_r+0x34>
   157d8:	00c12083          	lw	ra,12(sp)
   157dc:	00812403          	lw	s0,8(sp)
   157e0:	00f4a023          	sw	a5,0(s1)
   157e4:	00412483          	lw	s1,4(sp)
   157e8:	01010113          	addi	sp,sp,16
   157ec:	00008067          	jalr	zero,0(ra)

000157f0 <_write_r>:
   157f0:	ff010113          	addi	sp,sp,-16
   157f4:	00058793          	addi	a5,a1,0
   157f8:	00812423          	sw	s0,8(sp)
   157fc:	00912223          	sw	s1,4(sp)
   15800:	00060593          	addi	a1,a2,0
   15804:	00050493          	addi	s1,a0,0
   15808:	00068613          	addi	a2,a3,0
   1580c:	00078513          	addi	a0,a5,0
   15810:	00112623          	sw	ra,12(sp)
   15814:	8801a623          	sw	zero,-1908(gp) # 78744 <errno>
   15818:	44c0b0ef          	jal	ra,20c64 <_write>
   1581c:	fff00793          	addi	a5,zero,-1
   15820:	00f50c63          	beq	a0,a5,15838 <_write_r+0x48>
   15824:	00c12083          	lw	ra,12(sp)
   15828:	00812403          	lw	s0,8(sp)
