
./qsort_large_O3:     file format elf32-littleriscv


Disassembly of section .text:

000100b4 <exit>:
   100b4:	ff010113          	addi	sp,sp,-16
   100b8:	00000593          	addi	a1,zero,0
   100bc:	00812423          	sw	s0,8(sp)
   100c0:	00112623          	sw	ra,12(sp)
   100c4:	00050413          	addi	s0,a0,0
   100c8:	631000ef          	jal	ra,10ef8 <__call_exitprocs>
   100cc:	f181a783          	lw	a5,-232(gp) # b4728 <__stdio_exit_handler>
   100d0:	00078463          	beq	a5,zero,100d8 <exit+0x24>
   100d4:	000780e7          	jalr	ra,0(a5)
   100d8:	00040513          	addi	a0,s0,0
   100dc:	6990b0ef          	jal	ra,1bf74 <_exit>

000100e0 <main>:
   100e0:	ffedc2b7          	lui	t0,0xffedc
   100e4:	81010113          	addi	sp,sp,-2032
   100e8:	85028293          	addi	t0,t0,-1968 # ffedb850 <__BSS_END__+0xffe26dfc>
   100ec:	7e912223          	sw	s1,2020(sp)
   100f0:	7e112623          	sw	ra,2028(sp)
   100f4:	7e812423          	sw	s0,2024(sp)
   100f8:	7f212023          	sw	s2,2016(sp)
   100fc:	7d312e23          	sw	s3,2012(sp)
   10100:	00021837          	lui	a6,0x21
   10104:	00510133          	add	sp,sp,t0
   10108:	00010493          	addi	s1,sp,0
   1010c:	00010613          	addi	a2,sp,0
   10110:	d1480813          	addi	a6,a6,-748 # 20d14 <input_data>
   10114:	00082703          	lw	a4,0(a6)
   10118:	00482503          	lw	a0,4(a6)
   1011c:	00882583          	lw	a1,8(a6)
   10120:	02e706b3          	mul	a3,a4,a4
   10124:	00e62023          	sw	a4,0(a2)
   10128:	00a62223          	sw	a0,4(a2)
   1012c:	00b62423          	sw	a1,8(a2)
   10130:	01860613          	addi	a2,a2,24
   10134:	00c80813          	addi	a6,a6,12
   10138:	02a507b3          	mul	a5,a0,a0
   1013c:	02e71733          	mulh	a4,a4,a4
   10140:	00f687b3          	add	a5,a3,a5
   10144:	00d7b6b3          	sltu	a3,a5,a3
   10148:	02a51533          	mulh	a0,a0,a0
   1014c:	02b588b3          	mul	a7,a1,a1
   10150:	00a70733          	add	a4,a4,a0
   10154:	00e686b3          	add	a3,a3,a4
   10158:	02b595b3          	mulh	a1,a1,a1
   1015c:	01178733          	add	a4,a5,a7
   10160:	00f737b3          	sltu	a5,a4,a5
   10164:	fee62c23          	sw	a4,-8(a2)
   10168:	00b686b3          	add	a3,a3,a1
   1016c:	00d787b3          	add	a5,a5,a3
   10170:	fef62e23          	sw	a5,-4(a2)
   10174:	001257b7          	lui	a5,0x125
   10178:	f8078793          	addi	a5,a5,-128 # 124f80 <__BSS_END__+0x7052c>
   1017c:	002787b3          	add	a5,a5,sp
   10180:	f8c79ae3          	bne	a5,a2,10114 <main+0x34>
   10184:	0000c637          	lui	a2,0xc
   10188:	00010513          	addi	a0,sp,0
   1018c:	34f60613          	addi	a2,a2,847 # c34f <exit-0x3d65>
   10190:	00000593          	addi	a1,zero,0
   10194:	198000ef          	jal	ra,1032c <quicksort_range>
   10198:	00048793          	addi	a5,s1,0
   1019c:	00000713          	addi	a4,zero,0
   101a0:	00000693          	addi	a3,zero,0
   101a4:	0007a403          	lw	s0,0(a5)
   101a8:	0047a583          	lw	a1,4(a5)
   101ac:	0087a603          	lw	a2,8(a5)
   101b0:	01878793          	addi	a5,a5,24
   101b4:	00b40433          	add	s0,s0,a1
   101b8:	00c40433          	add	s0,s0,a2
   101bc:	41f45613          	srai	a2,s0,0x1f
   101c0:	00c686b3          	add	a3,a3,a2
   101c4:	00870433          	add	s0,a4,s0
   101c8:	00125637          	lui	a2,0x125
   101cc:	00e43733          	sltu	a4,s0,a4
   101d0:	f8060613          	addi	a2,a2,-128 # 124f80 <__BSS_END__+0x7052c>
   101d4:	00d70933          	add	s2,a4,a3
   101d8:	00260633          	add	a2,a2,sp
   101dc:	00090693          	addi	a3,s2,0
   101e0:	00040713          	addi	a4,s0,0
   101e4:	fcf610e3          	bne	a2,a5,101a4 <main+0xc4>
   101e8:	00021537          	lui	a0,0x21
   101ec:	0000c5b7          	lui	a1,0xc
   101f0:	35058593          	addi	a1,a1,848 # c350 <exit-0x3d64>
   101f4:	b8850513          	addi	a0,a0,-1144 # 20b88 <__clzsi2+0x4c>
   101f8:	000219b7          	lui	s3,0x21
   101fc:	770000ef          	jal	ra,1096c <printf>
   10200:	bc498993          	addi	s3,s3,-1084 # 20bc4 <__clzsi2+0x88>
   10204:	0084a683          	lw	a3,8(s1)
   10208:	0044a603          	lw	a2,4(s1)
   1020c:	0004a583          	lw	a1,0(s1)
   10210:	00098513          	addi	a0,s3,0
   10214:	01848493          	addi	s1,s1,24
   10218:	754000ef          	jal	ra,1096c <printf>
   1021c:	001257b7          	lui	a5,0x125
   10220:	f8078793          	addi	a5,a5,-128 # 124f80 <__BSS_END__+0x7052c>
   10224:	002787b3          	add	a5,a5,sp
   10228:	fc979ee3          	bne	a5,s1,10204 <main+0x124>
   1022c:	001242b7          	lui	t0,0x124
   10230:	7b028293          	addi	t0,t0,1968 # 1247b0 <__BSS_END__+0x6fd5c>
   10234:	00510133          	add	sp,sp,t0
   10238:	7ec12083          	lw	ra,2028(sp)
   1023c:	01246533          	or	a0,s0,s2
   10240:	7e412483          	lw	s1,2020(sp)
   10244:	7e812403          	lw	s0,2024(sp)
   10248:	7e012903          	lw	s2,2016(sp)
   1024c:	7dc12983          	lw	s3,2012(sp)
   10250:	00153513          	sltiu	a0,a0,1
   10254:	7f010113          	addi	sp,sp,2032
   10258:	00008067          	jalr	zero,0(ra)

0001025c <register_fini>:
   1025c:	00000793          	addi	a5,zero,0
   10260:	00078863          	beq	a5,zero,10270 <register_fini+0x14>
   10264:	00016537          	lui	a0,0x16
   10268:	aac50513          	addi	a0,a0,-1364 # 15aac <__libc_fini_array>
   1026c:	5c10006f          	jal	zero,1102c <atexit>
   10270:	00008067          	jalr	zero,0(ra)

00010274 <_start>:
   10274:	000a4197          	auipc	gp,0xa4
   10278:	59c18193          	addi	gp,gp,1436 # b4810 <__global_pointer$>
   1027c:	000a4517          	auipc	a0,0xa4
   10280:	4ac50513          	addi	a0,a0,1196 # b4728 <__stdio_exit_handler>
   10284:	000a4617          	auipc	a2,0xa4
   10288:	7d060613          	addi	a2,a2,2000 # b4a54 <__BSS_END__>
   1028c:	40a60633          	sub	a2,a2,a0
   10290:	00000593          	addi	a1,zero,0
   10294:	389000ef          	jal	ra,10e1c <memset>
   10298:	00001517          	auipc	a0,0x1
   1029c:	d9450513          	addi	a0,a0,-620 # 1102c <atexit>
   102a0:	00050863          	beq	a0,zero,102b0 <_start+0x3c>
   102a4:	00006517          	auipc	a0,0x6
   102a8:	80850513          	addi	a0,a0,-2040 # 15aac <__libc_fini_array>
   102ac:	581000ef          	jal	ra,1102c <atexit>
   102b0:	2d9000ef          	jal	ra,10d88 <__libc_init_array>
   102b4:	00012503          	lw	a0,0(sp)
   102b8:	00410593          	addi	a1,sp,4
   102bc:	00000613          	addi	a2,zero,0
   102c0:	e21ff0ef          	jal	ra,100e0 <main>
   102c4:	df1ff06f          	jal	zero,100b4 <exit>

000102c8 <__do_global_dtors_aux>:
   102c8:	ff010113          	addi	sp,sp,-16
   102cc:	00812423          	sw	s0,8(sp)
   102d0:	f381c783          	lbu	a5,-200(gp) # b4748 <completed.1>
   102d4:	00112623          	sw	ra,12(sp)
   102d8:	02079263          	bne	a5,zero,102fc <__do_global_dtors_aux+0x34>
   102dc:	00000793          	addi	a5,zero,0
   102e0:	00078a63          	beq	a5,zero,102f4 <__do_global_dtors_aux+0x2c>
   102e4:	000b4537          	lui	a0,0xb4
   102e8:	b6450513          	addi	a0,a0,-1180 # b3b64 <__EH_FRAME_BEGIN__>
   102ec:	00000097          	auipc	ra,0x0
   102f0:	000000e7          	jalr	ra,0(zero) # 0 <exit-0x100b4>
   102f4:	00100793          	addi	a5,zero,1
   102f8:	f2f18c23          	sb	a5,-200(gp) # b4748 <completed.1>
   102fc:	00c12083          	lw	ra,12(sp)
   10300:	00812403          	lw	s0,8(sp)
   10304:	01010113          	addi	sp,sp,16
   10308:	00008067          	jalr	zero,0(ra) # 102ec <__do_global_dtors_aux+0x24>

0001030c <frame_dummy>:
   1030c:	00000793          	addi	a5,zero,0
   10310:	00078c63          	beq	a5,zero,10328 <frame_dummy+0x1c>
   10314:	000b4537          	lui	a0,0xb4
   10318:	f3c18593          	addi	a1,gp,-196 # b474c <object.0>
   1031c:	b6450513          	addi	a0,a0,-1180 # b3b64 <__EH_FRAME_BEGIN__>
   10320:	00000317          	auipc	t1,0x0
   10324:	00000067          	jalr	zero,0(zero) # 0 <exit-0x100b4>
   10328:	00008067          	jalr	zero,0(ra)

0001032c <quicksort_range>:
   1032c:	1cc5da63          	bge	a1,a2,10500 <quicksort_range+0x1d4>
   10330:	fb010113          	addi	sp,sp,-80
   10334:	04912223          	sw	s1,68(sp)
   10338:	05212023          	sw	s2,64(sp)
   1033c:	03312e23          	sw	s3,60(sp)
   10340:	04112623          	sw	ra,76(sp)
   10344:	04812423          	sw	s0,72(sp)
   10348:	00060993          	addi	s3,a2,0
   1034c:	fe850913          	addi	s2,a0,-24
   10350:	01850493          	addi	s1,a0,24
   10354:	00b98733          	add	a4,s3,a1
   10358:	01f75793          	srli	a5,a4,0x1f
   1035c:	00e787b3          	add	a5,a5,a4
   10360:	4017d713          	srai	a4,a5,0x1
   10364:	ffe7f793          	andi	a5,a5,-2
   10368:	00e787b3          	add	a5,a5,a4
   1036c:	00379793          	slli	a5,a5,0x3
   10370:	00f507b3          	add	a5,a0,a5
   10374:	0107ae03          	lw	t3,16(a5)
   10378:	0147a683          	lw	a3,20(a5)
   1037c:	00098613          	addi	a2,s3,0
   10380:	00058413          	addi	s0,a1,0
   10384:	10864463          	blt	a2,s0,1048c <quicksort_range+0x160>
   10388:	00141713          	slli	a4,s0,0x1
   1038c:	00870733          	add	a4,a4,s0
   10390:	00371713          	slli	a4,a4,0x3
   10394:	00e50333          	add	t1,a0,a4
   10398:	00161793          	slli	a5,a2,0x1
   1039c:	01432803          	lw	a6,20(t1) # 10334 <quicksort_range+0x8>
   103a0:	00c787b3          	add	a5,a5,a2
   103a4:	00379793          	slli	a5,a5,0x3
   103a8:	00f508b3          	add	a7,a0,a5
   103ac:	0ed87863          	bgeu	a6,a3,1049c <quicksort_range+0x170>
   103b0:	00e48733          	add	a4,s1,a4
   103b4:	00070313          	addi	t1,a4,0
   103b8:	01472803          	lw	a6,20(a4)
   103bc:	01870713          	addi	a4,a4,24
   103c0:	00140413          	addi	s0,s0,1
   103c4:	fed868e3          	bltu	a6,a3,103b4 <quicksort_range+0x88>
   103c8:	00d81663          	bne	a6,a3,103d4 <quicksort_range+0xa8>
   103cc:	ff872803          	lw	a6,-8(a4)
   103d0:	ffc862e3          	bltu	a6,t3,103b4 <quicksort_range+0x88>
   103d4:	0148a703          	lw	a4,20(a7)
   103d8:	0ee6f463          	bgeu	a3,a4,104c0 <quicksort_range+0x194>
   103dc:	00f907b3          	add	a5,s2,a5
   103e0:	00078813          	addi	a6,a5,0
   103e4:	0147a703          	lw	a4,20(a5)
   103e8:	fe878793          	addi	a5,a5,-24
   103ec:	fff60613          	addi	a2,a2,-1
   103f0:	fee6e8e3          	bltu	a3,a4,103e0 <quicksort_range+0xb4>
   103f4:	00d71663          	bne	a4,a3,10400 <quicksort_range+0xd4>
   103f8:	0287a703          	lw	a4,40(a5)
   103fc:	feee62e3          	bltu	t3,a4,103e0 <quicksort_range+0xb4>
   10400:	00080893          	addi	a7,a6,0
   10404:	f88640e3          	blt	a2,s0,10384 <quicksort_range+0x58>
   10408:	0008af03          	lw	t5,0(a7)
   1040c:	0048ae83          	lw	t4,4(a7)
   10410:	0088a803          	lw	a6,8(a7)
   10414:	00c8a703          	lw	a4,12(a7)
   10418:	0108a783          	lw	a5,16(a7)
   1041c:	00032f83          	lw	t6,0(t1)
   10420:	01e32023          	sw	t5,0(t1)
   10424:	00432f03          	lw	t5,4(t1)
   10428:	01d32223          	sw	t4,4(t1)
   1042c:	00832e83          	lw	t4,8(t1)
   10430:	01032423          	sw	a6,8(t1)
   10434:	00c32803          	lw	a6,12(t1)
   10438:	00e32623          	sw	a4,12(t1)
   1043c:	01032703          	lw	a4,16(t1)
   10440:	00f32823          	sw	a5,16(t1)
   10444:	0148a283          	lw	t0,20(a7)
   10448:	01432783          	lw	a5,20(t1)
   1044c:	00140413          	addi	s0,s0,1
   10450:	00532a23          	sw	t0,20(t1)
   10454:	fff60613          	addi	a2,a2,-1
   10458:	01f12c23          	sw	t6,24(sp)
   1045c:	01e12e23          	sw	t5,28(sp)
   10460:	03d12023          	sw	t4,32(sp)
   10464:	03012223          	sw	a6,36(sp)
   10468:	02e12423          	sw	a4,40(sp)
   1046c:	01f8a023          	sw	t6,0(a7)
   10470:	02f12623          	sw	a5,44(sp)
   10474:	01e8a223          	sw	t5,4(a7)
   10478:	01d8a423          	sw	t4,8(a7)
   1047c:	0108a623          	sw	a6,12(a7)
   10480:	00e8a823          	sw	a4,16(a7)
   10484:	00f8aa23          	sw	a5,20(a7)
   10488:	f08650e3          	bge	a2,s0,10388 <quicksort_range+0x5c>
   1048c:	04c5c463          	blt	a1,a2,104d4 <quicksort_range+0x1a8>
   10490:	05345a63          	bge	s0,s3,104e4 <quicksort_range+0x1b8>
   10494:	00040593          	addi	a1,s0,0
   10498:	ebdff06f          	jal	zero,10354 <quicksort_range+0x28>
   1049c:	00d81663          	bne	a6,a3,104a8 <quicksort_range+0x17c>
   104a0:	01032803          	lw	a6,16(t1)
   104a4:	f1c866e3          	bltu	a6,t3,103b0 <quicksort_range+0x84>
   104a8:	0148a703          	lw	a4,20(a7)
   104ac:	f2e6e8e3          	bltu	a3,a4,103dc <quicksort_range+0xb0>
   104b0:	f4d71ce3          	bne	a4,a3,10408 <quicksort_range+0xdc>
   104b4:	0108a703          	lw	a4,16(a7)
   104b8:	f2ee62e3          	bltu	t3,a4,103dc <quicksort_range+0xb0>
   104bc:	f4dff06f          	jal	zero,10408 <quicksort_range+0xdc>
   104c0:	f4d712e3          	bne	a4,a3,10404 <quicksort_range+0xd8>
   104c4:	0108a703          	lw	a4,16(a7)
   104c8:	f0ee6ae3          	bltu	t3,a4,103dc <quicksort_range+0xb0>
   104cc:	ea864ce3          	blt	a2,s0,10384 <quicksort_range+0x58>
   104d0:	f39ff06f          	jal	zero,10408 <quicksort_range+0xdc>
   104d4:	00a12623          	sw	a0,12(sp)
   104d8:	e55ff0ef          	jal	ra,1032c <quicksort_range>
   104dc:	00c12503          	lw	a0,12(sp)
   104e0:	fb344ae3          	blt	s0,s3,10494 <quicksort_range+0x168>
   104e4:	04c12083          	lw	ra,76(sp)
   104e8:	04812403          	lw	s0,72(sp)
   104ec:	04412483          	lw	s1,68(sp)
   104f0:	04012903          	lw	s2,64(sp)
   104f4:	03c12983          	lw	s3,60(sp)
   104f8:	05010113          	addi	sp,sp,80
   104fc:	00008067          	jalr	zero,0(ra)
   10500:	00008067          	jalr	zero,0(ra)

00010504 <__fp_lock>:
   10504:	00000513          	addi	a0,zero,0
   10508:	00008067          	jalr	zero,0(ra)

0001050c <stdio_exit_handler>:
   1050c:	000b4637          	lui	a2,0xb4
   10510:	000155b7          	lui	a1,0x15
   10514:	000b4537          	lui	a0,0xb4
   10518:	01060613          	addi	a2,a2,16 # b4010 <__sglue>
   1051c:	e6458593          	addi	a1,a1,-412 # 14e64 <_fclose_r>
   10520:	02050513          	addi	a0,a0,32 # b4020 <_impure_data>
   10524:	34c0006f          	jal	zero,10870 <_fwalk_sglue>

00010528 <cleanup_stdio>:
   10528:	00452583          	lw	a1,4(a0)
   1052c:	ff010113          	addi	sp,sp,-16
   10530:	00812423          	sw	s0,8(sp)
   10534:	00112623          	sw	ra,12(sp)
   10538:	f5418793          	addi	a5,gp,-172 # b4764 <__sf>
   1053c:	00050413          	addi	s0,a0,0
   10540:	00f58463          	beq	a1,a5,10548 <cleanup_stdio+0x20>
   10544:	121040ef          	jal	ra,14e64 <_fclose_r>
   10548:	00842583          	lw	a1,8(s0)
   1054c:	fbc18793          	addi	a5,gp,-68 # b47cc <__sf+0x68>
   10550:	00f58663          	beq	a1,a5,1055c <cleanup_stdio+0x34>
   10554:	00040513          	addi	a0,s0,0
   10558:	10d040ef          	jal	ra,14e64 <_fclose_r>
   1055c:	00c42583          	lw	a1,12(s0)
   10560:	02418793          	addi	a5,gp,36 # b4834 <__global_pointer$+0x24>
   10564:	00f58c63          	beq	a1,a5,1057c <cleanup_stdio+0x54>
   10568:	00040513          	addi	a0,s0,0
   1056c:	00812403          	lw	s0,8(sp)
   10570:	00c12083          	lw	ra,12(sp)
   10574:	01010113          	addi	sp,sp,16
   10578:	0ed0406f          	jal	zero,14e64 <_fclose_r>
   1057c:	00c12083          	lw	ra,12(sp)
   10580:	00812403          	lw	s0,8(sp)
   10584:	01010113          	addi	sp,sp,16
   10588:	00008067          	jalr	zero,0(ra)

0001058c <__fp_unlock>:
   1058c:	00000513          	addi	a0,zero,0
   10590:	00008067          	jalr	zero,0(ra)

00010594 <global_stdio_init.part.0>:
   10594:	fe010113          	addi	sp,sp,-32
   10598:	000107b7          	lui	a5,0x10
   1059c:	00812c23          	sw	s0,24(sp)
   105a0:	50c78793          	addi	a5,a5,1292 # 1050c <stdio_exit_handler>
   105a4:	f5418413          	addi	s0,gp,-172 # b4764 <__sf>
   105a8:	00112e23          	sw	ra,28(sp)
   105ac:	00912a23          	sw	s1,20(sp)
   105b0:	01212823          	sw	s2,16(sp)
   105b4:	01312623          	sw	s3,12(sp)
   105b8:	01412423          	sw	s4,8(sp)
   105bc:	f0f1ac23          	sw	a5,-232(gp) # b4728 <__stdio_exit_handler>
   105c0:	00800613          	addi	a2,zero,8
   105c4:	00400793          	addi	a5,zero,4
   105c8:	00000593          	addi	a1,zero,0
   105cc:	fb018513          	addi	a0,gp,-80 # b47c0 <__sf+0x5c>
   105d0:	00f42623          	sw	a5,12(s0)
   105d4:	00042023          	sw	zero,0(s0)
   105d8:	00042223          	sw	zero,4(s0)
   105dc:	00042423          	sw	zero,8(s0)
   105e0:	06042223          	sw	zero,100(s0)
   105e4:	00042823          	sw	zero,16(s0)
   105e8:	00042a23          	sw	zero,20(s0)
   105ec:	00042c23          	sw	zero,24(s0)
   105f0:	02d000ef          	jal	ra,10e1c <memset>
   105f4:	00011a37          	lui	s4,0x11
   105f8:	000119b7          	lui	s3,0x11
   105fc:	00011937          	lui	s2,0x11
   10600:	000114b7          	lui	s1,0x11
   10604:	000107b7          	lui	a5,0x10
   10608:	9b8a0a13          	addi	s4,s4,-1608 # 109b8 <__sread>
   1060c:	a1c98993          	addi	s3,s3,-1508 # 10a1c <__swrite>
   10610:	aa490913          	addi	s2,s2,-1372 # 10aa4 <__sseek>
   10614:	b0848493          	addi	s1,s1,-1272 # 10b08 <__sclose>
   10618:	00978793          	addi	a5,a5,9 # 10009 <exit-0xab>
   1061c:	00800613          	addi	a2,zero,8
   10620:	00000593          	addi	a1,zero,0
   10624:	01818513          	addi	a0,gp,24 # b4828 <__global_pointer$+0x18>
   10628:	06f42a23          	sw	a5,116(s0)
   1062c:	03442023          	sw	s4,32(s0)
   10630:	03342223          	sw	s3,36(s0)
   10634:	03242423          	sw	s2,40(s0)
   10638:	02942623          	sw	s1,44(s0)
   1063c:	00842e23          	sw	s0,28(s0)
   10640:	06042423          	sw	zero,104(s0)
   10644:	06042623          	sw	zero,108(s0)
   10648:	06042823          	sw	zero,112(s0)
   1064c:	0c042623          	sw	zero,204(s0)
   10650:	06042c23          	sw	zero,120(s0)
   10654:	06042e23          	sw	zero,124(s0)
   10658:	08042023          	sw	zero,128(s0)
   1065c:	7c0000ef          	jal	ra,10e1c <memset>
   10660:	000207b7          	lui	a5,0x20
   10664:	01278793          	addi	a5,a5,18 # 20012 <__subtf3+0xcb2>
   10668:	fbc18713          	addi	a4,gp,-68 # b47cc <__sf+0x68>
   1066c:	08018513          	addi	a0,gp,128 # b4890 <__global_pointer$+0x80>
   10670:	00800613          	addi	a2,zero,8
   10674:	00000593          	addi	a1,zero,0
   10678:	09442423          	sw	s4,136(s0)
   1067c:	09342623          	sw	s3,140(s0)
   10680:	09242823          	sw	s2,144(s0)
   10684:	08942a23          	sw	s1,148(s0)
   10688:	0cf42e23          	sw	a5,220(s0)
   1068c:	0c042823          	sw	zero,208(s0)
   10690:	0c042a23          	sw	zero,212(s0)
   10694:	0c042c23          	sw	zero,216(s0)
   10698:	12042a23          	sw	zero,308(s0)
   1069c:	0e042023          	sw	zero,224(s0)
   106a0:	0e042223          	sw	zero,228(s0)
   106a4:	0e042423          	sw	zero,232(s0)
   106a8:	08e42223          	sw	a4,132(s0)
   106ac:	770000ef          	jal	ra,10e1c <memset>
   106b0:	02418793          	addi	a5,gp,36 # b4834 <__global_pointer$+0x24>
   106b4:	0f442823          	sw	s4,240(s0)
   106b8:	0f342a23          	sw	s3,244(s0)
   106bc:	0f242c23          	sw	s2,248(s0)
   106c0:	0e942e23          	sw	s1,252(s0)
   106c4:	01c12083          	lw	ra,28(sp)
   106c8:	0ef42623          	sw	a5,236(s0)
   106cc:	01812403          	lw	s0,24(sp)
   106d0:	01412483          	lw	s1,20(sp)
   106d4:	01012903          	lw	s2,16(sp)
   106d8:	00c12983          	lw	s3,12(sp)
   106dc:	00812a03          	lw	s4,8(sp)
   106e0:	02010113          	addi	sp,sp,32
   106e4:	00008067          	jalr	zero,0(ra)

000106e8 <__sfp>:
   106e8:	f181a783          	lw	a5,-232(gp) # b4728 <__stdio_exit_handler>
   106ec:	fe010113          	addi	sp,sp,-32
   106f0:	00912a23          	sw	s1,20(sp)
   106f4:	00112e23          	sw	ra,28(sp)
   106f8:	00812c23          	sw	s0,24(sp)
   106fc:	00050493          	addi	s1,a0,0
   10700:	0e078e63          	beq	a5,zero,107fc <__sfp+0x114>
   10704:	000b4837          	lui	a6,0xb4
   10708:	01080813          	addi	a6,a6,16 # b4010 <__sglue>
   1070c:	fff00693          	addi	a3,zero,-1
   10710:	00482783          	lw	a5,4(a6)
   10714:	fff78793          	addi	a5,a5,-1
   10718:	0807c063          	blt	a5,zero,10798 <__sfp+0xb0>
   1071c:	00882403          	lw	s0,8(a6)
   10720:	00c0006f          	jal	zero,1072c <__sfp+0x44>
   10724:	06840413          	addi	s0,s0,104
   10728:	06d78863          	beq	a5,a3,10798 <__sfp+0xb0>
   1072c:	00c41703          	lh	a4,12(s0)
   10730:	fff78793          	addi	a5,a5,-1
   10734:	fe0718e3          	bne	a4,zero,10724 <__sfp+0x3c>
   10738:	ffff07b7          	lui	a5,0xffff0
   1073c:	00178793          	addi	a5,a5,1 # ffff0001 <__BSS_END__+0xfff3b5ad>
   10740:	00f42623          	sw	a5,12(s0)
   10744:	06042223          	sw	zero,100(s0)
   10748:	00042023          	sw	zero,0(s0)
   1074c:	00042423          	sw	zero,8(s0)
   10750:	00042223          	sw	zero,4(s0)
   10754:	00042823          	sw	zero,16(s0)
   10758:	00042a23          	sw	zero,20(s0)
   1075c:	00042c23          	sw	zero,24(s0)
   10760:	00800613          	addi	a2,zero,8
   10764:	00000593          	addi	a1,zero,0
   10768:	05c40513          	addi	a0,s0,92
   1076c:	6b0000ef          	jal	ra,10e1c <memset>
   10770:	02042823          	sw	zero,48(s0)
   10774:	02042a23          	sw	zero,52(s0)
   10778:	04042223          	sw	zero,68(s0)
   1077c:	04042423          	sw	zero,72(s0)
   10780:	01c12083          	lw	ra,28(sp)
   10784:	00040513          	addi	a0,s0,0
   10788:	01812403          	lw	s0,24(sp)
   1078c:	01412483          	lw	s1,20(sp)
   10790:	02010113          	addi	sp,sp,32
   10794:	00008067          	jalr	zero,0(ra)
   10798:	00082403          	lw	s0,0(a6)
   1079c:	00040663          	beq	s0,zero,107a8 <__sfp+0xc0>
   107a0:	00040813          	addi	a6,s0,0
   107a4:	f6dff06f          	jal	zero,10710 <__sfp+0x28>
   107a8:	1ac00593          	addi	a1,zero,428
   107ac:	00048513          	addi	a0,s1,0
   107b0:	01012623          	sw	a6,12(sp)
   107b4:	499000ef          	jal	ra,1144c <_malloc_r>
   107b8:	00c12803          	lw	a6,12(sp)
   107bc:	00050413          	addi	s0,a0,0
   107c0:	04050263          	beq	a0,zero,10804 <__sfp+0x11c>
   107c4:	00400793          	addi	a5,zero,4
   107c8:	00f52223          	sw	a5,4(a0)
   107cc:	00c50513          	addi	a0,a0,12
   107d0:	00042023          	sw	zero,0(s0)
   107d4:	00a42423          	sw	a0,8(s0)
   107d8:	1a000613          	addi	a2,zero,416
   107dc:	00000593          	addi	a1,zero,0
   107e0:	01012623          	sw	a6,12(sp)
   107e4:	638000ef          	jal	ra,10e1c <memset>
   107e8:	00c12803          	lw	a6,12(sp)
   107ec:	fff00693          	addi	a3,zero,-1
   107f0:	00882023          	sw	s0,0(a6)
   107f4:	00040813          	addi	a6,s0,0
   107f8:	f19ff06f          	jal	zero,10710 <__sfp+0x28>
   107fc:	d99ff0ef          	jal	ra,10594 <global_stdio_init.part.0>
   10800:	f05ff06f          	jal	zero,10704 <__sfp+0x1c>
   10804:	00082023          	sw	zero,0(a6)
   10808:	00c00793          	addi	a5,zero,12
   1080c:	00f4a023          	sw	a5,0(s1)
   10810:	f71ff06f          	jal	zero,10780 <__sfp+0x98>

00010814 <__sinit>:
   10814:	03452783          	lw	a5,52(a0)
   10818:	00078463          	beq	a5,zero,10820 <__sinit+0xc>
   1081c:	00008067          	jalr	zero,0(ra)
   10820:	000107b7          	lui	a5,0x10
   10824:	f181a703          	lw	a4,-232(gp) # b4728 <__stdio_exit_handler>
   10828:	52878793          	addi	a5,a5,1320 # 10528 <cleanup_stdio>
   1082c:	02f52a23          	sw	a5,52(a0)
   10830:	fe0716e3          	bne	a4,zero,1081c <__sinit+0x8>
   10834:	d61ff06f          	jal	zero,10594 <global_stdio_init.part.0>

00010838 <__sfp_lock_acquire>:
   10838:	00008067          	jalr	zero,0(ra)

0001083c <__sfp_lock_release>:
   1083c:	00008067          	jalr	zero,0(ra)

00010840 <__fp_lock_all>:
   10840:	000b4637          	lui	a2,0xb4
   10844:	000105b7          	lui	a1,0x10
   10848:	01060613          	addi	a2,a2,16 # b4010 <__sglue>
   1084c:	50458593          	addi	a1,a1,1284 # 10504 <__fp_lock>
   10850:	00000513          	addi	a0,zero,0
   10854:	01c0006f          	jal	zero,10870 <_fwalk_sglue>

00010858 <__fp_unlock_all>:
   10858:	000b4637          	lui	a2,0xb4
   1085c:	000105b7          	lui	a1,0x10
   10860:	01060613          	addi	a2,a2,16 # b4010 <__sglue>
   10864:	58c58593          	addi	a1,a1,1420 # 1058c <__fp_unlock>
   10868:	00000513          	addi	a0,zero,0
   1086c:	0040006f          	jal	zero,10870 <_fwalk_sglue>

00010870 <_fwalk_sglue>:
   10870:	fd010113          	addi	sp,sp,-48
   10874:	03212023          	sw	s2,32(sp)
   10878:	01312e23          	sw	s3,28(sp)
   1087c:	01412c23          	sw	s4,24(sp)
   10880:	01512a23          	sw	s5,20(sp)
   10884:	01612823          	sw	s6,16(sp)
   10888:	01712623          	sw	s7,12(sp)
   1088c:	02112623          	sw	ra,44(sp)
   10890:	02812423          	sw	s0,40(sp)
   10894:	02912223          	sw	s1,36(sp)
   10898:	00060a93          	addi	s5,a2,0
   1089c:	00050b13          	addi	s6,a0,0
   108a0:	00058b93          	addi	s7,a1,0
   108a4:	00000a13          	addi	s4,zero,0
   108a8:	00100993          	addi	s3,zero,1
   108ac:	fff00913          	addi	s2,zero,-1
   108b0:	004aa483          	lw	s1,4(s5)
   108b4:	fff48493          	addi	s1,s1,-1
   108b8:	0204ca63          	blt	s1,zero,108ec <_fwalk_sglue+0x7c>
   108bc:	008aa403          	lw	s0,8(s5)
   108c0:	00c45783          	lhu	a5,12(s0)
   108c4:	00f9fe63          	bgeu	s3,a5,108e0 <_fwalk_sglue+0x70>
   108c8:	00e41783          	lh	a5,14(s0)
   108cc:	00040593          	addi	a1,s0,0
   108d0:	000b0513          	addi	a0,s6,0
   108d4:	01278663          	beq	a5,s2,108e0 <_fwalk_sglue+0x70>
   108d8:	000b80e7          	jalr	ra,0(s7)
   108dc:	00aa6a33          	or	s4,s4,a0
   108e0:	fff48493          	addi	s1,s1,-1
   108e4:	06840413          	addi	s0,s0,104
   108e8:	fd249ce3          	bne	s1,s2,108c0 <_fwalk_sglue+0x50>
   108ec:	000aaa83          	lw	s5,0(s5)
   108f0:	fc0a90e3          	bne	s5,zero,108b0 <_fwalk_sglue+0x40>
   108f4:	02c12083          	lw	ra,44(sp)
   108f8:	02812403          	lw	s0,40(sp)
   108fc:	02412483          	lw	s1,36(sp)
   10900:	02012903          	lw	s2,32(sp)
   10904:	01c12983          	lw	s3,28(sp)
   10908:	01412a83          	lw	s5,20(sp)
   1090c:	01012b03          	lw	s6,16(sp)
   10910:	00c12b83          	lw	s7,12(sp)
   10914:	000a0513          	addi	a0,s4,0
   10918:	01812a03          	lw	s4,24(sp)
   1091c:	03010113          	addi	sp,sp,48
   10920:	00008067          	jalr	zero,0(ra)

00010924 <_printf_r>:
   10924:	fc010113          	addi	sp,sp,-64
   10928:	00058e13          	addi	t3,a1,0
   1092c:	00852583          	lw	a1,8(a0)
   10930:	02810313          	addi	t1,sp,40
   10934:	02c12423          	sw	a2,40(sp)
   10938:	02d12623          	sw	a3,44(sp)
   1093c:	000e0613          	addi	a2,t3,0
   10940:	00030693          	addi	a3,t1,0
   10944:	00112e23          	sw	ra,28(sp)
   10948:	02e12823          	sw	a4,48(sp)
   1094c:	02f12a23          	sw	a5,52(sp)
   10950:	03012c23          	sw	a6,56(sp)
   10954:	03112e23          	sw	a7,60(sp)
   10958:	00612623          	sw	t1,12(sp)
   1095c:	370010ef          	jal	ra,11ccc <_vfprintf_r>
   10960:	01c12083          	lw	ra,28(sp)
   10964:	04010113          	addi	sp,sp,64
   10968:	00008067          	jalr	zero,0(ra)

0001096c <printf>:
   1096c:	f0c1a303          	lw	t1,-244(gp) # b471c <_impure_ptr>
   10970:	fc010113          	addi	sp,sp,-64
   10974:	02c12423          	sw	a2,40(sp)
   10978:	02d12623          	sw	a3,44(sp)
   1097c:	02b12223          	sw	a1,36(sp)
   10980:	02e12823          	sw	a4,48(sp)
   10984:	02f12a23          	sw	a5,52(sp)
   10988:	03012c23          	sw	a6,56(sp)
   1098c:	03112e23          	sw	a7,60(sp)
   10990:	00832583          	lw	a1,8(t1)
   10994:	02410693          	addi	a3,sp,36
   10998:	00050613          	addi	a2,a0,0
   1099c:	00030513          	addi	a0,t1,0
   109a0:	00112e23          	sw	ra,28(sp)
   109a4:	00d12623          	sw	a3,12(sp)
   109a8:	324010ef          	jal	ra,11ccc <_vfprintf_r>
   109ac:	01c12083          	lw	ra,28(sp)
   109b0:	04010113          	addi	sp,sp,64
   109b4:	00008067          	jalr	zero,0(ra)

000109b8 <__sread>:
   109b8:	ff010113          	addi	sp,sp,-16
   109bc:	00812423          	sw	s0,8(sp)
   109c0:	00058413          	addi	s0,a1,0
   109c4:	00e59583          	lh	a1,14(a1)
   109c8:	00112623          	sw	ra,12(sp)
   109cc:	2ec000ef          	jal	ra,10cb8 <_read_r>
   109d0:	02054063          	blt	a0,zero,109f0 <__sread+0x38>
   109d4:	05042783          	lw	a5,80(s0)
   109d8:	00c12083          	lw	ra,12(sp)
   109dc:	00a787b3          	add	a5,a5,a0
   109e0:	04f42823          	sw	a5,80(s0)
   109e4:	00812403          	lw	s0,8(sp)
   109e8:	01010113          	addi	sp,sp,16
   109ec:	00008067          	jalr	zero,0(ra)
   109f0:	00c45783          	lhu	a5,12(s0)
   109f4:	fffff737          	lui	a4,0xfffff
   109f8:	fff70713          	addi	a4,a4,-1 # ffffefff <__BSS_END__+0xfff4a5ab>
   109fc:	00e7f7b3          	and	a5,a5,a4
   10a00:	00c12083          	lw	ra,12(sp)
   10a04:	00f41623          	sh	a5,12(s0)
   10a08:	00812403          	lw	s0,8(sp)
   10a0c:	01010113          	addi	sp,sp,16
   10a10:	00008067          	jalr	zero,0(ra)

00010a14 <__seofread>:
   10a14:	00000513          	addi	a0,zero,0
   10a18:	00008067          	jalr	zero,0(ra)

00010a1c <__swrite>:
   10a1c:	00c59783          	lh	a5,12(a1)
   10a20:	fe010113          	addi	sp,sp,-32
   10a24:	00068313          	addi	t1,a3,0
   10a28:	00112e23          	sw	ra,28(sp)
   10a2c:	1007f693          	andi	a3,a5,256
   10a30:	00058713          	addi	a4,a1,0
   10a34:	00060893          	addi	a7,a2,0
   10a38:	00050813          	addi	a6,a0,0
   10a3c:	02069863          	bne	a3,zero,10a6c <__swrite+0x50>
   10a40:	fffff6b7          	lui	a3,0xfffff
   10a44:	fff68693          	addi	a3,a3,-1 # ffffefff <__BSS_END__+0xfff4a5ab>
   10a48:	01c12083          	lw	ra,28(sp)
   10a4c:	00d7f7b3          	and	a5,a5,a3
   10a50:	00e71583          	lh	a1,14(a4)
   10a54:	00f71623          	sh	a5,12(a4)
   10a58:	00030693          	addi	a3,t1,0
   10a5c:	00088613          	addi	a2,a7,0
   10a60:	00080513          	addi	a0,a6,0
   10a64:	02010113          	addi	sp,sp,32
   10a68:	2b80006f          	jal	zero,10d20 <_write_r>
   10a6c:	00e59583          	lh	a1,14(a1)
   10a70:	00c12423          	sw	a2,8(sp)
   10a74:	00200693          	addi	a3,zero,2
   10a78:	00000613          	addi	a2,zero,0
   10a7c:	00612623          	sw	t1,12(sp)
   10a80:	00e12023          	sw	a4,0(sp)
   10a84:	00a12223          	sw	a0,4(sp)
   10a88:	1c8000ef          	jal	ra,10c50 <_lseek_r>
   10a8c:	00012703          	lw	a4,0(sp)
   10a90:	00c12303          	lw	t1,12(sp)
   10a94:	00812883          	lw	a7,8(sp)
   10a98:	00c71783          	lh	a5,12(a4)
   10a9c:	00412803          	lw	a6,4(sp)
   10aa0:	fa1ff06f          	jal	zero,10a40 <__swrite+0x24>

00010aa4 <__sseek>:
   10aa4:	ff010113          	addi	sp,sp,-16
   10aa8:	00812423          	sw	s0,8(sp)
   10aac:	00058413          	addi	s0,a1,0
   10ab0:	00e59583          	lh	a1,14(a1)
   10ab4:	00112623          	sw	ra,12(sp)
   10ab8:	198000ef          	jal	ra,10c50 <_lseek_r>
   10abc:	fff00713          	addi	a4,zero,-1
   10ac0:	00c41783          	lh	a5,12(s0)
   10ac4:	02e50263          	beq	a0,a4,10ae8 <__sseek+0x44>
   10ac8:	00001737          	lui	a4,0x1
   10acc:	00e7e7b3          	or	a5,a5,a4
   10ad0:	00c12083          	lw	ra,12(sp)
   10ad4:	04a42823          	sw	a0,80(s0)
   10ad8:	00f41623          	sh	a5,12(s0)
   10adc:	00812403          	lw	s0,8(sp)
   10ae0:	01010113          	addi	sp,sp,16
   10ae4:	00008067          	jalr	zero,0(ra)
   10ae8:	80050713          	addi	a4,a0,-2048
   10aec:	80070713          	addi	a4,a4,-2048 # 800 <exit-0xf8b4>
   10af0:	00e7f7b3          	and	a5,a5,a4
   10af4:	00c12083          	lw	ra,12(sp)
   10af8:	00f41623          	sh	a5,12(s0)
   10afc:	00812403          	lw	s0,8(sp)
   10b00:	01010113          	addi	sp,sp,16
   10b04:	00008067          	jalr	zero,0(ra)

00010b08 <__sclose>:
   10b08:	00e59583          	lh	a1,14(a1)
   10b0c:	0040006f          	jal	zero,10b10 <_close_r>

00010b10 <_close_r>:
   10b10:	ff010113          	addi	sp,sp,-16
   10b14:	00812423          	sw	s0,8(sp)
   10b18:	00912223          	sw	s1,4(sp)
   10b1c:	00050493          	addi	s1,a0,0
   10b20:	00058513          	addi	a0,a1,0
   10b24:	00112623          	sw	ra,12(sp)
   10b28:	f001ae23          	sw	zero,-228(gp) # b472c <errno>
   10b2c:	4080b0ef          	jal	ra,1bf34 <_close>
   10b30:	fff00793          	addi	a5,zero,-1
   10b34:	00f50c63          	beq	a0,a5,10b4c <_close_r+0x3c>
   10b38:	00c12083          	lw	ra,12(sp)
   10b3c:	00812403          	lw	s0,8(sp)
   10b40:	00412483          	lw	s1,4(sp)
   10b44:	01010113          	addi	sp,sp,16
   10b48:	00008067          	jalr	zero,0(ra)
   10b4c:	f1c1a783          	lw	a5,-228(gp) # b472c <errno>
   10b50:	fe0784e3          	beq	a5,zero,10b38 <_close_r+0x28>
   10b54:	00c12083          	lw	ra,12(sp)
   10b58:	00812403          	lw	s0,8(sp)
   10b5c:	00f4a023          	sw	a5,0(s1)
   10b60:	00412483          	lw	s1,4(sp)
   10b64:	01010113          	addi	sp,sp,16
   10b68:	00008067          	jalr	zero,0(ra)

00010b6c <_reclaim_reent>:
   10b6c:	f0c1a783          	lw	a5,-244(gp) # b471c <_impure_ptr>
   10b70:	0ca78e63          	beq	a5,a0,10c4c <_reclaim_reent+0xe0>
   10b74:	04452583          	lw	a1,68(a0)
   10b78:	fe010113          	addi	sp,sp,-32
   10b7c:	00912a23          	sw	s1,20(sp)
   10b80:	00112e23          	sw	ra,28(sp)
   10b84:	00812c23          	sw	s0,24(sp)
   10b88:	00050493          	addi	s1,a0,0
   10b8c:	04058863          	beq	a1,zero,10bdc <_reclaim_reent+0x70>
   10b90:	01212823          	sw	s2,16(sp)
   10b94:	01312623          	sw	s3,12(sp)
   10b98:	00000913          	addi	s2,zero,0
   10b9c:	08000993          	addi	s3,zero,128
   10ba0:	012587b3          	add	a5,a1,s2
   10ba4:	0007a403          	lw	s0,0(a5)
   10ba8:	00040e63          	beq	s0,zero,10bc4 <_reclaim_reent+0x58>
   10bac:	00040593          	addi	a1,s0,0
   10bb0:	00042403          	lw	s0,0(s0)
   10bb4:	00048513          	addi	a0,s1,0
   10bb8:	5ac000ef          	jal	ra,11164 <_free_r>
   10bbc:	fe0418e3          	bne	s0,zero,10bac <_reclaim_reent+0x40>
   10bc0:	0444a583          	lw	a1,68(s1)
   10bc4:	00490913          	addi	s2,s2,4
   10bc8:	fd391ce3          	bne	s2,s3,10ba0 <_reclaim_reent+0x34>
   10bcc:	00048513          	addi	a0,s1,0
   10bd0:	594000ef          	jal	ra,11164 <_free_r>
   10bd4:	01012903          	lw	s2,16(sp)
   10bd8:	00c12983          	lw	s3,12(sp)
   10bdc:	0384a583          	lw	a1,56(s1)
   10be0:	00058663          	beq	a1,zero,10bec <_reclaim_reent+0x80>
   10be4:	00048513          	addi	a0,s1,0
   10be8:	57c000ef          	jal	ra,11164 <_free_r>
   10bec:	0404a403          	lw	s0,64(s1)
   10bf0:	00040c63          	beq	s0,zero,10c08 <_reclaim_reent+0x9c>
   10bf4:	00040593          	addi	a1,s0,0
   10bf8:	00042403          	lw	s0,0(s0)
   10bfc:	00048513          	addi	a0,s1,0
   10c00:	564000ef          	jal	ra,11164 <_free_r>
   10c04:	fe0418e3          	bne	s0,zero,10bf4 <_reclaim_reent+0x88>
   10c08:	04c4a583          	lw	a1,76(s1)
   10c0c:	00058663          	beq	a1,zero,10c18 <_reclaim_reent+0xac>
   10c10:	00048513          	addi	a0,s1,0
   10c14:	550000ef          	jal	ra,11164 <_free_r>
   10c18:	0344a783          	lw	a5,52(s1)
   10c1c:	00078e63          	beq	a5,zero,10c38 <_reclaim_reent+0xcc>
   10c20:	01812403          	lw	s0,24(sp)
   10c24:	01c12083          	lw	ra,28(sp)
   10c28:	00048513          	addi	a0,s1,0
   10c2c:	01412483          	lw	s1,20(sp)
   10c30:	02010113          	addi	sp,sp,32
   10c34:	00078067          	jalr	zero,0(a5)
   10c38:	01c12083          	lw	ra,28(sp)
   10c3c:	01812403          	lw	s0,24(sp)
   10c40:	01412483          	lw	s1,20(sp)
   10c44:	02010113          	addi	sp,sp,32
   10c48:	00008067          	jalr	zero,0(ra)
   10c4c:	00008067          	jalr	zero,0(ra)

00010c50 <_lseek_r>:
   10c50:	ff010113          	addi	sp,sp,-16
   10c54:	00058793          	addi	a5,a1,0
   10c58:	00812423          	sw	s0,8(sp)
   10c5c:	00912223          	sw	s1,4(sp)
   10c60:	00060593          	addi	a1,a2,0
   10c64:	00050493          	addi	s1,a0,0
   10c68:	00068613          	addi	a2,a3,0
   10c6c:	00078513          	addi	a0,a5,0
   10c70:	00112623          	sw	ra,12(sp)
   10c74:	f001ae23          	sw	zero,-228(gp) # b472c <errno>
   10c78:	3f80b0ef          	jal	ra,1c070 <_lseek>
   10c7c:	fff00793          	addi	a5,zero,-1
   10c80:	00f50c63          	beq	a0,a5,10c98 <_lseek_r+0x48>
   10c84:	00c12083          	lw	ra,12(sp)
   10c88:	00812403          	lw	s0,8(sp)
   10c8c:	00412483          	lw	s1,4(sp)
   10c90:	01010113          	addi	sp,sp,16
   10c94:	00008067          	jalr	zero,0(ra)
   10c98:	f1c1a783          	lw	a5,-228(gp) # b472c <errno>
   10c9c:	fe0784e3          	beq	a5,zero,10c84 <_lseek_r+0x34>
   10ca0:	00c12083          	lw	ra,12(sp)
   10ca4:	00812403          	lw	s0,8(sp)
   10ca8:	00f4a023          	sw	a5,0(s1)
   10cac:	00412483          	lw	s1,4(sp)
   10cb0:	01010113          	addi	sp,sp,16
   10cb4:	00008067          	jalr	zero,0(ra)

00010cb8 <_read_r>:
   10cb8:	ff010113          	addi	sp,sp,-16
   10cbc:	00058793          	addi	a5,a1,0
   10cc0:	00812423          	sw	s0,8(sp)
   10cc4:	00912223          	sw	s1,4(sp)
   10cc8:	00060593          	addi	a1,a2,0
   10ccc:	00050493          	addi	s1,a0,0
   10cd0:	00068613          	addi	a2,a3,0
   10cd4:	00078513          	addi	a0,a5,0
   10cd8:	00112623          	sw	ra,12(sp)
   10cdc:	f001ae23          	sw	zero,-228(gp) # b472c <errno>
   10ce0:	3d00b0ef          	jal	ra,1c0b0 <_read>
   10ce4:	fff00793          	addi	a5,zero,-1
   10ce8:	00f50c63          	beq	a0,a5,10d00 <_read_r+0x48>
   10cec:	00c12083          	lw	ra,12(sp)
   10cf0:	00812403          	lw	s0,8(sp)
   10cf4:	00412483          	lw	s1,4(sp)
   10cf8:	01010113          	addi	sp,sp,16
   10cfc:	00008067          	jalr	zero,0(ra)
   10d00:	f1c1a783          	lw	a5,-228(gp) # b472c <errno>
   10d04:	fe0784e3          	beq	a5,zero,10cec <_read_r+0x34>
   10d08:	00c12083          	lw	ra,12(sp)
   10d0c:	00812403          	lw	s0,8(sp)
   10d10:	00f4a023          	sw	a5,0(s1)
   10d14:	00412483          	lw	s1,4(sp)
   10d18:	01010113          	addi	sp,sp,16
   10d1c:	00008067          	jalr	zero,0(ra)

00010d20 <_write_r>:
   10d20:	ff010113          	addi	sp,sp,-16
   10d24:	00058793          	addi	a5,a1,0
   10d28:	00812423          	sw	s0,8(sp)
   10d2c:	00912223          	sw	s1,4(sp)
   10d30:	00060593          	addi	a1,a2,0
   10d34:	00050493          	addi	s1,a0,0
   10d38:	00068613          	addi	a2,a3,0
   10d3c:	00078513          	addi	a0,a5,0
   10d40:	00112623          	sw	ra,12(sp)
   10d44:	f001ae23          	sw	zero,-228(gp) # b472c <errno>
   10d48:	4200b0ef          	jal	ra,1c168 <_write>
   10d4c:	fff00793          	addi	a5,zero,-1
   10d50:	00f50c63          	beq	a0,a5,10d68 <_write_r+0x48>
   10d54:	00c12083          	lw	ra,12(sp)
   10d58:	00812403          	lw	s0,8(sp)
   10d5c:	00412483          	lw	s1,4(sp)
   10d60:	01010113          	addi	sp,sp,16
   10d64:	00008067          	jalr	zero,0(ra)
   10d68:	f1c1a783          	lw	a5,-228(gp) # b472c <errno>
   10d6c:	fe0784e3          	beq	a5,zero,10d54 <_write_r+0x34>
   10d70:	00c12083          	lw	ra,12(sp)
   10d74:	00812403          	lw	s0,8(sp)
   10d78:	00f4a023          	sw	a5,0(s1)
   10d7c:	00412483          	lw	s1,4(sp)
   10d80:	01010113          	addi	sp,sp,16
   10d84:	00008067          	jalr	zero,0(ra)

00010d88 <__libc_init_array>:
   10d88:	ff010113          	addi	sp,sp,-16
   10d8c:	00812423          	sw	s0,8(sp)
   10d90:	01212023          	sw	s2,0(sp)
   10d94:	000b4437          	lui	s0,0xb4
   10d98:	000b4937          	lui	s2,0xb4
   10d9c:	00112623          	sw	ra,12(sp)
   10da0:	00912223          	sw	s1,4(sp)
   10da4:	00090913          	addi	s2,s2,0 # b4000 <__init_array_start>
   10da8:	00040413          	addi	s0,s0,0 # b4000 <__init_array_start>
   10dac:	02890263          	beq	s2,s0,10dd0 <__libc_init_array+0x48>
   10db0:	40890933          	sub	s2,s2,s0
   10db4:	40295913          	srai	s2,s2,0x2
   10db8:	00000493          	addi	s1,zero,0
   10dbc:	00042783          	lw	a5,0(s0)
   10dc0:	00148493          	addi	s1,s1,1
   10dc4:	00440413          	addi	s0,s0,4
   10dc8:	000780e7          	jalr	ra,0(a5)
   10dcc:	ff24e8e3          	bltu	s1,s2,10dbc <__libc_init_array+0x34>
   10dd0:	000b4937          	lui	s2,0xb4
   10dd4:	000b4437          	lui	s0,0xb4
   10dd8:	00890913          	addi	s2,s2,8 # b4008 <__do_global_dtors_aux_fini_array_entry>
   10ddc:	00040413          	addi	s0,s0,0 # b4000 <__init_array_start>
   10de0:	02890263          	beq	s2,s0,10e04 <__libc_init_array+0x7c>
   10de4:	40890933          	sub	s2,s2,s0
   10de8:	40295913          	srai	s2,s2,0x2
   10dec:	00000493          	addi	s1,zero,0
   10df0:	00042783          	lw	a5,0(s0)
   10df4:	00148493          	addi	s1,s1,1
   10df8:	00440413          	addi	s0,s0,4
   10dfc:	000780e7          	jalr	ra,0(a5)
   10e00:	ff24e8e3          	bltu	s1,s2,10df0 <__libc_init_array+0x68>
   10e04:	00c12083          	lw	ra,12(sp)
   10e08:	00812403          	lw	s0,8(sp)
   10e0c:	00412483          	lw	s1,4(sp)
   10e10:	00012903          	lw	s2,0(sp)
   10e14:	01010113          	addi	sp,sp,16
   10e18:	00008067          	jalr	zero,0(ra)

00010e1c <memset>:
   10e1c:	00f00313          	addi	t1,zero,15
   10e20:	00050713          	addi	a4,a0,0
   10e24:	02c37e63          	bgeu	t1,a2,10e60 <memset+0x44>
   10e28:	00f77793          	andi	a5,a4,15
   10e2c:	0a079063          	bne	a5,zero,10ecc <memset+0xb0>
   10e30:	08059263          	bne	a1,zero,10eb4 <memset+0x98>
   10e34:	ff067693          	andi	a3,a2,-16
   10e38:	00f67613          	andi	a2,a2,15
   10e3c:	00e686b3          	add	a3,a3,a4
   10e40:	00b72023          	sw	a1,0(a4)
   10e44:	00b72223          	sw	a1,4(a4)
   10e48:	00b72423          	sw	a1,8(a4)
   10e4c:	00b72623          	sw	a1,12(a4)
   10e50:	01070713          	addi	a4,a4,16
   10e54:	fed766e3          	bltu	a4,a3,10e40 <memset+0x24>
   10e58:	00061463          	bne	a2,zero,10e60 <memset+0x44>
   10e5c:	00008067          	jalr	zero,0(ra)
   10e60:	40c306b3          	sub	a3,t1,a2
   10e64:	00269693          	slli	a3,a3,0x2
   10e68:	00000297          	auipc	t0,0x0
   10e6c:	005686b3          	add	a3,a3,t0
   10e70:	00c68067          	jalr	zero,12(a3)
   10e74:	00b70723          	sb	a1,14(a4)
   10e78:	00b706a3          	sb	a1,13(a4)
   10e7c:	00b70623          	sb	a1,12(a4)
   10e80:	00b705a3          	sb	a1,11(a4)
   10e84:	00b70523          	sb	a1,10(a4)
   10e88:	00b704a3          	sb	a1,9(a4)
   10e8c:	00b70423          	sb	a1,8(a4)
   10e90:	00b703a3          	sb	a1,7(a4)
   10e94:	00b70323          	sb	a1,6(a4)
   10e98:	00b702a3          	sb	a1,5(a4)
   10e9c:	00b70223          	sb	a1,4(a4)
   10ea0:	00b701a3          	sb	a1,3(a4)
   10ea4:	00b70123          	sb	a1,2(a4)
   10ea8:	00b700a3          	sb	a1,1(a4)
   10eac:	00b70023          	sb	a1,0(a4)
   10eb0:	00008067          	jalr	zero,0(ra)
   10eb4:	0ff5f593          	andi	a1,a1,255
   10eb8:	00859693          	slli	a3,a1,0x8
   10ebc:	00d5e5b3          	or	a1,a1,a3
   10ec0:	01059693          	slli	a3,a1,0x10
   10ec4:	00d5e5b3          	or	a1,a1,a3
   10ec8:	f6dff06f          	jal	zero,10e34 <memset+0x18>
   10ecc:	00279693          	slli	a3,a5,0x2
   10ed0:	00000297          	auipc	t0,0x0
   10ed4:	005686b3          	add	a3,a3,t0
   10ed8:	00008293          	addi	t0,ra,0
   10edc:	fa0680e7          	jalr	ra,-96(a3)
   10ee0:	00028093          	addi	ra,t0,0 # 10ed0 <memset+0xb4>
   10ee4:	ff078793          	addi	a5,a5,-16
   10ee8:	40f70733          	sub	a4,a4,a5
   10eec:	00f60633          	add	a2,a2,a5
   10ef0:	f6c378e3          	bgeu	t1,a2,10e60 <memset+0x44>
   10ef4:	f3dff06f          	jal	zero,10e30 <memset+0x14>

00010ef8 <__call_exitprocs>:
   10ef8:	fd010113          	addi	sp,sp,-48
   10efc:	01412c23          	sw	s4,24(sp)
   10f00:	03212023          	sw	s2,32(sp)
   10f04:	f201a903          	lw	s2,-224(gp) # b4730 <__atexit>
   10f08:	02112623          	sw	ra,44(sp)
   10f0c:	06090c63          	beq	s2,zero,10f84 <__call_exitprocs+0x8c>
   10f10:	01312e23          	sw	s3,28(sp)
   10f14:	01512a23          	sw	s5,20(sp)
   10f18:	01612823          	sw	s6,16(sp)
   10f1c:	01712623          	sw	s7,12(sp)
   10f20:	02812423          	sw	s0,40(sp)
   10f24:	02912223          	sw	s1,36(sp)
   10f28:	01812423          	sw	s8,8(sp)
   10f2c:	00050b13          	addi	s6,a0,0
   10f30:	00058b93          	addi	s7,a1,0
   10f34:	fff00993          	addi	s3,zero,-1
   10f38:	00100a93          	addi	s5,zero,1
   10f3c:	00492483          	lw	s1,4(s2)
   10f40:	fff48413          	addi	s0,s1,-1
   10f44:	02044263          	blt	s0,zero,10f68 <__call_exitprocs+0x70>
   10f48:	00249493          	slli	s1,s1,0x2
   10f4c:	009904b3          	add	s1,s2,s1
   10f50:	040b8463          	beq	s7,zero,10f98 <__call_exitprocs+0xa0>
   10f54:	1044a783          	lw	a5,260(s1)
   10f58:	05778063          	beq	a5,s7,10f98 <__call_exitprocs+0xa0>
   10f5c:	fff40413          	addi	s0,s0,-1
   10f60:	ffc48493          	addi	s1,s1,-4
   10f64:	ff3418e3          	bne	s0,s3,10f54 <__call_exitprocs+0x5c>
   10f68:	02812403          	lw	s0,40(sp)
   10f6c:	02412483          	lw	s1,36(sp)
   10f70:	01c12983          	lw	s3,28(sp)
   10f74:	01412a83          	lw	s5,20(sp)
   10f78:	01012b03          	lw	s6,16(sp)
   10f7c:	00c12b83          	lw	s7,12(sp)
   10f80:	00812c03          	lw	s8,8(sp)
   10f84:	02c12083          	lw	ra,44(sp)
   10f88:	02012903          	lw	s2,32(sp)
   10f8c:	01812a03          	lw	s4,24(sp)
   10f90:	03010113          	addi	sp,sp,48
   10f94:	00008067          	jalr	zero,0(ra)
   10f98:	00492783          	lw	a5,4(s2)
   10f9c:	0044a683          	lw	a3,4(s1)
   10fa0:	fff78793          	addi	a5,a5,-1
   10fa4:	06878a63          	beq	a5,s0,11018 <__call_exitprocs+0x120>
   10fa8:	0004a223          	sw	zero,4(s1)
   10fac:	02068663          	beq	a3,zero,10fd8 <__call_exitprocs+0xe0>
   10fb0:	18892783          	lw	a5,392(s2)
   10fb4:	008a9733          	sll	a4,s5,s0
   10fb8:	00492c03          	lw	s8,4(s2)
   10fbc:	00f777b3          	and	a5,a4,a5
   10fc0:	02079463          	bne	a5,zero,10fe8 <__call_exitprocs+0xf0>
   10fc4:	000680e7          	jalr	ra,0(a3)
   10fc8:	00492703          	lw	a4,4(s2)
   10fcc:	f201a783          	lw	a5,-224(gp) # b4730 <__atexit>
   10fd0:	03871e63          	bne	a4,s8,1100c <__call_exitprocs+0x114>
   10fd4:	03279c63          	bne	a5,s2,1100c <__call_exitprocs+0x114>
   10fd8:	fff40413          	addi	s0,s0,-1
   10fdc:	ffc48493          	addi	s1,s1,-4
   10fe0:	f73418e3          	bne	s0,s3,10f50 <__call_exitprocs+0x58>
   10fe4:	f85ff06f          	jal	zero,10f68 <__call_exitprocs+0x70>
   10fe8:	18c92783          	lw	a5,396(s2)
   10fec:	0844a583          	lw	a1,132(s1)
   10ff0:	00f77733          	and	a4,a4,a5
   10ff4:	02071663          	bne	a4,zero,11020 <__call_exitprocs+0x128>
   10ff8:	000b0513          	addi	a0,s6,0
   10ffc:	000680e7          	jalr	ra,0(a3)
   11000:	00492703          	lw	a4,4(s2)
   11004:	f201a783          	lw	a5,-224(gp) # b4730 <__atexit>
   11008:	fd8706e3          	beq	a4,s8,10fd4 <__call_exitprocs+0xdc>
   1100c:	f4078ee3          	beq	a5,zero,10f68 <__call_exitprocs+0x70>
   11010:	00078913          	addi	s2,a5,0
   11014:	f29ff06f          	jal	zero,10f3c <__call_exitprocs+0x44>
   11018:	00892223          	sw	s0,4(s2)
   1101c:	f91ff06f          	jal	zero,10fac <__call_exitprocs+0xb4>
   11020:	00058513          	addi	a0,a1,0
   11024:	000680e7          	jalr	ra,0(a3)
   11028:	fa1ff06f          	jal	zero,10fc8 <__call_exitprocs+0xd0>

0001102c <atexit>:
   1102c:	00050593          	addi	a1,a0,0
   11030:	00000693          	addi	a3,zero,0
   11034:	00000613          	addi	a2,zero,0
   11038:	00000513          	addi	a0,zero,0
   1103c:	7290406f          	jal	zero,15f64 <__register_exitproc>

00011040 <_malloc_trim_r>:
   11040:	fe010113          	addi	sp,sp,-32
   11044:	01212823          	sw	s2,16(sp)
   11048:	000b4937          	lui	s2,0xb4
   1104c:	00812c23          	sw	s0,24(sp)
   11050:	00912a23          	sw	s1,20(sp)
   11054:	01312623          	sw	s3,12(sp)
   11058:	00058413          	addi	s0,a1,0
   1105c:	00112e23          	sw	ra,28(sp)
   11060:	00050993          	addi	s3,a0,0
   11064:	14090913          	addi	s2,s2,320 # b4140 <__malloc_av_>
   11068:	45d000ef          	jal	ra,11cc4 <__malloc_lock>
   1106c:	00892783          	lw	a5,8(s2)
   11070:	00001737          	lui	a4,0x1
   11074:	0047a483          	lw	s1,4(a5)
   11078:	ffc4f493          	andi	s1,s1,-4
   1107c:	7ff48793          	addi	a5,s1,2047
   11080:	7f078793          	addi	a5,a5,2032
   11084:	40878433          	sub	s0,a5,s0
   11088:	00c45413          	srli	s0,s0,0xc
   1108c:	fff40413          	addi	s0,s0,-1
   11090:	00c41413          	slli	s0,s0,0xc
   11094:	00e44e63          	blt	s0,a4,110b0 <_malloc_trim_r+0x70>
   11098:	00000593          	addi	a1,zero,0
   1109c:	00098513          	addi	a0,s3,0
   110a0:	1b1040ef          	jal	ra,15a50 <_sbrk_r>
   110a4:	00892783          	lw	a5,8(s2)
   110a8:	009787b3          	add	a5,a5,s1
   110ac:	02f50663          	beq	a0,a5,110d8 <_malloc_trim_r+0x98>
   110b0:	00098513          	addi	a0,s3,0
   110b4:	415000ef          	jal	ra,11cc8 <__malloc_unlock>
   110b8:	01c12083          	lw	ra,28(sp)
   110bc:	01812403          	lw	s0,24(sp)
   110c0:	01412483          	lw	s1,20(sp)
   110c4:	01012903          	lw	s2,16(sp)
   110c8:	00c12983          	lw	s3,12(sp)
   110cc:	00000513          	addi	a0,zero,0
   110d0:	02010113          	addi	sp,sp,32
   110d4:	00008067          	jalr	zero,0(ra)
   110d8:	408005b3          	sub	a1,zero,s0
   110dc:	00098513          	addi	a0,s3,0
   110e0:	171040ef          	jal	ra,15a50 <_sbrk_r>
   110e4:	fff00793          	addi	a5,zero,-1
   110e8:	04f50463          	beq	a0,a5,11130 <_malloc_trim_r+0xf0>
   110ec:	00892683          	lw	a3,8(s2)
   110f0:	08c1a783          	lw	a5,140(gp) # b489c <__malloc_current_mallinfo>
   110f4:	408484b3          	sub	s1,s1,s0
   110f8:	0014e493          	ori	s1,s1,1
   110fc:	00098513          	addi	a0,s3,0
   11100:	408787b3          	sub	a5,a5,s0
   11104:	0096a223          	sw	s1,4(a3)
   11108:	08f1a623          	sw	a5,140(gp) # b489c <__malloc_current_mallinfo>
   1110c:	3bd000ef          	jal	ra,11cc8 <__malloc_unlock>
   11110:	01c12083          	lw	ra,28(sp)
   11114:	01812403          	lw	s0,24(sp)
   11118:	01412483          	lw	s1,20(sp)
   1111c:	01012903          	lw	s2,16(sp)
   11120:	00c12983          	lw	s3,12(sp)
   11124:	00100513          	addi	a0,zero,1
   11128:	02010113          	addi	sp,sp,32
   1112c:	00008067          	jalr	zero,0(ra)
   11130:	00000593          	addi	a1,zero,0
   11134:	00098513          	addi	a0,s3,0
   11138:	119040ef          	jal	ra,15a50 <_sbrk_r>
   1113c:	00892703          	lw	a4,8(s2)
   11140:	00f00693          	addi	a3,zero,15
   11144:	40e507b3          	sub	a5,a0,a4
   11148:	f6f6d4e3          	bge	a3,a5,110b0 <_malloc_trim_r+0x70>
   1114c:	f101a603          	lw	a2,-240(gp) # b4720 <__malloc_sbrk_base>
   11150:	0017e793          	ori	a5,a5,1
   11154:	40c50533          	sub	a0,a0,a2
   11158:	00f72223          	sw	a5,4(a4) # 1004 <exit-0xf0b0>
   1115c:	08a1a623          	sw	a0,140(gp) # b489c <__malloc_current_mallinfo>
   11160:	f51ff06f          	jal	zero,110b0 <_malloc_trim_r+0x70>

00011164 <_free_r>:
   11164:	12058463          	beq	a1,zero,1128c <_free_r+0x128>
   11168:	fe010113          	addi	sp,sp,-32
   1116c:	00812c23          	sw	s0,24(sp)
   11170:	00b12623          	sw	a1,12(sp)
   11174:	00050413          	addi	s0,a0,0
   11178:	00112e23          	sw	ra,28(sp)
   1117c:	349000ef          	jal	ra,11cc4 <__malloc_lock>
   11180:	00c12583          	lw	a1,12(sp)
   11184:	000b4837          	lui	a6,0xb4
   11188:	14080813          	addi	a6,a6,320 # b4140 <__malloc_av_>
   1118c:	ffc5a503          	lw	a0,-4(a1)
   11190:	ff858713          	addi	a4,a1,-8
   11194:	00882883          	lw	a7,8(a6)
   11198:	ffe57793          	andi	a5,a0,-2
   1119c:	00f70633          	add	a2,a4,a5
   111a0:	00462683          	lw	a3,4(a2)
   111a4:	00157313          	andi	t1,a0,1
   111a8:	ffc6f693          	andi	a3,a3,-4
   111ac:	18c88863          	beq	a7,a2,1133c <_free_r+0x1d8>
   111b0:	00d62223          	sw	a3,4(a2)
   111b4:	00d608b3          	add	a7,a2,a3
   111b8:	0048a883          	lw	a7,4(a7)
   111bc:	0018f893          	andi	a7,a7,1
   111c0:	08031a63          	bne	t1,zero,11254 <_free_r+0xf0>
   111c4:	ff85a303          	lw	t1,-8(a1)
   111c8:	000b45b7          	lui	a1,0xb4
   111cc:	14858593          	addi	a1,a1,328 # b4148 <__malloc_av_+0x8>
   111d0:	40670733          	sub	a4,a4,t1
   111d4:	00872503          	lw	a0,8(a4)
   111d8:	006787b3          	add	a5,a5,t1
   111dc:	12b50a63          	beq	a0,a1,11310 <_free_r+0x1ac>
   111e0:	00c72303          	lw	t1,12(a4)
   111e4:	00652623          	sw	t1,12(a0)
   111e8:	00a32423          	sw	a0,8(t1)
   111ec:	18088c63          	beq	a7,zero,11384 <_free_r+0x220>
   111f0:	0017e693          	ori	a3,a5,1
   111f4:	00d72223          	sw	a3,4(a4)
   111f8:	00f62023          	sw	a5,0(a2)
   111fc:	1ff00693          	addi	a3,zero,511
   11200:	0af6e263          	bltu	a3,a5,112a4 <_free_r+0x140>
   11204:	ff87f693          	andi	a3,a5,-8
   11208:	00868693          	addi	a3,a3,8
   1120c:	00482583          	lw	a1,4(a6)
   11210:	00d806b3          	add	a3,a6,a3
   11214:	0006a603          	lw	a2,0(a3)
   11218:	0057d513          	srli	a0,a5,0x5
   1121c:	00100793          	addi	a5,zero,1
   11220:	00a797b3          	sll	a5,a5,a0
   11224:	00b7e7b3          	or	a5,a5,a1
   11228:	ff868593          	addi	a1,a3,-8
   1122c:	00c72423          	sw	a2,8(a4)
   11230:	00b72623          	sw	a1,12(a4)
   11234:	00f82223          	sw	a5,4(a6)
   11238:	00e6a023          	sw	a4,0(a3)
   1123c:	00e62623          	sw	a4,12(a2)
   11240:	00040513          	addi	a0,s0,0
   11244:	01812403          	lw	s0,24(sp)
   11248:	01c12083          	lw	ra,28(sp)
   1124c:	02010113          	addi	sp,sp,32
   11250:	2790006f          	jal	zero,11cc8 <__malloc_unlock>
   11254:	02089e63          	bne	a7,zero,11290 <_free_r+0x12c>
   11258:	000b45b7          	lui	a1,0xb4
   1125c:	00d787b3          	add	a5,a5,a3
   11260:	14858593          	addi	a1,a1,328 # b4148 <__malloc_av_+0x8>
   11264:	00862683          	lw	a3,8(a2)
   11268:	0017e893          	ori	a7,a5,1
   1126c:	00f70533          	add	a0,a4,a5
   11270:	16b68063          	beq	a3,a1,113d0 <_free_r+0x26c>
   11274:	00c62603          	lw	a2,12(a2)
   11278:	00c6a623          	sw	a2,12(a3)
   1127c:	00d62423          	sw	a3,8(a2)
   11280:	01172223          	sw	a7,4(a4)
   11284:	00f52023          	sw	a5,0(a0)
   11288:	f75ff06f          	jal	zero,111fc <_free_r+0x98>
   1128c:	00008067          	jalr	zero,0(ra)
   11290:	00156513          	ori	a0,a0,1
   11294:	fea5ae23          	sw	a0,-4(a1)
   11298:	00f62023          	sw	a5,0(a2)
   1129c:	1ff00693          	addi	a3,zero,511
   112a0:	f6f6f2e3          	bgeu	a3,a5,11204 <_free_r+0xa0>
   112a4:	0097d693          	srli	a3,a5,0x9
   112a8:	00400613          	addi	a2,zero,4
   112ac:	0ed66063          	bltu	a2,a3,1138c <_free_r+0x228>
   112b0:	0067d693          	srli	a3,a5,0x6
   112b4:	03968593          	addi	a1,a3,57
   112b8:	00359593          	slli	a1,a1,0x3
   112bc:	03868613          	addi	a2,a3,56
   112c0:	00b805b3          	add	a1,a6,a1
   112c4:	0005a683          	lw	a3,0(a1)
   112c8:	ff858593          	addi	a1,a1,-8
   112cc:	00d59863          	bne	a1,a3,112dc <_free_r+0x178>
   112d0:	11c0006f          	jal	zero,113ec <_free_r+0x288>
   112d4:	0086a683          	lw	a3,8(a3)
   112d8:	00d58863          	beq	a1,a3,112e8 <_free_r+0x184>
   112dc:	0046a603          	lw	a2,4(a3)
   112e0:	ffc67613          	andi	a2,a2,-4
   112e4:	fec7e8e3          	bltu	a5,a2,112d4 <_free_r+0x170>
   112e8:	00c6a583          	lw	a1,12(a3)
   112ec:	00b72623          	sw	a1,12(a4)
   112f0:	00d72423          	sw	a3,8(a4)
   112f4:	00040513          	addi	a0,s0,0
   112f8:	01812403          	lw	s0,24(sp)
   112fc:	01c12083          	lw	ra,28(sp)
   11300:	00e5a423          	sw	a4,8(a1)
   11304:	00e6a623          	sw	a4,12(a3)
   11308:	02010113          	addi	sp,sp,32
   1130c:	1bd0006f          	jal	zero,11cc8 <__malloc_unlock>
   11310:	0a089063          	bne	a7,zero,113b0 <_free_r+0x24c>
   11314:	00c62583          	lw	a1,12(a2)
   11318:	00862603          	lw	a2,8(a2)
   1131c:	00f686b3          	add	a3,a3,a5
   11320:	0016e793          	ori	a5,a3,1
   11324:	00b62623          	sw	a1,12(a2)
   11328:	00c5a423          	sw	a2,8(a1)
   1132c:	00f72223          	sw	a5,4(a4)
   11330:	00d70733          	add	a4,a4,a3
   11334:	00d72023          	sw	a3,0(a4)
   11338:	f09ff06f          	jal	zero,11240 <_free_r+0xdc>
   1133c:	00d786b3          	add	a3,a5,a3
   11340:	02031063          	bne	t1,zero,11360 <_free_r+0x1fc>
   11344:	ff85a783          	lw	a5,-8(a1)
   11348:	40f70733          	sub	a4,a4,a5
   1134c:	00872603          	lw	a2,8(a4)
   11350:	00f686b3          	add	a3,a3,a5
   11354:	00c72783          	lw	a5,12(a4)
   11358:	00f62623          	sw	a5,12(a2)
   1135c:	00c7a423          	sw	a2,8(a5)
   11360:	0016e613          	ori	a2,a3,1
   11364:	f141a783          	lw	a5,-236(gp) # b4724 <__malloc_trim_threshold>
   11368:	00c72223          	sw	a2,4(a4)
   1136c:	00e82423          	sw	a4,8(a6)
   11370:	ecf6e8e3          	bltu	a3,a5,11240 <_free_r+0xdc>
   11374:	f2c1a583          	lw	a1,-212(gp) # b473c <__malloc_top_pad>
   11378:	00040513          	addi	a0,s0,0
   1137c:	cc5ff0ef          	jal	ra,11040 <_malloc_trim_r>
   11380:	ec1ff06f          	jal	zero,11240 <_free_r+0xdc>
   11384:	00d787b3          	add	a5,a5,a3
   11388:	eddff06f          	jal	zero,11264 <_free_r+0x100>
   1138c:	01400613          	addi	a2,zero,20
   11390:	02d67863          	bgeu	a2,a3,113c0 <_free_r+0x25c>
   11394:	05400613          	addi	a2,zero,84
   11398:	06d66863          	bltu	a2,a3,11408 <_free_r+0x2a4>
   1139c:	00c7d693          	srli	a3,a5,0xc
   113a0:	06f68593          	addi	a1,a3,111
   113a4:	00359593          	slli	a1,a1,0x3
   113a8:	06e68613          	addi	a2,a3,110
   113ac:	f15ff06f          	jal	zero,112c0 <_free_r+0x15c>
   113b0:	0017e693          	ori	a3,a5,1
   113b4:	00d72223          	sw	a3,4(a4)
   113b8:	00f62023          	sw	a5,0(a2)
   113bc:	e85ff06f          	jal	zero,11240 <_free_r+0xdc>
   113c0:	05c68593          	addi	a1,a3,92
   113c4:	00359593          	slli	a1,a1,0x3
   113c8:	05b68613          	addi	a2,a3,91
   113cc:	ef5ff06f          	jal	zero,112c0 <_free_r+0x15c>
   113d0:	00e82a23          	sw	a4,20(a6)
   113d4:	00e82823          	sw	a4,16(a6)
   113d8:	00b72623          	sw	a1,12(a4)
   113dc:	00b72423          	sw	a1,8(a4)
   113e0:	01172223          	sw	a7,4(a4)
   113e4:	00f52023          	sw	a5,0(a0)
   113e8:	e59ff06f          	jal	zero,11240 <_free_r+0xdc>
   113ec:	00482503          	lw	a0,4(a6)
   113f0:	40265613          	srai	a2,a2,0x2
   113f4:	00100793          	addi	a5,zero,1
   113f8:	00c797b3          	sll	a5,a5,a2
   113fc:	00a7e7b3          	or	a5,a5,a0
   11400:	00f82223          	sw	a5,4(a6)
   11404:	ee9ff06f          	jal	zero,112ec <_free_r+0x188>
   11408:	15400613          	addi	a2,zero,340
   1140c:	00d66c63          	bltu	a2,a3,11424 <_free_r+0x2c0>
   11410:	00f7d693          	srli	a3,a5,0xf
   11414:	07868593          	addi	a1,a3,120
   11418:	00359593          	slli	a1,a1,0x3
   1141c:	07768613          	addi	a2,a3,119
   11420:	ea1ff06f          	jal	zero,112c0 <_free_r+0x15c>
   11424:	55400613          	addi	a2,zero,1364
   11428:	00d66c63          	bltu	a2,a3,11440 <_free_r+0x2dc>
   1142c:	0127d693          	srli	a3,a5,0x12
   11430:	07d68593          	addi	a1,a3,125
   11434:	00359593          	slli	a1,a1,0x3
   11438:	07c68613          	addi	a2,a3,124
   1143c:	e85ff06f          	jal	zero,112c0 <_free_r+0x15c>
   11440:	3f800593          	addi	a1,zero,1016
   11444:	07e00613          	addi	a2,zero,126
   11448:	e79ff06f          	jal	zero,112c0 <_free_r+0x15c>

0001144c <_malloc_r>:
   1144c:	fc010113          	addi	sp,sp,-64
   11450:	02812c23          	sw	s0,56(sp)
   11454:	02112e23          	sw	ra,60(sp)
   11458:	00b58793          	addi	a5,a1,11
   1145c:	01600713          	addi	a4,zero,22
   11460:	00050413          	addi	s0,a0,0
   11464:	08f76e63          	bltu	a4,a5,11500 <_malloc_r+0xb4>
   11468:	01000693          	addi	a3,zero,16
   1146c:	06b6ec63          	bltu	a3,a1,114e4 <_malloc_r+0x98>
   11470:	055000ef          	jal	ra,11cc4 <__malloc_lock>
   11474:	01000693          	addi	a3,zero,16
   11478:	01800713          	addi	a4,zero,24
   1147c:	00200893          	addi	a7,zero,2
   11480:	000b4837          	lui	a6,0xb4
   11484:	14080813          	addi	a6,a6,320 # b4140 <__malloc_av_>
   11488:	00e80733          	add	a4,a6,a4
   1148c:	00472783          	lw	a5,4(a4)
   11490:	ff870613          	addi	a2,a4,-8
   11494:	44c78c63          	beq	a5,a2,118ec <_malloc_r+0x4a0>
   11498:	0047a703          	lw	a4,4(a5)
   1149c:	00c7a603          	lw	a2,12(a5)
   114a0:	0087a583          	lw	a1,8(a5)
   114a4:	ffc77713          	andi	a4,a4,-4
   114a8:	00e78733          	add	a4,a5,a4
   114ac:	00472683          	lw	a3,4(a4)
   114b0:	00c5a623          	sw	a2,12(a1)
   114b4:	00f12623          	sw	a5,12(sp)
   114b8:	00b62423          	sw	a1,8(a2)
   114bc:	0016e693          	ori	a3,a3,1
   114c0:	00040513          	addi	a0,s0,0
   114c4:	00d72223          	sw	a3,4(a4)
   114c8:	001000ef          	jal	ra,11cc8 <__malloc_unlock>
   114cc:	00c12783          	lw	a5,12(sp)
   114d0:	03c12083          	lw	ra,60(sp)
   114d4:	03812403          	lw	s0,56(sp)
   114d8:	00878513          	addi	a0,a5,8
   114dc:	04010113          	addi	sp,sp,64
   114e0:	00008067          	jalr	zero,0(ra)
   114e4:	00c00793          	addi	a5,zero,12
   114e8:	00f42023          	sw	a5,0(s0)
   114ec:	00000513          	addi	a0,zero,0
   114f0:	03c12083          	lw	ra,60(sp)
   114f4:	03812403          	lw	s0,56(sp)
   114f8:	04010113          	addi	sp,sp,64
   114fc:	00008067          	jalr	zero,0(ra)
   11500:	ff87f693          	andi	a3,a5,-8
   11504:	fe07c0e3          	blt	a5,zero,114e4 <_malloc_r+0x98>
   11508:	fcb6eee3          	bltu	a3,a1,114e4 <_malloc_r+0x98>
   1150c:	00d12623          	sw	a3,12(sp)
   11510:	7b4000ef          	jal	ra,11cc4 <__malloc_lock>
   11514:	00c12683          	lw	a3,12(sp)
   11518:	1f700793          	addi	a5,zero,503
   1151c:	4cd7f663          	bgeu	a5,a3,119e8 <_malloc_r+0x59c>
   11520:	0096d793          	srli	a5,a3,0x9
   11524:	16078e63          	beq	a5,zero,116a0 <_malloc_r+0x254>
   11528:	00400713          	addi	a4,zero,4
   1152c:	42f76863          	bltu	a4,a5,1195c <_malloc_r+0x510>
   11530:	0066d793          	srli	a5,a3,0x6
   11534:	03978893          	addi	a7,a5,57
   11538:	03878e13          	addi	t3,a5,56
   1153c:	00389513          	slli	a0,a7,0x3
   11540:	000b4837          	lui	a6,0xb4
   11544:	14080813          	addi	a6,a6,320 # b4140 <__malloc_av_>
   11548:	00a80533          	add	a0,a6,a0
   1154c:	00452783          	lw	a5,4(a0)
   11550:	ff850513          	addi	a0,a0,-8
   11554:	02f50863          	beq	a0,a5,11584 <_malloc_r+0x138>
   11558:	00f00313          	addi	t1,zero,15
   1155c:	0140006f          	jal	zero,11570 <_malloc_r+0x124>
   11560:	00c7a583          	lw	a1,12(a5)
   11564:	34065463          	bge	a2,zero,118ac <_malloc_r+0x460>
   11568:	00b50e63          	beq	a0,a1,11584 <_malloc_r+0x138>
   1156c:	00058793          	addi	a5,a1,0
   11570:	0047a703          	lw	a4,4(a5)
   11574:	ffc77713          	andi	a4,a4,-4
   11578:	40d70633          	sub	a2,a4,a3
   1157c:	fec352e3          	bge	t1,a2,11560 <_malloc_r+0x114>
   11580:	000e0893          	addi	a7,t3,0
   11584:	01082783          	lw	a5,16(a6)
   11588:	000b4e37          	lui	t3,0xb4
   1158c:	148e0e13          	addi	t3,t3,328 # b4148 <__malloc_av_+0x8>
   11590:	2dc78c63          	beq	a5,t3,11868 <_malloc_r+0x41c>
   11594:	0047a703          	lw	a4,4(a5)
   11598:	00f00593          	addi	a1,zero,15
   1159c:	ffc77713          	andi	a4,a4,-4
   115a0:	40d70633          	sub	a2,a4,a3
   115a4:	46c5cc63          	blt	a1,a2,11a1c <_malloc_r+0x5d0>
   115a8:	01c82a23          	sw	t3,20(a6)
   115ac:	01c82823          	sw	t3,16(a6)
   115b0:	44065263          	bge	a2,zero,119f4 <_malloc_r+0x5a8>
   115b4:	1ff00613          	addi	a2,zero,511
   115b8:	00482303          	lw	t1,4(a6)
   115bc:	34e66063          	bltu	a2,a4,118fc <_malloc_r+0x4b0>
   115c0:	ff877613          	andi	a2,a4,-8
   115c4:	00860613          	addi	a2,a2,8
   115c8:	00c80633          	add	a2,a6,a2
   115cc:	00062583          	lw	a1,0(a2)
   115d0:	00575513          	srli	a0,a4,0x5
   115d4:	00100713          	addi	a4,zero,1
   115d8:	00a71733          	sll	a4,a4,a0
   115dc:	00e36333          	or	t1,t1,a4
   115e0:	ff860713          	addi	a4,a2,-8
   115e4:	00b7a423          	sw	a1,8(a5)
   115e8:	00e7a623          	sw	a4,12(a5)
   115ec:	00682223          	sw	t1,4(a6)
   115f0:	00f62023          	sw	a5,0(a2)
   115f4:	00f5a623          	sw	a5,12(a1)
   115f8:	4028d793          	srai	a5,a7,0x2
   115fc:	00100513          	addi	a0,zero,1
   11600:	00f51533          	sll	a0,a0,a5
   11604:	0aa36663          	bltu	t1,a0,116b0 <_malloc_r+0x264>
   11608:	006577b3          	and	a5,a0,t1
   1160c:	02079463          	bne	a5,zero,11634 <_malloc_r+0x1e8>
   11610:	00151513          	slli	a0,a0,0x1
   11614:	ffc8f893          	andi	a7,a7,-4
   11618:	006577b3          	and	a5,a0,t1
   1161c:	00488893          	addi	a7,a7,4
   11620:	00079a63          	bne	a5,zero,11634 <_malloc_r+0x1e8>
   11624:	00151513          	slli	a0,a0,0x1
   11628:	006577b3          	and	a5,a0,t1
   1162c:	00488893          	addi	a7,a7,4
   11630:	fe078ae3          	beq	a5,zero,11624 <_malloc_r+0x1d8>
   11634:	00f00e93          	addi	t4,zero,15
   11638:	00389f13          	slli	t5,a7,0x3
   1163c:	01e80f33          	add	t5,a6,t5
   11640:	000f0313          	addi	t1,t5,0
   11644:	00c32703          	lw	a4,12(t1)
   11648:	00088f93          	addi	t6,a7,0
   1164c:	32e30a63          	beq	t1,a4,11980 <_malloc_r+0x534>
   11650:	00472603          	lw	a2,4(a4)
   11654:	00070793          	addi	a5,a4,0
   11658:	00c72703          	lw	a4,12(a4)
   1165c:	ffc67613          	andi	a2,a2,-4
   11660:	40d605b3          	sub	a1,a2,a3
   11664:	32beca63          	blt	t4,a1,11998 <_malloc_r+0x54c>
   11668:	fe05c2e3          	blt	a1,zero,1164c <_malloc_r+0x200>
   1166c:	00c78633          	add	a2,a5,a2
   11670:	00462683          	lw	a3,4(a2)
   11674:	0087a583          	lw	a1,8(a5)
   11678:	00040513          	addi	a0,s0,0
   1167c:	0016e693          	ori	a3,a3,1
   11680:	00d62223          	sw	a3,4(a2)
   11684:	00e5a623          	sw	a4,12(a1)
   11688:	00b72423          	sw	a1,8(a4)
   1168c:	00f12623          	sw	a5,12(sp)
   11690:	638000ef          	jal	ra,11cc8 <__malloc_unlock>
   11694:	00c12783          	lw	a5,12(sp)
   11698:	00878513          	addi	a0,a5,8
   1169c:	e55ff06f          	jal	zero,114f0 <_malloc_r+0xa4>
   116a0:	20000513          	addi	a0,zero,512
   116a4:	04000893          	addi	a7,zero,64
   116a8:	03f00e13          	addi	t3,zero,63
   116ac:	e95ff06f          	jal	zero,11540 <_malloc_r+0xf4>
   116b0:	00882783          	lw	a5,8(a6)
   116b4:	0047a703          	lw	a4,4(a5)
   116b8:	ffc77713          	andi	a4,a4,-4
   116bc:	40d70633          	sub	a2,a4,a3
   116c0:	00d76663          	bltu	a4,a3,116cc <_malloc_r+0x280>
   116c4:	01062593          	slti	a1,a2,16
   116c8:	1a058463          	beq	a1,zero,11870 <_malloc_r+0x424>
   116cc:	f2c1a583          	lw	a1,-212(gp) # b473c <__malloc_top_pad>
   116d0:	f101a503          	lw	a0,-240(gp) # b4720 <__malloc_sbrk_base>
   116d4:	fff00613          	addi	a2,zero,-1
   116d8:	00b685b3          	add	a1,a3,a1
   116dc:	42c50463          	beq	a0,a2,11b04 <_malloc_r+0x6b8>
   116e0:	00001637          	lui	a2,0x1
   116e4:	00f60613          	addi	a2,a2,15 # 100f <exit-0xf0a5>
   116e8:	00c585b3          	add	a1,a1,a2
   116ec:	fffff637          	lui	a2,0xfffff
   116f0:	00c5f5b3          	and	a1,a1,a2
   116f4:	00040513          	addi	a0,s0,0
   116f8:	01012e23          	sw	a6,28(sp)
   116fc:	00f12c23          	sw	a5,24(sp)
   11700:	00d12a23          	sw	a3,20(sp)
   11704:	00e12823          	sw	a4,16(sp)
   11708:	00b12623          	sw	a1,12(sp)
   1170c:	344040ef          	jal	ra,15a50 <_sbrk_r>
   11710:	fff00613          	addi	a2,zero,-1
   11714:	00c12583          	lw	a1,12(sp)
   11718:	01012703          	lw	a4,16(sp)
   1171c:	01412683          	lw	a3,20(sp)
   11720:	01812783          	lw	a5,24(sp)
   11724:	01c12803          	lw	a6,28(sp)
   11728:	00050893          	addi	a7,a0,0
   1172c:	34c50663          	beq	a0,a2,11a78 <_malloc_r+0x62c>
   11730:	00e78533          	add	a0,a5,a4
   11734:	34a8e063          	bltu	a7,a0,11a74 <_malloc_r+0x628>
   11738:	08c18e13          	addi	t3,gp,140 # b489c <__malloc_current_mallinfo>
   1173c:	000e2603          	lw	a2,0(t3)
   11740:	00c58633          	add	a2,a1,a2
   11744:	00ce2023          	sw	a2,0(t3)
   11748:	00060e93          	addi	t4,a2,0 # fffff000 <__BSS_END__+0xfff4a5ac>
   1174c:	49150663          	beq	a0,a7,11bd8 <_malloc_r+0x78c>
   11750:	f101af03          	lw	t5,-240(gp) # b4720 <__malloc_sbrk_base>
   11754:	fff00613          	addi	a2,zero,-1
   11758:	48cf0e63          	beq	t5,a2,11bf4 <_malloc_r+0x7a8>
   1175c:	40a88633          	sub	a2,a7,a0
   11760:	01d60633          	add	a2,a2,t4
   11764:	00ce2023          	sw	a2,0(t3)
   11768:	0078fe93          	andi	t4,a7,7
   1176c:	3a0e8c63          	beq	t4,zero,11b24 <_malloc_r+0x6d8>
   11770:	ff88f893          	andi	a7,a7,-8
   11774:	00001637          	lui	a2,0x1
   11778:	00888893          	addi	a7,a7,8
   1177c:	00860613          	addi	a2,a2,8 # 1008 <exit-0xf0ac>
   11780:	00b88333          	add	t1,a7,a1
   11784:	41d60633          	sub	a2,a2,t4
   11788:	40660633          	sub	a2,a2,t1
   1178c:	01461613          	slli	a2,a2,0x14
   11790:	01465593          	srli	a1,a2,0x14
   11794:	00040513          	addi	a0,s0,0
   11798:	03012623          	sw	a6,44(sp)
   1179c:	03c12423          	sw	t3,40(sp)
   117a0:	02f12223          	sw	a5,36(sp)
   117a4:	02d12023          	sw	a3,32(sp)
   117a8:	00e12e23          	sw	a4,28(sp)
   117ac:	01112c23          	sw	a7,24(sp)
   117b0:	01d12a23          	sw	t4,20(sp)
   117b4:	00612823          	sw	t1,16(sp)
   117b8:	00b12623          	sw	a1,12(sp)
   117bc:	294040ef          	jal	ra,15a50 <_sbrk_r>
   117c0:	fff00613          	addi	a2,zero,-1
   117c4:	00c12583          	lw	a1,12(sp)
   117c8:	01012303          	lw	t1,16(sp)
   117cc:	01412e83          	lw	t4,20(sp)
   117d0:	01812883          	lw	a7,24(sp)
   117d4:	01c12703          	lw	a4,28(sp)
   117d8:	02012683          	lw	a3,32(sp)
   117dc:	02412783          	lw	a5,36(sp)
   117e0:	02812e03          	lw	t3,40(sp)
   117e4:	02c12803          	lw	a6,44(sp)
   117e8:	44c50c63          	beq	a0,a2,11c40 <_malloc_r+0x7f4>
   117ec:	000e2603          	lw	a2,0(t3)
   117f0:	41150533          	sub	a0,a0,a7
   117f4:	00b50533          	add	a0,a0,a1
   117f8:	00156513          	ori	a0,a0,1
   117fc:	01182423          	sw	a7,8(a6)
   11800:	00c58633          	add	a2,a1,a2
   11804:	00a8a223          	sw	a0,4(a7)
   11808:	00ce2023          	sw	a2,0(t3)
   1180c:	03078e63          	beq	a5,a6,11848 <_malloc_r+0x3fc>
   11810:	00f00513          	addi	a0,zero,15
   11814:	3ee57463          	bgeu	a0,a4,11bfc <_malloc_r+0x7b0>
   11818:	0047a583          	lw	a1,4(a5)
   1181c:	ff470713          	addi	a4,a4,-12
   11820:	ff877713          	andi	a4,a4,-8
   11824:	0015f593          	andi	a1,a1,1
   11828:	00e5e5b3          	or	a1,a1,a4
   1182c:	00b7a223          	sw	a1,4(a5)
   11830:	00500313          	addi	t1,zero,5
   11834:	00e785b3          	add	a1,a5,a4
   11838:	0065a223          	sw	t1,4(a1)
   1183c:	0065a423          	sw	t1,8(a1)
   11840:	40e56863          	bltu	a0,a4,11c50 <_malloc_r+0x804>
   11844:	0048a503          	lw	a0,4(a7)
   11848:	f281a703          	lw	a4,-216(gp) # b4738 <__malloc_max_sbrked_mem>
   1184c:	00c77463          	bgeu	a4,a2,11854 <_malloc_r+0x408>
   11850:	f2c1a423          	sw	a2,-216(gp) # b4738 <__malloc_max_sbrked_mem>
   11854:	f241a703          	lw	a4,-220(gp) # b4734 <__malloc_max_total_mem>
   11858:	00c77463          	bgeu	a4,a2,11860 <_malloc_r+0x414>
   1185c:	f2c1a223          	sw	a2,-220(gp) # b4734 <__malloc_max_total_mem>
   11860:	00088793          	addi	a5,a7,0
   11864:	21c0006f          	jal	zero,11a80 <_malloc_r+0x634>
   11868:	00482303          	lw	t1,4(a6)
   1186c:	d8dff06f          	jal	zero,115f8 <_malloc_r+0x1ac>
   11870:	0016e713          	ori	a4,a3,1
   11874:	00e7a223          	sw	a4,4(a5)
   11878:	00d786b3          	add	a3,a5,a3
   1187c:	00166613          	ori	a2,a2,1
   11880:	00d82423          	sw	a3,8(a6)
   11884:	00040513          	addi	a0,s0,0
   11888:	00c6a223          	sw	a2,4(a3)
   1188c:	00f12623          	sw	a5,12(sp)
   11890:	438000ef          	jal	ra,11cc8 <__malloc_unlock>
   11894:	00c12783          	lw	a5,12(sp)
   11898:	03c12083          	lw	ra,60(sp)
   1189c:	03812403          	lw	s0,56(sp)
   118a0:	00878513          	addi	a0,a5,8
   118a4:	04010113          	addi	sp,sp,64
   118a8:	00008067          	jalr	zero,0(ra)
   118ac:	0087a603          	lw	a2,8(a5)
   118b0:	00e78733          	add	a4,a5,a4
   118b4:	00472683          	lw	a3,4(a4)
   118b8:	00b62623          	sw	a1,12(a2)
   118bc:	00f12623          	sw	a5,12(sp)
   118c0:	0016e693          	ori	a3,a3,1
   118c4:	00c5a423          	sw	a2,8(a1)
   118c8:	00040513          	addi	a0,s0,0
   118cc:	00d72223          	sw	a3,4(a4)
   118d0:	3f8000ef          	jal	ra,11cc8 <__malloc_unlock>
   118d4:	00c12783          	lw	a5,12(sp)
   118d8:	03c12083          	lw	ra,60(sp)
   118dc:	03812403          	lw	s0,56(sp)
   118e0:	00878513          	addi	a0,a5,8
   118e4:	04010113          	addi	sp,sp,64
   118e8:	00008067          	jalr	zero,0(ra)
   118ec:	00c72783          	lw	a5,12(a4)
   118f0:	00288893          	addi	a7,a7,2
   118f4:	c8f708e3          	beq	a4,a5,11584 <_malloc_r+0x138>
   118f8:	ba1ff06f          	jal	zero,11498 <_malloc_r+0x4c>
   118fc:	00975613          	srli	a2,a4,0x9
   11900:	00400593          	addi	a1,zero,4
   11904:	14c5fe63          	bgeu	a1,a2,11a60 <_malloc_r+0x614>
   11908:	01400593          	addi	a1,zero,20
   1190c:	28c5e063          	bltu	a1,a2,11b8c <_malloc_r+0x740>
   11910:	05c60513          	addi	a0,a2,92
   11914:	00351513          	slli	a0,a0,0x3
   11918:	05b60593          	addi	a1,a2,91
   1191c:	00a80533          	add	a0,a6,a0
   11920:	00052603          	lw	a2,0(a0)
   11924:	ff850513          	addi	a0,a0,-8
   11928:	00c51863          	bne	a0,a2,11938 <_malloc_r+0x4ec>
   1192c:	1e00006f          	jal	zero,11b0c <_malloc_r+0x6c0>
   11930:	00862603          	lw	a2,8(a2)
   11934:	00c50863          	beq	a0,a2,11944 <_malloc_r+0x4f8>
   11938:	00462583          	lw	a1,4(a2)
   1193c:	ffc5f593          	andi	a1,a1,-4
   11940:	feb768e3          	bltu	a4,a1,11930 <_malloc_r+0x4e4>
   11944:	00c62503          	lw	a0,12(a2)
   11948:	00a7a623          	sw	a0,12(a5)
   1194c:	00c7a423          	sw	a2,8(a5)
   11950:	00f52423          	sw	a5,8(a0)
   11954:	00f62623          	sw	a5,12(a2)
   11958:	ca1ff06f          	jal	zero,115f8 <_malloc_r+0x1ac>
   1195c:	01400713          	addi	a4,zero,20
   11960:	14f77063          	bgeu	a4,a5,11aa0 <_malloc_r+0x654>
   11964:	05400713          	addi	a4,zero,84
   11968:	24f76063          	bltu	a4,a5,11ba8 <_malloc_r+0x75c>
   1196c:	00c6d793          	srli	a5,a3,0xc
   11970:	06f78893          	addi	a7,a5,111
   11974:	06e78e13          	addi	t3,a5,110
   11978:	00389513          	slli	a0,a7,0x3
   1197c:	bc5ff06f          	jal	zero,11540 <_malloc_r+0xf4>
   11980:	001f8f93          	addi	t6,t6,1
   11984:	003ff793          	andi	a5,t6,3
   11988:	00830313          	addi	t1,t1,8
   1198c:	12078863          	beq	a5,zero,11abc <_malloc_r+0x670>
   11990:	00c32703          	lw	a4,12(t1)
   11994:	cb9ff06f          	jal	zero,1164c <_malloc_r+0x200>
   11998:	0087a503          	lw	a0,8(a5)
   1199c:	0016e893          	ori	a7,a3,1
   119a0:	0117a223          	sw	a7,4(a5)
   119a4:	00e52623          	sw	a4,12(a0)
   119a8:	00a72423          	sw	a0,8(a4)
   119ac:	00d786b3          	add	a3,a5,a3
   119b0:	00d82a23          	sw	a3,20(a6)
   119b4:	00d82823          	sw	a3,16(a6)
   119b8:	0015e713          	ori	a4,a1,1
   119bc:	00c78633          	add	a2,a5,a2
   119c0:	01c6a623          	sw	t3,12(a3)
   119c4:	01c6a423          	sw	t3,8(a3)
   119c8:	00e6a223          	sw	a4,4(a3)
   119cc:	00040513          	addi	a0,s0,0
   119d0:	00b62023          	sw	a1,0(a2)
   119d4:	00f12623          	sw	a5,12(sp)
   119d8:	2f0000ef          	jal	ra,11cc8 <__malloc_unlock>
   119dc:	00c12783          	lw	a5,12(sp)
   119e0:	00878513          	addi	a0,a5,8
   119e4:	b0dff06f          	jal	zero,114f0 <_malloc_r+0xa4>
   119e8:	0036d893          	srli	a7,a3,0x3
   119ec:	00868713          	addi	a4,a3,8
   119f0:	a91ff06f          	jal	zero,11480 <_malloc_r+0x34>
   119f4:	00e78733          	add	a4,a5,a4
   119f8:	00472683          	lw	a3,4(a4)
   119fc:	00f12623          	sw	a5,12(sp)
   11a00:	00040513          	addi	a0,s0,0
   11a04:	0016e693          	ori	a3,a3,1
   11a08:	00d72223          	sw	a3,4(a4)
   11a0c:	2bc000ef          	jal	ra,11cc8 <__malloc_unlock>
   11a10:	00c12783          	lw	a5,12(sp)
   11a14:	00878513          	addi	a0,a5,8
   11a18:	ad9ff06f          	jal	zero,114f0 <_malloc_r+0xa4>
   11a1c:	0016e593          	ori	a1,a3,1
   11a20:	00b7a223          	sw	a1,4(a5)
   11a24:	00d786b3          	add	a3,a5,a3
   11a28:	00d82a23          	sw	a3,20(a6)
   11a2c:	00d82823          	sw	a3,16(a6)
   11a30:	00166593          	ori	a1,a2,1
   11a34:	00e78733          	add	a4,a5,a4
   11a38:	01c6a623          	sw	t3,12(a3)
   11a3c:	01c6a423          	sw	t3,8(a3)
   11a40:	00b6a223          	sw	a1,4(a3)
   11a44:	00040513          	addi	a0,s0,0
   11a48:	00c72023          	sw	a2,0(a4)
   11a4c:	00f12623          	sw	a5,12(sp)
   11a50:	278000ef          	jal	ra,11cc8 <__malloc_unlock>
   11a54:	00c12783          	lw	a5,12(sp)
   11a58:	00878513          	addi	a0,a5,8
   11a5c:	a95ff06f          	jal	zero,114f0 <_malloc_r+0xa4>
   11a60:	00675613          	srli	a2,a4,0x6
   11a64:	03960513          	addi	a0,a2,57
   11a68:	00351513          	slli	a0,a0,0x3
   11a6c:	03860593          	addi	a1,a2,56
   11a70:	eadff06f          	jal	zero,1191c <_malloc_r+0x4d0>
   11a74:	15078863          	beq	a5,a6,11bc4 <_malloc_r+0x778>
   11a78:	00882783          	lw	a5,8(a6)
   11a7c:	0047a503          	lw	a0,4(a5)
   11a80:	ffc57513          	andi	a0,a0,-4
   11a84:	40d50633          	sub	a2,a0,a3
   11a88:	00d56663          	bltu	a0,a3,11a94 <_malloc_r+0x648>
   11a8c:	01062713          	slti	a4,a2,16
   11a90:	de0700e3          	beq	a4,zero,11870 <_malloc_r+0x424>
   11a94:	00040513          	addi	a0,s0,0
   11a98:	230000ef          	jal	ra,11cc8 <__malloc_unlock>
   11a9c:	a51ff06f          	jal	zero,114ec <_malloc_r+0xa0>
   11aa0:	05c78893          	addi	a7,a5,92
   11aa4:	05b78e13          	addi	t3,a5,91
   11aa8:	00389513          	slli	a0,a7,0x3
   11aac:	a95ff06f          	jal	zero,11540 <_malloc_r+0xf4>
   11ab0:	008f2783          	lw	a5,8(t5)
   11ab4:	fff88893          	addi	a7,a7,-1
   11ab8:	21e79263          	bne	a5,t5,11cbc <_malloc_r+0x870>
   11abc:	0038f793          	andi	a5,a7,3
   11ac0:	ff8f0f13          	addi	t5,t5,-8
   11ac4:	fe0796e3          	bne	a5,zero,11ab0 <_malloc_r+0x664>
   11ac8:	00482703          	lw	a4,4(a6)
   11acc:	fff54793          	xori	a5,a0,-1
   11ad0:	00e7f7b3          	and	a5,a5,a4
   11ad4:	00f82223          	sw	a5,4(a6)
   11ad8:	00151513          	slli	a0,a0,0x1
   11adc:	fff50713          	addi	a4,a0,-1
   11ae0:	bcf778e3          	bgeu	a4,a5,116b0 <_malloc_r+0x264>
   11ae4:	00f57733          	and	a4,a0,a5
   11ae8:	00071a63          	bne	a4,zero,11afc <_malloc_r+0x6b0>
   11aec:	00151513          	slli	a0,a0,0x1
   11af0:	00f57733          	and	a4,a0,a5
   11af4:	004f8f93          	addi	t6,t6,4
   11af8:	fe070ae3          	beq	a4,zero,11aec <_malloc_r+0x6a0>
   11afc:	000f8893          	addi	a7,t6,0
   11b00:	b39ff06f          	jal	zero,11638 <_malloc_r+0x1ec>
   11b04:	01058593          	addi	a1,a1,16
   11b08:	bedff06f          	jal	zero,116f4 <_malloc_r+0x2a8>
   11b0c:	4025d593          	srai	a1,a1,0x2
   11b10:	00100713          	addi	a4,zero,1
   11b14:	00b71733          	sll	a4,a4,a1
   11b18:	00e36333          	or	t1,t1,a4
   11b1c:	00682223          	sw	t1,4(a6)
   11b20:	e29ff06f          	jal	zero,11948 <_malloc_r+0x4fc>
   11b24:	00b88333          	add	t1,a7,a1
   11b28:	40600633          	sub	a2,zero,t1
   11b2c:	01461613          	slli	a2,a2,0x14
   11b30:	01465593          	srli	a1,a2,0x14
   11b34:	00040513          	addi	a0,s0,0
   11b38:	03012423          	sw	a6,40(sp)
   11b3c:	03c12223          	sw	t3,36(sp)
   11b40:	02f12023          	sw	a5,32(sp)
   11b44:	00d12e23          	sw	a3,28(sp)
   11b48:	00e12c23          	sw	a4,24(sp)
   11b4c:	01112a23          	sw	a7,20(sp)
   11b50:	00b12623          	sw	a1,12(sp)
   11b54:	00612823          	sw	t1,16(sp)
   11b58:	6f9030ef          	jal	ra,15a50 <_sbrk_r>
   11b5c:	fff00613          	addi	a2,zero,-1
   11b60:	00c12583          	lw	a1,12(sp)
   11b64:	01412883          	lw	a7,20(sp)
   11b68:	01812703          	lw	a4,24(sp)
   11b6c:	01c12683          	lw	a3,28(sp)
   11b70:	02012783          	lw	a5,32(sp)
   11b74:	02412e03          	lw	t3,36(sp)
   11b78:	02812803          	lw	a6,40(sp)
   11b7c:	c6c518e3          	bne	a0,a2,117ec <_malloc_r+0x3a0>
   11b80:	01012503          	lw	a0,16(sp)
   11b84:	00000593          	addi	a1,zero,0
   11b88:	c65ff06f          	jal	zero,117ec <_malloc_r+0x3a0>
   11b8c:	05400593          	addi	a1,zero,84
   11b90:	06c5ec63          	bltu	a1,a2,11c08 <_malloc_r+0x7bc>
   11b94:	00c75613          	srli	a2,a4,0xc
   11b98:	06f60513          	addi	a0,a2,111
   11b9c:	00351513          	slli	a0,a0,0x3
   11ba0:	06e60593          	addi	a1,a2,110
   11ba4:	d79ff06f          	jal	zero,1191c <_malloc_r+0x4d0>
   11ba8:	15400713          	addi	a4,zero,340
   11bac:	06f76c63          	bltu	a4,a5,11c24 <_malloc_r+0x7d8>
   11bb0:	00f6d793          	srli	a5,a3,0xf
   11bb4:	07878893          	addi	a7,a5,120
   11bb8:	07778e13          	addi	t3,a5,119
   11bbc:	00389513          	slli	a0,a7,0x3
   11bc0:	981ff06f          	jal	zero,11540 <_malloc_r+0xf4>
   11bc4:	08c18e13          	addi	t3,gp,140 # b489c <__malloc_current_mallinfo>
   11bc8:	000e2e83          	lw	t4,0(t3)
   11bcc:	01d58eb3          	add	t4,a1,t4
   11bd0:	01de2023          	sw	t4,0(t3)
   11bd4:	b7dff06f          	jal	zero,11750 <_malloc_r+0x304>
   11bd8:	01489f13          	slli	t5,a7,0x14
   11bdc:	b60f1ae3          	bne	t5,zero,11750 <_malloc_r+0x304>
   11be0:	00882883          	lw	a7,8(a6)
   11be4:	00b705b3          	add	a1,a4,a1
   11be8:	0015e513          	ori	a0,a1,1
   11bec:	00a8a223          	sw	a0,4(a7)
   11bf0:	c59ff06f          	jal	zero,11848 <_malloc_r+0x3fc>
   11bf4:	f111a823          	sw	a7,-240(gp) # b4720 <__malloc_sbrk_base>
   11bf8:	b71ff06f          	jal	zero,11768 <_malloc_r+0x31c>
   11bfc:	00100793          	addi	a5,zero,1
   11c00:	00f8a223          	sw	a5,4(a7)
   11c04:	e91ff06f          	jal	zero,11a94 <_malloc_r+0x648>
   11c08:	15400593          	addi	a1,zero,340
   11c0c:	06c5ec63          	bltu	a1,a2,11c84 <_malloc_r+0x838>
   11c10:	00f75613          	srli	a2,a4,0xf
   11c14:	07860513          	addi	a0,a2,120
   11c18:	00351513          	slli	a0,a0,0x3
   11c1c:	07760593          	addi	a1,a2,119
   11c20:	cfdff06f          	jal	zero,1191c <_malloc_r+0x4d0>
   11c24:	55400713          	addi	a4,zero,1364
   11c28:	06f76c63          	bltu	a4,a5,11ca0 <_malloc_r+0x854>
   11c2c:	0126d793          	srli	a5,a3,0x12
   11c30:	07d78893          	addi	a7,a5,125
   11c34:	07c78e13          	addi	t3,a5,124
   11c38:	00389513          	slli	a0,a7,0x3
   11c3c:	905ff06f          	jal	zero,11540 <_malloc_r+0xf4>
   11c40:	ff8e8e93          	addi	t4,t4,-8
   11c44:	01d30533          	add	a0,t1,t4
   11c48:	00000593          	addi	a1,zero,0
   11c4c:	ba1ff06f          	jal	zero,117ec <_malloc_r+0x3a0>
   11c50:	00040513          	addi	a0,s0,0
   11c54:	00878593          	addi	a1,a5,8
   11c58:	01012a23          	sw	a6,20(sp)
   11c5c:	01c12823          	sw	t3,16(sp)
   11c60:	00d12623          	sw	a3,12(sp)
   11c64:	d00ff0ef          	jal	ra,11164 <_free_r>
   11c68:	01412803          	lw	a6,20(sp)
   11c6c:	01012e03          	lw	t3,16(sp)
   11c70:	00c12683          	lw	a3,12(sp)
   11c74:	00882883          	lw	a7,8(a6)
   11c78:	000e2603          	lw	a2,0(t3)
   11c7c:	0048a503          	lw	a0,4(a7)
   11c80:	bc9ff06f          	jal	zero,11848 <_malloc_r+0x3fc>
   11c84:	55400593          	addi	a1,zero,1364
   11c88:	02c5e463          	bltu	a1,a2,11cb0 <_malloc_r+0x864>
   11c8c:	01275613          	srli	a2,a4,0x12
   11c90:	07d60513          	addi	a0,a2,125
   11c94:	00351513          	slli	a0,a0,0x3
   11c98:	07c60593          	addi	a1,a2,124
   11c9c:	c81ff06f          	jal	zero,1191c <_malloc_r+0x4d0>
   11ca0:	3f800513          	addi	a0,zero,1016
   11ca4:	07f00893          	addi	a7,zero,127
   11ca8:	07e00e13          	addi	t3,zero,126
   11cac:	895ff06f          	jal	zero,11540 <_malloc_r+0xf4>
   11cb0:	3f800513          	addi	a0,zero,1016
   11cb4:	07e00593          	addi	a1,zero,126
   11cb8:	c65ff06f          	jal	zero,1191c <_malloc_r+0x4d0>
   11cbc:	00482783          	lw	a5,4(a6)
   11cc0:	e19ff06f          	jal	zero,11ad8 <_malloc_r+0x68c>

00011cc4 <__malloc_lock>:
   11cc4:	00008067          	jalr	zero,0(ra)

00011cc8 <__malloc_unlock>:
   11cc8:	00008067          	jalr	zero,0(ra)

00011ccc <_vfprintf_r>:
   11ccc:	e4010113          	addi	sp,sp,-448
   11cd0:	1a112e23          	sw	ra,444(sp)
   11cd4:	1a912a23          	sw	s1,436(sp)
   11cd8:	1b212823          	sw	s2,432(sp)
   11cdc:	19a12823          	sw	s10,400(sp)
   11ce0:	00d12623          	sw	a3,12(sp)
   11ce4:	00060d13          	addi	s10,a2,0
   11ce8:	00058493          	addi	s1,a1,0
   11cec:	00050913          	addi	s2,a0,0
   11cf0:	551030ef          	jal	ra,15a40 <_localeconv_r>
   11cf4:	00052783          	lw	a5,0(a0)
   11cf8:	00078513          	addi	a0,a5,0
   11cfc:	02f12423          	sw	a5,40(sp)
   11d00:	058040ef          	jal	ra,15d58 <strlen>
   11d04:	02a12223          	sw	a0,36(sp)
   11d08:	0c012023          	sw	zero,192(sp)
   11d0c:	00090863          	beq	s2,zero,11d1c <_vfprintf_r+0x50>
   11d10:	03492783          	lw	a5,52(s2)
   11d14:	00079463          	bne	a5,zero,11d1c <_vfprintf_r+0x50>
   11d18:	5c90106f          	jal	zero,13ae0 <_vfprintf_r+0x1e14>
   11d1c:	00c49783          	lh	a5,12(s1)
   11d20:	0644a703          	lw	a4,100(s1)
   11d24:	00002637          	lui	a2,0x2
   11d28:	01279693          	slli	a3,a5,0x12
   11d2c:	3606c463          	blt	a3,zero,12094 <_vfprintf_r+0x3c8>
   11d30:	ffffe6b7          	lui	a3,0xffffe
   11d34:	00c7e7b3          	or	a5,a5,a2
   11d38:	fff68693          	addi	a3,a3,-1 # ffffdfff <__BSS_END__+0xfff495ab>
   11d3c:	00d77733          	and	a4,a4,a3
   11d40:	00f49623          	sh	a5,12(s1)
   11d44:	01079793          	slli	a5,a5,0x10
   11d48:	4107d793          	srai	a5,a5,0x10
   11d4c:	06e4a223          	sw	a4,100(s1)
   11d50:	0087f713          	andi	a4,a5,8
   11d54:	2c070463          	beq	a4,zero,1201c <_vfprintf_r+0x350>
   11d58:	0104a703          	lw	a4,16(s1)
   11d5c:	2c070063          	beq	a4,zero,1201c <_vfprintf_r+0x350>
   11d60:	01a7f793          	andi	a5,a5,26
   11d64:	00a00713          	addi	a4,zero,10
   11d68:	2ce78a63          	beq	a5,a4,1203c <_vfprintf_r+0x370>
   11d6c:	000b37b7          	lui	a5,0xb3
   11d70:	1b312623          	sw	s3,428(sp)
   11d74:	1b412423          	sw	s4,424(sp)
   11d78:	0dc10993          	addi	s3,sp,220
   11d7c:	000b3a37          	lui	s4,0xb3
   11d80:	4d478793          	addi	a5,a5,1236 # b34d4 <input_data+0x927c0>
   11d84:	1a812c23          	sw	s0,440(sp)
   11d88:	1b612023          	sw	s6,416(sp)
   11d8c:	1b512223          	sw	s5,420(sp)
   11d90:	19712e23          	sw	s7,412(sp)
   11d94:	19812c23          	sw	s8,408(sp)
   11d98:	19912a23          	sw	s9,404(sp)
   11d9c:	19b12623          	sw	s11,396(sp)
   11da0:	0a012e23          	sw	zero,188(sp)
   11da4:	0a012c23          	sw	zero,184(sp)
   11da8:	0b312a23          	sw	s3,180(sp)
   11dac:	00098b13          	addi	s6,s3,0
   11db0:	00f12a23          	sw	a5,20(sp)
   11db4:	640a0a13          	addi	s4,s4,1600 # b3640 <zeroes.0>
   11db8:	00012c23          	sw	zero,24(sp)
   11dbc:	02012623          	sw	zero,44(sp)
   11dc0:	02012823          	sw	zero,48(sp)
   11dc4:	04012223          	sw	zero,68(sp)
   11dc8:	02012a23          	sw	zero,52(sp)
   11dcc:	00012423          	sw	zero,8(sp)
   11dd0:	01000413          	addi	s0,zero,16
   11dd4:	00912223          	sw	s1,4(sp)
   11dd8:	000d4783          	lbu	a5,0(s10)
   11ddc:	000d0a93          	addi	s5,s10,0
   11de0:	fdb78713          	addi	a4,a5,-37
   11de4:	06070263          	beq	a4,zero,11e48 <_vfprintf_r+0x17c>
   11de8:	06078063          	beq	a5,zero,11e48 <_vfprintf_r+0x17c>
   11dec:	000a8c13          	addi	s8,s5,0
   11df0:	001ac783          	lbu	a5,1(s5)
   11df4:	001a8a93          	addi	s5,s5,1
   11df8:	00078663          	beq	a5,zero,11e04 <_vfprintf_r+0x138>
   11dfc:	fdb78713          	addi	a4,a5,-37
   11e00:	fe0716e3          	bne	a4,zero,11dec <_vfprintf_r+0x120>
   11e04:	41aa8cb3          	sub	s9,s5,s10
   11e08:	05aa8063          	beq	s5,s10,11e48 <_vfprintf_r+0x17c>
   11e0c:	0bc12783          	lw	a5,188(sp)
   11e10:	0b812503          	lw	a0,184(sp)
   11e14:	01ab2023          	sw	s10,0(s6)
   11e18:	019787b3          	add	a5,a5,s9
   11e1c:	00150513          	addi	a0,a0,1
   11e20:	019b2223          	sw	s9,4(s6)
   11e24:	0af12e23          	sw	a5,188(sp)
   11e28:	0aa12c23          	sw	a0,184(sp)
   11e2c:	00700793          	addi	a5,zero,7
   11e30:	008b0b13          	addi	s6,s6,8
   11e34:	24a7c063          	blt	a5,a0,12074 <_vfprintf_r+0x3a8>
   11e38:	00812783          	lw	a5,8(sp)
   11e3c:	019787b3          	add	a5,a5,s9
   11e40:	00f12423          	sw	a5,8(sp)
   11e44:	001c4783          	lbu	a5,1(s8)
   11e48:	00079463          	bne	a5,zero,11e50 <_vfprintf_r+0x184>
   11e4c:	5cd0106f          	jal	zero,13c18 <_vfprintf_r+0x1f4c>
   11e50:	001ac883          	lbu	a7,1(s5)
   11e54:	001a8d13          	addi	s10,s5,1
   11e58:	080109a3          	sb	zero,147(sp)
   11e5c:	fff00a93          	addi	s5,zero,-1
   11e60:	00012023          	sw	zero,0(sp)
   11e64:	00000b93          	addi	s7,zero,0
   11e68:	05a00c13          	addi	s8,zero,90
   11e6c:	001d0d13          	addi	s10,s10,1
   11e70:	fe088793          	addi	a5,a7,-32
   11e74:	04fc6c63          	bltu	s8,a5,11ecc <_vfprintf_r+0x200>
   11e78:	01412703          	lw	a4,20(sp)
   11e7c:	00279793          	slli	a5,a5,0x2
   11e80:	00e787b3          	add	a5,a5,a4
   11e84:	0007a783          	lw	a5,0(a5)
   11e88:	00078067          	jalr	zero,0(a5)
   11e8c:	fd088793          	addi	a5,a7,-48
   11e90:	00012023          	sw	zero,0(sp)
   11e94:	00900693          	addi	a3,zero,9
   11e98:	00012703          	lw	a4,0(sp)
   11e9c:	00012603          	lw	a2,0(sp)
   11ea0:	000d4883          	lbu	a7,0(s10)
   11ea4:	00271713          	slli	a4,a4,0x2
   11ea8:	00c70733          	add	a4,a4,a2
   11eac:	00171713          	slli	a4,a4,0x1
   11eb0:	00e787b3          	add	a5,a5,a4
   11eb4:	00f12023          	sw	a5,0(sp)
   11eb8:	fd088793          	addi	a5,a7,-48
   11ebc:	001d0d13          	addi	s10,s10,1
   11ec0:	fcf6fce3          	bgeu	a3,a5,11e98 <_vfprintf_r+0x1cc>
   11ec4:	fe088793          	addi	a5,a7,-32
   11ec8:	fafc78e3          	bgeu	s8,a5,11e78 <_vfprintf_r+0x1ac>
   11ecc:	00089463          	bne	a7,zero,11ed4 <_vfprintf_r+0x208>
   11ed0:	5490106f          	jal	zero,13c18 <_vfprintf_r+0x1f4c>
   11ed4:	00100c93          	addi	s9,zero,1
   11ed8:	11110e23          	sb	a7,284(sp)
   11edc:	080109a3          	sb	zero,147(sp)
   11ee0:	000c8c13          	addi	s8,s9,0
   11ee4:	00012823          	sw	zero,16(sp)
   11ee8:	00000a93          	addi	s5,zero,0
   11eec:	02012023          	sw	zero,32(sp)
   11ef0:	00012e23          	sw	zero,28(sp)
   11ef4:	00000313          	addi	t1,zero,0
   11ef8:	11c10793          	addi	a5,sp,284
   11efc:	0bc12603          	lw	a2,188(sp)
   11f00:	084bfd93          	andi	s11,s7,132
   11f04:	00060813          	addi	a6,a2,0 # 2000 <exit-0xe0b4>
   11f08:	7e0d8663          	beq	s11,zero,126f4 <_vfprintf_r+0xa28>
   11f0c:	09314703          	lbu	a4,147(sp)
   11f10:	06070863          	beq	a4,zero,11f80 <_vfprintf_r+0x2b4>
   11f14:	0b812583          	lw	a1,184(sp)
   11f18:	00000713          	addi	a4,zero,0
   11f1c:	09310513          	addi	a0,sp,147
   11f20:	00ab2023          	sw	a0,0(s6)
   11f24:	00160613          	addi	a2,a2,1
   11f28:	00100513          	addi	a0,zero,1
   11f2c:	00158593          	addi	a1,a1,1
   11f30:	00ab2223          	sw	a0,4(s6)
   11f34:	0ac12e23          	sw	a2,188(sp)
   11f38:	0ab12c23          	sw	a1,184(sp)
   11f3c:	00700513          	addi	a0,zero,7
   11f40:	008b0b13          	addi	s6,s6,8
   11f44:	58b54e63          	blt	a0,a1,124e0 <_vfprintf_r+0x814>
   11f48:	02070c63          	beq	a4,zero,11f80 <_vfprintf_r+0x2b4>
   11f4c:	0b812583          	lw	a1,184(sp)
   11f50:	09410713          	addi	a4,sp,148
   11f54:	00eb2023          	sw	a4,0(s6)
   11f58:	00260613          	addi	a2,a2,2
   11f5c:	00200713          	addi	a4,zero,2
   11f60:	00158593          	addi	a1,a1,1
   11f64:	00eb2223          	sw	a4,4(s6)
   11f68:	0ac12e23          	sw	a2,188(sp)
   11f6c:	0ab12c23          	sw	a1,184(sp)
   11f70:	00700713          	addi	a4,zero,7
   11f74:	008b0b13          	addi	s6,s6,8
   11f78:	00b75463          	bge	a4,a1,11f80 <_vfprintf_r+0x2b4>
   11f7c:	1b40106f          	jal	zero,13130 <_vfprintf_r+0x1464>
   11f80:	08000713          	addi	a4,zero,128
   11f84:	00ed9463          	bne	s11,a4,11f8c <_vfprintf_r+0x2c0>
   11f88:	7d10006f          	jal	zero,12f58 <_vfprintf_r+0x128c>
   11f8c:	419a8ab3          	sub	s5,s5,s9
   11f90:	79504063          	blt	zero,s5,12710 <_vfprintf_r+0xa44>
   11f94:	100bf713          	andi	a4,s7,256
   11f98:	060718e3          	bne	a4,zero,12808 <_vfprintf_r+0xb3c>
   11f9c:	00fb2023          	sw	a5,0(s6)
   11fa0:	0b812783          	lw	a5,184(sp)
   11fa4:	01960633          	add	a2,a2,s9
   11fa8:	0ac12e23          	sw	a2,188(sp)
   11fac:	00178793          	addi	a5,a5,1
   11fb0:	019b2223          	sw	s9,4(s6)
   11fb4:	00700713          	addi	a4,zero,7
   11fb8:	0af12c23          	sw	a5,184(sp)
   11fbc:	68f74263          	blt	a4,a5,12640 <_vfprintf_r+0x974>
   11fc0:	008b0b13          	addi	s6,s6,8
   11fc4:	004bfe13          	andi	t3,s7,4
   11fc8:	000e0a63          	beq	t3,zero,11fdc <_vfprintf_r+0x310>
   11fcc:	00012783          	lw	a5,0(sp)
   11fd0:	41878ab3          	sub	s5,a5,s8
   11fd4:	01505463          	bge	zero,s5,11fdc <_vfprintf_r+0x310>
   11fd8:	1900106f          	jal	zero,13168 <_vfprintf_r+0x149c>
   11fdc:	00012303          	lw	t1,0(sp)
   11fe0:	01835463          	bge	t1,s8,11fe8 <_vfprintf_r+0x31c>
   11fe4:	000c0313          	addi	t1,s8,0
   11fe8:	00812783          	lw	a5,8(sp)
   11fec:	006787b3          	add	a5,a5,t1
   11ff0:	00f12423          	sw	a5,8(sp)
   11ff4:	00060463          	beq	a2,zero,11ffc <_vfprintf_r+0x330>
   11ff8:	0940106f          	jal	zero,1308c <_vfprintf_r+0x13c0>
   11ffc:	01012783          	lw	a5,16(sp)
   12000:	0a012c23          	sw	zero,184(sp)
   12004:	00078863          	beq	a5,zero,12014 <_vfprintf_r+0x348>
   12008:	01012583          	lw	a1,16(sp)
   1200c:	00090513          	addi	a0,s2,0
   12010:	954ff0ef          	jal	ra,11164 <_free_r>
   12014:	00098b13          	addi	s6,s3,0
   12018:	dc1ff06f          	jal	zero,11dd8 <_vfprintf_r+0x10c>
   1201c:	00048593          	addi	a1,s1,0
   12020:	00090513          	addi	a0,s2,0
   12024:	764030ef          	jal	ra,15788 <__swsetup_r>
   12028:	06051a63          	bne	a0,zero,1209c <_vfprintf_r+0x3d0>
   1202c:	00c49783          	lh	a5,12(s1)
   12030:	00a00713          	addi	a4,zero,10
   12034:	01a7f793          	andi	a5,a5,26
   12038:	d2e79ae3          	bne	a5,a4,11d6c <_vfprintf_r+0xa0>
   1203c:	00e49783          	lh	a5,14(s1)
   12040:	d207c6e3          	blt	a5,zero,11d6c <_vfprintf_r+0xa0>
   12044:	00c12683          	lw	a3,12(sp)
   12048:	000d0613          	addi	a2,s10,0
   1204c:	00048593          	addi	a1,s1,0
   12050:	00090513          	addi	a0,s2,0
   12054:	515020ef          	jal	ra,14d68 <__sbprintf>
   12058:	00a12423          	sw	a0,8(sp)
   1205c:	0900106f          	jal	zero,130ec <_vfprintf_r+0x1420>
   12060:	000d4883          	lbu	a7,0(s10)
   12064:	e09ff06f          	jal	zero,11e6c <_vfprintf_r+0x1a0>
   12068:	000d4883          	lbu	a7,0(s10)
   1206c:	020beb93          	ori	s7,s7,32
   12070:	dfdff06f          	jal	zero,11e6c <_vfprintf_r+0x1a0>
   12074:	00412583          	lw	a1,4(sp)
   12078:	0b410613          	addi	a2,sp,180
   1207c:	00090513          	addi	a0,s2,0
   12080:	5a9020ef          	jal	ra,14e28 <__sprint_r>
   12084:	00050463          	beq	a0,zero,1208c <_vfprintf_r+0x3c0>
   12088:	1b50206f          	jal	zero,14a3c <_vfprintf_r+0x2d70>
   1208c:	00098b13          	addi	s6,s3,0
   12090:	da9ff06f          	jal	zero,11e38 <_vfprintf_r+0x16c>
   12094:	01271693          	slli	a3,a4,0x12
   12098:	ca06dce3          	bge	a3,zero,11d50 <_vfprintf_r+0x84>
   1209c:	fff00793          	addi	a5,zero,-1
   120a0:	00f12423          	sw	a5,8(sp)
   120a4:	0480106f          	jal	zero,130ec <_vfprintf_r+0x1420>
   120a8:	008bf793          	andi	a5,s7,8
   120ac:	00078463          	beq	a5,zero,120b4 <_vfprintf_r+0x3e8>
   120b0:	5bc0106f          	jal	zero,1366c <_vfprintf_r+0x19a0>
   120b4:	00c12783          	lw	a5,12(sp)
   120b8:	08010513          	addi	a0,sp,128
   120bc:	01112823          	sw	a7,16(sp)
   120c0:	00778793          	addi	a5,a5,7
   120c4:	ff87f793          	andi	a5,a5,-8
   120c8:	0047a603          	lw	a2,4(a5)
   120cc:	0007a583          	lw	a1,0(a5)
   120d0:	00878793          	addi	a5,a5,8
   120d4:	00f12623          	sw	a5,12(sp)
   120d8:	06d0e0ef          	jal	ra,20944 <__extenddftf2>
   120dc:	08012603          	lw	a2,128(sp)
   120e0:	08412683          	lw	a3,132(sp)
   120e4:	08812703          	lw	a4,136(sp)
   120e8:	08c12783          	lw	a5,140(sp)
   120ec:	01012883          	lw	a7,16(sp)
   120f0:	0c010513          	addi	a0,sp,192
   120f4:	01112823          	sw	a7,16(sp)
   120f8:	0cf12623          	sw	a5,204(sp)
   120fc:	0cc12023          	sw	a2,192(sp)
   12100:	0cd12223          	sw	a3,196(sp)
   12104:	0ce12423          	sw	a4,200(sp)
   12108:	17c040ef          	jal	ra,16284 <_ldcheck>
   1210c:	08a12c23          	sw	a0,152(sp)
   12110:	00200793          	addi	a5,zero,2
   12114:	01012883          	lw	a7,16(sp)
   12118:	00f51463          	bne	a0,a5,12120 <_vfprintf_r+0x454>
   1211c:	25d0106f          	jal	zero,13b78 <_vfprintf_r+0x1eac>
   12120:	00100793          	addi	a5,zero,1
   12124:	00f51463          	bne	a0,a5,1212c <_vfprintf_r+0x460>
   12128:	4110106f          	jal	zero,13d38 <_vfprintf_r+0x206c>
   1212c:	fdf8fc13          	andi	s8,a7,-33
   12130:	04100793          	addi	a5,zero,65
   12134:	00fc0463          	beq	s8,a5,1213c <_vfprintf_r+0x470>
   12138:	3c90106f          	jal	zero,13d00 <_vfprintf_r+0x2034>
   1213c:	03000793          	addi	a5,zero,48
   12140:	08f10a23          	sb	a5,148(sp)
   12144:	06100713          	addi	a4,zero,97
   12148:	05800793          	addi	a5,zero,88
   1214c:	00e89463          	bne	a7,a4,12154 <_vfprintf_r+0x488>
   12150:	12c0206f          	jal	zero,1427c <_vfprintf_r+0x25b0>
   12154:	08f10aa3          	sb	a5,149(sp)
   12158:	06300793          	addi	a5,zero,99
   1215c:	0157d463          	bge	a5,s5,12164 <_vfprintf_r+0x498>
   12160:	2440206f          	jal	zero,143a4 <_vfprintf_r+0x26d8>
   12164:	0cc12703          	lw	a4,204(sp)
   12168:	0c012683          	lw	a3,192(sp)
   1216c:	0c412603          	lw	a2,196(sp)
   12170:	0c812583          	lw	a1,200(sp)
   12174:	00075463          	bge	a4,zero,1217c <_vfprintf_r+0x4b0>
   12178:	09d0206f          	jal	zero,14a14 <_vfprintf_r+0x2d48>
   1217c:	02012c23          	sw	zero,56(sp)
   12180:	00012823          	sw	zero,16(sp)
   12184:	11c10793          	addi	a5,sp,284
   12188:	08010d93          	addi	s11,sp,128
   1218c:	04f12023          	sw	a5,64(sp)
   12190:	06c12a23          	sw	a2,116(sp)
   12194:	002be793          	ori	a5,s7,2
   12198:	06b12c23          	sw	a1,120(sp)
   1219c:	000d8513          	addi	a0,s11,0
   121a0:	07010593          	addi	a1,sp,112
   121a4:	09810613          	addi	a2,sp,152
   121a8:	03112e23          	sw	a7,60(sp)
   121ac:	00f12e23          	sw	a5,28(sp)
   121b0:	06d12823          	sw	a3,112(sp)
   121b4:	06e12e23          	sw	a4,124(sp)
   121b8:	42d030ef          	jal	ra,15de4 <frexpl>
   121bc:	08812703          	lw	a4,136(sp)
   121c0:	08012603          	lw	a2,128(sp)
   121c4:	08412683          	lw	a3,132(sp)
   121c8:	06e12c23          	sw	a4,120(sp)
   121cc:	08c12703          	lw	a4,140(sp)
   121d0:	06c12823          	sw	a2,112(sp)
   121d4:	06d12a23          	sw	a3,116(sp)
   121d8:	06010613          	addi	a2,sp,96
   121dc:	3ffc06b7          	lui	a3,0x3ffc0
   121e0:	07010593          	addi	a1,sp,112
   121e4:	000d8513          	addi	a0,s11,0
   121e8:	06d12623          	sw	a3,108(sp)
   121ec:	06e12e23          	sw	a4,124(sp)
   121f0:	06012023          	sw	zero,96(sp)
   121f4:	06012223          	sw	zero,100(sp)
   121f8:	06012423          	sw	zero,104(sp)
   121fc:	2240c0ef          	jal	ra,1e420 <__multf3>
   12200:	08012e03          	lw	t3,128(sp)
   12204:	08412803          	lw	a6,132(sp)
   12208:	08812603          	lw	a2,136(sp)
   1220c:	07010593          	addi	a1,sp,112
   12210:	000d8513          	addi	a0,s11,0
   12214:	03c12623          	sw	t3,44(sp)
   12218:	03012023          	sw	a6,32(sp)
   1221c:	00c12c23          	sw	a2,24(sp)
   12220:	06012823          	sw	zero,112(sp)
   12224:	06012a23          	sw	zero,116(sp)
   12228:	06012c23          	sw	zero,120(sp)
   1222c:	06012e23          	sw	zero,124(sp)
   12230:	6990b0ef          	jal	ra,1e0c8 <__eqtf2>
   12234:	08c12b83          	lw	s7,140(sp)
   12238:	01812603          	lw	a2,24(sp)
   1223c:	02012803          	lw	a6,32(sp)
   12240:	02c12e03          	lw	t3,44(sp)
   12244:	03c12883          	lw	a7,60(sp)
   12248:	04012783          	lw	a5,64(sp)
   1224c:	00051663          	bne	a0,zero,12258 <_vfprintf_r+0x58c>
   12250:	00100693          	addi	a3,zero,1
   12254:	08d12c23          	sw	a3,152(sp)
   12258:	06100693          	addi	a3,zero,97
   1225c:	00d89463          	bne	a7,a3,12264 <_vfprintf_r+0x598>
   12260:	1990206f          	jal	zero,14bf8 <_vfprintf_r+0x2f2c>
   12264:	000216b7          	lui	a3,0x21
   12268:	bf468713          	addi	a4,a3,-1036 # 20bf4 <__clzsi2+0xb8>
   1226c:	00e12c23          	sw	a4,24(sp)
   12270:	03612023          	sw	s6,32(sp)
   12274:	000b8c93          	addi	s9,s7,0
   12278:	05212423          	sw	s2,72(sp)
   1227c:	01812483          	lw	s1,24(sp)
   12280:	00078c13          	addi	s8,a5,0
   12284:	03112623          	sw	a7,44(sp)
   12288:	02f12e23          	sw	a5,60(sp)
   1228c:	05a12023          	sw	s10,64(sp)
   12290:	00080b13          	addi	s6,a6,0
   12294:	00060b93          	addi	s7,a2,0
   12298:	000e0913          	addi	s2,t3,0
   1229c:	03c0006f          	jal	zero,122d8 <_vfprintf_r+0x60c>
   122a0:	07010593          	addi	a1,sp,112
   122a4:	000d8513          	addi	a0,s11,0
   122a8:	09212023          	sw	s2,128(sp)
   122ac:	09612223          	sw	s6,132(sp)
   122b0:	09712423          	sw	s7,136(sp)
   122b4:	09912623          	sw	s9,140(sp)
   122b8:	06012823          	sw	zero,112(sp)
   122bc:	06012a23          	sw	zero,116(sp)
   122c0:	06012c23          	sw	zero,120(sp)
   122c4:	06012e23          	sw	zero,124(sp)
   122c8:	6010b0ef          	jal	ra,1e0c8 <__eqtf2>
   122cc:	00051463          	bne	a0,zero,122d4 <_vfprintf_r+0x608>
   122d0:	0210206f          	jal	zero,14af0 <_vfprintf_r+0x2e24>
   122d4:	fffa8a93          	addi	s5,s5,-1
   122d8:	400307b7          	lui	a5,0x40030
   122dc:	06010613          	addi	a2,sp,96
   122e0:	07010593          	addi	a1,sp,112
   122e4:	000d8513          	addi	a0,s11,0
   122e8:	06f12623          	sw	a5,108(sp)
   122ec:	07212823          	sw	s2,112(sp)
   122f0:	07612a23          	sw	s6,116(sp)
   122f4:	07712c23          	sw	s7,120(sp)
   122f8:	07912e23          	sw	s9,124(sp)
   122fc:	06012023          	sw	zero,96(sp)
   12300:	06012223          	sw	zero,100(sp)
   12304:	06012423          	sw	zero,104(sp)
   12308:	1180c0ef          	jal	ra,1e420 <__multf3>
   1230c:	000d8513          	addi	a0,s11,0
   12310:	3f40e0ef          	jal	ra,20704 <__fixtfsi>
   12314:	00050593          	addi	a1,a0,0
   12318:	00050d13          	addi	s10,a0,0
   1231c:	000d8513          	addi	a0,s11,0
   12320:	08012c83          	lw	s9,128(sp)
   12324:	08412b83          	lw	s7,132(sp)
   12328:	08812b03          	lw	s6,136(sp)
   1232c:	08c12903          	lw	s2,140(sp)
   12330:	4c80e0ef          	jal	ra,207f8 <__floatsitf>
   12334:	08812783          	lw	a5,136(sp)
   12338:	08012603          	lw	a2,128(sp)
   1233c:	08412683          	lw	a3,132(sp)
   12340:	04f12c23          	sw	a5,88(sp)
   12344:	08c12783          	lw	a5,140(sp)
   12348:	04c12823          	sw	a2,80(sp)
   1234c:	06010593          	addi	a1,sp,96
   12350:	05010613          	addi	a2,sp,80
   12354:	07010513          	addi	a0,sp,112
   12358:	07912023          	sw	s9,96(sp)
   1235c:	07712223          	sw	s7,100(sp)
   12360:	07612423          	sw	s6,104(sp)
   12364:	07212623          	sw	s2,108(sp)
   12368:	04d12a23          	sw	a3,84(sp)
   1236c:	04f12e23          	sw	a5,92(sp)
   12370:	7f10c0ef          	jal	ra,1f360 <__subtf3>
   12374:	01a487b3          	add	a5,s1,s10
   12378:	0007c683          	lbu	a3,0(a5) # 40030000 <__BSS_END__+0x3ff7b5ac>
   1237c:	000c0593          	addi	a1,s8,0
   12380:	001c0c13          	addi	s8,s8,1
   12384:	07012903          	lw	s2,112(sp)
   12388:	07412b03          	lw	s6,116(sp)
   1238c:	07812b83          	lw	s7,120(sp)
   12390:	07c12c83          	lw	s9,124(sp)
   12394:	fedc0fa3          	sb	a3,-1(s8)
   12398:	f00a94e3          	bne	s5,zero,122a0 <_vfprintf_r+0x5d4>
   1239c:	02c12883          	lw	a7,44(sp)
   123a0:	03c12783          	lw	a5,60(sp)
   123a4:	00090e13          	addi	t3,s2,0
   123a8:	000b0813          	addi	a6,s6,0
   123ac:	000b8613          	addi	a2,s7,0
   123b0:	00058493          	addi	s1,a1,0
   123b4:	000c8b93          	addi	s7,s9,0
   123b8:	3ffe0ab7          	lui	s5,0x3ffe0
   123bc:	07010593          	addi	a1,sp,112
   123c0:	000d8513          	addi	a0,s11,0
   123c4:	05112623          	sw	a7,76(sp)
   123c8:	02f12623          	sw	a5,44(sp)
   123cc:	04812903          	lw	s2,72(sp)
   123d0:	000d0c93          	addi	s9,s10,0
   123d4:	09c12023          	sw	t3,128(sp)
   123d8:	04012d03          	lw	s10,64(sp)
   123dc:	05c12423          	sw	t3,72(sp)
   123e0:	09012223          	sw	a6,132(sp)
   123e4:	05012023          	sw	a6,64(sp)
   123e8:	08c12423          	sw	a2,136(sp)
   123ec:	02c12e23          	sw	a2,60(sp)
   123f0:	09712623          	sw	s7,140(sp)
   123f4:	06012823          	sw	zero,112(sp)
   123f8:	06012a23          	sw	zero,116(sp)
   123fc:	06012c23          	sw	zero,120(sp)
   12400:	07512e23          	sw	s5,124(sp)
   12404:	5b50b0ef          	jal	ra,1e1b8 <__getf2>
   12408:	02012b03          	lw	s6,32(sp)
   1240c:	02c12783          	lw	a5,44(sp)
   12410:	04c12883          	lw	a7,76(sp)
   12414:	02a04463          	blt	zero,a0,1243c <_vfprintf_r+0x770>
   12418:	07010593          	addi	a1,sp,112
   1241c:	000d8513          	addi	a0,s11,0
   12420:	03112023          	sw	a7,32(sp)
   12424:	4a50b0ef          	jal	ra,1e0c8 <__eqtf2>
   12428:	02012883          	lw	a7,32(sp)
   1242c:	02c12783          	lw	a5,44(sp)
   12430:	04051c63          	bne	a0,zero,12488 <_vfprintf_r+0x7bc>
   12434:	001cfc93          	andi	s9,s9,1
   12438:	040c8863          	beq	s9,zero,12488 <_vfprintf_r+0x7bc>
   1243c:	01812703          	lw	a4,24(sp)
   12440:	0a912023          	sw	s1,160(sp)
   12444:	fffc4603          	lbu	a2,-1(s8)
   12448:	00f74583          	lbu	a1,15(a4)
   1244c:	000c0713          	addi	a4,s8,0
   12450:	02c59063          	bne	a1,a2,12470 <_vfprintf_r+0x7a4>
   12454:	03000513          	addi	a0,zero,48
   12458:	fea70fa3          	sb	a0,-1(a4)
   1245c:	0a012703          	lw	a4,160(sp)
   12460:	fff70693          	addi	a3,a4,-1
   12464:	0ad12023          	sw	a3,160(sp)
   12468:	fff74603          	lbu	a2,-1(a4)
   1246c:	fec586e3          	beq	a1,a2,12458 <_vfprintf_r+0x78c>
   12470:	00160593          	addi	a1,a2,1
   12474:	03900513          	addi	a0,zero,57
   12478:	0ff5f593          	andi	a1,a1,255
   1247c:	00a61463          	bne	a2,a0,12484 <_vfprintf_r+0x7b8>
   12480:	1980206f          	jal	zero,14618 <_vfprintf_r+0x294c>
   12484:	feb70fa3          	sb	a1,-1(a4)
   12488:	09812603          	lw	a2,152(sp)
   1248c:	00f88713          	addi	a4,a7,15
   12490:	0ae10223          	sb	a4,164(sp)
   12494:	40fc06b3          	sub	a3,s8,a5
   12498:	fff60713          	addi	a4,a2,-1
   1249c:	08e12c23          	sw	a4,152(sp)
   124a0:	00d12c23          	sw	a3,24(sp)
   124a4:	00075463          	bge	a4,zero,124ac <_vfprintf_r+0x7e0>
   124a8:	7340206f          	jal	zero,14bdc <_vfprintf_r+0x2f10>
   124ac:	02b00693          	addi	a3,zero,43
   124b0:	0ad102a3          	sb	a3,165(sp)
   124b4:	00900693          	addi	a3,zero,9
   124b8:	00e6d463          	bge	a3,a4,124c0 <_vfprintf_r+0x7f4>
   124bc:	07c0206f          	jal	zero,14538 <_vfprintf_r+0x286c>
   124c0:	0a610693          	addi	a3,sp,166
   124c4:	03070713          	addi	a4,a4,48
   124c8:	00e68023          	sb	a4,0(a3)
   124cc:	18010713          	addi	a4,sp,384
   124d0:	40e686b3          	sub	a3,a3,a4
   124d4:	0dd68713          	addi	a4,a3,221
   124d8:	02e12623          	sw	a4,44(sp)
   124dc:	0e80206f          	jal	zero,145c4 <_vfprintf_r+0x28f8>
   124e0:	00412583          	lw	a1,4(sp)
   124e4:	0b410613          	addi	a2,sp,180
   124e8:	00090513          	addi	a0,s2,0
   124ec:	04612423          	sw	t1,72(sp)
   124f0:	04f12023          	sw	a5,64(sp)
   124f4:	03112e23          	sw	a7,60(sp)
   124f8:	02e12c23          	sw	a4,56(sp)
   124fc:	12d020ef          	jal	ra,14e28 <__sprint_r>
   12500:	3a0512e3          	bne	a0,zero,130a4 <_vfprintf_r+0x13d8>
   12504:	0bc12603          	lw	a2,188(sp)
   12508:	04812303          	lw	t1,72(sp)
   1250c:	04012783          	lw	a5,64(sp)
   12510:	03c12883          	lw	a7,60(sp)
   12514:	03812703          	lw	a4,56(sp)
   12518:	00098b13          	addi	s6,s3,0
   1251c:	a2dff06f          	jal	zero,11f48 <_vfprintf_r+0x27c>
   12520:	0b812a83          	lw	s5,184(sp)
   12524:	01812683          	lw	a3,24(sp)
   12528:	00100713          	addi	a4,zero,1
   1252c:	00e60633          	add	a2,a2,a4
   12530:	00ea8ab3          	add	s5,s5,a4
   12534:	008b0d93          	addi	s11,s6,8
   12538:	78d758e3          	bge	a4,a3,134c8 <_vfprintf_r+0x17fc>
   1253c:	00100713          	addi	a4,zero,1
   12540:	00eb2223          	sw	a4,4(s6)
   12544:	00fb2023          	sw	a5,0(s6)
   12548:	0ac12e23          	sw	a2,188(sp)
   1254c:	0b512c23          	sw	s5,184(sp)
   12550:	00700713          	addi	a4,zero,7
   12554:	01575463          	bge	a4,s5,1255c <_vfprintf_r+0x890>
   12558:	3f80106f          	jal	zero,13950 <_vfprintf_r+0x1c84>
   1255c:	02412703          	lw	a4,36(sp)
   12560:	001a8a93          	addi	s5,s5,1 # 3ffe0001 <__BSS_END__+0x3ff2b5ad>
   12564:	0b512c23          	sw	s5,184(sp)
   12568:	00e60633          	add	a2,a2,a4
   1256c:	02812703          	lw	a4,40(sp)
   12570:	0ac12e23          	sw	a2,188(sp)
   12574:	008d8d93          	addi	s11,s11,8
   12578:	feedac23          	sw	a4,-8(s11)
   1257c:	02412703          	lw	a4,36(sp)
   12580:	feedae23          	sw	a4,-4(s11)
   12584:	00700713          	addi	a4,zero,7
   12588:	01575463          	bge	a4,s5,12590 <_vfprintf_r+0x8c4>
   1258c:	3f00106f          	jal	zero,1397c <_vfprintf_r+0x1cb0>
   12590:	0c812703          	lw	a4,200(sp)
   12594:	0c012503          	lw	a0,192(sp)
   12598:	0c412583          	lw	a1,196(sp)
   1259c:	02f12023          	sw	a5,32(sp)
   125a0:	08e12423          	sw	a4,136(sp)
   125a4:	01812783          	lw	a5,24(sp)
   125a8:	0cc12703          	lw	a4,204(sp)
   125ac:	08a12023          	sw	a0,128(sp)
   125b0:	08b12223          	sw	a1,132(sp)
   125b4:	08010513          	addi	a0,sp,128
   125b8:	07010593          	addi	a1,sp,112
   125bc:	00c12e23          	sw	a2,28(sp)
   125c0:	06012823          	sw	zero,112(sp)
   125c4:	06012a23          	sw	zero,116(sp)
   125c8:	06012c23          	sw	zero,120(sp)
   125cc:	06012e23          	sw	zero,124(sp)
   125d0:	08e12623          	sw	a4,140(sp)
   125d4:	fff78b13          	addi	s6,a5,-1
   125d8:	2f10b0ef          	jal	ra,1e0c8 <__eqtf2>
   125dc:	01c12603          	lw	a2,28(sp)
   125e0:	720506e3          	beq	a0,zero,1350c <_vfprintf_r+0x1840>
   125e4:	02012783          	lw	a5,32(sp)
   125e8:	001a8a93          	addi	s5,s5,1
   125ec:	01660633          	add	a2,a2,s6
   125f0:	00178793          	addi	a5,a5,1
   125f4:	0b512c23          	sw	s5,184(sp)
   125f8:	0ac12e23          	sw	a2,188(sp)
   125fc:	00fda023          	sw	a5,0(s11)
   12600:	016da223          	sw	s6,4(s11)
   12604:	00700793          	addi	a5,zero,7
   12608:	6f57c0e3          	blt	a5,s5,134e8 <_vfprintf_r+0x181c>
   1260c:	008d8d93          	addi	s11,s11,8
   12610:	02c12783          	lw	a5,44(sp)
   12614:	02c12683          	lw	a3,44(sp)
   12618:	0a410713          	addi	a4,sp,164
   1261c:	00c78633          	add	a2,a5,a2
   12620:	001a8793          	addi	a5,s5,1
   12624:	00eda023          	sw	a4,0(s11)
   12628:	0ac12e23          	sw	a2,188(sp)
   1262c:	0af12c23          	sw	a5,184(sp)
   12630:	00dda223          	sw	a3,4(s11)
   12634:	00700713          	addi	a4,zero,7
   12638:	008d8b13          	addi	s6,s11,8
   1263c:	98f754e3          	bge	a4,a5,11fc4 <_vfprintf_r+0x2f8>
   12640:	00412583          	lw	a1,4(sp)
   12644:	0b410613          	addi	a2,sp,180
   12648:	00090513          	addi	a0,s2,0
   1264c:	7dc020ef          	jal	ra,14e28 <__sprint_r>
   12650:	24051ae3          	bne	a0,zero,130a4 <_vfprintf_r+0x13d8>
   12654:	0bc12603          	lw	a2,188(sp)
   12658:	00098b13          	addi	s6,s3,0
   1265c:	969ff06f          	jal	zero,11fc4 <_vfprintf_r+0x2f8>
   12660:	00c12783          	lw	a5,12(sp)
   12664:	00c12703          	lw	a4,12(sp)
   12668:	080109a3          	sb	zero,147(sp)
   1266c:	0007a783          	lw	a5,0(a5)
   12670:	00470493          	addi	s1,a4,4
   12674:	00079463          	bne	a5,zero,1267c <_vfprintf_r+0x9b0>
   12678:	16c0106f          	jal	zero,137e4 <_vfprintf_r+0x1b18>
   1267c:	000ad463          	bge	s5,zero,12684 <_vfprintf_r+0x9b8>
   12680:	2600106f          	jal	zero,138e0 <_vfprintf_r+0x1c14>
   12684:	00078513          	addi	a0,a5,0
   12688:	000a8613          	addi	a2,s5,0
   1268c:	00000593          	addi	a1,zero,0
   12690:	01112e23          	sw	a7,28(sp)
   12694:	00f12623          	sw	a5,12(sp)
   12698:	254030ef          	jal	ra,158ec <memchr>
   1269c:	00a12823          	sw	a0,16(sp)
   126a0:	09314703          	lbu	a4,147(sp)
   126a4:	00c12783          	lw	a5,12(sp)
   126a8:	01c12883          	lw	a7,28(sp)
   126ac:	00051463          	bne	a0,zero,126b4 <_vfprintf_r+0x9e8>
   126b0:	17c0206f          	jal	zero,1482c <_vfprintf_r+0x2b60>
   126b4:	40f50cb3          	sub	s9,a0,a5
   126b8:	fffcc693          	xori	a3,s9,-1
   126bc:	41f6d693          	srai	a3,a3,0x1f
   126c0:	00dcfc33          	and	s8,s9,a3
   126c4:	00070463          	beq	a4,zero,126cc <_vfprintf_r+0xa00>
   126c8:	24c0106f          	jal	zero,13914 <_vfprintf_r+0x1c48>
   126cc:	00912623          	sw	s1,12(sp)
   126d0:	0bc12603          	lw	a2,188(sp)
   126d4:	00012823          	sw	zero,16(sp)
   126d8:	02012023          	sw	zero,32(sp)
   126dc:	00012e23          	sw	zero,28(sp)
   126e0:	084bfd93          	andi	s11,s7,132
   126e4:	00000a93          	addi	s5,zero,0
   126e8:	00000313          	addi	t1,zero,0
   126ec:	00060813          	addi	a6,a2,0
   126f0:	800d9ee3          	bne	s11,zero,11f0c <_vfprintf_r+0x240>
   126f4:	00012703          	lw	a4,0(sp)
   126f8:	41870733          	sub	a4,a4,s8
   126fc:	5ae042e3          	blt	zero,a4,134a0 <_vfprintf_r+0x17d4>
   12700:	09314703          	lbu	a4,147(sp)
   12704:	800718e3          	bne	a4,zero,11f14 <_vfprintf_r+0x248>
   12708:	419a8ab3          	sub	s5,s5,s9
   1270c:	895054e3          	bge	zero,s5,11f94 <_vfprintf_r+0x2c8>
   12710:	000b3837          	lui	a6,0xb3
   12714:	0b812583          	lw	a1,184(sp)
   12718:	64080813          	addi	a6,a6,1600 # b3640 <zeroes.0>
   1271c:	09545663          	bge	s0,s5,127a8 <_vfprintf_r+0xadc>
   12720:	000a8493          	addi	s1,s5,0
   12724:	02f12e23          	sw	a5,60(sp)
   12728:	00700d93          	addi	s11,zero,7
   1272c:	000b0793          	addi	a5,s6,0
   12730:	03112c23          	sw	a7,56(sp)
   12734:	00030a93          	addi	s5,t1,0
   12738:	000a0b13          	addi	s6,s4,0
   1273c:	00c0006f          	jal	zero,12748 <_vfprintf_r+0xa7c>
   12740:	ff048493          	addi	s1,s1,-16
   12744:	04945663          	bge	s0,s1,12790 <_vfprintf_r+0xac4>
   12748:	01060613          	addi	a2,a2,16
   1274c:	00158593          	addi	a1,a1,1
   12750:	0147a023          	sw	s4,0(a5)
   12754:	0087a223          	sw	s0,4(a5)
   12758:	0ac12e23          	sw	a2,188(sp)
   1275c:	0ab12c23          	sw	a1,184(sp)
   12760:	00878793          	addi	a5,a5,8
   12764:	fcbddee3          	bge	s11,a1,12740 <_vfprintf_r+0xa74>
   12768:	00412583          	lw	a1,4(sp)
   1276c:	0b410613          	addi	a2,sp,180
   12770:	00090513          	addi	a0,s2,0
   12774:	6b4020ef          	jal	ra,14e28 <__sprint_r>
   12778:	120516e3          	bne	a0,zero,130a4 <_vfprintf_r+0x13d8>
   1277c:	ff048493          	addi	s1,s1,-16
   12780:	0bc12603          	lw	a2,188(sp)
   12784:	0b812583          	lw	a1,184(sp)
   12788:	00098793          	addi	a5,s3,0
   1278c:	fa944ee3          	blt	s0,s1,12748 <_vfprintf_r+0xa7c>
   12790:	000b0813          	addi	a6,s6,0
   12794:	03812883          	lw	a7,56(sp)
   12798:	00078b13          	addi	s6,a5,0
   1279c:	03c12783          	lw	a5,60(sp)
   127a0:	000a8313          	addi	t1,s5,0
   127a4:	00048a93          	addi	s5,s1,0
   127a8:	01560633          	add	a2,a2,s5
   127ac:	00158593          	addi	a1,a1,1
   127b0:	010b2023          	sw	a6,0(s6)
   127b4:	015b2223          	sw	s5,4(s6)
   127b8:	0ac12e23          	sw	a2,188(sp)
   127bc:	0ab12c23          	sw	a1,184(sp)
   127c0:	00700713          	addi	a4,zero,7
   127c4:	008b0b13          	addi	s6,s6,8
   127c8:	fcb75663          	bge	a4,a1,11f94 <_vfprintf_r+0x2c8>
   127cc:	00412583          	lw	a1,4(sp)
   127d0:	0b410613          	addi	a2,sp,180
   127d4:	00090513          	addi	a0,s2,0
   127d8:	04612023          	sw	t1,64(sp)
   127dc:	02f12e23          	sw	a5,60(sp)
   127e0:	03112c23          	sw	a7,56(sp)
   127e4:	644020ef          	jal	ra,14e28 <__sprint_r>
   127e8:	0a051ee3          	bne	a0,zero,130a4 <_vfprintf_r+0x13d8>
   127ec:	100bf713          	andi	a4,s7,256
   127f0:	0bc12603          	lw	a2,188(sp)
   127f4:	04012303          	lw	t1,64(sp)
   127f8:	03c12783          	lw	a5,60(sp)
   127fc:	03812883          	lw	a7,56(sp)
   12800:	00098b13          	addi	s6,s3,0
   12804:	f8070c63          	beq	a4,zero,11f9c <_vfprintf_r+0x2d0>
   12808:	06500713          	addi	a4,zero,101
   1280c:	d1175ae3          	bge	a4,a7,12520 <_vfprintf_r+0x854>
   12810:	0c412703          	lw	a4,196(sp)
   12814:	0c012583          	lw	a1,192(sp)
   12818:	0c812503          	lw	a0,200(sp)
   1281c:	08e12223          	sw	a4,132(sp)
   12820:	0cc12703          	lw	a4,204(sp)
   12824:	08b12023          	sw	a1,128(sp)
   12828:	08a12423          	sw	a0,136(sp)
   1282c:	07010593          	addi	a1,sp,112
   12830:	08010513          	addi	a0,sp,128
   12834:	02c12e23          	sw	a2,60(sp)
   12838:	02f12c23          	sw	a5,56(sp)
   1283c:	04612023          	sw	t1,64(sp)
   12840:	06012823          	sw	zero,112(sp)
   12844:	06012a23          	sw	zero,116(sp)
   12848:	06012c23          	sw	zero,120(sp)
   1284c:	06012e23          	sw	zero,124(sp)
   12850:	08e12623          	sw	a4,140(sp)
   12854:	0750b0ef          	jal	ra,1e0c8 <__eqtf2>
   12858:	03812783          	lw	a5,56(sp)
   1285c:	03c12603          	lw	a2,60(sp)
   12860:	04012303          	lw	t1,64(sp)
   12864:	220510e3          	bne	a0,zero,13284 <_vfprintf_r+0x15b8>
   12868:	0b812783          	lw	a5,184(sp)
   1286c:	00021737          	lui	a4,0x21
   12870:	c1070713          	addi	a4,a4,-1008 # 20c10 <__clzsi2+0xd4>
   12874:	00eb2023          	sw	a4,0(s6)
   12878:	00160613          	addi	a2,a2,1
   1287c:	00100713          	addi	a4,zero,1
   12880:	00178793          	addi	a5,a5,1
   12884:	00eb2223          	sw	a4,4(s6)
   12888:	0ac12e23          	sw	a2,188(sp)
   1288c:	0af12c23          	sw	a5,184(sp)
   12890:	00700713          	addi	a4,zero,7
   12894:	008b0b13          	addi	s6,s6,8
   12898:	00f75463          	bge	a4,a5,128a0 <_vfprintf_r+0xbd4>
   1289c:	2500106f          	jal	zero,13aec <_vfprintf_r+0x1e20>
   128a0:	09812783          	lw	a5,152(sp)
   128a4:	01812703          	lw	a4,24(sp)
   128a8:	4ee7d0e3          	bge	a5,a4,13588 <_vfprintf_r+0x18bc>
   128ac:	02412703          	lw	a4,36(sp)
   128b0:	0b812783          	lw	a5,184(sp)
   128b4:	008b0b13          	addi	s6,s6,8
   128b8:	00e60633          	add	a2,a2,a4
   128bc:	02812703          	lw	a4,40(sp)
   128c0:	00178793          	addi	a5,a5,1
   128c4:	0ac12e23          	sw	a2,188(sp)
   128c8:	feeb2c23          	sw	a4,-8(s6)
   128cc:	02412703          	lw	a4,36(sp)
   128d0:	0af12c23          	sw	a5,184(sp)
   128d4:	feeb2e23          	sw	a4,-4(s6)
   128d8:	00700713          	addi	a4,zero,7
   128dc:	68f740e3          	blt	a4,a5,1375c <_vfprintf_r+0x1a90>
   128e0:	01812783          	lw	a5,24(sp)
   128e4:	fff78a93          	addi	s5,a5,-1
   128e8:	ed505e63          	bge	zero,s5,11fc4 <_vfprintf_r+0x2f8>
   128ec:	000b3837          	lui	a6,0xb3
   128f0:	01000c93          	addi	s9,zero,16
   128f4:	0b812783          	lw	a5,184(sp)
   128f8:	00700d93          	addi	s11,zero,7
   128fc:	64080493          	addi	s1,a6,1600 # b3640 <zeroes.0>
   12900:	015cca63          	blt	s9,s5,12914 <_vfprintf_r+0xc48>
   12904:	2a50006f          	jal	zero,133a8 <_vfprintf_r+0x16dc>
   12908:	ff0a8a93          	addi	s5,s5,-16
   1290c:	015cc463          	blt	s9,s5,12914 <_vfprintf_r+0xc48>
   12910:	23c0106f          	jal	zero,13b4c <_vfprintf_r+0x1e80>
   12914:	01060613          	addi	a2,a2,16
   12918:	00178793          	addi	a5,a5,1
   1291c:	009b2023          	sw	s1,0(s6)
   12920:	019b2223          	sw	s9,4(s6)
   12924:	0ac12e23          	sw	a2,188(sp)
   12928:	0af12c23          	sw	a5,184(sp)
   1292c:	008b0b13          	addi	s6,s6,8
   12930:	fcfddce3          	bge	s11,a5,12908 <_vfprintf_r+0xc3c>
   12934:	00412583          	lw	a1,4(sp)
   12938:	0b410613          	addi	a2,sp,180
   1293c:	00090513          	addi	a0,s2,0
   12940:	4e8020ef          	jal	ra,14e28 <__sprint_r>
   12944:	76051063          	bne	a0,zero,130a4 <_vfprintf_r+0x13d8>
   12948:	0bc12603          	lw	a2,188(sp)
   1294c:	0b812783          	lw	a5,184(sp)
   12950:	00098b13          	addi	s6,s3,0
   12954:	fb5ff06f          	jal	zero,12908 <_vfprintf_r+0xc3c>
   12958:	020bf793          	andi	a5,s7,32
   1295c:	0e079863          	bne	a5,zero,12a4c <_vfprintf_r+0xd80>
   12960:	00c12783          	lw	a5,12(sp)
   12964:	010bf713          	andi	a4,s7,16
   12968:	00478793          	addi	a5,a5,4
   1296c:	00070463          	beq	a4,zero,12974 <_vfprintf_r+0xca8>
   12970:	7ad0106f          	jal	zero,1491c <_vfprintf_r+0x2c50>
   12974:	00c12683          	lw	a3,12(sp)
   12978:	040bf713          	andi	a4,s7,64
   1297c:	0006ac03          	lw	s8,0(a3)
   12980:	00071463          	bne	a4,zero,12988 <_vfprintf_r+0xcbc>
   12984:	33c0106f          	jal	zero,13cc0 <_vfprintf_r+0x1ff4>
   12988:	010c1c13          	slli	s8,s8,0x10
   1298c:	410c5c13          	srai	s8,s8,0x10
   12990:	41fc5e93          	srai	t4,s8,0x1f
   12994:	00f12623          	sw	a5,12(sp)
   12998:	000e8713          	addi	a4,t4,0
   1299c:	0c074a63          	blt	a4,zero,12a70 <_vfprintf_r+0xda4>
   129a0:	0e0ac863          	blt	s5,zero,12a90 <_vfprintf_r+0xdc4>
   129a4:	01dc67b3          	or	a5,s8,t4
   129a8:	f7fbfb93          	andi	s7,s7,-129
   129ac:	0e079263          	bne	a5,zero,12a90 <_vfprintf_r+0xdc4>
   129b0:	0e0a9063          	bne	s5,zero,12a90 <_vfprintf_r+0xdc4>
   129b4:	09314e83          	lbu	t4,147(sp)
   129b8:	000e9463          	bne	t4,zero,129c0 <_vfprintf_r+0xcf4>
   129bc:	3240106f          	jal	zero,13ce0 <_vfprintf_r+0x2014>
   129c0:	00000c13          	addi	s8,zero,0
   129c4:	00000313          	addi	t1,zero,0
   129c8:	00012823          	sw	zero,16(sp)
   129cc:	00000c93          	addi	s9,zero,0
   129d0:	00000a93          	addi	s5,zero,0
   129d4:	18010793          	addi	a5,sp,384
   129d8:	001c0c13          	addi	s8,s8,1
   129dc:	00031463          	bne	t1,zero,129e4 <_vfprintf_r+0xd18>
   129e0:	2f80206f          	jal	zero,14cd8 <_vfprintf_r+0x300c>
   129e4:	0bc12603          	lw	a2,188(sp)
   129e8:	0b812583          	lw	a1,184(sp)
   129ec:	084bfd93          	andi	s11,s7,132
   129f0:	002c0c13          	addi	s8,s8,2
   129f4:	00060813          	addi	a6,a2,0
   129f8:	00058513          	addi	a0,a1,0
   129fc:	700d8663          	beq	s11,zero,13108 <_vfprintf_r+0x143c>
   12a00:	02012023          	sw	zero,32(sp)
   12a04:	00012e23          	sw	zero,28(sp)
   12a08:	00000313          	addi	t1,zero,0
   12a0c:	d40e8263          	beq	t4,zero,11f50 <_vfprintf_r+0x284>
   12a10:	00200713          	addi	a4,zero,2
   12a14:	d08ff06f          	jal	zero,11f1c <_vfprintf_r+0x250>
   12a18:	00c12783          	lw	a5,12(sp)
   12a1c:	00100c93          	addi	s9,zero,1
   12a20:	080109a3          	sb	zero,147(sp)
   12a24:	0007a783          	lw	a5,0(a5)
   12a28:	10f10e23          	sb	a5,284(sp)
   12a2c:	00c12783          	lw	a5,12(sp)
   12a30:	00478793          	addi	a5,a5,4
   12a34:	00f12623          	sw	a5,12(sp)
   12a38:	ca8ff06f          	jal	zero,11ee0 <_vfprintf_r+0x214>
   12a3c:	020bf793          	andi	a5,s7,32
   12a40:	010bee13          	ori	t3,s7,16
   12a44:	400782e3          	beq	a5,zero,13648 <_vfprintf_r+0x197c>
   12a48:	000e0b93          	addi	s7,t3,0
   12a4c:	00c12783          	lw	a5,12(sp)
   12a50:	00778793          	addi	a5,a5,7
   12a54:	ff87f793          	andi	a5,a5,-8
   12a58:	0047a703          	lw	a4,4(a5)
   12a5c:	00878693          	addi	a3,a5,8
   12a60:	00d12623          	sw	a3,12(sp)
   12a64:	0007ac03          	lw	s8,0(a5)
   12a68:	00070e93          	addi	t4,a4,0
   12a6c:	f2075ae3          	bge	a4,zero,129a0 <_vfprintf_r+0xcd4>
   12a70:	018037b3          	sltu	a5,zero,s8
   12a74:	41d00eb3          	sub	t4,zero,t4
   12a78:	40fe8eb3          	sub	t4,t4,a5
   12a7c:	02d00793          	addi	a5,zero,45
   12a80:	08f109a3          	sb	a5,147(sp)
   12a84:	41800c33          	sub	s8,zero,s8
   12a88:	000ac463          	blt	s5,zero,12a90 <_vfprintf_r+0xdc4>
   12a8c:	f7fbfb93          	andi	s7,s7,-129
   12a90:	260e9e63          	bne	t4,zero,12d0c <_vfprintf_r+0x1040>
   12a94:	00900793          	addi	a5,zero,9
   12a98:	2787ea63          	bltu	a5,s8,12d0c <_vfprintf_r+0x1040>
   12a9c:	030c0c13          	addi	s8,s8,48
   12aa0:	17810fa3          	sb	s8,383(sp)
   12aa4:	000a8c13          	addi	s8,s5,0
   12aa8:	3f505ae3          	bge	zero,s5,1369c <_vfprintf_r+0x19d0>
   12aac:	09314e83          	lbu	t4,147(sp)
   12ab0:	00000313          	addi	t1,zero,0
   12ab4:	00100c93          	addi	s9,zero,1
   12ab8:	17f10793          	addi	a5,sp,383
   12abc:	00012823          	sw	zero,16(sp)
   12ac0:	f00e8ee3          	beq	t4,zero,129dc <_vfprintf_r+0xd10>
   12ac4:	001c0c13          	addi	s8,s8,1
   12ac8:	f15ff06f          	jal	zero,129dc <_vfprintf_r+0xd10>
   12acc:	00c12783          	lw	a5,12(sp)
   12ad0:	0007a783          	lw	a5,0(a5)
   12ad4:	00f12023          	sw	a5,0(sp)
   12ad8:	2c07d0e3          	bge	a5,zero,13598 <_vfprintf_r+0x18cc>
   12adc:	00012783          	lw	a5,0(sp)
   12ae0:	40f007b3          	sub	a5,zero,a5
   12ae4:	00f12023          	sw	a5,0(sp)
   12ae8:	00c12783          	lw	a5,12(sp)
   12aec:	00478793          	addi	a5,a5,4
   12af0:	00f12623          	sw	a5,12(sp)
   12af4:	000d4883          	lbu	a7,0(s10)
   12af8:	004beb93          	ori	s7,s7,4
   12afc:	b70ff06f          	jal	zero,11e6c <_vfprintf_r+0x1a0>
   12b00:	02b00793          	addi	a5,zero,43
   12b04:	000d4883          	lbu	a7,0(s10)
   12b08:	08f109a3          	sb	a5,147(sp)
   12b0c:	b60ff06f          	jal	zero,11e6c <_vfprintf_r+0x1a0>
   12b10:	000d4883          	lbu	a7,0(s10)
   12b14:	080beb93          	ori	s7,s7,128
   12b18:	b54ff06f          	jal	zero,11e6c <_vfprintf_r+0x1a0>
   12b1c:	000d4883          	lbu	a7,0(s10)
   12b20:	02a00793          	addi	a5,zero,42
   12b24:	001d0693          	addi	a3,s10,1
   12b28:	00f89463          	bne	a7,a5,12b30 <_vfprintf_r+0xe64>
   12b2c:	0dc0206f          	jal	zero,14c08 <_vfprintf_r+0x2f3c>
   12b30:	fd088793          	addi	a5,a7,-48
   12b34:	00900613          	addi	a2,zero,9
   12b38:	00000a93          	addi	s5,zero,0
   12b3c:	02f66463          	bltu	a2,a5,12b64 <_vfprintf_r+0xe98>
   12b40:	002a9713          	slli	a4,s5,0x2
   12b44:	0006c883          	lbu	a7,0(a3)
   12b48:	01570ab3          	add	s5,a4,s5
   12b4c:	001a9a93          	slli	s5,s5,0x1
   12b50:	00fa8ab3          	add	s5,s5,a5
   12b54:	fd088793          	addi	a5,a7,-48
   12b58:	00168693          	addi	a3,a3,1
   12b5c:	fef672e3          	bgeu	a2,a5,12b40 <_vfprintf_r+0xe74>
   12b60:	3c0ac8e3          	blt	s5,zero,13730 <_vfprintf_r+0x1a64>
   12b64:	00068d13          	addi	s10,a3,0
   12b68:	b08ff06f          	jal	zero,11e70 <_vfprintf_r+0x1a4>
   12b6c:	00090513          	addi	a0,s2,0
   12b70:	6d1020ef          	jal	ra,15a40 <_localeconv_r>
   12b74:	00452783          	lw	a5,4(a0)
   12b78:	00078513          	addi	a0,a5,0
   12b7c:	02f12a23          	sw	a5,52(sp)
   12b80:	1d8030ef          	jal	ra,15d58 <strlen>
   12b84:	00050493          	addi	s1,a0,0
   12b88:	00090513          	addi	a0,s2,0
   12b8c:	04912223          	sw	s1,68(sp)
   12b90:	6b1020ef          	jal	ra,15a40 <_localeconv_r>
   12b94:	00852703          	lw	a4,8(a0)
   12b98:	000d4883          	lbu	a7,0(s10)
   12b9c:	02e12823          	sw	a4,48(sp)
   12ba0:	ac048663          	beq	s1,zero,11e6c <_vfprintf_r+0x1a0>
   12ba4:	ac070463          	beq	a4,zero,11e6c <_vfprintf_r+0x1a0>
   12ba8:	00074783          	lbu	a5,0(a4)
   12bac:	ac078063          	beq	a5,zero,11e6c <_vfprintf_r+0x1a0>
   12bb0:	400beb93          	ori	s7,s7,1024
   12bb4:	ab8ff06f          	jal	zero,11e6c <_vfprintf_r+0x1a0>
   12bb8:	000d4883          	lbu	a7,0(s10)
   12bbc:	001beb93          	ori	s7,s7,1
   12bc0:	aacff06f          	jal	zero,11e6c <_vfprintf_r+0x1a0>
   12bc4:	09314783          	lbu	a5,147(sp)
   12bc8:	000d4883          	lbu	a7,0(s10)
   12bcc:	aa079063          	bne	a5,zero,11e6c <_vfprintf_r+0x1a0>
   12bd0:	02000793          	addi	a5,zero,32
   12bd4:	08f109a3          	sb	a5,147(sp)
   12bd8:	a94ff06f          	jal	zero,11e6c <_vfprintf_r+0x1a0>
   12bdc:	020bf793          	andi	a5,s7,32
   12be0:	010be693          	ori	a3,s7,16
   12be4:	220782e3          	beq	a5,zero,13608 <_vfprintf_r+0x193c>
   12be8:	00c12783          	lw	a5,12(sp)
   12bec:	00778793          	addi	a5,a5,7
   12bf0:	ff87f793          	andi	a5,a5,-8
   12bf4:	00878713          	addi	a4,a5,8
   12bf8:	00e12623          	sw	a4,12(sp)
   12bfc:	0047a603          	lw	a2,4(a5)
   12c00:	0007a703          	lw	a4,0(a5)
   12c04:	080109a3          	sb	zero,147(sp)
   12c08:	bff6fb93          	andi	s7,a3,-1025
   12c0c:	600aca63          	blt	s5,zero,13220 <_vfprintf_r+0x1554>
   12c10:	00c767b3          	or	a5,a4,a2
   12c14:	b7f6fb93          	andi	s7,a3,-1153
   12c18:	60079463          	bne	a5,zero,13220 <_vfprintf_r+0x1554>
   12c1c:	600a9263          	bne	s5,zero,13220 <_vfprintf_r+0x1554>
   12c20:	0016fc13          	andi	s8,a3,1
   12c24:	080c02e3          	beq	s8,zero,134a8 <_vfprintf_r+0x17dc>
   12c28:	03000793          	addi	a5,zero,48
   12c2c:	16f10fa3          	sb	a5,383(sp)
   12c30:	000c0c93          	addi	s9,s8,0
   12c34:	00012823          	sw	zero,16(sp)
   12c38:	02012023          	sw	zero,32(sp)
   12c3c:	00012e23          	sw	zero,28(sp)
   12c40:	00000313          	addi	t1,zero,0
   12c44:	17f10793          	addi	a5,sp,383
   12c48:	ab4ff06f          	jal	zero,11efc <_vfprintf_r+0x230>
   12c4c:	000d4883          	lbu	a7,0(s10)
   12c50:	06800793          	addi	a5,zero,104
   12c54:	2ef88ce3          	beq	a7,a5,1374c <_vfprintf_r+0x1a80>
   12c58:	040beb93          	ori	s7,s7,64
   12c5c:	a10ff06f          	jal	zero,11e6c <_vfprintf_r+0x1a0>
   12c60:	00c12703          	lw	a4,12(sp)
   12c64:	020bf793          	andi	a5,s7,32
   12c68:	00470713          	addi	a4,a4,4
   12c6c:	1a079ce3          	bne	a5,zero,13624 <_vfprintf_r+0x1958>
   12c70:	010bf793          	andi	a5,s7,16
   12c74:	760798e3          	bne	a5,zero,13be4 <_vfprintf_r+0x1f18>
   12c78:	040bf793          	andi	a5,s7,64
   12c7c:	00078463          	beq	a5,zero,12c84 <_vfprintf_r+0xfb8>
   12c80:	44c0106f          	jal	zero,140cc <_vfprintf_r+0x2400>
   12c84:	200bfe13          	andi	t3,s7,512
   12c88:	740e0ee3          	beq	t3,zero,13be4 <_vfprintf_r+0x1f18>
   12c8c:	00c12783          	lw	a5,12(sp)
   12c90:	00812683          	lw	a3,8(sp)
   12c94:	00e12623          	sw	a4,12(sp)
   12c98:	0007a783          	lw	a5,0(a5)
   12c9c:	00d78023          	sb	a3,0(a5)
   12ca0:	938ff06f          	jal	zero,11dd8 <_vfprintf_r+0x10c>
   12ca4:	000d4883          	lbu	a7,0(s10)
   12ca8:	06c00793          	addi	a5,zero,108
   12cac:	28f888e3          	beq	a7,a5,1373c <_vfprintf_r+0x1a70>
   12cb0:	010beb93          	ori	s7,s7,16
   12cb4:	9b8ff06f          	jal	zero,11e6c <_vfprintf_r+0x1a0>
   12cb8:	020bf793          	andi	a5,s7,32
   12cbc:	24079863          	bne	a5,zero,12f0c <_vfprintf_r+0x1240>
   12cc0:	010bf793          	andi	a5,s7,16
   12cc4:	00078463          	beq	a5,zero,12ccc <_vfprintf_r+0x1000>
   12cc8:	44d0106f          	jal	zero,14914 <_vfprintf_r+0x2c48>
   12ccc:	00c12703          	lw	a4,12(sp)
   12cd0:	040bf793          	andi	a5,s7,64
   12cd4:	00072c03          	lw	s8,0(a4)
   12cd8:	00470713          	addi	a4,a4,4
   12cdc:	00e12623          	sw	a4,12(sp)
   12ce0:	00079463          	bne	a5,zero,12ce8 <_vfprintf_r+0x101c>
   12ce4:	7b10006f          	jal	zero,13c94 <_vfprintf_r+0x1fc8>
   12ce8:	010c1c13          	slli	s8,s8,0x10
   12cec:	080109a3          	sb	zero,147(sp)
   12cf0:	010c5c13          	srli	s8,s8,0x10
   12cf4:	00000e93          	addi	t4,zero,0
   12cf8:	d80acce3          	blt	s5,zero,12a90 <_vfprintf_r+0xdc4>
   12cfc:	018ae333          	or	t1,s5,s8
   12d00:	f7fbfb93          	andi	s7,s7,-129
   12d04:	16030463          	beq	t1,zero,12e6c <_vfprintf_r+0x11a0>
   12d08:	d80e86e3          	beq	t4,zero,12a94 <_vfprintf_r+0xdc8>
   12d0c:	ccccdcb7          	lui	s9,0xccccd
   12d10:	ccccddb7          	lui	s11,0xccccd
   12d14:	ccdc8c93          	addi	s9,s9,-819 # cccccccd <__BSS_END__+0xccc18279>
   12d18:	cccd8d93          	addi	s11,s11,-820 # cccccccc <__BSS_END__+0xccc18278>
   12d1c:	400bf813          	andi	a6,s7,1024
   12d20:	00000593          	addi	a1,zero,0
   12d24:	18010613          	addi	a2,sp,384
   12d28:	00088493          	addi	s1,a7,0
   12d2c:	0800006f          	jal	zero,12dac <_vfprintf_r+0x10e0>
   12d30:	03012703          	lw	a4,48(sp)
   12d34:	00074703          	lbu	a4,0(a4)
   12d38:	f0170693          	addi	a3,a4,-255
   12d3c:	00068463          	beq	a3,zero,12d44 <_vfprintf_r+0x1078>
   12d40:	5cb70ae3          	beq	a4,a1,13b14 <_vfprintf_r+0x1e48>
   12d44:	000c0313          	addi	t1,s8,0
   12d48:	000e8513          	addi	a0,t4,0
   12d4c:	00078613          	addi	a2,a5,0
   12d50:	01dc0733          	add	a4,s8,t4
   12d54:	018736b3          	sltu	a3,a4,s8
   12d58:	00d70733          	add	a4,a4,a3
   12d5c:	039736b3          	mulhu	a3,a4,s9
   12d60:	0026de13          	srli	t3,a3,0x2
   12d64:	ffc6f693          	andi	a3,a3,-4
   12d68:	01c686b3          	add	a3,a3,t3
   12d6c:	40d70733          	sub	a4,a4,a3
   12d70:	40ec0733          	sub	a4,s8,a4
   12d74:	00ec36b3          	sltu	a3,s8,a4
   12d78:	40de86b3          	sub	a3,t4,a3
   12d7c:	039686b3          	mul	a3,a3,s9
   12d80:	03b70eb3          	mul	t4,a4,s11
   12d84:	03973e33          	mulhu	t3,a4,s9
   12d88:	01d686b3          	add	a3,a3,t4
   12d8c:	03970733          	mul	a4,a4,s9
   12d90:	01c686b3          	add	a3,a3,t3
   12d94:	01f69e13          	slli	t3,a3,0x1f
   12d98:	0016de93          	srli	t4,a3,0x1
   12d9c:	00175713          	srli	a4,a4,0x1
   12da0:	00ee0c33          	add	s8,t3,a4
   12da4:	00051463          	bne	a0,zero,12dac <_vfprintf_r+0x10e0>
   12da8:	2750106f          	jal	zero,1481c <_vfprintf_r+0x2b50>
   12dac:	01dc0733          	add	a4,s8,t4
   12db0:	018736b3          	sltu	a3,a4,s8
   12db4:	00d706b3          	add	a3,a4,a3
   12db8:	0396b533          	mulhu	a0,a3,s9
   12dbc:	00158593          	addi	a1,a1,1
   12dc0:	fff60793          	addi	a5,a2,-1
   12dc4:	00255313          	srli	t1,a0,0x2
   12dc8:	ffc57513          	andi	a0,a0,-4
   12dcc:	00650533          	add	a0,a0,t1
   12dd0:	40a686b3          	sub	a3,a3,a0
   12dd4:	40dc06b3          	sub	a3,s8,a3
   12dd8:	00dc3533          	sltu	a0,s8,a3
   12ddc:	40ae8533          	sub	a0,t4,a0
   12de0:	0396b333          	mulhu	t1,a3,s9
   12de4:	03950533          	mul	a0,a0,s9
   12de8:	039686b3          	mul	a3,a3,s9
   12dec:	00650533          	add	a0,a0,t1
   12df0:	01f51513          	slli	a0,a0,0x1f
   12df4:	0016d693          	srli	a3,a3,0x1
   12df8:	00d506b3          	add	a3,a0,a3
   12dfc:	00269513          	slli	a0,a3,0x2
   12e00:	00d506b3          	add	a3,a0,a3
   12e04:	00169693          	slli	a3,a3,0x1
   12e08:	40dc06b3          	sub	a3,s8,a3
   12e0c:	03068693          	addi	a3,a3,48
   12e10:	fed60fa3          	sb	a3,-1(a2)
   12e14:	f0081ee3          	bne	a6,zero,12d30 <_vfprintf_r+0x1064>
   12e18:	000c0313          	addi	t1,s8,0
   12e1c:	000e8513          	addi	a0,t4,0
   12e20:	00078613          	addi	a2,a5,0
   12e24:	f31ff06f          	jal	zero,12d54 <_vfprintf_r+0x1088>
   12e28:	000087b7          	lui	a5,0x8
   12e2c:	83078793          	addi	a5,a5,-2000 # 7830 <exit-0x8884>
   12e30:	00c12703          	lw	a4,12(sp)
   12e34:	08f11a23          	sh	a5,148(sp)
   12e38:	00c12783          	lw	a5,12(sp)
   12e3c:	080109a3          	sb	zero,147(sp)
   12e40:	00072703          	lw	a4,0(a4)
   12e44:	00478793          	addi	a5,a5,4
   12e48:	00000613          	addi	a2,zero,0
   12e4c:	060ac8e3          	blt	s5,zero,136bc <_vfprintf_r+0x19f0>
   12e50:	f7fbfe13          	andi	t3,s7,-129
   12e54:	002e6b93          	ori	s7,t3,2
   12e58:	5a0a92e3          	bne	s5,zero,13bfc <_vfprintf_r+0x1f30>
   12e5c:	5a0710e3          	bne	a4,zero,13bfc <_vfprintf_r+0x1f30>
   12e60:	00f12623          	sw	a5,12(sp)
   12e64:	00200313          	addi	t1,zero,2
   12e68:	07800893          	addi	a7,zero,120
   12e6c:	09314e83          	lbu	t4,147(sp)
   12e70:	00000a93          	addi	s5,zero,0
   12e74:	00000c13          	addi	s8,zero,0
   12e78:	00000c93          	addi	s9,zero,0
   12e7c:	18010793          	addi	a5,sp,384
   12e80:	00012823          	sw	zero,16(sp)
   12e84:	c3dff06f          	jal	zero,12ac0 <_vfprintf_r+0xdf4>
   12e88:	020bf793          	andi	a5,s7,32
   12e8c:	000794e3          	bne	a5,zero,13694 <_vfprintf_r+0x19c8>
   12e90:	00c12783          	lw	a5,12(sp)
   12e94:	010bf713          	andi	a4,s7,16
   12e98:	00478793          	addi	a5,a5,4
   12e9c:	00070463          	beq	a4,zero,12ea4 <_vfprintf_r+0x11d8>
   12ea0:	2650106f          	jal	zero,14904 <_vfprintf_r+0x2c38>
   12ea4:	00c12703          	lw	a4,12(sp)
   12ea8:	040bf693          	andi	a3,s7,64
   12eac:	00072703          	lw	a4,0(a4)
   12eb0:	5c0684e3          	beq	a3,zero,13c78 <_vfprintf_r+0x1fac>
   12eb4:	01071713          	slli	a4,a4,0x10
   12eb8:	01075713          	srli	a4,a4,0x10
   12ebc:	00f12623          	sw	a5,12(sp)
   12ec0:	000b8693          	addi	a3,s7,0
   12ec4:	00000613          	addi	a2,zero,0
   12ec8:	d3dff06f          	jal	zero,12c04 <_vfprintf_r+0xf38>
   12ecc:	020bf793          	andi	a5,s7,32
   12ed0:	010bee13          	ori	t3,s7,16
   12ed4:	02079e63          	bne	a5,zero,12f10 <_vfprintf_r+0x1244>
   12ed8:	00c12783          	lw	a5,12(sp)
   12edc:	00c12703          	lw	a4,12(sp)
   12ee0:	080109a3          	sb	zero,147(sp)
   12ee4:	00478793          	addi	a5,a5,4
   12ee8:	00072c03          	lw	s8,0(a4)
   12eec:	00000e93          	addi	t4,zero,0
   12ef0:	680acae3          	blt	s5,zero,13d84 <_vfprintf_r+0x20b8>
   12ef4:	00f12623          	sw	a5,12(sp)
   12ef8:	f7fe7b93          	andi	s7,t3,-129
   12efc:	b80c1ce3          	bne	s8,zero,12a94 <_vfprintf_r+0xdc8>
   12f00:	b80a9ae3          	bne	s5,zero,12a94 <_vfprintf_r+0xdc8>
   12f04:	00000313          	addi	t1,zero,0
   12f08:	f65ff06f          	jal	zero,12e6c <_vfprintf_r+0x11a0>
   12f0c:	000b8e13          	addi	t3,s7,0
   12f10:	00c12783          	lw	a5,12(sp)
   12f14:	080109a3          	sb	zero,147(sp)
   12f18:	00778793          	addi	a5,a5,7
   12f1c:	ff87f793          	andi	a5,a5,-8
   12f20:	00878713          	addi	a4,a5,8
   12f24:	00e12623          	sw	a4,12(sp)
   12f28:	0007ac03          	lw	s8,0(a5)
   12f2c:	0047ae83          	lw	t4,4(a5)
   12f30:	780ac263          	blt	s5,zero,136b4 <_vfprintf_r+0x19e8>
   12f34:	f7fe7b93          	andi	s7,t3,-129
   12f38:	b40a9ce3          	bne	s5,zero,12a90 <_vfprintf_r+0xdc4>
   12f3c:	01dc67b3          	or	a5,s8,t4
   12f40:	b40798e3          	bne	a5,zero,12a90 <_vfprintf_r+0xdc4>
   12f44:	00000313          	addi	t1,zero,0
   12f48:	f25ff06f          	jal	zero,12e6c <_vfprintf_r+0x11a0>
   12f4c:	000d4883          	lbu	a7,0(s10)
   12f50:	008beb93          	ori	s7,s7,8
   12f54:	f19fe06f          	jal	zero,11e6c <_vfprintf_r+0x1a0>
   12f58:	00012703          	lw	a4,0(sp)
   12f5c:	41870db3          	sub	s11,a4,s8
   12f60:	01b04463          	blt	zero,s11,12f68 <_vfprintf_r+0x129c>
   12f64:	828ff06f          	jal	zero,11f8c <_vfprintf_r+0x2c0>
   12f68:	01000e93          	addi	t4,zero,16
   12f6c:	0b812583          	lw	a1,184(sp)
   12f70:	000b3837          	lui	a6,0xb3
   12f74:	01bec463          	blt	t4,s11,12f7c <_vfprintf_r+0x12b0>
   12f78:	2050106f          	jal	zero,1497c <_vfprintf_r+0x2cb0>
   12f7c:	000d8493          	addi	s1,s11,0
   12f80:	02f12e23          	sw	a5,60(sp)
   12f84:	000d0d93          	addi	s11,s10,0
   12f88:	000b0793          	addi	a5,s6,0
   12f8c:	000c8d13          	addi	s10,s9,0
   12f90:	00700293          	addi	t0,zero,7
   12f94:	000c0c93          	addi	s9,s8,0
   12f98:	03112c23          	sw	a7,56(sp)
   12f9c:	000a8c13          	addi	s8,s5,0
   12fa0:	00030b13          	addi	s6,t1,0
   12fa4:	64080a93          	addi	s5,a6,1600 # b3640 <zeroes.0>
   12fa8:	00c0006f          	jal	zero,12fb4 <_vfprintf_r+0x12e8>
   12fac:	ff048493          	addi	s1,s1,-16
   12fb0:	049eda63          	bge	t4,s1,13004 <_vfprintf_r+0x1338>
   12fb4:	01060613          	addi	a2,a2,16
   12fb8:	00158593          	addi	a1,a1,1
   12fbc:	0157a023          	sw	s5,0(a5)
   12fc0:	01d7a223          	sw	t4,4(a5)
   12fc4:	0ac12e23          	sw	a2,188(sp)
   12fc8:	0ab12c23          	sw	a1,184(sp)
   12fcc:	00878793          	addi	a5,a5,8
   12fd0:	fcb2dee3          	bge	t0,a1,12fac <_vfprintf_r+0x12e0>
   12fd4:	00412583          	lw	a1,4(sp)
   12fd8:	0b410613          	addi	a2,sp,180
   12fdc:	00090513          	addi	a0,s2,0
   12fe0:	649010ef          	jal	ra,14e28 <__sprint_r>
   12fe4:	0c051063          	bne	a0,zero,130a4 <_vfprintf_r+0x13d8>
   12fe8:	01000e93          	addi	t4,zero,16
   12fec:	ff048493          	addi	s1,s1,-16
   12ff0:	0bc12603          	lw	a2,188(sp)
   12ff4:	0b812583          	lw	a1,184(sp)
   12ff8:	00098793          	addi	a5,s3,0
   12ffc:	00700293          	addi	t0,zero,7
   13000:	fa9ecae3          	blt	t4,s1,12fb4 <_vfprintf_r+0x12e8>
   13004:	000b0313          	addi	t1,s6,0
   13008:	03812883          	lw	a7,56(sp)
   1300c:	00078b13          	addi	s6,a5,0
   13010:	03c12783          	lw	a5,60(sp)
   13014:	000a8813          	addi	a6,s5,0
   13018:	000c0a93          	addi	s5,s8,0
   1301c:	000c8c13          	addi	s8,s9,0
   13020:	000d0c93          	addi	s9,s10,0
   13024:	000d8d13          	addi	s10,s11,0
   13028:	00048d93          	addi	s11,s1,0
   1302c:	01b60633          	add	a2,a2,s11
   13030:	00158593          	addi	a1,a1,1
   13034:	010b2023          	sw	a6,0(s6)
   13038:	01bb2223          	sw	s11,4(s6)
   1303c:	0ac12e23          	sw	a2,188(sp)
   13040:	0ab12c23          	sw	a1,184(sp)
   13044:	00700713          	addi	a4,zero,7
   13048:	008b0b13          	addi	s6,s6,8
   1304c:	00b74463          	blt	a4,a1,13054 <_vfprintf_r+0x1388>
   13050:	f3dfe06f          	jal	zero,11f8c <_vfprintf_r+0x2c0>
   13054:	00412583          	lw	a1,4(sp)
   13058:	0b410613          	addi	a2,sp,180
   1305c:	00090513          	addi	a0,s2,0
   13060:	04612023          	sw	t1,64(sp)
   13064:	02f12e23          	sw	a5,60(sp)
   13068:	03112c23          	sw	a7,56(sp)
   1306c:	5bd010ef          	jal	ra,14e28 <__sprint_r>
   13070:	02051a63          	bne	a0,zero,130a4 <_vfprintf_r+0x13d8>
   13074:	0bc12603          	lw	a2,188(sp)
   13078:	03812883          	lw	a7,56(sp)
   1307c:	03c12783          	lw	a5,60(sp)
   13080:	04012303          	lw	t1,64(sp)
   13084:	00098b13          	addi	s6,s3,0
   13088:	f05fe06f          	jal	zero,11f8c <_vfprintf_r+0x2c0>
   1308c:	00412583          	lw	a1,4(sp)
   13090:	0b410613          	addi	a2,sp,180
   13094:	00090513          	addi	a0,s2,0
   13098:	591010ef          	jal	ra,14e28 <__sprint_r>
   1309c:	00051463          	bne	a0,zero,130a4 <_vfprintf_r+0x13d8>
   130a0:	f5dfe06f          	jal	zero,11ffc <_vfprintf_r+0x330>
   130a4:	01012583          	lw	a1,16(sp)
   130a8:	00412483          	lw	s1,4(sp)
   130ac:	00058663          	beq	a1,zero,130b8 <_vfprintf_r+0x13ec>
   130b0:	00090513          	addi	a0,s2,0
   130b4:	8b0fe0ef          	jal	ra,11164 <_free_r>
   130b8:	00c4d783          	lhu	a5,12(s1)
   130bc:	1b812403          	lw	s0,440(sp)
   130c0:	1ac12983          	lw	s3,428(sp)
   130c4:	0407f793          	andi	a5,a5,64
   130c8:	1a812a03          	lw	s4,424(sp)
   130cc:	1a412a83          	lw	s5,420(sp)
   130d0:	1a012b03          	lw	s6,416(sp)
   130d4:	19c12b83          	lw	s7,412(sp)
   130d8:	19812c03          	lw	s8,408(sp)
   130dc:	19412c83          	lw	s9,404(sp)
   130e0:	18c12d83          	lw	s11,396(sp)
   130e4:	00078463          	beq	a5,zero,130ec <_vfprintf_r+0x1420>
   130e8:	fb5fe06f          	jal	zero,1209c <_vfprintf_r+0x3d0>
   130ec:	1bc12083          	lw	ra,444(sp)
   130f0:	00812503          	lw	a0,8(sp)
   130f4:	1b412483          	lw	s1,436(sp)
   130f8:	1b012903          	lw	s2,432(sp)
   130fc:	19012d03          	lw	s10,400(sp)
   13100:	1c010113          	addi	sp,sp,448
   13104:	00008067          	jalr	zero,0(ra)
   13108:	00012703          	lw	a4,0(sp)
   1310c:	02012023          	sw	zero,32(sp)
   13110:	00012e23          	sw	zero,28(sp)
   13114:	41870733          	sub	a4,a4,s8
   13118:	00000313          	addi	t1,zero,0
   1311c:	28e04a63          	blt	zero,a4,133b0 <_vfprintf_r+0x16e4>
   13120:	000e9463          	bne	t4,zero,13128 <_vfprintf_r+0x145c>
   13124:	e2dfe06f          	jal	zero,11f50 <_vfprintf_r+0x284>
   13128:	00200713          	addi	a4,zero,2
   1312c:	df1fe06f          	jal	zero,11f1c <_vfprintf_r+0x250>
   13130:	00412583          	lw	a1,4(sp)
   13134:	0b410613          	addi	a2,sp,180
   13138:	00090513          	addi	a0,s2,0
   1313c:	04612023          	sw	t1,64(sp)
   13140:	02f12e23          	sw	a5,60(sp)
   13144:	03112c23          	sw	a7,56(sp)
   13148:	4e1010ef          	jal	ra,14e28 <__sprint_r>
   1314c:	f4051ce3          	bne	a0,zero,130a4 <_vfprintf_r+0x13d8>
   13150:	0bc12603          	lw	a2,188(sp)
   13154:	04012303          	lw	t1,64(sp)
   13158:	03c12783          	lw	a5,60(sp)
   1315c:	03812883          	lw	a7,56(sp)
   13160:	00098b13          	addi	s6,s3,0
   13164:	e1dfe06f          	jal	zero,11f80 <_vfprintf_r+0x2b4>
   13168:	01000c93          	addi	s9,zero,16
   1316c:	0b812783          	lw	a5,184(sp)
   13170:	000b3837          	lui	a6,0xb3
   13174:	015cc463          	blt	s9,s5,1317c <_vfprintf_r+0x14b0>
   13178:	7940106f          	jal	zero,1490c <_vfprintf_r+0x2c40>
   1317c:	00412483          	lw	s1,4(sp)
   13180:	00700d93          	addi	s11,zero,7
   13184:	65080b93          	addi	s7,a6,1616 # b3650 <blanks.1>
   13188:	00c0006f          	jal	zero,13194 <_vfprintf_r+0x14c8>
   1318c:	ff0a8a93          	addi	s5,s5,-16
   13190:	055cd663          	bge	s9,s5,131dc <_vfprintf_r+0x1510>
   13194:	01060613          	addi	a2,a2,16
   13198:	00178793          	addi	a5,a5,1
   1319c:	017b2023          	sw	s7,0(s6)
   131a0:	019b2223          	sw	s9,4(s6)
   131a4:	0ac12e23          	sw	a2,188(sp)
   131a8:	0af12c23          	sw	a5,184(sp)
   131ac:	008b0b13          	addi	s6,s6,8
   131b0:	fcfddee3          	bge	s11,a5,1318c <_vfprintf_r+0x14c0>
   131b4:	0b410613          	addi	a2,sp,180
   131b8:	00048593          	addi	a1,s1,0
   131bc:	00090513          	addi	a0,s2,0
   131c0:	469010ef          	jal	ra,14e28 <__sprint_r>
   131c4:	140514e3          	bne	a0,zero,13b0c <_vfprintf_r+0x1e40>
   131c8:	ff0a8a93          	addi	s5,s5,-16
   131cc:	0bc12603          	lw	a2,188(sp)
   131d0:	0b812783          	lw	a5,184(sp)
   131d4:	00098b13          	addi	s6,s3,0
   131d8:	fb5ccee3          	blt	s9,s5,13194 <_vfprintf_r+0x14c8>
   131dc:	000b8813          	addi	a6,s7,0
   131e0:	01560633          	add	a2,a2,s5
   131e4:	00178793          	addi	a5,a5,1
   131e8:	0ac12e23          	sw	a2,188(sp)
   131ec:	0af12c23          	sw	a5,184(sp)
   131f0:	010b2023          	sw	a6,0(s6)
   131f4:	015b2223          	sw	s5,4(s6)
   131f8:	00700713          	addi	a4,zero,7
   131fc:	00f74463          	blt	a4,a5,13204 <_vfprintf_r+0x1538>
   13200:	dddfe06f          	jal	zero,11fdc <_vfprintf_r+0x310>
   13204:	00412583          	lw	a1,4(sp)
   13208:	0b410613          	addi	a2,sp,180
   1320c:	00090513          	addi	a0,s2,0
   13210:	419010ef          	jal	ra,14e28 <__sprint_r>
   13214:	e80518e3          	bne	a0,zero,130a4 <_vfprintf_r+0x13d8>
   13218:	0bc12603          	lw	a2,188(sp)
   1321c:	dc1fe06f          	jal	zero,11fdc <_vfprintf_r+0x310>
   13220:	18010793          	addi	a5,sp,384
   13224:	01d61593          	slli	a1,a2,0x1d
   13228:	00777693          	andi	a3,a4,7
   1322c:	00375713          	srli	a4,a4,0x3
   13230:	00078513          	addi	a0,a5,0
   13234:	00e58733          	add	a4,a1,a4
   13238:	03068693          	addi	a3,a3,48
   1323c:	00365613          	srli	a2,a2,0x3
   13240:	00c765b3          	or	a1,a4,a2
   13244:	fed78fa3          	sb	a3,-1(a5)
   13248:	fff78793          	addi	a5,a5,-1
   1324c:	fc059ce3          	bne	a1,zero,13224 <_vfprintf_r+0x1558>
   13250:	fd068693          	addi	a3,a3,-48
   13254:	00068663          	beq	a3,zero,13260 <_vfprintf_r+0x1594>
   13258:	001bf713          	andi	a4,s7,1
   1325c:	36071a63          	bne	a4,zero,135d0 <_vfprintf_r+0x1904>
   13260:	18010713          	addi	a4,sp,384
   13264:	40f70cb3          	sub	s9,a4,a5
   13268:	000a8c13          	addi	s8,s5,0
   1326c:	359ac663          	blt	s5,s9,135b8 <_vfprintf_r+0x18ec>
   13270:	00012823          	sw	zero,16(sp)
   13274:	02012023          	sw	zero,32(sp)
   13278:	00012e23          	sw	zero,28(sp)
   1327c:	00000313          	addi	t1,zero,0
   13280:	c7dfe06f          	jal	zero,11efc <_vfprintf_r+0x230>
   13284:	09812503          	lw	a0,152(sp)
   13288:	78a05663          	bge	zero,a0,13a14 <_vfprintf_r+0x1d48>
   1328c:	01812703          	lw	a4,24(sp)
   13290:	00030a93          	addi	s5,t1,0
   13294:	48674863          	blt	a4,t1,13724 <_vfprintf_r+0x1a58>
   13298:	03505663          	bge	zero,s5,132c4 <_vfprintf_r+0x15f8>
   1329c:	0b812703          	lw	a4,184(sp)
   132a0:	01560633          	add	a2,a2,s5
   132a4:	00fb2023          	sw	a5,0(s6)
   132a8:	00170713          	addi	a4,a4,1
   132ac:	015b2223          	sw	s5,4(s6)
   132b0:	0ac12e23          	sw	a2,188(sp)
   132b4:	0ae12c23          	sw	a4,184(sp)
   132b8:	00700593          	addi	a1,zero,7
   132bc:	008b0b13          	addi	s6,s6,8
   132c0:	54e5c4e3          	blt	a1,a4,14008 <_vfprintf_r+0x233c>
   132c4:	fffac713          	xori	a4,s5,-1
   132c8:	41f75713          	srai	a4,a4,0x1f
   132cc:	00eafab3          	and	s5,s5,a4
   132d0:	41530ab3          	sub	s5,t1,s5
   132d4:	55504263          	blt	zero,s5,13818 <_vfprintf_r+0x1b4c>
   132d8:	400bf713          	andi	a4,s7,1024
   132dc:	00678db3          	add	s11,a5,t1
   132e0:	2c0712e3          	bne	a4,zero,13da4 <_vfprintf_r+0x20d8>
   132e4:	09812a83          	lw	s5,152(sp)
   132e8:	01812703          	lw	a4,24(sp)
   132ec:	00eac663          	blt	s5,a4,132f8 <_vfprintf_r+0x162c>
   132f0:	001bf713          	andi	a4,s7,1
   132f4:	5a070ae3          	beq	a4,zero,140a8 <_vfprintf_r+0x23dc>
   132f8:	02412683          	lw	a3,36(sp)
   132fc:	0b812703          	lw	a4,184(sp)
   13300:	00700593          	addi	a1,zero,7
   13304:	00d60633          	add	a2,a2,a3
   13308:	02812683          	lw	a3,40(sp)
   1330c:	00170713          	addi	a4,a4,1
   13310:	0ac12e23          	sw	a2,188(sp)
   13314:	00db2023          	sw	a3,0(s6)
   13318:	02412683          	lw	a3,36(sp)
   1331c:	0ae12c23          	sw	a4,184(sp)
   13320:	008b0b13          	addi	s6,s6,8
   13324:	fedb2e23          	sw	a3,-4(s6)
   13328:	00e5d463          	bge	a1,a4,13330 <_vfprintf_r+0x1664>
   1332c:	4b80106f          	jal	zero,147e4 <_vfprintf_r+0x2b18>
   13330:	01812703          	lw	a4,24(sp)
   13334:	00e787b3          	add	a5,a5,a4
   13338:	41b78cb3          	sub	s9,a5,s11
   1333c:	41570ab3          	sub	s5,a4,s5
   13340:	019ad463          	bge	s5,s9,13348 <_vfprintf_r+0x167c>
   13344:	000a8c93          	addi	s9,s5,0
   13348:	03905863          	bge	zero,s9,13378 <_vfprintf_r+0x16ac>
   1334c:	0b812703          	lw	a4,184(sp)
   13350:	01960633          	add	a2,a2,s9
   13354:	01bb2023          	sw	s11,0(s6)
   13358:	00170713          	addi	a4,a4,1
   1335c:	019b2223          	sw	s9,4(s6)
   13360:	0ac12e23          	sw	a2,188(sp)
   13364:	0ae12c23          	sw	a4,184(sp)
   13368:	00700793          	addi	a5,zero,7
   1336c:	008b0b13          	addi	s6,s6,8
   13370:	00e7d463          	bge	a5,a4,13378 <_vfprintf_r+0x16ac>
   13374:	4ec0106f          	jal	zero,14860 <_vfprintf_r+0x2b94>
   13378:	fffcc713          	xori	a4,s9,-1
   1337c:	41f75713          	srai	a4,a4,0x1f
   13380:	00ecf7b3          	and	a5,s9,a4
   13384:	40fa8ab3          	sub	s5,s5,a5
   13388:	01504463          	blt	zero,s5,13390 <_vfprintf_r+0x16c4>
   1338c:	c39fe06f          	jal	zero,11fc4 <_vfprintf_r+0x2f8>
   13390:	000b3837          	lui	a6,0xb3
   13394:	01000c93          	addi	s9,zero,16
   13398:	0b812783          	lw	a5,184(sp)
   1339c:	00700d93          	addi	s11,zero,7
   133a0:	64080493          	addi	s1,a6,1600 # b3640 <zeroes.0>
   133a4:	515ccc63          	blt	s9,s5,138bc <_vfprintf_r+0x1bf0>
   133a8:	64080813          	addi	a6,a6,1600
   133ac:	7a40006f          	jal	zero,13b50 <_vfprintf_r+0x1e84>
   133b0:	00200d93          	addi	s11,zero,2
   133b4:	01000e93          	addi	t4,zero,16
   133b8:	00080613          	addi	a2,a6,0
   133bc:	00050593          	addi	a1,a0,0
   133c0:	000b3837          	lui	a6,0xb3
   133c4:	00eec463          	blt	t4,a4,133cc <_vfprintf_r+0x1700>
   133c8:	44c0106f          	jal	zero,14814 <_vfprintf_r+0x2b48>
   133cc:	02f12e23          	sw	a5,60(sp)
   133d0:	00700393          	addi	t2,zero,7
   133d4:	000b0793          	addi	a5,s6,0
   133d8:	00070493          	addi	s1,a4,0
   133dc:	000a8b13          	addi	s6,s5,0
   133e0:	03112c23          	sw	a7,56(sp)
   133e4:	04612023          	sw	t1,64(sp)
   133e8:	65080a93          	addi	s5,a6,1616 # b3650 <blanks.1>
   133ec:	00c0006f          	jal	zero,133f8 <_vfprintf_r+0x172c>
   133f0:	ff048493          	addi	s1,s1,-16
   133f4:	049eda63          	bge	t4,s1,13448 <_vfprintf_r+0x177c>
   133f8:	01060613          	addi	a2,a2,16
   133fc:	00158593          	addi	a1,a1,1
   13400:	0157a023          	sw	s5,0(a5)
   13404:	01d7a223          	sw	t4,4(a5)
   13408:	0ac12e23          	sw	a2,188(sp)
   1340c:	0ab12c23          	sw	a1,184(sp)
   13410:	00878793          	addi	a5,a5,8
   13414:	fcb3dee3          	bge	t2,a1,133f0 <_vfprintf_r+0x1724>
   13418:	00412583          	lw	a1,4(sp)
   1341c:	0b410613          	addi	a2,sp,180
   13420:	00090513          	addi	a0,s2,0
   13424:	205010ef          	jal	ra,14e28 <__sprint_r>
   13428:	c6051ee3          	bne	a0,zero,130a4 <_vfprintf_r+0x13d8>
   1342c:	01000e93          	addi	t4,zero,16
   13430:	ff048493          	addi	s1,s1,-16
   13434:	0bc12603          	lw	a2,188(sp)
   13438:	0b812583          	lw	a1,184(sp)
   1343c:	00098793          	addi	a5,s3,0
   13440:	00700393          	addi	t2,zero,7
   13444:	fa9ecae3          	blt	t4,s1,133f8 <_vfprintf_r+0x172c>
   13448:	000a8813          	addi	a6,s5,0
   1344c:	03812883          	lw	a7,56(sp)
   13450:	000b0a93          	addi	s5,s6,0
   13454:	04012303          	lw	t1,64(sp)
   13458:	00078b13          	addi	s6,a5,0
   1345c:	03c12783          	lw	a5,60(sp)
   13460:	00048713          	addi	a4,s1,0
   13464:	00c70633          	add	a2,a4,a2
   13468:	00158593          	addi	a1,a1,1
   1346c:	00eb2223          	sw	a4,4(s6)
   13470:	0ac12e23          	sw	a2,188(sp)
   13474:	0ab12c23          	sw	a1,184(sp)
   13478:	010b2023          	sw	a6,0(s6)
   1347c:	00700713          	addi	a4,zero,7
   13480:	54b74463          	blt	a4,a1,139c8 <_vfprintf_r+0x1cfc>
   13484:	09314703          	lbu	a4,147(sp)
   13488:	008b0b13          	addi	s6,s6,8
   1348c:	12071063          	bne	a4,zero,135ac <_vfprintf_r+0x18e0>
   13490:	000d9463          	bne	s11,zero,13498 <_vfprintf_r+0x17cc>
   13494:	af9fe06f          	jal	zero,11f8c <_vfprintf_r+0x2c0>
   13498:	00000d93          	addi	s11,zero,0
   1349c:	ab5fe06f          	jal	zero,11f50 <_vfprintf_r+0x284>
   134a0:	0b812503          	lw	a0,184(sp)
   134a4:	f11ff06f          	jal	zero,133b4 <_vfprintf_r+0x16e8>
   134a8:	00000c93          	addi	s9,zero,0
   134ac:	00000a93          	addi	s5,zero,0
   134b0:	02012023          	sw	zero,32(sp)
   134b4:	00012e23          	sw	zero,28(sp)
   134b8:	00000313          	addi	t1,zero,0
   134bc:	00012823          	sw	zero,16(sp)
   134c0:	18010793          	addi	a5,sp,384
   134c4:	a39fe06f          	jal	zero,11efc <_vfprintf_r+0x230>
   134c8:	00ebf5b3          	and	a1,s7,a4
   134cc:	86059863          	bne	a1,zero,1253c <_vfprintf_r+0x870>
   134d0:	00fb2023          	sw	a5,0(s6)
   134d4:	00eb2223          	sw	a4,4(s6)
   134d8:	0ac12e23          	sw	a2,188(sp)
   134dc:	0b512c23          	sw	s5,184(sp)
   134e0:	00700793          	addi	a5,zero,7
   134e4:	9357d663          	bge	a5,s5,12610 <_vfprintf_r+0x944>
   134e8:	00412583          	lw	a1,4(sp)
   134ec:	0b410613          	addi	a2,sp,180
   134f0:	00090513          	addi	a0,s2,0
   134f4:	135010ef          	jal	ra,14e28 <__sprint_r>
   134f8:	ba0516e3          	bne	a0,zero,130a4 <_vfprintf_r+0x13d8>
   134fc:	0bc12603          	lw	a2,188(sp)
   13500:	0b812a83          	lw	s5,184(sp)
   13504:	00098d93          	addi	s11,s3,0
   13508:	908ff06f          	jal	zero,12610 <_vfprintf_r+0x944>
   1350c:	01812703          	lw	a4,24(sp)
   13510:	00100793          	addi	a5,zero,1
   13514:	8ee7de63          	bge	a5,a4,12610 <_vfprintf_r+0x944>
   13518:	01100793          	addi	a5,zero,17
   1351c:	000b3837          	lui	a6,0xb3
   13520:	00e7c463          	blt	a5,a4,13528 <_vfprintf_r+0x185c>
   13524:	7800106f          	jal	zero,14ca4 <_vfprintf_r+0x2fd8>
   13528:	01000c93          	addi	s9,zero,16
   1352c:	00700793          	addi	a5,zero,7
   13530:	64080493          	addi	s1,a6,1600 # b3640 <zeroes.0>
   13534:	00c0006f          	jal	zero,13540 <_vfprintf_r+0x1874>
   13538:	ff0b0b13          	addi	s6,s6,-16
   1353c:	716cd863          	bge	s9,s6,13c4c <_vfprintf_r+0x1f80>
   13540:	01060613          	addi	a2,a2,16
   13544:	001a8a93          	addi	s5,s5,1
   13548:	009da023          	sw	s1,0(s11)
   1354c:	019da223          	sw	s9,4(s11)
   13550:	0ac12e23          	sw	a2,188(sp)
   13554:	0b512c23          	sw	s5,184(sp)
   13558:	008d8d93          	addi	s11,s11,8
   1355c:	fd57dee3          	bge	a5,s5,13538 <_vfprintf_r+0x186c>
   13560:	00412583          	lw	a1,4(sp)
   13564:	0b410613          	addi	a2,sp,180
   13568:	00090513          	addi	a0,s2,0
   1356c:	0bd010ef          	jal	ra,14e28 <__sprint_r>
   13570:	b2051ae3          	bne	a0,zero,130a4 <_vfprintf_r+0x13d8>
   13574:	0bc12603          	lw	a2,188(sp)
   13578:	0b812a83          	lw	s5,184(sp)
   1357c:	00098d93          	addi	s11,s3,0
   13580:	00700793          	addi	a5,zero,7
   13584:	fb5ff06f          	jal	zero,13538 <_vfprintf_r+0x186c>
   13588:	001bf793          	andi	a5,s7,1
   1358c:	00079463          	bne	a5,zero,13594 <_vfprintf_r+0x18c8>
   13590:	a35fe06f          	jal	zero,11fc4 <_vfprintf_r+0x2f8>
   13594:	b18ff06f          	jal	zero,128ac <_vfprintf_r+0xbe0>
   13598:	00c12783          	lw	a5,12(sp)
   1359c:	000d4883          	lbu	a7,0(s10)
   135a0:	00478793          	addi	a5,a5,4
   135a4:	00f12623          	sw	a5,12(sp)
   135a8:	8c5fe06f          	jal	zero,11e6c <_vfprintf_r+0x1a0>
   135ac:	000d8713          	addi	a4,s11,0
   135b0:	00000d93          	addi	s11,zero,0
   135b4:	969fe06f          	jal	zero,11f1c <_vfprintf_r+0x250>
   135b8:	000c8c13          	addi	s8,s9,0
   135bc:	00012823          	sw	zero,16(sp)
   135c0:	02012023          	sw	zero,32(sp)
   135c4:	00012e23          	sw	zero,28(sp)
   135c8:	00000313          	addi	t1,zero,0
   135cc:	931fe06f          	jal	zero,11efc <_vfprintf_r+0x230>
   135d0:	ffe50513          	addi	a0,a0,-2
   135d4:	03000713          	addi	a4,zero,48
   135d8:	18010693          	addi	a3,sp,384
   135dc:	40a68cb3          	sub	s9,a3,a0
   135e0:	fee78fa3          	sb	a4,-1(a5)
   135e4:	000a8c13          	addi	s8,s5,0
   135e8:	019ad463          	bge	s5,s9,135f0 <_vfprintf_r+0x1924>
   135ec:	000c8c13          	addi	s8,s9,0
   135f0:	00050793          	addi	a5,a0,0
   135f4:	00012823          	sw	zero,16(sp)
   135f8:	02012023          	sw	zero,32(sp)
   135fc:	00012e23          	sw	zero,28(sp)
   13600:	00000313          	addi	t1,zero,0
   13604:	8f9fe06f          	jal	zero,11efc <_vfprintf_r+0x230>
   13608:	00c12783          	lw	a5,12(sp)
   1360c:	00478793          	addi	a5,a5,4
   13610:	00c12703          	lw	a4,12(sp)
   13614:	00000613          	addi	a2,zero,0
   13618:	00f12623          	sw	a5,12(sp)
   1361c:	00072703          	lw	a4,0(a4)
   13620:	de4ff06f          	jal	zero,12c04 <_vfprintf_r+0xf38>
   13624:	00c12783          	lw	a5,12(sp)
   13628:	00812683          	lw	a3,8(sp)
   1362c:	00812603          	lw	a2,8(sp)
   13630:	0007a783          	lw	a5,0(a5)
   13634:	41f6d693          	srai	a3,a3,0x1f
   13638:	00e12623          	sw	a4,12(sp)
   1363c:	00c7a023          	sw	a2,0(a5)
   13640:	00d7a223          	sw	a3,4(a5)
   13644:	f94fe06f          	jal	zero,11dd8 <_vfprintf_r+0x10c>
   13648:	00c12783          	lw	a5,12(sp)
   1364c:	00478793          	addi	a5,a5,4
   13650:	00c12703          	lw	a4,12(sp)
   13654:	000e0b93          	addi	s7,t3,0
   13658:	00f12623          	sw	a5,12(sp)
   1365c:	00072c03          	lw	s8,0(a4)
   13660:	41fc5e93          	srai	t4,s8,0x1f
   13664:	000e8713          	addi	a4,t4,0
   13668:	b34ff06f          	jal	zero,1299c <_vfprintf_r+0xcd0>
   1366c:	00c12783          	lw	a5,12(sp)
   13670:	00c12703          	lw	a4,12(sp)
   13674:	0007a783          	lw	a5,0(a5)
   13678:	00470713          	addi	a4,a4,4
   1367c:	00e12623          	sw	a4,12(sp)
   13680:	0007a603          	lw	a2,0(a5)
   13684:	0047a683          	lw	a3,4(a5)
   13688:	0087a703          	lw	a4,8(a5)
   1368c:	00c7a783          	lw	a5,12(a5)
   13690:	a61fe06f          	jal	zero,120f0 <_vfprintf_r+0x424>
   13694:	000b8693          	addi	a3,s7,0
   13698:	d50ff06f          	jal	zero,12be8 <_vfprintf_r+0xf1c>
   1369c:	09314e83          	lbu	t4,147(sp)
   136a0:	00100c13          	addi	s8,zero,1
   136a4:	00000313          	addi	t1,zero,0
   136a8:	00100c93          	addi	s9,zero,1
   136ac:	17f10793          	addi	a5,sp,383
   136b0:	c0cff06f          	jal	zero,12abc <_vfprintf_r+0xdf0>
   136b4:	000e0b93          	addi	s7,t3,0
   136b8:	bd8ff06f          	jal	zero,12a90 <_vfprintf_r+0xdc4>
   136bc:	000215b7          	lui	a1,0x21
   136c0:	002beb93          	ori	s7,s7,2
   136c4:	00f12623          	sw	a5,12(sp)
   136c8:	be058593          	addi	a1,a1,-1056 # 20be0 <__clzsi2+0xa4>
   136cc:	00200313          	addi	t1,zero,2
   136d0:	00000e93          	addi	t4,zero,0
   136d4:	07800893          	addi	a7,zero,120
   136d8:	18010793          	addi	a5,sp,384
   136dc:	00f77693          	andi	a3,a4,15
   136e0:	00d586b3          	add	a3,a1,a3
   136e4:	0006c683          	lbu	a3,0(a3)
   136e8:	00475713          	srli	a4,a4,0x4
   136ec:	fff78793          	addi	a5,a5,-1
   136f0:	00d78023          	sb	a3,0(a5)
   136f4:	01c61693          	slli	a3,a2,0x1c
   136f8:	00e68733          	add	a4,a3,a4
   136fc:	00465613          	srli	a2,a2,0x4
   13700:	00c766b3          	or	a3,a4,a2
   13704:	fc069ce3          	bne	a3,zero,136dc <_vfprintf_r+0x1a10>
   13708:	18010713          	addi	a4,sp,384
   1370c:	40f70cb3          	sub	s9,a4,a5
   13710:	000a8c13          	addi	s8,s5,0
   13714:	bb9ad463          	bge	s5,s9,12abc <_vfprintf_r+0xdf0>
   13718:	000c8c13          	addi	s8,s9,0
   1371c:	00012823          	sw	zero,16(sp)
   13720:	ba0ff06f          	jal	zero,12ac0 <_vfprintf_r+0xdf4>
   13724:	00070a93          	addi	s5,a4,0
   13728:	b7504ae3          	blt	zero,s5,1329c <_vfprintf_r+0x15d0>
   1372c:	b99ff06f          	jal	zero,132c4 <_vfprintf_r+0x15f8>
   13730:	fff00a93          	addi	s5,zero,-1
   13734:	00068d13          	addi	s10,a3,0
   13738:	f38fe06f          	jal	zero,11e70 <_vfprintf_r+0x1a4>
   1373c:	001d4883          	lbu	a7,1(s10)
   13740:	020beb93          	ori	s7,s7,32
   13744:	001d0d13          	addi	s10,s10,1
   13748:	f24fe06f          	jal	zero,11e6c <_vfprintf_r+0x1a0>
   1374c:	001d4883          	lbu	a7,1(s10)
   13750:	200beb93          	ori	s7,s7,512
   13754:	001d0d13          	addi	s10,s10,1
   13758:	f14fe06f          	jal	zero,11e6c <_vfprintf_r+0x1a0>
   1375c:	00412583          	lw	a1,4(sp)
   13760:	0b410613          	addi	a2,sp,180
   13764:	00090513          	addi	a0,s2,0
   13768:	6c0010ef          	jal	ra,14e28 <__sprint_r>
   1376c:	92051ce3          	bne	a0,zero,130a4 <_vfprintf_r+0x13d8>
   13770:	0bc12603          	lw	a2,188(sp)
   13774:	00098b13          	addi	s6,s3,0
   13778:	968ff06f          	jal	zero,128e0 <_vfprintf_r+0xc14>
   1377c:	000215b7          	lui	a1,0x21
   13780:	bf458593          	addi	a1,a1,-1036 # 20bf4 <__clzsi2+0xb8>
   13784:	020bf793          	andi	a5,s7,32
   13788:	18078a63          	beq	a5,zero,1391c <_vfprintf_r+0x1c50>
   1378c:	00c12783          	lw	a5,12(sp)
   13790:	00778793          	addi	a5,a5,7
   13794:	ff87f793          	andi	a5,a5,-8
   13798:	00878713          	addi	a4,a5,8
   1379c:	00e12623          	sw	a4,12(sp)
   137a0:	0047a603          	lw	a2,4(a5)
   137a4:	0007a703          	lw	a4,0(a5)
   137a8:	001bf793          	andi	a5,s7,1
   137ac:	00c766b3          	or	a3,a4,a2
   137b0:	00078463          	beq	a5,zero,137b8 <_vfprintf_r+0x1aec>
   137b4:	30069263          	bne	a3,zero,13ab8 <_vfprintf_r+0x1dec>
   137b8:	080109a3          	sb	zero,147(sp)
   137bc:	1e0ace63          	blt	s5,zero,139b8 <_vfprintf_r+0x1cec>
   137c0:	b7fbfb93          	andi	s7,s7,-1153
   137c4:	00000313          	addi	t1,zero,0
   137c8:	000a9463          	bne	s5,zero,137d0 <_vfprintf_r+0x1b04>
   137cc:	ea068063          	beq	a3,zero,12e6c <_vfprintf_r+0x11a0>
   137d0:	09314e83          	lbu	t4,147(sp)
   137d4:	f05ff06f          	jal	zero,136d8 <_vfprintf_r+0x1a0c>
   137d8:	000215b7          	lui	a1,0x21
   137dc:	be058593          	addi	a1,a1,-1056 # 20be0 <__clzsi2+0xa4>
   137e0:	fa5ff06f          	jal	zero,13784 <_vfprintf_r+0x1ab8>
   137e4:	00600793          	addi	a5,zero,6
   137e8:	000a8c13          	addi	s8,s5,0
   137ec:	0157eae3          	bltu	a5,s5,14000 <_vfprintf_r+0x2334>
   137f0:	000217b7          	lui	a5,0x21
   137f4:	00912623          	sw	s1,12(sp)
   137f8:	c0878793          	addi	a5,a5,-1016 # 20c08 <__clzsi2+0xcc>
   137fc:	00012823          	sw	zero,16(sp)
   13800:	000c0c93          	addi	s9,s8,0
   13804:	00000a93          	addi	s5,zero,0
   13808:	02012023          	sw	zero,32(sp)
   1380c:	00012e23          	sw	zero,28(sp)
   13810:	00000313          	addi	t1,zero,0
   13814:	ee8fe06f          	jal	zero,11efc <_vfprintf_r+0x230>
   13818:	01000893          	addi	a7,zero,16
   1381c:	0b812703          	lw	a4,184(sp)
   13820:	000b3837          	lui	a6,0xb3
   13824:	0158c463          	blt	a7,s5,1382c <_vfprintf_r+0x1b60>
   13828:	4a80106f          	jal	zero,14cd0 <_vfprintf_r+0x3004>
   1382c:	000a8493          	addi	s1,s5,0
   13830:	00700c93          	addi	s9,zero,7
   13834:	00078d93          	addi	s11,a5,0
   13838:	02612c23          	sw	t1,56(sp)
   1383c:	64080a93          	addi	s5,a6,1600 # b3640 <zeroes.0>
   13840:	00c0006f          	jal	zero,1384c <_vfprintf_r+0x1b80>
   13844:	ff048493          	addi	s1,s1,-16
   13848:	7498da63          	bge	a7,s1,13f9c <_vfprintf_r+0x22d0>
   1384c:	01060613          	addi	a2,a2,16
   13850:	00170713          	addi	a4,a4,1
   13854:	015b2023          	sw	s5,0(s6)
   13858:	011b2223          	sw	a7,4(s6)
   1385c:	0ac12e23          	sw	a2,188(sp)
   13860:	0ae12c23          	sw	a4,184(sp)
   13864:	008b0b13          	addi	s6,s6,8
   13868:	fcecdee3          	bge	s9,a4,13844 <_vfprintf_r+0x1b78>
   1386c:	00412583          	lw	a1,4(sp)
   13870:	0b410613          	addi	a2,sp,180
   13874:	00090513          	addi	a0,s2,0
   13878:	5b0010ef          	jal	ra,14e28 <__sprint_r>
   1387c:	820514e3          	bne	a0,zero,130a4 <_vfprintf_r+0x13d8>
   13880:	0bc12603          	lw	a2,188(sp)
   13884:	0b812703          	lw	a4,184(sp)
   13888:	00098b13          	addi	s6,s3,0
   1388c:	01000893          	addi	a7,zero,16
   13890:	fb5ff06f          	jal	zero,13844 <_vfprintf_r+0x1b78>
   13894:	00412583          	lw	a1,4(sp)
   13898:	0b410613          	addi	a2,sp,180
   1389c:	00090513          	addi	a0,s2,0
   138a0:	588010ef          	jal	ra,14e28 <__sprint_r>
   138a4:	800510e3          	bne	a0,zero,130a4 <_vfprintf_r+0x13d8>
   138a8:	0bc12603          	lw	a2,188(sp)
   138ac:	0b812783          	lw	a5,184(sp)
   138b0:	00098b13          	addi	s6,s3,0
   138b4:	ff0a8a93          	addi	s5,s5,-16
   138b8:	295cda63          	bge	s9,s5,13b4c <_vfprintf_r+0x1e80>
   138bc:	01060613          	addi	a2,a2,16
   138c0:	00178793          	addi	a5,a5,1
   138c4:	009b2023          	sw	s1,0(s6)
   138c8:	019b2223          	sw	s9,4(s6)
   138cc:	0ac12e23          	sw	a2,188(sp)
   138d0:	0af12c23          	sw	a5,184(sp)
   138d4:	008b0b13          	addi	s6,s6,8
   138d8:	fcfddee3          	bge	s11,a5,138b4 <_vfprintf_r+0x1be8>
   138dc:	fb9ff06f          	jal	zero,13894 <_vfprintf_r+0x1bc8>
   138e0:	00078513          	addi	a0,a5,0
   138e4:	01112823          	sw	a7,16(sp)
   138e8:	00f12623          	sw	a5,12(sp)
   138ec:	46c020ef          	jal	ra,15d58 <strlen>
   138f0:	09314703          	lbu	a4,147(sp)
   138f4:	fff54693          	xori	a3,a0,-1
   138f8:	41f6d693          	srai	a3,a3,0x1f
   138fc:	00c12783          	lw	a5,12(sp)
   13900:	01012883          	lw	a7,16(sp)
   13904:	00050c93          	addi	s9,a0,0
   13908:	00d57c33          	and	s8,a0,a3
   1390c:	00071463          	bne	a4,zero,13914 <_vfprintf_r+0x1c48>
   13910:	dbdfe06f          	jal	zero,126cc <_vfprintf_r+0xa00>
   13914:	001c0c13          	addi	s8,s8,1
   13918:	db5fe06f          	jal	zero,126cc <_vfprintf_r+0xa00>
   1391c:	00c12683          	lw	a3,12(sp)
   13920:	00c12703          	lw	a4,12(sp)
   13924:	010bf793          	andi	a5,s7,16
   13928:	00468693          	addi	a3,a3,4
   1392c:	00d12623          	sw	a3,12(sp)
   13930:	00072703          	lw	a4,0(a4)
   13934:	06079e63          	bne	a5,zero,139b0 <_vfprintf_r+0x1ce4>
   13938:	040bf793          	andi	a5,s7,64
   1393c:	06078663          	beq	a5,zero,139a8 <_vfprintf_r+0x1cdc>
   13940:	01071713          	slli	a4,a4,0x10
   13944:	01075713          	srli	a4,a4,0x10
   13948:	00000613          	addi	a2,zero,0
   1394c:	e5dff06f          	jal	zero,137a8 <_vfprintf_r+0x1adc>
   13950:	00412583          	lw	a1,4(sp)
   13954:	0b410613          	addi	a2,sp,180
   13958:	00090513          	addi	a0,s2,0
   1395c:	00f12e23          	sw	a5,28(sp)
   13960:	4c8010ef          	jal	ra,14e28 <__sprint_r>
   13964:	f4051063          	bne	a0,zero,130a4 <_vfprintf_r+0x13d8>
   13968:	0bc12603          	lw	a2,188(sp)
   1396c:	0b812a83          	lw	s5,184(sp)
   13970:	01c12783          	lw	a5,28(sp)
   13974:	00098d93          	addi	s11,s3,0
   13978:	be5fe06f          	jal	zero,1255c <_vfprintf_r+0x890>
   1397c:	00412583          	lw	a1,4(sp)
   13980:	0b410613          	addi	a2,sp,180
   13984:	00090513          	addi	a0,s2,0
   13988:	00f12e23          	sw	a5,28(sp)
   1398c:	49c010ef          	jal	ra,14e28 <__sprint_r>
   13990:	f0051a63          	bne	a0,zero,130a4 <_vfprintf_r+0x13d8>
   13994:	0bc12603          	lw	a2,188(sp)
   13998:	0b812a83          	lw	s5,184(sp)
   1399c:	01c12783          	lw	a5,28(sp)
   139a0:	00098d93          	addi	s11,s3,0
   139a4:	bedfe06f          	jal	zero,12590 <_vfprintf_r+0x8c4>
   139a8:	200bf793          	andi	a5,s7,512
   139ac:	74079e63          	bne	a5,zero,14108 <_vfprintf_r+0x243c>
   139b0:	00000613          	addi	a2,zero,0
   139b4:	df5ff06f          	jal	zero,137a8 <_vfprintf_r+0x1adc>
   139b8:	bffbfb93          	andi	s7,s7,-1025
   139bc:	00000313          	addi	t1,zero,0
   139c0:	00000e93          	addi	t4,zero,0
   139c4:	d15ff06f          	jal	zero,136d8 <_vfprintf_r+0x1a0c>
   139c8:	00412583          	lw	a1,4(sp)
   139cc:	0b410613          	addi	a2,sp,180
   139d0:	00090513          	addi	a0,s2,0
   139d4:	04612023          	sw	t1,64(sp)
   139d8:	02f12e23          	sw	a5,60(sp)
   139dc:	03112c23          	sw	a7,56(sp)
   139e0:	448010ef          	jal	ra,14e28 <__sprint_r>
   139e4:	ec051063          	bne	a0,zero,130a4 <_vfprintf_r+0x13d8>
   139e8:	09314703          	lbu	a4,147(sp)
   139ec:	0bc12603          	lw	a2,188(sp)
   139f0:	03812883          	lw	a7,56(sp)
   139f4:	03c12783          	lw	a5,60(sp)
   139f8:	04012303          	lw	t1,64(sp)
   139fc:	22070e63          	beq	a4,zero,13c38 <_vfprintf_r+0x1f6c>
   13a00:	000d8713          	addi	a4,s11,0
   13a04:	0b812583          	lw	a1,184(sp)
   13a08:	00000d93          	addi	s11,zero,0
   13a0c:	00098b13          	addi	s6,s3,0
   13a10:	d0cfe06f          	jal	zero,11f1c <_vfprintf_r+0x250>
   13a14:	0b812703          	lw	a4,184(sp)
   13a18:	000215b7          	lui	a1,0x21
   13a1c:	c1058593          	addi	a1,a1,-1008 # 20c10 <__clzsi2+0xd4>
   13a20:	00bb2023          	sw	a1,0(s6)
   13a24:	00160613          	addi	a2,a2,1
   13a28:	00100593          	addi	a1,zero,1
   13a2c:	00170713          	addi	a4,a4,1
   13a30:	00bb2223          	sw	a1,4(s6)
   13a34:	0ac12e23          	sw	a2,188(sp)
   13a38:	0ae12c23          	sw	a4,184(sp)
   13a3c:	00700593          	addi	a1,zero,7
   13a40:	008b0b13          	addi	s6,s6,8
   13a44:	44e5c0e3          	blt	a1,a4,14684 <_vfprintf_r+0x29b8>
   13a48:	01812703          	lw	a4,24(sp)
   13a4c:	00a76733          	or	a4,a4,a0
   13a50:	5e070463          	beq	a4,zero,14038 <_vfprintf_r+0x236c>
   13a54:	02412683          	lw	a3,36(sp)
   13a58:	0b812703          	lw	a4,184(sp)
   13a5c:	00700593          	addi	a1,zero,7
   13a60:	00c68633          	add	a2,a3,a2
   13a64:	02812683          	lw	a3,40(sp)
   13a68:	00170713          	addi	a4,a4,1
   13a6c:	0ac12e23          	sw	a2,188(sp)
   13a70:	00db2023          	sw	a3,0(s6)
   13a74:	02412683          	lw	a3,36(sp)
   13a78:	0ae12c23          	sw	a4,184(sp)
   13a7c:	008b0b13          	addi	s6,s6,8
   13a80:	fedb2e23          	sw	a3,-4(s6)
   13a84:	5ee5c863          	blt	a1,a4,14074 <_vfprintf_r+0x23a8>
   13a88:	600544e3          	blt	a0,zero,14890 <_vfprintf_r+0x2bc4>
   13a8c:	01812683          	lw	a3,24(sp)
   13a90:	00170713          	addi	a4,a4,1
   13a94:	00fb2023          	sw	a5,0(s6)
   13a98:	00c68633          	add	a2,a3,a2
   13a9c:	0ac12e23          	sw	a2,188(sp)
   13aa0:	0ae12c23          	sw	a4,184(sp)
   13aa4:	00db2223          	sw	a3,4(s6)
   13aa8:	00700793          	addi	a5,zero,7
   13aac:	00e7c463          	blt	a5,a4,13ab4 <_vfprintf_r+0x1de8>
   13ab0:	d10fe06f          	jal	zero,11fc0 <_vfprintf_r+0x2f4>
   13ab4:	b8dfe06f          	jal	zero,12640 <_vfprintf_r+0x974>
   13ab8:	03000793          	addi	a5,zero,48
   13abc:	09110aa3          	sb	a7,149(sp)
   13ac0:	080109a3          	sb	zero,147(sp)
   13ac4:	08f10a23          	sb	a5,148(sp)
   13ac8:	2c0ac463          	blt	s5,zero,13d90 <_vfprintf_r+0x20c4>
   13acc:	b7fbfe13          	andi	t3,s7,-1153
   13ad0:	09314e83          	lbu	t4,147(sp)
   13ad4:	002e6b93          	ori	s7,t3,2
   13ad8:	00200313          	addi	t1,zero,2
   13adc:	bfdff06f          	jal	zero,136d8 <_vfprintf_r+0x1a0c>
   13ae0:	00090513          	addi	a0,s2,0
   13ae4:	d31fc0ef          	jal	ra,10814 <__sinit>
   13ae8:	a34fe06f          	jal	zero,11d1c <_vfprintf_r+0x50>
   13aec:	00412583          	lw	a1,4(sp)
   13af0:	0b410613          	addi	a2,sp,180
   13af4:	00090513          	addi	a0,s2,0
   13af8:	330010ef          	jal	ra,14e28 <__sprint_r>
   13afc:	da051463          	bne	a0,zero,130a4 <_vfprintf_r+0x13d8>
   13b00:	0bc12603          	lw	a2,188(sp)
   13b04:	00098b13          	addi	s6,s3,0
   13b08:	d99fe06f          	jal	zero,128a0 <_vfprintf_r+0xbd4>
   13b0c:	01012583          	lw	a1,16(sp)
   13b10:	d9cff06f          	jal	zero,130ac <_vfprintf_r+0x13e0>
   13b14:	640e9863          	bne	t4,zero,14164 <_vfprintf_r+0x2498>
   13b18:	00900713          	addi	a4,zero,9
   13b1c:	65876463          	bltu	a4,s8,14164 <_vfprintf_r+0x2498>
   13b20:	18010713          	addi	a4,sp,384
   13b24:	00b12c23          	sw	a1,24(sp)
   13b28:	40f70cb3          	sub	s9,a4,a5
   13b2c:	00048893          	addi	a7,s1,0
   13b30:	000a8c13          	addi	s8,s5,0
   13b34:	019ad463          	bge	s5,s9,13b3c <_vfprintf_r+0x1e70>
   13b38:	000c8c13          	addi	s8,s9,0
   13b3c:	09314e83          	lbu	t4,147(sp)
   13b40:	00000313          	addi	t1,zero,0
   13b44:	00012823          	sw	zero,16(sp)
   13b48:	f79fe06f          	jal	zero,12ac0 <_vfprintf_r+0xdf4>
   13b4c:	00048813          	addi	a6,s1,0
   13b50:	01560633          	add	a2,a2,s5
   13b54:	00178793          	addi	a5,a5,1
   13b58:	0ac12e23          	sw	a2,188(sp)
   13b5c:	0af12c23          	sw	a5,184(sp)
   13b60:	010b2023          	sw	a6,0(s6)
   13b64:	015b2223          	sw	s5,4(s6)
   13b68:	00700713          	addi	a4,zero,7
   13b6c:	00f74463          	blt	a4,a5,13b74 <_vfprintf_r+0x1ea8>
   13b70:	c50fe06f          	jal	zero,11fc0 <_vfprintf_r+0x2f4>
   13b74:	acdfe06f          	jal	zero,12640 <_vfprintf_r+0x974>
   13b78:	0c012703          	lw	a4,192(sp)
   13b7c:	0c412783          	lw	a5,196(sp)
   13b80:	07010593          	addi	a1,sp,112
   13b84:	08e12023          	sw	a4,128(sp)
   13b88:	08f12223          	sw	a5,132(sp)
   13b8c:	0c812703          	lw	a4,200(sp)
   13b90:	0cc12783          	lw	a5,204(sp)
   13b94:	08010513          	addi	a0,sp,128
   13b98:	06012823          	sw	zero,112(sp)
   13b9c:	06012a23          	sw	zero,116(sp)
   13ba0:	06012c23          	sw	zero,120(sp)
   13ba4:	06012e23          	sw	zero,124(sp)
   13ba8:	08e12423          	sw	a4,136(sp)
   13bac:	08f12623          	sw	a5,140(sp)
   13bb0:	73c0a0ef          	jal	ra,1e2ec <__letf2>
   13bb4:	01012883          	lw	a7,16(sp)
   13bb8:	f7fbfb93          	andi	s7,s7,-129
   13bbc:	400546e3          	blt	a0,zero,147c8 <_vfprintf_r+0x2afc>
   13bc0:	04700793          	addi	a5,zero,71
   13bc4:	09314703          	lbu	a4,147(sp)
   13bc8:	5917c863          	blt	a5,a7,14158 <_vfprintf_r+0x248c>
   13bcc:	000217b7          	lui	a5,0x21
   13bd0:	bd078793          	addi	a5,a5,-1072 # 20bd0 <__clzsi2+0x94>
   13bd4:	18071863          	bne	a4,zero,13d64 <_vfprintf_r+0x2098>
   13bd8:	00300c93          	addi	s9,zero,3
   13bdc:	000c8c13          	addi	s8,s9,0
   13be0:	af1fe06f          	jal	zero,126d0 <_vfprintf_r+0xa04>
   13be4:	00c12783          	lw	a5,12(sp)
   13be8:	00812683          	lw	a3,8(sp)
   13bec:	0007a783          	lw	a5,0(a5)
   13bf0:	00d7a023          	sw	a3,0(a5)
   13bf4:	00e12623          	sw	a4,12(sp)
   13bf8:	9e0fe06f          	jal	zero,11dd8 <_vfprintf_r+0x10c>
   13bfc:	000215b7          	lui	a1,0x21
   13c00:	09314e83          	lbu	t4,147(sp)
   13c04:	00f12623          	sw	a5,12(sp)
   13c08:	be058593          	addi	a1,a1,-1056 # 20be0 <__clzsi2+0xa4>
   13c0c:	07800893          	addi	a7,zero,120
   13c10:	00200313          	addi	t1,zero,2
   13c14:	ac5ff06f          	jal	zero,136d8 <_vfprintf_r+0x1a0c>
   13c18:	0bc12783          	lw	a5,188(sp)
   13c1c:	00412483          	lw	s1,4(sp)
   13c20:	c8078c63          	beq	a5,zero,130b8 <_vfprintf_r+0x13ec>
   13c24:	00090513          	addi	a0,s2,0
   13c28:	0b410613          	addi	a2,sp,180
   13c2c:	00048593          	addi	a1,s1,0
   13c30:	1f8010ef          	jal	ra,14e28 <__sprint_r>
   13c34:	c84ff06f          	jal	zero,130b8 <_vfprintf_r+0x13ec>
   13c38:	480d8663          	beq	s11,zero,140c4 <_vfprintf_r+0x23f8>
   13c3c:	0b812583          	lw	a1,184(sp)
   13c40:	00000d93          	addi	s11,zero,0
   13c44:	00098b13          	addi	s6,s3,0
   13c48:	b08fe06f          	jal	zero,11f50 <_vfprintf_r+0x284>
   13c4c:	00048813          	addi	a6,s1,0
   13c50:	01660633          	add	a2,a2,s6
   13c54:	001a8a93          	addi	s5,s5,1
   13c58:	0ac12e23          	sw	a2,188(sp)
   13c5c:	0b512c23          	sw	s5,184(sp)
   13c60:	010da023          	sw	a6,0(s11)
   13c64:	016da223          	sw	s6,4(s11)
   13c68:	00700793          	addi	a5,zero,7
   13c6c:	0157c463          	blt	a5,s5,13c74 <_vfprintf_r+0x1fa8>
   13c70:	99dfe06f          	jal	zero,1260c <_vfprintf_r+0x940>
   13c74:	875ff06f          	jal	zero,134e8 <_vfprintf_r+0x181c>
   13c78:	200bf693          	andi	a3,s7,512
   13c7c:	48068c63          	beq	a3,zero,14114 <_vfprintf_r+0x2448>
   13c80:	0ff77713          	andi	a4,a4,255
   13c84:	00f12623          	sw	a5,12(sp)
   13c88:	000b8693          	addi	a3,s7,0
   13c8c:	00000613          	addi	a2,zero,0
   13c90:	f75fe06f          	jal	zero,12c04 <_vfprintf_r+0xf38>
   13c94:	200bf313          	andi	t1,s7,512
   13c98:	080109a3          	sb	zero,147(sp)
   13c9c:	44031c63          	bne	t1,zero,140f4 <_vfprintf_r+0x2428>
   13ca0:	00000e93          	addi	t4,zero,0
   13ca4:	000ad463          	bge	s5,zero,13cac <_vfprintf_r+0x1fe0>
   13ca8:	dedfe06f          	jal	zero,12a94 <_vfprintf_r+0xdc8>
   13cac:	f7fbfb93          	andi	s7,s7,-129
   13cb0:	000a8463          	beq	s5,zero,13cb8 <_vfprintf_r+0x1fec>
   13cb4:	de1fe06f          	jal	zero,12a94 <_vfprintf_r+0xdc8>
   13cb8:	9a0c0a63          	beq	s8,zero,12e6c <_vfprintf_r+0x11a0>
   13cbc:	dd9fe06f          	jal	zero,12a94 <_vfprintf_r+0xdc8>
   13cc0:	200bf713          	andi	a4,s7,512
   13cc4:	42070063          	beq	a4,zero,140e4 <_vfprintf_r+0x2418>
   13cc8:	018c1c13          	slli	s8,s8,0x18
   13ccc:	418c5c13          	srai	s8,s8,0x18
   13cd0:	41fc5e93          	srai	t4,s8,0x1f
   13cd4:	00f12623          	sw	a5,12(sp)
   13cd8:	000e8713          	addi	a4,t4,0
   13cdc:	cc1fe06f          	jal	zero,1299c <_vfprintf_r+0xcd0>
   13ce0:	00012823          	sw	zero,16(sp)
   13ce4:	00000c93          	addi	s9,zero,0
   13ce8:	02012023          	sw	zero,32(sp)
   13cec:	00012e23          	sw	zero,28(sp)
   13cf0:	00000313          	addi	t1,zero,0
   13cf4:	18010793          	addi	a5,sp,384
   13cf8:	00000c13          	addi	s8,zero,0
   13cfc:	a00fe06f          	jal	zero,11efc <_vfprintf_r+0x230>
   13d00:	100be713          	ori	a4,s7,256
   13d04:	fff00793          	addi	a5,zero,-1
   13d08:	00e12823          	sw	a4,16(sp)
   13d0c:	0c012e83          	lw	t4,192(sp)
   13d10:	0c412f03          	lw	t5,196(sp)
   13d14:	0c812283          	lw	t0,200(sp)
   13d18:	0cc12c83          	lw	s9,204(sp)
   13d1c:	56fa8463          	beq	s5,a5,14284 <_vfprintf_r+0x25b8>
   13d20:	fb9c0793          	addi	a5,s8,-71
   13d24:	00079463          	bne	a5,zero,13d2c <_vfprintf_r+0x2060>
   13d28:	6e0a8263          	beq	s5,zero,1440c <_vfprintf_r+0x2740>
   13d2c:	420ccee3          	blt	s9,zero,14968 <_vfprintf_r+0x2c9c>
   13d30:	02012c23          	sw	zero,56(sp)
   13d34:	55c0006f          	jal	zero,14290 <_vfprintf_r+0x25c4>
   13d38:	0cc12f83          	lw	t6,204(sp)
   13d3c:	800007b7          	lui	a5,0x80000
   13d40:	f7fbfb93          	andi	s7,s7,-129
   13d44:	00fff333          	and	t1,t6,a5
   13d48:	3c030e63          	beq	t1,zero,14124 <_vfprintf_r+0x2458>
   13d4c:	02d00793          	addi	a5,zero,45
   13d50:	08f109a3          	sb	a5,147(sp)
   13d54:	04700793          	addi	a5,zero,71
   13d58:	4f17d6e3          	bge	a5,a7,14a44 <_vfprintf_r+0x2d78>
   13d5c:	000217b7          	lui	a5,0x21
   13d60:	bdc78793          	addi	a5,a5,-1060 # 20bdc <__clzsi2+0xa0>
   13d64:	00012823          	sw	zero,16(sp)
   13d68:	00300c93          	addi	s9,zero,3
   13d6c:	00000a93          	addi	s5,zero,0
   13d70:	02012023          	sw	zero,32(sp)
   13d74:	00012e23          	sw	zero,28(sp)
   13d78:	00000313          	addi	t1,zero,0
   13d7c:	00400c13          	addi	s8,zero,4
   13d80:	97cfe06f          	jal	zero,11efc <_vfprintf_r+0x230>
   13d84:	00f12623          	sw	a5,12(sp)
   13d88:	000e0b93          	addi	s7,t3,0
   13d8c:	d09fe06f          	jal	zero,12a94 <_vfprintf_r+0xdc8>
   13d90:	bffbfe13          	andi	t3,s7,-1025
   13d94:	002e6b93          	ori	s7,t3,2
   13d98:	00200313          	addi	t1,zero,2
   13d9c:	00000e93          	addi	t4,zero,0
   13da0:	939ff06f          	jal	zero,136d8 <_vfprintf_r+0x1a0c>
   13da4:	01c12703          	lw	a4,28(sp)
   13da8:	02012683          	lw	a3,32(sp)
   13dac:	00d76733          	or	a4,a4,a3
   13db0:	72070ee3          	beq	a4,zero,14cec <_vfprintf_r+0x3020>
   13db4:	01812703          	lw	a4,24(sp)
   13db8:	03712e23          	sw	s7,60(sp)
   13dbc:	05812023          	sw	s8,64(sp)
   13dc0:	000d8b93          	addi	s7,s11,0
   13dc4:	05a12423          	sw	s10,72(sp)
   13dc8:	01c12a83          	lw	s5,28(sp)
   13dcc:	02012d83          	lw	s11,32(sp)
   13dd0:	04412c03          	lw	s8,68(sp)
   13dd4:	03012d03          	lw	s10,48(sp)
   13dd8:	000b38b7          	lui	a7,0xb3
   13ddc:	000b0693          	addi	a3,s6,0
   13de0:	64088893          	addi	a7,a7,1600 # b3640 <zeroes.0>
   13de4:	00700813          	addi	a6,zero,7
   13de8:	01000c93          	addi	s9,zero,16
   13dec:	02f12c23          	sw	a5,56(sp)
   13df0:	00e78b33          	add	s6,a5,a4
   13df4:	09b04a63          	blt	zero,s11,13e88 <_vfprintf_r+0x21bc>
   13df8:	fffd0d13          	addi	s10,s10,-1
   13dfc:	fffa8a93          	addi	s5,s5,-1
   13e00:	0b812783          	lw	a5,184(sp)
   13e04:	03412703          	lw	a4,52(sp)
   13e08:	01860633          	add	a2,a2,s8
   13e0c:	00178793          	addi	a5,a5,1
   13e10:	00e6a023          	sw	a4,0(a3)
   13e14:	0186a223          	sw	s8,4(a3)
   13e18:	0ac12e23          	sw	a2,188(sp)
   13e1c:	0af12c23          	sw	a5,184(sp)
   13e20:	00868693          	addi	a3,a3,8
   13e24:	10f84a63          	blt	a6,a5,13f38 <_vfprintf_r+0x226c>
   13e28:	000d4583          	lbu	a1,0(s10)
   13e2c:	417b04b3          	sub	s1,s6,s7
   13e30:	000b0713          	addi	a4,s6,0
   13e34:	0095d463          	bge	a1,s1,13e3c <_vfprintf_r+0x2170>
   13e38:	00058493          	addi	s1,a1,0
   13e3c:	02905663          	bge	zero,s1,13e68 <_vfprintf_r+0x219c>
   13e40:	0b812583          	lw	a1,184(sp)
   13e44:	00960633          	add	a2,a2,s1
   13e48:	0ac12e23          	sw	a2,188(sp)
   13e4c:	00158593          	addi	a1,a1,1
   13e50:	0176a023          	sw	s7,0(a3)
   13e54:	0096a223          	sw	s1,4(a3)
   13e58:	0ab12c23          	sw	a1,184(sp)
   13e5c:	10b84463          	blt	a6,a1,13f64 <_vfprintf_r+0x2298>
   13e60:	000d4583          	lbu	a1,0(s10)
   13e64:	00868693          	addi	a3,a3,8
   13e68:	fff4c513          	xori	a0,s1,-1
   13e6c:	41f55513          	srai	a0,a0,0x1f
   13e70:	00a4f7b3          	and	a5,s1,a0
   13e74:	40f584b3          	sub	s1,a1,a5
   13e78:	00904c63          	blt	zero,s1,13e90 <_vfprintf_r+0x21c4>
   13e7c:	00bb8bb3          	add	s7,s7,a1
   13e80:	f7504ae3          	blt	zero,s5,13df4 <_vfprintf_r+0x2128>
   13e84:	55b05e63          	bge	zero,s11,143e0 <_vfprintf_r+0x2714>
   13e88:	fffd8d93          	addi	s11,s11,-1
   13e8c:	f75ff06f          	jal	zero,13e00 <_vfprintf_r+0x2134>
   13e90:	000b32b7          	lui	t0,0xb3
   13e94:	0b812583          	lw	a1,184(sp)
   13e98:	64028293          	addi	t0,t0,1600 # b3640 <zeroes.0>
   13e9c:	069cda63          	bge	s9,s1,13f10 <_vfprintf_r+0x2244>
   13ea0:	00e12e23          	sw	a4,28(sp)
   13ea4:	03112023          	sw	a7,32(sp)
   13ea8:	00c0006f          	jal	zero,13eb4 <_vfprintf_r+0x21e8>
   13eac:	ff048493          	addi	s1,s1,-16
   13eb0:	049cdc63          	bge	s9,s1,13f08 <_vfprintf_r+0x223c>
   13eb4:	01060613          	addi	a2,a2,16
   13eb8:	00158593          	addi	a1,a1,1
   13ebc:	0116a023          	sw	a7,0(a3)
   13ec0:	0196a223          	sw	s9,4(a3)
   13ec4:	0ac12e23          	sw	a2,188(sp)
   13ec8:	0ab12c23          	sw	a1,184(sp)
   13ecc:	00868693          	addi	a3,a3,8
   13ed0:	fcb85ee3          	bge	a6,a1,13eac <_vfprintf_r+0x21e0>
   13ed4:	00412583          	lw	a1,4(sp)
   13ed8:	0b410613          	addi	a2,sp,180
   13edc:	00090513          	addi	a0,s2,0
   13ee0:	749000ef          	jal	ra,14e28 <__sprint_r>
   13ee4:	9c051063          	bne	a0,zero,130a4 <_vfprintf_r+0x13d8>
   13ee8:	000b37b7          	lui	a5,0xb3
   13eec:	ff048493          	addi	s1,s1,-16
   13ef0:	0bc12603          	lw	a2,188(sp)
   13ef4:	0b812583          	lw	a1,184(sp)
   13ef8:	00098693          	addi	a3,s3,0
   13efc:	64078893          	addi	a7,a5,1600 # b3640 <zeroes.0>
   13f00:	00700813          	addi	a6,zero,7
   13f04:	fa9cc8e3          	blt	s9,s1,13eb4 <_vfprintf_r+0x21e8>
   13f08:	01c12703          	lw	a4,28(sp)
   13f0c:	02012283          	lw	t0,32(sp)
   13f10:	00960633          	add	a2,a2,s1
   13f14:	00158593          	addi	a1,a1,1
   13f18:	0ac12e23          	sw	a2,188(sp)
   13f1c:	0ab12c23          	sw	a1,184(sp)
   13f20:	0056a023          	sw	t0,0(a3)
   13f24:	0096a223          	sw	s1,4(a3)
   13f28:	78b84663          	blt	a6,a1,146b4 <_vfprintf_r+0x29e8>
   13f2c:	000d4583          	lbu	a1,0(s10)
   13f30:	00868693          	addi	a3,a3,8
   13f34:	f49ff06f          	jal	zero,13e7c <_vfprintf_r+0x21b0>
   13f38:	00412583          	lw	a1,4(sp)
   13f3c:	0b410613          	addi	a2,sp,180
   13f40:	00090513          	addi	a0,s2,0
   13f44:	6e5000ef          	jal	ra,14e28 <__sprint_r>
   13f48:	94051e63          	bne	a0,zero,130a4 <_vfprintf_r+0x13d8>
   13f4c:	000b37b7          	lui	a5,0xb3
   13f50:	0bc12603          	lw	a2,188(sp)
   13f54:	00098693          	addi	a3,s3,0
   13f58:	64078893          	addi	a7,a5,1600 # b3640 <zeroes.0>
   13f5c:	00700813          	addi	a6,zero,7
   13f60:	ec9ff06f          	jal	zero,13e28 <_vfprintf_r+0x215c>
   13f64:	00412583          	lw	a1,4(sp)
   13f68:	0b410613          	addi	a2,sp,180
   13f6c:	00090513          	addi	a0,s2,0
   13f70:	00e12e23          	sw	a4,28(sp)
   13f74:	6b5000ef          	jal	ra,14e28 <__sprint_r>
   13f78:	92051663          	bne	a0,zero,130a4 <_vfprintf_r+0x13d8>
   13f7c:	000b37b7          	lui	a5,0xb3
   13f80:	000d4583          	lbu	a1,0(s10)
   13f84:	0bc12603          	lw	a2,188(sp)
   13f88:	01c12703          	lw	a4,28(sp)
   13f8c:	00098693          	addi	a3,s3,0
   13f90:	64078893          	addi	a7,a5,1600 # b3640 <zeroes.0>
   13f94:	00700813          	addi	a6,zero,7
   13f98:	ed1ff06f          	jal	zero,13e68 <_vfprintf_r+0x219c>
   13f9c:	03812303          	lw	t1,56(sp)
   13fa0:	000a8813          	addi	a6,s5,0
   13fa4:	000d8793          	addi	a5,s11,0
   13fa8:	00048a93          	addi	s5,s1,0
   13fac:	01560633          	add	a2,a2,s5
   13fb0:	00170713          	addi	a4,a4,1
   13fb4:	010b2023          	sw	a6,0(s6)
   13fb8:	015b2223          	sw	s5,4(s6)
   13fbc:	0ac12e23          	sw	a2,188(sp)
   13fc0:	0ae12c23          	sw	a4,184(sp)
   13fc4:	00700593          	addi	a1,zero,7
   13fc8:	008b0b13          	addi	s6,s6,8
   13fcc:	b0e5d663          	bge	a1,a4,132d8 <_vfprintf_r+0x160c>
   13fd0:	00412583          	lw	a1,4(sp)
   13fd4:	0b410613          	addi	a2,sp,180
   13fd8:	00090513          	addi	a0,s2,0
   13fdc:	02612e23          	sw	t1,60(sp)
   13fe0:	02f12c23          	sw	a5,56(sp)
   13fe4:	645000ef          	jal	ra,14e28 <__sprint_r>
   13fe8:	8a051e63          	bne	a0,zero,130a4 <_vfprintf_r+0x13d8>
   13fec:	0bc12603          	lw	a2,188(sp)
   13ff0:	03c12303          	lw	t1,60(sp)
   13ff4:	03812783          	lw	a5,56(sp)
   13ff8:	00098b13          	addi	s6,s3,0
   13ffc:	adcff06f          	jal	zero,132d8 <_vfprintf_r+0x160c>
   14000:	00078c13          	addi	s8,a5,0
   14004:	fecff06f          	jal	zero,137f0 <_vfprintf_r+0x1b24>
   14008:	00412583          	lw	a1,4(sp)
   1400c:	0b410613          	addi	a2,sp,180
   14010:	00090513          	addi	a0,s2,0
   14014:	02612e23          	sw	t1,60(sp)
   14018:	02f12c23          	sw	a5,56(sp)
   1401c:	60d000ef          	jal	ra,14e28 <__sprint_r>
   14020:	88051263          	bne	a0,zero,130a4 <_vfprintf_r+0x13d8>
   14024:	0bc12603          	lw	a2,188(sp)
   14028:	03c12303          	lw	t1,60(sp)
   1402c:	03812783          	lw	a5,56(sp)
   14030:	00098b13          	addi	s6,s3,0
   14034:	a90ff06f          	jal	zero,132c4 <_vfprintf_r+0x15f8>
   14038:	001bf713          	andi	a4,s7,1
   1403c:	00071463          	bne	a4,zero,14044 <_vfprintf_r+0x2378>
   14040:	f85fd06f          	jal	zero,11fc4 <_vfprintf_r+0x2f8>
   14044:	02412683          	lw	a3,36(sp)
   14048:	0b812703          	lw	a4,184(sp)
   1404c:	00700593          	addi	a1,zero,7
   14050:	00c68633          	add	a2,a3,a2
   14054:	02812683          	lw	a3,40(sp)
   14058:	00170713          	addi	a4,a4,1
   1405c:	0ac12e23          	sw	a2,188(sp)
   14060:	00db2023          	sw	a3,0(s6)
   14064:	02412683          	lw	a3,36(sp)
   14068:	0ae12c23          	sw	a4,184(sp)
   1406c:	00db2223          	sw	a3,4(s6)
   14070:	74e5d863          	bge	a1,a4,147c0 <_vfprintf_r+0x2af4>
   14074:	00412583          	lw	a1,4(sp)
   14078:	0b410613          	addi	a2,sp,180
   1407c:	00090513          	addi	a0,s2,0
   14080:	00f12e23          	sw	a5,28(sp)
   14084:	5a5000ef          	jal	ra,14e28 <__sprint_r>
   14088:	00050463          	beq	a0,zero,14090 <_vfprintf_r+0x23c4>
   1408c:	818ff06f          	jal	zero,130a4 <_vfprintf_r+0x13d8>
   14090:	09812503          	lw	a0,152(sp)
   14094:	0bc12603          	lw	a2,188(sp)
   14098:	0b812703          	lw	a4,184(sp)
   1409c:	01c12783          	lw	a5,28(sp)
   140a0:	00098b13          	addi	s6,s3,0
   140a4:	9e5ff06f          	jal	zero,13a88 <_vfprintf_r+0x1dbc>
   140a8:	01812703          	lw	a4,24(sp)
   140ac:	00e787b3          	add	a5,a5,a4
   140b0:	41b78cb3          	sub	s9,a5,s11
   140b4:	41570ab3          	sub	s5,a4,s5
   140b8:	ad9ad063          	bge	s5,s9,13378 <_vfprintf_r+0x16ac>
   140bc:	000a8c93          	addi	s9,s5,0
   140c0:	ab8ff06f          	jal	zero,13378 <_vfprintf_r+0x16ac>
   140c4:	00098b13          	addi	s6,s3,0
   140c8:	ec5fd06f          	jal	zero,11f8c <_vfprintf_r+0x2c0>
   140cc:	00c12783          	lw	a5,12(sp)
   140d0:	00812683          	lw	a3,8(sp)
   140d4:	00e12623          	sw	a4,12(sp)
   140d8:	0007a783          	lw	a5,0(a5)
   140dc:	00d79023          	sh	a3,0(a5)
   140e0:	cf9fd06f          	jal	zero,11dd8 <_vfprintf_r+0x10c>
   140e4:	41fc5e93          	srai	t4,s8,0x1f
   140e8:	00f12623          	sw	a5,12(sp)
   140ec:	000e8713          	addi	a4,t4,0
   140f0:	8adfe06f          	jal	zero,1299c <_vfprintf_r+0xcd0>
   140f4:	0ffc7c13          	andi	s8,s8,255
   140f8:	00000e93          	addi	t4,zero,0
   140fc:	000ac463          	blt	s5,zero,14104 <_vfprintf_r+0x2438>
   14100:	bfdfe06f          	jal	zero,12cfc <_vfprintf_r+0x1030>
   14104:	98dfe06f          	jal	zero,12a90 <_vfprintf_r+0xdc4>
   14108:	0ff77713          	andi	a4,a4,255
   1410c:	00000613          	addi	a2,zero,0
   14110:	e98ff06f          	jal	zero,137a8 <_vfprintf_r+0x1adc>
   14114:	00f12623          	sw	a5,12(sp)
   14118:	000b8693          	addi	a3,s7,0
   1411c:	00000613          	addi	a2,zero,0
   14120:	ae5fe06f          	jal	zero,12c04 <_vfprintf_r+0xf38>
   14124:	04700793          	addi	a5,zero,71
   14128:	09314703          	lbu	a4,147(sp)
   1412c:	1117d2e3          	bge	a5,a7,14a30 <_vfprintf_r+0x2d64>
   14130:	000217b7          	lui	a5,0x21
   14134:	bdc78793          	addi	a5,a5,-1060 # 20bdc <__clzsi2+0xa0>
   14138:	3e0712e3          	bne	a4,zero,14d1c <_vfprintf_r+0x3050>
   1413c:	00300c93          	addi	s9,zero,3
   14140:	000c8c13          	addi	s8,s9,0
   14144:	00000a93          	addi	s5,zero,0
   14148:	02012023          	sw	zero,32(sp)
   1414c:	00012e23          	sw	zero,28(sp)
   14150:	00012823          	sw	zero,16(sp)
   14154:	da9fd06f          	jal	zero,11efc <_vfprintf_r+0x230>
   14158:	000217b7          	lui	a5,0x21
   1415c:	bd478793          	addi	a5,a5,-1068 # 20bd4 <__clzsi2+0x98>
   14160:	a75ff06f          	jal	zero,13bd4 <_vfprintf_r+0x1f08>
   14164:	04412703          	lw	a4,68(sp)
   14168:	03412583          	lw	a1,52(sp)
   1416c:	01d12e23          	sw	t4,28(sp)
   14170:	40e786b3          	sub	a3,a5,a4
   14174:	00070613          	addi	a2,a4,0
   14178:	00068513          	addi	a0,a3,0
   1417c:	01012c23          	sw	a6,24(sp)
   14180:	00d12823          	sw	a3,16(sp)
   14184:	00d010ef          	jal	ra,15990 <strncpy>
   14188:	01c12e83          	lw	t4,28(sp)
   1418c:	ccccd637          	lui	a2,0xccccd
   14190:	ccd60613          	addi	a2,a2,-819 # cccccccd <__BSS_END__+0xccc18279>
   14194:	01dc0733          	add	a4,s8,t4
   14198:	018737b3          	sltu	a5,a4,s8
   1419c:	00f70733          	add	a4,a4,a5
   141a0:	02c735b3          	mulhu	a1,a4,a2
   141a4:	ccccd537          	lui	a0,0xccccd
   141a8:	ccc50513          	addi	a0,a0,-820 # cccccccc <__BSS_END__+0xccc18278>
   141ac:	03012783          	lw	a5,48(sp)
   141b0:	03012683          	lw	a3,48(sp)
   141b4:	01812803          	lw	a6,24(sp)
   141b8:	0017c783          	lbu	a5,1(a5)
   141bc:	00f037b3          	sltu	a5,zero,a5
   141c0:	0025d893          	srli	a7,a1,0x2
   141c4:	ffc5f593          	andi	a1,a1,-4
   141c8:	011585b3          	add	a1,a1,a7
   141cc:	40b70733          	sub	a4,a4,a1
   141d0:	40ec0733          	sub	a4,s8,a4
   141d4:	00ec35b3          	sltu	a1,s8,a4
   141d8:	40be85b3          	sub	a1,t4,a1
   141dc:	02a70533          	mul	a0,a4,a0
   141e0:	00f687b3          	add	a5,a3,a5
   141e4:	01012683          	lw	a3,16(sp)
   141e8:	02f12823          	sw	a5,48(sp)
   141ec:	fff68793          	addi	a5,a3,-1
   141f0:	02c585b3          	mul	a1,a1,a2
   141f4:	00a585b3          	add	a1,a1,a0
   141f8:	02c73533          	mulhu	a0,a4,a2
   141fc:	02c70733          	mul	a4,a4,a2
   14200:	00a585b3          	add	a1,a1,a0
   14204:	01f59513          	slli	a0,a1,0x1f
   14208:	0015de93          	srli	t4,a1,0x1
   1420c:	00100593          	addi	a1,zero,1
   14210:	00175713          	srli	a4,a4,0x1
   14214:	00e50c33          	add	s8,a0,a4
   14218:	01dc0733          	add	a4,s8,t4
   1421c:	01873533          	sltu	a0,a4,s8
   14220:	00a70733          	add	a4,a4,a0
   14224:	02c73533          	mulhu	a0,a4,a2
   14228:	00255893          	srli	a7,a0,0x2
   1422c:	ffc57513          	andi	a0,a0,-4
   14230:	01150533          	add	a0,a0,a7
   14234:	40a70733          	sub	a4,a4,a0
   14238:	40ec0733          	sub	a4,s8,a4
   1423c:	00ec3533          	sltu	a0,s8,a4
   14240:	40ae8533          	sub	a0,t4,a0
   14244:	02c738b3          	mulhu	a7,a4,a2
   14248:	02c50533          	mul	a0,a0,a2
   1424c:	02c70733          	mul	a4,a4,a2
   14250:	01150633          	add	a2,a0,a7
   14254:	01f61613          	slli	a2,a2,0x1f
   14258:	00175713          	srli	a4,a4,0x1
   1425c:	00e60733          	add	a4,a2,a4
   14260:	00271613          	slli	a2,a4,0x2
   14264:	00e60733          	add	a4,a2,a4
   14268:	00171713          	slli	a4,a4,0x1
   1426c:	40ec0733          	sub	a4,s8,a4
   14270:	03070713          	addi	a4,a4,48
   14274:	fee68fa3          	sb	a4,-1(a3)
   14278:	ab9fe06f          	jal	zero,12d30 <_vfprintf_r+0x1064>
   1427c:	07800793          	addi	a5,zero,120
   14280:	ed5fd06f          	jal	zero,12154 <_vfprintf_r+0x488>
   14284:	6e0cc063          	blt	s9,zero,14964 <_vfprintf_r+0x2c98>
   14288:	02012c23          	sw	zero,56(sp)
   1428c:	00600a93          	addi	s5,zero,6
   14290:	04600793          	addi	a5,zero,70
   14294:	44fc1e63          	bne	s8,a5,146f0 <_vfprintf_r+0x2a24>
   14298:	09c10793          	addi	a5,sp,156
   1429c:	09810713          	addi	a4,sp,152
   142a0:	000a8693          	addi	a3,s5,0
   142a4:	08010593          	addi	a1,sp,128
   142a8:	0a010813          	addi	a6,sp,160
   142ac:	00300613          	addi	a2,zero,3
   142b0:	00090513          	addi	a0,s2,0
   142b4:	03112e23          	sw	a7,60(sp)
   142b8:	09d12023          	sw	t4,128(sp)
   142bc:	03d12023          	sw	t4,32(sp)
   142c0:	09e12223          	sw	t5,132(sp)
   142c4:	01e12e23          	sw	t5,28(sp)
   142c8:	08512423          	sw	t0,136(sp)
   142cc:	00512c23          	sw	t0,24(sp)
   142d0:	09912623          	sw	s9,140(sp)
   142d4:	525010ef          	jal	ra,15ff8 <_ldtoa_r>
   142d8:	00054683          	lbu	a3,0(a0)
   142dc:	03000713          	addi	a4,zero,48
   142e0:	01812283          	lw	t0,24(sp)
   142e4:	01c12f03          	lw	t5,28(sp)
   142e8:	02012e83          	lw	t4,32(sp)
   142ec:	03c12883          	lw	a7,60(sp)
   142f0:	00050793          	addi	a5,a0,0
   142f4:	015504b3          	add	s1,a0,s5
   142f8:	04e68ae3          	beq	a3,a4,14b4c <_vfprintf_r+0x2e80>
   142fc:	09812d83          	lw	s11,152(sp)
   14300:	08010513          	addi	a0,sp,128
   14304:	07010593          	addi	a1,sp,112
   14308:	00f12e23          	sw	a5,28(sp)
   1430c:	09912623          	sw	s9,140(sp)
   14310:	01112c23          	sw	a7,24(sp)
   14314:	09d12023          	sw	t4,128(sp)
   14318:	09e12223          	sw	t5,132(sp)
   1431c:	08512423          	sw	t0,136(sp)
   14320:	06012823          	sw	zero,112(sp)
   14324:	06012a23          	sw	zero,116(sp)
   14328:	06012c23          	sw	zero,120(sp)
   1432c:	06012e23          	sw	zero,124(sp)
   14330:	599090ef          	jal	ra,1e0c8 <__eqtf2>
   14334:	01c12783          	lw	a5,28(sp)
   14338:	01b48cb3          	add	s9,s1,s11
   1433c:	000d8313          	addi	t1,s11,0
   14340:	7e051a63          	bne	a0,zero,14b34 <_vfprintf_r+0x2e68>
   14344:	40fc8733          	sub	a4,s9,a5
   14348:	00e12c23          	sw	a4,24(sp)
   1434c:	001bf713          	andi	a4,s7,1
   14350:	01576733          	or	a4,a4,s5
   14354:	0e605ae3          	bge	zero,t1,14c48 <_vfprintf_r+0x2f7c>
   14358:	040710e3          	bne	a4,zero,14b98 <_vfprintf_r+0x2ecc>
   1435c:	00030c93          	addi	s9,t1,0
   14360:	06600893          	addi	a7,zero,102
   14364:	400bfe13          	andi	t3,s7,1024
   14368:	6e0e1663          	bne	t3,zero,14a54 <_vfprintf_r+0x2d88>
   1436c:	fffcc693          	xori	a3,s9,-1
   14370:	41f6d693          	srai	a3,a3,0x1f
   14374:	00dcfc33          	and	s8,s9,a3
   14378:	03812703          	lw	a4,56(sp)
   1437c:	4c070a63          	beq	a4,zero,14850 <_vfprintf_r+0x2b84>
   14380:	02d00713          	addi	a4,zero,45
   14384:	08e109a3          	sb	a4,147(sp)
   14388:	001c0c13          	addi	s8,s8,1
   1438c:	01012b83          	lw	s7,16(sp)
   14390:	00000a93          	addi	s5,zero,0
   14394:	00012823          	sw	zero,16(sp)
   14398:	02012023          	sw	zero,32(sp)
   1439c:	00012e23          	sw	zero,28(sp)
   143a0:	b5dfd06f          	jal	zero,11efc <_vfprintf_r+0x230>
   143a4:	001a8593          	addi	a1,s5,1
   143a8:	00090513          	addi	a0,s2,0
   143ac:	01112823          	sw	a7,16(sp)
   143b0:	89cfd0ef          	jal	ra,1144c <_malloc_r>
   143b4:	01012883          	lw	a7,16(sp)
   143b8:	00050793          	addi	a5,a0,0
   143bc:	12050ee3          	beq	a0,zero,14cf8 <_vfprintf_r+0x302c>
   143c0:	0cc12703          	lw	a4,204(sp)
   143c4:	00a12823          	sw	a0,16(sp)
   143c8:	0c012683          	lw	a3,192(sp)
   143cc:	0c412603          	lw	a2,196(sp)
   143d0:	0c812583          	lw	a1,200(sp)
   143d4:	64074463          	blt	a4,zero,14a1c <_vfprintf_r+0x2d50>
   143d8:	02012c23          	sw	zero,56(sp)
   143dc:	dadfd06f          	jal	zero,12188 <_vfprintf_r+0x4bc>
   143e0:	000b8d93          	addi	s11,s7,0
   143e4:	03a12823          	sw	s10,48(sp)
   143e8:	03812783          	lw	a5,56(sp)
   143ec:	03c12b83          	lw	s7,60(sp)
   143f0:	04012c03          	lw	s8,64(sp)
   143f4:	04812d03          	lw	s10,72(sp)
   143f8:	00068b13          	addi	s6,a3,0
   143fc:	01b76463          	bltu	a4,s11,14404 <_vfprintf_r+0x2738>
   14400:	ee5fe06f          	jal	zero,132e4 <_vfprintf_r+0x1618>
   14404:	00070d93          	addi	s11,a4,0
   14408:	eddfe06f          	jal	zero,132e4 <_vfprintf_r+0x1618>
   1440c:	02012c23          	sw	zero,56(sp)
   14410:	000cda63          	bge	s9,zero,14424 <_vfprintf_r+0x2758>
   14414:	800007b7          	lui	a5,0x80000
   14418:	00fcccb3          	xor	s9,s9,a5
   1441c:	02d00793          	addi	a5,zero,45
   14420:	02f12c23          	sw	a5,56(sp)
   14424:	08010d93          	addi	s11,sp,128
   14428:	09c10793          	addi	a5,sp,156
   1442c:	000d8593          	addi	a1,s11,0
   14430:	0a010813          	addi	a6,sp,160
   14434:	09810713          	addi	a4,sp,152
   14438:	00100693          	addi	a3,zero,1
   1443c:	00200613          	addi	a2,zero,2
   14440:	00090513          	addi	a0,s2,0
   14444:	05112023          	sw	a7,64(sp)
   14448:	09d12023          	sw	t4,128(sp)
   1444c:	03d12e23          	sw	t4,60(sp)
   14450:	09e12223          	sw	t5,132(sp)
   14454:	03e12023          	sw	t5,32(sp)
   14458:	08512423          	sw	t0,136(sp)
   1445c:	00512e23          	sw	t0,28(sp)
   14460:	09912623          	sw	s9,140(sp)
   14464:	395010ef          	jal	ra,15ff8 <_ldtoa_r>
   14468:	01c12283          	lw	t0,28(sp)
   1446c:	02012f03          	lw	t5,32(sp)
   14470:	03c12e83          	lw	t4,60(sp)
   14474:	04012883          	lw	a7,64(sp)
   14478:	00100a93          	addi	s5,zero,1
   1447c:	00050793          	addi	a5,a0,0
   14480:	01512c23          	sw	s5,24(sp)
   14484:	001bf713          	andi	a4,s7,1
   14488:	18070e63          	beq	a4,zero,14624 <_vfprintf_r+0x2958>
   1448c:	000d8513          	addi	a0,s11,0
   14490:	07010593          	addi	a1,sp,112
   14494:	02f12023          	sw	a5,32(sp)
   14498:	01112e23          	sw	a7,28(sp)
   1449c:	09d12023          	sw	t4,128(sp)
   144a0:	09e12223          	sw	t5,132(sp)
   144a4:	08512423          	sw	t0,136(sp)
   144a8:	09912623          	sw	s9,140(sp)
   144ac:	06012823          	sw	zero,112(sp)
   144b0:	06012a23          	sw	zero,116(sp)
   144b4:	06012c23          	sw	zero,120(sp)
   144b8:	06012e23          	sw	zero,124(sp)
   144bc:	40d090ef          	jal	ra,1e0c8 <__eqtf2>
   144c0:	01c12883          	lw	a7,28(sp)
   144c4:	02012783          	lw	a5,32(sp)
   144c8:	7e050263          	beq	a0,zero,14cac <_vfprintf_r+0x2fe0>
   144cc:	01812683          	lw	a3,24(sp)
   144d0:	0a012703          	lw	a4,160(sp)
   144d4:	00d78cb3          	add	s9,a5,a3
   144d8:	079770e3          	bgeu	a4,s9,14d38 <_vfprintf_r+0x306c>
   144dc:	03000613          	addi	a2,zero,48
   144e0:	00170693          	addi	a3,a4,1
   144e4:	0ad12023          	sw	a3,160(sp)
   144e8:	00c70023          	sb	a2,0(a4)
   144ec:	0a012703          	lw	a4,160(sp)
   144f0:	ff9768e3          	bltu	a4,s9,144e0 <_vfprintf_r+0x2814>
   144f4:	40f70733          	sub	a4,a4,a5
   144f8:	04700693          	addi	a3,zero,71
   144fc:	00e12c23          	sw	a4,24(sp)
   14500:	09812303          	lw	t1,152(sp)
   14504:	12dc0863          	beq	s8,a3,14634 <_vfprintf_r+0x2968>
   14508:	04600713          	addi	a4,zero,70
   1450c:	e4ec00e3          	beq	s8,a4,1434c <_vfprintf_r+0x2680>
   14510:	fff30713          	addi	a4,t1,-1
   14514:	0b110223          	sb	a7,164(sp)
   14518:	08e12c23          	sw	a4,152(sp)
   1451c:	68074863          	blt	a4,zero,14bac <_vfprintf_r+0x2ee0>
   14520:	02b00693          	addi	a3,zero,43
   14524:	0ad102a3          	sb	a3,165(sp)
   14528:	00900693          	addi	a3,zero,9
   1452c:	68e6dc63          	bge	a3,a4,14bc4 <_vfprintf_r+0x2ef8>
   14530:	01712e23          	sw	s7,28(sp)
   14534:	00012823          	sw	zero,16(sp)
   14538:	0b310e93          	addi	t4,sp,179
   1453c:	ccccde37          	lui	t3,0xccccd
   14540:	000e8513          	addi	a0,t4,0
   14544:	ccde0e13          	addi	t3,t3,-819 # cccccccd <__BSS_END__+0xccc18279>
   14548:	06300f13          	addi	t5,zero,99
   1454c:	03c736b3          	mulhu	a3,a4,t3
   14550:	00070813          	addi	a6,a4,0
   14554:	00050593          	addi	a1,a0,0
   14558:	fff50513          	addi	a0,a0,-1
   1455c:	0036d693          	srli	a3,a3,0x3
   14560:	00269613          	slli	a2,a3,0x2
   14564:	00d60633          	add	a2,a2,a3
   14568:	00161613          	slli	a2,a2,0x1
   1456c:	40c70733          	sub	a4,a4,a2
   14570:	03070713          	addi	a4,a4,48
   14574:	fee58fa3          	sb	a4,-1(a1)
   14578:	00068713          	addi	a4,a3,0
   1457c:	fd0f48e3          	blt	t5,a6,1454c <_vfprintf_r+0x2880>
   14580:	03068713          	addi	a4,a3,48
   14584:	fee50fa3          	sb	a4,-1(a0)
   14588:	ffe58713          	addi	a4,a1,-2
   1458c:	73d77c63          	bgeu	a4,t4,14cc4 <_vfprintf_r+0x2ff8>
   14590:	0a610513          	addi	a0,sp,166
   14594:	00050693          	addi	a3,a0,0
   14598:	00074603          	lbu	a2,0(a4)
   1459c:	00170713          	addi	a4,a4,1
   145a0:	00168693          	addi	a3,a3,1
   145a4:	fec68fa3          	sb	a2,-1(a3)
   145a8:	ffd718e3          	bne	a4,t4,14598 <_vfprintf_r+0x28cc>
   145ac:	00a70733          	add	a4,a4,a0
   145b0:	00270713          	addi	a4,a4,2
   145b4:	40b70733          	sub	a4,a4,a1
   145b8:	0a410693          	addi	a3,sp,164
   145bc:	40d70733          	sub	a4,a4,a3
   145c0:	02e12623          	sw	a4,44(sp)
   145c4:	01812683          	lw	a3,24(sp)
   145c8:	02c12603          	lw	a2,44(sp)
   145cc:	00100713          	addi	a4,zero,1
   145d0:	00c68cb3          	add	s9,a3,a2
   145d4:	42d75263          	bge	a4,a3,149f8 <_vfprintf_r+0x2d2c>
   145d8:	02412703          	lw	a4,36(sp)
   145dc:	00ec8cb3          	add	s9,s9,a4
   145e0:	01c12703          	lw	a4,28(sp)
   145e4:	fffcc693          	xori	a3,s9,-1
   145e8:	41f6d693          	srai	a3,a3,0x1f
   145ec:	bff77e13          	andi	t3,a4,-1025
   145f0:	00277313          	andi	t1,a4,2
   145f4:	03812703          	lw	a4,56(sp)
   145f8:	00dcfc33          	and	s8,s9,a3
   145fc:	100e6b93          	ori	s7,t3,256
   14600:	34070863          	beq	a4,zero,14950 <_vfprintf_r+0x2c84>
   14604:	02d00e93          	addi	t4,zero,45
   14608:	09d109a3          	sb	t4,147(sp)
   1460c:	00000a93          	addi	s5,zero,0
   14610:	001c0c13          	addi	s8,s8,1
   14614:	bc8fe06f          	jal	zero,129dc <_vfprintf_r+0xd10>
   14618:	01812683          	lw	a3,24(sp)
   1461c:	00a6c583          	lbu	a1,10(a3)
   14620:	e65fd06f          	jal	zero,12484 <_vfprintf_r+0x7b8>
   14624:	0a012703          	lw	a4,160(sp)
   14628:	09812303          	lw	t1,152(sp)
   1462c:	40f70733          	sub	a4,a4,a5
   14630:	00e12c23          	sw	a4,24(sp)
   14634:	ffd32713          	slti	a4,t1,-3
   14638:	00071463          	bne	a4,zero,14640 <_vfprintf_r+0x2974>
   1463c:	006ad663          	bge	s5,t1,14648 <_vfprintf_r+0x297c>
   14640:	ffe88893          	addi	a7,a7,-2
   14644:	ecdff06f          	jal	zero,14510 <_vfprintf_r+0x2844>
   14648:	01812703          	lw	a4,24(sp)
   1464c:	2ce34c63          	blt	t1,a4,14924 <_vfprintf_r+0x2c58>
   14650:	001bf713          	andi	a4,s7,1
   14654:	00030c93          	addi	s9,t1,0
   14658:	00070663          	beq	a4,zero,14664 <_vfprintf_r+0x2998>
   1465c:	02412703          	lw	a4,36(sp)
   14660:	00e30cb3          	add	s9,t1,a4
   14664:	400bfe13          	andi	t3,s7,1024
   14668:	000e0463          	beq	t3,zero,14670 <_vfprintf_r+0x29a4>
   1466c:	3e604263          	blt	zero,t1,14a50 <_vfprintf_r+0x2d84>
   14670:	fffcc693          	xori	a3,s9,-1
   14674:	41f6d693          	srai	a3,a3,0x1f
   14678:	00dcfc33          	and	s8,s9,a3
   1467c:	06700893          	addi	a7,zero,103
   14680:	cf9ff06f          	jal	zero,14378 <_vfprintf_r+0x26ac>
   14684:	00412583          	lw	a1,4(sp)
   14688:	0b410613          	addi	a2,sp,180
   1468c:	00090513          	addi	a0,s2,0
   14690:	00f12e23          	sw	a5,28(sp)
   14694:	794000ef          	jal	ra,14e28 <__sprint_r>
   14698:	00050463          	beq	a0,zero,146a0 <_vfprintf_r+0x29d4>
   1469c:	a09fe06f          	jal	zero,130a4 <_vfprintf_r+0x13d8>
   146a0:	09812503          	lw	a0,152(sp)
   146a4:	0bc12603          	lw	a2,188(sp)
   146a8:	01c12783          	lw	a5,28(sp)
   146ac:	00098b13          	addi	s6,s3,0
   146b0:	b98ff06f          	jal	zero,13a48 <_vfprintf_r+0x1d7c>
   146b4:	00412583          	lw	a1,4(sp)
   146b8:	0b410613          	addi	a2,sp,180
   146bc:	00090513          	addi	a0,s2,0
   146c0:	00e12e23          	sw	a4,28(sp)
   146c4:	764000ef          	jal	ra,14e28 <__sprint_r>
   146c8:	00050463          	beq	a0,zero,146d0 <_vfprintf_r+0x2a04>
   146cc:	9d9fe06f          	jal	zero,130a4 <_vfprintf_r+0x13d8>
   146d0:	000b37b7          	lui	a5,0xb3
   146d4:	000d4583          	lbu	a1,0(s10)
   146d8:	0bc12603          	lw	a2,188(sp)
   146dc:	01c12703          	lw	a4,28(sp)
   146e0:	00098693          	addi	a3,s3,0
   146e4:	64078893          	addi	a7,a5,1600 # b3640 <zeroes.0>
   146e8:	00700813          	addi	a6,zero,7
   146ec:	f90ff06f          	jal	zero,13e7c <_vfprintf_r+0x21b0>
   146f0:	fbbc0793          	addi	a5,s8,-69
   146f4:	0017b793          	sltiu	a5,a5,1
   146f8:	015787b3          	add	a5,a5,s5
   146fc:	08010d93          	addi	s11,sp,128
   14700:	00f12c23          	sw	a5,24(sp)
   14704:	00078693          	addi	a3,a5,0
   14708:	09810713          	addi	a4,sp,152
   1470c:	09c10793          	addi	a5,sp,156
   14710:	000d8593          	addi	a1,s11,0
   14714:	0a010813          	addi	a6,sp,160
   14718:	00200613          	addi	a2,zero,2
   1471c:	00090513          	addi	a0,s2,0
   14720:	05112023          	sw	a7,64(sp)
   14724:	09d12023          	sw	t4,128(sp)
   14728:	03d12e23          	sw	t4,60(sp)
   1472c:	09e12223          	sw	t5,132(sp)
   14730:	03e12023          	sw	t5,32(sp)
   14734:	08512423          	sw	t0,136(sp)
   14738:	00512e23          	sw	t0,28(sp)
   1473c:	09912623          	sw	s9,140(sp)
   14740:	0b9010ef          	jal	ra,15ff8 <_ldtoa_r>
   14744:	04700713          	addi	a4,zero,71
   14748:	01c12283          	lw	t0,28(sp)
   1474c:	02012f03          	lw	t5,32(sp)
   14750:	03c12e83          	lw	t4,60(sp)
   14754:	04012883          	lw	a7,64(sp)
   14758:	00050793          	addi	a5,a0,0
   1475c:	d2ec04e3          	beq	s8,a4,14484 <_vfprintf_r+0x27b8>
   14760:	02a12023          	sw	a0,32(sp)
   14764:	07010593          	addi	a1,sp,112
   14768:	000d8513          	addi	a0,s11,0
   1476c:	01112e23          	sw	a7,28(sp)
   14770:	09d12023          	sw	t4,128(sp)
   14774:	09e12223          	sw	t5,132(sp)
   14778:	08512423          	sw	t0,136(sp)
   1477c:	09912623          	sw	s9,140(sp)
   14780:	06012823          	sw	zero,112(sp)
   14784:	06012a23          	sw	zero,116(sp)
   14788:	06012c23          	sw	zero,120(sp)
   1478c:	06012e23          	sw	zero,124(sp)
   14790:	139090ef          	jal	ra,1e0c8 <__eqtf2>
   14794:	01c12883          	lw	a7,28(sp)
   14798:	02012783          	lw	a5,32(sp)
   1479c:	5a050663          	beq	a0,zero,14d48 <_vfprintf_r+0x307c>
   147a0:	01812683          	lw	a3,24(sp)
   147a4:	0a012703          	lw	a4,160(sp)
   147a8:	00d78cb3          	add	s9,a5,a3
   147ac:	d39768e3          	bltu	a4,s9,144dc <_vfprintf_r+0x2810>
   147b0:	40f70733          	sub	a4,a4,a5
   147b4:	09812303          	lw	t1,152(sp)
   147b8:	00e12c23          	sw	a4,24(sp)
   147bc:	d55ff06f          	jal	zero,14510 <_vfprintf_r+0x2844>
   147c0:	008b0b13          	addi	s6,s6,8
   147c4:	ac8ff06f          	jal	zero,13a8c <_vfprintf_r+0x1dc0>
   147c8:	02d00793          	addi	a5,zero,45
   147cc:	08f109a3          	sb	a5,147(sp)
   147d0:	04700793          	addi	a5,zero,71
   147d4:	2317da63          	bge	a5,a7,14a08 <_vfprintf_r+0x2d3c>
   147d8:	000217b7          	lui	a5,0x21
   147dc:	bd478793          	addi	a5,a5,-1068 # 20bd4 <__clzsi2+0x98>
   147e0:	d84ff06f          	jal	zero,13d64 <_vfprintf_r+0x2098>
   147e4:	00412583          	lw	a1,4(sp)
   147e8:	0b410613          	addi	a2,sp,180
   147ec:	00090513          	addi	a0,s2,0
   147f0:	00f12e23          	sw	a5,28(sp)
   147f4:	634000ef          	jal	ra,14e28 <__sprint_r>
   147f8:	00050463          	beq	a0,zero,14800 <_vfprintf_r+0x2b34>
   147fc:	8a9fe06f          	jal	zero,130a4 <_vfprintf_r+0x13d8>
   14800:	09812a83          	lw	s5,152(sp)
   14804:	0bc12603          	lw	a2,188(sp)
   14808:	01c12783          	lw	a5,28(sp)
   1480c:	00098b13          	addi	s6,s3,0
   14810:	b21fe06f          	jal	zero,13330 <_vfprintf_r+0x1664>
   14814:	65080813          	addi	a6,a6,1616
   14818:	c4dfe06f          	jal	zero,13464 <_vfprintf_r+0x1798>
   1481c:	00900713          	addi	a4,zero,9
   14820:	00677463          	bgeu	a4,t1,14828 <_vfprintf_r+0x2b5c>
   14824:	d88fe06f          	jal	zero,12dac <_vfprintf_r+0x10e0>
   14828:	af8ff06f          	jal	zero,13b20 <_vfprintf_r+0x1e54>
   1482c:	00912623          	sw	s1,12(sp)
   14830:	1a070663          	beq	a4,zero,149dc <_vfprintf_r+0x2d10>
   14834:	001a8c13          	addi	s8,s5,1
   14838:	000a8c93          	addi	s9,s5,0
   1483c:	02012023          	sw	zero,32(sp)
   14840:	00000a93          	addi	s5,zero,0
   14844:	00012e23          	sw	zero,28(sp)
   14848:	00000313          	addi	t1,zero,0
   1484c:	eb0fd06f          	jal	zero,11efc <_vfprintf_r+0x230>
   14850:	09314703          	lbu	a4,147(sp)
   14854:	b2070ce3          	beq	a4,zero,1438c <_vfprintf_r+0x26c0>
   14858:	001c0c13          	addi	s8,s8,1
   1485c:	b31ff06f          	jal	zero,1438c <_vfprintf_r+0x26c0>
   14860:	00412583          	lw	a1,4(sp)
   14864:	0b410613          	addi	a2,sp,180
   14868:	00090513          	addi	a0,s2,0
   1486c:	5bc000ef          	jal	ra,14e28 <__sprint_r>
   14870:	00050463          	beq	a0,zero,14878 <_vfprintf_r+0x2bac>
   14874:	831fe06f          	jal	zero,130a4 <_vfprintf_r+0x13d8>
   14878:	09812a83          	lw	s5,152(sp)
   1487c:	01812783          	lw	a5,24(sp)
   14880:	0bc12603          	lw	a2,188(sp)
   14884:	00098b13          	addi	s6,s3,0
   14888:	41578ab3          	sub	s5,a5,s5
   1488c:	aedfe06f          	jal	zero,13378 <_vfprintf_r+0x16ac>
   14890:	ff000593          	addi	a1,zero,-16
   14894:	40a00ab3          	sub	s5,zero,a0
   14898:	000b3837          	lui	a6,0xb3
   1489c:	44b55463          	bge	a0,a1,14ce4 <_vfprintf_r+0x3018>
   148a0:	01000c93          	addi	s9,zero,16
   148a4:	00700d93          	addi	s11,zero,7
   148a8:	00f12e23          	sw	a5,28(sp)
   148ac:	64080493          	addi	s1,a6,1600 # b3640 <zeroes.0>
   148b0:	00c0006f          	jal	zero,148bc <_vfprintf_r+0x2bf0>
   148b4:	ff0a8a93          	addi	s5,s5,-16
   148b8:	0d5cd663          	bge	s9,s5,14984 <_vfprintf_r+0x2cb8>
   148bc:	01060613          	addi	a2,a2,16
   148c0:	00170713          	addi	a4,a4,1
   148c4:	009b2023          	sw	s1,0(s6)
   148c8:	019b2223          	sw	s9,4(s6)
   148cc:	0ac12e23          	sw	a2,188(sp)
   148d0:	0ae12c23          	sw	a4,184(sp)
   148d4:	008b0b13          	addi	s6,s6,8
   148d8:	fceddee3          	bge	s11,a4,148b4 <_vfprintf_r+0x2be8>
   148dc:	00412583          	lw	a1,4(sp)
   148e0:	0b410613          	addi	a2,sp,180
   148e4:	00090513          	addi	a0,s2,0
   148e8:	540000ef          	jal	ra,14e28 <__sprint_r>
   148ec:	00050463          	beq	a0,zero,148f4 <_vfprintf_r+0x2c28>
   148f0:	fb4fe06f          	jal	zero,130a4 <_vfprintf_r+0x13d8>
   148f4:	0bc12603          	lw	a2,188(sp)
   148f8:	0b812703          	lw	a4,184(sp)
   148fc:	00098b13          	addi	s6,s3,0
   14900:	fb5ff06f          	jal	zero,148b4 <_vfprintf_r+0x2be8>
   14904:	000b8693          	addi	a3,s7,0
   14908:	d09fe06f          	jal	zero,13610 <_vfprintf_r+0x1944>
   1490c:	65080813          	addi	a6,a6,1616
   14910:	8d1fe06f          	jal	zero,131e0 <_vfprintf_r+0x1514>
   14914:	000b8e13          	addi	t3,s7,0
   14918:	dc0fe06f          	jal	zero,12ed8 <_vfprintf_r+0x120c>
   1491c:	000b8e13          	addi	t3,s7,0
   14920:	d31fe06f          	jal	zero,13650 <_vfprintf_r+0x1984>
   14924:	01812703          	lw	a4,24(sp)
   14928:	02412683          	lw	a3,36(sp)
   1492c:	06700893          	addi	a7,zero,103
   14930:	00d70cb3          	add	s9,a4,a3
   14934:	a26048e3          	blt	zero,t1,14364 <_vfprintf_r+0x2698>
   14938:	406c8f33          	sub	t5,s9,t1
   1493c:	001f0c93          	addi	s9,t5,1
   14940:	fffcc693          	xori	a3,s9,-1
   14944:	41f6d693          	srai	a3,a3,0x1f
   14948:	00dcfc33          	and	s8,s9,a3
   1494c:	a2dff06f          	jal	zero,14378 <_vfprintf_r+0x26ac>
   14950:	09314e83          	lbu	t4,147(sp)
   14954:	00000a93          	addi	s5,zero,0
   14958:	000e8463          	beq	t4,zero,14960 <_vfprintf_r+0x2c94>
   1495c:	968fe06f          	jal	zero,12ac4 <_vfprintf_r+0xdf8>
   14960:	87cfe06f          	jal	zero,129dc <_vfprintf_r+0xd10>
   14964:	00600a93          	addi	s5,zero,6
   14968:	800007b7          	lui	a5,0x80000
   1496c:	00fcccb3          	xor	s9,s9,a5
   14970:	02d00793          	addi	a5,zero,45
   14974:	02f12c23          	sw	a5,56(sp)
   14978:	919ff06f          	jal	zero,14290 <_vfprintf_r+0x25c4>
   1497c:	64080813          	addi	a6,a6,1600
   14980:	eacfe06f          	jal	zero,1302c <_vfprintf_r+0x1360>
   14984:	01c12783          	lw	a5,28(sp)
   14988:	00048813          	addi	a6,s1,0
   1498c:	01560633          	add	a2,a2,s5
   14990:	00170713          	addi	a4,a4,1
   14994:	0ac12e23          	sw	a2,188(sp)
   14998:	0ae12c23          	sw	a4,184(sp)
   1499c:	010b2023          	sw	a6,0(s6)
   149a0:	015b2223          	sw	s5,4(s6)
   149a4:	00700593          	addi	a1,zero,7
   149a8:	e0e5dce3          	bge	a1,a4,147c0 <_vfprintf_r+0x2af4>
   149ac:	00412583          	lw	a1,4(sp)
   149b0:	0b410613          	addi	a2,sp,180
   149b4:	00090513          	addi	a0,s2,0
   149b8:	00f12e23          	sw	a5,28(sp)
   149bc:	46c000ef          	jal	ra,14e28 <__sprint_r>
   149c0:	00050463          	beq	a0,zero,149c8 <_vfprintf_r+0x2cfc>
   149c4:	ee0fe06f          	jal	zero,130a4 <_vfprintf_r+0x13d8>
   149c8:	0bc12603          	lw	a2,188(sp)
   149cc:	0b812703          	lw	a4,184(sp)
   149d0:	01c12783          	lw	a5,28(sp)
   149d4:	00098b13          	addi	s6,s3,0
   149d8:	8b4ff06f          	jal	zero,13a8c <_vfprintf_r+0x1dc0>
   149dc:	000a8c93          	addi	s9,s5,0
   149e0:	000a8c13          	addi	s8,s5,0
   149e4:	02012023          	sw	zero,32(sp)
   149e8:	00000a93          	addi	s5,zero,0
   149ec:	00012e23          	sw	zero,28(sp)
   149f0:	00000313          	addi	t1,zero,0
   149f4:	d08fd06f          	jal	zero,11efc <_vfprintf_r+0x230>
   149f8:	01c12703          	lw	a4,28(sp)
   149fc:	00177713          	andi	a4,a4,1
   14a00:	be0700e3          	beq	a4,zero,145e0 <_vfprintf_r+0x2914>
   14a04:	bd5ff06f          	jal	zero,145d8 <_vfprintf_r+0x290c>
   14a08:	000217b7          	lui	a5,0x21
   14a0c:	bd078793          	addi	a5,a5,-1072 # 20bd0 <__clzsi2+0x94>
   14a10:	b54ff06f          	jal	zero,13d64 <_vfprintf_r+0x2098>
   14a14:	00012823          	sw	zero,16(sp)
   14a18:	11c10793          	addi	a5,sp,284
   14a1c:	80000537          	lui	a0,0x80000
   14a20:	00a74733          	xor	a4,a4,a0
   14a24:	02d00513          	addi	a0,zero,45
   14a28:	02a12c23          	sw	a0,56(sp)
   14a2c:	f5cfd06f          	jal	zero,12188 <_vfprintf_r+0x4bc>
   14a30:	000217b7          	lui	a5,0x21
   14a34:	bd878793          	addi	a5,a5,-1064 # 20bd8 <__clzsi2+0x9c>
   14a38:	f00ff06f          	jal	zero,14138 <_vfprintf_r+0x246c>
   14a3c:	00412483          	lw	s1,4(sp)
   14a40:	e78fe06f          	jal	zero,130b8 <_vfprintf_r+0x13ec>
   14a44:	000217b7          	lui	a5,0x21
   14a48:	bd878793          	addi	a5,a5,-1064 # 20bd8 <__clzsi2+0x9c>
   14a4c:	b18ff06f          	jal	zero,13d64 <_vfprintf_r+0x2098>
   14a50:	06700893          	addi	a7,zero,103
   14a54:	03012703          	lw	a4,48(sp)
   14a58:	00074703          	lbu	a4,0(a4)
   14a5c:	f0170693          	addi	a3,a4,-255
   14a60:	2a068663          	beq	a3,zero,14d0c <_vfprintf_r+0x3040>
   14a64:	2a675463          	bge	a4,t1,14d0c <_vfprintf_r+0x3040>
   14a68:	03012683          	lw	a3,48(sp)
   14a6c:	00000513          	addi	a0,zero,0
   14a70:	00000593          	addi	a1,zero,0
   14a74:	0180006f          	jal	zero,14a8c <_vfprintf_r+0x2dc0>
   14a78:	00158593          	addi	a1,a1,1
   14a7c:	00168693          	addi	a3,a3,1
   14a80:	f0170613          	addi	a2,a4,-255
   14a84:	02060063          	beq	a2,zero,14aa4 <_vfprintf_r+0x2dd8>
   14a88:	00675e63          	bge	a4,t1,14aa4 <_vfprintf_r+0x2dd8>
   14a8c:	40e30333          	sub	t1,t1,a4
   14a90:	0016c703          	lbu	a4,1(a3)
   14a94:	fe0712e3          	bne	a4,zero,14a78 <_vfprintf_r+0x2dac>
   14a98:	0006c703          	lbu	a4,0(a3)
   14a9c:	00150513          	addi	a0,a0,1 # 80000001 <__BSS_END__+0x7ff4b5ad>
   14aa0:	fe1ff06f          	jal	zero,14a80 <_vfprintf_r+0x2db4>
   14aa4:	02d12823          	sw	a3,48(sp)
   14aa8:	04412683          	lw	a3,68(sp)
   14aac:	00b50733          	add	a4,a0,a1
   14ab0:	00b12e23          	sw	a1,28(sp)
   14ab4:	02d70733          	mul	a4,a4,a3
   14ab8:	02a12023          	sw	a0,32(sp)
   14abc:	00ec8cb3          	add	s9,s9,a4
   14ac0:	03812703          	lw	a4,56(sp)
   14ac4:	fffcc693          	xori	a3,s9,-1
   14ac8:	41f6d693          	srai	a3,a3,0x1f
   14acc:	00dcfc33          	and	s8,s9,a3
   14ad0:	14070e63          	beq	a4,zero,14c2c <_vfprintf_r+0x2f60>
   14ad4:	02d00713          	addi	a4,zero,45
   14ad8:	01012b83          	lw	s7,16(sp)
   14adc:	08e109a3          	sb	a4,147(sp)
   14ae0:	001c0c13          	addi	s8,s8,1
   14ae4:	00012823          	sw	zero,16(sp)
   14ae8:	00000a93          	addi	s5,zero,0
   14aec:	c10fd06f          	jal	zero,11efc <_vfprintf_r+0x230>
   14af0:	fffa8c93          	addi	s9,s5,-1
   14af4:	02012b03          	lw	s6,32(sp)
   14af8:	02c12883          	lw	a7,44(sp)
   14afc:	03c12783          	lw	a5,60(sp)
   14b00:	04012d03          	lw	s10,64(sp)
   14b04:	04812903          	lw	s2,72(sp)
   14b08:	015c0ab3          	add	s5,s8,s5
   14b0c:	000c0713          	addi	a4,s8,0
   14b10:	03000613          	addi	a2,zero,48
   14b14:	000cd463          	bge	s9,zero,14b1c <_vfprintf_r+0x2e50>
   14b18:	971fd06f          	jal	zero,12488 <_vfprintf_r+0x7bc>
   14b1c:	00170713          	addi	a4,a4,1
   14b20:	fec70fa3          	sb	a2,-1(a4)
   14b24:	feea9ce3          	bne	s5,a4,14b1c <_vfprintf_r+0x2e50>
   14b28:	019c0733          	add	a4,s8,s9
   14b2c:	00170c13          	addi	s8,a4,1
   14b30:	959fd06f          	jal	zero,12488 <_vfprintf_r+0x7bc>
   14b34:	0a012703          	lw	a4,160(sp)
   14b38:	01812883          	lw	a7,24(sp)
   14b3c:	9b9760e3          	bltu	a4,s9,144dc <_vfprintf_r+0x2810>
   14b40:	40f70733          	sub	a4,a4,a5
   14b44:	00e12c23          	sw	a4,24(sp)
   14b48:	9c1ff06f          	jal	zero,14508 <_vfprintf_r+0x283c>
   14b4c:	08010513          	addi	a0,sp,128
   14b50:	07010593          	addi	a1,sp,112
   14b54:	00f12e23          	sw	a5,28(sp)
   14b58:	01112c23          	sw	a7,24(sp)
   14b5c:	09d12023          	sw	t4,128(sp)
   14b60:	09e12223          	sw	t5,132(sp)
   14b64:	08512423          	sw	t0,136(sp)
   14b68:	09912623          	sw	s9,140(sp)
   14b6c:	06012823          	sw	zero,112(sp)
   14b70:	06012a23          	sw	zero,116(sp)
   14b74:	06012c23          	sw	zero,120(sp)
   14b78:	06012e23          	sw	zero,124(sp)
   14b7c:	54c090ef          	jal	ra,1e0c8 <__eqtf2>
   14b80:	01812883          	lw	a7,24(sp)
   14b84:	01c12783          	lw	a5,28(sp)
   14b88:	0c051a63          	bne	a0,zero,14c5c <_vfprintf_r+0x2f90>
   14b8c:	09812303          	lw	t1,152(sp)
   14b90:	00648cb3          	add	s9,s1,t1
   14b94:	fb0ff06f          	jal	zero,14344 <_vfprintf_r+0x2678>
   14b98:	02412703          	lw	a4,36(sp)
   14b9c:	006a8f33          	add	t5,s5,t1
   14ba0:	06600893          	addi	a7,zero,102
   14ba4:	00ef0cb3          	add	s9,t5,a4
   14ba8:	fbcff06f          	jal	zero,14364 <_vfprintf_r+0x2698>
   14bac:	02d00713          	addi	a4,zero,45
   14bb0:	0ae102a3          	sb	a4,165(sp)
   14bb4:	ff800693          	addi	a3,zero,-8
   14bb8:	00100713          	addi	a4,zero,1
   14bbc:	40670733          	sub	a4,a4,t1
   14bc0:	96d348e3          	blt	t1,a3,14530 <_vfprintf_r+0x2864>
   14bc4:	03000693          	addi	a3,zero,48
   14bc8:	0ad10323          	sb	a3,166(sp)
   14bcc:	01712e23          	sw	s7,28(sp)
   14bd0:	00012823          	sw	zero,16(sp)
   14bd4:	0a710693          	addi	a3,sp,167
   14bd8:	8edfd06f          	jal	zero,124c4 <_vfprintf_r+0x7f8>
   14bdc:	02d00713          	addi	a4,zero,45
   14be0:	0ae102a3          	sb	a4,165(sp)
   14be4:	ff800693          	addi	a3,zero,-8
   14be8:	00100713          	addi	a4,zero,1
   14bec:	40c70733          	sub	a4,a4,a2
   14bf0:	94d644e3          	blt	a2,a3,14538 <_vfprintf_r+0x286c>
   14bf4:	8cdfd06f          	jal	zero,124c0 <_vfprintf_r+0x7f4>
   14bf8:	000216b7          	lui	a3,0x21
   14bfc:	be068713          	addi	a4,a3,-1056 # 20be0 <__clzsi2+0xa4>
   14c00:	00e12c23          	sw	a4,24(sp)
   14c04:	e6cfd06f          	jal	zero,12270 <_vfprintf_r+0x5a4>
   14c08:	00c12783          	lw	a5,12(sp)
   14c0c:	0007aa83          	lw	s5,0(a5)
   14c10:	00478793          	addi	a5,a5,4
   14c14:	000ad463          	bge	s5,zero,14c1c <_vfprintf_r+0x2f50>
   14c18:	fff00a93          	addi	s5,zero,-1
   14c1c:	001d4883          	lbu	a7,1(s10)
   14c20:	00f12623          	sw	a5,12(sp)
   14c24:	00068d13          	addi	s10,a3,0
   14c28:	a44fd06f          	jal	zero,11e6c <_vfprintf_r+0x1a0>
   14c2c:	09314703          	lbu	a4,147(sp)
   14c30:	08070263          	beq	a4,zero,14cb4 <_vfprintf_r+0x2fe8>
   14c34:	01012b83          	lw	s7,16(sp)
   14c38:	001c0c13          	addi	s8,s8,1
   14c3c:	00012823          	sw	zero,16(sp)
   14c40:	00000a93          	addi	s5,zero,0
   14c44:	ab8fd06f          	jal	zero,11efc <_vfprintf_r+0x230>
   14c48:	02071e63          	bne	a4,zero,14c84 <_vfprintf_r+0x2fb8>
   14c4c:	00100c13          	addi	s8,zero,1
   14c50:	000c0c93          	addi	s9,s8,0
   14c54:	06600893          	addi	a7,zero,102
   14c58:	f20ff06f          	jal	zero,14378 <_vfprintf_r+0x26ac>
   14c5c:	00100f93          	addi	t6,zero,1
   14c60:	0a012703          	lw	a4,160(sp)
   14c64:	415f8fb3          	sub	t6,t6,s5
   14c68:	09f12c23          	sw	t6,152(sp)
   14c6c:	00178c93          	addi	s9,a5,1
   14c70:	879766e3          	bltu	a4,s9,144dc <_vfprintf_r+0x2810>
   14c74:	40f70733          	sub	a4,a4,a5
   14c78:	000f8313          	addi	t1,t6,0
   14c7c:	00e12c23          	sw	a4,24(sp)
   14c80:	eccff06f          	jal	zero,1434c <_vfprintf_r+0x2680>
   14c84:	02412703          	lw	a4,36(sp)
   14c88:	06600893          	addi	a7,zero,102
   14c8c:	00170f13          	addi	t5,a4,1
   14c90:	015f0cb3          	add	s9,t5,s5
   14c94:	fffcc693          	xori	a3,s9,-1
   14c98:	41f6d693          	srai	a3,a3,0x1f
   14c9c:	00dcfc33          	and	s8,s9,a3
   14ca0:	ed8ff06f          	jal	zero,14378 <_vfprintf_r+0x26ac>
   14ca4:	64080813          	addi	a6,a6,1600
   14ca8:	fa9fe06f          	jal	zero,13c50 <_vfprintf_r+0x1f84>
   14cac:	09812303          	lw	t1,152(sp)
   14cb0:	985ff06f          	jal	zero,14634 <_vfprintf_r+0x2968>
   14cb4:	01012b83          	lw	s7,16(sp)
   14cb8:	00000a93          	addi	s5,zero,0
   14cbc:	00012823          	sw	zero,16(sp)
   14cc0:	a3cfd06f          	jal	zero,11efc <_vfprintf_r+0x230>
   14cc4:	00200713          	addi	a4,zero,2
   14cc8:	02e12623          	sw	a4,44(sp)
   14ccc:	8f9ff06f          	jal	zero,145c4 <_vfprintf_r+0x28f8>
   14cd0:	64080813          	addi	a6,a6,1600
   14cd4:	ad8ff06f          	jal	zero,13fac <_vfprintf_r+0x22e0>
   14cd8:	02012023          	sw	zero,32(sp)
   14cdc:	00012e23          	sw	zero,28(sp)
   14ce0:	a1cfd06f          	jal	zero,11efc <_vfprintf_r+0x230>
   14ce4:	64080813          	addi	a6,a6,1600
   14ce8:	ca5ff06f          	jal	zero,1498c <_vfprintf_r+0x2cc0>
   14cec:	01812703          	lw	a4,24(sp)
   14cf0:	00e78733          	add	a4,a5,a4
   14cf4:	f08ff06f          	jal	zero,143fc <_vfprintf_r+0x2730>
   14cf8:	00412483          	lw	s1,4(sp)
   14cfc:	00c4d783          	lhu	a5,12(s1)
   14d00:	0407e793          	ori	a5,a5,64
   14d04:	00f49623          	sh	a5,12(s1)
   14d08:	bb0fe06f          	jal	zero,130b8 <_vfprintf_r+0x13ec>
   14d0c:	00000713          	addi	a4,zero,0
   14d10:	02012023          	sw	zero,32(sp)
   14d14:	00012e23          	sw	zero,28(sp)
   14d18:	da5ff06f          	jal	zero,14abc <_vfprintf_r+0x2df0>
   14d1c:	00000a93          	addi	s5,zero,0
   14d20:	02012023          	sw	zero,32(sp)
   14d24:	00012e23          	sw	zero,28(sp)
   14d28:	00012823          	sw	zero,16(sp)
   14d2c:	00300c93          	addi	s9,zero,3
   14d30:	00400c13          	addi	s8,zero,4
   14d34:	9c8fd06f          	jal	zero,11efc <_vfprintf_r+0x230>
   14d38:	40f70733          	sub	a4,a4,a5
   14d3c:	09812303          	lw	t1,152(sp)
   14d40:	00e12c23          	sw	a4,24(sp)
   14d44:	8f1ff06f          	jal	zero,14634 <_vfprintf_r+0x2968>
   14d48:	09812303          	lw	t1,152(sp)
   14d4c:	fc4ff06f          	jal	zero,14510 <_vfprintf_r+0x2844>

00014d50 <vfprintf>:
   14d50:	00050713          	addi	a4,a0,0
   14d54:	f0c1a503          	lw	a0,-244(gp) # b471c <_impure_ptr>
   14d58:	00060693          	addi	a3,a2,0
   14d5c:	00058613          	addi	a2,a1,0
   14d60:	00070593          	addi	a1,a4,0
   14d64:	f69fc06f          	jal	zero,11ccc <_vfprintf_r>

00014d68 <__sbprintf>:
   14d68:	00c5d783          	lhu	a5,12(a1)
   14d6c:	0645ae83          	lw	t4,100(a1)
   14d70:	00e5de03          	lhu	t3,14(a1)
   14d74:	01c5a303          	lw	t1,28(a1)
   14d78:	0245a883          	lw	a7,36(a1)
   14d7c:	b7010113          	addi	sp,sp,-1168
   14d80:	ffd7f793          	andi	a5,a5,-3
   14d84:	08010813          	addi	a6,sp,128
   14d88:	40000713          	addi	a4,zero,1024
   14d8c:	48812423          	sw	s0,1160(sp)
   14d90:	00058413          	addi	s0,a1,0
   14d94:	01810593          	addi	a1,sp,24
   14d98:	48912223          	sw	s1,1156(sp)
   14d9c:	02f11223          	sh	a5,36(sp)
   14da0:	48112623          	sw	ra,1164(sp)
   14da4:	02012823          	sw	zero,48(sp)
   14da8:	07d12e23          	sw	t4,124(sp)
   14dac:	03c11323          	sh	t3,38(sp)
   14db0:	02612a23          	sw	t1,52(sp)
   14db4:	03112e23          	sw	a7,60(sp)
   14db8:	01012c23          	sw	a6,24(sp)
   14dbc:	03012423          	sw	a6,40(sp)
   14dc0:	02e12023          	sw	a4,32(sp)
   14dc4:	02e12623          	sw	a4,44(sp)
   14dc8:	00050493          	addi	s1,a0,0
   14dcc:	f01fc0ef          	jal	ra,11ccc <_vfprintf_r>
   14dd0:	00050793          	addi	a5,a0,0
   14dd4:	02055a63          	bge	a0,zero,14e08 <__sbprintf+0xa0>
   14dd8:	02415703          	lhu	a4,36(sp)
   14ddc:	04077713          	andi	a4,a4,64
   14de0:	00070863          	beq	a4,zero,14df0 <__sbprintf+0x88>
   14de4:	00c45703          	lhu	a4,12(s0)
   14de8:	04076713          	ori	a4,a4,64
   14dec:	00e41623          	sh	a4,12(s0)
   14df0:	48c12083          	lw	ra,1164(sp)
   14df4:	48812403          	lw	s0,1160(sp)
   14df8:	48412483          	lw	s1,1156(sp)
   14dfc:	00078513          	addi	a0,a5,0
   14e00:	49010113          	addi	sp,sp,1168
   14e04:	00008067          	jalr	zero,0(ra)
   14e08:	00a12623          	sw	a0,12(sp)
   14e0c:	01810593          	addi	a1,sp,24
   14e10:	00048513          	addi	a0,s1,0
   14e14:	3c0000ef          	jal	ra,151d4 <_fflush_r>
   14e18:	00c12783          	lw	a5,12(sp)
   14e1c:	fa050ee3          	beq	a0,zero,14dd8 <__sbprintf+0x70>
   14e20:	fff00793          	addi	a5,zero,-1
   14e24:	fb5ff06f          	jal	zero,14dd8 <__sbprintf+0x70>

00014e28 <__sprint_r>:
   14e28:	00862703          	lw	a4,8(a2)
   14e2c:	00071863          	bne	a4,zero,14e3c <__sprint_r+0x14>
   14e30:	00000513          	addi	a0,zero,0
   14e34:	00062223          	sw	zero,4(a2)
   14e38:	00008067          	jalr	zero,0(ra)
   14e3c:	fe010113          	addi	sp,sp,-32
   14e40:	00112e23          	sw	ra,28(sp)
   14e44:	00c12623          	sw	a2,12(sp)
   14e48:	480000ef          	jal	ra,152c8 <__sfvwrite_r>
   14e4c:	00c12783          	lw	a5,12(sp)
   14e50:	01c12083          	lw	ra,28(sp)
   14e54:	0007a423          	sw	zero,8(a5)
   14e58:	0007a223          	sw	zero,4(a5)
   14e5c:	02010113          	addi	sp,sp,32
   14e60:	00008067          	jalr	zero,0(ra)

00014e64 <_fclose_r>:
   14e64:	ff010113          	addi	sp,sp,-16
   14e68:	00112623          	sw	ra,12(sp)
   14e6c:	01212023          	sw	s2,0(sp)
   14e70:	02058863          	beq	a1,zero,14ea0 <_fclose_r+0x3c>
   14e74:	00812423          	sw	s0,8(sp)
   14e78:	00912223          	sw	s1,4(sp)
   14e7c:	00058413          	addi	s0,a1,0
   14e80:	00050493          	addi	s1,a0,0
   14e84:	00050663          	beq	a0,zero,14e90 <_fclose_r+0x2c>
   14e88:	03452783          	lw	a5,52(a0)
   14e8c:	0c078c63          	beq	a5,zero,14f64 <_fclose_r+0x100>
   14e90:	00c41783          	lh	a5,12(s0)
   14e94:	02079263          	bne	a5,zero,14eb8 <_fclose_r+0x54>
   14e98:	00812403          	lw	s0,8(sp)
   14e9c:	00412483          	lw	s1,4(sp)
   14ea0:	00c12083          	lw	ra,12(sp)
   14ea4:	00000913          	addi	s2,zero,0
   14ea8:	00090513          	addi	a0,s2,0
   14eac:	00012903          	lw	s2,0(sp)
   14eb0:	01010113          	addi	sp,sp,16
   14eb4:	00008067          	jalr	zero,0(ra)
   14eb8:	00040593          	addi	a1,s0,0
   14ebc:	00048513          	addi	a0,s1,0
   14ec0:	0b8000ef          	jal	ra,14f78 <__sflush_r>
   14ec4:	02c42783          	lw	a5,44(s0)
   14ec8:	00050913          	addi	s2,a0,0
   14ecc:	00078a63          	beq	a5,zero,14ee0 <_fclose_r+0x7c>
   14ed0:	01c42583          	lw	a1,28(s0)
   14ed4:	00048513          	addi	a0,s1,0
   14ed8:	000780e7          	jalr	ra,0(a5)
   14edc:	06054463          	blt	a0,zero,14f44 <_fclose_r+0xe0>
   14ee0:	00c45783          	lhu	a5,12(s0)
   14ee4:	0807f793          	andi	a5,a5,128
   14ee8:	06079663          	bne	a5,zero,14f54 <_fclose_r+0xf0>
   14eec:	03042583          	lw	a1,48(s0)
   14ef0:	00058c63          	beq	a1,zero,14f08 <_fclose_r+0xa4>
   14ef4:	04040793          	addi	a5,s0,64
   14ef8:	00f58663          	beq	a1,a5,14f04 <_fclose_r+0xa0>
   14efc:	00048513          	addi	a0,s1,0
   14f00:	a64fc0ef          	jal	ra,11164 <_free_r>
   14f04:	02042823          	sw	zero,48(s0)
   14f08:	04442583          	lw	a1,68(s0)
   14f0c:	00058863          	beq	a1,zero,14f1c <_fclose_r+0xb8>
   14f10:	00048513          	addi	a0,s1,0
   14f14:	a50fc0ef          	jal	ra,11164 <_free_r>
   14f18:	04042223          	sw	zero,68(s0)
   14f1c:	91dfb0ef          	jal	ra,10838 <__sfp_lock_acquire>
   14f20:	00041623          	sh	zero,12(s0)
   14f24:	919fb0ef          	jal	ra,1083c <__sfp_lock_release>
   14f28:	00c12083          	lw	ra,12(sp)
   14f2c:	00812403          	lw	s0,8(sp)
   14f30:	00412483          	lw	s1,4(sp)
   14f34:	00090513          	addi	a0,s2,0
   14f38:	00012903          	lw	s2,0(sp)
   14f3c:	01010113          	addi	sp,sp,16
   14f40:	00008067          	jalr	zero,0(ra)
   14f44:	00c45783          	lhu	a5,12(s0)
   14f48:	fff00913          	addi	s2,zero,-1
   14f4c:	0807f793          	andi	a5,a5,128
   14f50:	f8078ee3          	beq	a5,zero,14eec <_fclose_r+0x88>
   14f54:	01042583          	lw	a1,16(s0)
   14f58:	00048513          	addi	a0,s1,0
   14f5c:	a08fc0ef          	jal	ra,11164 <_free_r>
   14f60:	f8dff06f          	jal	zero,14eec <_fclose_r+0x88>
   14f64:	8b1fb0ef          	jal	ra,10814 <__sinit>
   14f68:	f29ff06f          	jal	zero,14e90 <_fclose_r+0x2c>

00014f6c <fclose>:
   14f6c:	00050593          	addi	a1,a0,0
   14f70:	f0c1a503          	lw	a0,-244(gp) # b471c <_impure_ptr>
   14f74:	ef1ff06f          	jal	zero,14e64 <_fclose_r>

00014f78 <__sflush_r>:
   14f78:	00c59703          	lh	a4,12(a1)
   14f7c:	fe010113          	addi	sp,sp,-32
   14f80:	00812c23          	sw	s0,24(sp)
   14f84:	01312623          	sw	s3,12(sp)
   14f88:	00112e23          	sw	ra,28(sp)
   14f8c:	00877793          	andi	a5,a4,8
   14f90:	00058413          	addi	s0,a1,0
   14f94:	00050993          	addi	s3,a0,0
   14f98:	12079263          	bne	a5,zero,150bc <__sflush_r+0x144>
   14f9c:	000017b7          	lui	a5,0x1
   14fa0:	80078793          	addi	a5,a5,-2048 # 800 <exit-0xf8b4>
   14fa4:	0045a683          	lw	a3,4(a1)
   14fa8:	00f767b3          	or	a5,a4,a5
   14fac:	00f59623          	sh	a5,12(a1)
   14fb0:	18d05c63          	bge	zero,a3,15148 <__sflush_r+0x1d0>
   14fb4:	02842803          	lw	a6,40(s0)
   14fb8:	0e080663          	beq	a6,zero,150a4 <__sflush_r+0x12c>
   14fbc:	00912a23          	sw	s1,20(sp)
   14fc0:	01371693          	slli	a3,a4,0x13
   14fc4:	0009a483          	lw	s1,0(s3)
   14fc8:	0009a023          	sw	zero,0(s3)
   14fcc:	1806ca63          	blt	a3,zero,15160 <__sflush_r+0x1e8>
   14fd0:	01c42583          	lw	a1,28(s0)
   14fd4:	00000613          	addi	a2,zero,0
   14fd8:	00100693          	addi	a3,zero,1
   14fdc:	00098513          	addi	a0,s3,0
   14fe0:	000800e7          	jalr	ra,0(a6)
   14fe4:	fff00793          	addi	a5,zero,-1
   14fe8:	00050613          	addi	a2,a0,0
   14fec:	1af50c63          	beq	a0,a5,151a4 <__sflush_r+0x22c>
   14ff0:	00c41783          	lh	a5,12(s0)
   14ff4:	02842803          	lw	a6,40(s0)
   14ff8:	0047f793          	andi	a5,a5,4
   14ffc:	00078e63          	beq	a5,zero,15018 <__sflush_r+0xa0>
   15000:	00442703          	lw	a4,4(s0)
   15004:	03042783          	lw	a5,48(s0)
   15008:	40e60633          	sub	a2,a2,a4
   1500c:	00078663          	beq	a5,zero,15018 <__sflush_r+0xa0>
   15010:	03c42783          	lw	a5,60(s0)
   15014:	40f60633          	sub	a2,a2,a5
   15018:	01c42583          	lw	a1,28(s0)
   1501c:	00000693          	addi	a3,zero,0
   15020:	00098513          	addi	a0,s3,0
   15024:	000800e7          	jalr	ra,0(a6)
   15028:	fff00713          	addi	a4,zero,-1
   1502c:	00c41783          	lh	a5,12(s0)
   15030:	12e51c63          	bne	a0,a4,15168 <__sflush_r+0x1f0>
   15034:	0009a683          	lw	a3,0(s3)
   15038:	01d00713          	addi	a4,zero,29
   1503c:	18d76263          	bltu	a4,a3,151c0 <__sflush_r+0x248>
   15040:	20400737          	lui	a4,0x20400
   15044:	00170713          	addi	a4,a4,1 # 20400001 <__BSS_END__+0x2034b5ad>
   15048:	00d75733          	srl	a4,a4,a3
   1504c:	00177713          	andi	a4,a4,1
   15050:	16070863          	beq	a4,zero,151c0 <__sflush_r+0x248>
   15054:	01042683          	lw	a3,16(s0)
   15058:	fffff737          	lui	a4,0xfffff
   1505c:	7ff70713          	addi	a4,a4,2047 # fffff7ff <__BSS_END__+0xfff4adab>
   15060:	00e7f733          	and	a4,a5,a4
   15064:	00e41623          	sh	a4,12(s0)
   15068:	00042223          	sw	zero,4(s0)
   1506c:	00d42023          	sw	a3,0(s0)
   15070:	01379713          	slli	a4,a5,0x13
   15074:	00075663          	bge	a4,zero,15080 <__sflush_r+0x108>
   15078:	0009a783          	lw	a5,0(s3)
   1507c:	10078863          	beq	a5,zero,1518c <__sflush_r+0x214>
   15080:	03042583          	lw	a1,48(s0)
   15084:	0099a023          	sw	s1,0(s3)
   15088:	10058a63          	beq	a1,zero,1519c <__sflush_r+0x224>
   1508c:	04040793          	addi	a5,s0,64
   15090:	00f58663          	beq	a1,a5,1509c <__sflush_r+0x124>
   15094:	00098513          	addi	a0,s3,0
   15098:	8ccfc0ef          	jal	ra,11164 <_free_r>
   1509c:	01412483          	lw	s1,20(sp)
   150a0:	02042823          	sw	zero,48(s0)
   150a4:	01c12083          	lw	ra,28(sp)
   150a8:	01812403          	lw	s0,24(sp)
   150ac:	00c12983          	lw	s3,12(sp)
   150b0:	00000513          	addi	a0,zero,0
   150b4:	02010113          	addi	sp,sp,32
   150b8:	00008067          	jalr	zero,0(ra)
   150bc:	01212823          	sw	s2,16(sp)
   150c0:	0105a903          	lw	s2,16(a1)
   150c4:	08090a63          	beq	s2,zero,15158 <__sflush_r+0x1e0>
   150c8:	00912a23          	sw	s1,20(sp)
   150cc:	0005a483          	lw	s1,0(a1)
   150d0:	00377713          	andi	a4,a4,3
   150d4:	0125a023          	sw	s2,0(a1)
   150d8:	412484b3          	sub	s1,s1,s2
   150dc:	00000793          	addi	a5,zero,0
   150e0:	00071463          	bne	a4,zero,150e8 <__sflush_r+0x170>
   150e4:	0145a783          	lw	a5,20(a1)
   150e8:	00f42423          	sw	a5,8(s0)
   150ec:	00904863          	blt	zero,s1,150fc <__sflush_r+0x184>
   150f0:	0640006f          	jal	zero,15154 <__sflush_r+0x1dc>
   150f4:	00a90933          	add	s2,s2,a0
   150f8:	04905e63          	bge	zero,s1,15154 <__sflush_r+0x1dc>
   150fc:	02442783          	lw	a5,36(s0)
   15100:	01c42583          	lw	a1,28(s0)
   15104:	00048693          	addi	a3,s1,0
   15108:	00090613          	addi	a2,s2,0
   1510c:	00098513          	addi	a0,s3,0
   15110:	000780e7          	jalr	ra,0(a5)
   15114:	40a484b3          	sub	s1,s1,a0
   15118:	fca04ee3          	blt	zero,a0,150f4 <__sflush_r+0x17c>
   1511c:	00c45783          	lhu	a5,12(s0)
   15120:	01012903          	lw	s2,16(sp)
   15124:	0407e793          	ori	a5,a5,64
   15128:	01c12083          	lw	ra,28(sp)
   1512c:	00f41623          	sh	a5,12(s0)
   15130:	01812403          	lw	s0,24(sp)
   15134:	01412483          	lw	s1,20(sp)
   15138:	00c12983          	lw	s3,12(sp)
   1513c:	fff00513          	addi	a0,zero,-1
   15140:	02010113          	addi	sp,sp,32
   15144:	00008067          	jalr	zero,0(ra)
   15148:	03c5a683          	lw	a3,60(a1)
   1514c:	e6d044e3          	blt	zero,a3,14fb4 <__sflush_r+0x3c>
   15150:	f55ff06f          	jal	zero,150a4 <__sflush_r+0x12c>
   15154:	01412483          	lw	s1,20(sp)
   15158:	01012903          	lw	s2,16(sp)
   1515c:	f49ff06f          	jal	zero,150a4 <__sflush_r+0x12c>
   15160:	05042603          	lw	a2,80(s0)
   15164:	e95ff06f          	jal	zero,14ff8 <__sflush_r+0x80>
   15168:	01042683          	lw	a3,16(s0)
   1516c:	fffff737          	lui	a4,0xfffff
   15170:	7ff70713          	addi	a4,a4,2047 # fffff7ff <__BSS_END__+0xfff4adab>
   15174:	00e7f733          	and	a4,a5,a4
   15178:	00e41623          	sh	a4,12(s0)
   1517c:	00042223          	sw	zero,4(s0)
   15180:	00d42023          	sw	a3,0(s0)
   15184:	01379713          	slli	a4,a5,0x13
   15188:	ee075ce3          	bge	a4,zero,15080 <__sflush_r+0x108>
   1518c:	03042583          	lw	a1,48(s0)
   15190:	04a42823          	sw	a0,80(s0)
   15194:	0099a023          	sw	s1,0(s3)
   15198:	ee059ae3          	bne	a1,zero,1508c <__sflush_r+0x114>
   1519c:	01412483          	lw	s1,20(sp)
   151a0:	f05ff06f          	jal	zero,150a4 <__sflush_r+0x12c>
   151a4:	0009a783          	lw	a5,0(s3)
   151a8:	e40784e3          	beq	a5,zero,14ff0 <__sflush_r+0x78>
   151ac:	fe378713          	addi	a4,a5,-29
   151b0:	00070c63          	beq	a4,zero,151c8 <__sflush_r+0x250>
   151b4:	fea78793          	addi	a5,a5,-22
   151b8:	00078863          	beq	a5,zero,151c8 <__sflush_r+0x250>
   151bc:	00c45783          	lhu	a5,12(s0)
   151c0:	0407e793          	ori	a5,a5,64
   151c4:	f65ff06f          	jal	zero,15128 <__sflush_r+0x1b0>
   151c8:	0099a023          	sw	s1,0(s3)
   151cc:	01412483          	lw	s1,20(sp)
   151d0:	ed5ff06f          	jal	zero,150a4 <__sflush_r+0x12c>

000151d4 <_fflush_r>:
   151d4:	00050793          	addi	a5,a0,0
   151d8:	00050663          	beq	a0,zero,151e4 <_fflush_r+0x10>
   151dc:	03452703          	lw	a4,52(a0)
   151e0:	00070e63          	beq	a4,zero,151fc <_fflush_r+0x28>
   151e4:	00c59703          	lh	a4,12(a1)
   151e8:	00071663          	bne	a4,zero,151f4 <_fflush_r+0x20>
   151ec:	00000513          	addi	a0,zero,0
   151f0:	00008067          	jalr	zero,0(ra)
   151f4:	00078513          	addi	a0,a5,0
   151f8:	d81ff06f          	jal	zero,14f78 <__sflush_r>
   151fc:	fe010113          	addi	sp,sp,-32
   15200:	00b12623          	sw	a1,12(sp)
   15204:	00112e23          	sw	ra,28(sp)
   15208:	00a12423          	sw	a0,8(sp)
   1520c:	e08fb0ef          	jal	ra,10814 <__sinit>
   15210:	00c12583          	lw	a1,12(sp)
   15214:	00812783          	lw	a5,8(sp)
   15218:	00c59703          	lh	a4,12(a1)
   1521c:	00070a63          	beq	a4,zero,15230 <_fflush_r+0x5c>
   15220:	01c12083          	lw	ra,28(sp)
   15224:	00078513          	addi	a0,a5,0
   15228:	02010113          	addi	sp,sp,32
   1522c:	d4dff06f          	jal	zero,14f78 <__sflush_r>
   15230:	01c12083          	lw	ra,28(sp)
   15234:	00000513          	addi	a0,zero,0
   15238:	02010113          	addi	sp,sp,32
   1523c:	00008067          	jalr	zero,0(ra)

00015240 <fflush>:
   15240:	06050063          	beq	a0,zero,152a0 <fflush+0x60>
   15244:	00050593          	addi	a1,a0,0
   15248:	f0c1a503          	lw	a0,-244(gp) # b471c <_impure_ptr>
   1524c:	00050663          	beq	a0,zero,15258 <fflush+0x18>
   15250:	03452783          	lw	a5,52(a0)
   15254:	00078c63          	beq	a5,zero,1526c <fflush+0x2c>
   15258:	00c59783          	lh	a5,12(a1)
   1525c:	00079663          	bne	a5,zero,15268 <fflush+0x28>
   15260:	00000513          	addi	a0,zero,0
   15264:	00008067          	jalr	zero,0(ra)
   15268:	d11ff06f          	jal	zero,14f78 <__sflush_r>
   1526c:	fe010113          	addi	sp,sp,-32
   15270:	00b12623          	sw	a1,12(sp)
   15274:	00a12423          	sw	a0,8(sp)
   15278:	00112e23          	sw	ra,28(sp)
   1527c:	d98fb0ef          	jal	ra,10814 <__sinit>
   15280:	00c12583          	lw	a1,12(sp)
   15284:	00812503          	lw	a0,8(sp)
   15288:	00c59783          	lh	a5,12(a1)
   1528c:	02079863          	bne	a5,zero,152bc <fflush+0x7c>
   15290:	01c12083          	lw	ra,28(sp)
   15294:	00000513          	addi	a0,zero,0
   15298:	02010113          	addi	sp,sp,32
   1529c:	00008067          	jalr	zero,0(ra)
   152a0:	000b4637          	lui	a2,0xb4
   152a4:	000155b7          	lui	a1,0x15
   152a8:	000b4537          	lui	a0,0xb4
   152ac:	01060613          	addi	a2,a2,16 # b4010 <__sglue>
   152b0:	1d458593          	addi	a1,a1,468 # 151d4 <_fflush_r>
   152b4:	02050513          	addi	a0,a0,32 # b4020 <_impure_data>
   152b8:	db8fb06f          	jal	zero,10870 <_fwalk_sglue>
   152bc:	01c12083          	lw	ra,28(sp)
   152c0:	02010113          	addi	sp,sp,32
   152c4:	cb5ff06f          	jal	zero,14f78 <__sflush_r>

000152c8 <__sfvwrite_r>:
   152c8:	00862783          	lw	a5,8(a2)
   152cc:	22078c63          	beq	a5,zero,15504 <__sfvwrite_r+0x23c>
   152d0:	00c59683          	lh	a3,12(a1)
   152d4:	fc010113          	addi	sp,sp,-64
   152d8:	02812c23          	sw	s0,56(sp)
   152dc:	03412423          	sw	s4,40(sp)
   152e0:	03512223          	sw	s5,36(sp)
   152e4:	02112e23          	sw	ra,60(sp)
   152e8:	0086f793          	andi	a5,a3,8
   152ec:	00058413          	addi	s0,a1,0
   152f0:	00050a93          	addi	s5,a0,0
   152f4:	00060a13          	addi	s4,a2,0
   152f8:	0a078463          	beq	a5,zero,153a0 <__sfvwrite_r+0xd8>
   152fc:	0105a783          	lw	a5,16(a1)
   15300:	0a078063          	beq	a5,zero,153a0 <__sfvwrite_r+0xd8>
   15304:	02912a23          	sw	s1,52(sp)
   15308:	03212823          	sw	s2,48(sp)
   1530c:	03312623          	sw	s3,44(sp)
   15310:	03612023          	sw	s6,32(sp)
   15314:	0026f793          	andi	a5,a3,2
   15318:	000a2483          	lw	s1,0(s4)
   1531c:	0a078a63          	beq	a5,zero,153d0 <__sfvwrite_r+0x108>
   15320:	80000b37          	lui	s6,0x80000
   15324:	c00b0b13          	addi	s6,s6,-1024 # 7ffffc00 <__BSS_END__+0x7ff4b1ac>
   15328:	00000993          	addi	s3,zero,0
   1532c:	00000913          	addi	s2,zero,0
   15330:	00098613          	addi	a2,s3,0
   15334:	000a8513          	addi	a0,s5,0
   15338:	1a090e63          	beq	s2,zero,154f4 <__sfvwrite_r+0x22c>
   1533c:	00090693          	addi	a3,s2,0
   15340:	012b7663          	bgeu	s6,s2,1534c <__sfvwrite_r+0x84>
   15344:	800006b7          	lui	a3,0x80000
   15348:	c0068693          	addi	a3,a3,-1024 # 7ffffc00 <__BSS_END__+0x7ff4b1ac>
   1534c:	02442783          	lw	a5,36(s0)
   15350:	01c42583          	lw	a1,28(s0)
   15354:	000780e7          	jalr	ra,0(a5)
   15358:	40a05863          	bge	zero,a0,15768 <__sfvwrite_r+0x4a0>
   1535c:	008a2783          	lw	a5,8(s4)
   15360:	00a989b3          	add	s3,s3,a0
   15364:	40a90933          	sub	s2,s2,a0
   15368:	40a787b3          	sub	a5,a5,a0
   1536c:	00fa2423          	sw	a5,8(s4)
   15370:	fc0790e3          	bne	a5,zero,15330 <__sfvwrite_r+0x68>
   15374:	03412483          	lw	s1,52(sp)
   15378:	03012903          	lw	s2,48(sp)
   1537c:	02c12983          	lw	s3,44(sp)
   15380:	02012b03          	lw	s6,32(sp)
   15384:	00000513          	addi	a0,zero,0
   15388:	03c12083          	lw	ra,60(sp)
   1538c:	03812403          	lw	s0,56(sp)
   15390:	02812a03          	lw	s4,40(sp)
   15394:	02412a83          	lw	s5,36(sp)
   15398:	04010113          	addi	sp,sp,64
   1539c:	00008067          	jalr	zero,0(ra)
   153a0:	00040593          	addi	a1,s0,0
   153a4:	000a8513          	addi	a0,s5,0
   153a8:	3e0000ef          	jal	ra,15788 <__swsetup_r>
   153ac:	26051663          	bne	a0,zero,15618 <__sfvwrite_r+0x350>
   153b0:	00c41683          	lh	a3,12(s0)
   153b4:	02912a23          	sw	s1,52(sp)
   153b8:	03212823          	sw	s2,48(sp)
   153bc:	03312623          	sw	s3,44(sp)
   153c0:	03612023          	sw	s6,32(sp)
   153c4:	0026f793          	andi	a5,a3,2
   153c8:	000a2483          	lw	s1,0(s4)
   153cc:	f4079ae3          	bne	a5,zero,15320 <__sfvwrite_r+0x58>
   153d0:	01712e23          	sw	s7,28(sp)
   153d4:	01812c23          	sw	s8,24(sp)
   153d8:	0016f793          	andi	a5,a3,1
   153dc:	12079863          	bne	a5,zero,1550c <__sfvwrite_r+0x244>
   153e0:	00042783          	lw	a5,0(s0)
   153e4:	80000737          	lui	a4,0x80000
   153e8:	fff70c13          	addi	s8,a4,-1 # 7fffffff <__BSS_END__+0x7ff4b5ab>
   153ec:	00000b13          	addi	s6,zero,0
   153f0:	00000993          	addi	s3,zero,0
   153f4:	0e098863          	beq	s3,zero,154e4 <__sfvwrite_r+0x21c>
   153f8:	2006f713          	andi	a4,a3,512
   153fc:	00842903          	lw	s2,8(s0)
   15400:	00078513          	addi	a0,a5,0
   15404:	20070e63          	beq	a4,zero,15620 <__sfvwrite_r+0x358>
   15408:	00090b93          	addi	s7,s2,0
   1540c:	2d29e063          	bltu	s3,s2,156cc <__sfvwrite_r+0x404>
   15410:	4806f713          	andi	a4,a3,1152
   15414:	08070c63          	beq	a4,zero,154ac <__sfvwrite_r+0x1e4>
   15418:	01442603          	lw	a2,20(s0)
   1541c:	01042583          	lw	a1,16(s0)
   15420:	00161713          	slli	a4,a2,0x1
   15424:	00c70733          	add	a4,a4,a2
   15428:	01f75913          	srli	s2,a4,0x1f
   1542c:	40b78bb3          	sub	s7,a5,a1
   15430:	00e90933          	add	s2,s2,a4
   15434:	001b8793          	addi	a5,s7,1
   15438:	40195913          	srai	s2,s2,0x1
   1543c:	013787b3          	add	a5,a5,s3
   15440:	00090613          	addi	a2,s2,0
   15444:	00f97663          	bgeu	s2,a5,15450 <__sfvwrite_r+0x188>
   15448:	00078913          	addi	s2,a5,0
   1544c:	00078613          	addi	a2,a5,0
   15450:	4006f693          	andi	a3,a3,1024
   15454:	2c068263          	beq	a3,zero,15718 <__sfvwrite_r+0x450>
   15458:	00060593          	addi	a1,a2,0
   1545c:	000a8513          	addi	a0,s5,0
   15460:	fedfb0ef          	jal	ra,1144c <_malloc_r>
   15464:	30050663          	beq	a0,zero,15770 <__sfvwrite_r+0x4a8>
   15468:	01042583          	lw	a1,16(s0)
   1546c:	000b8613          	addi	a2,s7,0
   15470:	00a12623          	sw	a0,12(sp)
   15474:	7bc000ef          	jal	ra,15c30 <memcpy>
   15478:	00c45783          	lhu	a5,12(s0)
   1547c:	00c12703          	lw	a4,12(sp)
   15480:	b7f7f793          	andi	a5,a5,-1153
   15484:	0807e793          	ori	a5,a5,128
   15488:	00f41623          	sh	a5,12(s0)
   1548c:	417907b3          	sub	a5,s2,s7
   15490:	01770533          	add	a0,a4,s7
   15494:	01242a23          	sw	s2,20(s0)
   15498:	00e42823          	sw	a4,16(s0)
   1549c:	00a42023          	sw	a0,0(s0)
   154a0:	00f42423          	sw	a5,8(s0)
   154a4:	00098913          	addi	s2,s3,0
   154a8:	00098b93          	addi	s7,s3,0
   154ac:	000b0593          	addi	a1,s6,0
   154b0:	000b8613          	addi	a2,s7,0
   154b4:	654000ef          	jal	ra,15b08 <memmove>
   154b8:	00842703          	lw	a4,8(s0)
   154bc:	00042783          	lw	a5,0(s0)
   154c0:	41270733          	sub	a4,a4,s2
   154c4:	00e42423          	sw	a4,8(s0)
   154c8:	008a2703          	lw	a4,8(s4)
   154cc:	017787b3          	add	a5,a5,s7
   154d0:	00f42023          	sw	a5,0(s0)
   154d4:	41370733          	sub	a4,a4,s3
   154d8:	00ea2423          	sw	a4,8(s4)
   154dc:	28070063          	beq	a4,zero,1575c <__sfvwrite_r+0x494>
   154e0:	00c41683          	lh	a3,12(s0)
   154e4:	0004ab03          	lw	s6,0(s1)
   154e8:	0044a983          	lw	s3,4(s1)
   154ec:	00848493          	addi	s1,s1,8
   154f0:	f05ff06f          	jal	zero,153f4 <__sfvwrite_r+0x12c>
   154f4:	0004a983          	lw	s3,0(s1)
   154f8:	0044a903          	lw	s2,4(s1)
   154fc:	00848493          	addi	s1,s1,8
   15500:	e31ff06f          	jal	zero,15330 <__sfvwrite_r+0x68>
   15504:	00000513          	addi	a0,zero,0
   15508:	00008067          	jalr	zero,0(ra)
   1550c:	00000b13          	addi	s6,zero,0
   15510:	00000b93          	addi	s7,zero,0
   15514:	00000513          	addi	a0,zero,0
   15518:	00000c13          	addi	s8,zero,0
   1551c:	060b0e63          	beq	s6,zero,15598 <__sfvwrite_r+0x2d0>
   15520:	08050663          	beq	a0,zero,155ac <__sfvwrite_r+0x2e4>
   15524:	000b8793          	addi	a5,s7,0
   15528:	000b0993          	addi	s3,s6,0
   1552c:	0167f463          	bgeu	a5,s6,15534 <__sfvwrite_r+0x26c>
   15530:	00078993          	addi	s3,a5,0
   15534:	01442683          	lw	a3,20(s0)
   15538:	00842903          	lw	s2,8(s0)
   1553c:	00042503          	lw	a0,0(s0)
   15540:	01042783          	lw	a5,16(s0)
   15544:	01268933          	add	s2,a3,s2
   15548:	00a7f463          	bgeu	a5,a0,15550 <__sfvwrite_r+0x288>
   1554c:	09394063          	blt	s2,s3,155cc <__sfvwrite_r+0x304>
   15550:	18d9ce63          	blt	s3,a3,156ec <__sfvwrite_r+0x424>
   15554:	02442783          	lw	a5,36(s0)
   15558:	01c42583          	lw	a1,28(s0)
   1555c:	000c0613          	addi	a2,s8,0
   15560:	000a8513          	addi	a0,s5,0
   15564:	000780e7          	jalr	ra,0(a5)
   15568:	00050913          	addi	s2,a0,0
   1556c:	08a05463          	bge	zero,a0,155f4 <__sfvwrite_r+0x32c>
   15570:	412b8bb3          	sub	s7,s7,s2
   15574:	00100513          	addi	a0,zero,1
   15578:	160b8063          	beq	s7,zero,156d8 <__sfvwrite_r+0x410>
   1557c:	008a2783          	lw	a5,8(s4)
   15580:	412787b3          	sub	a5,a5,s2
   15584:	00fa2423          	sw	a5,8(s4)
   15588:	1c078a63          	beq	a5,zero,1575c <__sfvwrite_r+0x494>
   1558c:	412b0b33          	sub	s6,s6,s2
   15590:	012c0c33          	add	s8,s8,s2
   15594:	f80b16e3          	bne	s6,zero,15520 <__sfvwrite_r+0x258>
   15598:	0044ab03          	lw	s6,4(s1)
   1559c:	00048793          	addi	a5,s1,0
   155a0:	00848493          	addi	s1,s1,8
   155a4:	fe0b0ae3          	beq	s6,zero,15598 <__sfvwrite_r+0x2d0>
   155a8:	0007ac03          	lw	s8,0(a5)
   155ac:	000b0613          	addi	a2,s6,0
   155b0:	00a00593          	addi	a1,zero,10
   155b4:	000c0513          	addi	a0,s8,0
   155b8:	334000ef          	jal	ra,158ec <memchr>
   155bc:	18050a63          	beq	a0,zero,15750 <__sfvwrite_r+0x488>
   155c0:	00150513          	addi	a0,a0,1
   155c4:	41850bb3          	sub	s7,a0,s8
   155c8:	f5dff06f          	jal	zero,15524 <__sfvwrite_r+0x25c>
   155cc:	000c0593          	addi	a1,s8,0
   155d0:	00090613          	addi	a2,s2,0
   155d4:	534000ef          	jal	ra,15b08 <memmove>
   155d8:	00042783          	lw	a5,0(s0)
   155dc:	00040593          	addi	a1,s0,0
   155e0:	000a8513          	addi	a0,s5,0
   155e4:	012787b3          	add	a5,a5,s2
   155e8:	00f42023          	sw	a5,0(s0)
   155ec:	be9ff0ef          	jal	ra,151d4 <_fflush_r>
   155f0:	f80500e3          	beq	a0,zero,15570 <__sfvwrite_r+0x2a8>
   155f4:	00c41783          	lh	a5,12(s0)
   155f8:	01c12b83          	lw	s7,28(sp)
   155fc:	01812c03          	lw	s8,24(sp)
   15600:	03412483          	lw	s1,52(sp)
   15604:	03012903          	lw	s2,48(sp)
   15608:	02c12983          	lw	s3,44(sp)
   1560c:	02012b03          	lw	s6,32(sp)
   15610:	0407e793          	ori	a5,a5,64
   15614:	00f41623          	sh	a5,12(s0)
   15618:	fff00513          	addi	a0,zero,-1
   1561c:	d6dff06f          	jal	zero,15388 <__sfvwrite_r+0xc0>
   15620:	01042703          	lw	a4,16(s0)
   15624:	06f76063          	bltu	a4,a5,15684 <__sfvwrite_r+0x3bc>
   15628:	01442703          	lw	a4,20(s0)
   1562c:	04e9ec63          	bltu	s3,a4,15684 <__sfvwrite_r+0x3bc>
   15630:	00098693          	addi	a3,s3,0
   15634:	013c7463          	bgeu	s8,s3,1563c <__sfvwrite_r+0x374>
   15638:	000c0693          	addi	a3,s8,0
   1563c:	02e6e733          	rem	a4,a3,a4
   15640:	02442783          	lw	a5,36(s0)
   15644:	01c42583          	lw	a1,28(s0)
   15648:	000b0613          	addi	a2,s6,0
   1564c:	000a8513          	addi	a0,s5,0
   15650:	40e686b3          	sub	a3,a3,a4
   15654:	000780e7          	jalr	ra,0(a5)
   15658:	f8a05ee3          	bge	zero,a0,155f4 <__sfvwrite_r+0x32c>
   1565c:	00050913          	addi	s2,a0,0
   15660:	008a2783          	lw	a5,8(s4)
   15664:	412989b3          	sub	s3,s3,s2
   15668:	412787b3          	sub	a5,a5,s2
   1566c:	00fa2423          	sw	a5,8(s4)
   15670:	0e078663          	beq	a5,zero,1575c <__sfvwrite_r+0x494>
   15674:	00c41683          	lh	a3,12(s0)
   15678:	00042783          	lw	a5,0(s0)
   1567c:	012b0b33          	add	s6,s6,s2
   15680:	d75ff06f          	jal	zero,153f4 <__sfvwrite_r+0x12c>
   15684:	0129f463          	bgeu	s3,s2,1568c <__sfvwrite_r+0x3c4>
   15688:	00098913          	addi	s2,s3,0
   1568c:	00078513          	addi	a0,a5,0
   15690:	00090613          	addi	a2,s2,0
   15694:	000b0593          	addi	a1,s6,0
   15698:	470000ef          	jal	ra,15b08 <memmove>
   1569c:	00042783          	lw	a5,0(s0)
   156a0:	00842703          	lw	a4,8(s0)
   156a4:	012787b3          	add	a5,a5,s2
   156a8:	41270733          	sub	a4,a4,s2
   156ac:	00f42023          	sw	a5,0(s0)
   156b0:	00e42423          	sw	a4,8(s0)
   156b4:	fa0716e3          	bne	a4,zero,15660 <__sfvwrite_r+0x398>
   156b8:	00040593          	addi	a1,s0,0
   156bc:	000a8513          	addi	a0,s5,0
   156c0:	b15ff0ef          	jal	ra,151d4 <_fflush_r>
   156c4:	f8050ee3          	beq	a0,zero,15660 <__sfvwrite_r+0x398>
   156c8:	f2dff06f          	jal	zero,155f4 <__sfvwrite_r+0x32c>
   156cc:	00098913          	addi	s2,s3,0
   156d0:	00098b93          	addi	s7,s3,0
   156d4:	dd9ff06f          	jal	zero,154ac <__sfvwrite_r+0x1e4>
   156d8:	00040593          	addi	a1,s0,0
   156dc:	000a8513          	addi	a0,s5,0
   156e0:	af5ff0ef          	jal	ra,151d4 <_fflush_r>
   156e4:	e8050ce3          	beq	a0,zero,1557c <__sfvwrite_r+0x2b4>
   156e8:	f0dff06f          	jal	zero,155f4 <__sfvwrite_r+0x32c>
   156ec:	00098613          	addi	a2,s3,0
   156f0:	000c0593          	addi	a1,s8,0
   156f4:	414000ef          	jal	ra,15b08 <memmove>
   156f8:	00842703          	lw	a4,8(s0)
   156fc:	00042783          	lw	a5,0(s0)
   15700:	00098913          	addi	s2,s3,0
   15704:	41370733          	sub	a4,a4,s3
   15708:	013787b3          	add	a5,a5,s3
   1570c:	00e42423          	sw	a4,8(s0)
   15710:	00f42023          	sw	a5,0(s0)
   15714:	e5dff06f          	jal	zero,15570 <__sfvwrite_r+0x2a8>
   15718:	000a8513          	addi	a0,s5,0
   1571c:	7f1030ef          	jal	ra,1970c <_realloc_r>
   15720:	00050713          	addi	a4,a0,0
   15724:	d60514e3          	bne	a0,zero,1548c <__sfvwrite_r+0x1c4>
   15728:	01042583          	lw	a1,16(s0)
   1572c:	000a8513          	addi	a0,s5,0
   15730:	a35fb0ef          	jal	ra,11164 <_free_r>
   15734:	00c45783          	lhu	a5,12(s0)
   15738:	00c00713          	addi	a4,zero,12
   1573c:	01c12b83          	lw	s7,28(sp)
   15740:	01812c03          	lw	s8,24(sp)
   15744:	00eaa023          	sw	a4,0(s5)
   15748:	f7f7f793          	andi	a5,a5,-129
   1574c:	eb5ff06f          	jal	zero,15600 <__sfvwrite_r+0x338>
   15750:	001b0793          	addi	a5,s6,1
   15754:	00078b93          	addi	s7,a5,0
   15758:	dd1ff06f          	jal	zero,15528 <__sfvwrite_r+0x260>
   1575c:	01c12b83          	lw	s7,28(sp)
   15760:	01812c03          	lw	s8,24(sp)
   15764:	c11ff06f          	jal	zero,15374 <__sfvwrite_r+0xac>
   15768:	00c41783          	lh	a5,12(s0)
   1576c:	e95ff06f          	jal	zero,15600 <__sfvwrite_r+0x338>
   15770:	00c00793          	addi	a5,zero,12
   15774:	00faa023          	sw	a5,0(s5)
   15778:	01c12b83          	lw	s7,28(sp)
   1577c:	00c41783          	lh	a5,12(s0)
   15780:	01812c03          	lw	s8,24(sp)
   15784:	e7dff06f          	jal	zero,15600 <__sfvwrite_r+0x338>

00015788 <__swsetup_r>:
   15788:	f0c1a703          	lw	a4,-244(gp) # b471c <_impure_ptr>
   1578c:	fe010113          	addi	sp,sp,-32
   15790:	00112e23          	sw	ra,28(sp)
   15794:	00050613          	addi	a2,a0,0
   15798:	00058793          	addi	a5,a1,0
   1579c:	00070663          	beq	a4,zero,157a8 <__swsetup_r+0x20>
   157a0:	03472683          	lw	a3,52(a4)
   157a4:	10068a63          	beq	a3,zero,158b8 <__swsetup_r+0x130>
   157a8:	00c79703          	lh	a4,12(a5)
   157ac:	00877693          	andi	a3,a4,8
   157b0:	02068e63          	beq	a3,zero,157ec <__swsetup_r+0x64>
   157b4:	0107a683          	lw	a3,16(a5)
   157b8:	04068a63          	beq	a3,zero,1580c <__swsetup_r+0x84>
   157bc:	00c79703          	lh	a4,12(a5)
   157c0:	00177613          	andi	a2,a4,1
   157c4:	06060e63          	beq	a2,zero,15840 <__swsetup_r+0xb8>
   157c8:	0147a603          	lw	a2,20(a5)
   157cc:	0007a423          	sw	zero,8(a5)
   157d0:	00000513          	addi	a0,zero,0
   157d4:	40c00633          	sub	a2,zero,a2
   157d8:	00c7ac23          	sw	a2,24(a5)
   157dc:	08068063          	beq	a3,zero,1585c <__swsetup_r+0xd4>
   157e0:	01c12083          	lw	ra,28(sp)
   157e4:	02010113          	addi	sp,sp,32
   157e8:	00008067          	jalr	zero,0(ra)
   157ec:	01077693          	andi	a3,a4,16
   157f0:	0e068263          	beq	a3,zero,158d4 <__swsetup_r+0x14c>
   157f4:	00477693          	andi	a3,a4,4
   157f8:	06069e63          	bne	a3,zero,15874 <__swsetup_r+0xec>
   157fc:	0107a683          	lw	a3,16(a5)
   15800:	00876713          	ori	a4,a4,8
   15804:	00e79623          	sh	a4,12(a5)
   15808:	fa069ae3          	bne	a3,zero,157bc <__swsetup_r+0x34>
   1580c:	00c7a703          	lw	a4,12(a5)
   15810:	20000593          	addi	a1,zero,512
   15814:	28077713          	andi	a4,a4,640
   15818:	fab702e3          	beq	a4,a1,157bc <__swsetup_r+0x34>
   1581c:	00060513          	addi	a0,a2,0
   15820:	00078593          	addi	a1,a5,0
   15824:	00f12423          	sw	a5,8(sp)
   15828:	514040ef          	jal	ra,19d3c <__smakebuf_r>
   1582c:	00812783          	lw	a5,8(sp)
   15830:	00c79703          	lh	a4,12(a5)
   15834:	0107a683          	lw	a3,16(a5)
   15838:	00177613          	andi	a2,a4,1
   1583c:	f80616e3          	bne	a2,zero,157c8 <__swsetup_r+0x40>
   15840:	00277613          	andi	a2,a4,2
   15844:	00000593          	addi	a1,zero,0
   15848:	00061463          	bne	a2,zero,15850 <__swsetup_r+0xc8>
   1584c:	0147a583          	lw	a1,20(a5)
   15850:	00b7a423          	sw	a1,8(a5)
   15854:	00000513          	addi	a0,zero,0
   15858:	f80694e3          	bne	a3,zero,157e0 <__swsetup_r+0x58>
   1585c:	08077693          	andi	a3,a4,128
   15860:	f80680e3          	beq	a3,zero,157e0 <__swsetup_r+0x58>
   15864:	04076713          	ori	a4,a4,64
   15868:	00e79623          	sh	a4,12(a5)
   1586c:	fff00513          	addi	a0,zero,-1
   15870:	f71ff06f          	jal	zero,157e0 <__swsetup_r+0x58>
   15874:	0307a583          	lw	a1,48(a5)
   15878:	02058663          	beq	a1,zero,158a4 <__swsetup_r+0x11c>
   1587c:	04078693          	addi	a3,a5,64
   15880:	02d58063          	beq	a1,a3,158a0 <__swsetup_r+0x118>
   15884:	00060513          	addi	a0,a2,0
   15888:	00f12623          	sw	a5,12(sp)
   1588c:	00c12423          	sw	a2,8(sp)
   15890:	8d5fb0ef          	jal	ra,11164 <_free_r>
   15894:	00c12783          	lw	a5,12(sp)
   15898:	00812603          	lw	a2,8(sp)
   1589c:	00c79703          	lh	a4,12(a5)
   158a0:	0207a823          	sw	zero,48(a5)
   158a4:	0107a683          	lw	a3,16(a5)
   158a8:	fdb77713          	andi	a4,a4,-37
   158ac:	0007a223          	sw	zero,4(a5)
   158b0:	00d7a023          	sw	a3,0(a5)
   158b4:	f4dff06f          	jal	zero,15800 <__swsetup_r+0x78>
   158b8:	00a12423          	sw	a0,8(sp)
   158bc:	00070513          	addi	a0,a4,0
   158c0:	00b12623          	sw	a1,12(sp)
   158c4:	f51fa0ef          	jal	ra,10814 <__sinit>
   158c8:	00c12783          	lw	a5,12(sp)
   158cc:	00812603          	lw	a2,8(sp)
   158d0:	ed9ff06f          	jal	zero,157a8 <__swsetup_r+0x20>
   158d4:	00900693          	addi	a3,zero,9
   158d8:	04076713          	ori	a4,a4,64
   158dc:	00d62023          	sw	a3,0(a2)
   158e0:	00e79623          	sh	a4,12(a5)
   158e4:	fff00513          	addi	a0,zero,-1
   158e8:	ef9ff06f          	jal	zero,157e0 <__swsetup_r+0x58>

000158ec <memchr>:
   158ec:	00357793          	andi	a5,a0,3
   158f0:	0ff5f713          	andi	a4,a1,255
   158f4:	02078063          	beq	a5,zero,15914 <memchr+0x28>
   158f8:	08060863          	beq	a2,zero,15988 <memchr+0x9c>
   158fc:	00054783          	lbu	a5,0(a0)
   15900:	fff60613          	addi	a2,a2,-1
   15904:	08e78063          	beq	a5,a4,15984 <memchr+0x98>
   15908:	00150513          	addi	a0,a0,1
   1590c:	00357793          	andi	a5,a0,3
   15910:	fe0794e3          	bne	a5,zero,158f8 <memchr+0xc>
   15914:	00300813          	addi	a6,zero,3
   15918:	04c87863          	bgeu	a6,a2,15968 <memchr+0x7c>
   1591c:	0ff5f593          	andi	a1,a1,255
   15920:	00859793          	slli	a5,a1,0x8
   15924:	00b785b3          	add	a1,a5,a1
   15928:	01059793          	slli	a5,a1,0x10
   1592c:	feff0337          	lui	t1,0xfeff0
   15930:	808088b7          	lui	a7,0x80808
   15934:	00f585b3          	add	a1,a1,a5
   15938:	eff30313          	addi	t1,t1,-257 # fefefeff <__BSS_END__+0xfef3b4ab>
   1593c:	08088893          	addi	a7,a7,128 # 80808080 <__BSS_END__+0x8075362c>
   15940:	00052783          	lw	a5,0(a0)
   15944:	00f5c7b3          	xor	a5,a1,a5
   15948:	006786b3          	add	a3,a5,t1
   1594c:	fff7c793          	xori	a5,a5,-1
   15950:	00f6f7b3          	and	a5,a3,a5
   15954:	0117f7b3          	and	a5,a5,a7
   15958:	00079a63          	bne	a5,zero,1596c <memchr+0x80>
   1595c:	ffc60613          	addi	a2,a2,-4
   15960:	00450513          	addi	a0,a0,4
   15964:	fcc86ee3          	bltu	a6,a2,15940 <memchr+0x54>
   15968:	02060063          	beq	a2,zero,15988 <memchr+0x9c>
   1596c:	00c50633          	add	a2,a0,a2
   15970:	00c0006f          	jal	zero,1597c <memchr+0x90>
   15974:	00150513          	addi	a0,a0,1
   15978:	00c50863          	beq	a0,a2,15988 <memchr+0x9c>
   1597c:	00054783          	lbu	a5,0(a0)
   15980:	fee79ae3          	bne	a5,a4,15974 <memchr+0x88>
   15984:	00008067          	jalr	zero,0(ra)
   15988:	00000513          	addi	a0,zero,0
   1598c:	00008067          	jalr	zero,0(ra)

00015990 <strncpy>:
   15990:	00a5e7b3          	or	a5,a1,a0
   15994:	0037f793          	andi	a5,a5,3
   15998:	00079663          	bne	a5,zero,159a4 <strncpy+0x14>
   1599c:	00463793          	sltiu	a5,a2,4
   159a0:	04078663          	beq	a5,zero,159ec <strncpy+0x5c>
   159a4:	00050713          	addi	a4,a0,0
   159a8:	01c0006f          	jal	zero,159c4 <strncpy+0x34>
   159ac:	fff5c683          	lbu	a3,-1(a1)
   159b0:	fff60813          	addi	a6,a2,-1
   159b4:	fed78fa3          	sb	a3,-1(a5)
   159b8:	00068e63          	beq	a3,zero,159d4 <strncpy+0x44>
   159bc:	00078713          	addi	a4,a5,0
   159c0:	00080613          	addi	a2,a6,0
   159c4:	00158593          	addi	a1,a1,1
   159c8:	00170793          	addi	a5,a4,1
   159cc:	fe0610e3          	bne	a2,zero,159ac <strncpy+0x1c>
   159d0:	00008067          	jalr	zero,0(ra)
   159d4:	00c70733          	add	a4,a4,a2
   159d8:	04080e63          	beq	a6,zero,15a34 <strncpy+0xa4>
   159dc:	00178793          	addi	a5,a5,1
   159e0:	fe078fa3          	sb	zero,-1(a5)
   159e4:	fee79ce3          	bne	a5,a4,159dc <strncpy+0x4c>
   159e8:	00008067          	jalr	zero,0(ra)
   159ec:	feff0337          	lui	t1,0xfeff0
   159f0:	808088b7          	lui	a7,0x80808
   159f4:	eff30313          	addi	t1,t1,-257 # fefefeff <__BSS_END__+0xfef3b4ab>
   159f8:	08088893          	addi	a7,a7,128 # 80808080 <__BSS_END__+0x8075362c>
   159fc:	00050713          	addi	a4,a0,0
   15a00:	00300e13          	addi	t3,zero,3
   15a04:	0005a683          	lw	a3,0(a1)
   15a08:	006687b3          	add	a5,a3,t1
   15a0c:	fff6c813          	xori	a6,a3,-1
   15a10:	0107f7b3          	and	a5,a5,a6
   15a14:	0117f7b3          	and	a5,a5,a7
   15a18:	fa0796e3          	bne	a5,zero,159c4 <strncpy+0x34>
   15a1c:	ffc60613          	addi	a2,a2,-4
   15a20:	00d72023          	sw	a3,0(a4)
   15a24:	00470713          	addi	a4,a4,4
   15a28:	00458593          	addi	a1,a1,4
   15a2c:	fcce6ce3          	bltu	t3,a2,15a04 <strncpy+0x74>
   15a30:	f95ff06f          	jal	zero,159c4 <strncpy+0x34>
   15a34:	00008067          	jalr	zero,0(ra)

00015a38 <__localeconv_l>:
   15a38:	0f050513          	addi	a0,a0,240
   15a3c:	00008067          	jalr	zero,0(ra)

00015a40 <_localeconv_r>:
   15a40:	e2818513          	addi	a0,gp,-472 # b4638 <__global_locale+0xf0>
   15a44:	00008067          	jalr	zero,0(ra)

00015a48 <localeconv>:
   15a48:	e2818513          	addi	a0,gp,-472 # b4638 <__global_locale+0xf0>
   15a4c:	00008067          	jalr	zero,0(ra)

00015a50 <_sbrk_r>:
   15a50:	ff010113          	addi	sp,sp,-16
   15a54:	00812423          	sw	s0,8(sp)
   15a58:	00912223          	sw	s1,4(sp)
   15a5c:	00050493          	addi	s1,a0,0
   15a60:	00058513          	addi	a0,a1,0
   15a64:	00112623          	sw	ra,12(sp)
   15a68:	f001ae23          	sw	zero,-228(gp) # b472c <errno>
   15a6c:	684060ef          	jal	ra,1c0f0 <_sbrk>
   15a70:	fff00793          	addi	a5,zero,-1
   15a74:	00f50c63          	beq	a0,a5,15a8c <_sbrk_r+0x3c>
   15a78:	00c12083          	lw	ra,12(sp)
   15a7c:	00812403          	lw	s0,8(sp)
   15a80:	00412483          	lw	s1,4(sp)
   15a84:	01010113          	addi	sp,sp,16
   15a88:	00008067          	jalr	zero,0(ra)
   15a8c:	f1c1a783          	lw	a5,-228(gp) # b472c <errno>
   15a90:	fe0784e3          	beq	a5,zero,15a78 <_sbrk_r+0x28>
   15a94:	00c12083          	lw	ra,12(sp)
   15a98:	00812403          	lw	s0,8(sp)
   15a9c:	00f4a023          	sw	a5,0(s1)
   15aa0:	00412483          	lw	s1,4(sp)
   15aa4:	01010113          	addi	sp,sp,16
   15aa8:	00008067          	jalr	zero,0(ra)

00015aac <__libc_fini_array>:
   15aac:	ff010113          	addi	sp,sp,-16
   15ab0:	00812423          	sw	s0,8(sp)
   15ab4:	000b47b7          	lui	a5,0xb4
   15ab8:	000b4437          	lui	s0,0xb4
   15abc:	00c78793          	addi	a5,a5,12 # b400c <__fini_array_end>
   15ac0:	00840413          	addi	s0,s0,8 # b4008 <__do_global_dtors_aux_fini_array_entry>
   15ac4:	408787b3          	sub	a5,a5,s0
   15ac8:	00912223          	sw	s1,4(sp)
   15acc:	00112623          	sw	ra,12(sp)
   15ad0:	4027d493          	srai	s1,a5,0x2
   15ad4:	02048063          	beq	s1,zero,15af4 <__libc_fini_array+0x48>
   15ad8:	ffc40413          	addi	s0,s0,-4
   15adc:	00f40433          	add	s0,s0,a5
   15ae0:	00042783          	lw	a5,0(s0)
   15ae4:	fff48493          	addi	s1,s1,-1
   15ae8:	ffc40413          	addi	s0,s0,-4
   15aec:	000780e7          	jalr	ra,0(a5)
   15af0:	fe0498e3          	bne	s1,zero,15ae0 <__libc_fini_array+0x34>
   15af4:	00c12083          	lw	ra,12(sp)
   15af8:	00812403          	lw	s0,8(sp)
   15afc:	00412483          	lw	s1,4(sp)
   15b00:	01010113          	addi	sp,sp,16
   15b04:	00008067          	jalr	zero,0(ra)

00015b08 <memmove>:
   15b08:	02a5f663          	bgeu	a1,a0,15b34 <memmove+0x2c>
   15b0c:	00c587b3          	add	a5,a1,a2
   15b10:	02f57263          	bgeu	a0,a5,15b34 <memmove+0x2c>
   15b14:	04060863          	beq	a2,zero,15b64 <memmove+0x5c>
   15b18:	00c50633          	add	a2,a0,a2
   15b1c:	fff7c703          	lbu	a4,-1(a5)
   15b20:	fff60613          	addi	a2,a2,-1
   15b24:	fff78793          	addi	a5,a5,-1
   15b28:	00e60023          	sb	a4,0(a2)
   15b2c:	fec518e3          	bne	a0,a2,15b1c <memmove+0x14>
   15b30:	00008067          	jalr	zero,0(ra)
   15b34:	00f00793          	addi	a5,zero,15
   15b38:	02c7e863          	bltu	a5,a2,15b68 <memmove+0x60>
   15b3c:	00050793          	addi	a5,a0,0
   15b40:	fff60693          	addi	a3,a2,-1
   15b44:	0e060063          	beq	a2,zero,15c24 <memmove+0x11c>
   15b48:	00168693          	addi	a3,a3,1
   15b4c:	00d786b3          	add	a3,a5,a3
   15b50:	0005c703          	lbu	a4,0(a1)
   15b54:	00178793          	addi	a5,a5,1
   15b58:	00158593          	addi	a1,a1,1
   15b5c:	fee78fa3          	sb	a4,-1(a5)
   15b60:	fed798e3          	bne	a5,a3,15b50 <memmove+0x48>
   15b64:	00008067          	jalr	zero,0(ra)
   15b68:	00b567b3          	or	a5,a0,a1
   15b6c:	0037f793          	andi	a5,a5,3
   15b70:	00058893          	addi	a7,a1,0
   15b74:	0a079263          	bne	a5,zero,15c18 <memmove+0x110>
   15b78:	00465793          	srli	a5,a2,0x4
   15b7c:	00479813          	slli	a6,a5,0x4
   15b80:	01050833          	add	a6,a0,a6
   15b84:	fff78793          	addi	a5,a5,-1
   15b88:	00050713          	addi	a4,a0,0
   15b8c:	0005a683          	lw	a3,0(a1)
   15b90:	01058593          	addi	a1,a1,16
   15b94:	01070713          	addi	a4,a4,16
   15b98:	fed72823          	sw	a3,-16(a4)
   15b9c:	ff45a683          	lw	a3,-12(a1)
   15ba0:	fed72a23          	sw	a3,-12(a4)
   15ba4:	ff85a683          	lw	a3,-8(a1)
   15ba8:	fed72c23          	sw	a3,-8(a4)
   15bac:	ffc5a683          	lw	a3,-4(a1)
   15bb0:	fed72e23          	sw	a3,-4(a4)
   15bb4:	fd071ce3          	bne	a4,a6,15b8c <memmove+0x84>
   15bb8:	00479793          	slli	a5,a5,0x4
   15bbc:	01178733          	add	a4,a5,a7
   15bc0:	01070593          	addi	a1,a4,16
   15bc4:	00f507b3          	add	a5,a0,a5
   15bc8:	00c67813          	andi	a6,a2,12
   15bcc:	01078793          	addi	a5,a5,16
   15bd0:	00058e13          	addi	t3,a1,0
   15bd4:	00f67693          	andi	a3,a2,15
   15bd8:	04080863          	beq	a6,zero,15c28 <memmove+0x120>
   15bdc:	ffc68693          	addi	a3,a3,-4
   15be0:	ffc6f693          	andi	a3,a3,-4
   15be4:	00d70733          	add	a4,a4,a3
   15be8:	01470713          	addi	a4,a4,20
   15bec:	41150833          	sub	a6,a0,a7
   15bf0:	0005a303          	lw	t1,0(a1)
   15bf4:	010588b3          	add	a7,a1,a6
   15bf8:	00458593          	addi	a1,a1,4
   15bfc:	0068a023          	sw	t1,0(a7)
   15c00:	fee598e3          	bne	a1,a4,15bf0 <memmove+0xe8>
   15c04:	00468713          	addi	a4,a3,4
   15c08:	01c705b3          	add	a1,a4,t3
   15c0c:	00f707b3          	add	a5,a4,a5
   15c10:	00367613          	andi	a2,a2,3
   15c14:	f2dff06f          	jal	zero,15b40 <memmove+0x38>
   15c18:	fff60693          	addi	a3,a2,-1
   15c1c:	00050793          	addi	a5,a0,0
   15c20:	f29ff06f          	jal	zero,15b48 <memmove+0x40>
   15c24:	00008067          	jalr	zero,0(ra)
   15c28:	00068613          	addi	a2,a3,0
   15c2c:	f15ff06f          	jal	zero,15b40 <memmove+0x38>

00015c30 <memcpy>:
   15c30:	00a5c7b3          	xor	a5,a1,a0
   15c34:	0037f793          	andi	a5,a5,3
   15c38:	00c508b3          	add	a7,a0,a2
   15c3c:	06079663          	bne	a5,zero,15ca8 <memcpy+0x78>
   15c40:	00463613          	sltiu	a2,a2,4
   15c44:	06061263          	bne	a2,zero,15ca8 <memcpy+0x78>
   15c48:	00357793          	andi	a5,a0,3
   15c4c:	00050713          	addi	a4,a0,0
   15c50:	0c079a63          	bne	a5,zero,15d24 <memcpy+0xf4>
   15c54:	ffc8f613          	andi	a2,a7,-4
   15c58:	40e606b3          	sub	a3,a2,a4
   15c5c:	02000793          	addi	a5,zero,32
   15c60:	06d7c463          	blt	a5,a3,15cc8 <memcpy+0x98>
   15c64:	00058693          	addi	a3,a1,0
   15c68:	00070793          	addi	a5,a4,0
   15c6c:	02c77a63          	bgeu	a4,a2,15ca0 <memcpy+0x70>
   15c70:	0006a803          	lw	a6,0(a3)
   15c74:	00478793          	addi	a5,a5,4
   15c78:	00468693          	addi	a3,a3,4
   15c7c:	ff07ae23          	sw	a6,-4(a5)
   15c80:	fec7e8e3          	bltu	a5,a2,15c70 <memcpy+0x40>
   15c84:	fff60613          	addi	a2,a2,-1
   15c88:	40e60633          	sub	a2,a2,a4
   15c8c:	ffc67613          	andi	a2,a2,-4
   15c90:	00458593          	addi	a1,a1,4
   15c94:	00470713          	addi	a4,a4,4
   15c98:	00c585b3          	add	a1,a1,a2
   15c9c:	00c70733          	add	a4,a4,a2
   15ca0:	01176863          	bltu	a4,a7,15cb0 <memcpy+0x80>
   15ca4:	00008067          	jalr	zero,0(ra)
   15ca8:	00050713          	addi	a4,a0,0
   15cac:	ff157ce3          	bgeu	a0,a7,15ca4 <memcpy+0x74>
   15cb0:	0005c783          	lbu	a5,0(a1)
   15cb4:	00170713          	addi	a4,a4,1
   15cb8:	00158593          	addi	a1,a1,1
   15cbc:	fef70fa3          	sb	a5,-1(a4)
   15cc0:	fee898e3          	bne	a7,a4,15cb0 <memcpy+0x80>
   15cc4:	00008067          	jalr	zero,0(ra)
   15cc8:	0005a683          	lw	a3,0(a1)
   15ccc:	0045a283          	lw	t0,4(a1)
   15cd0:	0085af83          	lw	t6,8(a1)
   15cd4:	00c5af03          	lw	t5,12(a1)
   15cd8:	0105ae83          	lw	t4,16(a1)
   15cdc:	0145ae03          	lw	t3,20(a1)
   15ce0:	0185a303          	lw	t1,24(a1)
   15ce4:	01c5a803          	lw	a6,28(a1)
   15ce8:	00d72023          	sw	a3,0(a4)
   15cec:	0205a683          	lw	a3,32(a1)
   15cf0:	02470713          	addi	a4,a4,36
   15cf4:	fe572023          	sw	t0,-32(a4)
   15cf8:	fed72e23          	sw	a3,-4(a4)
   15cfc:	fff72223          	sw	t6,-28(a4)
   15d00:	40e606b3          	sub	a3,a2,a4
   15d04:	ffe72423          	sw	t5,-24(a4)
   15d08:	ffd72623          	sw	t4,-20(a4)
   15d0c:	ffc72823          	sw	t3,-16(a4)
   15d10:	fe672a23          	sw	t1,-12(a4)
   15d14:	ff072c23          	sw	a6,-8(a4)
   15d18:	02458593          	addi	a1,a1,36
   15d1c:	fad7c6e3          	blt	a5,a3,15cc8 <memcpy+0x98>
   15d20:	f45ff06f          	jal	zero,15c64 <memcpy+0x34>
   15d24:	0005c683          	lbu	a3,0(a1)
   15d28:	00170713          	addi	a4,a4,1
   15d2c:	00377793          	andi	a5,a4,3
   15d30:	fed70fa3          	sb	a3,-1(a4)
   15d34:	00158593          	addi	a1,a1,1
   15d38:	f0078ee3          	beq	a5,zero,15c54 <memcpy+0x24>
   15d3c:	0005c683          	lbu	a3,0(a1)
   15d40:	00170713          	addi	a4,a4,1
   15d44:	00377793          	andi	a5,a4,3
   15d48:	fed70fa3          	sb	a3,-1(a4)
   15d4c:	00158593          	addi	a1,a1,1
   15d50:	fc079ae3          	bne	a5,zero,15d24 <memcpy+0xf4>
   15d54:	f01ff06f          	jal	zero,15c54 <memcpy+0x24>

00015d58 <strlen>:
   15d58:	00357793          	andi	a5,a0,3
   15d5c:	00050713          	addi	a4,a0,0
   15d60:	04079c63          	bne	a5,zero,15db8 <strlen+0x60>
   15d64:	7f7f86b7          	lui	a3,0x7f7f8
   15d68:	f7f68693          	addi	a3,a3,-129 # 7f7f7f7f <__BSS_END__+0x7f74352b>
   15d6c:	fff00593          	addi	a1,zero,-1
   15d70:	00072603          	lw	a2,0(a4)
   15d74:	00470713          	addi	a4,a4,4
   15d78:	00d677b3          	and	a5,a2,a3
   15d7c:	00d787b3          	add	a5,a5,a3
   15d80:	00c7e7b3          	or	a5,a5,a2
   15d84:	00d7e7b3          	or	a5,a5,a3
   15d88:	feb784e3          	beq	a5,a1,15d70 <strlen+0x18>
   15d8c:	ffc74683          	lbu	a3,-4(a4)
   15d90:	40a707b3          	sub	a5,a4,a0
   15d94:	04068463          	beq	a3,zero,15ddc <strlen+0x84>
   15d98:	ffd74683          	lbu	a3,-3(a4)
   15d9c:	02068c63          	beq	a3,zero,15dd4 <strlen+0x7c>
   15da0:	ffe74503          	lbu	a0,-2(a4)
   15da4:	00a03533          	sltu	a0,zero,a0
   15da8:	00f50533          	add	a0,a0,a5
   15dac:	ffe50513          	addi	a0,a0,-2
   15db0:	00008067          	jalr	zero,0(ra)
   15db4:	fa0688e3          	beq	a3,zero,15d64 <strlen+0xc>
   15db8:	00074783          	lbu	a5,0(a4)
   15dbc:	00170713          	addi	a4,a4,1
   15dc0:	00377693          	andi	a3,a4,3
   15dc4:	fe0798e3          	bne	a5,zero,15db4 <strlen+0x5c>
   15dc8:	40a70733          	sub	a4,a4,a0
   15dcc:	fff70513          	addi	a0,a4,-1
   15dd0:	00008067          	jalr	zero,0(ra)
   15dd4:	ffd78513          	addi	a0,a5,-3
   15dd8:	00008067          	jalr	zero,0(ra)
   15ddc:	ffc78513          	addi	a0,a5,-4
   15de0:	00008067          	jalr	zero,0(ra)

00015de4 <frexpl>:
   15de4:	00c5a703          	lw	a4,12(a1)
   15de8:	f9010113          	addi	sp,sp,-112
   15dec:	0005a883          	lw	a7,0(a1)
   15df0:	0045a803          	lw	a6,4(a1)
   15df4:	0085a683          	lw	a3,8(a1)
   15df8:	06912223          	sw	s1,100(sp)
   15dfc:	000084b7          	lui	s1,0x8
   15e00:	06812423          	sw	s0,104(sp)
   15e04:	06112623          	sw	ra,108(sp)
   15e08:	01075793          	srli	a5,a4,0x10
   15e0c:	fff48493          	addi	s1,s1,-1 # 7fff <exit-0x80b5>
   15e10:	00062023          	sw	zero,0(a2)
   15e14:	04e12e23          	sw	a4,92(sp)
   15e18:	0097f7b3          	and	a5,a5,s1
   15e1c:	05112823          	sw	a7,80(sp)
   15e20:	05012a23          	sw	a6,84(sp)
   15e24:	04d12c23          	sw	a3,88(sp)
   15e28:	00050413          	addi	s0,a0,0
   15e2c:	10978463          	beq	a5,s1,15f34 <frexpl+0x150>
   15e30:	04010513          	addi	a0,sp,64
   15e34:	03010593          	addi	a1,sp,48
   15e38:	07212023          	sw	s2,96(sp)
   15e3c:	05112023          	sw	a7,64(sp)
   15e40:	01112c23          	sw	a7,24(sp)
   15e44:	05012223          	sw	a6,68(sp)
   15e48:	01012a23          	sw	a6,20(sp)
   15e4c:	04d12423          	sw	a3,72(sp)
   15e50:	00d12823          	sw	a3,16(sp)
   15e54:	04e12623          	sw	a4,76(sp)
   15e58:	00e12623          	sw	a4,12(sp)
   15e5c:	00060913          	addi	s2,a2,0
   15e60:	02012823          	sw	zero,48(sp)
   15e64:	02012a23          	sw	zero,52(sp)
   15e68:	02012c23          	sw	zero,56(sp)
   15e6c:	02012e23          	sw	zero,60(sp)
   15e70:	00f12e23          	sw	a5,28(sp)
   15e74:	254080ef          	jal	ra,1e0c8 <__eqtf2>
   15e78:	00c12703          	lw	a4,12(sp)
   15e7c:	01012683          	lw	a3,16(sp)
   15e80:	01412803          	lw	a6,20(sp)
   15e84:	01812883          	lw	a7,24(sp)
   15e88:	0c050a63          	beq	a0,zero,15f5c <frexpl+0x178>
   15e8c:	01c12783          	lw	a5,28(sp)
   15e90:	00000593          	addi	a1,zero,0
   15e94:	06079263          	bne	a5,zero,15ef8 <frexpl+0x114>
   15e98:	407107b7          	lui	a5,0x40710
   15e9c:	03010593          	addi	a1,sp,48
   15ea0:	02010613          	addi	a2,sp,32
   15ea4:	04010513          	addi	a0,sp,64
   15ea8:	02d12c23          	sw	a3,56(sp)
   15eac:	02e12e23          	sw	a4,60(sp)
   15eb0:	02f12623          	sw	a5,44(sp)
   15eb4:	03112823          	sw	a7,48(sp)
   15eb8:	03012a23          	sw	a6,52(sp)
   15ebc:	02012023          	sw	zero,32(sp)
   15ec0:	02012223          	sw	zero,36(sp)
   15ec4:	02012423          	sw	zero,40(sp)
   15ec8:	558080ef          	jal	ra,1e420 <__multf3>
   15ecc:	04c12703          	lw	a4,76(sp)
   15ed0:	04012583          	lw	a1,64(sp)
   15ed4:	04412603          	lw	a2,68(sp)
   15ed8:	04812683          	lw	a3,72(sp)
   15edc:	01075793          	srli	a5,a4,0x10
   15ee0:	04b12823          	sw	a1,80(sp)
   15ee4:	04c12a23          	sw	a2,84(sp)
   15ee8:	04d12c23          	sw	a3,88(sp)
   15eec:	04e12e23          	sw	a4,92(sp)
   15ef0:	0097f7b3          	and	a5,a5,s1
   15ef4:	f8e00593          	addi	a1,zero,-114
   15ef8:	ffffc6b7          	lui	a3,0xffffc
   15efc:	00268693          	addi	a3,a3,2 # ffffc002 <__BSS_END__+0xfff475ae>
   15f00:	05c12703          	lw	a4,92(sp)
   15f04:	00d787b3          	add	a5,a5,a3
   15f08:	80010637          	lui	a2,0x80010
   15f0c:	00b787b3          	add	a5,a5,a1
   15f10:	fff60613          	addi	a2,a2,-1 # 8000ffff <__BSS_END__+0x7ff5b5ab>
   15f14:	00f92023          	sw	a5,0(s2)
   15f18:	05012883          	lw	a7,80(sp)
   15f1c:	05412803          	lw	a6,84(sp)
   15f20:	05812683          	lw	a3,88(sp)
   15f24:	06012903          	lw	s2,96(sp)
   15f28:	00c77733          	and	a4,a4,a2
   15f2c:	3ffe0637          	lui	a2,0x3ffe0
   15f30:	00c76733          	or	a4,a4,a2
   15f34:	06c12083          	lw	ra,108(sp)
   15f38:	01142023          	sw	a7,0(s0)
   15f3c:	01042223          	sw	a6,4(s0)
   15f40:	00d42423          	sw	a3,8(s0)
   15f44:	00e42623          	sw	a4,12(s0)
   15f48:	00040513          	addi	a0,s0,0
   15f4c:	06812403          	lw	s0,104(sp)
   15f50:	06412483          	lw	s1,100(sp)
   15f54:	07010113          	addi	sp,sp,112
   15f58:	00008067          	jalr	zero,0(ra)
   15f5c:	06012903          	lw	s2,96(sp)
   15f60:	fd5ff06f          	jal	zero,15f34 <frexpl+0x150>

00015f64 <__register_exitproc>:
   15f64:	f201a783          	lw	a5,-224(gp) # b4730 <__atexit>
   15f68:	04078c63          	beq	a5,zero,15fc0 <__register_exitproc+0x5c>
   15f6c:	0047a703          	lw	a4,4(a5) # 40710004 <__BSS_END__+0x4065b5b0>
   15f70:	01f00813          	addi	a6,zero,31
   15f74:	06e84e63          	blt	a6,a4,15ff0 <__register_exitproc+0x8c>
   15f78:	00271813          	slli	a6,a4,0x2
   15f7c:	02050663          	beq	a0,zero,15fa8 <__register_exitproc+0x44>
   15f80:	01078333          	add	t1,a5,a6
   15f84:	08c32423          	sw	a2,136(t1)
   15f88:	1887a883          	lw	a7,392(a5)
   15f8c:	00100613          	addi	a2,zero,1
   15f90:	00e61633          	sll	a2,a2,a4
   15f94:	00c8e8b3          	or	a7,a7,a2
   15f98:	1917a423          	sw	a7,392(a5)
   15f9c:	10d32423          	sw	a3,264(t1)
   15fa0:	00200693          	addi	a3,zero,2
   15fa4:	02d50463          	beq	a0,a3,15fcc <__register_exitproc+0x68>
   15fa8:	00170713          	addi	a4,a4,1
   15fac:	00e7a223          	sw	a4,4(a5)
   15fb0:	010787b3          	add	a5,a5,a6
   15fb4:	00b7a423          	sw	a1,8(a5)
   15fb8:	00000513          	addi	a0,zero,0
   15fbc:	00008067          	jalr	zero,0(ra)
   15fc0:	0b418793          	addi	a5,gp,180 # b48c4 <__atexit0>
   15fc4:	f2f1a023          	sw	a5,-224(gp) # b4730 <__atexit>
   15fc8:	fa5ff06f          	jal	zero,15f6c <__register_exitproc+0x8>
   15fcc:	18c7a683          	lw	a3,396(a5)
   15fd0:	00170713          	addi	a4,a4,1
   15fd4:	00e7a223          	sw	a4,4(a5)
   15fd8:	00c6e6b3          	or	a3,a3,a2
   15fdc:	18d7a623          	sw	a3,396(a5)
   15fe0:	010787b3          	add	a5,a5,a6
   15fe4:	00b7a423          	sw	a1,8(a5)
   15fe8:	00000513          	addi	a0,zero,0
   15fec:	00008067          	jalr	zero,0(ra)
   15ff0:	fff00513          	addi	a0,zero,-1
   15ff4:	00008067          	jalr	zero,0(ra)

00015ff8 <_ldtoa_r>:
   15ff8:	000b38b7          	lui	a7,0xb3
   15ffc:	66088893          	addi	a7,a7,1632 # b3660 <blanks.1+0x10>
   16000:	0088a303          	lw	t1,8(a7)
   16004:	f5010113          	addi	sp,sp,-176
   16008:	0008ae83          	lw	t4,0(a7)
   1600c:	0048ae03          	lw	t3,4(a7)
   16010:	06612223          	sw	t1,100(sp)
   16014:	00c8a303          	lw	t1,12(a7)
   16018:	0108a883          	lw	a7,16(a7)
   1601c:	0a812423          	sw	s0,168(sp)
   16020:	0a912223          	sw	s1,164(sp)
   16024:	07112623          	sw	a7,108(sp)
   16028:	03852883          	lw	a7,56(a0)
   1602c:	0b212023          	sw	s2,160(sp)
   16030:	09312e23          	sw	s3,156(sp)
   16034:	09412c23          	sw	s4,152(sp)
   16038:	09512a23          	sw	s5,148(sp)
   1603c:	09612823          	sw	s6,144(sp)
   16040:	09a12023          	sw	s10,128(sp)
   16044:	07b12e23          	sw	s11,124(sp)
   16048:	0a112623          	sw	ra,172(sp)
   1604c:	09712623          	sw	s7,140(sp)
   16050:	09812423          	sw	s8,136(sp)
   16054:	09912223          	sw	s9,132(sp)
   16058:	05d12e23          	sw	t4,92(sp)
   1605c:	07c12023          	sw	t3,96(sp)
   16060:	06612423          	sw	t1,104(sp)
   16064:	01012e23          	sw	a6,28(sp)
   16068:	0005a983          	lw	s3,0(a1)
   1606c:	0045a903          	lw	s2,4(a1)
   16070:	0085a483          	lw	s1,8(a1)
   16074:	00c5aa03          	lw	s4,12(a1)
   16078:	00050a93          	addi	s5,a0,0
   1607c:	00060d13          	addi	s10,a2,0 # 3ffe0000 <__BSS_END__+0x3ff2b5ac>
   16080:	00068d93          	addi	s11,a3,0
   16084:	00070b13          	addi	s6,a4,0
   16088:	00078413          	addi	s0,a5,0
   1608c:	00088863          	beq	a7,zero,1609c <_ldtoa_r+0xa4>
   16090:	00088593          	addi	a1,a7,0
   16094:	094020ef          	jal	ra,18128 <__freedtoa>
   16098:	020aac23          	sw	zero,56(s5)
   1609c:	06812703          	lw	a4,104(sp)
   160a0:	01fa5693          	srli	a3,s4,0x1f
   160a4:	00d42023          	sw	a3,0(s0)
   160a8:	40175793          	srai	a5,a4,0x1
   160ac:	00d7f7b3          	and	a5,a5,a3
   160b0:	00e7c7b3          	xor	a5,a5,a4
   160b4:	06f12423          	sw	a5,104(sp)
   160b8:	001a1413          	slli	s0,s4,0x1
   160bc:	010a1b93          	slli	s7,s4,0x10
   160c0:	ffffc7b7          	lui	a5,0xffffc
   160c4:	001a1713          	slli	a4,s4,0x1
   160c8:	00145413          	srli	s0,s0,0x1
   160cc:	010bdb93          	srli	s7,s7,0x10
   160d0:	f9178793          	addi	a5,a5,-111 # ffffbf91 <__BSS_END__+0xfff4753d>
   160d4:	01175c13          	srli	s8,a4,0x11
   160d8:	03010513          	addi	a0,sp,48
   160dc:	02010593          	addi	a1,sp,32
   160e0:	03312823          	sw	s3,48(sp)
   160e4:	03212a23          	sw	s2,52(sp)
   160e8:	02912c23          	sw	s1,56(sp)
   160ec:	03312023          	sw	s3,32(sp)
   160f0:	03212223          	sw	s2,36(sp)
   160f4:	02912423          	sw	s1,40(sp)
   160f8:	02812e23          	sw	s0,60(sp)
   160fc:	02812623          	sw	s0,44(sp)
   16100:	05312623          	sw	s3,76(sp)
   16104:	05212823          	sw	s2,80(sp)
   16108:	04912a23          	sw	s1,84(sp)
   1610c:	00fc0cb3          	add	s9,s8,a5
   16110:	05712c23          	sw	s7,88(sp)
   16114:	5640a0ef          	jal	ra,20678 <__unordtf2>
   16118:	16051063          	bne	a0,zero,16278 <_ldtoa_r+0x280>
   1611c:	7fff0737          	lui	a4,0x7fff0
   16120:	fff00793          	addi	a5,zero,-1
   16124:	fff70713          	addi	a4,a4,-1 # 7ffeffff <__BSS_END__+0x7ff3b5ab>
   16128:	02010593          	addi	a1,sp,32
   1612c:	03010513          	addi	a0,sp,48
   16130:	02e12623          	sw	a4,44(sp)
   16134:	02f12023          	sw	a5,32(sp)
   16138:	02f12223          	sw	a5,36(sp)
   1613c:	02f12423          	sw	a5,40(sp)
   16140:	5380a0ef          	jal	ra,20678 <__unordtf2>
   16144:	08051e63          	bne	a0,zero,161e0 <_ldtoa_r+0x1e8>
   16148:	02010593          	addi	a1,sp,32
   1614c:	03010513          	addi	a0,sp,48
   16150:	19c080ef          	jal	ra,1e2ec <__letf2>
   16154:	08a05663          	bge	zero,a0,161e0 <_ldtoa_r+0x1e8>
   16158:	00300793          	addi	a5,zero,3
   1615c:	04f12423          	sw	a5,72(sp)
   16160:	01c12783          	lw	a5,28(sp)
   16164:	04810713          	addi	a4,sp,72
   16168:	000d8813          	addi	a6,s11,0
   1616c:	00f12023          	sw	a5,0(sp)
   16170:	000c8613          	addi	a2,s9,0
   16174:	000d0793          	addi	a5,s10,0
   16178:	000a8513          	addi	a0,s5,0
   1617c:	000b0893          	addi	a7,s6,0
   16180:	04c10693          	addi	a3,sp,76
   16184:	05c10593          	addi	a1,sp,92
   16188:	1f4000ef          	jal	ra,1637c <__gdtoa>
   1618c:	000b2703          	lw	a4,0(s6)
   16190:	ffff87b7          	lui	a5,0xffff8
   16194:	00f71863          	bne	a4,a5,161a4 <_ldtoa_r+0x1ac>
   16198:	800007b7          	lui	a5,0x80000
   1619c:	fff78793          	addi	a5,a5,-1 # 7fffffff <__BSS_END__+0x7ff4b5ab>
   161a0:	00fb2023          	sw	a5,0(s6)
   161a4:	0ac12083          	lw	ra,172(sp)
   161a8:	0a812403          	lw	s0,168(sp)
   161ac:	0a412483          	lw	s1,164(sp)
   161b0:	0a012903          	lw	s2,160(sp)
   161b4:	09c12983          	lw	s3,156(sp)
   161b8:	09812a03          	lw	s4,152(sp)
   161bc:	09412a83          	lw	s5,148(sp)
   161c0:	09012b03          	lw	s6,144(sp)
   161c4:	08c12b83          	lw	s7,140(sp)
   161c8:	08812c03          	lw	s8,136(sp)
   161cc:	08412c83          	lw	s9,132(sp)
   161d0:	08012d03          	lw	s10,128(sp)
   161d4:	07c12d83          	lw	s11,124(sp)
   161d8:	0b010113          	addi	sp,sp,176
   161dc:	00008067          	jalr	zero,0(ra)
   161e0:	02812e23          	sw	s0,60(sp)
   161e4:	02010593          	addi	a1,sp,32
   161e8:	00010437          	lui	s0,0x10
   161ec:	03010513          	addi	a0,sp,48
   161f0:	03312823          	sw	s3,48(sp)
   161f4:	03212a23          	sw	s2,52(sp)
   161f8:	02912c23          	sw	s1,56(sp)
   161fc:	02012023          	sw	zero,32(sp)
   16200:	02012223          	sw	zero,36(sp)
   16204:	02012423          	sw	zero,40(sp)
   16208:	02812623          	sw	s0,44(sp)
   1620c:	7ad070ef          	jal	ra,1e1b8 <__getf2>
   16210:	00054c63          	blt	a0,zero,16228 <_ldtoa_r+0x230>
   16214:	008bebb3          	or	s7,s7,s0
   16218:	00100793          	addi	a5,zero,1
   1621c:	05712c23          	sw	s7,88(sp)
   16220:	04f12423          	sw	a5,72(sp)
   16224:	f3dff06f          	jal	zero,16160 <_ldtoa_r+0x168>
   16228:	02010593          	addi	a1,sp,32
   1622c:	03010513          	addi	a0,sp,48
   16230:	03312823          	sw	s3,48(sp)
   16234:	03212a23          	sw	s2,52(sp)
   16238:	02912c23          	sw	s1,56(sp)
   1623c:	03412e23          	sw	s4,60(sp)
   16240:	02012023          	sw	zero,32(sp)
   16244:	02012223          	sw	zero,36(sp)
   16248:	02012423          	sw	zero,40(sp)
   1624c:	02012623          	sw	zero,44(sp)
   16250:	679070ef          	jal	ra,1e0c8 <__eqtf2>
   16254:	00051663          	bne	a0,zero,16260 <_ldtoa_r+0x268>
   16258:	04012423          	sw	zero,72(sp)
   1625c:	f05ff06f          	jal	zero,16160 <_ldtoa_r+0x168>
   16260:	ffffc7b7          	lui	a5,0xffffc
   16264:	f9278793          	addi	a5,a5,-110 # ffffbf92 <__BSS_END__+0xfff4753e>
   16268:	00200713          	addi	a4,zero,2
   1626c:	00fc0cb3          	add	s9,s8,a5
   16270:	04e12423          	sw	a4,72(sp)
   16274:	eedff06f          	jal	zero,16160 <_ldtoa_r+0x168>
   16278:	00400793          	addi	a5,zero,4
   1627c:	04f12423          	sw	a5,72(sp)
   16280:	ee1ff06f          	jal	zero,16160 <_ldtoa_r+0x168>

00016284 <_ldcheck>:
   16284:	fc010113          	addi	sp,sp,-64
   16288:	02812c23          	sw	s0,56(sp)
   1628c:	00c52403          	lw	s0,12(a0)
   16290:	03212823          	sw	s2,48(sp)
   16294:	03312623          	sw	s3,44(sp)
   16298:	00852903          	lw	s2,8(a0)
   1629c:	00452983          	lw	s3,4(a0)
   162a0:	03412423          	sw	s4,40(sp)
   162a4:	00052a03          	lw	s4,0(a0)
   162a8:	00141413          	slli	s0,s0,0x1
   162ac:	00145413          	srli	s0,s0,0x1
   162b0:	01010513          	addi	a0,sp,16
   162b4:	00010593          	addi	a1,sp,0
   162b8:	02112e23          	sw	ra,60(sp)
   162bc:	00812e23          	sw	s0,28(sp)
   162c0:	00812623          	sw	s0,12(sp)
   162c4:	01412823          	sw	s4,16(sp)
   162c8:	01412023          	sw	s4,0(sp)
   162cc:	01312a23          	sw	s3,20(sp)
   162d0:	01312223          	sw	s3,4(sp)
   162d4:	01212c23          	sw	s2,24(sp)
   162d8:	01212423          	sw	s2,8(sp)
   162dc:	39c0a0ef          	jal	ra,20678 <__unordtf2>
   162e0:	06051e63          	bne	a0,zero,1635c <_ldcheck+0xd8>
   162e4:	7fff0737          	lui	a4,0x7fff0
   162e8:	fff00793          	addi	a5,zero,-1
   162ec:	fff70713          	addi	a4,a4,-1 # 7ffeffff <__BSS_END__+0x7ff3b5ab>
   162f0:	00010593          	addi	a1,sp,0
   162f4:	01010513          	addi	a0,sp,16
   162f8:	02912a23          	sw	s1,52(sp)
   162fc:	00e12623          	sw	a4,12(sp)
   16300:	00f12023          	sw	a5,0(sp)
   16304:	00f12223          	sw	a5,4(sp)
   16308:	00f12423          	sw	a5,8(sp)
   1630c:	00100493          	addi	s1,zero,1
   16310:	3680a0ef          	jal	ra,20678 <__unordtf2>
   16314:	02050863          	beq	a0,zero,16344 <_ldcheck+0xc0>
   16318:	03c12083          	lw	ra,60(sp)
   1631c:	03812403          	lw	s0,56(sp)
   16320:	0014c513          	xori	a0,s1,1
   16324:	0ff57513          	andi	a0,a0,255
   16328:	03412483          	lw	s1,52(sp)
   1632c:	03012903          	lw	s2,48(sp)
   16330:	02c12983          	lw	s3,44(sp)
   16334:	02812a03          	lw	s4,40(sp)
   16338:	00151513          	slli	a0,a0,0x1
   1633c:	04010113          	addi	sp,sp,64
   16340:	00008067          	jalr	zero,0(ra)
   16344:	00010593          	addi	a1,sp,0
   16348:	01010513          	addi	a0,sp,16
   1634c:	7a1070ef          	jal	ra,1e2ec <__letf2>
   16350:	fca054e3          	bge	zero,a0,16318 <_ldcheck+0x94>
   16354:	00000493          	addi	s1,zero,0
   16358:	fc1ff06f          	jal	zero,16318 <_ldcheck+0x94>
   1635c:	03c12083          	lw	ra,60(sp)
   16360:	03812403          	lw	s0,56(sp)
   16364:	03012903          	lw	s2,48(sp)
   16368:	02c12983          	lw	s3,44(sp)
   1636c:	02812a03          	lw	s4,40(sp)
   16370:	00100513          	addi	a0,zero,1
   16374:	04010113          	addi	sp,sp,64
   16378:	00008067          	jalr	zero,0(ra)

0001637c <__gdtoa>:
   1637c:	f3010113          	addi	sp,sp,-208
   16380:	0b312e23          	sw	s3,188(sp)
   16384:	00072983          	lw	s3,0(a4)
   16388:	0b912223          	sw	s9,164(sp)
   1638c:	0c112623          	sw	ra,204(sp)
   16390:	fcf9f313          	andi	t1,s3,-49
   16394:	00672023          	sw	t1,0(a4)
   16398:	00300e13          	addi	t3,zero,3
   1639c:	00f9f313          	andi	t1,s3,15
   163a0:	00f12023          	sw	a5,0(sp)
   163a4:	01012423          	sw	a6,8(sp)
   163a8:	0d012c83          	lw	s9,208(sp)
   163ac:	3bc30263          	beq	t1,t3,16750 <__gdtoa+0x3d4>
   163b0:	0ba12023          	sw	s10,160(sp)
   163b4:	00c9f813          	andi	a6,s3,12
   163b8:	00080d13          	addi	s10,a6,0
   163bc:	2c081a63          	bne	a6,zero,16690 <__gdtoa+0x314>
   163c0:	09b12e23          	sw	s11,156(sp)
   163c4:	01112e23          	sw	a7,28(sp)
   163c8:	00d12a23          	sw	a3,20(sp)
   163cc:	02c12023          	sw	a2,32(sp)
   163d0:	02b12623          	sw	a1,44(sp)
   163d4:	02e12423          	sw	a4,40(sp)
   163d8:	00050d93          	addi	s11,a0,0
   163dc:	32030863          	beq	t1,zero,1670c <__gdtoa+0x390>
   163e0:	0d212023          	sw	s2,192(sp)
   163e4:	0005a903          	lw	s2,0(a1)
   163e8:	0c812423          	sw	s0,200(sp)
   163ec:	02000793          	addi	a5,zero,32
   163f0:	00000593          	addi	a1,zero,0
   163f4:	0127d863          	bge	a5,s2,16404 <__gdtoa+0x88>
   163f8:	00179793          	slli	a5,a5,0x1
   163fc:	00158593          	addi	a1,a1,1
   16400:	ff27cce3          	blt	a5,s2,163f8 <__gdtoa+0x7c>
   16404:	000d8513          	addi	a0,s11,0
   16408:	090020ef          	jal	ra,18498 <_Balloc>
   1640c:	00050413          	addi	s0,a0,0
   16410:	2a050c63          	beq	a0,zero,166c8 <__gdtoa+0x34c>
   16414:	01412703          	lw	a4,20(sp)
   16418:	fff90793          	addi	a5,s2,-1
   1641c:	4057d793          	srai	a5,a5,0x5
   16420:	00279793          	slli	a5,a5,0x2
   16424:	0c912223          	sw	s1,196(sp)
   16428:	00f705b3          	add	a1,a4,a5
   1642c:	01450693          	addi	a3,a0,20
   16430:	00072603          	lw	a2,0(a4)
   16434:	00470713          	addi	a4,a4,4
   16438:	00468693          	addi	a3,a3,4
   1643c:	fec6ae23          	sw	a2,-4(a3)
   16440:	fee5f8e3          	bgeu	a1,a4,16430 <__gdtoa+0xb4>
   16444:	01412703          	lw	a4,20(sp)
   16448:	00158593          	addi	a1,a1,1
   1644c:	00170713          	addi	a4,a4,1
   16450:	00e5b5b3          	sltu	a1,a1,a4
   16454:	fff58593          	addi	a1,a1,-1
   16458:	00b7f7b3          	and	a5,a5,a1
   1645c:	00478793          	addi	a5,a5,4
   16460:	4027d493          	srai	s1,a5,0x2
   16464:	00f407b3          	add	a5,s0,a5
   16468:	00c0006f          	jal	zero,16474 <__gdtoa+0xf8>
   1646c:	ffc78793          	addi	a5,a5,-4
   16470:	30048663          	beq	s1,zero,1677c <__gdtoa+0x400>
   16474:	0107a703          	lw	a4,16(a5)
   16478:	00048693          	addi	a3,s1,0
   1647c:	fff48493          	addi	s1,s1,-1
   16480:	fe0706e3          	beq	a4,zero,1646c <__gdtoa+0xf0>
   16484:	00249793          	slli	a5,s1,0x2
   16488:	00f407b3          	add	a5,s0,a5
   1648c:	0147a503          	lw	a0,20(a5)
   16490:	00d42823          	sw	a3,16(s0) # 10010 <exit-0xa4>
   16494:	00d12c23          	sw	a3,24(sp)
   16498:	368020ef          	jal	ra,18800 <__hi0bits>
   1649c:	01812683          	lw	a3,24(sp)
   164a0:	00569693          	slli	a3,a3,0x5
   164a4:	40a684b3          	sub	s1,a3,a0
   164a8:	00040513          	addi	a0,s0,0
   164ac:	781010ef          	jal	ra,1842c <__trailz_D2A>
   164b0:	02012783          	lw	a5,32(sp)
   164b4:	08a12623          	sw	a0,140(sp)
   164b8:	02f12a23          	sw	a5,52(sp)
   164bc:	6c051063          	bne	a0,zero,16b7c <__gdtoa+0x800>
   164c0:	01042783          	lw	a5,16(s0)
   164c4:	22078863          	beq	a5,zero,166f4 <__gdtoa+0x378>
   164c8:	08c10593          	addi	a1,sp,140
   164cc:	00040513          	addi	a0,s0,0
   164d0:	0b512a23          	sw	s5,180(sp)
   164d4:	0b612823          	sw	s6,176(sp)
   164d8:	0b712623          	sw	s7,172(sp)
   164dc:	0b812423          	sw	s8,168(sp)
   164e0:	0b412c23          	sw	s4,184(sp)
   164e4:	5c5020ef          	jal	ra,192a8 <__b2d>
   164e8:	00c59793          	slli	a5,a1,0xc
   164ec:	00c7d793          	srli	a5,a5,0xc
   164f0:	3ff00737          	lui	a4,0x3ff00
   164f4:	00e7e733          	or	a4,a5,a4
   164f8:	03412803          	lw	a6,52(sp)
   164fc:	ea81a603          	lw	a2,-344(gp) # b46b8 <__SDATA_BEGIN__>
   16500:	eac1a683          	lw	a3,-340(gp) # b46bc <__SDATA_BEGIN__+0x4>
   16504:	00980833          	add	a6,a6,s1
   16508:	00050893          	addi	a7,a0,0
   1650c:	00070593          	addi	a1,a4,0 # 3ff00000 <__BSS_END__+0x3fe4b5ac>
   16510:	fff80b93          	addi	s7,a6,-1
   16514:	02e12223          	sw	a4,36(sp)
   16518:	00080c13          	addi	s8,a6,0
   1651c:	05112823          	sw	a7,80(sp)
   16520:	04a12023          	sw	a0,64(sp)
   16524:	328070ef          	jal	ra,1d84c <__subdf3>
   16528:	eb01a603          	lw	a2,-336(gp) # b46c0 <__SDATA_BEGIN__+0x8>
   1652c:	eb41a683          	lw	a3,-332(gp) # b46c4 <__SDATA_BEGIN__+0xc>
   16530:	535060ef          	jal	ra,1d264 <__muldf3>
   16534:	eb81a603          	lw	a2,-328(gp) # b46c8 <__SDATA_BEGIN__+0x10>
   16538:	ebc1a683          	lw	a3,-324(gp) # b46cc <__SDATA_BEGIN__+0x14>
   1653c:	4f1050ef          	jal	ra,1c22c <__adddf3>
   16540:	00050a93          	addi	s5,a0,0
   16544:	000b8513          	addi	a0,s7,0
   16548:	00058b13          	addi	s6,a1,0
   1654c:	2dd070ef          	jal	ra,1e028 <__floatsidf>
   16550:	ec01a603          	lw	a2,-320(gp) # b46d0 <__SDATA_BEGIN__+0x18>
   16554:	ec41a683          	lw	a3,-316(gp) # b46d4 <__SDATA_BEGIN__+0x1c>
   16558:	50d060ef          	jal	ra,1d264 <__muldf3>
   1655c:	00050613          	addi	a2,a0,0
   16560:	00058693          	addi	a3,a1,0
   16564:	000a8513          	addi	a0,s5,0
   16568:	000b0593          	addi	a1,s6,0
   1656c:	4c1050ef          	jal	ra,1c22c <__adddf3>
   16570:	00050a93          	addi	s5,a0,0
   16574:	00058b13          	addi	s6,a1,0
   16578:	000b8513          	addi	a0,s7,0
   1657c:	000bd663          	bge	s7,zero,16588 <__gdtoa+0x20c>
   16580:	00100513          	addi	a0,zero,1
   16584:	41850533          	sub	a0,a0,s8
   16588:	bcb50513          	addi	a0,a0,-1077
   1658c:	02a05863          	bge	zero,a0,165bc <__gdtoa+0x240>
   16590:	299070ef          	jal	ra,1e028 <__floatsidf>
   16594:	ec81a603          	lw	a2,-312(gp) # b46d8 <__SDATA_BEGIN__+0x20>
   16598:	ecc1a683          	lw	a3,-308(gp) # b46dc <__SDATA_BEGIN__+0x24>
   1659c:	4c9060ef          	jal	ra,1d264 <__muldf3>
   165a0:	00050613          	addi	a2,a0,0
   165a4:	00058693          	addi	a3,a1,0
   165a8:	000a8513          	addi	a0,s5,0
   165ac:	000b0593          	addi	a1,s6,0
   165b0:	47d050ef          	jal	ra,1c22c <__adddf3>
   165b4:	00050a93          	addi	s5,a0,0
   165b8:	00058b13          	addi	s6,a1,0
   165bc:	000b0593          	addi	a1,s6,0
   165c0:	000a8513          	addi	a0,s5,0
   165c4:	1e9070ef          	jal	ra,1dfac <__fixdfsi>
   165c8:	000b0a13          	addi	s4,s6,0
   165cc:	000a0593          	addi	a1,s4,0
   165d0:	00050b13          	addi	s6,a0,0
   165d4:	00000613          	addi	a2,zero,0
   165d8:	000a8513          	addi	a0,s5,0
   165dc:	00000693          	addi	a3,zero,0
   165e0:	01612c23          	sw	s6,24(sp)
   165e4:	3a9060ef          	jal	ra,1d18c <__ledf2>
   165e8:	02055263          	bge	a0,zero,1660c <__gdtoa+0x290>
   165ec:	000b0513          	addi	a0,s6,0
   165f0:	239070ef          	jal	ra,1e028 <__floatsidf>
   165f4:	000a8613          	addi	a2,s5,0
   165f8:	000a0693          	addi	a3,s4,0
   165fc:	235060ef          	jal	ra,1d030 <__eqdf2>
   16600:	00a03533          	sltu	a0,zero,a0
   16604:	40ab07b3          	sub	a5,s6,a0
   16608:	00f12c23          	sw	a5,24(sp)
   1660c:	02412703          	lw	a4,36(sp)
   16610:	014b9793          	slli	a5,s7,0x14
   16614:	00e78a33          	add	s4,a5,a4
   16618:	41748733          	sub	a4,s1,s7
   1661c:	fff70693          	addi	a3,a4,-1
   16620:	02d12823          	sw	a3,48(sp)
   16624:	01812683          	lw	a3,24(sp)
   16628:	01600793          	addi	a5,zero,22
   1662c:	14d7ec63          	bltu	a5,a3,16784 <__gdtoa+0x408>
   16630:	01812783          	lw	a5,24(sp)
   16634:	000b3837          	lui	a6,0xb3
   16638:	6d080893          	addi	a7,a6,1744 # b36d0 <__mprec_tens>
   1663c:	00379793          	slli	a5,a5,0x3
   16640:	00f887b3          	add	a5,a7,a5
   16644:	04012603          	lw	a2,64(sp)
   16648:	0007a503          	lw	a0,0(a5)
   1664c:	0047a583          	lw	a1,4(a5)
   16650:	000a0693          	addi	a3,s4,0
   16654:	02e12223          	sw	a4,36(sp)
   16658:	25d060ef          	jal	ra,1d0b4 <__gedf2>
   1665c:	02412703          	lw	a4,36(sp)
   16660:	56a04863          	blt	zero,a0,16bd0 <__gdtoa+0x854>
   16664:	00e04463          	blt	zero,a4,1666c <__gdtoa+0x2f0>
   16668:	0d40106f          	jal	zero,1773c <__gdtoa+0x13c0>
   1666c:	03012783          	lw	a5,48(sp)
   16670:	01812703          	lw	a4,24(sp)
   16674:	04012623          	sw	zero,76(sp)
   16678:	02012c23          	sw	zero,56(sp)
   1667c:	00e787b3          	add	a5,a5,a4
   16680:	02f12823          	sw	a5,48(sp)
   16684:	04e12223          	sw	a4,68(sp)
   16688:	02012e23          	sw	zero,60(sp)
   1668c:	1300006f          	jal	zero,167bc <__gdtoa+0x440>
   16690:	00400793          	addi	a5,zero,4
   16694:	04f31063          	bne	t1,a5,166d4 <__gdtoa+0x358>
   16698:	0a012d03          	lw	s10,160(sp)
   1669c:	0cc12083          	lw	ra,204(sp)
   166a0:	0bc12983          	lw	s3,188(sp)
   166a4:	ffff87b7          	lui	a5,0xffff8
   166a8:	000c8613          	addi	a2,s9,0
   166ac:	0a412c83          	lw	s9,164(sp)
   166b0:	000215b7          	lui	a1,0x21
   166b4:	00f8a023          	sw	a5,0(a7)
   166b8:	000e0693          	addi	a3,t3,0
   166bc:	c2058593          	addi	a1,a1,-992 # 20c20 <__clzsi2+0xe4>
   166c0:	0d010113          	addi	sp,sp,208
   166c4:	1b10106f          	jal	zero,18074 <__nrv_alloc_D2A>
   166c8:	0c812403          	lw	s0,200(sp)
   166cc:	0c012903          	lw	s2,192(sp)
   166d0:	09c12d83          	lw	s11,156(sp)
   166d4:	00000793          	addi	a5,zero,0
   166d8:	0cc12083          	lw	ra,204(sp)
   166dc:	0a012d03          	lw	s10,160(sp)
   166e0:	0bc12983          	lw	s3,188(sp)
   166e4:	0a412c83          	lw	s9,164(sp)
   166e8:	00078513          	addi	a0,a5,0 # ffff8000 <__BSS_END__+0xfff435ac>
   166ec:	0d010113          	addi	sp,sp,208
   166f0:	00008067          	jalr	zero,0(ra)
   166f4:	00040593          	addi	a1,s0,0
   166f8:	000d8513          	addi	a0,s11,0
   166fc:	649010ef          	jal	ra,18544 <_Bfree>
   16700:	0c812403          	lw	s0,200(sp)
   16704:	0c412483          	lw	s1,196(sp)
   16708:	0c012903          	lw	s2,192(sp)
   1670c:	01c12783          	lw	a5,28(sp)
   16710:	00100693          	addi	a3,zero,1
   16714:	000215b7          	lui	a1,0x21
   16718:	000c8613          	addi	a2,s9,0
   1671c:	000d8513          	addi	a0,s11,0
   16720:	00d7a023          	sw	a3,0(a5)
   16724:	c1058593          	addi	a1,a1,-1008 # 20c10 <__clzsi2+0xd4>
   16728:	14d010ef          	jal	ra,18074 <__nrv_alloc_D2A>
   1672c:	0cc12083          	lw	ra,204(sp)
   16730:	00050793          	addi	a5,a0,0
   16734:	09c12d83          	lw	s11,156(sp)
   16738:	0a012d03          	lw	s10,160(sp)
   1673c:	0bc12983          	lw	s3,188(sp)
   16740:	0a412c83          	lw	s9,164(sp)
   16744:	00078513          	addi	a0,a5,0
   16748:	0d010113          	addi	sp,sp,208
   1674c:	00008067          	jalr	zero,0(ra)
   16750:	0cc12083          	lw	ra,204(sp)
   16754:	0bc12983          	lw	s3,188(sp)
   16758:	ffff87b7          	lui	a5,0xffff8
   1675c:	000c8613          	addi	a2,s9,0
   16760:	0a412c83          	lw	s9,164(sp)
   16764:	000215b7          	lui	a1,0x21
   16768:	00f8a023          	sw	a5,0(a7)
   1676c:	c1458593          	addi	a1,a1,-1004 # 20c14 <__clzsi2+0xd8>
   16770:	00800693          	addi	a3,zero,8
   16774:	0d010113          	addi	sp,sp,208
   16778:	0fd0106f          	jal	zero,18074 <__nrv_alloc_D2A>
   1677c:	00042823          	sw	zero,16(s0)
   16780:	d29ff06f          	jal	zero,164a8 <__gdtoa+0x12c>
   16784:	00100793          	addi	a5,zero,1
   16788:	04f12623          	sw	a5,76(sp)
   1678c:	03012783          	lw	a5,48(sp)
   16790:	02012c23          	sw	zero,56(sp)
   16794:	4207c463          	blt	a5,zero,16bbc <__gdtoa+0x840>
   16798:	01812783          	lw	a5,24(sp)
   1679c:	4007d263          	bge	a5,zero,16ba0 <__gdtoa+0x824>
   167a0:	03812783          	lw	a5,56(sp)
   167a4:	01812703          	lw	a4,24(sp)
   167a8:	04012223          	sw	zero,68(sp)
   167ac:	40e787b3          	sub	a5,a5,a4
   167b0:	02f12c23          	sw	a5,56(sp)
   167b4:	40e007b3          	sub	a5,zero,a4
   167b8:	02f12e23          	sw	a5,60(sp)
   167bc:	00012703          	lw	a4,0(sp)
   167c0:	00900793          	addi	a5,zero,9
   167c4:	56e7ea63          	bltu	a5,a4,16d38 <__gdtoa+0x9bc>
   167c8:	00012783          	lw	a5,0(sp)
   167cc:	00500713          	addi	a4,zero,5
   167d0:	0af752e3          	bge	a4,a5,17074 <__gdtoa+0xcf8>
   167d4:	ffc78793          	addi	a5,a5,-4 # ffff7ffc <__BSS_END__+0xfff435a8>
   167d8:	00f12023          	sw	a5,0(sp)
   167dc:	00012683          	lw	a3,0(sp)
   167e0:	00400793          	addi	a5,zero,4
   167e4:	5af68063          	beq	a3,a5,16d84 <__gdtoa+0xa08>
   167e8:	66e686e3          	beq	a3,a4,17654 <__gdtoa+0x12d8>
   167ec:	00200793          	addi	a5,zero,2
   167f0:	04012c23          	sw	zero,88(sp)
   167f4:	00000a93          	addi	s5,zero,0
   167f8:	58f68c63          	beq	a3,a5,16d90 <__gdtoa+0xa14>
   167fc:	00300793          	addi	a5,zero,3
   16800:	00f12023          	sw	a5,0(sp)
   16804:	00812783          	lw	a5,8(sp)
   16808:	01812703          	lw	a4,24(sp)
   1680c:	00e787b3          	add	a5,a5,a4
   16810:	04f12423          	sw	a5,72(sp)
   16814:	00178793          	addi	a5,a5,1
   16818:	02f12223          	sw	a5,36(sp)
   1681c:	3cf05463          	bge	zero,a5,16be4 <__gdtoa+0x868>
   16820:	00078593          	addi	a1,a5,0
   16824:	000d8513          	addi	a0,s11,0
   16828:	08f12623          	sw	a5,140(sp)
   1682c:	7dc010ef          	jal	ra,18008 <__rv_alloc_D2A>
   16830:	00050793          	addi	a5,a0,0
   16834:	00050ce3          	beq	a0,zero,1704c <__gdtoa+0xcd0>
   16838:	02c12703          	lw	a4,44(sp)
   1683c:	00c72803          	lw	a6,12(a4)
   16840:	fff80813          	addi	a6,a6,-1
   16844:	00080e63          	beq	a6,zero,16860 <__gdtoa+0x4e4>
   16848:	00085463          	bge	a6,zero,16850 <__gdtoa+0x4d4>
   1684c:	00200813          	addi	a6,zero,2
   16850:	1009f993          	andi	s3,s3,256
   16854:	42098e63          	beq	s3,zero,16c90 <__gdtoa+0x914>
   16858:	00300713          	addi	a4,zero,3
   1685c:	41070833          	sub	a6,a4,a6
   16860:	02412703          	lw	a4,36(sp)
   16864:	00f73713          	sltiu	a4,a4,15
   16868:	42070463          	beq	a4,zero,16c90 <__gdtoa+0x914>
   1686c:	420a8263          	beq	s5,zero,16c90 <__gdtoa+0x914>
   16870:	01812703          	lw	a4,24(sp)
   16874:	00e86733          	or	a4,a6,a4
   16878:	40071c63          	bne	a4,zero,16c90 <__gdtoa+0x914>
   1687c:	04012703          	lw	a4,64(sp)
   16880:	04c12683          	lw	a3,76(sp)
   16884:	08012623          	sw	zero,140(sp)
   16888:	04e12e23          	sw	a4,92(sp)
   1688c:	07412423          	sw	s4,104(sp)
   16890:	02068663          	beq	a3,zero,168bc <__gdtoa+0x540>
   16894:	ed81a603          	lw	a2,-296(gp) # b46e8 <__SDATA_BEGIN__+0x30>
   16898:	edc1a683          	lw	a3,-292(gp) # b46ec <__SDATA_BEGIN__+0x34>
   1689c:	00070513          	addi	a0,a4,0
   168a0:	000a0593          	addi	a1,s4,0
   168a4:	04f12023          	sw	a5,64(sp)
   168a8:	06e12023          	sw	a4,96(sp)
   168ac:	0e1060ef          	jal	ra,1d18c <__ledf2>
   168b0:	04012783          	lw	a5,64(sp)
   168b4:	00055463          	bge	a0,zero,168bc <__gdtoa+0x540>
   168b8:	1440106f          	jal	zero,179fc <__gdtoa+0x1680>
   168bc:	04f12023          	sw	a5,64(sp)
   168c0:	05c12783          	lw	a5,92(sp)
   168c4:	00078613          	addi	a2,a5,0
   168c8:	00078513          	addi	a0,a5,0
   168cc:	06812783          	lw	a5,104(sp)
   168d0:	00078693          	addi	a3,a5,0
   168d4:	00078593          	addi	a1,a5,0
   168d8:	155050ef          	jal	ra,1c22c <__adddf3>
   168dc:	ef01a603          	lw	a2,-272(gp) # b4700 <__SDATA_BEGIN__+0x48>
   168e0:	ef41a683          	lw	a3,-268(gp) # b4704 <__SDATA_BEGIN__+0x4c>
   168e4:	149050ef          	jal	ra,1c22c <__adddf3>
   168e8:	fcc00737          	lui	a4,0xfcc00
   168ec:	00b70333          	add	t1,a4,a1
   168f0:	02412703          	lw	a4,36(sp)
   168f4:	04012783          	lw	a5,64(sp)
   168f8:	00050993          	addi	s3,a0,0
   168fc:	32070263          	beq	a4,zero,16c20 <__gdtoa+0x8a4>
   16900:	02412703          	lw	a4,36(sp)
   16904:	05c12a83          	lw	s5,92(sp)
   16908:	06812b03          	lw	s6,104(sp)
   1690c:	06012623          	sw	zero,108(sp)
   16910:	04e12023          	sw	a4,64(sp)
   16914:	04012703          	lw	a4,64(sp)
   16918:	000b3837          	lui	a6,0xb3
   1691c:	6d080893          	addi	a7,a6,1744 # b36d0 <__mprec_tens>
   16920:	00371693          	slli	a3,a4,0x3
   16924:	05812703          	lw	a4,88(sp)
   16928:	00d886b3          	add	a3,a7,a3
   1692c:	ff86a603          	lw	a2,-8(a3)
   16930:	ffc6a683          	lw	a3,-4(a3)
   16934:	100702e3          	beq	a4,zero,17238 <__gdtoa+0xebc>
   16938:	f001a503          	lw	a0,-256(gp) # b4710 <__SDATA_BEGIN__+0x58>
   1693c:	f041a583          	lw	a1,-252(gp) # b4714 <__SDATA_BEGIN__+0x5c>
   16940:	06612823          	sw	t1,112(sp)
   16944:	04f12823          	sw	a5,80(sp)
   16948:	07112a23          	sw	a7,116(sp)
   1694c:	07312023          	sw	s3,96(sp)
   16950:	00178993          	addi	s3,a5,1
   16954:	024060ef          	jal	ra,1c978 <__divdf3>
   16958:	06012603          	lw	a2,96(sp)
   1695c:	07012683          	lw	a3,112(sp)
   16960:	000a8b93          	addi	s7,s5,0
   16964:	000b0a13          	addi	s4,s6,0
   16968:	6e5060ef          	jal	ra,1d84c <__subdf3>
   1696c:	00050613          	addi	a2,a0,0
   16970:	00058693          	addi	a3,a1,0
   16974:	000a8513          	addi	a0,s5,0
   16978:	000b0593          	addi	a1,s6,0
   1697c:	00068a93          	addi	s5,a3,0
   16980:	00060b13          	addi	s6,a2,0
   16984:	628070ef          	jal	ra,1dfac <__fixdfsi>
   16988:	00050c13          	addi	s8,a0,0
   1698c:	69c070ef          	jal	ra,1e028 <__floatsidf>
   16990:	00050613          	addi	a2,a0,0
   16994:	00058693          	addi	a3,a1,0
   16998:	000b8513          	addi	a0,s7,0
   1699c:	000a0593          	addi	a1,s4,0
   169a0:	6ad060ef          	jal	ra,1d84c <__subdf3>
   169a4:	05012783          	lw	a5,80(sp)
   169a8:	030c0713          	addi	a4,s8,48
   169ac:	00050613          	addi	a2,a0,0
   169b0:	00058693          	addi	a3,a1,0
   169b4:	00e78023          	sb	a4,0(a5)
   169b8:	00050a13          	addi	s4,a0,0
   169bc:	00058b93          	addi	s7,a1,0
   169c0:	000b0513          	addi	a0,s6,0
   169c4:	000a8593          	addi	a1,s5,0
   169c8:	6ec060ef          	jal	ra,1d0b4 <__gedf2>
   169cc:	05012783          	lw	a5,80(sp)
   169d0:	00a05463          	bge	zero,a0,169d8 <__gdtoa+0x65c>
   169d4:	2e00106f          	jal	zero,17cb4 <__gdtoa+0x1938>
   169d8:	edc1a703          	lw	a4,-292(gp) # b46ec <__SDATA_BEGIN__+0x34>
   169dc:	ed81a683          	lw	a3,-296(gp) # b46e8 <__SDATA_BEGIN__+0x30>
   169e0:	06e12223          	sw	a4,100(sp)
   169e4:	06d12023          	sw	a3,96(sp)
   169e8:	ee41a703          	lw	a4,-284(gp) # b46f4 <__SDATA_BEGIN__+0x3c>
   169ec:	ee01a683          	lw	a3,-288(gp) # b46f0 <__SDATA_BEGIN__+0x38>
   169f0:	00040c13          	addi	s8,s0,0
   169f4:	07212c23          	sw	s2,120(sp)
   169f8:	06912e23          	sw	s1,124(sp)
   169fc:	04d12823          	sw	a3,80(sp)
   16a00:	04e12a23          	sw	a4,84(sp)
   16a04:	06f12823          	sw	a5,112(sp)
   16a08:	000a0413          	addi	s0,s4,0
   16a0c:	000b0493          	addi	s1,s6,0
   16a10:	000a8913          	addi	s2,s5,0
   16a14:	08c0006f          	jal	zero,16aa0 <__gdtoa+0x724>
   16a18:	08c12783          	lw	a5,140(sp)
   16a1c:	04012703          	lw	a4,64(sp)
   16a20:	00178793          	addi	a5,a5,1
   16a24:	08f12623          	sw	a5,140(sp)
   16a28:	00e7c463          	blt	a5,a4,16a30 <__gdtoa+0x6b4>
   16a2c:	36c0106f          	jal	zero,17d98 <__gdtoa+0x1a1c>
   16a30:	035060ef          	jal	ra,1d264 <__muldf3>
   16a34:	05012603          	lw	a2,80(sp)
   16a38:	05412683          	lw	a3,84(sp)
   16a3c:	00050493          	addi	s1,a0,0
   16a40:	00058913          	addi	s2,a1,0
   16a44:	00040513          	addi	a0,s0,0
   16a48:	000b8593          	addi	a1,s7,0
   16a4c:	019060ef          	jal	ra,1d264 <__muldf3>
   16a50:	00058a93          	addi	s5,a1,0
   16a54:	00050a13          	addi	s4,a0,0
   16a58:	554070ef          	jal	ra,1dfac <__fixdfsi>
   16a5c:	00050413          	addi	s0,a0,0
   16a60:	5c8070ef          	jal	ra,1e028 <__floatsidf>
   16a64:	00050613          	addi	a2,a0,0
   16a68:	00058693          	addi	a3,a1,0
   16a6c:	000a0513          	addi	a0,s4,0
   16a70:	000a8593          	addi	a1,s5,0
   16a74:	5d9060ef          	jal	ra,1d84c <__subdf3>
   16a78:	03040793          	addi	a5,s0,48
   16a7c:	00048613          	addi	a2,s1,0
   16a80:	00090693          	addi	a3,s2,0
   16a84:	00f98023          	sb	a5,0(s3)
   16a88:	00198993          	addi	s3,s3,1
   16a8c:	00050413          	addi	s0,a0,0
   16a90:	00058b93          	addi	s7,a1,0
   16a94:	6f8060ef          	jal	ra,1d18c <__ledf2>
   16a98:	00055463          	bge	a0,zero,16aa0 <__gdtoa+0x724>
   16a9c:	20c0106f          	jal	zero,17ca8 <__gdtoa+0x192c>
   16aa0:	06012503          	lw	a0,96(sp)
   16aa4:	06412583          	lw	a1,100(sp)
   16aa8:	00040613          	addi	a2,s0,0
   16aac:	000b8693          	addi	a3,s7,0
   16ab0:	59d060ef          	jal	ra,1d84c <__subdf3>
   16ab4:	00048613          	addi	a2,s1,0
   16ab8:	00090693          	addi	a3,s2,0
   16abc:	6d0060ef          	jal	ra,1d18c <__ledf2>
   16ac0:	00050793          	addi	a5,a0,0
   16ac4:	05012603          	lw	a2,80(sp)
   16ac8:	05412683          	lw	a3,84(sp)
   16acc:	00048513          	addi	a0,s1,0
   16ad0:	00090593          	addi	a1,s2,0
   16ad4:	f407d2e3          	bge	a5,zero,16a18 <__gdtoa+0x69c>
   16ad8:	07012783          	lw	a5,112(sp)
   16adc:	fff9c903          	lbu	s2,-1(s3)
   16ae0:	000c0413          	addi	s0,s8,0
   16ae4:	03900613          	addi	a2,zero,57
   16ae8:	0140006f          	jal	zero,16afc <__gdtoa+0x780>
   16aec:	00d79463          	bne	a5,a3,16af4 <__gdtoa+0x778>
   16af0:	0000106f          	jal	zero,17af0 <__gdtoa+0x1774>
   16af4:	fff6c903          	lbu	s2,-1(a3)
   16af8:	00068993          	addi	s3,a3,0
   16afc:	fff98693          	addi	a3,s3,-1
   16b00:	fec906e3          	beq	s2,a2,16aec <__gdtoa+0x770>
   16b04:	00190913          	addi	s2,s2,1
   16b08:	06c12703          	lw	a4,108(sp)
   16b0c:	01268023          	sb	s2,0(a3)
   16b10:	02000d13          	addi	s10,zero,32
   16b14:	00170c13          	addi	s8,a4,1 # fcc00001 <__BSS_END__+0xfcb4b5ad>
   16b18:	00040593          	addi	a1,s0,0
   16b1c:	000d8513          	addi	a0,s11,0
   16b20:	00f12023          	sw	a5,0(sp)
   16b24:	221010ef          	jal	ra,18544 <_Bfree>
   16b28:	01c12783          	lw	a5,28(sp)
   16b2c:	00098023          	sb	zero,0(s3)
   16b30:	0187a023          	sw	s8,0(a5)
   16b34:	00012783          	lw	a5,0(sp)
   16b38:	000c8463          	beq	s9,zero,16b40 <__gdtoa+0x7c4>
   16b3c:	013ca023          	sw	s3,0(s9)
   16b40:	02812703          	lw	a4,40(sp)
   16b44:	02812683          	lw	a3,40(sp)
   16b48:	0c812403          	lw	s0,200(sp)
   16b4c:	00072703          	lw	a4,0(a4)
   16b50:	0c412483          	lw	s1,196(sp)
   16b54:	0c012903          	lw	s2,192(sp)
   16b58:	01a76733          	or	a4,a4,s10
   16b5c:	0b812a03          	lw	s4,184(sp)
   16b60:	0b412a83          	lw	s5,180(sp)
   16b64:	0b012b03          	lw	s6,176(sp)
   16b68:	0ac12b83          	lw	s7,172(sp)
   16b6c:	0a812c03          	lw	s8,168(sp)
   16b70:	09c12d83          	lw	s11,156(sp)
   16b74:	00e6a023          	sw	a4,0(a3)
   16b78:	b61ff06f          	jal	zero,166d8 <__gdtoa+0x35c>
   16b7c:	00050593          	addi	a1,a0,0
   16b80:	00040513          	addi	a0,s0,0
   16b84:	7c4010ef          	jal	ra,18348 <__rshift_D2A>
   16b88:	08c12783          	lw	a5,140(sp)
   16b8c:	02012703          	lw	a4,32(sp)
   16b90:	40f484b3          	sub	s1,s1,a5
   16b94:	00e787b3          	add	a5,a5,a4
   16b98:	02f12a23          	sw	a5,52(sp)
   16b9c:	925ff06f          	jal	zero,164c0 <__gdtoa+0x144>
   16ba0:	03012783          	lw	a5,48(sp)
   16ba4:	01812703          	lw	a4,24(sp)
   16ba8:	02012e23          	sw	zero,60(sp)
   16bac:	00e787b3          	add	a5,a5,a4
   16bb0:	02f12823          	sw	a5,48(sp)
   16bb4:	04e12223          	sw	a4,68(sp)
   16bb8:	c05ff06f          	jal	zero,167bc <__gdtoa+0x440>
   16bbc:	00100793          	addi	a5,zero,1
   16bc0:	40e787b3          	sub	a5,a5,a4
   16bc4:	02f12c23          	sw	a5,56(sp)
   16bc8:	02012823          	sw	zero,48(sp)
   16bcc:	bcdff06f          	jal	zero,16798 <__gdtoa+0x41c>
   16bd0:	01812783          	lw	a5,24(sp)
   16bd4:	04012623          	sw	zero,76(sp)
   16bd8:	fff78793          	addi	a5,a5,-1
   16bdc:	00f12c23          	sw	a5,24(sp)
   16be0:	badff06f          	jal	zero,1678c <__gdtoa+0x410>
   16be4:	00100793          	addi	a5,zero,1
   16be8:	c39ff06f          	jal	zero,16820 <__gdtoa+0x4a4>
   16bec:	00070613          	addi	a2,a4,0
   16bf0:	00070513          	addi	a0,a4,0
   16bf4:	000a0693          	addi	a3,s4,0
   16bf8:	000a0593          	addi	a1,s4,0
   16bfc:	04f12023          	sw	a5,64(sp)
   16c00:	62c050ef          	jal	ra,1c22c <__adddf3>
   16c04:	ef01a603          	lw	a2,-272(gp) # b4700 <__SDATA_BEGIN__+0x48>
   16c08:	ef41a683          	lw	a3,-268(gp) # b4704 <__SDATA_BEGIN__+0x4c>
   16c0c:	620050ef          	jal	ra,1c22c <__adddf3>
   16c10:	04012783          	lw	a5,64(sp)
   16c14:	fcc00737          	lui	a4,0xfcc00
   16c18:	00050993          	addi	s3,a0,0
   16c1c:	00b70333          	add	t1,a4,a1
   16c20:	ef81a603          	lw	a2,-264(gp) # b4708 <__SDATA_BEGIN__+0x50>
   16c24:	05c12503          	lw	a0,92(sp)
   16c28:	efc1a683          	lw	a3,-260(gp) # b470c <__SDATA_BEGIN__+0x54>
   16c2c:	06812583          	lw	a1,104(sp)
   16c30:	04f12023          	sw	a5,64(sp)
   16c34:	04612823          	sw	t1,80(sp)
   16c38:	415060ef          	jal	ra,1d84c <__subdf3>
   16c3c:	05012683          	lw	a3,80(sp)
   16c40:	00098613          	addi	a2,s3,0
   16c44:	00050a13          	addi	s4,a0,0
   16c48:	00058a93          	addi	s5,a1,0
   16c4c:	468060ef          	jal	ra,1d0b4 <__gedf2>
   16c50:	04012783          	lw	a5,64(sp)
   16c54:	6aa048e3          	blt	zero,a0,17b04 <__gdtoa+0x1788>
   16c58:	05012303          	lw	t1,80(sp)
   16c5c:	800006b7          	lui	a3,0x80000
   16c60:	00098613          	addi	a2,s3,0
   16c64:	00d34733          	xor	a4,t1,a3
   16c68:	00070693          	addi	a3,a4,0 # fcc00000 <__BSS_END__+0xfcb4b5ac>
   16c6c:	000a0513          	addi	a0,s4,0
   16c70:	000a8593          	addi	a1,s5,0
   16c74:	518060ef          	jal	ra,1d18c <__ledf2>
   16c78:	04012783          	lw	a5,64(sp)
   16c7c:	160544e3          	blt	a0,zero,175e4 <__gdtoa+0x1268>
   16c80:	05c12703          	lw	a4,92(sp)
   16c84:	06812a03          	lw	s4,104(sp)
   16c88:	00000813          	addi	a6,zero,0
   16c8c:	04e12823          	sw	a4,80(sp)
   16c90:	03412703          	lw	a4,52(sp)
   16c94:	10074e63          	blt	a4,zero,16db0 <__gdtoa+0xa34>
   16c98:	01812703          	lw	a4,24(sp)
   16c9c:	00f72713          	slti	a4,a4,15
   16ca0:	10070863          	beq	a4,zero,16db0 <__gdtoa+0xa34>
   16ca4:	000b38b7          	lui	a7,0xb3
   16ca8:	6d088893          	addi	a7,a7,1744 # b36d0 <__mprec_tens>
   16cac:	01812703          	lw	a4,24(sp)
   16cb0:	00371713          	slli	a4,a4,0x3
   16cb4:	00e888b3          	add	a7,a7,a4
   16cb8:	0048a703          	lw	a4,4(a7)
   16cbc:	0008a683          	lw	a3,0(a7)
   16cc0:	00e12223          	sw	a4,4(sp)
   16cc4:	00812703          	lw	a4,8(sp)
   16cc8:	00d12023          	sw	a3,0(sp)
   16ccc:	3e075863          	bge	a4,zero,170bc <__gdtoa+0xd40>
   16cd0:	02412703          	lw	a4,36(sp)
   16cd4:	3ee04463          	blt	zero,a4,170bc <__gdtoa+0xd40>
   16cd8:	100716e3          	bne	a4,zero,175e4 <__gdtoa+0x1268>
   16cdc:	ef81a603          	lw	a2,-264(gp) # b4708 <__SDATA_BEGIN__+0x50>
   16ce0:	efc1a683          	lw	a3,-260(gp) # b470c <__SDATA_BEGIN__+0x54>
   16ce4:	00012503          	lw	a0,0(sp)
   16ce8:	00412583          	lw	a1,4(sp)
   16cec:	00f12a23          	sw	a5,20(sp)
   16cf0:	574060ef          	jal	ra,1d264 <__muldf3>
   16cf4:	05012603          	lw	a2,80(sp)
   16cf8:	000a0693          	addi	a3,s4,0
   16cfc:	3b8060ef          	jal	ra,1d0b4 <__gedf2>
   16d00:	01412783          	lw	a5,20(sp)
   16d04:	0e0550e3          	bge	a0,zero,175e4 <__gdtoa+0x1268>
   16d08:	03100713          	addi	a4,zero,49
   16d0c:	00e78023          	sb	a4,0(a5)
   16d10:	00000593          	addi	a1,zero,0
   16d14:	000d8513          	addi	a0,s11,0
   16d18:	00178993          	addi	s3,a5,1
   16d1c:	00f12023          	sw	a5,0(sp)
   16d20:	025010ef          	jal	ra,18544 <_Bfree>
   16d24:	01812783          	lw	a5,24(sp)
   16d28:	02000d13          	addi	s10,zero,32
   16d2c:	00278c13          	addi	s8,a5,2
   16d30:	00012783          	lw	a5,0(sp)
   16d34:	de5ff06f          	jal	zero,16b18 <__gdtoa+0x79c>
   16d38:	3fdc0793          	addi	a5,s8,1021
   16d3c:	7f87ba93          	sltiu	s5,a5,2040
   16d40:	00012023          	sw	zero,0(sp)
   16d44:	00090513          	addi	a0,s2,0
   16d48:	2e0070ef          	jal	ra,1e028 <__floatsidf>
   16d4c:	ed01a603          	lw	a2,-304(gp) # b46e0 <__SDATA_BEGIN__+0x28>
   16d50:	ed41a683          	lw	a3,-300(gp) # b46e4 <__SDATA_BEGIN__+0x2c>
   16d54:	510060ef          	jal	ra,1d264 <__muldf3>
   16d58:	254070ef          	jal	ra,1dfac <__fixdfsi>
   16d5c:	fff00713          	addi	a4,zero,-1
   16d60:	fff00793          	addi	a5,zero,-1
   16d64:	00350593          	addi	a1,a0,3
   16d68:	02e12223          	sw	a4,36(sp)
   16d6c:	00100713          	addi	a4,zero,1
   16d70:	04f12423          	sw	a5,72(sp)
   16d74:	00012423          	sw	zero,8(sp)
   16d78:	00058793          	addi	a5,a1,0
   16d7c:	04e12c23          	sw	a4,88(sp)
   16d80:	aa5ff06f          	jal	zero,16824 <__gdtoa+0x4a8>
   16d84:	00100793          	addi	a5,zero,1
   16d88:	00000a93          	addi	s5,zero,0
   16d8c:	04f12c23          	sw	a5,88(sp)
   16d90:	00812583          	lw	a1,8(sp)
   16d94:	00b04463          	blt	zero,a1,16d9c <__gdtoa+0xa20>
   16d98:	00100593          	addi	a1,zero,1
   16d9c:	00058793          	addi	a5,a1,0
   16da0:	04b12423          	sw	a1,72(sp)
   16da4:	02b12223          	sw	a1,36(sp)
   16da8:	00b12423          	sw	a1,8(sp)
   16dac:	a79ff06f          	jal	zero,16824 <__gdtoa+0x4a8>
   16db0:	05812703          	lw	a4,88(sp)
   16db4:	5e070263          	beq	a4,zero,17398 <__gdtoa+0x101c>
   16db8:	02c12703          	lw	a4,44(sp)
   16dbc:	03412603          	lw	a2,52(sp)
   16dc0:	40990933          	sub	s2,s2,s1
   16dc4:	00472703          	lw	a4,4(a4)
   16dc8:	00190693          	addi	a3,s2,1
   16dcc:	08d12623          	sw	a3,140(sp)
   16dd0:	41260933          	sub	s2,a2,s2
   16dd4:	1ce956e3          	bge	s2,a4,177a0 <__gdtoa+0x1424>
   16dd8:	00012683          	lw	a3,0(sp)
   16ddc:	ffd68693          	addi	a3,a3,-3 # 7ffffffd <__BSS_END__+0x7ff4b5a9>
   16de0:	ffd6f693          	andi	a3,a3,-3
   16de4:	080684e3          	beq	a3,zero,1766c <__gdtoa+0x12f0>
   16de8:	00012683          	lw	a3,0(sp)
   16dec:	40e60733          	sub	a4,a2,a4
   16df0:	02412603          	lw	a2,36(sp)
   16df4:	0026a693          	slti	a3,a3,2
   16df8:	00170713          	addi	a4,a4,1
   16dfc:	0016b693          	sltiu	a3,a3,1
   16e00:	00c02633          	slt	a2,zero,a2
   16e04:	08e12623          	sw	a4,140(sp)
   16e08:	00c6f6b3          	and	a3,a3,a2
   16e0c:	00068863          	beq	a3,zero,16e1c <__gdtoa+0xaa0>
   16e10:	02412683          	lw	a3,36(sp)
   16e14:	00e6d463          	bge	a3,a4,16e1c <__gdtoa+0xaa0>
   16e18:	0ac0106f          	jal	zero,17ec4 <__gdtoa+0x1b48>
   16e1c:	03012683          	lw	a3,48(sp)
   16e20:	03c12a03          	lw	s4,60(sp)
   16e24:	00e686b3          	add	a3,a3,a4
   16e28:	02d12823          	sw	a3,48(sp)
   16e2c:	03812683          	lw	a3,56(sp)
   16e30:	00d709b3          	add	s3,a4,a3
   16e34:	00100593          	addi	a1,zero,1
   16e38:	000d8513          	addi	a0,s11,0
   16e3c:	04f12023          	sw	a5,64(sp)
   16e40:	03012a23          	sw	a6,52(sp)
   16e44:	361010ef          	jal	ra,189a4 <__i2b>
   16e48:	00050913          	addi	s2,a0,0
   16e4c:	20050063          	beq	a0,zero,1704c <__gdtoa+0xcd0>
   16e50:	03812703          	lw	a4,56(sp)
   16e54:	03412803          	lw	a6,52(sp)
   16e58:	04012783          	lw	a5,64(sp)
   16e5c:	04070063          	beq	a4,zero,16e9c <__gdtoa+0xb20>
   16e60:	03012703          	lw	a4,48(sp)
   16e64:	02e05c63          	bge	zero,a4,16e9c <__gdtoa+0xb20>
   16e68:	03812683          	lw	a3,56(sp)
   16e6c:	03012603          	lw	a2,48(sp)
   16e70:	00068713          	addi	a4,a3,0
   16e74:	00d65463          	bge	a2,a3,16e7c <__gdtoa+0xb00>
   16e78:	00060713          	addi	a4,a2,0
   16e7c:	03812683          	lw	a3,56(sp)
   16e80:	08e12623          	sw	a4,140(sp)
   16e84:	40e989b3          	sub	s3,s3,a4
   16e88:	40e686b3          	sub	a3,a3,a4
   16e8c:	02d12c23          	sw	a3,56(sp)
   16e90:	03012683          	lw	a3,48(sp)
   16e94:	40e68733          	sub	a4,a3,a4
   16e98:	02e12823          	sw	a4,48(sp)
   16e9c:	03c12703          	lw	a4,60(sp)
   16ea0:	02070863          	beq	a4,zero,16ed0 <__gdtoa+0xb54>
   16ea4:	2e0a18e3          	bne	s4,zero,17994 <__gdtoa+0x1618>
   16ea8:	03c12603          	lw	a2,60(sp)
   16eac:	00040593          	addi	a1,s0,0
   16eb0:	000d8513          	addi	a0,s11,0
   16eb4:	04f12023          	sw	a5,64(sp)
   16eb8:	03012a23          	sw	a6,52(sp)
   16ebc:	605010ef          	jal	ra,18cc0 <__pow5mult>
   16ec0:	03412803          	lw	a6,52(sp)
   16ec4:	04012783          	lw	a5,64(sp)
   16ec8:	00050413          	addi	s0,a0,0
   16ecc:	18050063          	beq	a0,zero,1704c <__gdtoa+0xcd0>
   16ed0:	00100593          	addi	a1,zero,1
   16ed4:	000d8513          	addi	a0,s11,0
   16ed8:	02f12e23          	sw	a5,60(sp)
   16edc:	03012a23          	sw	a6,52(sp)
   16ee0:	2c5010ef          	jal	ra,189a4 <__i2b>
   16ee4:	00050313          	addi	t1,a0,0
   16ee8:	16050263          	beq	a0,zero,1704c <__gdtoa+0xcd0>
   16eec:	04412703          	lw	a4,68(sp)
   16ef0:	03412803          	lw	a6,52(sp)
   16ef4:	03c12783          	lw	a5,60(sp)
   16ef8:	7a071663          	bne	a4,zero,176a4 <__gdtoa+0x1328>
   16efc:	00012703          	lw	a4,0(sp)
   16f00:	00272713          	slti	a4,a4,2
   16f04:	00070663          	beq	a4,zero,16f10 <__gdtoa+0xb94>
   16f08:	fff48493          	addi	s1,s1,-1
   16f0c:	0e048663          	beq	s1,zero,16ff8 <__gdtoa+0xc7c>
   16f10:	01f00513          	addi	a0,zero,31
   16f14:	03012703          	lw	a4,48(sp)
   16f18:	40e504b3          	sub	s1,a0,a4
   16f1c:	ffc48493          	addi	s1,s1,-4
   16f20:	01f4f493          	andi	s1,s1,31
   16f24:	08912623          	sw	s1,140(sp)
   16f28:	01348633          	add	a2,s1,s3
   16f2c:	00048713          	addi	a4,s1,0
   16f30:	6ec04863          	blt	zero,a2,17620 <__gdtoa+0x12a4>
   16f34:	03012683          	lw	a3,48(sp)
   16f38:	00e68633          	add	a2,a3,a4
   16f3c:	0ec04663          	blt	zero,a2,17028 <__gdtoa+0xcac>
   16f40:	04c12703          	lw	a4,76(sp)
   16f44:	080712e3          	bne	a4,zero,177c8 <__gdtoa+0x144c>
   16f48:	02412703          	lw	a4,36(sp)
   16f4c:	48e04e63          	blt	zero,a4,173e8 <__gdtoa+0x106c>
   16f50:	00012703          	lw	a4,0(sp)
   16f54:	00372713          	slti	a4,a4,3
   16f58:	48071863          	bne	a4,zero,173e8 <__gdtoa+0x106c>
   16f5c:	00030593          	addi	a1,t1,0
   16f60:	00000693          	addi	a3,zero,0
   16f64:	00500613          	addi	a2,zero,5
   16f68:	000d8513          	addi	a0,s11,0
   16f6c:	00f12023          	sw	a5,0(sp)
   16f70:	5f8010ef          	jal	ra,18568 <__multadd>
   16f74:	00050593          	addi	a1,a0,0
   16f78:	0c050a63          	beq	a0,zero,1704c <__gdtoa+0xcd0>
   16f7c:	02412703          	lw	a4,36(sp)
   16f80:	00012783          	lw	a5,0(sp)
   16f84:	1a0712e3          	bne	a4,zero,17928 <__gdtoa+0x15ac>
   16f88:	00a12023          	sw	a0,0(sp)
   16f8c:	00040513          	addi	a0,s0,0
   16f90:	00f12a23          	sw	a5,20(sp)
   16f94:	01c020ef          	jal	ra,18fb0 <__mcmp>
   16f98:	00012583          	lw	a1,0(sp)
   16f9c:	01412783          	lw	a5,20(sp)
   16fa0:	18a054e3          	bge	zero,a0,17928 <__gdtoa+0x15ac>
   16fa4:	03100713          	addi	a4,zero,49
   16fa8:	00e78023          	sb	a4,0(a5)
   16fac:	01812703          	lw	a4,24(sp)
   16fb0:	00178993          	addi	s3,a5,1
   16fb4:	02000d13          	addi	s10,zero,32
   16fb8:	00170713          	addi	a4,a4,1
   16fbc:	00e12c23          	sw	a4,24(sp)
   16fc0:	000d8513          	addi	a0,s11,0
   16fc4:	00f12023          	sw	a5,0(sp)
   16fc8:	57c010ef          	jal	ra,18544 <_Bfree>
   16fcc:	00012783          	lw	a5,0(sp)
   16fd0:	00091463          	bne	s2,zero,16fd8 <__gdtoa+0xc5c>
   16fd4:	0040106f          	jal	zero,17fd8 <__gdtoa+0x1c5c>
   16fd8:	00090593          	addi	a1,s2,0
   16fdc:	000d8513          	addi	a0,s11,0
   16fe0:	00f12023          	sw	a5,0(sp)
   16fe4:	560010ef          	jal	ra,18544 <_Bfree>
   16fe8:	01812783          	lw	a5,24(sp)
   16fec:	00178c13          	addi	s8,a5,1
   16ff0:	00012783          	lw	a5,0(sp)
   16ff4:	b25ff06f          	jal	zero,16b18 <__gdtoa+0x79c>
   16ff8:	02c12703          	lw	a4,44(sp)
   16ffc:	02012683          	lw	a3,32(sp)
   17000:	00472703          	lw	a4,4(a4)
   17004:	00170713          	addi	a4,a4,1
   17008:	f0d754e3          	bge	a4,a3,16f10 <__gdtoa+0xb94>
   1700c:	03012703          	lw	a4,48(sp)
   17010:	00198993          	addi	s3,s3,1
   17014:	00170713          	addi	a4,a4,1
   17018:	02e12823          	sw	a4,48(sp)
   1701c:	00100713          	addi	a4,zero,1
   17020:	04e12223          	sw	a4,68(sp)
   17024:	eedff06f          	jal	zero,16f10 <__gdtoa+0xb94>
   17028:	00030593          	addi	a1,t1,0
   1702c:	000d8513          	addi	a0,s11,0
   17030:	02f12623          	sw	a5,44(sp)
   17034:	03012023          	sw	a6,32(sp)
   17038:	5f1010ef          	jal	ra,18e28 <__lshift>
   1703c:	02012803          	lw	a6,32(sp)
   17040:	02c12783          	lw	a5,44(sp)
   17044:	00050313          	addi	t1,a0,0
   17048:	ee051ce3          	bne	a0,zero,16f40 <__gdtoa+0xbc4>
   1704c:	0c812403          	lw	s0,200(sp)
   17050:	0c412483          	lw	s1,196(sp)
   17054:	0c012903          	lw	s2,192(sp)
   17058:	0b812a03          	lw	s4,184(sp)
   1705c:	0b412a83          	lw	s5,180(sp)
   17060:	0b012b03          	lw	s6,176(sp)
   17064:	0ac12b83          	lw	s7,172(sp)
   17068:	0a812c03          	lw	s8,168(sp)
   1706c:	09c12d83          	lw	s11,156(sp)
   17070:	e64ff06f          	jal	zero,166d4 <__gdtoa+0x358>
   17074:	3fdc0793          	addi	a5,s8,1021
   17078:	7f87ba93          	sltiu	s5,a5,2040
   1707c:	00012783          	lw	a5,0(sp)
   17080:	00400693          	addi	a3,zero,4
   17084:	0cd782e3          	beq	a5,a3,17948 <__gdtoa+0x15cc>
   17088:	5ce78863          	beq	a5,a4,17658 <__gdtoa+0x12dc>
   1708c:	00012703          	lw	a4,0(sp)
   17090:	00200793          	addi	a5,zero,2
   17094:	0af706e3          	beq	a4,a5,17940 <__gdtoa+0x15c4>
   17098:	00300793          	addi	a5,zero,3
   1709c:	04012c23          	sw	zero,88(sp)
   170a0:	f6f70263          	beq	a4,a5,16804 <__gdtoa+0x488>
   170a4:	ca1ff06f          	jal	zero,16d44 <__gdtoa+0x9c8>
   170a8:	6d082683          	lw	a3,1744(a6)
   170ac:	6d482703          	lw	a4,1748(a6)
   170b0:	00000813          	addi	a6,zero,0
   170b4:	00d12023          	sw	a3,0(sp)
   170b8:	00e12223          	sw	a4,4(sp)
   170bc:	05012903          	lw	s2,80(sp)
   170c0:	000a0993          	addi	s3,s4,0
   170c4:	00412a83          	lw	s5,4(sp)
   170c8:	000a0593          	addi	a1,s4,0
   170cc:	00012a03          	lw	s4,0(sp)
   170d0:	00100713          	addi	a4,zero,1
   170d4:	000a8693          	addi	a3,s5,0
   170d8:	000a0613          	addi	a2,s4,0
   170dc:	00090513          	addi	a0,s2,0
   170e0:	00f12423          	sw	a5,8(sp)
   170e4:	01012a23          	sw	a6,20(sp)
   170e8:	08e12623          	sw	a4,140(sp)
   170ec:	08d050ef          	jal	ra,1c978 <__divdf3>
   170f0:	6bd060ef          	jal	ra,1dfac <__fixdfsi>
   170f4:	00050493          	addi	s1,a0,0
   170f8:	731060ef          	jal	ra,1e028 <__floatsidf>
   170fc:	000a0613          	addi	a2,s4,0
   17100:	000a8693          	addi	a3,s5,0
   17104:	160060ef          	jal	ra,1d264 <__muldf3>
   17108:	00050613          	addi	a2,a0,0
   1710c:	00058693          	addi	a3,a1,0
   17110:	00090513          	addi	a0,s2,0
   17114:	00098593          	addi	a1,s3,0
   17118:	734060ef          	jal	ra,1d84c <__subdf3>
   1711c:	00812783          	lw	a5,8(sp)
   17120:	03048713          	addi	a4,s1,48
   17124:	00000613          	addi	a2,zero,0
   17128:	00e78023          	sb	a4,0(a5)
   1712c:	00178993          	addi	s3,a5,1
   17130:	01812783          	lw	a5,24(sp)
   17134:	00000693          	addi	a3,zero,0
   17138:	00050a13          	addi	s4,a0,0
   1713c:	00178c13          	addi	s8,a5,1
   17140:	00058913          	addi	s2,a1,0
   17144:	6ed050ef          	jal	ra,1d030 <__eqdf2>
   17148:	00812783          	lw	a5,8(sp)
   1714c:	9c0506e3          	beq	a0,zero,16b18 <__gdtoa+0x79c>
   17150:	ee41a703          	lw	a4,-284(gp) # b46f4 <__SDATA_BEGIN__+0x3c>
   17154:	01412803          	lw	a6,20(sp)
   17158:	ee01a683          	lw	a3,-288(gp) # b46f0 <__SDATA_BEGIN__+0x38>
   1715c:	00812a23          	sw	s0,20(sp)
   17160:	00e12623          	sw	a4,12(sp)
   17164:	00d12423          	sw	a3,8(sp)
   17168:	03012623          	sw	a6,44(sp)
   1716c:	02f12023          	sw	a5,32(sp)
   17170:	000a0413          	addi	s0,s4,0
   17174:	0780006f          	jal	zero,171ec <__gdtoa+0xe70>
   17178:	09012623          	sw	a6,140(sp)
   1717c:	0e8060ef          	jal	ra,1d264 <__muldf3>
   17180:	00012a03          	lw	s4,0(sp)
   17184:	00412a83          	lw	s5,4(sp)
   17188:	00050b13          	addi	s6,a0,0
   1718c:	000a0613          	addi	a2,s4,0
   17190:	000a8693          	addi	a3,s5,0
   17194:	00058b93          	addi	s7,a1,0
   17198:	7e0050ef          	jal	ra,1c978 <__divdf3>
   1719c:	611060ef          	jal	ra,1dfac <__fixdfsi>
   171a0:	00050493          	addi	s1,a0,0
   171a4:	685060ef          	jal	ra,1e028 <__floatsidf>
   171a8:	000a0613          	addi	a2,s4,0
   171ac:	000a8693          	addi	a3,s5,0
   171b0:	0b4060ef          	jal	ra,1d264 <__muldf3>
   171b4:	00050613          	addi	a2,a0,0
   171b8:	00058693          	addi	a3,a1,0
   171bc:	000b0513          	addi	a0,s6,0
   171c0:	000b8593          	addi	a1,s7,0
   171c4:	688060ef          	jal	ra,1d84c <__subdf3>
   171c8:	00198993          	addi	s3,s3,1
   171cc:	03048793          	addi	a5,s1,48
   171d0:	fef98fa3          	sb	a5,-1(s3)
   171d4:	00000613          	addi	a2,zero,0
   171d8:	00000693          	addi	a3,zero,0
   171dc:	00050413          	addi	s0,a0,0
   171e0:	00058913          	addi	s2,a1,0
   171e4:	64d050ef          	jal	ra,1d030 <__eqdf2>
   171e8:	72050a63          	beq	a0,zero,1791c <__gdtoa+0x15a0>
   171ec:	08c12703          	lw	a4,140(sp)
   171f0:	02412783          	lw	a5,36(sp)
   171f4:	00812603          	lw	a2,8(sp)
   171f8:	00c12683          	lw	a3,12(sp)
   171fc:	00040513          	addi	a0,s0,0
   17200:	00090593          	addi	a1,s2,0
   17204:	00170813          	addi	a6,a4,1
   17208:	f6f718e3          	bne	a4,a5,17178 <__gdtoa+0xdfc>
   1720c:	02c12803          	lw	a6,44(sp)
   17210:	02012783          	lw	a5,32(sp)
   17214:	01412403          	lw	s0,20(sp)
   17218:	10080ce3          	beq	a6,zero,17b30 <__gdtoa+0x17b4>
   1721c:	00100693          	addi	a3,zero,1
   17220:	01000d13          	addi	s10,zero,16
   17224:	8ed81ae3          	bne	a6,a3,16b18 <__gdtoa+0x79c>
   17228:	01812703          	lw	a4,24(sp)
   1722c:	06e12623          	sw	a4,108(sp)
   17230:	fff9c903          	lbu	s2,-1(s3)
   17234:	8b1ff06f          	jal	zero,16ae4 <__gdtoa+0x768>
   17238:	00098513          	addi	a0,s3,0
   1723c:	00030593          	addi	a1,t1,0
   17240:	07012823          	sw	a6,112(sp)
   17244:	06f12023          	sw	a5,96(sp)
   17248:	01c060ef          	jal	ra,1d264 <__muldf3>
   1724c:	ee01a783          	lw	a5,-288(gp) # b46f0 <__SDATA_BEGIN__+0x38>
   17250:	ee41a803          	lw	a6,-284(gp) # b46f4 <__SDATA_BEGIN__+0x3c>
   17254:	05012883          	lw	a7,80(sp)
   17258:	000a0e93          	addi	t4,s4,0
   1725c:	00100713          	addi	a4,zero,1
   17260:	00040a13          	addi	s4,s0,0
   17264:	04912823          	sw	s1,80(sp)
   17268:	06012983          	lw	s3,96(sp)
   1726c:	00050b93          	addi	s7,a0,0
   17270:	00058c13          	addi	s8,a1,0
   17274:	00078a93          	addi	s5,a5,0
   17278:	00080b13          	addi	s6,a6,0
   1727c:	08e12623          	sw	a4,140(sp)
   17280:	00088413          	addi	s0,a7,0
   17284:	000e8493          	addi	s1,t4,0
   17288:	0140006f          	jal	zero,1729c <__gdtoa+0xf20>
   1728c:	08e12623          	sw	a4,140(sp)
   17290:	7d5050ef          	jal	ra,1d264 <__muldf3>
   17294:	00050413          	addi	s0,a0,0
   17298:	00058493          	addi	s1,a1,0
   1729c:	00040513          	addi	a0,s0,0
   172a0:	00048593          	addi	a1,s1,0
   172a4:	509060ef          	jal	ra,1dfac <__fixdfsi>
   172a8:	00050913          	addi	s2,a0,0
   172ac:	02050263          	beq	a0,zero,172d0 <__gdtoa+0xf54>
   172b0:	579060ef          	jal	ra,1e028 <__floatsidf>
   172b4:	00050613          	addi	a2,a0,0
   172b8:	00058693          	addi	a3,a1,0
   172bc:	00040513          	addi	a0,s0,0
   172c0:	00048593          	addi	a1,s1,0
   172c4:	588060ef          	jal	ra,1d84c <__subdf3>
   172c8:	00050413          	addi	s0,a0,0
   172cc:	00058493          	addi	s1,a1,0
   172d0:	03090913          	addi	s2,s2,48
   172d4:	0ff97913          	andi	s2,s2,255
   172d8:	01298023          	sb	s2,0(s3)
   172dc:	08c12783          	lw	a5,140(sp)
   172e0:	04012803          	lw	a6,64(sp)
   172e4:	00198993          	addi	s3,s3,1
   172e8:	00040513          	addi	a0,s0,0
   172ec:	00048593          	addi	a1,s1,0
   172f0:	000a8613          	addi	a2,s5,0
   172f4:	000b0693          	addi	a3,s6,0
   172f8:	00178713          	addi	a4,a5,1
   172fc:	f90798e3          	bne	a5,a6,1728c <__gdtoa+0xf10>
   17300:	06012783          	lw	a5,96(sp)
   17304:	f001a603          	lw	a2,-256(gp) # b4710 <__SDATA_BEGIN__+0x58>
   17308:	f041a683          	lw	a3,-252(gp) # b4714 <__SDATA_BEGIN__+0x5c>
   1730c:	000b8513          	addi	a0,s7,0
   17310:	000c0593          	addi	a1,s8,0
   17314:	06f12a23          	sw	a5,116(sp)
   17318:	06812023          	sw	s0,96(sp)
   1731c:	04912023          	sw	s1,64(sp)
   17320:	70d040ef          	jal	ra,1c22c <__adddf3>
   17324:	06012883          	lw	a7,96(sp)
   17328:	04012683          	lw	a3,64(sp)
   1732c:	05012483          	lw	s1,80(sp)
   17330:	00088613          	addi	a2,a7,0
   17334:	05112823          	sw	a7,80(sp)
   17338:	655050ef          	jal	ra,1d18c <__ledf2>
   1733c:	07412783          	lw	a5,116(sp)
   17340:	000a0413          	addi	s0,s4,0
   17344:	fa054063          	blt	a0,zero,16ae4 <__gdtoa+0x768>
   17348:	f001a503          	lw	a0,-256(gp) # b4710 <__SDATA_BEGIN__+0x58>
   1734c:	f041a583          	lw	a1,-252(gp) # b4714 <__SDATA_BEGIN__+0x5c>
   17350:	000b8613          	addi	a2,s7,0
   17354:	000c0693          	addi	a3,s8,0
   17358:	06f12023          	sw	a5,96(sp)
   1735c:	4f0060ef          	jal	ra,1d84c <__subdf3>
   17360:	05012603          	lw	a2,80(sp)
   17364:	04012683          	lw	a3,64(sp)
   17368:	54d050ef          	jal	ra,1d0b4 <__gedf2>
   1736c:	04012e83          	lw	t4,64(sp)
   17370:	05012883          	lw	a7,80(sp)
   17374:	06012783          	lw	a5,96(sp)
   17378:	07012803          	lw	a6,112(sp)
   1737c:	24a048e3          	blt	zero,a0,17dcc <__gdtoa+0x1a50>
   17380:	05c12703          	lw	a4,92(sp)
   17384:	06812a03          	lw	s4,104(sp)
   17388:	04e12823          	sw	a4,80(sp)
   1738c:	03412703          	lw	a4,52(sp)
   17390:	d0075ce3          	bge	a4,zero,170a8 <__gdtoa+0xd2c>
   17394:	00000813          	addi	a6,zero,0
   17398:	03812703          	lw	a4,56(sp)
   1739c:	3c070263          	beq	a4,zero,17760 <__gdtoa+0x13e4>
   173a0:	03012703          	lw	a4,48(sp)
   173a4:	3a070e63          	beq	a4,zero,17760 <__gdtoa+0x13e4>
   173a8:	03812683          	lw	a3,56(sp)
   173ac:	03012603          	lw	a2,48(sp)
   173b0:	00068713          	addi	a4,a3,0
   173b4:	00d65463          	bge	a2,a3,173bc <__gdtoa+0x1040>
   173b8:	00060713          	addi	a4,a2,0
   173bc:	03812683          	lw	a3,56(sp)
   173c0:	08e12623          	sw	a4,140(sp)
   173c4:	40e689b3          	sub	s3,a3,a4
   173c8:	03012683          	lw	a3,48(sp)
   173cc:	40e68733          	sub	a4,a3,a4
   173d0:	02e12823          	sw	a4,48(sp)
   173d4:	03c12703          	lw	a4,60(sp)
   173d8:	38071a63          	bne	a4,zero,1776c <__gdtoa+0x13f0>
   173dc:	03312c23          	sw	s3,56(sp)
   173e0:	00000913          	addi	s2,zero,0
   173e4:	aedff06f          	jal	zero,16ed0 <__gdtoa+0xb54>
   173e8:	05812703          	lw	a4,88(sp)
   173ec:	46070a63          	beq	a4,zero,17860 <__gdtoa+0x14e4>
   173f0:	03812703          	lw	a4,56(sp)
   173f4:	00e48633          	add	a2,s1,a4
   173f8:	6cc04063          	blt	zero,a2,17ab8 <__gdtoa+0x173c>
   173fc:	04412703          	lw	a4,68(sp)
   17400:	00090a13          	addi	s4,s2,0
   17404:	7a071e63          	bne	a4,zero,17bc0 <__gdtoa+0x1844>
   17408:	ffe80713          	addi	a4,a6,-2
   1740c:	02e12623          	sw	a4,44(sp)
   17410:	00100693          	addi	a3,zero,1
   17414:	01012423          	sw	a6,8(sp)
   17418:	000a0993          	addi	s3,s4,0
   1741c:	00078b13          	addi	s6,a5,0
   17420:	00030b93          	addi	s7,t1,0
   17424:	02f12823          	sw	a5,48(sp)
   17428:	000b8593          	addi	a1,s7,0
   1742c:	00040513          	addi	a0,s0,0
   17430:	08d12623          	sw	a3,140(sp)
   17434:	50d000ef          	jal	ra,18140 <__quorem_D2A>
   17438:	00090593          	addi	a1,s2,0
   1743c:	00050a93          	addi	s5,a0,0
   17440:	00050c13          	addi	s8,a0,0
   17444:	00040513          	addi	a0,s0,0
   17448:	369010ef          	jal	ra,18fb0 <__mcmp>
   1744c:	000b8593          	addi	a1,s7,0
   17450:	00050493          	addi	s1,a0,0
   17454:	00098613          	addi	a2,s3,0
   17458:	000d8513          	addi	a0,s11,0
   1745c:	3ad010ef          	jal	ra,19008 <__mdiff>
   17460:	00050593          	addi	a1,a0,0
   17464:	be0504e3          	beq	a0,zero,1704c <__gdtoa+0xcd0>
   17468:	00c52783          	lw	a5,12(a0)
   1746c:	030a8a93          	addi	s5,s5,48
   17470:	0a078e63          	beq	a5,zero,1752c <__gdtoa+0x11b0>
   17474:	000d8513          	addi	a0,s11,0
   17478:	0cc010ef          	jal	ra,18544 <_Bfree>
   1747c:	00100593          	addi	a1,zero,1
   17480:	0604c2e3          	blt	s1,zero,17ce4 <__gdtoa+0x1968>
   17484:	00012783          	lw	a5,0(sp)
   17488:	00f4e4b3          	or	s1,s1,a5
   1748c:	00049a63          	bne	s1,zero,174a0 <__gdtoa+0x1124>
   17490:	01412783          	lw	a5,20(sp)
   17494:	0007a783          	lw	a5,0(a5)
   17498:	0017f793          	andi	a5,a5,1
   1749c:	040784e3          	beq	a5,zero,17ce4 <__gdtoa+0x1968>
   174a0:	001b0493          	addi	s1,s6,1
   174a4:	00048693          	addi	a3,s1,0
   174a8:	00b05663          	bge	zero,a1,174b4 <__gdtoa+0x1138>
   174ac:	02c12783          	lw	a5,44(sp)
   174b0:	160796e3          	bne	a5,zero,17e1c <__gdtoa+0x1aa0>
   174b4:	ff548fa3          	sb	s5,-1(s1)
   174b8:	08c12783          	lw	a5,140(sp)
   174bc:	02412703          	lw	a4,36(sp)
   174c0:	12e78ce3          	beq	a5,a4,17df8 <__gdtoa+0x1a7c>
   174c4:	00040593          	addi	a1,s0,0
   174c8:	00000693          	addi	a3,zero,0
   174cc:	00a00613          	addi	a2,zero,10
   174d0:	000d8513          	addi	a0,s11,0
   174d4:	094010ef          	jal	ra,18568 <__multadd>
   174d8:	00050413          	addi	s0,a0,0
   174dc:	b60508e3          	beq	a0,zero,1704c <__gdtoa+0xcd0>
   174e0:	00090593          	addi	a1,s2,0
   174e4:	00000693          	addi	a3,zero,0
   174e8:	00a00613          	addi	a2,zero,10
   174ec:	000d8513          	addi	a0,s11,0
   174f0:	11390e63          	beq	s2,s3,1760c <__gdtoa+0x1290>
   174f4:	074010ef          	jal	ra,18568 <__multadd>
   174f8:	00050913          	addi	s2,a0,0
   174fc:	b40508e3          	beq	a0,zero,1704c <__gdtoa+0xcd0>
   17500:	00098593          	addi	a1,s3,0
   17504:	00000693          	addi	a3,zero,0
   17508:	00a00613          	addi	a2,zero,10
   1750c:	000d8513          	addi	a0,s11,0
   17510:	058010ef          	jal	ra,18568 <__multadd>
   17514:	00050993          	addi	s3,a0,0
   17518:	b2050ae3          	beq	a0,zero,1704c <__gdtoa+0xcd0>
   1751c:	08c12683          	lw	a3,140(sp)
   17520:	00048b13          	addi	s6,s1,0
   17524:	00168693          	addi	a3,a3,1
   17528:	f01ff06f          	jal	zero,17428 <__gdtoa+0x10ac>
   1752c:	02a12023          	sw	a0,32(sp)
   17530:	00040513          	addi	a0,s0,0
   17534:	27d010ef          	jal	ra,18fb0 <__mcmp>
   17538:	02012583          	lw	a1,32(sp)
   1753c:	00050a13          	addi	s4,a0,0
   17540:	000d8513          	addi	a0,s11,0
   17544:	000010ef          	jal	ra,18544 <_Bfree>
   17548:	00012703          	lw	a4,0(sp)
   1754c:	00ea65b3          	or	a1,s4,a4
   17550:	58059c63          	bne	a1,zero,17ae8 <__gdtoa+0x176c>
   17554:	01412783          	lw	a5,20(sp)
   17558:	00812703          	lw	a4,8(sp)
   1755c:	0007a783          	lw	a5,0(a5)
   17560:	0017f793          	andi	a5,a5,1
   17564:	00e7e7b3          	or	a5,a5,a4
   17568:	f0079ce3          	bne	a5,zero,17480 <__gdtoa+0x1104>
   1756c:	03900693          	addi	a3,zero,57
   17570:	00098a13          	addi	s4,s3,0
   17574:	03012783          	lw	a5,48(sp)
   17578:	000a8993          	addi	s3,s5,0
   1757c:	000b0713          	addi	a4,s6,0
   17580:	000b8313          	addi	t1,s7,0
   17584:	4eda8863          	beq	s5,a3,17a74 <__gdtoa+0x16f8>
   17588:	229058e3          	bge	zero,s1,17fb8 <__gdtoa+0x1c3c>
   1758c:	031c0993          	addi	s3,s8,49
   17590:	02000d13          	addi	s10,zero,32
   17594:	00090893          	addi	a7,s2,0
   17598:	01370023          	sb	s3,0(a4)
   1759c:	000a0913          	addi	s2,s4,0
   175a0:	00170993          	addi	s3,a4,1
   175a4:	00030593          	addi	a1,t1,0
   175a8:	000d8513          	addi	a0,s11,0
   175ac:	00f12423          	sw	a5,8(sp)
   175b0:	01112023          	sw	a7,0(sp)
   175b4:	791000ef          	jal	ra,18544 <_Bfree>
   175b8:	00012883          	lw	a7,0(sp)
   175bc:	00812783          	lw	a5,8(sp)
   175c0:	20090ce3          	beq	s2,zero,17fd8 <__gdtoa+0x1c5c>
   175c4:	a0088ae3          	beq	a7,zero,16fd8 <__gdtoa+0xc5c>
   175c8:	a12888e3          	beq	a7,s2,16fd8 <__gdtoa+0xc5c>
   175cc:	00088593          	addi	a1,a7,0
   175d0:	000d8513          	addi	a0,s11,0
   175d4:	00f12023          	sw	a5,0(sp)
   175d8:	76d000ef          	jal	ra,18544 <_Bfree>
   175dc:	00012783          	lw	a5,0(sp)
   175e0:	9f9ff06f          	jal	zero,16fd8 <__gdtoa+0xc5c>
   175e4:	00000593          	addi	a1,zero,0
   175e8:	000d8513          	addi	a0,s11,0
   175ec:	00f12023          	sw	a5,0(sp)
   175f0:	755000ef          	jal	ra,18544 <_Bfree>
   175f4:	00812783          	lw	a5,8(sp)
   175f8:	01000d13          	addi	s10,zero,16
   175fc:	40f00c33          	sub	s8,zero,a5
   17600:	00012783          	lw	a5,0(sp)
   17604:	00078993          	addi	s3,a5,0
   17608:	d10ff06f          	jal	zero,16b18 <__gdtoa+0x79c>
   1760c:	75d000ef          	jal	ra,18568 <__multadd>
   17610:	00050913          	addi	s2,a0,0
   17614:	a2050ce3          	beq	a0,zero,1704c <__gdtoa+0xcd0>
   17618:	00050993          	addi	s3,a0,0
   1761c:	f01ff06f          	jal	zero,1751c <__gdtoa+0x11a0>
   17620:	00040593          	addi	a1,s0,0
   17624:	000d8513          	addi	a0,s11,0
   17628:	02f12a23          	sw	a5,52(sp)
   1762c:	02612623          	sw	t1,44(sp)
   17630:	03012023          	sw	a6,32(sp)
   17634:	7f4010ef          	jal	ra,18e28 <__lshift>
   17638:	00050413          	addi	s0,a0,0
   1763c:	a00508e3          	beq	a0,zero,1704c <__gdtoa+0xcd0>
   17640:	08c12703          	lw	a4,140(sp)
   17644:	03412783          	lw	a5,52(sp)
   17648:	02c12303          	lw	t1,44(sp)
   1764c:	02012803          	lw	a6,32(sp)
   17650:	8e5ff06f          	jal	zero,16f34 <__gdtoa+0xbb8>
   17654:	00000a93          	addi	s5,zero,0
   17658:	00500793          	addi	a5,zero,5
   1765c:	00f12023          	sw	a5,0(sp)
   17660:	00100793          	addi	a5,zero,1
   17664:	04f12c23          	sw	a5,88(sp)
   17668:	99cff06f          	jal	zero,16804 <__gdtoa+0x488>
   1766c:	02412703          	lw	a4,36(sp)
   17670:	03c12683          	lw	a3,60(sp)
   17674:	fff70713          	addi	a4,a4,-1
   17678:	2ce6ce63          	blt	a3,a4,17954 <__gdtoa+0x15d8>
   1767c:	40e68a33          	sub	s4,a3,a4
   17680:	02412703          	lw	a4,36(sp)
   17684:	0c0750e3          	bge	a4,zero,17f44 <__gdtoa+0x1bc8>
   17688:	03812703          	lw	a4,56(sp)
   1768c:	02412683          	lw	a3,36(sp)
   17690:	08012623          	sw	zero,140(sp)
   17694:	00070993          	addi	s3,a4,0
   17698:	40d70733          	sub	a4,a4,a3
   1769c:	02e12c23          	sw	a4,56(sp)
   176a0:	f94ff06f          	jal	zero,16e34 <__gdtoa+0xab8>
   176a4:	00050593          	addi	a1,a0,0
   176a8:	00070613          	addi	a2,a4,0
   176ac:	000d8513          	addi	a0,s11,0
   176b0:	610010ef          	jal	ra,18cc0 <__pow5mult>
   176b4:	00050313          	addi	t1,a0,0
   176b8:	98050ae3          	beq	a0,zero,1704c <__gdtoa+0xcd0>
   176bc:	00012783          	lw	a5,0(sp)
   176c0:	03412803          	lw	a6,52(sp)
   176c4:	0027a713          	slti	a4,a5,2
   176c8:	03c12783          	lw	a5,60(sp)
   176cc:	00070663          	beq	a4,zero,176d8 <__gdtoa+0x135c>
   176d0:	fff48493          	addi	s1,s1,-1
   176d4:	02048c63          	beq	s1,zero,1770c <__gdtoa+0x1390>
   176d8:	04012223          	sw	zero,68(sp)
   176dc:	01032703          	lw	a4,16(t1)
   176e0:	02f12a23          	sw	a5,52(sp)
   176e4:	03012623          	sw	a6,44(sp)
   176e8:	00271713          	slli	a4,a4,0x2
   176ec:	00e30733          	add	a4,t1,a4
   176f0:	01072503          	lw	a0,16(a4)
   176f4:	02612023          	sw	t1,32(sp)
   176f8:	108010ef          	jal	ra,18800 <__hi0bits>
   176fc:	03412783          	lw	a5,52(sp)
   17700:	02c12803          	lw	a6,44(sp)
   17704:	02012303          	lw	t1,32(sp)
   17708:	80dff06f          	jal	zero,16f14 <__gdtoa+0xb98>
   1770c:	02c12703          	lw	a4,44(sp)
   17710:	02012683          	lw	a3,32(sp)
   17714:	00472703          	lw	a4,4(a4)
   17718:	00170713          	addi	a4,a4,1
   1771c:	fad75ee3          	bge	a4,a3,176d8 <__gdtoa+0x135c>
   17720:	03012703          	lw	a4,48(sp)
   17724:	00198993          	addi	s3,s3,1
   17728:	00170713          	addi	a4,a4,1
   1772c:	02e12823          	sw	a4,48(sp)
   17730:	00100713          	addi	a4,zero,1
   17734:	04e12223          	sw	a4,68(sp)
   17738:	fa5ff06f          	jal	zero,176dc <__gdtoa+0x1360>
   1773c:	00100793          	addi	a5,zero,1
   17740:	40e787b3          	sub	a5,a5,a4
   17744:	02f12c23          	sw	a5,56(sp)
   17748:	01812783          	lw	a5,24(sp)
   1774c:	04012623          	sw	zero,76(sp)
   17750:	02012e23          	sw	zero,60(sp)
   17754:	02f12823          	sw	a5,48(sp)
   17758:	04f12223          	sw	a5,68(sp)
   1775c:	860ff06f          	jal	zero,167bc <__gdtoa+0x440>
   17760:	03c12703          	lw	a4,60(sp)
   17764:	03812983          	lw	s3,56(sp)
   17768:	c6070ce3          	beq	a4,zero,173e0 <__gdtoa+0x1064>
   1776c:	03c12603          	lw	a2,60(sp)
   17770:	00040593          	addi	a1,s0,0
   17774:	000d8513          	addi	a0,s11,0
   17778:	04f12023          	sw	a5,64(sp)
   1777c:	03012a23          	sw	a6,52(sp)
   17780:	540010ef          	jal	ra,18cc0 <__pow5mult>
   17784:	00050413          	addi	s0,a0,0
   17788:	8c0502e3          	beq	a0,zero,1704c <__gdtoa+0xcd0>
   1778c:	04012783          	lw	a5,64(sp)
   17790:	03412803          	lw	a6,52(sp)
   17794:	03312c23          	sw	s3,56(sp)
   17798:	00000913          	addi	s2,zero,0
   1779c:	f34ff06f          	jal	zero,16ed0 <__gdtoa+0xb54>
   177a0:	00012603          	lw	a2,0(sp)
   177a4:	00100713          	addi	a4,zero,1
   177a8:	ecc742e3          	blt	a4,a2,1766c <__gdtoa+0x12f0>
   177ac:	03012703          	lw	a4,48(sp)
   177b0:	03c12a03          	lw	s4,60(sp)
   177b4:	00d70733          	add	a4,a4,a3
   177b8:	02e12823          	sw	a4,48(sp)
   177bc:	03812703          	lw	a4,56(sp)
   177c0:	00e689b3          	add	s3,a3,a4
   177c4:	e70ff06f          	jal	zero,16e34 <__gdtoa+0xab8>
   177c8:	00030593          	addi	a1,t1,0
   177cc:	00040513          	addi	a0,s0,0
   177d0:	02f12823          	sw	a5,48(sp)
   177d4:	03012623          	sw	a6,44(sp)
   177d8:	02612023          	sw	t1,32(sp)
   177dc:	7d4010ef          	jal	ra,18fb0 <__mcmp>
   177e0:	02012303          	lw	t1,32(sp)
   177e4:	02c12803          	lw	a6,44(sp)
   177e8:	03012783          	lw	a5,48(sp)
   177ec:	f4055e63          	bge	a0,zero,16f48 <__gdtoa+0xbcc>
   177f0:	00040593          	addi	a1,s0,0
   177f4:	00000693          	addi	a3,zero,0
   177f8:	00a00613          	addi	a2,zero,10
   177fc:	000d8513          	addi	a0,s11,0
   17800:	02f12623          	sw	a5,44(sp)
   17804:	02612223          	sw	t1,36(sp)
   17808:	03012023          	sw	a6,32(sp)
   1780c:	55d000ef          	jal	ra,18568 <__multadd>
   17810:	00050413          	addi	s0,a0,0
   17814:	82050ce3          	beq	a0,zero,1704c <__gdtoa+0xcd0>
   17818:	01812783          	lw	a5,24(sp)
   1781c:	05812703          	lw	a4,88(sp)
   17820:	02012803          	lw	a6,32(sp)
   17824:	fff78793          	addi	a5,a5,-1
   17828:	00f12c23          	sw	a5,24(sp)
   1782c:	02412303          	lw	t1,36(sp)
   17830:	02c12783          	lw	a5,44(sp)
   17834:	6c071463          	bne	a4,zero,17efc <__gdtoa+0x1b80>
   17838:	04812703          	lw	a4,72(sp)
   1783c:	00e04e63          	blt	zero,a4,17858 <__gdtoa+0x14dc>
   17840:	00012703          	lw	a4,0(sp)
   17844:	00372713          	slti	a4,a4,3
   17848:	00071863          	bne	a4,zero,17858 <__gdtoa+0x14dc>
   1784c:	04812703          	lw	a4,72(sp)
   17850:	02e12223          	sw	a4,36(sp)
   17854:	f08ff06f          	jal	zero,16f5c <__gdtoa+0xbe0>
   17858:	04812703          	lw	a4,72(sp)
   1785c:	02e12223          	sw	a4,36(sp)
   17860:	00090b13          	addi	s6,s2,0
   17864:	00078493          	addi	s1,a5,0
   17868:	02412903          	lw	s2,36(sp)
   1786c:	00100713          	addi	a4,zero,1
   17870:	00080a93          	addi	s5,a6,0
   17874:	00030a13          	addi	s4,t1,0
   17878:	00078b93          	addi	s7,a5,0
   1787c:	0200006f          	jal	zero,1789c <__gdtoa+0x1520>
   17880:	00040593          	addi	a1,s0,0
   17884:	000d8513          	addi	a0,s11,0
   17888:	4e1000ef          	jal	ra,18568 <__multadd>
   1788c:	00050413          	addi	s0,a0,0
   17890:	fa050e63          	beq	a0,zero,1704c <__gdtoa+0xcd0>
   17894:	08c12703          	lw	a4,140(sp)
   17898:	00170713          	addi	a4,a4,1
   1789c:	000a0593          	addi	a1,s4,0
   178a0:	00040513          	addi	a0,s0,0
   178a4:	08e12623          	sw	a4,140(sp)
   178a8:	099000ef          	jal	ra,18140 <__quorem_D2A>
   178ac:	00148493          	addi	s1,s1,1
   178b0:	03050993          	addi	s3,a0,48
   178b4:	ff348fa3          	sb	s3,-1(s1)
   178b8:	08c12783          	lw	a5,140(sp)
   178bc:	00000693          	addi	a3,zero,0
   178c0:	00a00613          	addi	a2,zero,10
   178c4:	fb27cee3          	blt	a5,s2,17880 <__gdtoa+0x1504>
   178c8:	000a8813          	addi	a6,s5,0
   178cc:	000b0913          	addi	s2,s6,0
   178d0:	000a0313          	addi	t1,s4,0
   178d4:	000b8793          	addi	a5,s7,0
   178d8:	00000893          	addi	a7,zero,0
   178dc:	36080063          	beq	a6,zero,17c3c <__gdtoa+0x18c0>
   178e0:	00200713          	addi	a4,zero,2
   178e4:	3ae80063          	beq	a6,a4,17c84 <__gdtoa+0x1908>
   178e8:	01042683          	lw	a3,16(s0)
   178ec:	00100713          	addi	a4,zero,1
   178f0:	18d74e63          	blt	a4,a3,17a8c <__gdtoa+0x1710>
   178f4:	01442703          	lw	a4,20(s0)
   178f8:	18071a63          	bne	a4,zero,17a8c <__gdtoa+0x1710>
   178fc:	00e03733          	sltu	a4,zero,a4
   17900:	00471d13          	slli	s10,a4,0x4
   17904:	03000613          	addi	a2,zero,48
   17908:	00048993          	addi	s3,s1,0
   1790c:	fff4c703          	lbu	a4,-1(s1)
   17910:	fff48493          	addi	s1,s1,-1
   17914:	fec70ae3          	beq	a4,a2,17908 <__gdtoa+0x158c>
   17918:	c8dff06f          	jal	zero,175a4 <__gdtoa+0x1228>
   1791c:	01412403          	lw	s0,20(sp)
   17920:	02012783          	lw	a5,32(sp)
   17924:	9f4ff06f          	jal	zero,16b18 <__gdtoa+0x79c>
   17928:	00812703          	lw	a4,8(sp)
   1792c:	00078993          	addi	s3,a5,0
   17930:	01000d13          	addi	s10,zero,16
   17934:	fff74713          	xori	a4,a4,-1
   17938:	00e12c23          	sw	a4,24(sp)
   1793c:	e84ff06f          	jal	zero,16fc0 <__gdtoa+0xc44>
   17940:	04012c23          	sw	zero,88(sp)
   17944:	c4cff06f          	jal	zero,16d90 <__gdtoa+0xa14>
   17948:	00100793          	addi	a5,zero,1
   1794c:	04f12c23          	sw	a5,88(sp)
   17950:	c40ff06f          	jal	zero,16d90 <__gdtoa+0xa14>
   17954:	03c12683          	lw	a3,60(sp)
   17958:	04412603          	lw	a2,68(sp)
   1795c:	02e12e23          	sw	a4,60(sp)
   17960:	40d706b3          	sub	a3,a4,a3
   17964:	00d606b3          	add	a3,a2,a3
   17968:	04d12223          	sw	a3,68(sp)
   1796c:	02412683          	lw	a3,36(sp)
   17970:	02412603          	lw	a2,36(sp)
   17974:	03812703          	lw	a4,56(sp)
   17978:	08d12623          	sw	a3,140(sp)
   1797c:	03012683          	lw	a3,48(sp)
   17980:	00c709b3          	add	s3,a4,a2
   17984:	00000a13          	addi	s4,zero,0
   17988:	00c686b3          	add	a3,a3,a2
   1798c:	02d12823          	sw	a3,48(sp)
   17990:	ca4ff06f          	jal	zero,16e34 <__gdtoa+0xab8>
   17994:	00090593          	addi	a1,s2,0
   17998:	000a0613          	addi	a2,s4,0
   1799c:	000d8513          	addi	a0,s11,0
   179a0:	04f12023          	sw	a5,64(sp)
   179a4:	03012a23          	sw	a6,52(sp)
   179a8:	318010ef          	jal	ra,18cc0 <__pow5mult>
   179ac:	00050913          	addi	s2,a0,0
   179b0:	e8050e63          	beq	a0,zero,1704c <__gdtoa+0xcd0>
   179b4:	00050593          	addi	a1,a0,0
   179b8:	00040613          	addi	a2,s0,0
   179bc:	000d8513          	addi	a0,s11,0
   179c0:	0b4010ef          	jal	ra,18a74 <__multiply>
   179c4:	e8050463          	beq	a0,zero,1704c <__gdtoa+0xcd0>
   179c8:	00040593          	addi	a1,s0,0
   179cc:	04a12823          	sw	a0,80(sp)
   179d0:	000d8513          	addi	a0,s11,0
   179d4:	371000ef          	jal	ra,18544 <_Bfree>
   179d8:	03c12703          	lw	a4,60(sp)
   179dc:	05012403          	lw	s0,80(sp)
   179e0:	03412803          	lw	a6,52(sp)
   179e4:	414707b3          	sub	a5,a4,s4
   179e8:	02f12e23          	sw	a5,60(sp)
   179ec:	00078713          	addi	a4,a5,0
   179f0:	04012783          	lw	a5,64(sp)
   179f4:	cc070e63          	beq	a4,zero,16ed0 <__gdtoa+0xb54>
   179f8:	cb0ff06f          	jal	zero,16ea8 <__gdtoa+0xb2c>
   179fc:	02412683          	lw	a3,36(sp)
   17a00:	06012703          	lw	a4,96(sp)
   17a04:	9e068463          	beq	a3,zero,16bec <__gdtoa+0x870>
   17a08:	04812683          	lw	a3,72(sp)
   17a0c:	a6d05a63          	bge	zero,a3,16c80 <__gdtoa+0x904>
   17a10:	00070513          	addi	a0,a4,0
   17a14:	ee01a603          	lw	a2,-288(gp) # b46f0 <__SDATA_BEGIN__+0x38>
   17a18:	ee41a683          	lw	a3,-284(gp) # b46f4 <__SDATA_BEGIN__+0x3c>
   17a1c:	000a0593          	addi	a1,s4,0
   17a20:	06f12023          	sw	a5,96(sp)
   17a24:	041050ef          	jal	ra,1d264 <__muldf3>
   17a28:	ee81a603          	lw	a2,-280(gp) # b46f8 <__SDATA_BEGIN__+0x40>
   17a2c:	eec1a683          	lw	a3,-276(gp) # b46fc <__SDATA_BEGIN__+0x44>
   17a30:	00050a93          	addi	s5,a0,0
   17a34:	00058b13          	addi	s6,a1,0
   17a38:	04a12823          	sw	a0,80(sp)
   17a3c:	00058a13          	addi	s4,a1,0
   17a40:	025050ef          	jal	ra,1d264 <__muldf3>
   17a44:	ef01a603          	lw	a2,-272(gp) # b4700 <__SDATA_BEGIN__+0x48>
   17a48:	ef41a683          	lw	a3,-268(gp) # b4704 <__SDATA_BEGIN__+0x4c>
   17a4c:	7e0040ef          	jal	ra,1c22c <__adddf3>
   17a50:	04812783          	lw	a5,72(sp)
   17a54:	fcc00737          	lui	a4,0xfcc00
   17a58:	00b70333          	add	t1,a4,a1
   17a5c:	04f12023          	sw	a5,64(sp)
   17a60:	fff00793          	addi	a5,zero,-1
   17a64:	06f12623          	sw	a5,108(sp)
   17a68:	00050993          	addi	s3,a0,0
   17a6c:	06012783          	lw	a5,96(sp)
   17a70:	ea5fe06f          	jal	zero,16914 <__gdtoa+0x598>
   17a74:	00170613          	addi	a2,a4,1 # fcc00001 <__BSS_END__+0xfcb4b5ad>
   17a78:	03900693          	addi	a3,zero,57
   17a7c:	00090893          	addi	a7,s2,0
   17a80:	00060493          	addi	s1,a2,0
   17a84:	000a0913          	addi	s2,s4,0
   17a88:	00d70023          	sb	a3,0(a4)
   17a8c:	03900613          	addi	a2,zero,57
   17a90:	0080006f          	jal	zero,17a98 <__gdtoa+0x171c>
   17a94:	18978663          	beq	a5,s1,17c20 <__gdtoa+0x18a4>
   17a98:	fff4c683          	lbu	a3,-1(s1)
   17a9c:	00048993          	addi	s3,s1,0
   17aa0:	fff48493          	addi	s1,s1,-1
   17aa4:	fec688e3          	beq	a3,a2,17a94 <__gdtoa+0x1718>
   17aa8:	00168693          	addi	a3,a3,1
   17aac:	00d48023          	sb	a3,0(s1)
   17ab0:	02000d13          	addi	s10,zero,32
   17ab4:	af1ff06f          	jal	zero,175a4 <__gdtoa+0x1228>
   17ab8:	00090593          	addi	a1,s2,0
   17abc:	000d8513          	addi	a0,s11,0
   17ac0:	02f12623          	sw	a5,44(sp)
   17ac4:	02612023          	sw	t1,32(sp)
   17ac8:	01012423          	sw	a6,8(sp)
   17acc:	35c010ef          	jal	ra,18e28 <__lshift>
   17ad0:	00812803          	lw	a6,8(sp)
   17ad4:	02012303          	lw	t1,32(sp)
   17ad8:	02c12783          	lw	a5,44(sp)
   17adc:	00050913          	addi	s2,a0,0
   17ae0:	90051ee3          	bne	a0,zero,173fc <__gdtoa+0x1080>
   17ae4:	d68ff06f          	jal	zero,1704c <__gdtoa+0xcd0>
   17ae8:	000a0593          	addi	a1,s4,0
   17aec:	995ff06f          	jal	zero,17480 <__gdtoa+0x1104>
   17af0:	06c12703          	lw	a4,108(sp)
   17af4:	03100913          	addi	s2,zero,49
   17af8:	00170713          	addi	a4,a4,1
   17afc:	06e12623          	sw	a4,108(sp)
   17b00:	808ff06f          	jal	zero,16b08 <__gdtoa+0x78c>
   17b04:	03100713          	addi	a4,zero,49
   17b08:	00e78023          	sb	a4,0(a5)
   17b0c:	00000593          	addi	a1,zero,0
   17b10:	000d8513          	addi	a0,s11,0
   17b14:	00178993          	addi	s3,a5,1
   17b18:	00f12023          	sw	a5,0(sp)
   17b1c:	229000ef          	jal	ra,18544 <_Bfree>
   17b20:	00012783          	lw	a5,0(sp)
   17b24:	00200c13          	addi	s8,zero,2
   17b28:	02000d13          	addi	s10,zero,32
   17b2c:	fedfe06f          	jal	zero,16b18 <__gdtoa+0x79c>
   17b30:	00090693          	addi	a3,s2,0
   17b34:	00050613          	addi	a2,a0,0
   17b38:	00f12423          	sw	a5,8(sp)
   17b3c:	6f0040ef          	jal	ra,1c22c <__adddf3>
   17b40:	00012a03          	lw	s4,0(sp)
   17b44:	00412a83          	lw	s5,4(sp)
   17b48:	00050b13          	addi	s6,a0,0
   17b4c:	000a0613          	addi	a2,s4,0
   17b50:	000a8693          	addi	a3,s5,0
   17b54:	00058b93          	addi	s7,a1,0
   17b58:	55c050ef          	jal	ra,1d0b4 <__gedf2>
   17b5c:	fff9c903          	lbu	s2,-1(s3)
   17b60:	00812783          	lw	a5,8(sp)
   17b64:	12a04c63          	blt	zero,a0,17c9c <__gdtoa+0x1920>
   17b68:	000a0613          	addi	a2,s4,0
   17b6c:	000a8693          	addi	a3,s5,0
   17b70:	000b0513          	addi	a0,s6,0
   17b74:	000b8593          	addi	a1,s7,0
   17b78:	00f12023          	sw	a5,0(sp)
   17b7c:	4b4050ef          	jal	ra,1d030 <__eqdf2>
   17b80:	00012783          	lw	a5,0(sp)
   17b84:	00051663          	bne	a0,zero,17b90 <__gdtoa+0x1814>
   17b88:	0014f693          	andi	a3,s1,1
   17b8c:	10069863          	bne	a3,zero,17c9c <__gdtoa+0x1920>
   17b90:	01812703          	lw	a4,24(sp)
   17b94:	00098693          	addi	a3,s3,0
   17b98:	01000d13          	addi	s10,zero,16
   17b9c:	06e12623          	sw	a4,108(sp)
   17ba0:	03000593          	addi	a1,zero,48
   17ba4:	fff6c703          	lbu	a4,-1(a3)
   17ba8:	00068993          	addi	s3,a3,0
   17bac:	fff68693          	addi	a3,a3,-1
   17bb0:	feb70ae3          	beq	a4,a1,17ba4 <__gdtoa+0x1828>
   17bb4:	06c12703          	lw	a4,108(sp)
   17bb8:	00170c13          	addi	s8,a4,1
   17bbc:	f5dfe06f          	jal	zero,16b18 <__gdtoa+0x79c>
   17bc0:	00492583          	lw	a1,4(s2)
   17bc4:	000d8513          	addi	a0,s11,0
   17bc8:	02f12623          	sw	a5,44(sp)
   17bcc:	02612023          	sw	t1,32(sp)
   17bd0:	01012423          	sw	a6,8(sp)
   17bd4:	0c5000ef          	jal	ra,18498 <_Balloc>
   17bd8:	00050493          	addi	s1,a0,0
   17bdc:	c6050863          	beq	a0,zero,1704c <__gdtoa+0xcd0>
   17be0:	01092603          	lw	a2,16(s2)
   17be4:	00c90593          	addi	a1,s2,12
   17be8:	00c50513          	addi	a0,a0,12
   17bec:	00260613          	addi	a2,a2,2
   17bf0:	00261613          	slli	a2,a2,0x2
   17bf4:	83cfe0ef          	jal	ra,15c30 <memcpy>
   17bf8:	00048593          	addi	a1,s1,0
   17bfc:	000d8513          	addi	a0,s11,0
   17c00:	00100613          	addi	a2,zero,1
   17c04:	224010ef          	jal	ra,18e28 <__lshift>
   17c08:	00812803          	lw	a6,8(sp)
   17c0c:	02012303          	lw	t1,32(sp)
   17c10:	02c12783          	lw	a5,44(sp)
   17c14:	00050a13          	addi	s4,a0,0
   17c18:	fe051863          	bne	a0,zero,17408 <__gdtoa+0x108c>
   17c1c:	c30ff06f          	jal	zero,1704c <__gdtoa+0xcd0>
   17c20:	01812703          	lw	a4,24(sp)
   17c24:	03100693          	addi	a3,zero,49
   17c28:	00d78023          	sb	a3,0(a5)
   17c2c:	00170713          	addi	a4,a4,1
   17c30:	00e12c23          	sw	a4,24(sp)
   17c34:	02000d13          	addi	s10,zero,32
   17c38:	96dff06f          	jal	zero,175a4 <__gdtoa+0x1228>
   17c3c:	00040593          	addi	a1,s0,0
   17c40:	00100613          	addi	a2,zero,1
   17c44:	000d8513          	addi	a0,s11,0
   17c48:	00f12a23          	sw	a5,20(sp)
   17c4c:	00612023          	sw	t1,0(sp)
   17c50:	01112423          	sw	a7,8(sp)
   17c54:	1d4010ef          	jal	ra,18e28 <__lshift>
   17c58:	00050413          	addi	s0,a0,0
   17c5c:	be050863          	beq	a0,zero,1704c <__gdtoa+0xcd0>
   17c60:	00012583          	lw	a1,0(sp)
   17c64:	34c010ef          	jal	ra,18fb0 <__mcmp>
   17c68:	00012303          	lw	t1,0(sp)
   17c6c:	00812883          	lw	a7,8(sp)
   17c70:	01412783          	lw	a5,20(sp)
   17c74:	e0a04ce3          	blt	zero,a0,17a8c <__gdtoa+0x1710>
   17c78:	00051663          	bne	a0,zero,17c84 <__gdtoa+0x1908>
   17c7c:	0019f993          	andi	s3,s3,1
   17c80:	e00996e3          	bne	s3,zero,17a8c <__gdtoa+0x1710>
   17c84:	01042683          	lw	a3,16(s0)
   17c88:	00100713          	addi	a4,zero,1
   17c8c:	01000d13          	addi	s10,zero,16
   17c90:	c6d74ae3          	blt	a4,a3,17904 <__gdtoa+0x1588>
   17c94:	01442703          	lw	a4,20(s0)
   17c98:	c65ff06f          	jal	zero,178fc <__gdtoa+0x1580>
   17c9c:	01812703          	lw	a4,24(sp)
   17ca0:	06e12623          	sw	a4,108(sp)
   17ca4:	e41fe06f          	jal	zero,16ae4 <__gdtoa+0x768>
   17ca8:	07012783          	lw	a5,112(sp)
   17cac:	00040a13          	addi	s4,s0,0
   17cb0:	000c0413          	addi	s0,s8,0
   17cb4:	00000693          	addi	a3,zero,0
   17cb8:	000a0513          	addi	a0,s4,0
   17cbc:	000b8593          	addi	a1,s7,0
   17cc0:	00000613          	addi	a2,zero,0
   17cc4:	00f12023          	sw	a5,0(sp)
   17cc8:	368050ef          	jal	ra,1d030 <__eqdf2>
   17ccc:	06c12783          	lw	a5,108(sp)
   17cd0:	00a036b3          	sltu	a3,zero,a0
   17cd4:	00469d13          	slli	s10,a3,0x4
   17cd8:	00178c13          	addi	s8,a5,1
   17cdc:	00012783          	lw	a5,0(sp)
   17ce0:	e39fe06f          	jal	zero,16b18 <__gdtoa+0x79c>
   17ce4:	00812803          	lw	a6,8(sp)
   17ce8:	00098a13          	addi	s4,s3,0
   17cec:	03012783          	lw	a5,48(sp)
   17cf0:	000a8993          	addi	s3,s5,0
   17cf4:	000b0713          	addi	a4,s6,0
   17cf8:	000b8313          	addi	t1,s7,0
   17cfc:	14080c63          	beq	a6,zero,17e54 <__gdtoa+0x1ad8>
   17d00:	01042603          	lw	a2,16(s0)
   17d04:	00100693          	addi	a3,zero,1
   17d08:	24c6de63          	bge	a3,a2,17f64 <__gdtoa+0x1be8>
   17d0c:	00200693          	addi	a3,zero,2
   17d10:	26d80263          	beq	a6,a3,17f74 <__gdtoa+0x1bf8>
   17d14:	00090b13          	addi	s6,s2,0
   17d18:	000a0493          	addi	s1,s4,0
   17d1c:	00070913          	addi	s2,a4,0
   17d20:	00030a93          	addi	s5,t1,0
   17d24:	00078b93          	addi	s7,a5,0
   17d28:	0240006f          	jal	zero,17d4c <__gdtoa+0x19d0>
   17d2c:	03d000ef          	jal	ra,18568 <__multadd>
   17d30:	000a8593          	addi	a1,s5,0
   17d34:	00050413          	addi	s0,a0,0
   17d38:	00190913          	addi	s2,s2,1
   17d3c:	b0050863          	beq	a0,zero,1704c <__gdtoa+0xcd0>
   17d40:	400000ef          	jal	ra,18140 <__quorem_D2A>
   17d44:	00098493          	addi	s1,s3,0
   17d48:	03050993          	addi	s3,a0,48
   17d4c:	00048593          	addi	a1,s1,0
   17d50:	000a8513          	addi	a0,s5,0
   17d54:	25c010ef          	jal	ra,18fb0 <__mcmp>
   17d58:	00000693          	addi	a3,zero,0
   17d5c:	00a00613          	addi	a2,zero,10
   17d60:	20a05e63          	bge	zero,a0,17f7c <__gdtoa+0x1c00>
   17d64:	01390023          	sb	s3,0(s2)
   17d68:	00048593          	addi	a1,s1,0
   17d6c:	000d8513          	addi	a0,s11,0
   17d70:	7f8000ef          	jal	ra,18568 <__multadd>
   17d74:	00050993          	addi	s3,a0,0
   17d78:	00000693          	addi	a3,zero,0
   17d7c:	00a00613          	addi	a2,zero,10
   17d80:	00040593          	addi	a1,s0,0
   17d84:	000d8513          	addi	a0,s11,0
   17d88:	ac098263          	beq	s3,zero,1704c <__gdtoa+0xcd0>
   17d8c:	fa9b10e3          	bne	s6,s1,17d2c <__gdtoa+0x19b0>
   17d90:	00098b13          	addi	s6,s3,0
   17d94:	f99ff06f          	jal	zero,17d2c <__gdtoa+0x19b0>
   17d98:	05c12703          	lw	a4,92(sp)
   17d9c:	07812903          	lw	s2,120(sp)
   17da0:	07c12483          	lw	s1,124(sp)
   17da4:	04e12823          	sw	a4,80(sp)
   17da8:	03412703          	lw	a4,52(sp)
   17dac:	07012783          	lw	a5,112(sp)
   17db0:	07412883          	lw	a7,116(sp)
   17db4:	06812a03          	lw	s4,104(sp)
   17db8:	000c0413          	addi	s0,s8,0
   17dbc:	00000813          	addi	a6,zero,0
   17dc0:	00074463          	blt	a4,zero,17dc8 <__gdtoa+0x1a4c>
   17dc4:	ee9fe06f          	jal	zero,16cac <__gdtoa+0x930>
   17dc8:	ff1fe06f          	jal	zero,16db8 <__gdtoa+0xa3c>
   17dcc:	00000613          	addi	a2,zero,0
   17dd0:	00000693          	addi	a3,zero,0
   17dd4:	00088513          	addi	a0,a7,0
   17dd8:	000e8593          	addi	a1,t4,0
   17ddc:	00f12023          	sw	a5,0(sp)
   17de0:	250050ef          	jal	ra,1d030 <__eqdf2>
   17de4:	00a03633          	sltu	a2,zero,a0
   17de8:	00012783          	lw	a5,0(sp)
   17dec:	00098693          	addi	a3,s3,0
   17df0:	00461d13          	slli	s10,a2,0x4
   17df4:	dadff06f          	jal	zero,17ba0 <__gdtoa+0x1824>
   17df8:	00098713          	addi	a4,s3,0
   17dfc:	00090893          	addi	a7,s2,0
   17e00:	00812803          	lw	a6,8(sp)
   17e04:	03012783          	lw	a5,48(sp)
   17e08:	000a8993          	addi	s3,s5,0
   17e0c:	00068493          	addi	s1,a3,0
   17e10:	000b8313          	addi	t1,s7,0
   17e14:	00070913          	addi	s2,a4,0
   17e18:	ac5ff06f          	jal	zero,178dc <__gdtoa+0x1560>
   17e1c:	03900693          	addi	a3,zero,57
   17e20:	03012783          	lw	a5,48(sp)
   17e24:	00098a13          	addi	s4,s3,0
   17e28:	000b0713          	addi	a4,s6,0
   17e2c:	000b8313          	addi	t1,s7,0
   17e30:	00048613          	addi	a2,s1,0
   17e34:	c4da82e3          	beq	s5,a3,17a78 <__gdtoa+0x16fc>
   17e38:	001a8993          	addi	s3,s5,1
   17e3c:	013b0023          	sb	s3,0(s6)
   17e40:	00090893          	addi	a7,s2,0
   17e44:	00048993          	addi	s3,s1,0
   17e48:	000a0913          	addi	s2,s4,0
   17e4c:	02000d13          	addi	s10,zero,32
   17e50:	f54ff06f          	jal	zero,175a4 <__gdtoa+0x1228>
   17e54:	04b05863          	bge	zero,a1,17ea4 <__gdtoa+0x1b28>
   17e58:	00040593          	addi	a1,s0,0
   17e5c:	00100613          	addi	a2,zero,1
   17e60:	000d8513          	addi	a0,s11,0
   17e64:	00f12a23          	sw	a5,20(sp)
   17e68:	00612023          	sw	t1,0(sp)
   17e6c:	00e12423          	sw	a4,8(sp)
   17e70:	7b9000ef          	jal	ra,18e28 <__lshift>
   17e74:	00050413          	addi	s0,a0,0
   17e78:	9c050a63          	beq	a0,zero,1704c <__gdtoa+0xcd0>
   17e7c:	00012583          	lw	a1,0(sp)
   17e80:	130010ef          	jal	ra,18fb0 <__mcmp>
   17e84:	00012303          	lw	t1,0(sp)
   17e88:	00812703          	lw	a4,8(sp)
   17e8c:	01412783          	lw	a5,20(sp)
   17e90:	10a05a63          	bge	zero,a0,17fa4 <__gdtoa+0x1c28>
   17e94:	03900693          	addi	a3,zero,57
   17e98:	bcd98ee3          	beq	s3,a3,17a74 <__gdtoa+0x16f8>
   17e9c:	031c0993          	addi	s3,s8,49
   17ea0:	02000813          	addi	a6,zero,32
   17ea4:	01042603          	lw	a2,16(s0)
   17ea8:	00100693          	addi	a3,zero,1
   17eac:	01000d13          	addi	s10,zero,16
   17eb0:	eec6c263          	blt	a3,a2,17594 <__gdtoa+0x1218>
   17eb4:	01442683          	lw	a3,20(s0)
   17eb8:	ec069e63          	bne	a3,zero,17594 <__gdtoa+0x1218>
   17ebc:	00080d13          	addi	s10,a6,0
   17ec0:	ed4ff06f          	jal	zero,17594 <__gdtoa+0x1218>
   17ec4:	02412703          	lw	a4,36(sp)
   17ec8:	03c12683          	lw	a3,60(sp)
   17ecc:	fff70713          	addi	a4,a4,-1
   17ed0:	a8e6c2e3          	blt	a3,a4,17954 <__gdtoa+0x15d8>
   17ed4:	02412603          	lw	a2,36(sp)
   17ed8:	03012683          	lw	a3,48(sp)
   17edc:	08c12623          	sw	a2,140(sp)
   17ee0:	00c686b3          	add	a3,a3,a2
   17ee4:	02d12823          	sw	a3,48(sp)
   17ee8:	03c12683          	lw	a3,60(sp)
   17eec:	40e68a33          	sub	s4,a3,a4
   17ef0:	03812703          	lw	a4,56(sp)
   17ef4:	00c709b3          	add	s3,a4,a2
   17ef8:	f3dfe06f          	jal	zero,16e34 <__gdtoa+0xab8>
   17efc:	00090593          	addi	a1,s2,0
   17f00:	00000693          	addi	a3,zero,0
   17f04:	00a00613          	addi	a2,zero,10
   17f08:	000d8513          	addi	a0,s11,0
   17f0c:	65c000ef          	jal	ra,18568 <__multadd>
   17f10:	00050913          	addi	s2,a0,0
   17f14:	92050c63          	beq	a0,zero,1704c <__gdtoa+0xcd0>
   17f18:	04812703          	lw	a4,72(sp)
   17f1c:	02012803          	lw	a6,32(sp)
   17f20:	02412303          	lw	t1,36(sp)
   17f24:	02c12783          	lw	a5,44(sp)
   17f28:	00e04863          	blt	zero,a4,17f38 <__gdtoa+0x1bbc>
   17f2c:	00012703          	lw	a4,0(sp)
   17f30:	00372713          	slti	a4,a4,3
   17f34:	90070ce3          	beq	a4,zero,1784c <__gdtoa+0x14d0>
   17f38:	04812703          	lw	a4,72(sp)
   17f3c:	02e12223          	sw	a4,36(sp)
   17f40:	cb0ff06f          	jal	zero,173f0 <__gdtoa+0x1074>
   17f44:	02412683          	lw	a3,36(sp)
   17f48:	08e12623          	sw	a4,140(sp)
   17f4c:	03012703          	lw	a4,48(sp)
   17f50:	00d70733          	add	a4,a4,a3
   17f54:	02e12823          	sw	a4,48(sp)
   17f58:	03812703          	lw	a4,56(sp)
   17f5c:	00d709b3          	add	s3,a4,a3
   17f60:	ed5fe06f          	jal	zero,16e34 <__gdtoa+0xab8>
   17f64:	01442683          	lw	a3,20(s0)
   17f68:	da0692e3          	bne	a3,zero,17d0c <__gdtoa+0x1990>
   17f6c:	eeb046e3          	blt	zero,a1,17e58 <__gdtoa+0x1adc>
   17f70:	e24ff06f          	jal	zero,17594 <__gdtoa+0x1218>
   17f74:	01000d13          	addi	s10,zero,16
   17f78:	e1cff06f          	jal	zero,17594 <__gdtoa+0x1218>
   17f7c:	03900693          	addi	a3,zero,57
   17f80:	00090713          	addi	a4,s2,0
   17f84:	00048a13          	addi	s4,s1,0
   17f88:	000b0913          	addi	s2,s6,0
   17f8c:	000a8313          	addi	t1,s5,0
   17f90:	000b8793          	addi	a5,s7,0
   17f94:	aed980e3          	beq	s3,a3,17a74 <__gdtoa+0x16f8>
   17f98:	00198993          	addi	s3,s3,1
   17f9c:	02000d13          	addi	s10,zero,32
   17fa0:	df4ff06f          	jal	zero,17594 <__gdtoa+0x1218>
   17fa4:	00051663          	bne	a0,zero,17fb0 <__gdtoa+0x1c34>
   17fa8:	0019f693          	andi	a3,s3,1
   17fac:	ee0694e3          	bne	a3,zero,17e94 <__gdtoa+0x1b18>
   17fb0:	02000813          	addi	a6,zero,32
   17fb4:	ef1ff06f          	jal	zero,17ea4 <__gdtoa+0x1b28>
   17fb8:	01042603          	lw	a2,16(s0)
   17fbc:	00100693          	addi	a3,zero,1
   17fc0:	01000d13          	addi	s10,zero,16
   17fc4:	dcc6c863          	blt	a3,a2,17594 <__gdtoa+0x1218>
   17fc8:	01442683          	lw	a3,20(s0)
   17fcc:	00d036b3          	sltu	a3,zero,a3
   17fd0:	00469d13          	slli	s10,a3,0x4
   17fd4:	dc0ff06f          	jal	zero,17594 <__gdtoa+0x1218>
   17fd8:	01812703          	lw	a4,24(sp)
   17fdc:	00170c13          	addi	s8,a4,1
   17fe0:	b39fe06f          	jal	zero,16b18 <__gdtoa+0x79c>

00017fe4 <__rv_alloc_D2A.part.0>:
   17fe4:	000216b7          	lui	a3,0x21
   17fe8:	00021537          	lui	a0,0x21
   17fec:	ff010113          	addi	sp,sp,-16
   17ff0:	c2468693          	addi	a3,a3,-988 # 20c24 <__clzsi2+0xe8>
   17ff4:	c3850513          	addi	a0,a0,-968 # 20c38 <__clzsi2+0xfc>
   17ff8:	00000613          	addi	a2,zero,0
   17ffc:	03900593          	addi	a1,zero,57
   18000:	00112623          	sw	ra,12(sp)
   18004:	2f0020ef          	jal	ra,1a2f4 <__assert_func>

00018008 <__rv_alloc_D2A>:
   18008:	ff010113          	addi	sp,sp,-16
   1800c:	00812423          	sw	s0,8(sp)
   18010:	00112623          	sw	ra,12(sp)
   18014:	01700693          	addi	a3,zero,23
   18018:	00050413          	addi	s0,a0,0
   1801c:	00100713          	addi	a4,zero,1
   18020:	00400793          	addi	a5,zero,4
   18024:	04b6f063          	bgeu	a3,a1,18064 <__rv_alloc_D2A+0x5c>
   18028:	00179793          	slli	a5,a5,0x1
   1802c:	01478693          	addi	a3,a5,20
   18030:	00070613          	addi	a2,a4,0
   18034:	00170713          	addi	a4,a4,1
   18038:	fed5f8e3          	bgeu	a1,a3,18028 <__rv_alloc_D2A+0x20>
   1803c:	00060593          	addi	a1,a2,0
   18040:	02c42e23          	sw	a2,60(s0)
   18044:	00040513          	addi	a0,s0,0
   18048:	450000ef          	jal	ra,18498 <_Balloc>
   1804c:	02050263          	beq	a0,zero,18070 <__rv_alloc_D2A+0x68>
   18050:	00c12083          	lw	ra,12(sp)
   18054:	02a42c23          	sw	a0,56(s0)
   18058:	00812403          	lw	s0,8(sp)
   1805c:	01010113          	addi	sp,sp,16
   18060:	00008067          	jalr	zero,0(ra)
   18064:	02052e23          	sw	zero,60(a0)
   18068:	00000593          	addi	a1,zero,0
   1806c:	fd9ff06f          	jal	zero,18044 <__rv_alloc_D2A+0x3c>
   18070:	f75ff0ef          	jal	ra,17fe4 <__rv_alloc_D2A.part.0>

00018074 <__nrv_alloc_D2A>:
   18074:	fe010113          	addi	sp,sp,-32
   18078:	00812c23          	sw	s0,24(sp)
   1807c:	00912a23          	sw	s1,20(sp)
   18080:	00112e23          	sw	ra,28(sp)
   18084:	01700813          	addi	a6,zero,23
   18088:	00050493          	addi	s1,a0,0
   1808c:	00058413          	addi	s0,a1,0
   18090:	00100713          	addi	a4,zero,1
   18094:	00400793          	addi	a5,zero,4
   18098:	06d87c63          	bgeu	a6,a3,18110 <__nrv_alloc_D2A+0x9c>
   1809c:	00179793          	slli	a5,a5,0x1
   180a0:	01478513          	addi	a0,a5,20
   180a4:	00070593          	addi	a1,a4,0
   180a8:	00170713          	addi	a4,a4,1
   180ac:	fea6f8e3          	bgeu	a3,a0,1809c <__nrv_alloc_D2A+0x28>
   180b0:	02b4ae23          	sw	a1,60(s1)
   180b4:	00048513          	addi	a0,s1,0
   180b8:	00c12623          	sw	a2,12(sp)
   180bc:	3dc000ef          	jal	ra,18498 <_Balloc>
   180c0:	00c12603          	lw	a2,12(sp)
   180c4:	06050063          	beq	a0,zero,18124 <__nrv_alloc_D2A+0xb0>
   180c8:	02a4ac23          	sw	a0,56(s1)
   180cc:	00044783          	lbu	a5,0(s0)
   180d0:	00f50023          	sb	a5,0(a0)
   180d4:	04078463          	beq	a5,zero,1811c <__nrv_alloc_D2A+0xa8>
   180d8:	00140593          	addi	a1,s0,1
   180dc:	00050793          	addi	a5,a0,0
   180e0:	0005c703          	lbu	a4,0(a1)
   180e4:	00158593          	addi	a1,a1,1
   180e8:	00178793          	addi	a5,a5,1
   180ec:	00e78023          	sb	a4,0(a5)
   180f0:	fe0718e3          	bne	a4,zero,180e0 <__nrv_alloc_D2A+0x6c>
   180f4:	00060463          	beq	a2,zero,180fc <__nrv_alloc_D2A+0x88>
   180f8:	00f62023          	sw	a5,0(a2)
   180fc:	01c12083          	lw	ra,28(sp)
   18100:	01812403          	lw	s0,24(sp)
   18104:	01412483          	lw	s1,20(sp)
   18108:	02010113          	addi	sp,sp,32
   1810c:	00008067          	jalr	zero,0(ra)
   18110:	02052e23          	sw	zero,60(a0)
   18114:	00000593          	addi	a1,zero,0
   18118:	f9dff06f          	jal	zero,180b4 <__nrv_alloc_D2A+0x40>
   1811c:	00050793          	addi	a5,a0,0
   18120:	fd5ff06f          	jal	zero,180f4 <__nrv_alloc_D2A+0x80>
   18124:	ec1ff0ef          	jal	ra,17fe4 <__rv_alloc_D2A.part.0>

00018128 <__freedtoa>:
   18128:	03c52703          	lw	a4,60(a0)
   1812c:	00100793          	addi	a5,zero,1
   18130:	00e797b3          	sll	a5,a5,a4
   18134:	00f5a423          	sw	a5,8(a1)
   18138:	00e5a223          	sw	a4,4(a1)
   1813c:	4080006f          	jal	zero,18544 <_Bfree>

00018140 <__quorem_D2A>:
   18140:	0105a803          	lw	a6,16(a1)
   18144:	01052783          	lw	a5,16(a0)
   18148:	1f07c863          	blt	a5,a6,18338 <__quorem_D2A+0x1f8>
   1814c:	fff80813          	addi	a6,a6,-1
   18150:	00281293          	slli	t0,a6,0x2
   18154:	01458613          	addi	a2,a1,20
   18158:	00560333          	add	t1,a2,t0
   1815c:	01450e13          	addi	t3,a0,20
   18160:	00032783          	lw	a5,0(t1)
   18164:	005e02b3          	add	t0,t3,t0
   18168:	0002a703          	lw	a4,0(t0)
   1816c:	fd010113          	addi	sp,sp,-48
   18170:	00178793          	addi	a5,a5,1
   18174:	02112623          	sw	ra,44(sp)
   18178:	02812423          	sw	s0,40(sp)
   1817c:	02f758b3          	divu	a7,a4,a5
   18180:	0cf76863          	bltu	a4,a5,18250 <__quorem_D2A+0x110>
   18184:	02912223          	sw	s1,36(sp)
   18188:	00060f93          	addi	t6,a2,0
   1818c:	000e0f13          	addi	t5,t3,0
   18190:	00000493          	addi	s1,zero,0
   18194:	00000413          	addi	s0,zero,0
   18198:	000fa783          	lw	a5,0(t6)
   1819c:	000f2e83          	lw	t4,0(t5)
   181a0:	004f0f13          	addi	t5,t5,4
   181a4:	01079693          	slli	a3,a5,0x10
   181a8:	0106d693          	srli	a3,a3,0x10
   181ac:	0107d793          	srli	a5,a5,0x10
   181b0:	010e9713          	slli	a4,t4,0x10
   181b4:	010ed393          	srli	t2,t4,0x10
   181b8:	01075713          	srli	a4,a4,0x10
   181bc:	004f8f93          	addi	t6,t6,4
   181c0:	031686b3          	mul	a3,a3,a7
   181c4:	031787b3          	mul	a5,a5,a7
   181c8:	009686b3          	add	a3,a3,s1
   181cc:	01069e93          	slli	t4,a3,0x10
   181d0:	010ede93          	srli	t4,t4,0x10
   181d4:	0106d693          	srli	a3,a3,0x10
   181d8:	41d70733          	sub	a4,a4,t4
   181dc:	40870733          	sub	a4,a4,s0
   181e0:	01075e93          	srli	t4,a4,0x10
   181e4:	001efe93          	andi	t4,t4,1
   181e8:	01071713          	slli	a4,a4,0x10
   181ec:	00d787b3          	add	a5,a5,a3
   181f0:	01079693          	slli	a3,a5,0x10
   181f4:	0106d693          	srli	a3,a3,0x10
   181f8:	00de86b3          	add	a3,t4,a3
   181fc:	0107d493          	srli	s1,a5,0x10
   18200:	40d387b3          	sub	a5,t2,a3
   18204:	01079693          	slli	a3,a5,0x10
   18208:	01075713          	srli	a4,a4,0x10
   1820c:	00e6e733          	or	a4,a3,a4
   18210:	0107d793          	srli	a5,a5,0x10
   18214:	feef2e23          	sw	a4,-4(t5)
   18218:	0017f413          	andi	s0,a5,1
   1821c:	f7f37ee3          	bgeu	t1,t6,18198 <__quorem_D2A+0x58>
   18220:	0002a783          	lw	a5,0(t0)
   18224:	10079e63          	bne	a5,zero,18340 <__quorem_D2A+0x200>
   18228:	ffc28293          	addi	t0,t0,-4
   1822c:	005e6863          	bltu	t3,t0,1823c <__quorem_D2A+0xfc>
   18230:	0180006f          	jal	zero,18248 <__quorem_D2A+0x108>
   18234:	fff80813          	addi	a6,a6,-1
   18238:	005e7863          	bgeu	t3,t0,18248 <__quorem_D2A+0x108>
   1823c:	0002a783          	lw	a5,0(t0)
   18240:	ffc28293          	addi	t0,t0,-4
   18244:	fe0788e3          	beq	a5,zero,18234 <__quorem_D2A+0xf4>
   18248:	02412483          	lw	s1,36(sp)
   1824c:	01052823          	sw	a6,16(a0)
   18250:	01112623          	sw	a7,12(sp)
   18254:	01c12e23          	sw	t3,28(sp)
   18258:	00612c23          	sw	t1,24(sp)
   1825c:	00c12a23          	sw	a2,20(sp)
   18260:	01012823          	sw	a6,16(sp)
   18264:	00050413          	addi	s0,a0,0
   18268:	549000ef          	jal	ra,18fb0 <__mcmp>
   1826c:	00c12883          	lw	a7,12(sp)
   18270:	0a054a63          	blt	a0,zero,18324 <__quorem_D2A+0x1e4>
   18274:	01c12e03          	lw	t3,28(sp)
   18278:	01812303          	lw	t1,24(sp)
   1827c:	01412603          	lw	a2,20(sp)
   18280:	01012803          	lw	a6,16(sp)
   18284:	00188893          	addi	a7,a7,1
   18288:	000e0513          	addi	a0,t3,0
   1828c:	00000e93          	addi	t4,zero,0
   18290:	00052783          	lw	a5,0(a0)
   18294:	00062683          	lw	a3,0(a2)
   18298:	00450513          	addi	a0,a0,4
   1829c:	01079713          	slli	a4,a5,0x10
   182a0:	01069f13          	slli	t5,a3,0x10
   182a4:	010f5f13          	srli	t5,t5,0x10
   182a8:	01075713          	srli	a4,a4,0x10
   182ac:	41e70733          	sub	a4,a4,t5
   182b0:	41d70733          	sub	a4,a4,t4
   182b4:	0106d593          	srli	a1,a3,0x10
   182b8:	01075693          	srli	a3,a4,0x10
   182bc:	0016f693          	andi	a3,a3,1
   182c0:	00b686b3          	add	a3,a3,a1
   182c4:	0107d793          	srli	a5,a5,0x10
   182c8:	40d787b3          	sub	a5,a5,a3
   182cc:	01071713          	slli	a4,a4,0x10
   182d0:	01079693          	slli	a3,a5,0x10
   182d4:	01075713          	srli	a4,a4,0x10
   182d8:	00e6e733          	or	a4,a3,a4
   182dc:	00460613          	addi	a2,a2,4
   182e0:	0107d793          	srli	a5,a5,0x10
   182e4:	fee52e23          	sw	a4,-4(a0)
   182e8:	0017fe93          	andi	t4,a5,1
   182ec:	fac372e3          	bgeu	t1,a2,18290 <__quorem_D2A+0x150>
   182f0:	00281793          	slli	a5,a6,0x2
   182f4:	00fe07b3          	add	a5,t3,a5
   182f8:	0007a703          	lw	a4,0(a5)
   182fc:	02071463          	bne	a4,zero,18324 <__quorem_D2A+0x1e4>
   18300:	ffc78793          	addi	a5,a5,-4
   18304:	00fe6863          	bltu	t3,a5,18314 <__quorem_D2A+0x1d4>
   18308:	0180006f          	jal	zero,18320 <__quorem_D2A+0x1e0>
   1830c:	fff80813          	addi	a6,a6,-1
   18310:	00fe7863          	bgeu	t3,a5,18320 <__quorem_D2A+0x1e0>
   18314:	0007a703          	lw	a4,0(a5)
   18318:	ffc78793          	addi	a5,a5,-4
   1831c:	fe0708e3          	beq	a4,zero,1830c <__quorem_D2A+0x1cc>
   18320:	01042823          	sw	a6,16(s0)
   18324:	02c12083          	lw	ra,44(sp)
   18328:	02812403          	lw	s0,40(sp)
   1832c:	00088513          	addi	a0,a7,0
   18330:	03010113          	addi	sp,sp,48
   18334:	00008067          	jalr	zero,0(ra)
   18338:	00000513          	addi	a0,zero,0
   1833c:	00008067          	jalr	zero,0(ra)
   18340:	02412483          	lw	s1,36(sp)
   18344:	f0dff06f          	jal	zero,18250 <__quorem_D2A+0x110>

00018348 <__rshift_D2A>:
   18348:	01052803          	lw	a6,16(a0)
   1834c:	4055de13          	srai	t3,a1,0x5
   18350:	010e4863          	blt	t3,a6,18360 <__rshift_D2A+0x18>
   18354:	00052823          	sw	zero,16(a0)
   18358:	00052a23          	sw	zero,20(a0)
   1835c:	00008067          	jalr	zero,0(ra)
   18360:	01450313          	addi	t1,a0,20
   18364:	00281613          	slli	a2,a6,0x2
   18368:	002e1793          	slli	a5,t3,0x2
   1836c:	01f5f593          	andi	a1,a1,31
   18370:	00c30633          	add	a2,t1,a2
   18374:	00f307b3          	add	a5,t1,a5
   18378:	06058263          	beq	a1,zero,183dc <__rshift_D2A+0x94>
   1837c:	0007a683          	lw	a3,0(a5)
   18380:	00478793          	addi	a5,a5,4
   18384:	00b6d6b3          	srl	a3,a3,a1
   18388:	08c7f863          	bgeu	a5,a2,18418 <__rshift_D2A+0xd0>
   1838c:	02000e93          	addi	t4,zero,32
   18390:	40be8eb3          	sub	t4,t4,a1
   18394:	00030893          	addi	a7,t1,0
   18398:	0007a703          	lw	a4,0(a5)
   1839c:	00488893          	addi	a7,a7,4
   183a0:	00478793          	addi	a5,a5,4
   183a4:	01d71733          	sll	a4,a4,t4
   183a8:	00d76733          	or	a4,a4,a3
   183ac:	fee8ae23          	sw	a4,-4(a7)
   183b0:	ffc7a683          	lw	a3,-4(a5)
   183b4:	00b6d6b3          	srl	a3,a3,a1
   183b8:	fec7e0e3          	bltu	a5,a2,18398 <__rshift_D2A+0x50>
   183bc:	41c80833          	sub	a6,a6,t3
   183c0:	00281813          	slli	a6,a6,0x2
   183c4:	01030833          	add	a6,t1,a6
   183c8:	fed82e23          	sw	a3,-4(a6)
   183cc:	ffc80813          	addi	a6,a6,-4
   183d0:	02068a63          	beq	a3,zero,18404 <__rshift_D2A+0xbc>
   183d4:	00480813          	addi	a6,a6,4
   183d8:	02c0006f          	jal	zero,18404 <__rshift_D2A+0xbc>
   183dc:	00030713          	addi	a4,t1,0
   183e0:	f6c7fae3          	bgeu	a5,a2,18354 <__rshift_D2A+0xc>
   183e4:	0007a683          	lw	a3,0(a5)
   183e8:	00478793          	addi	a5,a5,4
   183ec:	00470713          	addi	a4,a4,4
   183f0:	fed72e23          	sw	a3,-4(a4)
   183f4:	fec7e8e3          	bltu	a5,a2,183e4 <__rshift_D2A+0x9c>
   183f8:	41c80833          	sub	a6,a6,t3
   183fc:	00281813          	slli	a6,a6,0x2
   18400:	01030833          	add	a6,t1,a6
   18404:	406807b3          	sub	a5,a6,t1
   18408:	4027d793          	srai	a5,a5,0x2
   1840c:	00f52823          	sw	a5,16(a0)
   18410:	f46804e3          	beq	a6,t1,18358 <__rshift_D2A+0x10>
   18414:	00008067          	jalr	zero,0(ra)
   18418:	00d52a23          	sw	a3,20(a0)
   1841c:	f2068ce3          	beq	a3,zero,18354 <__rshift_D2A+0xc>
   18420:	00030813          	addi	a6,t1,0
   18424:	00480813          	addi	a6,a6,4
   18428:	fddff06f          	jal	zero,18404 <__rshift_D2A+0xbc>

0001842c <__trailz_D2A>:
   1842c:	01052683          	lw	a3,16(a0)
   18430:	01450513          	addi	a0,a0,20
   18434:	00000793          	addi	a5,zero,0
   18438:	00269693          	slli	a3,a3,0x2
   1843c:	00d506b3          	add	a3,a0,a3
   18440:	00d56a63          	bltu	a0,a3,18454 <__trailz_D2A+0x28>
   18444:	04c0006f          	jal	zero,18490 <__trailz_D2A+0x64>
   18448:	00450513          	addi	a0,a0,4
   1844c:	02078793          	addi	a5,a5,32
   18450:	04d57063          	bgeu	a0,a3,18490 <__trailz_D2A+0x64>
   18454:	00052703          	lw	a4,0(a0)
   18458:	fe0708e3          	beq	a4,zero,18448 <__trailz_D2A+0x1c>
   1845c:	02d57a63          	bgeu	a0,a3,18490 <__trailz_D2A+0x64>
   18460:	fd010113          	addi	sp,sp,-48
   18464:	01c10513          	addi	a0,sp,28
   18468:	02112623          	sw	ra,44(sp)
   1846c:	00f12623          	sw	a5,12(sp)
   18470:	00e12e23          	sw	a4,28(sp)
   18474:	418000ef          	jal	ra,1888c <__lo0bits>
   18478:	00c12783          	lw	a5,12(sp)
   1847c:	02c12083          	lw	ra,44(sp)
   18480:	00a787b3          	add	a5,a5,a0
   18484:	00078513          	addi	a0,a5,0
   18488:	03010113          	addi	sp,sp,48
   1848c:	00008067          	jalr	zero,0(ra)
   18490:	00078513          	addi	a0,a5,0
   18494:	00008067          	jalr	zero,0(ra)

00018498 <_Balloc>:
   18498:	04452783          	lw	a5,68(a0)
   1849c:	fe010113          	addi	sp,sp,-32
   184a0:	00112e23          	sw	ra,28(sp)
   184a4:	00050713          	addi	a4,a0,0
   184a8:	00058693          	addi	a3,a1,0
   184ac:	02078863          	beq	a5,zero,184dc <_Balloc+0x44>
   184b0:	00269613          	slli	a2,a3,0x2
   184b4:	00c787b3          	add	a5,a5,a2
   184b8:	0007a503          	lw	a0,0(a5)
   184bc:	04050863          	beq	a0,zero,1850c <_Balloc+0x74>
   184c0:	00052703          	lw	a4,0(a0)
   184c4:	00e7a023          	sw	a4,0(a5)
   184c8:	00052823          	sw	zero,16(a0)
   184cc:	00052623          	sw	zero,12(a0)
   184d0:	01c12083          	lw	ra,28(sp)
   184d4:	02010113          	addi	sp,sp,32
   184d8:	00008067          	jalr	zero,0(ra)
   184dc:	00b12623          	sw	a1,12(sp)
   184e0:	02100613          	addi	a2,zero,33
   184e4:	00400593          	addi	a1,zero,4
   184e8:	00a12423          	sw	a0,8(sp)
   184ec:	66d010ef          	jal	ra,1a358 <_calloc_r>
   184f0:	00812703          	lw	a4,8(sp)
   184f4:	00c12683          	lw	a3,12(sp)
   184f8:	00050793          	addi	a5,a0,0
   184fc:	04a72223          	sw	a0,68(a4)
   18500:	fa0518e3          	bne	a0,zero,184b0 <_Balloc+0x18>
   18504:	00000513          	addi	a0,zero,0
   18508:	fc9ff06f          	jal	zero,184d0 <_Balloc+0x38>
   1850c:	00100593          	addi	a1,zero,1
   18510:	00d597b3          	sll	a5,a1,a3
   18514:	00578613          	addi	a2,a5,5
   18518:	00070513          	addi	a0,a4,0
   1851c:	00261613          	slli	a2,a2,0x2
   18520:	00d12623          	sw	a3,12(sp)
   18524:	00f12423          	sw	a5,8(sp)
   18528:	631010ef          	jal	ra,1a358 <_calloc_r>
   1852c:	fc050ce3          	beq	a0,zero,18504 <_Balloc+0x6c>
   18530:	00c12683          	lw	a3,12(sp)
   18534:	00812783          	lw	a5,8(sp)
   18538:	00d52223          	sw	a3,4(a0)
   1853c:	00f52423          	sw	a5,8(a0)
   18540:	f89ff06f          	jal	zero,184c8 <_Balloc+0x30>

00018544 <_Bfree>:
   18544:	02058063          	beq	a1,zero,18564 <_Bfree+0x20>
   18548:	0045a703          	lw	a4,4(a1)
   1854c:	04452783          	lw	a5,68(a0)
   18550:	00271713          	slli	a4,a4,0x2
   18554:	00e787b3          	add	a5,a5,a4
   18558:	0007a703          	lw	a4,0(a5)
   1855c:	00e5a023          	sw	a4,0(a1)
   18560:	00b7a023          	sw	a1,0(a5)
   18564:	00008067          	jalr	zero,0(ra)

00018568 <__multadd>:
   18568:	0105ae03          	lw	t3,16(a1)
   1856c:	00058e93          	addi	t4,a1,0
   18570:	00068313          	addi	t1,a3,0
   18574:	01458813          	addi	a6,a1,20
   18578:	00000893          	addi	a7,zero,0
   1857c:	00082783          	lw	a5,0(a6)
   18580:	00480813          	addi	a6,a6,4
   18584:	00188893          	addi	a7,a7,1
   18588:	01079713          	slli	a4,a5,0x10
   1858c:	01075713          	srli	a4,a4,0x10
   18590:	0107d693          	srli	a3,a5,0x10
   18594:	02c707b3          	mul	a5,a4,a2
   18598:	02c686b3          	mul	a3,a3,a2
   1859c:	006787b3          	add	a5,a5,t1
   185a0:	0107d713          	srli	a4,a5,0x10
   185a4:	01079793          	slli	a5,a5,0x10
   185a8:	0107d793          	srli	a5,a5,0x10
   185ac:	00e686b3          	add	a3,a3,a4
   185b0:	01069713          	slli	a4,a3,0x10
   185b4:	00f707b3          	add	a5,a4,a5
   185b8:	fef82e23          	sw	a5,-4(a6)
   185bc:	0106d313          	srli	t1,a3,0x10
   185c0:	fbc8cee3          	blt	a7,t3,1857c <__multadd+0x14>
   185c4:	02030063          	beq	t1,zero,185e4 <__multadd+0x7c>
   185c8:	008ea783          	lw	a5,8(t4)
   185cc:	02fe5063          	bge	t3,a5,185ec <__multadd+0x84>
   185d0:	002e1713          	slli	a4,t3,0x2
   185d4:	00ee8733          	add	a4,t4,a4
   185d8:	00672a23          	sw	t1,20(a4)
   185dc:	001e0793          	addi	a5,t3,1
   185e0:	00fea823          	sw	a5,16(t4)
   185e4:	000e8513          	addi	a0,t4,0
   185e8:	00008067          	jalr	zero,0(ra)
   185ec:	004ea583          	lw	a1,4(t4)
   185f0:	fe010113          	addi	sp,sp,-32
   185f4:	00812c23          	sw	s0,24(sp)
   185f8:	00158593          	addi	a1,a1,1
   185fc:	00612423          	sw	t1,8(sp)
   18600:	01c12223          	sw	t3,4(sp)
   18604:	01d12023          	sw	t4,0(sp)
   18608:	00112e23          	sw	ra,28(sp)
   1860c:	00050413          	addi	s0,a0,0
   18610:	e89ff0ef          	jal	ra,18498 <_Balloc>
   18614:	00012e83          	lw	t4,0(sp)
   18618:	00412e03          	lw	t3,4(sp)
   1861c:	00812303          	lw	t1,8(sp)
   18620:	00050713          	addi	a4,a0,0
   18624:	08050063          	beq	a0,zero,186a4 <__multadd+0x13c>
   18628:	010ea603          	lw	a2,16(t4)
   1862c:	00ce8593          	addi	a1,t4,12
   18630:	00c50513          	addi	a0,a0,12
   18634:	00260613          	addi	a2,a2,2
   18638:	00261613          	slli	a2,a2,0x2
   1863c:	00612623          	sw	t1,12(sp)
   18640:	01c12423          	sw	t3,8(sp)
   18644:	01d12223          	sw	t4,4(sp)
   18648:	00e12023          	sw	a4,0(sp)
   1864c:	de4fd0ef          	jal	ra,15c30 <memcpy>
   18650:	00412e83          	lw	t4,4(sp)
   18654:	04442783          	lw	a5,68(s0)
   18658:	00812e03          	lw	t3,8(sp)
   1865c:	004ea683          	lw	a3,4(t4)
   18660:	00c12303          	lw	t1,12(sp)
   18664:	002e1713          	slli	a4,t3,0x2
   18668:	00269693          	slli	a3,a3,0x2
   1866c:	00d787b3          	add	a5,a5,a3
   18670:	0007a683          	lw	a3,0(a5)
   18674:	01c12083          	lw	ra,28(sp)
   18678:	01812403          	lw	s0,24(sp)
   1867c:	00dea023          	sw	a3,0(t4)
   18680:	01d7a023          	sw	t4,0(a5)
   18684:	00012e83          	lw	t4,0(sp)
   18688:	001e0793          	addi	a5,t3,1
   1868c:	00ee8733          	add	a4,t4,a4
   18690:	00672a23          	sw	t1,20(a4)
   18694:	00fea823          	sw	a5,16(t4)
   18698:	000e8513          	addi	a0,t4,0
   1869c:	02010113          	addi	sp,sp,32
   186a0:	00008067          	jalr	zero,0(ra)
   186a4:	000216b7          	lui	a3,0x21
   186a8:	00021537          	lui	a0,0x21
   186ac:	c2468693          	addi	a3,a3,-988 # 20c24 <__clzsi2+0xe8>
   186b0:	c8050513          	addi	a0,a0,-896 # 20c80 <__clzsi2+0x144>
   186b4:	00000613          	addi	a2,zero,0
   186b8:	0ba00593          	addi	a1,zero,186
   186bc:	439010ef          	jal	ra,1a2f4 <__assert_func>

000186c0 <__s2b>:
   186c0:	fe010113          	addi	sp,sp,-32
   186c4:	00812c23          	sw	s0,24(sp)
   186c8:	01212823          	sw	s2,16(sp)
   186cc:	01312623          	sw	s3,12(sp)
   186d0:	01412423          	sw	s4,8(sp)
   186d4:	01512223          	sw	s5,4(sp)
   186d8:	00112e23          	sw	ra,28(sp)
   186dc:	00912a23          	sw	s1,20(sp)
   186e0:	00900793          	addi	a5,zero,9
   186e4:	00068993          	addi	s3,a3,0
   186e8:	00060a13          	addi	s4,a2,0
   186ec:	00050913          	addi	s2,a0,0
   186f0:	00058a93          	addi	s5,a1,0
   186f4:	00070413          	addi	s0,a4,0
   186f8:	0ed7d263          	bge	a5,a3,187dc <__s2b+0x11c>
   186fc:	38e397b7          	lui	a5,0x38e39
   18700:	e3978793          	addi	a5,a5,-455 # 38e38e39 <__BSS_END__+0x38d843e5>
   18704:	00868693          	addi	a3,a3,8
   18708:	02f6b6b3          	mulhu	a3,a3,a5
   1870c:	00000593          	addi	a1,zero,0
   18710:	00100793          	addi	a5,zero,1
   18714:	0016d693          	srli	a3,a3,0x1
   18718:	00179793          	slli	a5,a5,0x1
   1871c:	00158593          	addi	a1,a1,1
   18720:	fed7cce3          	blt	a5,a3,18718 <__s2b+0x58>
   18724:	00090513          	addi	a0,s2,0
   18728:	d71ff0ef          	jal	ra,18498 <_Balloc>
   1872c:	00050593          	addi	a1,a0,0
   18730:	0a050a63          	beq	a0,zero,187e4 <__s2b+0x124>
   18734:	00100793          	addi	a5,zero,1
   18738:	00f52823          	sw	a5,16(a0)
   1873c:	00852a23          	sw	s0,20(a0)
   18740:	00900793          	addi	a5,zero,9
   18744:	0947d663          	bge	a5,s4,187d0 <__s2b+0x110>
   18748:	009a8413          	addi	s0,s5,9
   1874c:	00040493          	addi	s1,s0,0
   18750:	014a8ab3          	add	s5,s5,s4
   18754:	0004c683          	lbu	a3,0(s1)
   18758:	00a00613          	addi	a2,zero,10
   1875c:	00090513          	addi	a0,s2,0
   18760:	fd068693          	addi	a3,a3,-48
   18764:	00148493          	addi	s1,s1,1
   18768:	e01ff0ef          	jal	ra,18568 <__multadd>
   1876c:	00050593          	addi	a1,a0,0
   18770:	ff5492e3          	bne	s1,s5,18754 <__s2b+0x94>
   18774:	01440433          	add	s0,s0,s4
   18778:	ff840413          	addi	s0,s0,-8
   1877c:	033a5663          	bge	s4,s3,187a8 <__s2b+0xe8>
   18780:	414984b3          	sub	s1,s3,s4
   18784:	009404b3          	add	s1,s0,s1
   18788:	00044683          	lbu	a3,0(s0)
   1878c:	00a00613          	addi	a2,zero,10
   18790:	00090513          	addi	a0,s2,0
   18794:	fd068693          	addi	a3,a3,-48
   18798:	00140413          	addi	s0,s0,1
   1879c:	dcdff0ef          	jal	ra,18568 <__multadd>
   187a0:	00050593          	addi	a1,a0,0
   187a4:	fe9412e3          	bne	s0,s1,18788 <__s2b+0xc8>
   187a8:	01c12083          	lw	ra,28(sp)
   187ac:	01812403          	lw	s0,24(sp)
   187b0:	01412483          	lw	s1,20(sp)
   187b4:	01012903          	lw	s2,16(sp)
   187b8:	00c12983          	lw	s3,12(sp)
   187bc:	00812a03          	lw	s4,8(sp)
   187c0:	00412a83          	lw	s5,4(sp)
   187c4:	00058513          	addi	a0,a1,0
   187c8:	02010113          	addi	sp,sp,32
   187cc:	00008067          	jalr	zero,0(ra)
   187d0:	00aa8413          	addi	s0,s5,10
   187d4:	00078a13          	addi	s4,a5,0
   187d8:	fa5ff06f          	jal	zero,1877c <__s2b+0xbc>
   187dc:	00000593          	addi	a1,zero,0
   187e0:	f45ff06f          	jal	zero,18724 <__s2b+0x64>
   187e4:	000216b7          	lui	a3,0x21
   187e8:	00021537          	lui	a0,0x21
   187ec:	c2468693          	addi	a3,a3,-988 # 20c24 <__clzsi2+0xe8>
   187f0:	c8050513          	addi	a0,a0,-896 # 20c80 <__clzsi2+0x144>
   187f4:	00000613          	addi	a2,zero,0
   187f8:	0d300593          	addi	a1,zero,211
   187fc:	2f9010ef          	jal	ra,1a2f4 <__assert_func>

00018800 <__hi0bits>:
   18800:	00050793          	addi	a5,a0,0
   18804:	00010737          	lui	a4,0x10
   18808:	00000513          	addi	a0,zero,0
   1880c:	00e7f663          	bgeu	a5,a4,18818 <__hi0bits+0x18>
   18810:	01079793          	slli	a5,a5,0x10
   18814:	01000513          	addi	a0,zero,16
   18818:	01000737          	lui	a4,0x1000
   1881c:	00e7f663          	bgeu	a5,a4,18828 <__hi0bits+0x28>
   18820:	00850513          	addi	a0,a0,8
   18824:	00879793          	slli	a5,a5,0x8
   18828:	10000737          	lui	a4,0x10000
   1882c:	00e7ee63          	bltu	a5,a4,18848 <__hi0bits+0x48>
   18830:	40000737          	lui	a4,0x40000
   18834:	02e7fe63          	bgeu	a5,a4,18870 <__hi0bits+0x70>
   18838:	00279713          	slli	a4,a5,0x2
   1883c:	04074463          	blt	a4,zero,18884 <__hi0bits+0x84>
   18840:	00350513          	addi	a0,a0,3
   18844:	00008067          	jalr	zero,0(ra)
   18848:	00479713          	slli	a4,a5,0x4
   1884c:	400006b7          	lui	a3,0x40000
   18850:	00450513          	addi	a0,a0,4
   18854:	02d77063          	bgeu	a4,a3,18874 <__hi0bits+0x74>
   18858:	00679793          	slli	a5,a5,0x6
   1885c:	0207c463          	blt	a5,zero,18884 <__hi0bits+0x84>
   18860:	00179713          	slli	a4,a5,0x1
   18864:	fc074ee3          	blt	a4,zero,18840 <__hi0bits+0x40>
   18868:	02000513          	addi	a0,zero,32
   1886c:	00008067          	jalr	zero,0(ra)
   18870:	00078713          	addi	a4,a5,0
   18874:	fff74713          	xori	a4,a4,-1
   18878:	01f75713          	srli	a4,a4,0x1f
   1887c:	00e50533          	add	a0,a0,a4
   18880:	00008067          	jalr	zero,0(ra)
   18884:	00250513          	addi	a0,a0,2
   18888:	00008067          	jalr	zero,0(ra)

0001888c <__lo0bits>:
   1888c:	00052783          	lw	a5,0(a0)
   18890:	0077f713          	andi	a4,a5,7
   18894:	02070663          	beq	a4,zero,188c0 <__lo0bits+0x34>
   18898:	0017f693          	andi	a3,a5,1
   1889c:	00000713          	addi	a4,zero,0
   188a0:	00069c63          	bne	a3,zero,188b8 <__lo0bits+0x2c>
   188a4:	0027f713          	andi	a4,a5,2
   188a8:	0a070e63          	beq	a4,zero,18964 <__lo0bits+0xd8>
   188ac:	0017d793          	srli	a5,a5,0x1
   188b0:	00f52023          	sw	a5,0(a0)
   188b4:	00100713          	addi	a4,zero,1
   188b8:	00070513          	addi	a0,a4,0 # 40000000 <__BSS_END__+0x3ff4b5ac>
   188bc:	00008067          	jalr	zero,0(ra)
   188c0:	01079713          	slli	a4,a5,0x10
   188c4:	01075713          	srli	a4,a4,0x10
   188c8:	04071463          	bne	a4,zero,18910 <__lo0bits+0x84>
   188cc:	0107d793          	srli	a5,a5,0x10
   188d0:	0ff7f693          	andi	a3,a5,255
   188d4:	01000713          	addi	a4,zero,16
   188d8:	00069663          	bne	a3,zero,188e4 <__lo0bits+0x58>
   188dc:	01800713          	addi	a4,zero,24
   188e0:	0087d793          	srli	a5,a5,0x8
   188e4:	00f7f693          	andi	a3,a5,15
   188e8:	06068263          	beq	a3,zero,1894c <__lo0bits+0xc0>
   188ec:	0037f693          	andi	a3,a5,3
   188f0:	04068063          	beq	a3,zero,18930 <__lo0bits+0xa4>
   188f4:	0017f693          	andi	a3,a5,1
   188f8:	00069663          	bne	a3,zero,18904 <__lo0bits+0x78>
   188fc:	00170713          	addi	a4,a4,1
   18900:	0017d793          	srli	a5,a5,0x1
   18904:	00f52023          	sw	a5,0(a0)
   18908:	00070513          	addi	a0,a4,0
   1890c:	00008067          	jalr	zero,0(ra)
   18910:	0ff7f713          	andi	a4,a5,255
   18914:	04070263          	beq	a4,zero,18958 <__lo0bits+0xcc>
   18918:	00f7f713          	andi	a4,a5,15
   1891c:	06071663          	bne	a4,zero,18988 <__lo0bits+0xfc>
   18920:	00400713          	addi	a4,zero,4
   18924:	0047d793          	srli	a5,a5,0x4
   18928:	0037f693          	andi	a3,a5,3
   1892c:	fc0694e3          	bne	a3,zero,188f4 <__lo0bits+0x68>
   18930:	0027d693          	srli	a3,a5,0x2
   18934:	0016f613          	andi	a2,a3,1
   18938:	04060063          	beq	a2,zero,18978 <__lo0bits+0xec>
   1893c:	00068793          	addi	a5,a3,0 # 40000000 <__BSS_END__+0x3ff4b5ac>
   18940:	00270713          	addi	a4,a4,2
   18944:	00f52023          	sw	a5,0(a0)
   18948:	fc1ff06f          	jal	zero,18908 <__lo0bits+0x7c>
   1894c:	00470713          	addi	a4,a4,4
   18950:	0047d793          	srli	a5,a5,0x4
   18954:	fd5ff06f          	jal	zero,18928 <__lo0bits+0x9c>
   18958:	00800713          	addi	a4,zero,8
   1895c:	0087d793          	srli	a5,a5,0x8
   18960:	f85ff06f          	jal	zero,188e4 <__lo0bits+0x58>
   18964:	0027d793          	srli	a5,a5,0x2
   18968:	00200713          	addi	a4,zero,2
   1896c:	00f52023          	sw	a5,0(a0)
   18970:	00070513          	addi	a0,a4,0
   18974:	00008067          	jalr	zero,0(ra)
   18978:	0037d793          	srli	a5,a5,0x3
   1897c:	00079e63          	bne	a5,zero,18998 <__lo0bits+0x10c>
   18980:	02000713          	addi	a4,zero,32
   18984:	f35ff06f          	jal	zero,188b8 <__lo0bits+0x2c>
   18988:	0037d793          	srli	a5,a5,0x3
   1898c:	00300713          	addi	a4,zero,3
   18990:	00f52023          	sw	a5,0(a0)
   18994:	f75ff06f          	jal	zero,18908 <__lo0bits+0x7c>
   18998:	00370713          	addi	a4,a4,3
   1899c:	00f52023          	sw	a5,0(a0)
   189a0:	f69ff06f          	jal	zero,18908 <__lo0bits+0x7c>

000189a4 <__i2b>:
   189a4:	04452783          	lw	a5,68(a0)
   189a8:	fe010113          	addi	sp,sp,-32
   189ac:	00112e23          	sw	ra,28(sp)
   189b0:	00050713          	addi	a4,a0,0
   189b4:	00058693          	addi	a3,a1,0
   189b8:	02078863          	beq	a5,zero,189e8 <__i2b+0x44>
   189bc:	0047a503          	lw	a0,4(a5)
   189c0:	06050663          	beq	a0,zero,18a2c <__i2b+0x88>
   189c4:	00052703          	lw	a4,0(a0)
   189c8:	01c12083          	lw	ra,28(sp)
   189cc:	00e7a223          	sw	a4,4(a5)
   189d0:	00100793          	addi	a5,zero,1
   189d4:	00052623          	sw	zero,12(a0)
   189d8:	00d52a23          	sw	a3,20(a0)
   189dc:	00f52823          	sw	a5,16(a0)
   189e0:	02010113          	addi	sp,sp,32
   189e4:	00008067          	jalr	zero,0(ra)
   189e8:	00b12623          	sw	a1,12(sp)
   189ec:	02100613          	addi	a2,zero,33
   189f0:	00400593          	addi	a1,zero,4
   189f4:	00a12423          	sw	a0,8(sp)
   189f8:	161010ef          	jal	ra,1a358 <_calloc_r>
   189fc:	00812703          	lw	a4,8(sp)
   18a00:	00c12683          	lw	a3,12(sp)
   18a04:	00050793          	addi	a5,a0,0
   18a08:	04a72223          	sw	a0,68(a4)
   18a0c:	fa0518e3          	bne	a0,zero,189bc <__i2b+0x18>
   18a10:	000216b7          	lui	a3,0x21
   18a14:	00021537          	lui	a0,0x21
   18a18:	c2468693          	addi	a3,a3,-988 # 20c24 <__clzsi2+0xe8>
   18a1c:	c8050513          	addi	a0,a0,-896 # 20c80 <__clzsi2+0x144>
   18a20:	00000613          	addi	a2,zero,0
   18a24:	14500593          	addi	a1,zero,325
   18a28:	0cd010ef          	jal	ra,1a2f4 <__assert_func>
   18a2c:	00070513          	addi	a0,a4,0
   18a30:	01c00613          	addi	a2,zero,28
   18a34:	00100593          	addi	a1,zero,1
   18a38:	00d12423          	sw	a3,8(sp)
   18a3c:	11d010ef          	jal	ra,1a358 <_calloc_r>
   18a40:	fc0508e3          	beq	a0,zero,18a10 <__i2b+0x6c>
   18a44:	00812683          	lw	a3,8(sp)
   18a48:	01c12083          	lw	ra,28(sp)
   18a4c:	00200793          	addi	a5,zero,2
   18a50:	00f52423          	sw	a5,8(a0)
   18a54:	00100713          	addi	a4,zero,1
   18a58:	00100793          	addi	a5,zero,1
   18a5c:	00e52223          	sw	a4,4(a0)
   18a60:	00052623          	sw	zero,12(a0)
   18a64:	00d52a23          	sw	a3,20(a0)
   18a68:	00f52823          	sw	a5,16(a0)
   18a6c:	02010113          	addi	sp,sp,32
   18a70:	00008067          	jalr	zero,0(ra)

00018a74 <__multiply>:
   18a74:	fe010113          	addi	sp,sp,-32
   18a78:	01212823          	sw	s2,16(sp)
   18a7c:	01312623          	sw	s3,12(sp)
   18a80:	0105a903          	lw	s2,16(a1)
   18a84:	01062983          	lw	s3,16(a2)
   18a88:	00912a23          	sw	s1,20(sp)
   18a8c:	01412423          	sw	s4,8(sp)
   18a90:	00112e23          	sw	ra,28(sp)
   18a94:	00812c23          	sw	s0,24(sp)
   18a98:	00058a13          	addi	s4,a1,0
   18a9c:	00060493          	addi	s1,a2,0
   18aa0:	01394c63          	blt	s2,s3,18ab8 <__multiply+0x44>
   18aa4:	00098713          	addi	a4,s3,0
   18aa8:	00058493          	addi	s1,a1,0
   18aac:	00090993          	addi	s3,s2,0
   18ab0:	00060a13          	addi	s4,a2,0
   18ab4:	00070913          	addi	s2,a4,0
   18ab8:	0084a783          	lw	a5,8(s1)
   18abc:	0044a583          	lw	a1,4(s1)
   18ac0:	01298433          	add	s0,s3,s2
   18ac4:	0087a7b3          	slt	a5,a5,s0
   18ac8:	00f585b3          	add	a1,a1,a5
   18acc:	9cdff0ef          	jal	ra,18498 <_Balloc>
   18ad0:	1c050a63          	beq	a0,zero,18ca4 <__multiply+0x230>
   18ad4:	01450893          	addi	a7,a0,20
   18ad8:	00241813          	slli	a6,s0,0x2
   18adc:	01088833          	add	a6,a7,a6
   18ae0:	00088793          	addi	a5,a7,0
   18ae4:	0108f863          	bgeu	a7,a6,18af4 <__multiply+0x80>
   18ae8:	0007a023          	sw	zero,0(a5)
   18aec:	00478793          	addi	a5,a5,4
   18af0:	ff07ece3          	bltu	a5,a6,18ae8 <__multiply+0x74>
   18af4:	014a0593          	addi	a1,s4,20
   18af8:	00291313          	slli	t1,s2,0x2
   18afc:	00658333          	add	t1,a1,t1
   18b00:	1665f263          	bgeu	a1,t1,18c64 <__multiply+0x1f0>
   18b04:	00299693          	slli	a3,s3,0x2
   18b08:	01448e93          	addi	t4,s1,20
   18b0c:	00de86b3          	add	a3,t4,a3
   18b10:	01548e13          	addi	t3,s1,21
   18b14:	01c6be33          	sltu	t3,a3,t3
   18b18:	40968633          	sub	a2,a3,s1
   18b1c:	001e4e13          	xori	t3,t3,1
   18b20:	feb60613          	addi	a2,a2,-21
   18b24:	0180006f          	jal	zero,18b3c <__multiply+0xc8>
   18b28:	010fdf93          	srli	t6,t6,0x10
   18b2c:	0a0f9663          	bne	t6,zero,18bd8 <__multiply+0x164>
   18b30:	00458593          	addi	a1,a1,4
   18b34:	00488893          	addi	a7,a7,4
   18b38:	1265f663          	bgeu	a1,t1,18c64 <__multiply+0x1f0>
   18b3c:	0005af83          	lw	t6,0(a1)
   18b40:	010f9393          	slli	t2,t6,0x10
   18b44:	0103d393          	srli	t2,t2,0x10
   18b48:	fe0380e3          	beq	t2,zero,18b28 <__multiply+0xb4>
   18b4c:	00088293          	addi	t0,a7,0
   18b50:	000e8f93          	addi	t6,t4,0
   18b54:	00000493          	addi	s1,zero,0
   18b58:	000fa783          	lw	a5,0(t6)
   18b5c:	0002af03          	lw	t5,0(t0)
   18b60:	00428293          	addi	t0,t0,4
   18b64:	01079713          	slli	a4,a5,0x10
   18b68:	01075713          	srli	a4,a4,0x10
   18b6c:	02770733          	mul	a4,a4,t2
   18b70:	0107d793          	srli	a5,a5,0x10
   18b74:	010f1913          	slli	s2,t5,0x10
   18b78:	01095913          	srli	s2,s2,0x10
   18b7c:	010f5f13          	srli	t5,t5,0x10
   18b80:	004f8f93          	addi	t6,t6,4
   18b84:	027787b3          	mul	a5,a5,t2
   18b88:	01270733          	add	a4,a4,s2
   18b8c:	00970733          	add	a4,a4,s1
   18b90:	01e787b3          	add	a5,a5,t5
   18b94:	01075f13          	srli	t5,a4,0x10
   18b98:	01e787b3          	add	a5,a5,t5
   18b9c:	01071713          	slli	a4,a4,0x10
   18ba0:	01075713          	srli	a4,a4,0x10
   18ba4:	01079f13          	slli	t5,a5,0x10
   18ba8:	00ef6733          	or	a4,t5,a4
   18bac:	fee2ae23          	sw	a4,-4(t0)
   18bb0:	0107d493          	srli	s1,a5,0x10
   18bb4:	fadfe2e3          	bltu	t6,a3,18b58 <__multiply+0xe4>
   18bb8:	00000793          	addi	a5,zero,0
   18bbc:	000e0463          	beq	t3,zero,18bc4 <__multiply+0x150>
   18bc0:	ffc67793          	andi	a5,a2,-4
   18bc4:	00f887b3          	add	a5,a7,a5
   18bc8:	0097a223          	sw	s1,4(a5)
   18bcc:	0005af83          	lw	t6,0(a1)
   18bd0:	010fdf93          	srli	t6,t6,0x10
   18bd4:	f40f8ee3          	beq	t6,zero,18b30 <__multiply+0xbc>
   18bd8:	0008a783          	lw	a5,0(a7)
   18bdc:	00088293          	addi	t0,a7,0
   18be0:	000e8f13          	addi	t5,t4,0
   18be4:	00078493          	addi	s1,a5,0
   18be8:	00000393          	addi	t2,zero,0
   18bec:	000f5703          	lhu	a4,0(t5)
   18bf0:	0104d993          	srli	s3,s1,0x10
   18bf4:	01079793          	slli	a5,a5,0x10
   18bf8:	03f70733          	mul	a4,a4,t6
   18bfc:	0107d793          	srli	a5,a5,0x10
   18c00:	004f0f13          	addi	t5,t5,4
   18c04:	0042a483          	lw	s1,4(t0)
   18c08:	00428293          	addi	t0,t0,4
   18c0c:	01049913          	slli	s2,s1,0x10
   18c10:	01095913          	srli	s2,s2,0x10
   18c14:	00770733          	add	a4,a4,t2
   18c18:	01370733          	add	a4,a4,s3
   18c1c:	01071393          	slli	t2,a4,0x10
   18c20:	00f3e7b3          	or	a5,t2,a5
   18c24:	fef2ae23          	sw	a5,-4(t0)
   18c28:	ffef5783          	lhu	a5,-2(t5)
   18c2c:	01075713          	srli	a4,a4,0x10
   18c30:	03f787b3          	mul	a5,a5,t6
   18c34:	012787b3          	add	a5,a5,s2
   18c38:	00e787b3          	add	a5,a5,a4
   18c3c:	0107d393          	srli	t2,a5,0x10
   18c40:	fadf66e3          	bltu	t5,a3,18bec <__multiply+0x178>
   18c44:	00000713          	addi	a4,zero,0
   18c48:	000e0463          	beq	t3,zero,18c50 <__multiply+0x1dc>
   18c4c:	ffc67713          	andi	a4,a2,-4
   18c50:	00e88733          	add	a4,a7,a4
   18c54:	00f72223          	sw	a5,4(a4)
   18c58:	00458593          	addi	a1,a1,4
   18c5c:	00488893          	addi	a7,a7,4
   18c60:	ec65eee3          	bltu	a1,t1,18b3c <__multiply+0xc8>
   18c64:	00804863          	blt	zero,s0,18c74 <__multiply+0x200>
   18c68:	0180006f          	jal	zero,18c80 <__multiply+0x20c>
   18c6c:	fff40413          	addi	s0,s0,-1
   18c70:	00040863          	beq	s0,zero,18c80 <__multiply+0x20c>
   18c74:	ffc82783          	lw	a5,-4(a6)
   18c78:	ffc80813          	addi	a6,a6,-4
   18c7c:	fe0788e3          	beq	a5,zero,18c6c <__multiply+0x1f8>
   18c80:	01c12083          	lw	ra,28(sp)
   18c84:	00852823          	sw	s0,16(a0)
   18c88:	01812403          	lw	s0,24(sp)
   18c8c:	01412483          	lw	s1,20(sp)
   18c90:	01012903          	lw	s2,16(sp)
   18c94:	00c12983          	lw	s3,12(sp)
   18c98:	00812a03          	lw	s4,8(sp)
   18c9c:	02010113          	addi	sp,sp,32
   18ca0:	00008067          	jalr	zero,0(ra)
   18ca4:	000216b7          	lui	a3,0x21
   18ca8:	00021537          	lui	a0,0x21
   18cac:	c2468693          	addi	a3,a3,-988 # 20c24 <__clzsi2+0xe8>
   18cb0:	c8050513          	addi	a0,a0,-896 # 20c80 <__clzsi2+0x144>
   18cb4:	00000613          	addi	a2,zero,0
   18cb8:	16200593          	addi	a1,zero,354
   18cbc:	638010ef          	jal	ra,1a2f4 <__assert_func>

00018cc0 <__pow5mult>:
   18cc0:	fe010113          	addi	sp,sp,-32
   18cc4:	00812c23          	sw	s0,24(sp)
   18cc8:	01212823          	sw	s2,16(sp)
   18ccc:	01312623          	sw	s3,12(sp)
   18cd0:	00112e23          	sw	ra,28(sp)
   18cd4:	00367793          	andi	a5,a2,3
   18cd8:	00060413          	addi	s0,a2,0
   18cdc:	00050993          	addi	s3,a0,0
   18ce0:	00058913          	addi	s2,a1,0
   18ce4:	0c079a63          	bne	a5,zero,18db8 <__pow5mult+0xf8>
   18ce8:	40245413          	srai	s0,s0,0x2
   18cec:	0a040863          	beq	s0,zero,18d9c <__pow5mult+0xdc>
   18cf0:	00912a23          	sw	s1,20(sp)
   18cf4:	0409a483          	lw	s1,64(s3)
   18cf8:	0e048263          	beq	s1,zero,18ddc <__pow5mult+0x11c>
   18cfc:	00147793          	andi	a5,s0,1
   18d00:	40145413          	srai	s0,s0,0x1
   18d04:	00079e63          	bne	a5,zero,18d20 <__pow5mult+0x60>
   18d08:	0004a503          	lw	a0,0(s1)
   18d0c:	04050a63          	beq	a0,zero,18d60 <__pow5mult+0xa0>
   18d10:	00050493          	addi	s1,a0,0
   18d14:	00147793          	andi	a5,s0,1
   18d18:	40145413          	srai	s0,s0,0x1
   18d1c:	fe0786e3          	beq	a5,zero,18d08 <__pow5mult+0x48>
   18d20:	00048613          	addi	a2,s1,0
   18d24:	00090593          	addi	a1,s2,0
   18d28:	00098513          	addi	a0,s3,0
   18d2c:	d49ff0ef          	jal	ra,18a74 <__multiply>
   18d30:	02090063          	beq	s2,zero,18d50 <__pow5mult+0x90>
   18d34:	00492703          	lw	a4,4(s2)
   18d38:	0449a783          	lw	a5,68(s3)
   18d3c:	00271713          	slli	a4,a4,0x2
   18d40:	00e787b3          	add	a5,a5,a4
   18d44:	0007a703          	lw	a4,0(a5)
   18d48:	00e92023          	sw	a4,0(s2)
   18d4c:	0127a023          	sw	s2,0(a5)
   18d50:	02040863          	beq	s0,zero,18d80 <__pow5mult+0xc0>
   18d54:	00050913          	addi	s2,a0,0
   18d58:	0004a503          	lw	a0,0(s1)
   18d5c:	fa051ae3          	bne	a0,zero,18d10 <__pow5mult+0x50>
   18d60:	00048613          	addi	a2,s1,0
   18d64:	00048593          	addi	a1,s1,0
   18d68:	00098513          	addi	a0,s3,0
   18d6c:	d09ff0ef          	jal	ra,18a74 <__multiply>
   18d70:	00a4a023          	sw	a0,0(s1)
   18d74:	00052023          	sw	zero,0(a0)
   18d78:	00050493          	addi	s1,a0,0
   18d7c:	f99ff06f          	jal	zero,18d14 <__pow5mult+0x54>
   18d80:	01c12083          	lw	ra,28(sp)
   18d84:	01812403          	lw	s0,24(sp)
   18d88:	01412483          	lw	s1,20(sp)
   18d8c:	01012903          	lw	s2,16(sp)
   18d90:	00c12983          	lw	s3,12(sp)
   18d94:	02010113          	addi	sp,sp,32
   18d98:	00008067          	jalr	zero,0(ra)
   18d9c:	01c12083          	lw	ra,28(sp)
   18da0:	01812403          	lw	s0,24(sp)
   18da4:	00c12983          	lw	s3,12(sp)
   18da8:	00090513          	addi	a0,s2,0
   18dac:	01012903          	lw	s2,16(sp)
   18db0:	02010113          	addi	sp,sp,32
   18db4:	00008067          	jalr	zero,0(ra)
   18db8:	000b3737          	lui	a4,0xb3
   18dbc:	67470713          	addi	a4,a4,1652 # b3674 <p05.0>
   18dc0:	00279793          	slli	a5,a5,0x2
   18dc4:	00f707b3          	add	a5,a4,a5
   18dc8:	ffc7a603          	lw	a2,-4(a5)
   18dcc:	00000693          	addi	a3,zero,0
   18dd0:	f98ff0ef          	jal	ra,18568 <__multadd>
   18dd4:	00050913          	addi	s2,a0,0
   18dd8:	f11ff06f          	jal	zero,18ce8 <__pow5mult+0x28>
   18ddc:	00100593          	addi	a1,zero,1
   18de0:	00098513          	addi	a0,s3,0
   18de4:	eb4ff0ef          	jal	ra,18498 <_Balloc>
   18de8:	00050493          	addi	s1,a0,0
   18dec:	02050063          	beq	a0,zero,18e0c <__pow5mult+0x14c>
   18df0:	27100713          	addi	a4,zero,625
   18df4:	00100793          	addi	a5,zero,1
   18df8:	00e52a23          	sw	a4,20(a0)
   18dfc:	00f52823          	sw	a5,16(a0)
   18e00:	04a9a023          	sw	a0,64(s3)
   18e04:	00052023          	sw	zero,0(a0)
   18e08:	ef5ff06f          	jal	zero,18cfc <__pow5mult+0x3c>
   18e0c:	000216b7          	lui	a3,0x21
   18e10:	00021537          	lui	a0,0x21
   18e14:	c2468693          	addi	a3,a3,-988 # 20c24 <__clzsi2+0xe8>
   18e18:	c8050513          	addi	a0,a0,-896 # 20c80 <__clzsi2+0x144>
   18e1c:	00000613          	addi	a2,zero,0
   18e20:	14500593          	addi	a1,zero,325
   18e24:	4d0010ef          	jal	ra,1a2f4 <__assert_func>

00018e28 <__lshift>:
   18e28:	fd010113          	addi	sp,sp,-48
   18e2c:	03212023          	sw	s2,32(sp)
   18e30:	0105a903          	lw	s2,16(a1)
   18e34:	0085a783          	lw	a5,8(a1)
   18e38:	01412c23          	sw	s4,24(sp)
   18e3c:	40565a13          	srai	s4,a2,0x5
   18e40:	012a0933          	add	s2,s4,s2
   18e44:	02812423          	sw	s0,40(sp)
   18e48:	02912223          	sw	s1,36(sp)
   18e4c:	01312e23          	sw	s3,28(sp)
   18e50:	02112623          	sw	ra,44(sp)
   18e54:	00190413          	addi	s0,s2,1
   18e58:	00058493          	addi	s1,a1,0
   18e5c:	00050993          	addi	s3,a0,0
   18e60:	0045a583          	lw	a1,4(a1)
   18e64:	0087d863          	bge	a5,s0,18e74 <__lshift+0x4c>
   18e68:	00179793          	slli	a5,a5,0x1
   18e6c:	00158593          	addi	a1,a1,1
   18e70:	fe87cce3          	blt	a5,s0,18e68 <__lshift+0x40>
   18e74:	00098513          	addi	a0,s3,0
   18e78:	00c12623          	sw	a2,12(sp)
   18e7c:	e1cff0ef          	jal	ra,18498 <_Balloc>
   18e80:	00c12603          	lw	a2,12(sp)
   18e84:	10050863          	beq	a0,zero,18f94 <__lshift+0x16c>
   18e88:	01450593          	addi	a1,a0,20
   18e8c:	03405463          	bge	zero,s4,18eb4 <__lshift+0x8c>
   18e90:	005a0713          	addi	a4,s4,5
   18e94:	00271713          	slli	a4,a4,0x2
   18e98:	00e50733          	add	a4,a0,a4
   18e9c:	00058793          	addi	a5,a1,0
   18ea0:	00478793          	addi	a5,a5,4
   18ea4:	fe07ae23          	sw	zero,-4(a5)
   18ea8:	fee79ce3          	bne	a5,a4,18ea0 <__lshift+0x78>
   18eac:	002a1a13          	slli	s4,s4,0x2
   18eb0:	014585b3          	add	a1,a1,s4
   18eb4:	0104a803          	lw	a6,16(s1)
   18eb8:	01448793          	addi	a5,s1,20
   18ebc:	01f67613          	andi	a2,a2,31
   18ec0:	00281813          	slli	a6,a6,0x2
   18ec4:	01078833          	add	a6,a5,a6
   18ec8:	0a060063          	beq	a2,zero,18f68 <__lshift+0x140>
   18ecc:	02000313          	addi	t1,zero,32
   18ed0:	40c30333          	sub	t1,t1,a2
   18ed4:	00058893          	addi	a7,a1,0
   18ed8:	00000693          	addi	a3,zero,0
   18edc:	0007a703          	lw	a4,0(a5)
   18ee0:	00488893          	addi	a7,a7,4
   18ee4:	00478793          	addi	a5,a5,4
   18ee8:	00c71733          	sll	a4,a4,a2
   18eec:	00d76733          	or	a4,a4,a3
   18ef0:	fee8ae23          	sw	a4,-4(a7)
   18ef4:	ffc7a683          	lw	a3,-4(a5)
   18ef8:	0066d6b3          	srl	a3,a3,t1
   18efc:	ff07e0e3          	bltu	a5,a6,18edc <__lshift+0xb4>
   18f00:	01548793          	addi	a5,s1,21
   18f04:	00000713          	addi	a4,zero,0
   18f08:	00f86863          	bltu	a6,a5,18f18 <__lshift+0xf0>
   18f0c:	40980833          	sub	a6,a6,s1
   18f10:	feb80813          	addi	a6,a6,-21
   18f14:	ffc87713          	andi	a4,a6,-4
   18f18:	00e585b3          	add	a1,a1,a4
   18f1c:	00d5a223          	sw	a3,4(a1)
   18f20:	00069463          	bne	a3,zero,18f28 <__lshift+0x100>
   18f24:	00090413          	addi	s0,s2,0
   18f28:	0044a703          	lw	a4,4(s1)
   18f2c:	0449a783          	lw	a5,68(s3)
   18f30:	02c12083          	lw	ra,44(sp)
   18f34:	00271713          	slli	a4,a4,0x2
   18f38:	00e787b3          	add	a5,a5,a4
   18f3c:	0007a703          	lw	a4,0(a5)
   18f40:	00852823          	sw	s0,16(a0)
   18f44:	02812403          	lw	s0,40(sp)
   18f48:	00e4a023          	sw	a4,0(s1)
   18f4c:	0097a023          	sw	s1,0(a5)
   18f50:	02012903          	lw	s2,32(sp)
   18f54:	02412483          	lw	s1,36(sp)
   18f58:	01c12983          	lw	s3,28(sp)
   18f5c:	01812a03          	lw	s4,24(sp)
   18f60:	03010113          	addi	sp,sp,48
   18f64:	00008067          	jalr	zero,0(ra)
   18f68:	0007a703          	lw	a4,0(a5)
   18f6c:	00478793          	addi	a5,a5,4
   18f70:	00458593          	addi	a1,a1,4
   18f74:	fee5ae23          	sw	a4,-4(a1)
   18f78:	fb07f6e3          	bgeu	a5,a6,18f24 <__lshift+0xfc>
   18f7c:	0007a703          	lw	a4,0(a5)
   18f80:	00478793          	addi	a5,a5,4
   18f84:	00458593          	addi	a1,a1,4
   18f88:	fee5ae23          	sw	a4,-4(a1)
   18f8c:	fd07eee3          	bltu	a5,a6,18f68 <__lshift+0x140>
   18f90:	f95ff06f          	jal	zero,18f24 <__lshift+0xfc>
   18f94:	000216b7          	lui	a3,0x21
   18f98:	00021537          	lui	a0,0x21
   18f9c:	c2468693          	addi	a3,a3,-988 # 20c24 <__clzsi2+0xe8>
   18fa0:	c8050513          	addi	a0,a0,-896 # 20c80 <__clzsi2+0x144>
   18fa4:	00000613          	addi	a2,zero,0
   18fa8:	1de00593          	addi	a1,zero,478
   18fac:	348010ef          	jal	ra,1a2f4 <__assert_func>

00018fb0 <__mcmp>:
   18fb0:	01052703          	lw	a4,16(a0)
   18fb4:	0105a783          	lw	a5,16(a1)
   18fb8:	00050613          	addi	a2,a0,0
   18fbc:	40f70533          	sub	a0,a4,a5
   18fc0:	04f71263          	bne	a4,a5,19004 <__mcmp+0x54>
   18fc4:	00279793          	slli	a5,a5,0x2
   18fc8:	01460613          	addi	a2,a2,20
   18fcc:	01458593          	addi	a1,a1,20
   18fd0:	00f585b3          	add	a1,a1,a5
   18fd4:	00f607b3          	add	a5,a2,a5
   18fd8:	0080006f          	jal	zero,18fe0 <__mcmp+0x30>
   18fdc:	02f67463          	bgeu	a2,a5,19004 <__mcmp+0x54>
   18fe0:	ffc7a683          	lw	a3,-4(a5)
   18fe4:	ffc5a703          	lw	a4,-4(a1)
   18fe8:	ffc78793          	addi	a5,a5,-4
   18fec:	ffc58593          	addi	a1,a1,-4
   18ff0:	fee686e3          	beq	a3,a4,18fdc <__mcmp+0x2c>
   18ff4:	00100513          	addi	a0,zero,1
   18ff8:	00e6f663          	bgeu	a3,a4,19004 <__mcmp+0x54>
   18ffc:	fff00513          	addi	a0,zero,-1
   19000:	00008067          	jalr	zero,0(ra)
   19004:	00008067          	jalr	zero,0(ra)

00019008 <__mdiff>:
   19008:	0105a703          	lw	a4,16(a1)
   1900c:	01062783          	lw	a5,16(a2)
   19010:	fe010113          	addi	sp,sp,-32
   19014:	00112e23          	sw	ra,28(sp)
   19018:	00058f13          	addi	t5,a1,0
   1901c:	40f708b3          	sub	a7,a4,a5
   19020:	04f71063          	bne	a4,a5,19060 <__mdiff+0x58>
   19024:	00279693          	slli	a3,a5,0x2
   19028:	01458593          	addi	a1,a1,20
   1902c:	01460713          	addi	a4,a2,20
   19030:	00d587b3          	add	a5,a1,a3
   19034:	00d70733          	add	a4,a4,a3
   19038:	0080006f          	jal	zero,19040 <__mdiff+0x38>
   1903c:	18f5fc63          	bgeu	a1,a5,191d4 <__mdiff+0x1cc>
   19040:	ffc7a803          	lw	a6,-4(a5)
   19044:	ffc72683          	lw	a3,-4(a4)
   19048:	ffc78793          	addi	a5,a5,-4
   1904c:	ffc70713          	addi	a4,a4,-4
   19050:	fed806e3          	beq	a6,a3,1903c <__mdiff+0x34>
   19054:	1ad87263          	bgeu	a6,a3,191f8 <__mdiff+0x1f0>
   19058:	00100893          	addi	a7,zero,1
   1905c:	0180006f          	jal	zero,19074 <__mdiff+0x6c>
   19060:	fe08cce3          	blt	a7,zero,19058 <__mdiff+0x50>
   19064:	00060793          	addi	a5,a2,0
   19068:	00000893          	addi	a7,zero,0
   1906c:	00058613          	addi	a2,a1,0
   19070:	00078f13          	addi	t5,a5,0
   19074:	00462583          	lw	a1,4(a2)
   19078:	01e12623          	sw	t5,12(sp)
   1907c:	01112423          	sw	a7,8(sp)
   19080:	00c12223          	sw	a2,4(sp)
   19084:	c14ff0ef          	jal	ra,18498 <_Balloc>
   19088:	00412603          	lw	a2,4(sp)
   1908c:	00812883          	lw	a7,8(sp)
   19090:	00c12f03          	lw	t5,12(sp)
   19094:	18050863          	beq	a0,zero,19224 <__mdiff+0x21c>
   19098:	01062803          	lw	a6,16(a2)
   1909c:	010f2f83          	lw	t6,16(t5)
   190a0:	01460293          	addi	t0,a2,20
   190a4:	00281713          	slli	a4,a6,0x2
   190a8:	002f9f93          	slli	t6,t6,0x2
   190ac:	014f0613          	addi	a2,t5,20
   190b0:	01450393          	addi	t2,a0,20
   190b4:	01152623          	sw	a7,12(a0)
   190b8:	00e28333          	add	t1,t0,a4
   190bc:	01f60fb3          	add	t6,a2,t6
   190c0:	00028e93          	addi	t4,t0,0
   190c4:	00038e13          	addi	t3,t2,0
   190c8:	00000893          	addi	a7,zero,0
   190cc:	000ea703          	lw	a4,0(t4)
   190d0:	00062683          	lw	a3,0(a2)
   190d4:	004e0e13          	addi	t3,t3,4
   190d8:	01071793          	slli	a5,a4,0x10
   190dc:	01069593          	slli	a1,a3,0x10
   190e0:	0107d793          	srli	a5,a5,0x10
   190e4:	0105d593          	srli	a1,a1,0x10
   190e8:	40b787b3          	sub	a5,a5,a1
   190ec:	011787b3          	add	a5,a5,a7
   190f0:	0106d693          	srli	a3,a3,0x10
   190f4:	01075713          	srli	a4,a4,0x10
   190f8:	40d70733          	sub	a4,a4,a3
   190fc:	4107d693          	srai	a3,a5,0x10
   19100:	00d70733          	add	a4,a4,a3
   19104:	01079793          	slli	a5,a5,0x10
   19108:	0107d793          	srli	a5,a5,0x10
   1910c:	01071693          	slli	a3,a4,0x10
   19110:	00d7e7b3          	or	a5,a5,a3
   19114:	00460613          	addi	a2,a2,4
   19118:	fefe2e23          	sw	a5,-4(t3)
   1911c:	004e8e93          	addi	t4,t4,4
   19120:	41075893          	srai	a7,a4,0x10
   19124:	fbf664e3          	bltu	a2,t6,190cc <__mdiff+0xc4>
   19128:	015f0693          	addi	a3,t5,21
   1912c:	00000713          	addi	a4,zero,0
   19130:	00dfe863          	bltu	t6,a3,19140 <__mdiff+0x138>
   19134:	41ef8fb3          	sub	t6,t6,t5
   19138:	febf8f93          	addi	t6,t6,-21
   1913c:	ffcff713          	andi	a4,t6,-4
   19140:	00e28eb3          	add	t4,t0,a4
   19144:	004e8e93          	addi	t4,t4,4
   19148:	00770733          	add	a4,a4,t2
   1914c:	40538e33          	sub	t3,t2,t0
   19150:	000e8613          	addi	a2,t4,0
   19154:	00470f13          	addi	t5,a4,4
   19158:	046efc63          	bgeu	t4,t1,191b0 <__mdiff+0x1a8>
   1915c:	00062683          	lw	a3,0(a2)
   19160:	01c605b3          	add	a1,a2,t3
   19164:	00460613          	addi	a2,a2,4
   19168:	01069713          	slli	a4,a3,0x10
   1916c:	01075713          	srli	a4,a4,0x10
   19170:	01170733          	add	a4,a4,a7
   19174:	011687b3          	add	a5,a3,a7
   19178:	41075713          	srai	a4,a4,0x10
   1917c:	0106d693          	srli	a3,a3,0x10
   19180:	00d70733          	add	a4,a4,a3
   19184:	01079793          	slli	a5,a5,0x10
   19188:	0107d793          	srli	a5,a5,0x10
   1918c:	01071693          	slli	a3,a4,0x10
   19190:	00d7e7b3          	or	a5,a5,a3
   19194:	00f5a023          	sw	a5,0(a1)
   19198:	41075893          	srai	a7,a4,0x10
   1919c:	fc6660e3          	bltu	a2,t1,1915c <__mdiff+0x154>
   191a0:	fff30713          	addi	a4,t1,-1
   191a4:	41d70733          	sub	a4,a4,t4
   191a8:	ffc77713          	andi	a4,a4,-4
   191ac:	01e70733          	add	a4,a4,t5
   191b0:	00079a63          	bne	a5,zero,191c4 <__mdiff+0x1bc>
   191b4:	ffc72783          	lw	a5,-4(a4)
   191b8:	ffc70713          	addi	a4,a4,-4
   191bc:	fff80813          	addi	a6,a6,-1
   191c0:	fe078ae3          	beq	a5,zero,191b4 <__mdiff+0x1ac>
   191c4:	01c12083          	lw	ra,28(sp)
   191c8:	01052823          	sw	a6,16(a0)
   191cc:	02010113          	addi	sp,sp,32
   191d0:	00008067          	jalr	zero,0(ra)
   191d4:	00000593          	addi	a1,zero,0
   191d8:	ac0ff0ef          	jal	ra,18498 <_Balloc>
   191dc:	02050663          	beq	a0,zero,19208 <__mdiff+0x200>
   191e0:	01c12083          	lw	ra,28(sp)
   191e4:	00100793          	addi	a5,zero,1
   191e8:	00052a23          	sw	zero,20(a0)
   191ec:	00f52823          	sw	a5,16(a0)
   191f0:	02010113          	addi	sp,sp,32
   191f4:	00008067          	jalr	zero,0(ra)
   191f8:	00060793          	addi	a5,a2,0
   191fc:	000f0613          	addi	a2,t5,0
   19200:	00078f13          	addi	t5,a5,0
   19204:	e71ff06f          	jal	zero,19074 <__mdiff+0x6c>
   19208:	000216b7          	lui	a3,0x21
   1920c:	00021537          	lui	a0,0x21
   19210:	c2468693          	addi	a3,a3,-988 # 20c24 <__clzsi2+0xe8>
   19214:	c8050513          	addi	a0,a0,-896 # 20c80 <__clzsi2+0x144>
   19218:	00000613          	addi	a2,zero,0
   1921c:	23700593          	addi	a1,zero,567
   19220:	0d4010ef          	jal	ra,1a2f4 <__assert_func>
   19224:	000216b7          	lui	a3,0x21
   19228:	00021537          	lui	a0,0x21
   1922c:	c2468693          	addi	a3,a3,-988 # 20c24 <__clzsi2+0xe8>
   19230:	c8050513          	addi	a0,a0,-896 # 20c80 <__clzsi2+0x144>
   19234:	00000613          	addi	a2,zero,0
   19238:	24500593          	addi	a1,zero,581
   1923c:	0b8010ef          	jal	ra,1a2f4 <__assert_func>

00019240 <__ulp>:
   19240:	7ff007b7          	lui	a5,0x7ff00
   19244:	00b7f5b3          	and	a1,a5,a1
   19248:	fcc007b7          	lui	a5,0xfcc00
   1924c:	00f585b3          	add	a1,a1,a5
   19250:	00000793          	addi	a5,zero,0
   19254:	00b05663          	bge	zero,a1,19260 <__ulp+0x20>
   19258:	00078513          	addi	a0,a5,0 # fcc00000 <__BSS_END__+0xfcb4b5ac>
   1925c:	00008067          	jalr	zero,0(ra)
   19260:	40b005b3          	sub	a1,zero,a1
   19264:	4145d593          	srai	a1,a1,0x14
   19268:	01300793          	addi	a5,zero,19
   1926c:	00b7cc63          	blt	a5,a1,19284 <__ulp+0x44>
   19270:	000807b7          	lui	a5,0x80
   19274:	40b7d5b3          	sra	a1,a5,a1
   19278:	00000793          	addi	a5,zero,0
   1927c:	00078513          	addi	a0,a5,0 # 80000 <input_data+0x5f2ec>
   19280:	00008067          	jalr	zero,0(ra)
   19284:	fec58593          	addi	a1,a1,-20
   19288:	01e00713          	addi	a4,zero,30
   1928c:	00100793          	addi	a5,zero,1
   19290:	00b74663          	blt	a4,a1,1929c <__ulp+0x5c>
   19294:	800007b7          	lui	a5,0x80000
   19298:	00b7d7b3          	srl	a5,a5,a1
   1929c:	00000593          	addi	a1,zero,0
   192a0:	00078513          	addi	a0,a5,0 # 80000000 <__BSS_END__+0x7ff4b5ac>
   192a4:	00008067          	jalr	zero,0(ra)

000192a8 <__b2d>:
   192a8:	fd010113          	addi	sp,sp,-48
   192ac:	02812423          	sw	s0,40(sp)
   192b0:	01052403          	lw	s0,16(a0)
   192b4:	02912223          	sw	s1,36(sp)
   192b8:	01450493          	addi	s1,a0,20
   192bc:	00241413          	slli	s0,s0,0x2
   192c0:	00848433          	add	s0,s1,s0
   192c4:	03212023          	sw	s2,32(sp)
   192c8:	ffc42903          	lw	s2,-4(s0)
   192cc:	01312e23          	sw	s3,28(sp)
   192d0:	00b12623          	sw	a1,12(sp)
   192d4:	00090513          	addi	a0,s2,0
   192d8:	02112623          	sw	ra,44(sp)
   192dc:	d24ff0ef          	jal	ra,18800 <__hi0bits>
   192e0:	00c12583          	lw	a1,12(sp)
   192e4:	02000713          	addi	a4,zero,32
   192e8:	40a707b3          	sub	a5,a4,a0
   192ec:	00f5a023          	sw	a5,0(a1)
   192f0:	00a00793          	addi	a5,zero,10
   192f4:	ffc40993          	addi	s3,s0,-4
   192f8:	08a7da63          	bge	a5,a0,1938c <__b2d+0xe4>
   192fc:	ff550613          	addi	a2,a0,-11
   19300:	0534f063          	bgeu	s1,s3,19340 <__b2d+0x98>
   19304:	ff842783          	lw	a5,-8(s0)
   19308:	04060c63          	beq	a2,zero,19360 <__b2d+0xb8>
   1930c:	40c706b3          	sub	a3,a4,a2
   19310:	00d7d733          	srl	a4,a5,a3
   19314:	00c91933          	sll	s2,s2,a2
   19318:	00e96933          	or	s2,s2,a4
   1931c:	00c797b3          	sll	a5,a5,a2
   19320:	3ff00737          	lui	a4,0x3ff00
   19324:	ff840613          	addi	a2,s0,-8
   19328:	00e96733          	or	a4,s2,a4
   1932c:	02c4fe63          	bgeu	s1,a2,19368 <__b2d+0xc0>
   19330:	ff442603          	lw	a2,-12(s0)
   19334:	00d656b3          	srl	a3,a2,a3
   19338:	00d7e7b3          	or	a5,a5,a3
   1933c:	02c0006f          	jal	zero,19368 <__b2d+0xc0>
   19340:	00b00793          	addi	a5,zero,11
   19344:	00f50c63          	beq	a0,a5,1935c <__b2d+0xb4>
   19348:	00c91933          	sll	s2,s2,a2
   1934c:	3ff00737          	lui	a4,0x3ff00
   19350:	00e96733          	or	a4,s2,a4
   19354:	00000793          	addi	a5,zero,0
   19358:	0100006f          	jal	zero,19368 <__b2d+0xc0>
   1935c:	00000793          	addi	a5,zero,0
   19360:	3ff00737          	lui	a4,0x3ff00
   19364:	00e96733          	or	a4,s2,a4
   19368:	02c12083          	lw	ra,44(sp)
   1936c:	02812403          	lw	s0,40(sp)
   19370:	02412483          	lw	s1,36(sp)
   19374:	02012903          	lw	s2,32(sp)
   19378:	01c12983          	lw	s3,28(sp)
   1937c:	00078513          	addi	a0,a5,0
   19380:	00070593          	addi	a1,a4,0 # 3ff00000 <__BSS_END__+0x3fe4b5ac>
   19384:	03010113          	addi	sp,sp,48
   19388:	00008067          	jalr	zero,0(ra)
   1938c:	00b00693          	addi	a3,zero,11
   19390:	40a686b3          	sub	a3,a3,a0
   19394:	3ff007b7          	lui	a5,0x3ff00
   19398:	00d95733          	srl	a4,s2,a3
   1939c:	00f76733          	or	a4,a4,a5
   193a0:	00000793          	addi	a5,zero,0
   193a4:	0134f663          	bgeu	s1,s3,193b0 <__b2d+0x108>
   193a8:	ff842783          	lw	a5,-8(s0)
   193ac:	00d7d7b3          	srl	a5,a5,a3
   193b0:	01550513          	addi	a0,a0,21
   193b4:	00a91933          	sll	s2,s2,a0
   193b8:	00f967b3          	or	a5,s2,a5
   193bc:	fadff06f          	jal	zero,19368 <__b2d+0xc0>

000193c0 <__d2b>:
   193c0:	fc010113          	addi	sp,sp,-64
   193c4:	03212823          	sw	s2,48(sp)
   193c8:	00058913          	addi	s2,a1,0
   193cc:	00100593          	addi	a1,zero,1
   193d0:	03312623          	sw	s3,44(sp)
   193d4:	03412423          	sw	s4,40(sp)
   193d8:	00c12623          	sw	a2,12(sp)
   193dc:	02112e23          	sw	ra,60(sp)
   193e0:	02812c23          	sw	s0,56(sp)
   193e4:	02912a23          	sw	s1,52(sp)
   193e8:	00068a13          	addi	s4,a3,0
   193ec:	00070993          	addi	s3,a4,0
   193f0:	8a8ff0ef          	jal	ra,18498 <_Balloc>
   193f4:	00c12603          	lw	a2,12(sp)
   193f8:	0e050a63          	beq	a0,zero,194ec <__d2b+0x12c>
   193fc:	01465413          	srli	s0,a2,0x14
   19400:	00100737          	lui	a4,0x100
   19404:	fff70793          	addi	a5,a4,-1 # fffff <__BSS_END__+0x4b5ab>
   19408:	7ff47413          	andi	s0,s0,2047
   1940c:	00050493          	addi	s1,a0,0
   19410:	00c7f633          	and	a2,a5,a2
   19414:	00040463          	beq	s0,zero,1941c <__d2b+0x5c>
   19418:	00e66633          	or	a2,a2,a4
   1941c:	00c12e23          	sw	a2,28(sp)
   19420:	06091063          	bne	s2,zero,19480 <__d2b+0xc0>
   19424:	01c10513          	addi	a0,sp,28
   19428:	c64ff0ef          	jal	ra,1888c <__lo0bits>
   1942c:	01c12683          	lw	a3,28(sp)
   19430:	00100913          	addi	s2,zero,1
   19434:	0124a823          	sw	s2,16(s1)
   19438:	00d4aa23          	sw	a3,20(s1)
   1943c:	02050713          	addi	a4,a0,32
   19440:	08040463          	beq	s0,zero,194c8 <__d2b+0x108>
   19444:	bcd40413          	addi	s0,s0,-1075
   19448:	00e40433          	add	s0,s0,a4
   1944c:	03500793          	addi	a5,zero,53
   19450:	008a2023          	sw	s0,0(s4)
   19454:	40e78533          	sub	a0,a5,a4
   19458:	03c12083          	lw	ra,60(sp)
   1945c:	03812403          	lw	s0,56(sp)
   19460:	00a9a023          	sw	a0,0(s3)
   19464:	03012903          	lw	s2,48(sp)
   19468:	02c12983          	lw	s3,44(sp)
   1946c:	02812a03          	lw	s4,40(sp)
   19470:	00048513          	addi	a0,s1,0
   19474:	03412483          	lw	s1,52(sp)
   19478:	04010113          	addi	sp,sp,64
   1947c:	00008067          	jalr	zero,0(ra)
   19480:	01810513          	addi	a0,sp,24
   19484:	01212c23          	sw	s2,24(sp)
   19488:	c04ff0ef          	jal	ra,1888c <__lo0bits>
   1948c:	01c12683          	lw	a3,28(sp)
   19490:	01812603          	lw	a2,24(sp)
   19494:	00050713          	addi	a4,a0,0
   19498:	00050c63          	beq	a0,zero,194b0 <__d2b+0xf0>
   1949c:	02000793          	addi	a5,zero,32
   194a0:	40a787b3          	sub	a5,a5,a0
   194a4:	00f697b3          	sll	a5,a3,a5
   194a8:	00f66633          	or	a2,a2,a5
   194ac:	00a6d6b3          	srl	a3,a3,a0
   194b0:	00d03933          	sltu	s2,zero,a3
   194b4:	00190913          	addi	s2,s2,1
   194b8:	00c4aa23          	sw	a2,20(s1)
   194bc:	00d4ac23          	sw	a3,24(s1)
   194c0:	0124a823          	sw	s2,16(s1)
   194c4:	f80410e3          	bne	s0,zero,19444 <__d2b+0x84>
   194c8:	00291693          	slli	a3,s2,0x2
   194cc:	00d486b3          	add	a3,s1,a3
   194d0:	0106a503          	lw	a0,16(a3)
   194d4:	bce70713          	addi	a4,a4,-1074
   194d8:	00ea2023          	sw	a4,0(s4)
   194dc:	b24ff0ef          	jal	ra,18800 <__hi0bits>
   194e0:	00591793          	slli	a5,s2,0x5
   194e4:	40a78533          	sub	a0,a5,a0
   194e8:	f71ff06f          	jal	zero,19458 <__d2b+0x98>
   194ec:	000216b7          	lui	a3,0x21
   194f0:	00021537          	lui	a0,0x21
   194f4:	c2468693          	addi	a3,a3,-988 # 20c24 <__clzsi2+0xe8>
   194f8:	c8050513          	addi	a0,a0,-896 # 20c80 <__clzsi2+0x144>
   194fc:	00000613          	addi	a2,zero,0
   19500:	30f00593          	addi	a1,zero,783
   19504:	5f1000ef          	jal	ra,1a2f4 <__assert_func>

00019508 <__ratio>:
   19508:	fd010113          	addi	sp,sp,-48
   1950c:	03212023          	sw	s2,32(sp)
   19510:	00058913          	addi	s2,a1,0
   19514:	00810593          	addi	a1,sp,8
   19518:	02112623          	sw	ra,44(sp)
   1951c:	02812423          	sw	s0,40(sp)
   19520:	02912223          	sw	s1,36(sp)
   19524:	01312e23          	sw	s3,28(sp)
   19528:	00050993          	addi	s3,a0,0
   1952c:	d7dff0ef          	jal	ra,192a8 <__b2d>
   19530:	00050493          	addi	s1,a0,0
   19534:	00058413          	addi	s0,a1,0
   19538:	00090513          	addi	a0,s2,0
   1953c:	00c10593          	addi	a1,sp,12
   19540:	d69ff0ef          	jal	ra,192a8 <__b2d>
   19544:	0109a783          	lw	a5,16(s3)
   19548:	01092603          	lw	a2,16(s2)
   1954c:	00812703          	lw	a4,8(sp)
   19550:	00c12683          	lw	a3,12(sp)
   19554:	40c787b3          	sub	a5,a5,a2
   19558:	00579793          	slli	a5,a5,0x5
   1955c:	40d70733          	sub	a4,a4,a3
   19560:	00e787b3          	add	a5,a5,a4
   19564:	02f05e63          	bge	zero,a5,195a0 <__ratio+0x98>
   19568:	01479793          	slli	a5,a5,0x14
   1956c:	00878433          	add	s0,a5,s0
   19570:	00050613          	addi	a2,a0,0
   19574:	00058693          	addi	a3,a1,0
   19578:	00048513          	addi	a0,s1,0
   1957c:	00040593          	addi	a1,s0,0
   19580:	3f8030ef          	jal	ra,1c978 <__divdf3>
   19584:	02c12083          	lw	ra,44(sp)
   19588:	02812403          	lw	s0,40(sp)
   1958c:	02412483          	lw	s1,36(sp)
   19590:	02012903          	lw	s2,32(sp)
   19594:	01c12983          	lw	s3,28(sp)
   19598:	03010113          	addi	sp,sp,48
   1959c:	00008067          	jalr	zero,0(ra)
   195a0:	01479793          	slli	a5,a5,0x14
   195a4:	40f585b3          	sub	a1,a1,a5
   195a8:	fc9ff06f          	jal	zero,19570 <__ratio+0x68>

000195ac <_mprec_log10>:
   195ac:	ff010113          	addi	sp,sp,-16
   195b0:	01212023          	sw	s2,0(sp)
   195b4:	00112623          	sw	ra,12(sp)
   195b8:	01700793          	addi	a5,zero,23
   195bc:	00050913          	addi	s2,a0,0
   195c0:	04a7da63          	bge	a5,a0,19614 <_mprec_log10+0x68>
   195c4:	00812423          	sw	s0,8(sp)
   195c8:	00912223          	sw	s1,4(sp)
   195cc:	ed81a783          	lw	a5,-296(gp) # b46e8 <__SDATA_BEGIN__+0x30>
   195d0:	edc1a583          	lw	a1,-292(gp) # b46ec <__SDATA_BEGIN__+0x34>
   195d4:	ee01a403          	lw	s0,-288(gp) # b46f0 <__SDATA_BEGIN__+0x38>
   195d8:	ee41a483          	lw	s1,-284(gp) # b46f4 <__SDATA_BEGIN__+0x3c>
   195dc:	00078513          	addi	a0,a5,0 # 3ff00000 <__BSS_END__+0x3fe4b5ac>
   195e0:	00040613          	addi	a2,s0,0
   195e4:	00048693          	addi	a3,s1,0
   195e8:	47d030ef          	jal	ra,1d264 <__muldf3>
   195ec:	fff90913          	addi	s2,s2,-1
   195f0:	00050793          	addi	a5,a0,0
   195f4:	fe0914e3          	bne	s2,zero,195dc <_mprec_log10+0x30>
   195f8:	00812403          	lw	s0,8(sp)
   195fc:	00c12083          	lw	ra,12(sp)
   19600:	00412483          	lw	s1,4(sp)
   19604:	00012903          	lw	s2,0(sp)
   19608:	00078513          	addi	a0,a5,0
   1960c:	01010113          	addi	sp,sp,16
   19610:	00008067          	jalr	zero,0(ra)
   19614:	000b3737          	lui	a4,0xb3
   19618:	00351913          	slli	s2,a0,0x3
   1961c:	6d070713          	addi	a4,a4,1744 # b36d0 <__mprec_tens>
   19620:	01270733          	add	a4,a4,s2
   19624:	00072783          	lw	a5,0(a4)
   19628:	00c12083          	lw	ra,12(sp)
   1962c:	00472583          	lw	a1,4(a4)
   19630:	00012903          	lw	s2,0(sp)
   19634:	00078513          	addi	a0,a5,0
   19638:	01010113          	addi	sp,sp,16
   1963c:	00008067          	jalr	zero,0(ra)

00019640 <__copybits>:
   19640:	01062683          	lw	a3,16(a2)
   19644:	fff58593          	addi	a1,a1,-1
   19648:	4055d593          	srai	a1,a1,0x5
   1964c:	00158593          	addi	a1,a1,1
   19650:	00269693          	slli	a3,a3,0x2
   19654:	01460793          	addi	a5,a2,20
   19658:	00259593          	slli	a1,a1,0x2
   1965c:	00d786b3          	add	a3,a5,a3
   19660:	00b505b3          	add	a1,a0,a1
   19664:	02d7f863          	bgeu	a5,a3,19694 <__copybits+0x54>
   19668:	00050713          	addi	a4,a0,0
   1966c:	0007a803          	lw	a6,0(a5)
   19670:	00478793          	addi	a5,a5,4
   19674:	00470713          	addi	a4,a4,4
   19678:	ff072e23          	sw	a6,-4(a4)
   1967c:	fed7e8e3          	bltu	a5,a3,1966c <__copybits+0x2c>
   19680:	40c686b3          	sub	a3,a3,a2
   19684:	feb68693          	addi	a3,a3,-21
   19688:	ffc6f693          	andi	a3,a3,-4
   1968c:	00450513          	addi	a0,a0,4
   19690:	00a68533          	add	a0,a3,a0
   19694:	00b57863          	bgeu	a0,a1,196a4 <__copybits+0x64>
   19698:	00450513          	addi	a0,a0,4
   1969c:	fe052e23          	sw	zero,-4(a0)
   196a0:	feb56ce3          	bltu	a0,a1,19698 <__copybits+0x58>
   196a4:	00008067          	jalr	zero,0(ra)

000196a8 <__any_on>:
   196a8:	01052703          	lw	a4,16(a0)
   196ac:	4055d613          	srai	a2,a1,0x5
   196b0:	01450693          	addi	a3,a0,20
   196b4:	02c75263          	bge	a4,a2,196d8 <__any_on+0x30>
   196b8:	00271713          	slli	a4,a4,0x2
   196bc:	00e687b3          	add	a5,a3,a4
   196c0:	04f6f263          	bgeu	a3,a5,19704 <__any_on+0x5c>
   196c4:	ffc7a703          	lw	a4,-4(a5)
   196c8:	ffc78793          	addi	a5,a5,-4
   196cc:	fe070ae3          	beq	a4,zero,196c0 <__any_on+0x18>
   196d0:	00100513          	addi	a0,zero,1
   196d4:	00008067          	jalr	zero,0(ra)
   196d8:	00261793          	slli	a5,a2,0x2
   196dc:	00f687b3          	add	a5,a3,a5
   196e0:	fee650e3          	bge	a2,a4,196c0 <__any_on+0x18>
   196e4:	01f5f593          	andi	a1,a1,31
   196e8:	fc058ce3          	beq	a1,zero,196c0 <__any_on+0x18>
   196ec:	0007a603          	lw	a2,0(a5)
   196f0:	00100513          	addi	a0,zero,1
   196f4:	00b65733          	srl	a4,a2,a1
   196f8:	00b71733          	sll	a4,a4,a1
   196fc:	fce602e3          	beq	a2,a4,196c0 <__any_on+0x18>
   19700:	00008067          	jalr	zero,0(ra)
   19704:	00000513          	addi	a0,zero,0
   19708:	00008067          	jalr	zero,0(ra)

0001970c <_realloc_r>:
   1970c:	1e058863          	beq	a1,zero,198fc <_realloc_r+0x1f0>
   19710:	fe010113          	addi	sp,sp,-32
   19714:	00812c23          	sw	s0,24(sp)
   19718:	00912a23          	sw	s1,20(sp)
   1971c:	00058413          	addi	s0,a1,0
   19720:	00112e23          	sw	ra,28(sp)
   19724:	00050493          	addi	s1,a0,0
   19728:	00c12023          	sw	a2,0(sp)
   1972c:	d98f80ef          	jal	ra,11cc4 <__malloc_lock>
   19730:	00012583          	lw	a1,0(sp)
   19734:	01600713          	addi	a4,zero,22
   19738:	00b58793          	addi	a5,a1,11
   1973c:	12f77863          	bgeu	a4,a5,1986c <_realloc_r+0x160>
   19740:	ff87f793          	andi	a5,a5,-8
   19744:	00078693          	addi	a3,a5,0
   19748:	01f7d713          	srli	a4,a5,0x1f
   1974c:	1eb7e463          	bltu	a5,a1,19934 <_realloc_r+0x228>
   19750:	1e071263          	bne	a4,zero,19934 <_realloc_r+0x228>
   19754:	ffc42603          	lw	a2,-4(s0)
   19758:	ff840813          	addi	a6,s0,-8
   1975c:	ffc67713          	andi	a4,a2,-4
   19760:	12d75863          	bge	a4,a3,19890 <_realloc_r+0x184>
   19764:	000b4e37          	lui	t3,0xb4
   19768:	140e0e13          	addi	t3,t3,320 # b4140 <__malloc_av_>
   1976c:	008e2883          	lw	a7,8(t3)
   19770:	00e80333          	add	t1,a6,a4
   19774:	00432503          	lw	a0,4(t1)
   19778:	1e688063          	beq	a7,t1,19958 <_realloc_r+0x24c>
   1977c:	ffe57893          	andi	a7,a0,-2
   19780:	011308b3          	add	a7,t1,a7
   19784:	0048a883          	lw	a7,4(a7)
   19788:	0018f893          	andi	a7,a7,1
   1978c:	14089a63          	bne	a7,zero,198e0 <_realloc_r+0x1d4>
   19790:	ffc57513          	andi	a0,a0,-4
   19794:	00a708b3          	add	a7,a4,a0
   19798:	0ed8d263          	bge	a7,a3,1987c <_realloc_r+0x170>
   1979c:	00167613          	andi	a2,a2,1
   197a0:	02061463          	bne	a2,zero,197c8 <_realloc_r+0xbc>
   197a4:	ff842e83          	lw	t4,-8(s0)
   197a8:	41d80eb3          	sub	t4,a6,t4
   197ac:	004ea603          	lw	a2,4(t4)
   197b0:	ffc67613          	andi	a2,a2,-4
   197b4:	00c50533          	add	a0,a0,a2
   197b8:	00e508b3          	add	a7,a0,a4
   197bc:	32d8d463          	bge	a7,a3,19ae4 <_realloc_r+0x3d8>
   197c0:	00c708b3          	add	a7,a4,a2
   197c4:	28d8dc63          	bge	a7,a3,19a5c <_realloc_r+0x350>
   197c8:	00048513          	addi	a0,s1,0
   197cc:	00e12423          	sw	a4,8(sp)
   197d0:	01012223          	sw	a6,4(sp)
   197d4:	00f12023          	sw	a5,0(sp)
   197d8:	c75f70ef          	jal	ra,1144c <_malloc_r>
   197dc:	00012783          	lw	a5,0(sp)
   197e0:	00412803          	lw	a6,4(sp)
   197e4:	00812703          	lw	a4,8(sp)
   197e8:	00050693          	addi	a3,a0,0
   197ec:	44050863          	beq	a0,zero,19c3c <_realloc_r+0x530>
   197f0:	ffc42603          	lw	a2,-4(s0)
   197f4:	ff850593          	addi	a1,a0,-8
   197f8:	ffe67613          	andi	a2,a2,-2
   197fc:	00c80633          	add	a2,a6,a2
   19800:	22b60463          	beq	a2,a1,19a28 <_realloc_r+0x31c>
   19804:	ffc70613          	addi	a2,a4,-4
   19808:	02400793          	addi	a5,zero,36
   1980c:	2cc7e263          	bltu	a5,a2,19ad0 <_realloc_r+0x3c4>
   19810:	01300713          	addi	a4,zero,19
   19814:	22c76263          	bltu	a4,a2,19a38 <_realloc_r+0x32c>
   19818:	00050793          	addi	a5,a0,0
   1981c:	00040713          	addi	a4,s0,0
   19820:	00072603          	lw	a2,0(a4)
   19824:	00c7a023          	sw	a2,0(a5)
   19828:	00472603          	lw	a2,4(a4)
   1982c:	00c7a223          	sw	a2,4(a5)
   19830:	00872703          	lw	a4,8(a4)
   19834:	00e7a423          	sw	a4,8(a5)
   19838:	00040593          	addi	a1,s0,0
   1983c:	00048513          	addi	a0,s1,0
   19840:	00d12023          	sw	a3,0(sp)
   19844:	921f70ef          	jal	ra,11164 <_free_r>
   19848:	00048513          	addi	a0,s1,0
   1984c:	c7cf80ef          	jal	ra,11cc8 <__malloc_unlock>
   19850:	00012683          	lw	a3,0(sp)
   19854:	01c12083          	lw	ra,28(sp)
   19858:	01812403          	lw	s0,24(sp)
   1985c:	01412483          	lw	s1,20(sp)
   19860:	00068513          	addi	a0,a3,0
   19864:	02010113          	addi	sp,sp,32
   19868:	00008067          	jalr	zero,0(ra)
   1986c:	01000693          	addi	a3,zero,16
   19870:	00068793          	addi	a5,a3,0
   19874:	00000713          	addi	a4,zero,0
   19878:	ed5ff06f          	jal	zero,1974c <_realloc_r+0x40>
   1987c:	00c32683          	lw	a3,12(t1)
   19880:	00832603          	lw	a2,8(t1)
   19884:	00088713          	addi	a4,a7,0
   19888:	00d62623          	sw	a3,12(a2)
   1988c:	00c6a423          	sw	a2,8(a3)
   19890:	00482683          	lw	a3,4(a6)
   19894:	40f70533          	sub	a0,a4,a5
   19898:	00f00593          	addi	a1,zero,15
   1989c:	0016f693          	andi	a3,a3,1
   198a0:	00e80633          	add	a2,a6,a4
   198a4:	06a5e063          	bltu	a1,a0,19904 <_realloc_r+0x1f8>
   198a8:	00d766b3          	or	a3,a4,a3
   198ac:	00d82223          	sw	a3,4(a6)
   198b0:	00462783          	lw	a5,4(a2)
   198b4:	0017e793          	ori	a5,a5,1
   198b8:	00f62223          	sw	a5,4(a2)
   198bc:	00048513          	addi	a0,s1,0
   198c0:	c08f80ef          	jal	ra,11cc8 <__malloc_unlock>
   198c4:	00040693          	addi	a3,s0,0
   198c8:	01c12083          	lw	ra,28(sp)
   198cc:	01812403          	lw	s0,24(sp)
   198d0:	01412483          	lw	s1,20(sp)
   198d4:	00068513          	addi	a0,a3,0
   198d8:	02010113          	addi	sp,sp,32
   198dc:	00008067          	jalr	zero,0(ra)
   198e0:	00167613          	andi	a2,a2,1
   198e4:	ee0612e3          	bne	a2,zero,197c8 <_realloc_r+0xbc>
   198e8:	ff842e83          	lw	t4,-8(s0)
   198ec:	41d80eb3          	sub	t4,a6,t4
   198f0:	004ea603          	lw	a2,4(t4)
   198f4:	ffc67613          	andi	a2,a2,-4
   198f8:	ec9ff06f          	jal	zero,197c0 <_realloc_r+0xb4>
   198fc:	00060593          	addi	a1,a2,0
   19900:	b4df706f          	jal	zero,1144c <_malloc_r>
   19904:	00d7e6b3          	or	a3,a5,a3
   19908:	00d82223          	sw	a3,4(a6)
   1990c:	00f805b3          	add	a1,a6,a5
   19910:	00156513          	ori	a0,a0,1
   19914:	00a5a223          	sw	a0,4(a1)
   19918:	00462783          	lw	a5,4(a2)
   1991c:	00858593          	addi	a1,a1,8
   19920:	00048513          	addi	a0,s1,0
   19924:	0017e793          	ori	a5,a5,1
   19928:	00f62223          	sw	a5,4(a2)
   1992c:	839f70ef          	jal	ra,11164 <_free_r>
   19930:	f8dff06f          	jal	zero,198bc <_realloc_r+0x1b0>
   19934:	00c00793          	addi	a5,zero,12
   19938:	00f4a023          	sw	a5,0(s1)
   1993c:	00000693          	addi	a3,zero,0
   19940:	01c12083          	lw	ra,28(sp)
   19944:	01812403          	lw	s0,24(sp)
   19948:	01412483          	lw	s1,20(sp)
   1994c:	00068513          	addi	a0,a3,0
   19950:	02010113          	addi	sp,sp,32
   19954:	00008067          	jalr	zero,0(ra)
   19958:	ffc57513          	andi	a0,a0,-4
   1995c:	00e508b3          	add	a7,a0,a4
   19960:	01078313          	addi	t1,a5,16
   19964:	2468da63          	bge	a7,t1,19bb8 <_realloc_r+0x4ac>
   19968:	00167613          	andi	a2,a2,1
   1996c:	e4061ee3          	bne	a2,zero,197c8 <_realloc_r+0xbc>
   19970:	ff842e83          	lw	t4,-8(s0)
   19974:	41d80eb3          	sub	t4,a6,t4
   19978:	004ea603          	lw	a2,4(t4)
   1997c:	ffc67613          	andi	a2,a2,-4
   19980:	00c50533          	add	a0,a0,a2
   19984:	00e508b3          	add	a7,a0,a4
   19988:	e268cce3          	blt	a7,t1,197c0 <_realloc_r+0xb4>
   1998c:	00cea683          	lw	a3,12(t4)
   19990:	008ea583          	lw	a1,8(t4)
   19994:	ffc70613          	addi	a2,a4,-4
   19998:	02400713          	addi	a4,zero,36
   1999c:	00d5a623          	sw	a3,12(a1)
   199a0:	00b6a423          	sw	a1,8(a3)
   199a4:	008e8693          	addi	a3,t4,8
   199a8:	2ec76263          	bltu	a4,a2,19c8c <_realloc_r+0x580>
   199ac:	01300593          	addi	a1,zero,19
   199b0:	00068713          	addi	a4,a3,0
   199b4:	02c5f263          	bgeu	a1,a2,199d8 <_realloc_r+0x2cc>
   199b8:	00042583          	lw	a1,0(s0)
   199bc:	01b00713          	addi	a4,zero,27
   199c0:	00bea423          	sw	a1,8(t4)
   199c4:	00442583          	lw	a1,4(s0)
   199c8:	00bea623          	sw	a1,12(t4)
   199cc:	30c76a63          	bltu	a4,a2,19ce0 <_realloc_r+0x5d4>
   199d0:	00840413          	addi	s0,s0,8
   199d4:	010e8713          	addi	a4,t4,16
   199d8:	00042603          	lw	a2,0(s0)
   199dc:	00c72023          	sw	a2,0(a4)
   199e0:	00442603          	lw	a2,4(s0)
   199e4:	00c72223          	sw	a2,4(a4)
   199e8:	00842603          	lw	a2,8(s0)
   199ec:	00c72423          	sw	a2,8(a4)
   199f0:	00fe8633          	add	a2,t4,a5
   199f4:	40f88733          	sub	a4,a7,a5
   199f8:	00ce2423          	sw	a2,8(t3)
   199fc:	00176713          	ori	a4,a4,1
   19a00:	00e62223          	sw	a4,4(a2)
   19a04:	004ea703          	lw	a4,4(t4)
   19a08:	00048513          	addi	a0,s1,0
   19a0c:	00d12023          	sw	a3,0(sp)
   19a10:	00177713          	andi	a4,a4,1
   19a14:	00f767b3          	or	a5,a4,a5
   19a18:	00fea223          	sw	a5,4(t4)
   19a1c:	aacf80ef          	jal	ra,11cc8 <__malloc_unlock>
   19a20:	00012683          	lw	a3,0(sp)
   19a24:	ea5ff06f          	jal	zero,198c8 <_realloc_r+0x1bc>
   19a28:	ffc52683          	lw	a3,-4(a0)
   19a2c:	ffc6f693          	andi	a3,a3,-4
   19a30:	00d70733          	add	a4,a4,a3
   19a34:	e5dff06f          	jal	zero,19890 <_realloc_r+0x184>
   19a38:	00042583          	lw	a1,0(s0)
   19a3c:	01b00713          	addi	a4,zero,27
   19a40:	00b52023          	sw	a1,0(a0)
   19a44:	00442583          	lw	a1,4(s0)
   19a48:	00b52223          	sw	a1,4(a0)
   19a4c:	10c76e63          	bltu	a4,a2,19b68 <_realloc_r+0x45c>
   19a50:	00840713          	addi	a4,s0,8
   19a54:	00850793          	addi	a5,a0,8
   19a58:	dc9ff06f          	jal	zero,19820 <_realloc_r+0x114>
   19a5c:	00cea683          	lw	a3,12(t4)
   19a60:	008ea583          	lw	a1,8(t4)
   19a64:	ffc70613          	addi	a2,a4,-4
   19a68:	02400513          	addi	a0,zero,36
   19a6c:	00d5a623          	sw	a3,12(a1)
   19a70:	00b6a423          	sw	a1,8(a3)
   19a74:	008e8693          	addi	a3,t4,8
   19a78:	10c56863          	bltu	a0,a2,19b88 <_realloc_r+0x47c>
   19a7c:	01300593          	addi	a1,zero,19
   19a80:	00068713          	addi	a4,a3,0
   19a84:	02c5f263          	bgeu	a1,a2,19aa8 <_realloc_r+0x39c>
   19a88:	00042583          	lw	a1,0(s0)
   19a8c:	01b00713          	addi	a4,zero,27
   19a90:	00bea423          	sw	a1,8(t4)
   19a94:	00442583          	lw	a1,4(s0)
   19a98:	00bea623          	sw	a1,12(t4)
   19a9c:	18c76063          	bltu	a4,a2,19c1c <_realloc_r+0x510>
   19aa0:	00840413          	addi	s0,s0,8
   19aa4:	010e8713          	addi	a4,t4,16
   19aa8:	00042603          	lw	a2,0(s0)
   19aac:	00c72023          	sw	a2,0(a4)
   19ab0:	00442603          	lw	a2,4(s0)
   19ab4:	00c72223          	sw	a2,4(a4)
   19ab8:	00842603          	lw	a2,8(s0)
   19abc:	00c72423          	sw	a2,8(a4)
   19ac0:	00068413          	addi	s0,a3,0
   19ac4:	00088713          	addi	a4,a7,0
   19ac8:	000e8813          	addi	a6,t4,0
   19acc:	dc5ff06f          	jal	zero,19890 <_realloc_r+0x184>
   19ad0:	00040593          	addi	a1,s0,0
   19ad4:	00a12023          	sw	a0,0(sp)
   19ad8:	830fc0ef          	jal	ra,15b08 <memmove>
   19adc:	00012683          	lw	a3,0(sp)
   19ae0:	d59ff06f          	jal	zero,19838 <_realloc_r+0x12c>
   19ae4:	00c32683          	lw	a3,12(t1)
   19ae8:	00832583          	lw	a1,8(t1)
   19aec:	ffc70613          	addi	a2,a4,-4
   19af0:	02400513          	addi	a0,zero,36
   19af4:	00d5a623          	sw	a3,12(a1)
   19af8:	00b6a423          	sw	a1,8(a3)
   19afc:	00cea703          	lw	a4,12(t4)
   19b00:	008ea683          	lw	a3,8(t4)
   19b04:	008e8813          	addi	a6,t4,8
   19b08:	00e6a623          	sw	a4,12(a3)
   19b0c:	00d72423          	sw	a3,8(a4)
   19b10:	0cc56e63          	bltu	a0,a2,19bec <_realloc_r+0x4e0>
   19b14:	01300693          	addi	a3,zero,19
   19b18:	00080713          	addi	a4,a6,0
   19b1c:	02c6f263          	bgeu	a3,a2,19b40 <_realloc_r+0x434>
   19b20:	00042683          	lw	a3,0(s0)
   19b24:	01b00713          	addi	a4,zero,27
   19b28:	00dea423          	sw	a3,8(t4)
   19b2c:	00442683          	lw	a3,4(s0)
   19b30:	00dea623          	sw	a3,12(t4)
   19b34:	12c76a63          	bltu	a4,a2,19c68 <_realloc_r+0x55c>
   19b38:	00840413          	addi	s0,s0,8
   19b3c:	010e8713          	addi	a4,t4,16
   19b40:	00042683          	lw	a3,0(s0)
   19b44:	00d72023          	sw	a3,0(a4)
   19b48:	00442683          	lw	a3,4(s0)
   19b4c:	00d72223          	sw	a3,4(a4)
   19b50:	00842683          	lw	a3,8(s0)
   19b54:	00d72423          	sw	a3,8(a4)
   19b58:	00080413          	addi	s0,a6,0
   19b5c:	00088713          	addi	a4,a7,0
   19b60:	000e8813          	addi	a6,t4,0
   19b64:	d2dff06f          	jal	zero,19890 <_realloc_r+0x184>
   19b68:	00842703          	lw	a4,8(s0)
   19b6c:	00e52423          	sw	a4,8(a0)
   19b70:	00c42703          	lw	a4,12(s0)
   19b74:	00e52623          	sw	a4,12(a0)
   19b78:	0cf60a63          	beq	a2,a5,19c4c <_realloc_r+0x540>
   19b7c:	01040713          	addi	a4,s0,16
   19b80:	01050793          	addi	a5,a0,16
   19b84:	c9dff06f          	jal	zero,19820 <_realloc_r+0x114>
   19b88:	00068513          	addi	a0,a3,0
   19b8c:	00040593          	addi	a1,s0,0
   19b90:	01d12623          	sw	t4,12(sp)
   19b94:	00f12423          	sw	a5,8(sp)
   19b98:	01112223          	sw	a7,4(sp)
   19b9c:	00d12023          	sw	a3,0(sp)
   19ba0:	f69fb0ef          	jal	ra,15b08 <memmove>
   19ba4:	00c12e83          	lw	t4,12(sp)
   19ba8:	00812783          	lw	a5,8(sp)
   19bac:	00412883          	lw	a7,4(sp)
   19bb0:	00012683          	lw	a3,0(sp)
   19bb4:	f0dff06f          	jal	zero,19ac0 <_realloc_r+0x3b4>
   19bb8:	00f80833          	add	a6,a6,a5
   19bbc:	40f88733          	sub	a4,a7,a5
   19bc0:	010e2423          	sw	a6,8(t3)
   19bc4:	00176713          	ori	a4,a4,1
   19bc8:	00e82223          	sw	a4,4(a6)
   19bcc:	ffc42703          	lw	a4,-4(s0)
   19bd0:	00048513          	addi	a0,s1,0
   19bd4:	00177713          	andi	a4,a4,1
   19bd8:	00f767b3          	or	a5,a4,a5
   19bdc:	fef42e23          	sw	a5,-4(s0)
   19be0:	8e8f80ef          	jal	ra,11cc8 <__malloc_unlock>
   19be4:	00040693          	addi	a3,s0,0
   19be8:	ce1ff06f          	jal	zero,198c8 <_realloc_r+0x1bc>
   19bec:	00080513          	addi	a0,a6,0
   19bf0:	00040593          	addi	a1,s0,0
   19bf4:	01d12623          	sw	t4,12(sp)
   19bf8:	00f12423          	sw	a5,8(sp)
   19bfc:	01112223          	sw	a7,4(sp)
   19c00:	01012023          	sw	a6,0(sp)
   19c04:	f05fb0ef          	jal	ra,15b08 <memmove>
   19c08:	00012803          	lw	a6,0(sp)
   19c0c:	00412883          	lw	a7,4(sp)
   19c10:	00812783          	lw	a5,8(sp)
   19c14:	00c12e83          	lw	t4,12(sp)
   19c18:	f41ff06f          	jal	zero,19b58 <_realloc_r+0x44c>
   19c1c:	00842703          	lw	a4,8(s0)
   19c20:	00eea823          	sw	a4,16(t4)
   19c24:	00c42703          	lw	a4,12(s0)
   19c28:	00eeaa23          	sw	a4,20(t4)
   19c2c:	08a60c63          	beq	a2,a0,19cc4 <_realloc_r+0x5b8>
   19c30:	01040413          	addi	s0,s0,16
   19c34:	018e8713          	addi	a4,t4,24
   19c38:	e71ff06f          	jal	zero,19aa8 <_realloc_r+0x39c>
   19c3c:	00048513          	addi	a0,s1,0
   19c40:	888f80ef          	jal	ra,11cc8 <__malloc_unlock>
   19c44:	00000693          	addi	a3,zero,0
   19c48:	cf9ff06f          	jal	zero,19940 <_realloc_r+0x234>
   19c4c:	01042603          	lw	a2,16(s0)
   19c50:	01840713          	addi	a4,s0,24
   19c54:	01850793          	addi	a5,a0,24
   19c58:	00c52823          	sw	a2,16(a0)
   19c5c:	01442603          	lw	a2,20(s0)
   19c60:	00c52a23          	sw	a2,20(a0)
   19c64:	bbdff06f          	jal	zero,19820 <_realloc_r+0x114>
   19c68:	00842683          	lw	a3,8(s0)
   19c6c:	02400713          	addi	a4,zero,36
   19c70:	00dea823          	sw	a3,16(t4)
   19c74:	00c42683          	lw	a3,12(s0)
   19c78:	00deaa23          	sw	a3,20(t4)
   19c7c:	08e60463          	beq	a2,a4,19d04 <_realloc_r+0x5f8>
   19c80:	01040413          	addi	s0,s0,16
   19c84:	018e8713          	addi	a4,t4,24
   19c88:	eb9ff06f          	jal	zero,19b40 <_realloc_r+0x434>
   19c8c:	00068513          	addi	a0,a3,0
   19c90:	00040593          	addi	a1,s0,0
   19c94:	01d12623          	sw	t4,12(sp)
   19c98:	00f12423          	sw	a5,8(sp)
   19c9c:	01112223          	sw	a7,4(sp)
   19ca0:	00d12023          	sw	a3,0(sp)
   19ca4:	e65fb0ef          	jal	ra,15b08 <memmove>
   19ca8:	000b47b7          	lui	a5,0xb4
   19cac:	14078e13          	addi	t3,a5,320 # b4140 <__malloc_av_>
   19cb0:	00c12e83          	lw	t4,12(sp)
   19cb4:	00812783          	lw	a5,8(sp)
   19cb8:	00412883          	lw	a7,4(sp)
   19cbc:	00012683          	lw	a3,0(sp)
   19cc0:	d31ff06f          	jal	zero,199f0 <_realloc_r+0x2e4>
   19cc4:	01042603          	lw	a2,16(s0)
   19cc8:	020e8713          	addi	a4,t4,32
   19ccc:	01840413          	addi	s0,s0,24
   19cd0:	00ceac23          	sw	a2,24(t4)
   19cd4:	ffc42603          	lw	a2,-4(s0)
   19cd8:	00ceae23          	sw	a2,28(t4)
   19cdc:	dcdff06f          	jal	zero,19aa8 <_realloc_r+0x39c>
   19ce0:	00842583          	lw	a1,8(s0)
   19ce4:	02400713          	addi	a4,zero,36
   19ce8:	00bea823          	sw	a1,16(t4)
   19cec:	00c42583          	lw	a1,12(s0)
   19cf0:	00beaa23          	sw	a1,20(t4)
   19cf4:	02e60663          	beq	a2,a4,19d20 <_realloc_r+0x614>
   19cf8:	01040413          	addi	s0,s0,16
   19cfc:	018e8713          	addi	a4,t4,24
   19d00:	cd9ff06f          	jal	zero,199d8 <_realloc_r+0x2cc>
   19d04:	01042683          	lw	a3,16(s0)
   19d08:	020e8713          	addi	a4,t4,32
   19d0c:	01840413          	addi	s0,s0,24
   19d10:	00deac23          	sw	a3,24(t4)
   19d14:	ffc42683          	lw	a3,-4(s0)
   19d18:	00deae23          	sw	a3,28(t4)
   19d1c:	e25ff06f          	jal	zero,19b40 <_realloc_r+0x434>
   19d20:	01042603          	lw	a2,16(s0)
   19d24:	020e8713          	addi	a4,t4,32
   19d28:	01840413          	addi	s0,s0,24
   19d2c:	00ceac23          	sw	a2,24(t4)
   19d30:	ffc42603          	lw	a2,-4(s0)
   19d34:	00ceae23          	sw	a2,28(t4)
   19d38:	ca1ff06f          	jal	zero,199d8 <_realloc_r+0x2cc>

00019d3c <__smakebuf_r>:
   19d3c:	00c59783          	lh	a5,12(a1)
   19d40:	0027f713          	andi	a4,a5,2
   19d44:	00070e63          	beq	a4,zero,19d60 <__smakebuf_r+0x24>
   19d48:	04358793          	addi	a5,a1,67
   19d4c:	00100713          	addi	a4,zero,1
   19d50:	00f5a023          	sw	a5,0(a1)
   19d54:	00f5a823          	sw	a5,16(a1)
   19d58:	00e5aa23          	sw	a4,20(a1)
   19d5c:	00008067          	jalr	zero,0(ra)
   19d60:	00058713          	addi	a4,a1,0
   19d64:	00e59583          	lh	a1,14(a1)
   19d68:	f8010113          	addi	sp,sp,-128
   19d6c:	06812c23          	sw	s0,120(sp)
   19d70:	06112e23          	sw	ra,124(sp)
   19d74:	00050413          	addi	s0,a0,0
   19d78:	0805ce63          	blt	a1,zero,19e14 <__smakebuf_r+0xd8>
   19d7c:	01810613          	addi	a2,sp,24
   19d80:	00e12423          	sw	a4,8(sp)
   19d84:	334000ef          	jal	ra,1a0b8 <_fstat_r>
   19d88:	00812703          	lw	a4,8(sp)
   19d8c:	08054263          	blt	a0,zero,19e10 <__smakebuf_r+0xd4>
   19d90:	40000593          	addi	a1,zero,1024
   19d94:	00040513          	addi	a0,s0,0
   19d98:	06912a23          	sw	s1,116(sp)
   19d9c:	00e12423          	sw	a4,8(sp)
   19da0:	01c12483          	lw	s1,28(sp)
   19da4:	ea8f70ef          	jal	ra,1144c <_malloc_r>
   19da8:	00812703          	lw	a4,8(sp)
   19dac:	00c71783          	lh	a5,12(a4)
   19db0:	0c050263          	beq	a0,zero,19e74 <__smakebuf_r+0x138>
   19db4:	40000693          	addi	a3,zero,1024
   19db8:	0807e793          	ori	a5,a5,128
   19dbc:	00d72a23          	sw	a3,20(a4)
   19dc0:	40c4d693          	srai	a3,s1,0xc
   19dc4:	00f71623          	sh	a5,12(a4)
   19dc8:	00a72023          	sw	a0,0(a4)
   19dcc:	00a72823          	sw	a0,16(a4)
   19dd0:	00f6f693          	andi	a3,a3,15
   19dd4:	00200613          	addi	a2,zero,2
   19dd8:	0cc69663          	bne	a3,a2,19ea4 <__smakebuf_r+0x168>
   19ddc:	00e71583          	lh	a1,14(a4)
   19de0:	00040513          	addi	a0,s0,0
   19de4:	00e12423          	sw	a4,8(sp)
   19de8:	334000ef          	jal	ra,1a11c <_isatty_r>
   19dec:	00812703          	lw	a4,8(sp)
   19df0:	00c71783          	lh	a5,12(a4)
   19df4:	0a050863          	beq	a0,zero,19ea4 <__smakebuf_r+0x168>
   19df8:	ffc7f793          	andi	a5,a5,-4
   19dfc:	000016b7          	lui	a3,0x1
   19e00:	07412483          	lw	s1,116(sp)
   19e04:	0017e793          	ori	a5,a5,1
   19e08:	80068693          	addi	a3,a3,-2048 # 800 <exit-0xf8b4>
   19e0c:	0500006f          	jal	zero,19e5c <__smakebuf_r+0x120>
   19e10:	00c71783          	lh	a5,12(a4)
   19e14:	0807f793          	andi	a5,a5,128
   19e18:	0017b793          	sltiu	a5,a5,1
   19e1c:	40f007b3          	sub	a5,zero,a5
   19e20:	3c07f593          	andi	a1,a5,960
   19e24:	04058593          	addi	a1,a1,64
   19e28:	00040513          	addi	a0,s0,0
   19e2c:	00e12623          	sw	a4,12(sp)
   19e30:	00b12423          	sw	a1,8(sp)
   19e34:	e18f70ef          	jal	ra,1144c <_malloc_r>
   19e38:	00c12703          	lw	a4,12(sp)
   19e3c:	00812583          	lw	a1,8(sp)
   19e40:	00c71783          	lh	a5,12(a4)
   19e44:	02050a63          	beq	a0,zero,19e78 <__smakebuf_r+0x13c>
   19e48:	0807e793          	ori	a5,a5,128
   19e4c:	00a72023          	sw	a0,0(a4)
   19e50:	00a72823          	sw	a0,16(a4)
   19e54:	00b72a23          	sw	a1,20(a4)
   19e58:	00000693          	addi	a3,zero,0
   19e5c:	00d7e7b3          	or	a5,a5,a3
   19e60:	00f71623          	sh	a5,12(a4)
   19e64:	07c12083          	lw	ra,124(sp)
   19e68:	07812403          	lw	s0,120(sp)
   19e6c:	08010113          	addi	sp,sp,128
   19e70:	00008067          	jalr	zero,0(ra)
   19e74:	07412483          	lw	s1,116(sp)
   19e78:	2007f693          	andi	a3,a5,512
   19e7c:	fe0694e3          	bne	a3,zero,19e64 <__smakebuf_r+0x128>
   19e80:	ffc7f793          	andi	a5,a5,-4
   19e84:	04370693          	addi	a3,a4,67
   19e88:	0027e793          	ori	a5,a5,2
   19e8c:	00100613          	addi	a2,zero,1
   19e90:	00f71623          	sh	a5,12(a4)
   19e94:	00d72023          	sw	a3,0(a4)
   19e98:	00d72823          	sw	a3,16(a4)
   19e9c:	00c72a23          	sw	a2,20(a4)
   19ea0:	fc5ff06f          	jal	zero,19e64 <__smakebuf_r+0x128>
   19ea4:	000016b7          	lui	a3,0x1
   19ea8:	07412483          	lw	s1,116(sp)
   19eac:	80068693          	addi	a3,a3,-2048 # 800 <exit-0xf8b4>
   19eb0:	fadff06f          	jal	zero,19e5c <__smakebuf_r+0x120>

00019eb4 <__swhatbuf_r>:
   19eb4:	00058793          	addi	a5,a1,0
   19eb8:	00e59583          	lh	a1,14(a1)
   19ebc:	00060713          	addi	a4,a2,0
   19ec0:	0805ca63          	blt	a1,zero,19f54 <__swhatbuf_r+0xa0>
   19ec4:	f8010113          	addi	sp,sp,-128
   19ec8:	00c12423          	sw	a2,8(sp)
   19ecc:	01810613          	addi	a2,sp,24
   19ed0:	00d12623          	sw	a3,12(sp)
   19ed4:	00f12223          	sw	a5,4(sp)
   19ed8:	06112e23          	sw	ra,124(sp)
   19edc:	1dc000ef          	jal	ra,1a0b8 <_fstat_r>
   19ee0:	00412783          	lw	a5,4(sp)
   19ee4:	00812703          	lw	a4,8(sp)
   19ee8:	00c12683          	lw	a3,12(sp)
   19eec:	02054e63          	blt	a0,zero,19f28 <__swhatbuf_r+0x74>
   19ef0:	01c12783          	lw	a5,28(sp)
   19ef4:	0000f5b7          	lui	a1,0xf
   19ef8:	ffffe637          	lui	a2,0xffffe
   19efc:	00b7f7b3          	and	a5,a5,a1
   19f00:	00c787b3          	add	a5,a5,a2
   19f04:	07c12083          	lw	ra,124(sp)
   19f08:	0017b793          	sltiu	a5,a5,1
   19f0c:	00f6a023          	sw	a5,0(a3)
   19f10:	40000613          	addi	a2,zero,1024
   19f14:	00001537          	lui	a0,0x1
   19f18:	00c72023          	sw	a2,0(a4)
   19f1c:	80050513          	addi	a0,a0,-2048 # 800 <exit-0xf8b4>
   19f20:	08010113          	addi	sp,sp,128
   19f24:	00008067          	jalr	zero,0(ra)
   19f28:	00c7d783          	lhu	a5,12(a5)
   19f2c:	0807f793          	andi	a5,a5,128
   19f30:	04078263          	beq	a5,zero,19f74 <__swhatbuf_r+0xc0>
   19f34:	07c12083          	lw	ra,124(sp)
   19f38:	00000793          	addi	a5,zero,0
   19f3c:	00f6a023          	sw	a5,0(a3)
   19f40:	04000613          	addi	a2,zero,64
   19f44:	00c72023          	sw	a2,0(a4)
   19f48:	00000513          	addi	a0,zero,0
   19f4c:	08010113          	addi	sp,sp,128
   19f50:	00008067          	jalr	zero,0(ra)
   19f54:	00c7d783          	lhu	a5,12(a5)
   19f58:	0807f793          	andi	a5,a5,128
   19f5c:	02079a63          	bne	a5,zero,19f90 <__swhatbuf_r+0xdc>
   19f60:	40000613          	addi	a2,zero,1024
   19f64:	00f6a023          	sw	a5,0(a3)
   19f68:	00000513          	addi	a0,zero,0
   19f6c:	00c72023          	sw	a2,0(a4)
   19f70:	00008067          	jalr	zero,0(ra)
   19f74:	07c12083          	lw	ra,124(sp)
   19f78:	00f6a023          	sw	a5,0(a3)
   19f7c:	40000613          	addi	a2,zero,1024
   19f80:	00c72023          	sw	a2,0(a4)
   19f84:	00000513          	addi	a0,zero,0
   19f88:	08010113          	addi	sp,sp,128
   19f8c:	00008067          	jalr	zero,0(ra)
   19f90:	00000793          	addi	a5,zero,0
   19f94:	04000613          	addi	a2,zero,64
   19f98:	00f6a023          	sw	a5,0(a3)
   19f9c:	00000513          	addi	a0,zero,0
   19fa0:	00c72023          	sw	a2,0(a4)
   19fa4:	00008067          	jalr	zero,0(ra)

00019fa8 <_setlocale_r>:
   19fa8:	04060063          	beq	a2,zero,19fe8 <_setlocale_r+0x40>
   19fac:	000215b7          	lui	a1,0x21
   19fb0:	fe010113          	addi	sp,sp,-32
   19fb4:	cc858593          	addi	a1,a1,-824 # 20cc8 <__clzsi2+0x18c>
   19fb8:	00060513          	addi	a0,a2,0 # ffffe000 <__BSS_END__+0xfff495ac>
   19fbc:	00812c23          	sw	s0,24(sp)
   19fc0:	00112e23          	sw	ra,28(sp)
   19fc4:	00060413          	addi	s0,a2,0
   19fc8:	1b0000ef          	jal	ra,1a178 <strcmp>
   19fcc:	000217b7          	lui	a5,0x21
   19fd0:	02051263          	bne	a0,zero,19ff4 <_setlocale_r+0x4c>
   19fd4:	cc478513          	addi	a0,a5,-828 # 20cc4 <__clzsi2+0x188>
   19fd8:	01c12083          	lw	ra,28(sp)
   19fdc:	01812403          	lw	s0,24(sp)
   19fe0:	02010113          	addi	sp,sp,32
   19fe4:	00008067          	jalr	zero,0(ra)
   19fe8:	000217b7          	lui	a5,0x21
   19fec:	cc478513          	addi	a0,a5,-828 # 20cc4 <__clzsi2+0x188>
   19ff0:	00008067          	jalr	zero,0(ra)
   19ff4:	cc478593          	addi	a1,a5,-828
   19ff8:	00040513          	addi	a0,s0,0
   19ffc:	00f12623          	sw	a5,12(sp)
   1a000:	178000ef          	jal	ra,1a178 <strcmp>
   1a004:	00c12783          	lw	a5,12(sp)
   1a008:	fc0506e3          	beq	a0,zero,19fd4 <_setlocale_r+0x2c>
   1a00c:	000215b7          	lui	a1,0x21
   1a010:	00040513          	addi	a0,s0,0
   1a014:	bc058593          	addi	a1,a1,-1088 # 20bc0 <__clzsi2+0x84>
   1a018:	160000ef          	jal	ra,1a178 <strcmp>
   1a01c:	00c12783          	lw	a5,12(sp)
   1a020:	fa050ae3          	beq	a0,zero,19fd4 <_setlocale_r+0x2c>
   1a024:	00000513          	addi	a0,zero,0
   1a028:	fb1ff06f          	jal	zero,19fd8 <_setlocale_r+0x30>

0001a02c <__locale_mb_cur_max>:
   1a02c:	e601c503          	lbu	a0,-416(gp) # b4670 <__global_locale+0x128>
   1a030:	00008067          	jalr	zero,0(ra)

0001a034 <setlocale>:
   1a034:	04058063          	beq	a1,zero,1a074 <setlocale+0x40>
   1a038:	fe010113          	addi	sp,sp,-32
   1a03c:	00812c23          	sw	s0,24(sp)
   1a040:	00058513          	addi	a0,a1,0
   1a044:	00058413          	addi	s0,a1,0
   1a048:	000215b7          	lui	a1,0x21
   1a04c:	cc858593          	addi	a1,a1,-824 # 20cc8 <__clzsi2+0x18c>
   1a050:	00112e23          	sw	ra,28(sp)
   1a054:	124000ef          	jal	ra,1a178 <strcmp>
   1a058:	000217b7          	lui	a5,0x21
   1a05c:	02051263          	bne	a0,zero,1a080 <setlocale+0x4c>
   1a060:	cc478513          	addi	a0,a5,-828 # 20cc4 <__clzsi2+0x188>
   1a064:	01c12083          	lw	ra,28(sp)
   1a068:	01812403          	lw	s0,24(sp)
   1a06c:	02010113          	addi	sp,sp,32
   1a070:	00008067          	jalr	zero,0(ra)
   1a074:	000217b7          	lui	a5,0x21
   1a078:	cc478513          	addi	a0,a5,-828 # 20cc4 <__clzsi2+0x188>
   1a07c:	00008067          	jalr	zero,0(ra)
   1a080:	cc478593          	addi	a1,a5,-828
   1a084:	00040513          	addi	a0,s0,0
   1a088:	00f12623          	sw	a5,12(sp)
   1a08c:	0ec000ef          	jal	ra,1a178 <strcmp>
   1a090:	00c12783          	lw	a5,12(sp)
   1a094:	fc0506e3          	beq	a0,zero,1a060 <setlocale+0x2c>
   1a098:	000215b7          	lui	a1,0x21
   1a09c:	00040513          	addi	a0,s0,0
   1a0a0:	bc058593          	addi	a1,a1,-1088 # 20bc0 <__clzsi2+0x84>
   1a0a4:	0d4000ef          	jal	ra,1a178 <strcmp>
   1a0a8:	00c12783          	lw	a5,12(sp)
   1a0ac:	fa050ae3          	beq	a0,zero,1a060 <setlocale+0x2c>
   1a0b0:	00000513          	addi	a0,zero,0
   1a0b4:	fb1ff06f          	jal	zero,1a064 <setlocale+0x30>

0001a0b8 <_fstat_r>:
   1a0b8:	ff010113          	addi	sp,sp,-16
   1a0bc:	00058793          	addi	a5,a1,0
   1a0c0:	00812423          	sw	s0,8(sp)
   1a0c4:	00912223          	sw	s1,4(sp)
   1a0c8:	00060593          	addi	a1,a2,0
   1a0cc:	00050493          	addi	s1,a0,0
   1a0d0:	00078513          	addi	a0,a5,0
   1a0d4:	00112623          	sw	ra,12(sp)
   1a0d8:	f001ae23          	sw	zero,-228(gp) # b472c <errno>
   1a0dc:	6c9010ef          	jal	ra,1bfa4 <_fstat>
   1a0e0:	fff00793          	addi	a5,zero,-1
   1a0e4:	00f50c63          	beq	a0,a5,1a0fc <_fstat_r+0x44>
   1a0e8:	00c12083          	lw	ra,12(sp)
   1a0ec:	00812403          	lw	s0,8(sp)
   1a0f0:	00412483          	lw	s1,4(sp)
   1a0f4:	01010113          	addi	sp,sp,16
   1a0f8:	00008067          	jalr	zero,0(ra)
   1a0fc:	f1c1a783          	lw	a5,-228(gp) # b472c <errno>
   1a100:	fe0784e3          	beq	a5,zero,1a0e8 <_fstat_r+0x30>
   1a104:	00c12083          	lw	ra,12(sp)
   1a108:	00812403          	lw	s0,8(sp)
   1a10c:	00f4a023          	sw	a5,0(s1)
   1a110:	00412483          	lw	s1,4(sp)
   1a114:	01010113          	addi	sp,sp,16
   1a118:	00008067          	jalr	zero,0(ra)

0001a11c <_isatty_r>:
   1a11c:	ff010113          	addi	sp,sp,-16
   1a120:	00812423          	sw	s0,8(sp)
   1a124:	00912223          	sw	s1,4(sp)
   1a128:	00050493          	addi	s1,a0,0
   1a12c:	00058513          	addi	a0,a1,0
   1a130:	00112623          	sw	ra,12(sp)
   1a134:	f001ae23          	sw	zero,-228(gp) # b472c <errno>
   1a138:	6d5010ef          	jal	ra,1c00c <_isatty>
   1a13c:	fff00793          	addi	a5,zero,-1
   1a140:	00f50c63          	beq	a0,a5,1a158 <_isatty_r+0x3c>
   1a144:	00c12083          	lw	ra,12(sp)
   1a148:	00812403          	lw	s0,8(sp)
   1a14c:	00412483          	lw	s1,4(sp)
   1a150:	01010113          	addi	sp,sp,16
   1a154:	00008067          	jalr	zero,0(ra)
   1a158:	f1c1a783          	lw	a5,-228(gp) # b472c <errno>
   1a15c:	fe0784e3          	beq	a5,zero,1a144 <_isatty_r+0x28>
   1a160:	00c12083          	lw	ra,12(sp)
   1a164:	00812403          	lw	s0,8(sp)
   1a168:	00f4a023          	sw	a5,0(s1)
   1a16c:	00412483          	lw	s1,4(sp)
   1a170:	01010113          	addi	sp,sp,16
   1a174:	00008067          	jalr	zero,0(ra)

0001a178 <strcmp>:
   1a178:	00b56733          	or	a4,a0,a1
   1a17c:	fff00393          	addi	t2,zero,-1
   1a180:	00377713          	andi	a4,a4,3
   1a184:	10071063          	bne	a4,zero,1a284 <strcmp+0x10c>
   1a188:	7f7f87b7          	lui	a5,0x7f7f8
   1a18c:	f7f78793          	addi	a5,a5,-129 # 7f7f7f7f <__BSS_END__+0x7f74352b>
   1a190:	00052603          	lw	a2,0(a0)
   1a194:	0005a683          	lw	a3,0(a1)
   1a198:	00f672b3          	and	t0,a2,a5
   1a19c:	00f66333          	or	t1,a2,a5
   1a1a0:	00f282b3          	add	t0,t0,a5
   1a1a4:	0062e2b3          	or	t0,t0,t1
   1a1a8:	10729263          	bne	t0,t2,1a2ac <strcmp+0x134>
   1a1ac:	08d61663          	bne	a2,a3,1a238 <strcmp+0xc0>
   1a1b0:	00452603          	lw	a2,4(a0)
   1a1b4:	0045a683          	lw	a3,4(a1)
   1a1b8:	00f672b3          	and	t0,a2,a5
   1a1bc:	00f66333          	or	t1,a2,a5
   1a1c0:	00f282b3          	add	t0,t0,a5
   1a1c4:	0062e2b3          	or	t0,t0,t1
   1a1c8:	0c729e63          	bne	t0,t2,1a2a4 <strcmp+0x12c>
   1a1cc:	06d61663          	bne	a2,a3,1a238 <strcmp+0xc0>
   1a1d0:	00852603          	lw	a2,8(a0)
   1a1d4:	0085a683          	lw	a3,8(a1)
   1a1d8:	00f672b3          	and	t0,a2,a5
   1a1dc:	00f66333          	or	t1,a2,a5
   1a1e0:	00f282b3          	add	t0,t0,a5
   1a1e4:	0062e2b3          	or	t0,t0,t1
   1a1e8:	0c729863          	bne	t0,t2,1a2b8 <strcmp+0x140>
   1a1ec:	04d61663          	bne	a2,a3,1a238 <strcmp+0xc0>
   1a1f0:	00c52603          	lw	a2,12(a0)
   1a1f4:	00c5a683          	lw	a3,12(a1)
   1a1f8:	00f672b3          	and	t0,a2,a5
   1a1fc:	00f66333          	or	t1,a2,a5
   1a200:	00f282b3          	add	t0,t0,a5
   1a204:	0062e2b3          	or	t0,t0,t1
   1a208:	0c729263          	bne	t0,t2,1a2cc <strcmp+0x154>
   1a20c:	02d61663          	bne	a2,a3,1a238 <strcmp+0xc0>
   1a210:	01052603          	lw	a2,16(a0)
   1a214:	0105a683          	lw	a3,16(a1)
   1a218:	00f672b3          	and	t0,a2,a5
   1a21c:	00f66333          	or	t1,a2,a5
   1a220:	00f282b3          	add	t0,t0,a5
   1a224:	0062e2b3          	or	t0,t0,t1
   1a228:	0a729c63          	bne	t0,t2,1a2e0 <strcmp+0x168>
   1a22c:	01450513          	addi	a0,a0,20
   1a230:	01458593          	addi	a1,a1,20
   1a234:	f4d60ee3          	beq	a2,a3,1a190 <strcmp+0x18>
   1a238:	01061713          	slli	a4,a2,0x10
   1a23c:	01069793          	slli	a5,a3,0x10
   1a240:	00f71e63          	bne	a4,a5,1a25c <strcmp+0xe4>
   1a244:	01065713          	srli	a4,a2,0x10
   1a248:	0106d793          	srli	a5,a3,0x10
   1a24c:	40f70533          	sub	a0,a4,a5
   1a250:	0ff57593          	andi	a1,a0,255
   1a254:	02059063          	bne	a1,zero,1a274 <strcmp+0xfc>
   1a258:	00008067          	jalr	zero,0(ra)
   1a25c:	01075713          	srli	a4,a4,0x10
   1a260:	0107d793          	srli	a5,a5,0x10
   1a264:	40f70533          	sub	a0,a4,a5
   1a268:	0ff57593          	andi	a1,a0,255
   1a26c:	00059463          	bne	a1,zero,1a274 <strcmp+0xfc>
   1a270:	00008067          	jalr	zero,0(ra)
   1a274:	0ff77713          	andi	a4,a4,255
   1a278:	0ff7f793          	andi	a5,a5,255
   1a27c:	40f70533          	sub	a0,a4,a5
   1a280:	00008067          	jalr	zero,0(ra)
   1a284:	00054603          	lbu	a2,0(a0)
   1a288:	0005c683          	lbu	a3,0(a1)
   1a28c:	00150513          	addi	a0,a0,1
   1a290:	00158593          	addi	a1,a1,1
   1a294:	00d61463          	bne	a2,a3,1a29c <strcmp+0x124>
   1a298:	fe0616e3          	bne	a2,zero,1a284 <strcmp+0x10c>
   1a29c:	40d60533          	sub	a0,a2,a3
   1a2a0:	00008067          	jalr	zero,0(ra)
   1a2a4:	00450513          	addi	a0,a0,4
   1a2a8:	00458593          	addi	a1,a1,4
   1a2ac:	fcd61ce3          	bne	a2,a3,1a284 <strcmp+0x10c>
   1a2b0:	00000513          	addi	a0,zero,0
   1a2b4:	00008067          	jalr	zero,0(ra)
   1a2b8:	00850513          	addi	a0,a0,8
   1a2bc:	00858593          	addi	a1,a1,8
   1a2c0:	fcd612e3          	bne	a2,a3,1a284 <strcmp+0x10c>
   1a2c4:	00000513          	addi	a0,zero,0
   1a2c8:	00008067          	jalr	zero,0(ra)
   1a2cc:	00c50513          	addi	a0,a0,12
   1a2d0:	00c58593          	addi	a1,a1,12
   1a2d4:	fad618e3          	bne	a2,a3,1a284 <strcmp+0x10c>
   1a2d8:	00000513          	addi	a0,zero,0
   1a2dc:	00008067          	jalr	zero,0(ra)
   1a2e0:	01050513          	addi	a0,a0,16
   1a2e4:	01058593          	addi	a1,a1,16
   1a2e8:	f8d61ee3          	bne	a2,a3,1a284 <strcmp+0x10c>
   1a2ec:	00000513          	addi	a0,zero,0
   1a2f0:	00008067          	jalr	zero,0(ra)

0001a2f4 <__assert_func>:
   1a2f4:	f0c1a783          	lw	a5,-244(gp) # b471c <_impure_ptr>
   1a2f8:	ff010113          	addi	sp,sp,-16
   1a2fc:	00060813          	addi	a6,a2,0
   1a300:	00112623          	sw	ra,12(sp)
   1a304:	00050313          	addi	t1,a0,0
   1a308:	00058713          	addi	a4,a1,0
   1a30c:	00c7a503          	lw	a0,12(a5)
   1a310:	00068613          	addi	a2,a3,0
   1a314:	02080063          	beq	a6,zero,1a334 <__assert_func+0x40>
   1a318:	000217b7          	lui	a5,0x21
   1a31c:	cd478793          	addi	a5,a5,-812 # 20cd4 <__clzsi2+0x198>
   1a320:	000215b7          	lui	a1,0x21
   1a324:	00030693          	addi	a3,t1,0
   1a328:	ce458593          	addi	a1,a1,-796 # 20ce4 <__clzsi2+0x1a8>
   1a32c:	1ec000ef          	jal	ra,1a518 <fiprintf>
   1a330:	69c010ef          	jal	ra,1b9cc <abort>
   1a334:	000217b7          	lui	a5,0x21
   1a338:	bc078793          	addi	a5,a5,-1088 # 20bc0 <__clzsi2+0x84>
   1a33c:	00078813          	addi	a6,a5,0
   1a340:	fe1ff06f          	jal	zero,1a320 <__assert_func+0x2c>

0001a344 <__assert>:
   1a344:	ff010113          	addi	sp,sp,-16
   1a348:	00060693          	addi	a3,a2,0
   1a34c:	00000613          	addi	a2,zero,0
   1a350:	00112623          	sw	ra,12(sp)
   1a354:	fa1ff0ef          	jal	ra,1a2f4 <__assert_func>

0001a358 <_calloc_r>:
   1a358:	02c5b7b3          	mulhu	a5,a1,a2
   1a35c:	fe010113          	addi	sp,sp,-32
   1a360:	00112e23          	sw	ra,28(sp)
   1a364:	02c585b3          	mul	a1,a1,a2
   1a368:	0a079063          	bne	a5,zero,1a408 <_calloc_r+0xb0>
   1a36c:	8e0f70ef          	jal	ra,1144c <_malloc_r>
   1a370:	00050793          	addi	a5,a0,0
   1a374:	0a050063          	beq	a0,zero,1a414 <_calloc_r+0xbc>
   1a378:	ffc52603          	lw	a2,-4(a0)
   1a37c:	02400693          	addi	a3,zero,36
   1a380:	ffc67613          	andi	a2,a2,-4
   1a384:	ffc60613          	addi	a2,a2,-4
   1a388:	04c6e663          	bltu	a3,a2,1a3d4 <_calloc_r+0x7c>
   1a38c:	01300593          	addi	a1,zero,19
   1a390:	00050713          	addi	a4,a0,0
   1a394:	02c5f263          	bgeu	a1,a2,1a3b8 <_calloc_r+0x60>
   1a398:	00052023          	sw	zero,0(a0)
   1a39c:	00052223          	sw	zero,4(a0)
   1a3a0:	01b00713          	addi	a4,zero,27
   1a3a4:	04c77863          	bgeu	a4,a2,1a3f4 <_calloc_r+0x9c>
   1a3a8:	00052423          	sw	zero,8(a0)
   1a3ac:	00052623          	sw	zero,12(a0)
   1a3b0:	01050713          	addi	a4,a0,16
   1a3b4:	06d60a63          	beq	a2,a3,1a428 <_calloc_r+0xd0>
   1a3b8:	00072023          	sw	zero,0(a4)
   1a3bc:	00072223          	sw	zero,4(a4)
   1a3c0:	00072423          	sw	zero,8(a4)
   1a3c4:	01c12083          	lw	ra,28(sp)
   1a3c8:	00078513          	addi	a0,a5,0
   1a3cc:	02010113          	addi	sp,sp,32
   1a3d0:	00008067          	jalr	zero,0(ra)
   1a3d4:	00000593          	addi	a1,zero,0
   1a3d8:	00a12623          	sw	a0,12(sp)
   1a3dc:	a41f60ef          	jal	ra,10e1c <memset>
   1a3e0:	00c12783          	lw	a5,12(sp)
   1a3e4:	01c12083          	lw	ra,28(sp)
   1a3e8:	00078513          	addi	a0,a5,0
   1a3ec:	02010113          	addi	sp,sp,32
   1a3f0:	00008067          	jalr	zero,0(ra)
   1a3f4:	00850713          	addi	a4,a0,8
   1a3f8:	00072023          	sw	zero,0(a4)
   1a3fc:	00072223          	sw	zero,4(a4)
   1a400:	00072423          	sw	zero,8(a4)
   1a404:	fc1ff06f          	jal	zero,1a3c4 <_calloc_r+0x6c>
   1a408:	5bc010ef          	jal	ra,1b9c4 <__errno>
   1a40c:	00c00793          	addi	a5,zero,12
   1a410:	00f52023          	sw	a5,0(a0)
   1a414:	01c12083          	lw	ra,28(sp)
   1a418:	00000793          	addi	a5,zero,0
   1a41c:	00078513          	addi	a0,a5,0
   1a420:	02010113          	addi	sp,sp,32
   1a424:	00008067          	jalr	zero,0(ra)
   1a428:	00052823          	sw	zero,16(a0)
   1a42c:	00052a23          	sw	zero,20(a0)
   1a430:	01850713          	addi	a4,a0,24
   1a434:	f85ff06f          	jal	zero,1a3b8 <_calloc_r+0x60>

0001a438 <_mbtowc_r>:
   1a438:	e1c1a783          	lw	a5,-484(gp) # b462c <__global_locale+0xe4>
   1a43c:	00078067          	jalr	zero,0(a5)

0001a440 <__ascii_mbtowc>:
   1a440:	02058063          	beq	a1,zero,1a460 <__ascii_mbtowc+0x20>
   1a444:	04060263          	beq	a2,zero,1a488 <__ascii_mbtowc+0x48>
   1a448:	04068863          	beq	a3,zero,1a498 <__ascii_mbtowc+0x58>
   1a44c:	00064783          	lbu	a5,0(a2)
   1a450:	00f5a023          	sw	a5,0(a1)
   1a454:	00064503          	lbu	a0,0(a2)
   1a458:	00a03533          	sltu	a0,zero,a0
   1a45c:	00008067          	jalr	zero,0(ra)
   1a460:	ff010113          	addi	sp,sp,-16
   1a464:	00c10593          	addi	a1,sp,12
   1a468:	02060463          	beq	a2,zero,1a490 <__ascii_mbtowc+0x50>
   1a46c:	02068a63          	beq	a3,zero,1a4a0 <__ascii_mbtowc+0x60>
   1a470:	00064783          	lbu	a5,0(a2)
   1a474:	00f5a023          	sw	a5,0(a1)
   1a478:	00064503          	lbu	a0,0(a2)
   1a47c:	00a03533          	sltu	a0,zero,a0
   1a480:	01010113          	addi	sp,sp,16
   1a484:	00008067          	jalr	zero,0(ra)
   1a488:	00000513          	addi	a0,zero,0
   1a48c:	00008067          	jalr	zero,0(ra)
   1a490:	00000513          	addi	a0,zero,0
   1a494:	fedff06f          	jal	zero,1a480 <__ascii_mbtowc+0x40>
   1a498:	ffe00513          	addi	a0,zero,-2
   1a49c:	00008067          	jalr	zero,0(ra)
   1a4a0:	ffe00513          	addi	a0,zero,-2
   1a4a4:	fddff06f          	jal	zero,1a480 <__ascii_mbtowc+0x40>

0001a4a8 <_wctomb_r>:
   1a4a8:	e181a783          	lw	a5,-488(gp) # b4628 <__global_locale+0xe0>
   1a4ac:	00078067          	jalr	zero,0(a5)

0001a4b0 <__ascii_wctomb>:
   1a4b0:	02058463          	beq	a1,zero,1a4d8 <__ascii_wctomb+0x28>
   1a4b4:	0ff00793          	addi	a5,zero,255
   1a4b8:	00c7e863          	bltu	a5,a2,1a4c8 <__ascii_wctomb+0x18>
   1a4bc:	00c58023          	sb	a2,0(a1)
   1a4c0:	00100513          	addi	a0,zero,1
   1a4c4:	00008067          	jalr	zero,0(ra)
   1a4c8:	08a00793          	addi	a5,zero,138
   1a4cc:	00f52023          	sw	a5,0(a0)
   1a4d0:	fff00513          	addi	a0,zero,-1
   1a4d4:	00008067          	jalr	zero,0(ra)
   1a4d8:	00000513          	addi	a0,zero,0
   1a4dc:	00008067          	jalr	zero,0(ra)

0001a4e0 <_fiprintf_r>:
   1a4e0:	fc010113          	addi	sp,sp,-64
   1a4e4:	02c10313          	addi	t1,sp,44
   1a4e8:	02d12623          	sw	a3,44(sp)
   1a4ec:	00030693          	addi	a3,t1,0
   1a4f0:	00112e23          	sw	ra,28(sp)
   1a4f4:	02e12823          	sw	a4,48(sp)
   1a4f8:	02f12a23          	sw	a5,52(sp)
   1a4fc:	03012c23          	sw	a6,56(sp)
   1a500:	03112e23          	sw	a7,60(sp)
   1a504:	00612623          	sw	t1,12(sp)
   1a508:	060000ef          	jal	ra,1a568 <_vfiprintf_r>
   1a50c:	01c12083          	lw	ra,28(sp)
   1a510:	04010113          	addi	sp,sp,64
   1a514:	00008067          	jalr	zero,0(ra)

0001a518 <fiprintf>:
   1a518:	fc010113          	addi	sp,sp,-64
   1a51c:	00050e93          	addi	t4,a0,0
   1a520:	f0c1a503          	lw	a0,-244(gp) # b471c <_impure_ptr>
   1a524:	00058e13          	addi	t3,a1,0
   1a528:	02810313          	addi	t1,sp,40
   1a52c:	02c12423          	sw	a2,40(sp)
   1a530:	02d12623          	sw	a3,44(sp)
   1a534:	000e8593          	addi	a1,t4,0
   1a538:	000e0613          	addi	a2,t3,0
   1a53c:	00030693          	addi	a3,t1,0
   1a540:	00112e23          	sw	ra,28(sp)
   1a544:	02e12823          	sw	a4,48(sp)
   1a548:	02f12a23          	sw	a5,52(sp)
   1a54c:	03012c23          	sw	a6,56(sp)
   1a550:	03112e23          	sw	a7,60(sp)
   1a554:	00612623          	sw	t1,12(sp)
   1a558:	010000ef          	jal	ra,1a568 <_vfiprintf_r>
   1a55c:	01c12083          	lw	ra,28(sp)
   1a560:	04010113          	addi	sp,sp,64
   1a564:	00008067          	jalr	zero,0(ra)

0001a568 <_vfiprintf_r>:
   1a568:	ed010113          	addi	sp,sp,-304
   1a56c:	12912223          	sw	s1,292(sp)
   1a570:	11312e23          	sw	s3,284(sp)
   1a574:	11412c23          	sw	s4,280(sp)
   1a578:	11512a23          	sw	s5,276(sp)
   1a57c:	12112623          	sw	ra,300(sp)
   1a580:	11812423          	sw	s8,264(sp)
   1a584:	00050a93          	addi	s5,a0,0
   1a588:	00060493          	addi	s1,a2,0
   1a58c:	00068a13          	addi	s4,a3,0
   1a590:	00058993          	addi	s3,a1,0
   1a594:	00050863          	beq	a0,zero,1a5a4 <_vfiprintf_r+0x3c>
   1a598:	03452783          	lw	a5,52(a0)
   1a59c:	00079463          	bne	a5,zero,1a5a4 <_vfiprintf_r+0x3c>
   1a5a0:	0840106f          	jal	zero,1b624 <_vfiprintf_r+0x10bc>
   1a5a4:	00c99783          	lh	a5,12(s3)
   1a5a8:	0649a703          	lw	a4,100(s3)
   1a5ac:	00002637          	lui	a2,0x2
   1a5b0:	01279693          	slli	a3,a5,0x12
   1a5b4:	3406cc63          	blt	a3,zero,1a90c <_vfiprintf_r+0x3a4>
   1a5b8:	ffffe6b7          	lui	a3,0xffffe
   1a5bc:	00c7e7b3          	or	a5,a5,a2
   1a5c0:	fff68693          	addi	a3,a3,-1 # ffffdfff <__BSS_END__+0xfff495ab>
   1a5c4:	00d77733          	and	a4,a4,a3
   1a5c8:	00f99623          	sh	a5,12(s3)
   1a5cc:	01079793          	slli	a5,a5,0x10
   1a5d0:	4107d793          	srai	a5,a5,0x10
   1a5d4:	06e9a223          	sw	a4,100(s3)
   1a5d8:	0087f713          	andi	a4,a5,8
   1a5dc:	26070463          	beq	a4,zero,1a844 <_vfiprintf_r+0x2dc>
   1a5e0:	0109a703          	lw	a4,16(s3)
   1a5e4:	26070063          	beq	a4,zero,1a844 <_vfiprintf_r+0x2dc>
   1a5e8:	01a7f793          	andi	a5,a5,26
   1a5ec:	00a00713          	addi	a4,zero,10
   1a5f0:	26e78a63          	beq	a5,a4,1a864 <_vfiprintf_r+0x2fc>
   1a5f4:	11912223          	sw	s9,260(sp)
   1a5f8:	000b4cb7          	lui	s9,0xb4
   1a5fc:	11612823          	sw	s6,272(sp)
   1a600:	11712623          	sw	s7,268(sp)
   1a604:	04c10b13          	addi	s6,sp,76
   1a608:	000b4bb7          	lui	s7,0xb4
   1a60c:	89cc8713          	addi	a4,s9,-1892 # b389c <_ctype_+0x104>
   1a610:	13212023          	sw	s2,288(sp)
   1a614:	12812423          	sw	s0,296(sp)
   1a618:	11a12023          	sw	s10,256(sp)
   1a61c:	0fb12e23          	sw	s11,252(sp)
   1a620:	04012423          	sw	zero,72(sp)
   1a624:	04012223          	sw	zero,68(sp)
   1a628:	05612023          	sw	s6,64(sp)
   1a62c:	000b0793          	addi	a5,s6,0
   1a630:	00e12623          	sw	a4,12(sp)
   1a634:	a08b8b93          	addi	s7,s7,-1528 # b3a08 <zeroes.0>
   1a638:	00012823          	sw	zero,16(sp)
   1a63c:	02012023          	sw	zero,32(sp)
   1a640:	02012223          	sw	zero,36(sp)
   1a644:	00000c13          	addi	s8,zero,0
   1a648:	01000913          	addi	s2,zero,16
   1a64c:	0004c703          	lbu	a4,0(s1)
   1a650:	00048413          	addi	s0,s1,0
   1a654:	fdb70693          	addi	a3,a4,-37
   1a658:	04068e63          	beq	a3,zero,1a6b4 <_vfiprintf_r+0x14c>
   1a65c:	04070c63          	beq	a4,zero,1a6b4 <_vfiprintf_r+0x14c>
   1a660:	00040c93          	addi	s9,s0,0
   1a664:	00144703          	lbu	a4,1(s0)
   1a668:	00140413          	addi	s0,s0,1
   1a66c:	00070663          	beq	a4,zero,1a678 <_vfiprintf_r+0x110>
   1a670:	fdb70693          	addi	a3,a4,-37
   1a674:	fe0696e3          	bne	a3,zero,1a660 <_vfiprintf_r+0xf8>
   1a678:	40940d33          	sub	s10,s0,s1
   1a67c:	02940c63          	beq	s0,s1,1a6b4 <_vfiprintf_r+0x14c>
   1a680:	04812683          	lw	a3,72(sp)
   1a684:	04412703          	lw	a4,68(sp)
   1a688:	0097a023          	sw	s1,0(a5)
   1a68c:	01a686b3          	add	a3,a3,s10
   1a690:	00170713          	addi	a4,a4,1
   1a694:	01a7a223          	sw	s10,4(a5)
   1a698:	04d12423          	sw	a3,72(sp)
   1a69c:	04e12223          	sw	a4,68(sp)
   1a6a0:	00700693          	addi	a3,zero,7
   1a6a4:	00878793          	addi	a5,a5,8
   1a6a8:	1ee6ca63          	blt	a3,a4,1a89c <_vfiprintf_r+0x334>
   1a6ac:	001cc703          	lbu	a4,1(s9)
   1a6b0:	01ac0c33          	add	s8,s8,s10
   1a6b4:	20070263          	beq	a4,zero,1a8b8 <_vfiprintf_r+0x350>
   1a6b8:	00144683          	lbu	a3,1(s0)
   1a6bc:	00140493          	addi	s1,s0,1
   1a6c0:	02010da3          	sb	zero,59(sp)
   1a6c4:	fff00413          	addi	s0,zero,-1
   1a6c8:	00000c93          	addi	s9,zero,0
   1a6cc:	00000d13          	addi	s10,zero,0
   1a6d0:	05a00d93          	addi	s11,zero,90
   1a6d4:	00148493          	addi	s1,s1,1
   1a6d8:	fe068713          	addi	a4,a3,-32
   1a6dc:	04ede663          	bltu	s11,a4,1a728 <_vfiprintf_r+0x1c0>
   1a6e0:	00c12603          	lw	a2,12(sp)
   1a6e4:	00271713          	slli	a4,a4,0x2
   1a6e8:	00c70733          	add	a4,a4,a2
   1a6ec:	00072703          	lw	a4,0(a4)
   1a6f0:	00070067          	jalr	zero,0(a4)
   1a6f4:	fd068713          	addi	a4,a3,-48
   1a6f8:	00000c93          	addi	s9,zero,0
   1a6fc:	00900593          	addi	a1,zero,9
   1a700:	002c9613          	slli	a2,s9,0x2
   1a704:	0004c683          	lbu	a3,0(s1)
   1a708:	01960cb3          	add	s9,a2,s9
   1a70c:	001c9c93          	slli	s9,s9,0x1
   1a710:	01970cb3          	add	s9,a4,s9
   1a714:	fd068713          	addi	a4,a3,-48
   1a718:	00148493          	addi	s1,s1,1
   1a71c:	fee5f2e3          	bgeu	a1,a4,1a700 <_vfiprintf_r+0x198>
   1a720:	fe068713          	addi	a4,a3,-32
   1a724:	faedfee3          	bgeu	s11,a4,1a6e0 <_vfiprintf_r+0x178>
   1a728:	18068863          	beq	a3,zero,1a8b8 <_vfiprintf_r+0x350>
   1a72c:	00100313          	addi	t1,zero,1
   1a730:	08d10623          	sb	a3,140(sp)
   1a734:	02010da3          	sb	zero,59(sp)
   1a738:	00030813          	addi	a6,t1,0
   1a73c:	00000413          	addi	s0,zero,0
   1a740:	08c10d93          	addi	s11,sp,140
   1a744:	04812583          	lw	a1,72(sp)
   1a748:	04412603          	lw	a2,68(sp)
   1a74c:	084d7893          	andi	a7,s10,132
   1a750:	00058693          	addi	a3,a1,0
   1a754:	00060713          	addi	a4,a2,0 # 2000 <exit-0xe0b4>
   1a758:	06089c63          	bne	a7,zero,1a7d0 <_vfiprintf_r+0x268>
   1a75c:	410c8e33          	sub	t3,s9,a6
   1a760:	2dc044e3          	blt	zero,t3,1b228 <_vfiprintf_r+0xcc0>
   1a764:	03b14603          	lbu	a2,59(sp)
   1a768:	06060863          	beq	a2,zero,1a7d8 <_vfiprintf_r+0x270>
   1a76c:	00000893          	addi	a7,zero,0
   1a770:	00000e93          	addi	t4,zero,0
   1a774:	03b10613          	addi	a2,sp,59
   1a778:	00c7a023          	sw	a2,0(a5)
   1a77c:	00168693          	addi	a3,a3,1
   1a780:	00100613          	addi	a2,zero,1
   1a784:	00170713          	addi	a4,a4,1
   1a788:	00c7a223          	sw	a2,4(a5)
   1a78c:	04d12423          	sw	a3,72(sp)
   1a790:	04e12223          	sw	a4,68(sp)
   1a794:	00700613          	addi	a2,zero,7
   1a798:	00878793          	addi	a5,a5,8
   1a79c:	18e64063          	blt	a2,a4,1a91c <_vfiprintf_r+0x3b4>
   1a7a0:	020e8863          	beq	t4,zero,1a7d0 <_vfiprintf_r+0x268>
   1a7a4:	03c10613          	addi	a2,sp,60
   1a7a8:	00c7a023          	sw	a2,0(a5)
   1a7ac:	00268693          	addi	a3,a3,2
   1a7b0:	00200613          	addi	a2,zero,2
   1a7b4:	00170713          	addi	a4,a4,1
   1a7b8:	00c7a223          	sw	a2,4(a5)
   1a7bc:	04d12423          	sw	a3,72(sp)
   1a7c0:	04e12223          	sw	a4,68(sp)
   1a7c4:	00700613          	addi	a2,zero,7
   1a7c8:	00878793          	addi	a5,a5,8
   1a7cc:	1ce644e3          	blt	a2,a4,1b194 <_vfiprintf_r+0xc2c>
   1a7d0:	08000613          	addi	a2,zero,128
   1a7d4:	7ac88463          	beq	a7,a2,1af7c <_vfiprintf_r+0xa14>
   1a7d8:	40640433          	sub	s0,s0,t1
   1a7dc:	0a8040e3          	blt	zero,s0,1b07c <_vfiprintf_r+0xb14>
   1a7e0:	00d306b3          	add	a3,t1,a3
   1a7e4:	00170713          	addi	a4,a4,1
   1a7e8:	01b7a023          	sw	s11,0(a5)
   1a7ec:	0067a223          	sw	t1,4(a5)
   1a7f0:	04d12423          	sw	a3,72(sp)
   1a7f4:	04e12223          	sw	a4,68(sp)
   1a7f8:	00700613          	addi	a2,zero,7
   1a7fc:	00878793          	addi	a5,a5,8
   1a800:	14e64ae3          	blt	a2,a4,1b154 <_vfiprintf_r+0xbec>
   1a804:	004d7d13          	andi	s10,s10,4
   1a808:	000d0663          	beq	s10,zero,1a814 <_vfiprintf_r+0x2ac>
   1a80c:	410c8433          	sub	s0,s9,a6
   1a810:	14804863          	blt	zero,s0,1a960 <_vfiprintf_r+0x3f8>
   1a814:	010cd463          	bge	s9,a6,1a81c <_vfiprintf_r+0x2b4>
   1a818:	00080c93          	addi	s9,a6,0
   1a81c:	019c0c33          	add	s8,s8,s9
   1a820:	14069ee3          	bne	a3,zero,1b17c <_vfiprintf_r+0xc14>
   1a824:	04012223          	sw	zero,68(sp)
   1a828:	000b0793          	addi	a5,s6,0
   1a82c:	e21ff06f          	jal	zero,1a64c <_vfiprintf_r+0xe4>
   1a830:	0004c683          	lbu	a3,0(s1)
   1a834:	ea1ff06f          	jal	zero,1a6d4 <_vfiprintf_r+0x16c>
   1a838:	0004c683          	lbu	a3,0(s1)
   1a83c:	020d6d13          	ori	s10,s10,32
   1a840:	e95ff06f          	jal	zero,1a6d4 <_vfiprintf_r+0x16c>
   1a844:	00098593          	addi	a1,s3,0
   1a848:	000a8513          	addi	a0,s5,0
   1a84c:	f3dfa0ef          	jal	ra,15788 <__swsetup_r>
   1a850:	0c051263          	bne	a0,zero,1a914 <_vfiprintf_r+0x3ac>
   1a854:	00c99783          	lh	a5,12(s3)
   1a858:	00a00713          	addi	a4,zero,10
   1a85c:	01a7f793          	andi	a5,a5,26
   1a860:	d8e79ae3          	bne	a5,a4,1a5f4 <_vfiprintf_r+0x8c>
   1a864:	00e99783          	lh	a5,14(s3)
   1a868:	d807c6e3          	blt	a5,zero,1a5f4 <_vfiprintf_r+0x8c>
   1a86c:	12c12083          	lw	ra,300(sp)
   1a870:	10812c03          	lw	s8,264(sp)
   1a874:	000a0693          	addi	a3,s4,0
   1a878:	00048613          	addi	a2,s1,0
   1a87c:	11812a03          	lw	s4,280(sp)
   1a880:	12412483          	lw	s1,292(sp)
   1a884:	00098593          	addi	a1,s3,0
   1a888:	000a8513          	addi	a0,s5,0
   1a88c:	11c12983          	lw	s3,284(sp)
   1a890:	11412a83          	lw	s5,276(sp)
   1a894:	13010113          	addi	sp,sp,304
   1a898:	06c0106f          	jal	zero,1b904 <__sbprintf>
   1a89c:	04010613          	addi	a2,sp,64
   1a8a0:	00098593          	addi	a1,s3,0
   1a8a4:	000a8513          	addi	a0,s5,0
   1a8a8:	d80fa0ef          	jal	ra,14e28 <__sprint_r>
   1a8ac:	00051a63          	bne	a0,zero,1a8c0 <_vfiprintf_r+0x358>
   1a8b0:	000b0793          	addi	a5,s6,0
   1a8b4:	df9ff06f          	jal	zero,1a6ac <_vfiprintf_r+0x144>
   1a8b8:	04812783          	lw	a5,72(sp)
   1a8bc:	660794e3          	bne	a5,zero,1b724 <_vfiprintf_r+0x11bc>
   1a8c0:	00c9d783          	lhu	a5,12(s3)
   1a8c4:	12812403          	lw	s0,296(sp)
   1a8c8:	12012903          	lw	s2,288(sp)
   1a8cc:	0407f793          	andi	a5,a5,64
   1a8d0:	11012b03          	lw	s6,272(sp)
   1a8d4:	10c12b83          	lw	s7,268(sp)
   1a8d8:	10412c83          	lw	s9,260(sp)
   1a8dc:	10012d03          	lw	s10,256(sp)
   1a8e0:	0fc12d83          	lw	s11,252(sp)
   1a8e4:	02079863          	bne	a5,zero,1a914 <_vfiprintf_r+0x3ac>
   1a8e8:	12c12083          	lw	ra,300(sp)
   1a8ec:	12412483          	lw	s1,292(sp)
   1a8f0:	11c12983          	lw	s3,284(sp)
   1a8f4:	11812a03          	lw	s4,280(sp)
   1a8f8:	11412a83          	lw	s5,276(sp)
   1a8fc:	000c0513          	addi	a0,s8,0
   1a900:	10812c03          	lw	s8,264(sp)
   1a904:	13010113          	addi	sp,sp,304
   1a908:	00008067          	jalr	zero,0(ra)
   1a90c:	01271693          	slli	a3,a4,0x12
   1a910:	cc06d4e3          	bge	a3,zero,1a5d8 <_vfiprintf_r+0x70>
   1a914:	fff00c13          	addi	s8,zero,-1
   1a918:	fd1ff06f          	jal	zero,1a8e8 <_vfiprintf_r+0x380>
   1a91c:	04010613          	addi	a2,sp,64
   1a920:	00098593          	addi	a1,s3,0
   1a924:	000a8513          	addi	a0,s5,0
   1a928:	02612423          	sw	t1,40(sp)
   1a92c:	01112e23          	sw	a7,28(sp)
   1a930:	01d12c23          	sw	t4,24(sp)
   1a934:	01012a23          	sw	a6,20(sp)
   1a938:	cf0fa0ef          	jal	ra,14e28 <__sprint_r>
   1a93c:	f80512e3          	bne	a0,zero,1a8c0 <_vfiprintf_r+0x358>
   1a940:	04812683          	lw	a3,72(sp)
   1a944:	04412703          	lw	a4,68(sp)
   1a948:	02812303          	lw	t1,40(sp)
   1a94c:	01c12883          	lw	a7,28(sp)
   1a950:	01812e83          	lw	t4,24(sp)
   1a954:	01412803          	lw	a6,20(sp)
   1a958:	000b0793          	addi	a5,s6,0
   1a95c:	e45ff06f          	jal	zero,1a7a0 <_vfiprintf_r+0x238>
   1a960:	01000d13          	addi	s10,zero,16
   1a964:	04412703          	lw	a4,68(sp)
   1a968:	000b48b7          	lui	a7,0xb4
   1a96c:	728d54e3          	bge	s10,s0,1b894 <_vfiprintf_r+0x132c>
   1a970:	00912c23          	sw	s1,24(sp)
   1a974:	00700d93          	addi	s11,zero,7
   1a978:	01012a23          	sw	a6,20(sp)
   1a97c:	a1888493          	addi	s1,a7,-1512 # b3a18 <blanks.1>
   1a980:	00c0006f          	jal	zero,1a98c <_vfiprintf_r+0x424>
   1a984:	ff040413          	addi	s0,s0,-16
   1a988:	048d5663          	bge	s10,s0,1a9d4 <_vfiprintf_r+0x46c>
   1a98c:	01068693          	addi	a3,a3,16
   1a990:	00170713          	addi	a4,a4,1
   1a994:	0097a023          	sw	s1,0(a5)
   1a998:	01a7a223          	sw	s10,4(a5)
   1a99c:	04d12423          	sw	a3,72(sp)
   1a9a0:	04e12223          	sw	a4,68(sp)
   1a9a4:	00878793          	addi	a5,a5,8
   1a9a8:	fceddee3          	bge	s11,a4,1a984 <_vfiprintf_r+0x41c>
   1a9ac:	04010613          	addi	a2,sp,64
   1a9b0:	00098593          	addi	a1,s3,0
   1a9b4:	000a8513          	addi	a0,s5,0
   1a9b8:	c70fa0ef          	jal	ra,14e28 <__sprint_r>
   1a9bc:	f00512e3          	bne	a0,zero,1a8c0 <_vfiprintf_r+0x358>
   1a9c0:	ff040413          	addi	s0,s0,-16
   1a9c4:	04812683          	lw	a3,72(sp)
   1a9c8:	04412703          	lw	a4,68(sp)
   1a9cc:	000b0793          	addi	a5,s6,0
   1a9d0:	fa8d4ee3          	blt	s10,s0,1a98c <_vfiprintf_r+0x424>
   1a9d4:	00048893          	addi	a7,s1,0
   1a9d8:	01412803          	lw	a6,20(sp)
   1a9dc:	01812483          	lw	s1,24(sp)
   1a9e0:	008686b3          	add	a3,a3,s0
   1a9e4:	00170713          	addi	a4,a4,1
   1a9e8:	0117a023          	sw	a7,0(a5)
   1a9ec:	0087a223          	sw	s0,4(a5)
   1a9f0:	04d12423          	sw	a3,72(sp)
   1a9f4:	04e12223          	sw	a4,68(sp)
   1a9f8:	00700793          	addi	a5,zero,7
   1a9fc:	e0e7dce3          	bge	a5,a4,1a814 <_vfiprintf_r+0x2ac>
   1aa00:	04010613          	addi	a2,sp,64
   1aa04:	00098593          	addi	a1,s3,0
   1aa08:	000a8513          	addi	a0,s5,0
   1aa0c:	01012a23          	sw	a6,20(sp)
   1aa10:	c18fa0ef          	jal	ra,14e28 <__sprint_r>
   1aa14:	ea0516e3          	bne	a0,zero,1a8c0 <_vfiprintf_r+0x358>
   1aa18:	04812683          	lw	a3,72(sp)
   1aa1c:	01412803          	lw	a6,20(sp)
   1aa20:	df5ff06f          	jal	zero,1a814 <_vfiprintf_r+0x2ac>
   1aa24:	020d7713          	andi	a4,s10,32
   1aa28:	10071463          	bne	a4,zero,1ab30 <_vfiprintf_r+0x5c8>
   1aa2c:	010d7713          	andi	a4,s10,16
   1aa30:	000a2883          	lw	a7,0(s4)
   1aa34:	004a0593          	addi	a1,s4,4
   1aa38:	18071ee3          	bne	a4,zero,1b3d4 <_vfiprintf_r+0xe6c>
   1aa3c:	040d7713          	andi	a4,s10,64
   1aa40:	42070ee3          	beq	a4,zero,1b67c <_vfiprintf_r+0x1114>
   1aa44:	01089893          	slli	a7,a7,0x10
   1aa48:	4108d893          	srai	a7,a7,0x10
   1aa4c:	41f8d693          	srai	a3,a7,0x1f
   1aa50:	00058a13          	addi	s4,a1,0
   1aa54:	00068613          	addi	a2,a3,0
   1aa58:	0e064a63          	blt	a2,zero,1ab4c <_vfiprintf_r+0x5e4>
   1aa5c:	10044863          	blt	s0,zero,1ab6c <_vfiprintf_r+0x604>
   1aa60:	f7fd7d13          	andi	s10,s10,-129
   1aa64:	10041463          	bne	s0,zero,1ab6c <_vfiprintf_r+0x604>
   1aa68:	00d8e733          	or	a4,a7,a3
   1aa6c:	10071063          	bne	a4,zero,1ab6c <_vfiprintf_r+0x604>
   1aa70:	03b14703          	lbu	a4,59(sp)
   1aa74:	00000313          	addi	t1,zero,0
   1aa78:	00000413          	addi	s0,zero,0
   1aa7c:	0f010d93          	addi	s11,sp,240
   1aa80:	1e070c63          	beq	a4,zero,1ac78 <_vfiprintf_r+0x710>
   1aa84:	00100813          	addi	a6,zero,1
   1aa88:	04812683          	lw	a3,72(sp)
   1aa8c:	04412703          	lw	a4,68(sp)
   1aa90:	084d7893          	andi	a7,s10,132
   1aa94:	00068593          	addi	a1,a3,0
   1aa98:	00070613          	addi	a2,a4,0
   1aa9c:	cc0880e3          	beq	a7,zero,1a75c <_vfiprintf_r+0x1f4>
   1aaa0:	00000e93          	addi	t4,zero,0
   1aaa4:	cd1ff06f          	jal	zero,1a774 <_vfiprintf_r+0x20c>
   1aaa8:	000a2d83          	lw	s11,0(s4)
   1aaac:	02010da3          	sb	zero,59(sp)
   1aab0:	004a0a13          	addi	s4,s4,4
   1aab4:	3a0d84e3          	beq	s11,zero,1b65c <_vfiprintf_r+0x10f4>
   1aab8:	00f12a23          	sw	a5,20(sp)
   1aabc:	260440e3          	blt	s0,zero,1b51c <_vfiprintf_r+0xfb4>
   1aac0:	00040613          	addi	a2,s0,0
   1aac4:	00000593          	addi	a1,zero,0
   1aac8:	000d8513          	addi	a0,s11,0
   1aacc:	e21fa0ef          	jal	ra,158ec <memchr>
   1aad0:	03b14703          	lbu	a4,59(sp)
   1aad4:	01412783          	lw	a5,20(sp)
   1aad8:	5a0500e3          	beq	a0,zero,1b878 <_vfiprintf_r+0x1310>
   1aadc:	41b50333          	sub	t1,a0,s11
   1aae0:	fff34813          	xori	a6,t1,-1
   1aae4:	41f85813          	srai	a6,a6,0x1f
   1aae8:	01037833          	and	a6,t1,a6
   1aaec:	24070ae3          	beq	a4,zero,1b540 <_vfiprintf_r+0xfd8>
   1aaf0:	00180813          	addi	a6,a6,1
   1aaf4:	00000413          	addi	s0,zero,0
   1aaf8:	f91ff06f          	jal	zero,1aa88 <_vfiprintf_r+0x520>
   1aafc:	000a2703          	lw	a4,0(s4)
   1ab00:	00100313          	addi	t1,zero,1
   1ab04:	02010da3          	sb	zero,59(sp)
   1ab08:	08e10623          	sb	a4,140(sp)
   1ab0c:	004a0a13          	addi	s4,s4,4
   1ab10:	00030813          	addi	a6,t1,0
   1ab14:	00000413          	addi	s0,zero,0
   1ab18:	08c10d93          	addi	s11,sp,140
   1ab1c:	c29ff06f          	jal	zero,1a744 <_vfiprintf_r+0x1dc>
   1ab20:	020d7713          	andi	a4,s10,32
   1ab24:	004a0593          	addi	a1,s4,4
   1ab28:	010d6d13          	ori	s10,s10,16
   1ab2c:	0a0704e3          	beq	a4,zero,1b3d4 <_vfiprintf_r+0xe6c>
   1ab30:	007a0713          	addi	a4,s4,7
   1ab34:	ff877713          	andi	a4,a4,-8
   1ab38:	00472603          	lw	a2,4(a4)
   1ab3c:	00072883          	lw	a7,0(a4)
   1ab40:	00870a13          	addi	s4,a4,8
   1ab44:	00060693          	addi	a3,a2,0
   1ab48:	f0065ae3          	bge	a2,zero,1aa5c <_vfiprintf_r+0x4f4>
   1ab4c:	01103733          	sltu	a4,zero,a7
   1ab50:	40d006b3          	sub	a3,zero,a3
   1ab54:	40e686b3          	sub	a3,a3,a4
   1ab58:	02d00713          	addi	a4,zero,45
   1ab5c:	02e10da3          	sb	a4,59(sp)
   1ab60:	411008b3          	sub	a7,zero,a7
   1ab64:	00044463          	blt	s0,zero,1ab6c <_vfiprintf_r+0x604>
   1ab68:	f7fd7d13          	andi	s10,s10,-129
   1ab6c:	12069e63          	bne	a3,zero,1aca8 <_vfiprintf_r+0x740>
   1ab70:	00900713          	addi	a4,zero,9
   1ab74:	13176a63          	bltu	a4,a7,1aca8 <_vfiprintf_r+0x740>
   1ab78:	03088893          	addi	a7,a7,48
   1ab7c:	0f1107a3          	sb	a7,239(sp)
   1ab80:	00040813          	addi	a6,s0,0
   1ab84:	00804463          	blt	zero,s0,1ab8c <_vfiprintf_r+0x624>
   1ab88:	00100813          	addi	a6,zero,1
   1ab8c:	03b14703          	lbu	a4,59(sp)
   1ab90:	78071663          	bne	a4,zero,1b31c <_vfiprintf_r+0xdb4>
   1ab94:	00100313          	addi	t1,zero,1
   1ab98:	0ef10d93          	addi	s11,sp,239
   1ab9c:	ba9ff06f          	jal	zero,1a744 <_vfiprintf_r+0x1dc>
   1aba0:	000a2c83          	lw	s9,0(s4)
   1aba4:	760cd663          	bge	s9,zero,1b310 <_vfiprintf_r+0xda8>
   1aba8:	41900cb3          	sub	s9,zero,s9
   1abac:	004a0a13          	addi	s4,s4,4
   1abb0:	0004c683          	lbu	a3,0(s1)
   1abb4:	004d6d13          	ori	s10,s10,4
   1abb8:	b1dff06f          	jal	zero,1a6d4 <_vfiprintf_r+0x16c>
   1abbc:	02b00713          	addi	a4,zero,43
   1abc0:	0004c683          	lbu	a3,0(s1)
   1abc4:	02e10da3          	sb	a4,59(sp)
   1abc8:	b0dff06f          	jal	zero,1a6d4 <_vfiprintf_r+0x16c>
   1abcc:	020d7713          	andi	a4,s10,32
   1abd0:	010d6813          	ori	a6,s10,16
   1abd4:	004a0593          	addi	a1,s4,4
   1abd8:	7e070663          	beq	a4,zero,1b3c4 <_vfiprintf_r+0xe5c>
   1abdc:	007a0693          	addi	a3,s4,7
   1abe0:	ff86f693          	andi	a3,a3,-8
   1abe4:	0006a703          	lw	a4,0(a3)
   1abe8:	0046a603          	lw	a2,4(a3)
   1abec:	00868a13          	addi	s4,a3,8
   1abf0:	02010da3          	sb	zero,59(sp)
   1abf4:	bff87d13          	andi	s10,a6,-1025
   1abf8:	5c044c63          	blt	s0,zero,1b1d0 <_vfiprintf_r+0xc68>
   1abfc:	b7f87d13          	andi	s10,a6,-1153
   1ac00:	5c041863          	bne	s0,zero,1b1d0 <_vfiprintf_r+0xc68>
   1ac04:	00c766b3          	or	a3,a4,a2
   1ac08:	5c069463          	bne	a3,zero,1b1d0 <_vfiprintf_r+0xc68>
   1ac0c:	00187813          	andi	a6,a6,1
   1ac10:	040800e3          	beq	a6,zero,1b450 <_vfiprintf_r+0xee8>
   1ac14:	03000713          	addi	a4,zero,48
   1ac18:	0ee107a3          	sb	a4,239(sp)
   1ac1c:	00080313          	addi	t1,a6,0
   1ac20:	0ef10d93          	addi	s11,sp,239
   1ac24:	b21ff06f          	jal	zero,1a744 <_vfiprintf_r+0x1dc>
   1ac28:	0004c683          	lbu	a3,0(s1)
   1ac2c:	06800713          	addi	a4,zero,104
   1ac30:	1ee68ee3          	beq	a3,a4,1b62c <_vfiprintf_r+0x10c4>
   1ac34:	040d6d13          	ori	s10,s10,64
   1ac38:	a9dff06f          	jal	zero,1a6d4 <_vfiprintf_r+0x16c>
   1ac3c:	020d7713          	andi	a4,s10,32
   1ac40:	004a0593          	addi	a1,s4,4
   1ac44:	010d6d13          	ori	s10,s10,16
   1ac48:	04071063          	bne	a4,zero,1ac88 <_vfiprintf_r+0x720>
   1ac4c:	02010da3          	sb	zero,59(sp)
   1ac50:	000a2883          	lw	a7,0(s4)
   1ac54:	00000693          	addi	a3,zero,0
   1ac58:	00058a13          	addi	s4,a1,0
   1ac5c:	f0044ae3          	blt	s0,zero,1ab70 <_vfiprintf_r+0x608>
   1ac60:	00d8e733          	or	a4,a7,a3
   1ac64:	f7fd7d13          	andi	s10,s10,-129
   1ac68:	f00712e3          	bne	a4,zero,1ab6c <_vfiprintf_r+0x604>
   1ac6c:	f00410e3          	bne	s0,zero,1ab6c <_vfiprintf_r+0x604>
   1ac70:	00000313          	addi	t1,zero,0
   1ac74:	0f010d93          	addi	s11,sp,240
   1ac78:	00000813          	addi	a6,zero,0
   1ac7c:	ac9ff06f          	jal	zero,1a744 <_vfiprintf_r+0x1dc>
   1ac80:	020d7713          	andi	a4,s10,32
   1ac84:	6e070863          	beq	a4,zero,1b374 <_vfiprintf_r+0xe0c>
   1ac88:	007a0713          	addi	a4,s4,7
   1ac8c:	ff877713          	andi	a4,a4,-8
   1ac90:	02010da3          	sb	zero,59(sp)
   1ac94:	00072883          	lw	a7,0(a4)
   1ac98:	00472683          	lw	a3,4(a4)
   1ac9c:	00870a13          	addi	s4,a4,8
   1aca0:	fc0450e3          	bge	s0,zero,1ac60 <_vfiprintf_r+0x6f8>
   1aca4:	ec0686e3          	beq	a3,zero,1ab70 <_vfiprintf_r+0x608>
   1aca8:	ccccd837          	lui	a6,0xccccd
   1acac:	ccccd337          	lui	t1,0xccccd
   1acb0:	ccd80813          	addi	a6,a6,-819 # cccccccd <__BSS_END__+0xccc18279>
   1acb4:	ccc30313          	addi	t1,t1,-820 # cccccccc <__BSS_END__+0xccc18278>
   1acb8:	400d7e13          	andi	t3,s10,1024
   1acbc:	00000513          	addi	a0,zero,0
   1acc0:	0f010593          	addi	a1,sp,240
   1acc4:	07c0006f          	jal	zero,1ad40 <_vfiprintf_r+0x7d8>
   1acc8:	01012703          	lw	a4,16(sp)
   1accc:	00074703          	lbu	a4,0(a4)
   1acd0:	00a71663          	bne	a4,a0,1acdc <_vfiprintf_r+0x774>
   1acd4:	f0170713          	addi	a4,a4,-255
   1acd8:	10071ee3          	bne	a4,zero,1b5f4 <_vfiprintf_r+0x108c>
   1acdc:	00088e93          	addi	t4,a7,0
   1ace0:	00068613          	addi	a2,a3,0
   1ace4:	000d8593          	addi	a1,s11,0
   1ace8:	00d88733          	add	a4,a7,a3
   1acec:	01173f33          	sltu	t5,a4,a7
   1acf0:	01e70733          	add	a4,a4,t5
   1acf4:	03073f33          	mulhu	t5,a4,a6
   1acf8:	002f5f93          	srli	t6,t5,0x2
   1acfc:	ffcf7f13          	andi	t5,t5,-4
   1ad00:	01ff0f33          	add	t5,t5,t6
   1ad04:	41e70733          	sub	a4,a4,t5
   1ad08:	40e88733          	sub	a4,a7,a4
   1ad0c:	00e8b8b3          	sltu	a7,a7,a4
   1ad10:	411686b3          	sub	a3,a3,a7
   1ad14:	02670f33          	mul	t5,a4,t1
   1ad18:	030686b3          	mul	a3,a3,a6
   1ad1c:	030738b3          	mulhu	a7,a4,a6
   1ad20:	01e686b3          	add	a3,a3,t5
   1ad24:	03070733          	mul	a4,a4,a6
   1ad28:	011686b3          	add	a3,a3,a7
   1ad2c:	01f69893          	slli	a7,a3,0x1f
   1ad30:	0016d693          	srli	a3,a3,0x1
   1ad34:	00175713          	srli	a4,a4,0x1
   1ad38:	00e888b3          	add	a7,a7,a4
   1ad3c:	320608e3          	beq	a2,zero,1b86c <_vfiprintf_r+0x1304>
   1ad40:	00d88733          	add	a4,a7,a3
   1ad44:	01173633          	sltu	a2,a4,a7
   1ad48:	00c70633          	add	a2,a4,a2
   1ad4c:	03063eb3          	mulhu	t4,a2,a6
   1ad50:	00150513          	addi	a0,a0,1
   1ad54:	fff58d93          	addi	s11,a1,-1
   1ad58:	002edf13          	srli	t5,t4,0x2
   1ad5c:	ffcefe93          	andi	t4,t4,-4
   1ad60:	01ee8eb3          	add	t4,t4,t5
   1ad64:	41d60633          	sub	a2,a2,t4
   1ad68:	40c88633          	sub	a2,a7,a2
   1ad6c:	00c8beb3          	sltu	t4,a7,a2
   1ad70:	41d68eb3          	sub	t4,a3,t4
   1ad74:	03063f33          	mulhu	t5,a2,a6
   1ad78:	030e8eb3          	mul	t4,t4,a6
   1ad7c:	03060633          	mul	a2,a2,a6
   1ad80:	01ee8eb3          	add	t4,t4,t5
   1ad84:	01fe9e93          	slli	t4,t4,0x1f
   1ad88:	00165613          	srli	a2,a2,0x1
   1ad8c:	00ce8633          	add	a2,t4,a2
   1ad90:	00261e93          	slli	t4,a2,0x2
   1ad94:	00ce8633          	add	a2,t4,a2
   1ad98:	00161613          	slli	a2,a2,0x1
   1ad9c:	40c88633          	sub	a2,a7,a2
   1ada0:	03060613          	addi	a2,a2,48
   1ada4:	fec58fa3          	sb	a2,-1(a1)
   1ada8:	f20e10e3          	bne	t3,zero,1acc8 <_vfiprintf_r+0x760>
   1adac:	00088e93          	addi	t4,a7,0
   1adb0:	00068613          	addi	a2,a3,0
   1adb4:	000d8593          	addi	a1,s11,0
   1adb8:	f35ff06f          	jal	zero,1acec <_vfiprintf_r+0x784>
   1adbc:	000a8513          	addi	a0,s5,0
   1adc0:	00f12a23          	sw	a5,20(sp)
   1adc4:	c7dfa0ef          	jal	ra,15a40 <_localeconv_r>
   1adc8:	00452783          	lw	a5,4(a0)
   1adcc:	00078513          	addi	a0,a5,0
   1add0:	02f12223          	sw	a5,36(sp)
   1add4:	f85fa0ef          	jal	ra,15d58 <strlen>
   1add8:	02a12023          	sw	a0,32(sp)
   1addc:	000a8513          	addi	a0,s5,0
   1ade0:	c61fa0ef          	jal	ra,15a40 <_localeconv_r>
   1ade4:	00852783          	lw	a5,8(a0)
   1ade8:	02012703          	lw	a4,32(sp)
   1adec:	0004c683          	lbu	a3,0(s1)
   1adf0:	00f12823          	sw	a5,16(sp)
   1adf4:	01412783          	lw	a5,20(sp)
   1adf8:	8c070ee3          	beq	a4,zero,1a6d4 <_vfiprintf_r+0x16c>
   1adfc:	01012703          	lw	a4,16(sp)
   1ae00:	8c070ae3          	beq	a4,zero,1a6d4 <_vfiprintf_r+0x16c>
   1ae04:	00074703          	lbu	a4,0(a4)
   1ae08:	8c0706e3          	beq	a4,zero,1a6d4 <_vfiprintf_r+0x16c>
   1ae0c:	400d6d13          	ori	s10,s10,1024
   1ae10:	8c5ff06f          	jal	zero,1a6d4 <_vfiprintf_r+0x16c>
   1ae14:	0004c683          	lbu	a3,0(s1)
   1ae18:	080d6d13          	ori	s10,s10,128
   1ae1c:	8b9ff06f          	jal	zero,1a6d4 <_vfiprintf_r+0x16c>
   1ae20:	0004c683          	lbu	a3,0(s1)
   1ae24:	02a00713          	addi	a4,zero,42
   1ae28:	00148593          	addi	a1,s1,1
   1ae2c:	28e684e3          	beq	a3,a4,1b8b4 <_vfiprintf_r+0x134c>
   1ae30:	fd068713          	addi	a4,a3,-48
   1ae34:	00900513          	addi	a0,zero,9
   1ae38:	00000413          	addi	s0,zero,0
   1ae3c:	02e56463          	bltu	a0,a4,1ae64 <_vfiprintf_r+0x8fc>
   1ae40:	00241613          	slli	a2,s0,0x2
   1ae44:	0005c683          	lbu	a3,0(a1)
   1ae48:	00860433          	add	s0,a2,s0
   1ae4c:	00141413          	slli	s0,s0,0x1
   1ae50:	00e40433          	add	s0,s0,a4
   1ae54:	fd068713          	addi	a4,a3,-48
   1ae58:	00158593          	addi	a1,a1,1
   1ae5c:	fee572e3          	bgeu	a0,a4,1ae40 <_vfiprintf_r+0x8d8>
   1ae60:	60044063          	blt	s0,zero,1b460 <_vfiprintf_r+0xef8>
   1ae64:	00058493          	addi	s1,a1,0
   1ae68:	871ff06f          	jal	zero,1a6d8 <_vfiprintf_r+0x170>
   1ae6c:	0004c683          	lbu	a3,0(s1)
   1ae70:	001d6d13          	ori	s10,s10,1
   1ae74:	861ff06f          	jal	zero,1a6d4 <_vfiprintf_r+0x16c>
   1ae78:	03b14703          	lbu	a4,59(sp)
   1ae7c:	0004c683          	lbu	a3,0(s1)
   1ae80:	84071ae3          	bne	a4,zero,1a6d4 <_vfiprintf_r+0x16c>
   1ae84:	02000713          	addi	a4,zero,32
   1ae88:	02e10da3          	sb	a4,59(sp)
   1ae8c:	849ff06f          	jal	zero,1a6d4 <_vfiprintf_r+0x16c>
   1ae90:	00008737          	lui	a4,0x8
   1ae94:	83070713          	addi	a4,a4,-2000 # 7830 <exit-0x8884>
   1ae98:	02e11e23          	sh	a4,60(sp)
   1ae9c:	02010da3          	sb	zero,59(sp)
   1aea0:	000a2703          	lw	a4,0(s4)
   1aea4:	004a0693          	addi	a3,s4,4
   1aea8:	00000613          	addi	a2,zero,0
   1aeac:	54044263          	blt	s0,zero,1b3f0 <_vfiprintf_r+0xe88>
   1aeb0:	f7fd7d13          	andi	s10,s10,-129
   1aeb4:	002d6d13          	ori	s10,s10,2
   1aeb8:	220710e3          	bne	a4,zero,1b8d8 <_vfiprintf_r+0x1370>
   1aebc:	20041ee3          	bne	s0,zero,1b8d8 <_vfiprintf_r+0x1370>
   1aec0:	00068a13          	addi	s4,a3,0
   1aec4:	00000313          	addi	t1,zero,0
   1aec8:	00000813          	addi	a6,zero,0
   1aecc:	0f010d93          	addi	s11,sp,240
   1aed0:	04812583          	lw	a1,72(sp)
   1aed4:	04412603          	lw	a2,68(sp)
   1aed8:	084d7893          	andi	a7,s10,132
   1aedc:	00280813          	addi	a6,a6,2
   1aee0:	00058693          	addi	a3,a1,0
   1aee4:	00060713          	addi	a4,a2,0
   1aee8:	8a089ee3          	bne	a7,zero,1a7a4 <_vfiprintf_r+0x23c>
   1aeec:	410c8e33          	sub	t3,s9,a6
   1aef0:	8bc05ae3          	bge	zero,t3,1a7a4 <_vfiprintf_r+0x23c>
   1aef4:	00200e93          	addi	t4,zero,2
   1aef8:	3340006f          	jal	zero,1b22c <_vfiprintf_r+0xcc4>
   1aefc:	020d7713          	andi	a4,s10,32
   1af00:	4e071463          	bne	a4,zero,1b3e8 <_vfiprintf_r+0xe80>
   1af04:	010d7693          	andi	a3,s10,16
   1af08:	000a2703          	lw	a4,0(s4)
   1af0c:	004a0593          	addi	a1,s4,4
   1af10:	4a069863          	bne	a3,zero,1b3c0 <_vfiprintf_r+0xe58>
   1af14:	040d7693          	andi	a3,s10,64
   1af18:	78068263          	beq	a3,zero,1b69c <_vfiprintf_r+0x1134>
   1af1c:	01071713          	slli	a4,a4,0x10
   1af20:	01075713          	srli	a4,a4,0x10
   1af24:	00058a13          	addi	s4,a1,0
   1af28:	000d0813          	addi	a6,s10,0
   1af2c:	00000613          	addi	a2,zero,0
   1af30:	cc1ff06f          	jal	zero,1abf0 <_vfiprintf_r+0x688>
   1af34:	020d7713          	andi	a4,s10,32
   1af38:	004a0693          	addi	a3,s4,4
   1af3c:	42071063          	bne	a4,zero,1b35c <_vfiprintf_r+0xdf4>
   1af40:	010d7713          	andi	a4,s10,16
   1af44:	70071463          	bne	a4,zero,1b64c <_vfiprintf_r+0x10e4>
   1af48:	040d7713          	andi	a4,s10,64
   1af4c:	78071663          	bne	a4,zero,1b6d8 <_vfiprintf_r+0x1170>
   1af50:	200d7d13          	andi	s10,s10,512
   1af54:	6e0d0c63          	beq	s10,zero,1b64c <_vfiprintf_r+0x10e4>
   1af58:	000a2703          	lw	a4,0(s4)
   1af5c:	00068a13          	addi	s4,a3,0
   1af60:	01870023          	sb	s8,0(a4)
   1af64:	ee8ff06f          	jal	zero,1a64c <_vfiprintf_r+0xe4>
   1af68:	0004c683          	lbu	a3,0(s1)
   1af6c:	06c00713          	addi	a4,zero,108
   1af70:	6ce68663          	beq	a3,a4,1b63c <_vfiprintf_r+0x10d4>
   1af74:	010d6d13          	ori	s10,s10,16
   1af78:	f5cff06f          	jal	zero,1a6d4 <_vfiprintf_r+0x16c>
   1af7c:	410c88b3          	sub	a7,s9,a6
   1af80:	85105ce3          	bge	zero,a7,1a7d8 <_vfiprintf_r+0x270>
   1af84:	01000e13          	addi	t3,zero,16
   1af88:	000b4eb7          	lui	t4,0xb4
   1af8c:	111e58e3          	bge	t3,a7,1b89c <_vfiprintf_r+0x1334>
   1af90:	00812c23          	sw	s0,24(sp)
   1af94:	02912423          	sw	s1,40(sp)
   1af98:	00700f13          	addi	t5,zero,7
   1af9c:	01012a23          	sw	a6,20(sp)
   1afa0:	00088413          	addi	s0,a7,0
   1afa4:	00612e23          	sw	t1,28(sp)
   1afa8:	a08e8493          	addi	s1,t4,-1528 # b3a08 <zeroes.0>
   1afac:	00c0006f          	jal	zero,1afb8 <_vfiprintf_r+0xa50>
   1afb0:	ff040413          	addi	s0,s0,-16
   1afb4:	048e5a63          	bge	t3,s0,1b008 <_vfiprintf_r+0xaa0>
   1afb8:	01068693          	addi	a3,a3,16
   1afbc:	00170713          	addi	a4,a4,1
   1afc0:	0097a023          	sw	s1,0(a5)
   1afc4:	01c7a223          	sw	t3,4(a5)
   1afc8:	04d12423          	sw	a3,72(sp)
   1afcc:	04e12223          	sw	a4,68(sp)
   1afd0:	00878793          	addi	a5,a5,8
   1afd4:	fcef5ee3          	bge	t5,a4,1afb0 <_vfiprintf_r+0xa48>
   1afd8:	04010613          	addi	a2,sp,64
   1afdc:	00098593          	addi	a1,s3,0
   1afe0:	000a8513          	addi	a0,s5,0
   1afe4:	e45f90ef          	jal	ra,14e28 <__sprint_r>
   1afe8:	8c051ce3          	bne	a0,zero,1a8c0 <_vfiprintf_r+0x358>
   1afec:	01000e13          	addi	t3,zero,16
   1aff0:	ff040413          	addi	s0,s0,-16
   1aff4:	04812683          	lw	a3,72(sp)
   1aff8:	04412703          	lw	a4,68(sp)
   1affc:	000b0793          	addi	a5,s6,0
   1b000:	00700f13          	addi	t5,zero,7
   1b004:	fa8e4ae3          	blt	t3,s0,1afb8 <_vfiprintf_r+0xa50>
   1b008:	00040893          	addi	a7,s0,0
   1b00c:	00048e93          	addi	t4,s1,0
   1b010:	01412803          	lw	a6,20(sp)
   1b014:	01812403          	lw	s0,24(sp)
   1b018:	01c12303          	lw	t1,28(sp)
   1b01c:	02812483          	lw	s1,40(sp)
   1b020:	011686b3          	add	a3,a3,a7
   1b024:	00170713          	addi	a4,a4,1
   1b028:	01d7a023          	sw	t4,0(a5)
   1b02c:	0117a223          	sw	a7,4(a5)
   1b030:	04d12423          	sw	a3,72(sp)
   1b034:	04e12223          	sw	a4,68(sp)
   1b038:	00700613          	addi	a2,zero,7
   1b03c:	00878793          	addi	a5,a5,8
   1b040:	f8e65c63          	bge	a2,a4,1a7d8 <_vfiprintf_r+0x270>
   1b044:	04010613          	addi	a2,sp,64
   1b048:	00098593          	addi	a1,s3,0
   1b04c:	000a8513          	addi	a0,s5,0
   1b050:	00612c23          	sw	t1,24(sp)
   1b054:	01012a23          	sw	a6,20(sp)
   1b058:	dd1f90ef          	jal	ra,14e28 <__sprint_r>
   1b05c:	860512e3          	bne	a0,zero,1a8c0 <_vfiprintf_r+0x358>
   1b060:	01812303          	lw	t1,24(sp)
   1b064:	04812683          	lw	a3,72(sp)
   1b068:	04412703          	lw	a4,68(sp)
   1b06c:	40640433          	sub	s0,s0,t1
   1b070:	01412803          	lw	a6,20(sp)
   1b074:	000b0793          	addi	a5,s6,0
   1b078:	f6805463          	bge	zero,s0,1a7e0 <_vfiprintf_r+0x278>
   1b07c:	000b4eb7          	lui	t4,0xb4
   1b080:	a08e8e93          	addi	t4,t4,-1528 # b3a08 <zeroes.0>
   1b084:	06895c63          	bge	s2,s0,1b0fc <_vfiprintf_r+0xb94>
   1b088:	00700893          	addi	a7,zero,7
   1b08c:	01012a23          	sw	a6,20(sp)
   1b090:	00612c23          	sw	t1,24(sp)
   1b094:	01712e23          	sw	s7,28(sp)
   1b098:	00c0006f          	jal	zero,1b0a4 <_vfiprintf_r+0xb3c>
   1b09c:	ff040413          	addi	s0,s0,-16
   1b0a0:	04895863          	bge	s2,s0,1b0f0 <_vfiprintf_r+0xb88>
   1b0a4:	01068693          	addi	a3,a3,16
   1b0a8:	00170713          	addi	a4,a4,1
   1b0ac:	0177a023          	sw	s7,0(a5)
   1b0b0:	0127a223          	sw	s2,4(a5)
   1b0b4:	04d12423          	sw	a3,72(sp)
   1b0b8:	04e12223          	sw	a4,68(sp)
   1b0bc:	00878793          	addi	a5,a5,8
   1b0c0:	fce8dee3          	bge	a7,a4,1b09c <_vfiprintf_r+0xb34>
   1b0c4:	04010613          	addi	a2,sp,64
   1b0c8:	00098593          	addi	a1,s3,0
   1b0cc:	000a8513          	addi	a0,s5,0
   1b0d0:	d59f90ef          	jal	ra,14e28 <__sprint_r>
   1b0d4:	fe051663          	bne	a0,zero,1a8c0 <_vfiprintf_r+0x358>
   1b0d8:	ff040413          	addi	s0,s0,-16
   1b0dc:	04812683          	lw	a3,72(sp)
   1b0e0:	04412703          	lw	a4,68(sp)
   1b0e4:	000b0793          	addi	a5,s6,0
   1b0e8:	00700893          	addi	a7,zero,7
   1b0ec:	fa894ce3          	blt	s2,s0,1b0a4 <_vfiprintf_r+0xb3c>
   1b0f0:	01412803          	lw	a6,20(sp)
   1b0f4:	01812303          	lw	t1,24(sp)
   1b0f8:	01c12e83          	lw	t4,28(sp)
   1b0fc:	008686b3          	add	a3,a3,s0
   1b100:	00170713          	addi	a4,a4,1
   1b104:	01d7a023          	sw	t4,0(a5)
   1b108:	0087a223          	sw	s0,4(a5)
   1b10c:	04d12423          	sw	a3,72(sp)
   1b110:	04e12223          	sw	a4,68(sp)
   1b114:	00700613          	addi	a2,zero,7
   1b118:	00878793          	addi	a5,a5,8
   1b11c:	ece65263          	bge	a2,a4,1a7e0 <_vfiprintf_r+0x278>
   1b120:	04010613          	addi	a2,sp,64
   1b124:	00098593          	addi	a1,s3,0
   1b128:	000a8513          	addi	a0,s5,0
   1b12c:	00612c23          	sw	t1,24(sp)
   1b130:	01012a23          	sw	a6,20(sp)
   1b134:	cf5f90ef          	jal	ra,14e28 <__sprint_r>
   1b138:	f8051463          	bne	a0,zero,1a8c0 <_vfiprintf_r+0x358>
   1b13c:	04812683          	lw	a3,72(sp)
   1b140:	04412703          	lw	a4,68(sp)
   1b144:	01812303          	lw	t1,24(sp)
   1b148:	01412803          	lw	a6,20(sp)
   1b14c:	000b0793          	addi	a5,s6,0
   1b150:	e90ff06f          	jal	zero,1a7e0 <_vfiprintf_r+0x278>
   1b154:	04010613          	addi	a2,sp,64
   1b158:	00098593          	addi	a1,s3,0
   1b15c:	000a8513          	addi	a0,s5,0
   1b160:	01012a23          	sw	a6,20(sp)
   1b164:	cc5f90ef          	jal	ra,14e28 <__sprint_r>
   1b168:	f4051c63          	bne	a0,zero,1a8c0 <_vfiprintf_r+0x358>
   1b16c:	04812683          	lw	a3,72(sp)
   1b170:	01412803          	lw	a6,20(sp)
   1b174:	000b0793          	addi	a5,s6,0
   1b178:	e8cff06f          	jal	zero,1a804 <_vfiprintf_r+0x29c>
   1b17c:	04010613          	addi	a2,sp,64
   1b180:	00098593          	addi	a1,s3,0
   1b184:	000a8513          	addi	a0,s5,0
   1b188:	ca1f90ef          	jal	ra,14e28 <__sprint_r>
   1b18c:	e8050c63          	beq	a0,zero,1a824 <_vfiprintf_r+0x2bc>
   1b190:	f30ff06f          	jal	zero,1a8c0 <_vfiprintf_r+0x358>
   1b194:	04010613          	addi	a2,sp,64
   1b198:	00098593          	addi	a1,s3,0
   1b19c:	000a8513          	addi	a0,s5,0
   1b1a0:	00612e23          	sw	t1,28(sp)
   1b1a4:	01112c23          	sw	a7,24(sp)
   1b1a8:	01012a23          	sw	a6,20(sp)
   1b1ac:	c7df90ef          	jal	ra,14e28 <__sprint_r>
   1b1b0:	f0051863          	bne	a0,zero,1a8c0 <_vfiprintf_r+0x358>
   1b1b4:	04812683          	lw	a3,72(sp)
   1b1b8:	04412703          	lw	a4,68(sp)
   1b1bc:	01c12303          	lw	t1,28(sp)
   1b1c0:	01812883          	lw	a7,24(sp)
   1b1c4:	01412803          	lw	a6,20(sp)
   1b1c8:	000b0793          	addi	a5,s6,0
   1b1cc:	e04ff06f          	jal	zero,1a7d0 <_vfiprintf_r+0x268>
   1b1d0:	0f010d93          	addi	s11,sp,240
   1b1d4:	01d61593          	slli	a1,a2,0x1d
   1b1d8:	00777693          	andi	a3,a4,7
   1b1dc:	00375713          	srli	a4,a4,0x3
   1b1e0:	000d8513          	addi	a0,s11,0
   1b1e4:	00e58733          	add	a4,a1,a4
   1b1e8:	03068693          	addi	a3,a3,48
   1b1ec:	00365613          	srli	a2,a2,0x3
   1b1f0:	00c765b3          	or	a1,a4,a2
   1b1f4:	fedd8fa3          	sb	a3,-1(s11)
   1b1f8:	fffd8d93          	addi	s11,s11,-1
   1b1fc:	fc059ce3          	bne	a1,zero,1b1d4 <_vfiprintf_r+0xc6c>
   1b200:	fd068693          	addi	a3,a3,-48
   1b204:	00068663          	beq	a3,zero,1b210 <_vfiprintf_r+0xca8>
   1b208:	001d7713          	andi	a4,s10,1
   1b20c:	12071463          	bne	a4,zero,1b334 <_vfiprintf_r+0xdcc>
   1b210:	0f010713          	addi	a4,sp,240
   1b214:	41b70333          	sub	t1,a4,s11
   1b218:	00040813          	addi	a6,s0,0
   1b21c:	d2645463          	bge	s0,t1,1a744 <_vfiprintf_r+0x1dc>
   1b220:	00030813          	addi	a6,t1,0
   1b224:	d20ff06f          	jal	zero,1a744 <_vfiprintf_r+0x1dc>
   1b228:	00000e93          	addi	t4,zero,0
   1b22c:	01000f93          	addi	t6,zero,16
   1b230:	00058693          	addi	a3,a1,0
   1b234:	00060713          	addi	a4,a2,0
   1b238:	000b48b7          	lui	a7,0xb4
   1b23c:	65cfd863          	bge	t6,t3,1b88c <_vfiprintf_r+0x1324>
   1b240:	00812e23          	sw	s0,28(sp)
   1b244:	02912623          	sw	s1,44(sp)
   1b248:	00700f13          	addi	t5,zero,7
   1b24c:	01012a23          	sw	a6,20(sp)
   1b250:	01d12c23          	sw	t4,24(sp)
   1b254:	000e0413          	addi	s0,t3,0
   1b258:	02612423          	sw	t1,40(sp)
   1b25c:	a1888493          	addi	s1,a7,-1512 # b3a18 <blanks.1>
   1b260:	00c0006f          	jal	zero,1b26c <_vfiprintf_r+0xd04>
   1b264:	ff040413          	addi	s0,s0,-16
   1b268:	048fda63          	bge	t6,s0,1b2bc <_vfiprintf_r+0xd54>
   1b26c:	01068693          	addi	a3,a3,16
   1b270:	00170713          	addi	a4,a4,1
   1b274:	0097a023          	sw	s1,0(a5)
   1b278:	01f7a223          	sw	t6,4(a5)
   1b27c:	04d12423          	sw	a3,72(sp)
   1b280:	04e12223          	sw	a4,68(sp)
   1b284:	00878793          	addi	a5,a5,8
   1b288:	fcef5ee3          	bge	t5,a4,1b264 <_vfiprintf_r+0xcfc>
   1b28c:	04010613          	addi	a2,sp,64
   1b290:	00098593          	addi	a1,s3,0
   1b294:	000a8513          	addi	a0,s5,0
   1b298:	b91f90ef          	jal	ra,14e28 <__sprint_r>
   1b29c:	e2051263          	bne	a0,zero,1a8c0 <_vfiprintf_r+0x358>
   1b2a0:	01000f93          	addi	t6,zero,16
   1b2a4:	ff040413          	addi	s0,s0,-16
   1b2a8:	04812683          	lw	a3,72(sp)
   1b2ac:	04412703          	lw	a4,68(sp)
   1b2b0:	000b0793          	addi	a5,s6,0
   1b2b4:	00700f13          	addi	t5,zero,7
   1b2b8:	fa8fcae3          	blt	t6,s0,1b26c <_vfiprintf_r+0xd04>
   1b2bc:	00040e13          	addi	t3,s0,0
   1b2c0:	00048893          	addi	a7,s1,0
   1b2c4:	01412803          	lw	a6,20(sp)
   1b2c8:	01812e83          	lw	t4,24(sp)
   1b2cc:	01c12403          	lw	s0,28(sp)
   1b2d0:	02812303          	lw	t1,40(sp)
   1b2d4:	02c12483          	lw	s1,44(sp)
   1b2d8:	00de06b3          	add	a3,t3,a3
   1b2dc:	00170713          	addi	a4,a4,1
   1b2e0:	04d12423          	sw	a3,72(sp)
   1b2e4:	04e12223          	sw	a4,68(sp)
   1b2e8:	0117a023          	sw	a7,0(a5)
   1b2ec:	01c7a223          	sw	t3,4(a5)
   1b2f0:	00700613          	addi	a2,zero,7
   1b2f4:	28e64863          	blt	a2,a4,1b584 <_vfiprintf_r+0x101c>
   1b2f8:	03b14603          	lbu	a2,59(sp)
   1b2fc:	00878793          	addi	a5,a5,8
   1b300:	02061663          	bne	a2,zero,1b32c <_vfiprintf_r+0xdc4>
   1b304:	cc0e8a63          	beq	t4,zero,1a7d8 <_vfiprintf_r+0x270>
   1b308:	00000893          	addi	a7,zero,0
   1b30c:	c98ff06f          	jal	zero,1a7a4 <_vfiprintf_r+0x23c>
   1b310:	0004c683          	lbu	a3,0(s1)
   1b314:	004a0a13          	addi	s4,s4,4
   1b318:	bbcff06f          	jal	zero,1a6d4 <_vfiprintf_r+0x16c>
   1b31c:	00180813          	addi	a6,a6,1
   1b320:	00100313          	addi	t1,zero,1
   1b324:	0ef10d93          	addi	s11,sp,239
   1b328:	f60ff06f          	jal	zero,1aa88 <_vfiprintf_r+0x520>
   1b32c:	00000893          	addi	a7,zero,0
   1b330:	c44ff06f          	jal	zero,1a774 <_vfiprintf_r+0x20c>
   1b334:	ffe50513          	addi	a0,a0,-2
   1b338:	03000713          	addi	a4,zero,48
   1b33c:	0f010693          	addi	a3,sp,240
   1b340:	40a68333          	sub	t1,a3,a0
   1b344:	feed8fa3          	sb	a4,-1(s11)
   1b348:	00040813          	addi	a6,s0,0
   1b34c:	00645463          	bge	s0,t1,1b354 <_vfiprintf_r+0xdec>
   1b350:	00030813          	addi	a6,t1,0
   1b354:	00050d93          	addi	s11,a0,0
   1b358:	becff06f          	jal	zero,1a744 <_vfiprintf_r+0x1dc>
   1b35c:	000a2703          	lw	a4,0(s4)
   1b360:	41fc5613          	srai	a2,s8,0x1f
   1b364:	00068a13          	addi	s4,a3,0
   1b368:	01872023          	sw	s8,0(a4)
   1b36c:	00c72223          	sw	a2,4(a4)
   1b370:	adcff06f          	jal	zero,1a64c <_vfiprintf_r+0xe4>
   1b374:	010d7813          	andi	a6,s10,16
   1b378:	000a2883          	lw	a7,0(s4)
   1b37c:	004a0593          	addi	a1,s4,4
   1b380:	8c0816e3          	bne	a6,zero,1ac4c <_vfiprintf_r+0x6e4>
   1b384:	040d7713          	andi	a4,s10,64
   1b388:	1c070063          	beq	a4,zero,1b548 <_vfiprintf_r+0xfe0>
   1b38c:	01089893          	slli	a7,a7,0x10
   1b390:	02010da3          	sb	zero,59(sp)
   1b394:	0108d893          	srli	a7,a7,0x10
   1b398:	00000693          	addi	a3,zero,0
   1b39c:	1c044263          	blt	s0,zero,1b560 <_vfiprintf_r+0xff8>
   1b3a0:	f7fd7d13          	andi	s10,s10,-129
   1b3a4:	1a041e63          	bne	s0,zero,1b560 <_vfiprintf_r+0xff8>
   1b3a8:	00d8e733          	or	a4,a7,a3
   1b3ac:	1a071a63          	bne	a4,zero,1b560 <_vfiprintf_r+0xff8>
   1b3b0:	00058a13          	addi	s4,a1,0
   1b3b4:	00000313          	addi	t1,zero,0
   1b3b8:	0f010d93          	addi	s11,sp,240
   1b3bc:	b88ff06f          	jal	zero,1a744 <_vfiprintf_r+0x1dc>
   1b3c0:	000d0813          	addi	a6,s10,0
   1b3c4:	000a2703          	lw	a4,0(s4)
   1b3c8:	00000613          	addi	a2,zero,0
   1b3cc:	00058a13          	addi	s4,a1,0
   1b3d0:	821ff06f          	jal	zero,1abf0 <_vfiprintf_r+0x688>
   1b3d4:	000a2883          	lw	a7,0(s4)
   1b3d8:	00058a13          	addi	s4,a1,0
   1b3dc:	41f8d693          	srai	a3,a7,0x1f
   1b3e0:	00068613          	addi	a2,a3,0
   1b3e4:	e74ff06f          	jal	zero,1aa58 <_vfiprintf_r+0x4f0>
   1b3e8:	000d0813          	addi	a6,s10,0
   1b3ec:	ff0ff06f          	jal	zero,1abdc <_vfiprintf_r+0x674>
   1b3f0:	00021537          	lui	a0,0x21
   1b3f4:	002d6d13          	ori	s10,s10,2
   1b3f8:	00068a13          	addi	s4,a3,0
   1b3fc:	be050513          	addi	a0,a0,-1056 # 20be0 <__clzsi2+0xa4>
   1b400:	00200593          	addi	a1,zero,2
   1b404:	0f010d93          	addi	s11,sp,240
   1b408:	00f77693          	andi	a3,a4,15
   1b40c:	00d506b3          	add	a3,a0,a3
   1b410:	0006c683          	lbu	a3,0(a3)
   1b414:	01c61813          	slli	a6,a2,0x1c
   1b418:	00475713          	srli	a4,a4,0x4
   1b41c:	00e80733          	add	a4,a6,a4
   1b420:	00465613          	srli	a2,a2,0x4
   1b424:	fedd8fa3          	sb	a3,-1(s11)
   1b428:	00c766b3          	or	a3,a4,a2
   1b42c:	fffd8d93          	addi	s11,s11,-1
   1b430:	fc069ce3          	bne	a3,zero,1b408 <_vfiprintf_r+0xea0>
   1b434:	0f010713          	addi	a4,sp,240
   1b438:	41b70333          	sub	t1,a4,s11
   1b43c:	00040813          	addi	a6,s0,0
   1b440:	00645463          	bge	s0,t1,1b448 <_vfiprintf_r+0xee0>
   1b444:	00030813          	addi	a6,t1,0
   1b448:	a80594e3          	bne	a1,zero,1aed0 <_vfiprintf_r+0x968>
   1b44c:	0700006f          	jal	zero,1b4bc <_vfiprintf_r+0xf54>
   1b450:	00000313          	addi	t1,zero,0
   1b454:	00000413          	addi	s0,zero,0
   1b458:	0f010d93          	addi	s11,sp,240
   1b45c:	ae8ff06f          	jal	zero,1a744 <_vfiprintf_r+0x1dc>
   1b460:	fff00413          	addi	s0,zero,-1
   1b464:	00058493          	addi	s1,a1,0
   1b468:	a70ff06f          	jal	zero,1a6d8 <_vfiprintf_r+0x170>
   1b46c:	00021537          	lui	a0,0x21
   1b470:	020d7713          	andi	a4,s10,32
   1b474:	bf450513          	addi	a0,a0,-1036 # 20bf4 <__clzsi2+0xb8>
   1b478:	06070e63          	beq	a4,zero,1b4f4 <_vfiprintf_r+0xf8c>
   1b47c:	007a0613          	addi	a2,s4,7
   1b480:	ff867613          	andi	a2,a2,-8
   1b484:	00062703          	lw	a4,0(a2)
   1b488:	00860a13          	addi	s4,a2,8
   1b48c:	00462603          	lw	a2,4(a2)
   1b490:	001d7593          	andi	a1,s10,1
   1b494:	00c76833          	or	a6,a4,a2
   1b498:	00058463          	beq	a1,zero,1b4a0 <_vfiprintf_r+0xf38>
   1b49c:	12081a63          	bne	a6,zero,1b5d0 <_vfiprintf_r+0x1068>
   1b4a0:	02010da3          	sb	zero,59(sp)
   1b4a4:	0c044a63          	blt	s0,zero,1b578 <_vfiprintf_r+0x1010>
   1b4a8:	b7fd7d13          	andi	s10,s10,-1153
   1b4ac:	42041263          	bne	s0,zero,1b8d0 <_vfiprintf_r+0x1368>
   1b4b0:	42081063          	bne	a6,zero,1b8d0 <_vfiprintf_r+0x1368>
   1b4b4:	00000313          	addi	t1,zero,0
   1b4b8:	0f010d93          	addi	s11,sp,240
   1b4bc:	04812683          	lw	a3,72(sp)
   1b4c0:	04412703          	lw	a4,68(sp)
   1b4c4:	084d7893          	andi	a7,s10,132
   1b4c8:	00068593          	addi	a1,a3,0
   1b4cc:	00070613          	addi	a2,a4,0
   1b4d0:	a8088663          	beq	a7,zero,1a75c <_vfiprintf_r+0x1f4>
   1b4d4:	03b14603          	lbu	a2,59(sp)
   1b4d8:	00000e93          	addi	t4,zero,0
   1b4dc:	a8061c63          	bne	a2,zero,1a774 <_vfiprintf_r+0x20c>
   1b4e0:	af0ff06f          	jal	zero,1a7d0 <_vfiprintf_r+0x268>
   1b4e4:	00021537          	lui	a0,0x21
   1b4e8:	020d7713          	andi	a4,s10,32
   1b4ec:	be050513          	addi	a0,a0,-1056 # 20be0 <__clzsi2+0xa4>
   1b4f0:	f80716e3          	bne	a4,zero,1b47c <_vfiprintf_r+0xf14>
   1b4f4:	010d7613          	andi	a2,s10,16
   1b4f8:	000a2703          	lw	a4,0(s4)
   1b4fc:	004a0a13          	addi	s4,s4,4
   1b500:	06061863          	bne	a2,zero,1b570 <_vfiprintf_r+0x1008>
   1b504:	040d7613          	andi	a2,s10,64
   1b508:	06060063          	beq	a2,zero,1b568 <_vfiprintf_r+0x1000>
   1b50c:	01071713          	slli	a4,a4,0x10
   1b510:	01075713          	srli	a4,a4,0x10
   1b514:	00000613          	addi	a2,zero,0
   1b518:	f79ff06f          	jal	zero,1b490 <_vfiprintf_r+0xf28>
   1b51c:	000d8513          	addi	a0,s11,0
   1b520:	839fa0ef          	jal	ra,15d58 <strlen>
   1b524:	03b14703          	lbu	a4,59(sp)
   1b528:	fff54813          	xori	a6,a0,-1
   1b52c:	41f85813          	srai	a6,a6,0x1f
   1b530:	01412783          	lw	a5,20(sp)
   1b534:	00050313          	addi	t1,a0,0
   1b538:	01057833          	and	a6,a0,a6
   1b53c:	da071a63          	bne	a4,zero,1aaf0 <_vfiprintf_r+0x588>
   1b540:	00000413          	addi	s0,zero,0
   1b544:	a00ff06f          	jal	zero,1a744 <_vfiprintf_r+0x1dc>
   1b548:	200d7713          	andi	a4,s10,512
   1b54c:	02010da3          	sb	zero,59(sp)
   1b550:	1c070263          	beq	a4,zero,1b714 <_vfiprintf_r+0x11ac>
   1b554:	0ff8f893          	andi	a7,a7,255
   1b558:	00000693          	addi	a3,zero,0
   1b55c:	e40452e3          	bge	s0,zero,1b3a0 <_vfiprintf_r+0xe38>
   1b560:	00058a13          	addi	s4,a1,0
   1b564:	e08ff06f          	jal	zero,1ab6c <_vfiprintf_r+0x604>
   1b568:	200d7613          	andi	a2,s10,512
   1b56c:	18061663          	bne	a2,zero,1b6f8 <_vfiprintf_r+0x1190>
   1b570:	00000613          	addi	a2,zero,0
   1b574:	f1dff06f          	jal	zero,1b490 <_vfiprintf_r+0xf28>
   1b578:	bffd7d13          	andi	s10,s10,-1025
   1b57c:	00000593          	addi	a1,zero,0
   1b580:	e85ff06f          	jal	zero,1b404 <_vfiprintf_r+0xe9c>
   1b584:	04010613          	addi	a2,sp,64
   1b588:	00098593          	addi	a1,s3,0
   1b58c:	000a8513          	addi	a0,s5,0
   1b590:	00612e23          	sw	t1,28(sp)
   1b594:	01d12c23          	sw	t4,24(sp)
   1b598:	01012a23          	sw	a6,20(sp)
   1b59c:	88df90ef          	jal	ra,14e28 <__sprint_r>
   1b5a0:	00050893          	addi	a7,a0,0
   1b5a4:	b0051e63          	bne	a0,zero,1a8c0 <_vfiprintf_r+0x358>
   1b5a8:	03b14783          	lbu	a5,59(sp)
   1b5ac:	04812683          	lw	a3,72(sp)
   1b5b0:	04412703          	lw	a4,68(sp)
   1b5b4:	01412803          	lw	a6,20(sp)
   1b5b8:	01812e83          	lw	t4,24(sp)
   1b5bc:	01c12303          	lw	t1,28(sp)
   1b5c0:	0e079c63          	bne	a5,zero,1b6b8 <_vfiprintf_r+0x1150>
   1b5c4:	000b0793          	addi	a5,s6,0
   1b5c8:	9c0e9e63          	bne	t4,zero,1a7a4 <_vfiprintf_r+0x23c>
   1b5cc:	a0cff06f          	jal	zero,1a7d8 <_vfiprintf_r+0x270>
   1b5d0:	02d10ea3          	sb	a3,61(sp)
   1b5d4:	03000693          	addi	a3,zero,48
   1b5d8:	02010da3          	sb	zero,59(sp)
   1b5dc:	02d10e23          	sb	a3,60(sp)
   1b5e0:	0e044063          	blt	s0,zero,1b6c0 <_vfiprintf_r+0x1158>
   1b5e4:	b7fd7d13          	andi	s10,s10,-1153
   1b5e8:	002d6d13          	ori	s10,s10,2
   1b5ec:	00200593          	addi	a1,zero,2
   1b5f0:	e15ff06f          	jal	zero,1b404 <_vfiprintf_r+0xe9c>
   1b5f4:	14069263          	bne	a3,zero,1b738 <_vfiprintf_r+0x11d0>
   1b5f8:	00900713          	addi	a4,zero,9
   1b5fc:	13176e63          	bltu	a4,a7,1b738 <_vfiprintf_r+0x11d0>
   1b600:	0f010713          	addi	a4,sp,240
   1b604:	41b70333          	sub	t1,a4,s11
   1b608:	00040813          	addi	a6,s0,0
   1b60c:	03b14703          	lbu	a4,59(sp)
   1b610:	00645463          	bge	s0,t1,1b618 <_vfiprintf_r+0x10b0>
   1b614:	00030813          	addi	a6,t1,0
   1b618:	00e03733          	sltu	a4,zero,a4
   1b61c:	00e80833          	add	a6,a6,a4
   1b620:	e9dff06f          	jal	zero,1b4bc <_vfiprintf_r+0xf54>
   1b624:	9f0f50ef          	jal	ra,10814 <__sinit>
   1b628:	f7dfe06f          	jal	zero,1a5a4 <_vfiprintf_r+0x3c>
   1b62c:	0014c683          	lbu	a3,1(s1)
   1b630:	200d6d13          	ori	s10,s10,512
   1b634:	00148493          	addi	s1,s1,1
   1b638:	89cff06f          	jal	zero,1a6d4 <_vfiprintf_r+0x16c>
   1b63c:	0014c683          	lbu	a3,1(s1)
   1b640:	020d6d13          	ori	s10,s10,32
   1b644:	00148493          	addi	s1,s1,1
   1b648:	88cff06f          	jal	zero,1a6d4 <_vfiprintf_r+0x16c>
   1b64c:	000a2703          	lw	a4,0(s4)
   1b650:	00068a13          	addi	s4,a3,0
   1b654:	01872023          	sw	s8,0(a4)
   1b658:	ff5fe06f          	jal	zero,1a64c <_vfiprintf_r+0xe4>
   1b65c:	00600713          	addi	a4,zero,6
   1b660:	00040813          	addi	a6,s0,0
   1b664:	06876663          	bltu	a4,s0,1b6d0 <_vfiprintf_r+0x1168>
   1b668:	00021db7          	lui	s11,0x21
   1b66c:	c08d8d93          	addi	s11,s11,-1016 # 20c08 <__clzsi2+0xcc>
   1b670:	00080313          	addi	t1,a6,0
   1b674:	00000413          	addi	s0,zero,0
   1b678:	8ccff06f          	jal	zero,1a744 <_vfiprintf_r+0x1dc>
   1b67c:	200d7713          	andi	a4,s10,512
   1b680:	08070263          	beq	a4,zero,1b704 <_vfiprintf_r+0x119c>
   1b684:	01889893          	slli	a7,a7,0x18
   1b688:	4188d893          	srai	a7,a7,0x18
   1b68c:	41f8d693          	srai	a3,a7,0x1f
   1b690:	00058a13          	addi	s4,a1,0
   1b694:	00068613          	addi	a2,a3,0
   1b698:	bc0ff06f          	jal	zero,1aa58 <_vfiprintf_r+0x4f0>
   1b69c:	200d7693          	andi	a3,s10,512
   1b6a0:	04068463          	beq	a3,zero,1b6e8 <_vfiprintf_r+0x1180>
   1b6a4:	0ff77713          	andi	a4,a4,255
   1b6a8:	00058a13          	addi	s4,a1,0
   1b6ac:	000d0813          	addi	a6,s10,0
   1b6b0:	00000613          	addi	a2,zero,0
   1b6b4:	d3cff06f          	jal	zero,1abf0 <_vfiprintf_r+0x688>
   1b6b8:	000b0793          	addi	a5,s6,0
   1b6bc:	8b8ff06f          	jal	zero,1a774 <_vfiprintf_r+0x20c>
   1b6c0:	bffd7d13          	andi	s10,s10,-1025
   1b6c4:	002d6d13          	ori	s10,s10,2
   1b6c8:	00200593          	addi	a1,zero,2
   1b6cc:	d39ff06f          	jal	zero,1b404 <_vfiprintf_r+0xe9c>
   1b6d0:	00070813          	addi	a6,a4,0
   1b6d4:	f95ff06f          	jal	zero,1b668 <_vfiprintf_r+0x1100>
   1b6d8:	000a2703          	lw	a4,0(s4)
   1b6dc:	00068a13          	addi	s4,a3,0
   1b6e0:	01871023          	sh	s8,0(a4)
   1b6e4:	f69fe06f          	jal	zero,1a64c <_vfiprintf_r+0xe4>
   1b6e8:	00058a13          	addi	s4,a1,0
   1b6ec:	000d0813          	addi	a6,s10,0
   1b6f0:	00000613          	addi	a2,zero,0
   1b6f4:	cfcff06f          	jal	zero,1abf0 <_vfiprintf_r+0x688>
   1b6f8:	0ff77713          	andi	a4,a4,255
   1b6fc:	00000613          	addi	a2,zero,0
   1b700:	d91ff06f          	jal	zero,1b490 <_vfiprintf_r+0xf28>
   1b704:	41f8d693          	srai	a3,a7,0x1f
   1b708:	00058a13          	addi	s4,a1,0
   1b70c:	00068613          	addi	a2,a3,0
   1b710:	b48ff06f          	jal	zero,1aa58 <_vfiprintf_r+0x4f0>
   1b714:	00000693          	addi	a3,zero,0
   1b718:	00058a13          	addi	s4,a1,0
   1b71c:	c80452e3          	bge	s0,zero,1b3a0 <_vfiprintf_r+0xe38>
   1b720:	c50ff06f          	jal	zero,1ab70 <_vfiprintf_r+0x608>
   1b724:	000a8513          	addi	a0,s5,0
   1b728:	04010613          	addi	a2,sp,64
   1b72c:	00098593          	addi	a1,s3,0
   1b730:	ef8f90ef          	jal	ra,14e28 <__sprint_r>
   1b734:	98cff06f          	jal	zero,1a8c0 <_vfiprintf_r+0x358>
   1b738:	00f12c23          	sw	a5,24(sp)
   1b73c:	02012783          	lw	a5,32(sp)
   1b740:	02412583          	lw	a1,36(sp)
   1b744:	02d12623          	sw	a3,44(sp)
   1b748:	40fd8eb3          	sub	t4,s11,a5
   1b74c:	00078613          	addi	a2,a5,0
   1b750:	000e8513          	addi	a0,t4,0
   1b754:	03112423          	sw	a7,40(sp)
   1b758:	01c12e23          	sw	t3,28(sp)
   1b75c:	01d12a23          	sw	t4,20(sp)
   1b760:	a30fa0ef          	jal	ra,15990 <strncpy>
   1b764:	02812883          	lw	a7,40(sp)
   1b768:	02c12683          	lw	a3,44(sp)
   1b76c:	01012783          	lw	a5,16(sp)
   1b770:	ccccd537          	lui	a0,0xccccd
   1b774:	00d88733          	add	a4,a7,a3
   1b778:	01173633          	sltu	a2,a4,a7
   1b77c:	00c70733          	add	a4,a4,a2
   1b780:	ccccd637          	lui	a2,0xccccd
   1b784:	ccd60613          	addi	a2,a2,-819 # cccccccd <__BSS_END__+0xccc18279>
   1b788:	02c735b3          	mulhu	a1,a4,a2
   1b78c:	0017cf03          	lbu	t5,1(a5)
   1b790:	ccc50513          	addi	a0,a0,-820 # cccccccc <__BSS_END__+0xccc18278>
   1b794:	01412e83          	lw	t4,20(sp)
   1b798:	01e03f33          	sltu	t5,zero,t5
   1b79c:	01e787b3          	add	a5,a5,t5
   1b7a0:	ccccd837          	lui	a6,0xccccd
   1b7a4:	ccccd337          	lui	t1,0xccccd
   1b7a8:	00f12823          	sw	a5,16(sp)
   1b7ac:	01c12e03          	lw	t3,28(sp)
   1b7b0:	0025df13          	srli	t5,a1,0x2
   1b7b4:	ffc5f593          	andi	a1,a1,-4
   1b7b8:	01e585b3          	add	a1,a1,t5
   1b7bc:	40b70733          	sub	a4,a4,a1
   1b7c0:	40e88733          	sub	a4,a7,a4
   1b7c4:	00e8b8b3          	sltu	a7,a7,a4
   1b7c8:	411686b3          	sub	a3,a3,a7
   1b7cc:	02a70533          	mul	a0,a4,a0
   1b7d0:	01812783          	lw	a5,24(sp)
   1b7d4:	fffe8d93          	addi	s11,t4,-1
   1b7d8:	ccd80813          	addi	a6,a6,-819 # cccccccd <__BSS_END__+0xccc18279>
   1b7dc:	ccc30313          	addi	t1,t1,-820 # cccccccc <__BSS_END__+0xccc18278>
   1b7e0:	02c686b3          	mul	a3,a3,a2
   1b7e4:	02c735b3          	mulhu	a1,a4,a2
   1b7e8:	00a686b3          	add	a3,a3,a0
   1b7ec:	00100513          	addi	a0,zero,1
   1b7f0:	02c70733          	mul	a4,a4,a2
   1b7f4:	00b686b3          	add	a3,a3,a1
   1b7f8:	01f69593          	slli	a1,a3,0x1f
   1b7fc:	0016d693          	srli	a3,a3,0x1
   1b800:	00175713          	srli	a4,a4,0x1
   1b804:	00e588b3          	add	a7,a1,a4
   1b808:	00d88733          	add	a4,a7,a3
   1b80c:	011735b3          	sltu	a1,a4,a7
   1b810:	00b70733          	add	a4,a4,a1
   1b814:	02c735b3          	mulhu	a1,a4,a2
   1b818:	0025df13          	srli	t5,a1,0x2
   1b81c:	ffc5f593          	andi	a1,a1,-4
   1b820:	01e585b3          	add	a1,a1,t5
   1b824:	40b70733          	sub	a4,a4,a1
   1b828:	40e88733          	sub	a4,a7,a4
   1b82c:	00e8b5b3          	sltu	a1,a7,a4
   1b830:	40b685b3          	sub	a1,a3,a1
   1b834:	02c73f33          	mulhu	t5,a4,a2
   1b838:	02c585b3          	mul	a1,a1,a2
   1b83c:	02c70733          	mul	a4,a4,a2
   1b840:	01e58633          	add	a2,a1,t5
   1b844:	01f61613          	slli	a2,a2,0x1f
   1b848:	00175713          	srli	a4,a4,0x1
   1b84c:	00e60733          	add	a4,a2,a4
   1b850:	00271613          	slli	a2,a4,0x2
   1b854:	00e60733          	add	a4,a2,a4
   1b858:	00171713          	slli	a4,a4,0x1
   1b85c:	40e88733          	sub	a4,a7,a4
   1b860:	03070713          	addi	a4,a4,48
   1b864:	feee8fa3          	sb	a4,-1(t4)
   1b868:	c60ff06f          	jal	zero,1acc8 <_vfiprintf_r+0x760>
   1b86c:	00900713          	addi	a4,zero,9
   1b870:	cdd76863          	bltu	a4,t4,1ad40 <_vfiprintf_r+0x7d8>
   1b874:	d8dff06f          	jal	zero,1b600 <_vfiprintf_r+0x1098>
   1b878:	02070663          	beq	a4,zero,1b8a4 <_vfiprintf_r+0x133c>
   1b87c:	00140813          	addi	a6,s0,1
   1b880:	00040313          	addi	t1,s0,0
   1b884:	00000413          	addi	s0,zero,0
   1b888:	a00ff06f          	jal	zero,1aa88 <_vfiprintf_r+0x520>
   1b88c:	a1888893          	addi	a7,a7,-1512
   1b890:	a49ff06f          	jal	zero,1b2d8 <_vfiprintf_r+0xd70>
   1b894:	a1888893          	addi	a7,a7,-1512
   1b898:	948ff06f          	jal	zero,1a9e0 <_vfiprintf_r+0x478>
   1b89c:	a08e8e93          	addi	t4,t4,-1528
   1b8a0:	f80ff06f          	jal	zero,1b020 <_vfiprintf_r+0xab8>
   1b8a4:	00040313          	addi	t1,s0,0
   1b8a8:	00040813          	addi	a6,s0,0
   1b8ac:	00000413          	addi	s0,zero,0
   1b8b0:	e95fe06f          	jal	zero,1a744 <_vfiprintf_r+0x1dc>
   1b8b4:	000a2403          	lw	s0,0(s4)
   1b8b8:	004a0a13          	addi	s4,s4,4
   1b8bc:	00045463          	bge	s0,zero,1b8c4 <_vfiprintf_r+0x135c>
   1b8c0:	fff00413          	addi	s0,zero,-1
   1b8c4:	0014c683          	lbu	a3,1(s1)
   1b8c8:	00058493          	addi	s1,a1,0
   1b8cc:	e09fe06f          	jal	zero,1a6d4 <_vfiprintf_r+0x16c>
   1b8d0:	00000593          	addi	a1,zero,0
   1b8d4:	b31ff06f          	jal	zero,1b404 <_vfiprintf_r+0xe9c>
   1b8d8:	00021537          	lui	a0,0x21
   1b8dc:	00068a13          	addi	s4,a3,0
   1b8e0:	be050513          	addi	a0,a0,-1056 # 20be0 <__clzsi2+0xa4>
   1b8e4:	00200593          	addi	a1,zero,2
   1b8e8:	b1dff06f          	jal	zero,1b404 <_vfiprintf_r+0xe9c>

0001b8ec <vfiprintf>:
   1b8ec:	00050713          	addi	a4,a0,0
   1b8f0:	f0c1a503          	lw	a0,-244(gp) # b471c <_impure_ptr>
   1b8f4:	00060693          	addi	a3,a2,0
   1b8f8:	00058613          	addi	a2,a1,0
   1b8fc:	00070593          	addi	a1,a4,0
   1b900:	c69fe06f          	jal	zero,1a568 <_vfiprintf_r>

0001b904 <__sbprintf>:
   1b904:	00c5d783          	lhu	a5,12(a1)
   1b908:	0645ae83          	lw	t4,100(a1)
   1b90c:	00e5de03          	lhu	t3,14(a1)
   1b910:	01c5a303          	lw	t1,28(a1)
   1b914:	0245a883          	lw	a7,36(a1)
   1b918:	b7010113          	addi	sp,sp,-1168
   1b91c:	ffd7f793          	andi	a5,a5,-3
   1b920:	08010813          	addi	a6,sp,128
   1b924:	40000713          	addi	a4,zero,1024
   1b928:	48812423          	sw	s0,1160(sp)
   1b92c:	00058413          	addi	s0,a1,0
   1b930:	01810593          	addi	a1,sp,24
   1b934:	48912223          	sw	s1,1156(sp)
   1b938:	02f11223          	sh	a5,36(sp)
   1b93c:	48112623          	sw	ra,1164(sp)
   1b940:	02012823          	sw	zero,48(sp)
   1b944:	07d12e23          	sw	t4,124(sp)
   1b948:	03c11323          	sh	t3,38(sp)
   1b94c:	02612a23          	sw	t1,52(sp)
   1b950:	03112e23          	sw	a7,60(sp)
   1b954:	01012c23          	sw	a6,24(sp)
   1b958:	03012423          	sw	a6,40(sp)
   1b95c:	02e12023          	sw	a4,32(sp)
   1b960:	02e12623          	sw	a4,44(sp)
   1b964:	00050493          	addi	s1,a0,0
   1b968:	c01fe0ef          	jal	ra,1a568 <_vfiprintf_r>
   1b96c:	00050793          	addi	a5,a0,0
   1b970:	02055a63          	bge	a0,zero,1b9a4 <__sbprintf+0xa0>
   1b974:	02415703          	lhu	a4,36(sp)
   1b978:	04077713          	andi	a4,a4,64
   1b97c:	00070863          	beq	a4,zero,1b98c <__sbprintf+0x88>
   1b980:	00c45703          	lhu	a4,12(s0)
   1b984:	04076713          	ori	a4,a4,64
   1b988:	00e41623          	sh	a4,12(s0)
   1b98c:	48c12083          	lw	ra,1164(sp)
   1b990:	48812403          	lw	s0,1160(sp)
   1b994:	48412483          	lw	s1,1156(sp)
   1b998:	00078513          	addi	a0,a5,0
   1b99c:	49010113          	addi	sp,sp,1168
   1b9a0:	00008067          	jalr	zero,0(ra)
   1b9a4:	00a12623          	sw	a0,12(sp)
   1b9a8:	01810593          	addi	a1,sp,24
   1b9ac:	00048513          	addi	a0,s1,0
   1b9b0:	825f90ef          	jal	ra,151d4 <_fflush_r>
   1b9b4:	00c12783          	lw	a5,12(sp)
   1b9b8:	fa050ee3          	beq	a0,zero,1b974 <__sbprintf+0x70>
   1b9bc:	fff00793          	addi	a5,zero,-1
   1b9c0:	fb5ff06f          	jal	zero,1b974 <__sbprintf+0x70>

0001b9c4 <__errno>:
   1b9c4:	f0c1a503          	lw	a0,-244(gp) # b471c <_impure_ptr>
   1b9c8:	00008067          	jalr	zero,0(ra)

0001b9cc <abort>:
   1b9cc:	ff010113          	addi	sp,sp,-16
   1b9d0:	00600513          	addi	a0,zero,6
   1b9d4:	00112623          	sw	ra,12(sp)
   1b9d8:	274000ef          	jal	ra,1bc4c <raise>
   1b9dc:	00100513          	addi	a0,zero,1
   1b9e0:	594000ef          	jal	ra,1bf74 <_exit>

0001b9e4 <_init_signal_r>:
   1b9e4:	11852703          	lw	a4,280(a0)
   1b9e8:	00070663          	beq	a4,zero,1b9f4 <_init_signal_r+0x10>
   1b9ec:	00000513          	addi	a0,zero,0
   1b9f0:	00008067          	jalr	zero,0(ra)
   1b9f4:	fe010113          	addi	sp,sp,-32
   1b9f8:	08000593          	addi	a1,zero,128
   1b9fc:	00112e23          	sw	ra,28(sp)
   1ba00:	00a12623          	sw	a0,12(sp)
   1ba04:	a49f50ef          	jal	ra,1144c <_malloc_r>
   1ba08:	00c12783          	lw	a5,12(sp)
   1ba0c:	10a7ac23          	sw	a0,280(a5)
   1ba10:	02050263          	beq	a0,zero,1ba34 <_init_signal_r+0x50>
   1ba14:	08050793          	addi	a5,a0,128
   1ba18:	00052023          	sw	zero,0(a0)
   1ba1c:	00450513          	addi	a0,a0,4
   1ba20:	fef51ce3          	bne	a0,a5,1ba18 <_init_signal_r+0x34>
   1ba24:	00000513          	addi	a0,zero,0
   1ba28:	01c12083          	lw	ra,28(sp)
   1ba2c:	02010113          	addi	sp,sp,32
   1ba30:	00008067          	jalr	zero,0(ra)
   1ba34:	fff00513          	addi	a0,zero,-1
   1ba38:	ff1ff06f          	jal	zero,1ba28 <_init_signal_r+0x44>

0001ba3c <_signal_r>:
   1ba3c:	01f00713          	addi	a4,zero,31
   1ba40:	02b76063          	bltu	a4,a1,1ba60 <_signal_r+0x24>
   1ba44:	11852703          	lw	a4,280(a0)
   1ba48:	02070463          	beq	a4,zero,1ba70 <_signal_r+0x34>
   1ba4c:	00259593          	slli	a1,a1,0x2
   1ba50:	00b70733          	add	a4,a4,a1
   1ba54:	00072503          	lw	a0,0(a4)
   1ba58:	00c72023          	sw	a2,0(a4)
   1ba5c:	00008067          	jalr	zero,0(ra)
   1ba60:	01600713          	addi	a4,zero,22
   1ba64:	00e52023          	sw	a4,0(a0)
   1ba68:	fff00513          	addi	a0,zero,-1
   1ba6c:	00008067          	jalr	zero,0(ra)
   1ba70:	fe010113          	addi	sp,sp,-32
   1ba74:	00b12223          	sw	a1,4(sp)
   1ba78:	08000593          	addi	a1,zero,128
   1ba7c:	00c12423          	sw	a2,8(sp)
   1ba80:	00112e23          	sw	ra,28(sp)
   1ba84:	00a12623          	sw	a0,12(sp)
   1ba88:	9c5f50ef          	jal	ra,1144c <_malloc_r>
   1ba8c:	00c12683          	lw	a3,12(sp)
   1ba90:	00050713          	addi	a4,a0,0
   1ba94:	08050593          	addi	a1,a0,128
   1ba98:	10a6ac23          	sw	a0,280(a3)
   1ba9c:	00412783          	lw	a5,4(sp)
   1baa0:	00050693          	addi	a3,a0,0
   1baa4:	00812603          	lw	a2,8(sp)
   1baa8:	fff00513          	addi	a0,zero,-1
   1baac:	02070063          	beq	a4,zero,1bacc <_signal_r+0x90>
   1bab0:	0006a023          	sw	zero,0(a3)
   1bab4:	00468693          	addi	a3,a3,4
   1bab8:	feb69ce3          	bne	a3,a1,1bab0 <_signal_r+0x74>
   1babc:	00279593          	slli	a1,a5,0x2
   1bac0:	00b70733          	add	a4,a4,a1
   1bac4:	00072503          	lw	a0,0(a4)
   1bac8:	00c72023          	sw	a2,0(a4)
   1bacc:	01c12083          	lw	ra,28(sp)
   1bad0:	02010113          	addi	sp,sp,32
   1bad4:	00008067          	jalr	zero,0(ra)

0001bad8 <_raise_r>:
   1bad8:	01f00793          	addi	a5,zero,31
   1badc:	08b7ea63          	bltu	a5,a1,1bb70 <_raise_r+0x98>
   1bae0:	11852783          	lw	a5,280(a0)
   1bae4:	fe010113          	addi	sp,sp,-32
   1bae8:	00112e23          	sw	ra,28(sp)
   1baec:	00050713          	addi	a4,a0,0
   1baf0:	00058613          	addi	a2,a1,0
   1baf4:	04078063          	beq	a5,zero,1bb34 <_raise_r+0x5c>
   1baf8:	00259693          	slli	a3,a1,0x2
   1bafc:	00d787b3          	add	a5,a5,a3
   1bb00:	0007a683          	lw	a3,0(a5)
   1bb04:	02068863          	beq	a3,zero,1bb34 <_raise_r+0x5c>
   1bb08:	00100513          	addi	a0,zero,1
   1bb0c:	00a68c63          	beq	a3,a0,1bb24 <_raise_r+0x4c>
   1bb10:	fff00593          	addi	a1,zero,-1
   1bb14:	04b68463          	beq	a3,a1,1bb5c <_raise_r+0x84>
   1bb18:	0007a023          	sw	zero,0(a5)
   1bb1c:	00060513          	addi	a0,a2,0
   1bb20:	000680e7          	jalr	ra,0(a3)
   1bb24:	01c12083          	lw	ra,28(sp)
   1bb28:	00000513          	addi	a0,zero,0
   1bb2c:	02010113          	addi	sp,sp,32
   1bb30:	00008067          	jalr	zero,0(ra)
   1bb34:	00070513          	addi	a0,a4,0
   1bb38:	00c12623          	sw	a2,12(sp)
   1bb3c:	00e12423          	sw	a4,8(sp)
   1bb40:	3f0000ef          	jal	ra,1bf30 <_getpid_r>
   1bb44:	00c12603          	lw	a2,12(sp)
   1bb48:	01c12083          	lw	ra,28(sp)
   1bb4c:	00050593          	addi	a1,a0,0
   1bb50:	00812503          	lw	a0,8(sp)
   1bb54:	02010113          	addi	sp,sp,32
   1bb58:	3740006f          	jal	zero,1becc <_kill_r>
   1bb5c:	01c12083          	lw	ra,28(sp)
   1bb60:	01600793          	addi	a5,zero,22
   1bb64:	00f72023          	sw	a5,0(a4)
   1bb68:	02010113          	addi	sp,sp,32
   1bb6c:	00008067          	jalr	zero,0(ra)
   1bb70:	01600793          	addi	a5,zero,22
   1bb74:	00f52023          	sw	a5,0(a0)
   1bb78:	fff00513          	addi	a0,zero,-1
   1bb7c:	00008067          	jalr	zero,0(ra)

0001bb80 <__sigtramp_r>:
   1bb80:	01f00793          	addi	a5,zero,31
   1bb84:	0cb7e063          	bltu	a5,a1,1bc44 <__sigtramp_r+0xc4>
   1bb88:	11852783          	lw	a5,280(a0)
   1bb8c:	fe010113          	addi	sp,sp,-32
   1bb90:	00112e23          	sw	ra,28(sp)
   1bb94:	00058713          	addi	a4,a1,0
   1bb98:	06078463          	beq	a5,zero,1bc00 <__sigtramp_r+0x80>
   1bb9c:	00271693          	slli	a3,a4,0x2
   1bba0:	00d787b3          	add	a5,a5,a3
   1bba4:	0007a683          	lw	a3,0(a5)
   1bba8:	02068863          	beq	a3,zero,1bbd8 <__sigtramp_r+0x58>
   1bbac:	fff00613          	addi	a2,zero,-1
   1bbb0:	04c68463          	beq	a3,a2,1bbf8 <__sigtramp_r+0x78>
   1bbb4:	00100613          	addi	a2,zero,1
   1bbb8:	02c68863          	beq	a3,a2,1bbe8 <__sigtramp_r+0x68>
   1bbbc:	00070513          	addi	a0,a4,0
   1bbc0:	0007a023          	sw	zero,0(a5)
   1bbc4:	000680e7          	jalr	ra,0(a3)
   1bbc8:	00000513          	addi	a0,zero,0
   1bbcc:	01c12083          	lw	ra,28(sp)
   1bbd0:	02010113          	addi	sp,sp,32
   1bbd4:	00008067          	jalr	zero,0(ra)
   1bbd8:	01c12083          	lw	ra,28(sp)
   1bbdc:	00100513          	addi	a0,zero,1
   1bbe0:	02010113          	addi	sp,sp,32
   1bbe4:	00008067          	jalr	zero,0(ra)
   1bbe8:	01c12083          	lw	ra,28(sp)
   1bbec:	00300513          	addi	a0,zero,3
   1bbf0:	02010113          	addi	sp,sp,32
   1bbf4:	00008067          	jalr	zero,0(ra)
   1bbf8:	00200513          	addi	a0,zero,2
   1bbfc:	fd1ff06f          	jal	zero,1bbcc <__sigtramp_r+0x4c>
   1bc00:	00b12623          	sw	a1,12(sp)
   1bc04:	08000593          	addi	a1,zero,128
   1bc08:	00a12423          	sw	a0,8(sp)
   1bc0c:	841f50ef          	jal	ra,1144c <_malloc_r>
   1bc10:	00812683          	lw	a3,8(sp)
   1bc14:	00050793          	addi	a5,a0,0
   1bc18:	10a6ac23          	sw	a0,280(a3)
   1bc1c:	02050063          	beq	a0,zero,1bc3c <__sigtramp_r+0xbc>
   1bc20:	00c12703          	lw	a4,12(sp)
   1bc24:	00050693          	addi	a3,a0,0
   1bc28:	08050613          	addi	a2,a0,128
   1bc2c:	0006a023          	sw	zero,0(a3)
   1bc30:	00468693          	addi	a3,a3,4
   1bc34:	fec69ce3          	bne	a3,a2,1bc2c <__sigtramp_r+0xac>
   1bc38:	f65ff06f          	jal	zero,1bb9c <__sigtramp_r+0x1c>
   1bc3c:	fff00513          	addi	a0,zero,-1
   1bc40:	f8dff06f          	jal	zero,1bbcc <__sigtramp_r+0x4c>
   1bc44:	fff00513          	addi	a0,zero,-1
   1bc48:	00008067          	jalr	zero,0(ra)

0001bc4c <raise>:
   1bc4c:	01f00793          	addi	a5,zero,31
   1bc50:	f0c1a803          	lw	a6,-244(gp) # b471c <_impure_ptr>
   1bc54:	08a7e863          	bltu	a5,a0,1bce4 <raise+0x98>
   1bc58:	11882783          	lw	a5,280(a6)
   1bc5c:	fe010113          	addi	sp,sp,-32
   1bc60:	00112e23          	sw	ra,28(sp)
   1bc64:	00050613          	addi	a2,a0,0
   1bc68:	02078e63          	beq	a5,zero,1bca4 <raise+0x58>
   1bc6c:	00251713          	slli	a4,a0,0x2
   1bc70:	00e787b3          	add	a5,a5,a4
   1bc74:	0007a703          	lw	a4,0(a5)
   1bc78:	02070663          	beq	a4,zero,1bca4 <raise+0x58>
   1bc7c:	00100693          	addi	a3,zero,1
   1bc80:	00d70a63          	beq	a4,a3,1bc94 <raise+0x48>
   1bc84:	fff00613          	addi	a2,zero,-1
   1bc88:	04c70263          	beq	a4,a2,1bccc <raise+0x80>
   1bc8c:	0007a023          	sw	zero,0(a5)
   1bc90:	000700e7          	jalr	ra,0(a4)
   1bc94:	01c12083          	lw	ra,28(sp)
   1bc98:	00000513          	addi	a0,zero,0
   1bc9c:	02010113          	addi	sp,sp,32
   1bca0:	00008067          	jalr	zero,0(ra)
   1bca4:	00080513          	addi	a0,a6,0
   1bca8:	00c12623          	sw	a2,12(sp)
   1bcac:	01012423          	sw	a6,8(sp)
   1bcb0:	280000ef          	jal	ra,1bf30 <_getpid_r>
   1bcb4:	00c12603          	lw	a2,12(sp)
   1bcb8:	01c12083          	lw	ra,28(sp)
   1bcbc:	00050593          	addi	a1,a0,0
   1bcc0:	00812503          	lw	a0,8(sp)
   1bcc4:	02010113          	addi	sp,sp,32
   1bcc8:	2040006f          	jal	zero,1becc <_kill_r>
   1bccc:	01c12083          	lw	ra,28(sp)
   1bcd0:	01600793          	addi	a5,zero,22
   1bcd4:	00f82023          	sw	a5,0(a6)
   1bcd8:	00068513          	addi	a0,a3,0
   1bcdc:	02010113          	addi	sp,sp,32
   1bce0:	00008067          	jalr	zero,0(ra)
   1bce4:	01600793          	addi	a5,zero,22
   1bce8:	00f82023          	sw	a5,0(a6)
   1bcec:	fff00513          	addi	a0,zero,-1
   1bcf0:	00008067          	jalr	zero,0(ra)

0001bcf4 <signal>:
   1bcf4:	01f00793          	addi	a5,zero,31
   1bcf8:	f0c1a603          	lw	a2,-244(gp) # b471c <_impure_ptr>
   1bcfc:	02a7e063          	bltu	a5,a0,1bd1c <signal+0x28>
   1bd00:	11862703          	lw	a4,280(a2)
   1bd04:	02070463          	beq	a4,zero,1bd2c <signal+0x38>
   1bd08:	00251513          	slli	a0,a0,0x2
   1bd0c:	00a70733          	add	a4,a4,a0
   1bd10:	00072503          	lw	a0,0(a4)
   1bd14:	00b72023          	sw	a1,0(a4)
   1bd18:	00008067          	jalr	zero,0(ra)
   1bd1c:	01600793          	addi	a5,zero,22
   1bd20:	00f62023          	sw	a5,0(a2)
   1bd24:	fff00513          	addi	a0,zero,-1
   1bd28:	00008067          	jalr	zero,0(ra)
   1bd2c:	fe010113          	addi	sp,sp,-32
   1bd30:	00b12623          	sw	a1,12(sp)
   1bd34:	00a12423          	sw	a0,8(sp)
   1bd38:	08000593          	addi	a1,zero,128
   1bd3c:	00060513          	addi	a0,a2,0
   1bd40:	00c12223          	sw	a2,4(sp)
   1bd44:	00112e23          	sw	ra,28(sp)
   1bd48:	f04f50ef          	jal	ra,1144c <_malloc_r>
   1bd4c:	00412603          	lw	a2,4(sp)
   1bd50:	00050713          	addi	a4,a0,0
   1bd54:	08050593          	addi	a1,a0,128
   1bd58:	10a62c23          	sw	a0,280(a2)
   1bd5c:	00812783          	lw	a5,8(sp)
   1bd60:	00050613          	addi	a2,a0,0
   1bd64:	00c12683          	lw	a3,12(sp)
   1bd68:	fff00513          	addi	a0,zero,-1
   1bd6c:	02070063          	beq	a4,zero,1bd8c <signal+0x98>
   1bd70:	00062023          	sw	zero,0(a2)
   1bd74:	00460613          	addi	a2,a2,4
   1bd78:	fec59ce3          	bne	a1,a2,1bd70 <signal+0x7c>
   1bd7c:	00279513          	slli	a0,a5,0x2
   1bd80:	00a70733          	add	a4,a4,a0
   1bd84:	00072503          	lw	a0,0(a4)
   1bd88:	00d72023          	sw	a3,0(a4)
   1bd8c:	01c12083          	lw	ra,28(sp)
   1bd90:	02010113          	addi	sp,sp,32
   1bd94:	00008067          	jalr	zero,0(ra)

0001bd98 <_init_signal>:
   1bd98:	f0c1a783          	lw	a5,-244(gp) # b471c <_impure_ptr>
   1bd9c:	1187a703          	lw	a4,280(a5)
   1bda0:	00070663          	beq	a4,zero,1bdac <_init_signal+0x14>
   1bda4:	00000513          	addi	a0,zero,0
   1bda8:	00008067          	jalr	zero,0(ra)
   1bdac:	fe010113          	addi	sp,sp,-32
   1bdb0:	00078513          	addi	a0,a5,0
   1bdb4:	08000593          	addi	a1,zero,128
   1bdb8:	00f12623          	sw	a5,12(sp)
   1bdbc:	00112e23          	sw	ra,28(sp)
   1bdc0:	e8cf50ef          	jal	ra,1144c <_malloc_r>
   1bdc4:	00c12783          	lw	a5,12(sp)
   1bdc8:	10a7ac23          	sw	a0,280(a5)
   1bdcc:	02050263          	beq	a0,zero,1bdf0 <_init_signal+0x58>
   1bdd0:	08050793          	addi	a5,a0,128
   1bdd4:	00052023          	sw	zero,0(a0)
   1bdd8:	00450513          	addi	a0,a0,4
   1bddc:	fef51ce3          	bne	a0,a5,1bdd4 <_init_signal+0x3c>
   1bde0:	00000513          	addi	a0,zero,0
   1bde4:	01c12083          	lw	ra,28(sp)
   1bde8:	02010113          	addi	sp,sp,32
   1bdec:	00008067          	jalr	zero,0(ra)
   1bdf0:	fff00513          	addi	a0,zero,-1
   1bdf4:	ff1ff06f          	jal	zero,1bde4 <_init_signal+0x4c>

0001bdf8 <__sigtramp>:
   1bdf8:	01f00793          	addi	a5,zero,31
   1bdfc:	0ca7e463          	bltu	a5,a0,1bec4 <__sigtramp+0xcc>
   1be00:	f0c1a683          	lw	a3,-244(gp) # b471c <_impure_ptr>
   1be04:	fe010113          	addi	sp,sp,-32
   1be08:	00112e23          	sw	ra,28(sp)
   1be0c:	1186a783          	lw	a5,280(a3)
   1be10:	00050713          	addi	a4,a0,0
   1be14:	06078463          	beq	a5,zero,1be7c <__sigtramp+0x84>
   1be18:	00271693          	slli	a3,a4,0x2
   1be1c:	00d787b3          	add	a5,a5,a3
   1be20:	0007a683          	lw	a3,0(a5)
   1be24:	02068863          	beq	a3,zero,1be54 <__sigtramp+0x5c>
   1be28:	fff00613          	addi	a2,zero,-1
   1be2c:	04c68463          	beq	a3,a2,1be74 <__sigtramp+0x7c>
   1be30:	00100613          	addi	a2,zero,1
   1be34:	02c68863          	beq	a3,a2,1be64 <__sigtramp+0x6c>
   1be38:	00070513          	addi	a0,a4,0
   1be3c:	0007a023          	sw	zero,0(a5)
   1be40:	000680e7          	jalr	ra,0(a3)
   1be44:	00000513          	addi	a0,zero,0
   1be48:	01c12083          	lw	ra,28(sp)
   1be4c:	02010113          	addi	sp,sp,32
   1be50:	00008067          	jalr	zero,0(ra)
   1be54:	01c12083          	lw	ra,28(sp)
   1be58:	00100513          	addi	a0,zero,1
   1be5c:	02010113          	addi	sp,sp,32
   1be60:	00008067          	jalr	zero,0(ra)
   1be64:	01c12083          	lw	ra,28(sp)
   1be68:	00300513          	addi	a0,zero,3
   1be6c:	02010113          	addi	sp,sp,32
   1be70:	00008067          	jalr	zero,0(ra)
   1be74:	00200513          	addi	a0,zero,2
   1be78:	fd1ff06f          	jal	zero,1be48 <__sigtramp+0x50>
   1be7c:	00a12623          	sw	a0,12(sp)
   1be80:	08000593          	addi	a1,zero,128
   1be84:	00068513          	addi	a0,a3,0
   1be88:	00d12423          	sw	a3,8(sp)
   1be8c:	dc0f50ef          	jal	ra,1144c <_malloc_r>
   1be90:	00812683          	lw	a3,8(sp)
   1be94:	00050793          	addi	a5,a0,0
   1be98:	10a6ac23          	sw	a0,280(a3)
   1be9c:	02050063          	beq	a0,zero,1bebc <__sigtramp+0xc4>
   1bea0:	00c12703          	lw	a4,12(sp)
   1bea4:	00050693          	addi	a3,a0,0
   1bea8:	08050613          	addi	a2,a0,128
   1beac:	0006a023          	sw	zero,0(a3)
   1beb0:	00468693          	addi	a3,a3,4
   1beb4:	fed61ce3          	bne	a2,a3,1beac <__sigtramp+0xb4>
   1beb8:	f61ff06f          	jal	zero,1be18 <__sigtramp+0x20>
   1bebc:	fff00513          	addi	a0,zero,-1
   1bec0:	f89ff06f          	jal	zero,1be48 <__sigtramp+0x50>
   1bec4:	fff00513          	addi	a0,zero,-1
   1bec8:	00008067          	jalr	zero,0(ra)

0001becc <_kill_r>:
   1becc:	ff010113          	addi	sp,sp,-16
   1bed0:	00058793          	addi	a5,a1,0
   1bed4:	00812423          	sw	s0,8(sp)
   1bed8:	00912223          	sw	s1,4(sp)
   1bedc:	00060593          	addi	a1,a2,0
   1bee0:	00050493          	addi	s1,a0,0
   1bee4:	00078513          	addi	a0,a5,0
   1bee8:	00112623          	sw	ra,12(sp)
   1beec:	f001ae23          	sw	zero,-228(gp) # b472c <errno>
   1bef0:	15c000ef          	jal	ra,1c04c <_kill>
   1bef4:	fff00793          	addi	a5,zero,-1
   1bef8:	00f50c63          	beq	a0,a5,1bf10 <_kill_r+0x44>
   1befc:	00c12083          	lw	ra,12(sp)
   1bf00:	00812403          	lw	s0,8(sp)
   1bf04:	00412483          	lw	s1,4(sp)
   1bf08:	01010113          	addi	sp,sp,16
   1bf0c:	00008067          	jalr	zero,0(ra)
   1bf10:	f1c1a783          	lw	a5,-228(gp) # b472c <errno>
   1bf14:	fe0784e3          	beq	a5,zero,1befc <_kill_r+0x30>
   1bf18:	00c12083          	lw	ra,12(sp)
   1bf1c:	00812403          	lw	s0,8(sp)
   1bf20:	00f4a023          	sw	a5,0(s1)
   1bf24:	00412483          	lw	s1,4(sp)
   1bf28:	01010113          	addi	sp,sp,16
   1bf2c:	00008067          	jalr	zero,0(ra)

0001bf30 <_getpid_r>:
   1bf30:	0d40006f          	jal	zero,1c004 <_getpid>

0001bf34 <_close>:
   1bf34:	03900893          	addi	a7,zero,57
   1bf38:	00000073          	ecall
   1bf3c:	00054463          	blt	a0,zero,1bf44 <_close+0x10>
   1bf40:	00008067          	jalr	zero,0(ra)
   1bf44:	fe010113          	addi	sp,sp,-32
   1bf48:	00112e23          	sw	ra,28(sp)
   1bf4c:	00a12623          	sw	a0,12(sp)
   1bf50:	a75ff0ef          	jal	ra,1b9c4 <__errno>
   1bf54:	00c12783          	lw	a5,12(sp)
   1bf58:	01c12083          	lw	ra,28(sp)
   1bf5c:	40f007b3          	sub	a5,zero,a5
   1bf60:	00f52023          	sw	a5,0(a0)
   1bf64:	fff00793          	addi	a5,zero,-1
   1bf68:	00078513          	addi	a0,a5,0
   1bf6c:	02010113          	addi	sp,sp,32
   1bf70:	00008067          	jalr	zero,0(ra)

0001bf74 <_exit>:
   1bf74:	05d00893          	addi	a7,zero,93
   1bf78:	00000073          	ecall
   1bf7c:	00054463          	blt	a0,zero,1bf84 <_exit+0x10>
   1bf80:	0000006f          	jal	zero,1bf80 <_exit+0xc>
   1bf84:	fe010113          	addi	sp,sp,-32
   1bf88:	00112e23          	sw	ra,28(sp)
   1bf8c:	00a12623          	sw	a0,12(sp)
   1bf90:	a35ff0ef          	jal	ra,1b9c4 <__errno>
   1bf94:	00c12783          	lw	a5,12(sp)
   1bf98:	40f007b3          	sub	a5,zero,a5
   1bf9c:	00f52023          	sw	a5,0(a0)
   1bfa0:	0000006f          	jal	zero,1bfa0 <_exit+0x2c>

0001bfa4 <_fstat>:
   1bfa4:	f6010113          	addi	sp,sp,-160
   1bfa8:	00058793          	addi	a5,a1,0
   1bfac:	08112e23          	sw	ra,156(sp)
   1bfb0:	08812c23          	sw	s0,152(sp)
   1bfb4:	05000893          	addi	a7,zero,80
   1bfb8:	01010593          	addi	a1,sp,16
   1bfbc:	00000073          	ecall
   1bfc0:	00050413          	addi	s0,a0,0
   1bfc4:	02054263          	blt	a0,zero,1bfe8 <_fstat+0x44>
   1bfc8:	01010593          	addi	a1,sp,16
   1bfcc:	00078513          	addi	a0,a5,0
   1bfd0:	1d8000ef          	jal	ra,1c1a8 <_conv_stat>
   1bfd4:	09c12083          	lw	ra,156(sp)
   1bfd8:	00040513          	addi	a0,s0,0
   1bfdc:	09812403          	lw	s0,152(sp)
   1bfe0:	0a010113          	addi	sp,sp,160
   1bfe4:	00008067          	jalr	zero,0(ra)
   1bfe8:	00f12623          	sw	a5,12(sp)
   1bfec:	40800433          	sub	s0,zero,s0
   1bff0:	9d5ff0ef          	jal	ra,1b9c4 <__errno>
   1bff4:	00852023          	sw	s0,0(a0)
   1bff8:	00c12783          	lw	a5,12(sp)
   1bffc:	fff00413          	addi	s0,zero,-1
   1c000:	fc9ff06f          	jal	zero,1bfc8 <_fstat+0x24>

0001c004 <_getpid>:
   1c004:	00100513          	addi	a0,zero,1
   1c008:	00008067          	jalr	zero,0(ra)

0001c00c <_isatty>:
   1c00c:	f9010113          	addi	sp,sp,-112
   1c010:	00810593          	addi	a1,sp,8
   1c014:	06112623          	sw	ra,108(sp)
   1c018:	f8dff0ef          	jal	ra,1bfa4 <_fstat>
   1c01c:	fff00793          	addi	a5,zero,-1
   1c020:	00f50e63          	beq	a0,a5,1c03c <_isatty+0x30>
   1c024:	00c12503          	lw	a0,12(sp)
   1c028:	06c12083          	lw	ra,108(sp)
   1c02c:	00d55513          	srli	a0,a0,0xd
   1c030:	00157513          	andi	a0,a0,1
   1c034:	07010113          	addi	sp,sp,112
   1c038:	00008067          	jalr	zero,0(ra)
   1c03c:	06c12083          	lw	ra,108(sp)
   1c040:	00000513          	addi	a0,zero,0
   1c044:	07010113          	addi	sp,sp,112
   1c048:	00008067          	jalr	zero,0(ra)

0001c04c <_kill>:
   1c04c:	ff010113          	addi	sp,sp,-16
   1c050:	00112623          	sw	ra,12(sp)
   1c054:	971ff0ef          	jal	ra,1b9c4 <__errno>
   1c058:	00c12083          	lw	ra,12(sp)
   1c05c:	01600793          	addi	a5,zero,22
   1c060:	00f52023          	sw	a5,0(a0)
   1c064:	fff00513          	addi	a0,zero,-1
   1c068:	01010113          	addi	sp,sp,16
   1c06c:	00008067          	jalr	zero,0(ra)

0001c070 <_lseek>:
   1c070:	03e00893          	addi	a7,zero,62
   1c074:	00000073          	ecall
   1c078:	00054463          	blt	a0,zero,1c080 <_lseek+0x10>
   1c07c:	00008067          	jalr	zero,0(ra)
   1c080:	fe010113          	addi	sp,sp,-32
   1c084:	00112e23          	sw	ra,28(sp)
   1c088:	00a12623          	sw	a0,12(sp)
   1c08c:	939ff0ef          	jal	ra,1b9c4 <__errno>
   1c090:	00c12783          	lw	a5,12(sp)
   1c094:	01c12083          	lw	ra,28(sp)
   1c098:	40f007b3          	sub	a5,zero,a5
   1c09c:	00f52023          	sw	a5,0(a0)
   1c0a0:	fff00793          	addi	a5,zero,-1
   1c0a4:	00078513          	addi	a0,a5,0
   1c0a8:	02010113          	addi	sp,sp,32
   1c0ac:	00008067          	jalr	zero,0(ra)

0001c0b0 <_read>:
   1c0b0:	03f00893          	addi	a7,zero,63
   1c0b4:	00000073          	ecall
   1c0b8:	00054463          	blt	a0,zero,1c0c0 <_read+0x10>
   1c0bc:	00008067          	jalr	zero,0(ra)
   1c0c0:	fe010113          	addi	sp,sp,-32
   1c0c4:	00112e23          	sw	ra,28(sp)
   1c0c8:	00a12623          	sw	a0,12(sp)
   1c0cc:	8f9ff0ef          	jal	ra,1b9c4 <__errno>
   1c0d0:	00c12783          	lw	a5,12(sp)
   1c0d4:	01c12083          	lw	ra,28(sp)
   1c0d8:	40f007b3          	sub	a5,zero,a5
   1c0dc:	00f52023          	sw	a5,0(a0)
   1c0e0:	fff00793          	addi	a5,zero,-1
   1c0e4:	00078513          	addi	a0,a5,0
   1c0e8:	02010113          	addi	sp,sp,32
   1c0ec:	00008067          	jalr	zero,0(ra)

0001c0f0 <_sbrk>:
   1c0f0:	f341a783          	lw	a5,-204(gp) # b4744 <heap_end.0>
   1c0f4:	ff010113          	addi	sp,sp,-16
   1c0f8:	00112623          	sw	ra,12(sp)
   1c0fc:	00050713          	addi	a4,a0,0
   1c100:	02079063          	bne	a5,zero,1c120 <_sbrk+0x30>
   1c104:	0d600893          	addi	a7,zero,214
   1c108:	00000513          	addi	a0,zero,0
   1c10c:	00000073          	ecall
   1c110:	fff00793          	addi	a5,zero,-1
   1c114:	02f50c63          	beq	a0,a5,1c14c <_sbrk+0x5c>
   1c118:	00050793          	addi	a5,a0,0
   1c11c:	f2a1aa23          	sw	a0,-204(gp) # b4744 <heap_end.0>
   1c120:	00f70533          	add	a0,a4,a5
   1c124:	0d600893          	addi	a7,zero,214
   1c128:	00000073          	ecall
   1c12c:	f341a783          	lw	a5,-204(gp) # b4744 <heap_end.0>
   1c130:	00f70733          	add	a4,a4,a5
   1c134:	00e51c63          	bne	a0,a4,1c14c <_sbrk+0x5c>
   1c138:	00c12083          	lw	ra,12(sp)
   1c13c:	f2a1aa23          	sw	a0,-204(gp) # b4744 <heap_end.0>
   1c140:	00078513          	addi	a0,a5,0
   1c144:	01010113          	addi	sp,sp,16
   1c148:	00008067          	jalr	zero,0(ra)
   1c14c:	879ff0ef          	jal	ra,1b9c4 <__errno>
   1c150:	00c12083          	lw	ra,12(sp)
   1c154:	00c00793          	addi	a5,zero,12
   1c158:	00f52023          	sw	a5,0(a0)
   1c15c:	fff00513          	addi	a0,zero,-1
   1c160:	01010113          	addi	sp,sp,16
   1c164:	00008067          	jalr	zero,0(ra)

0001c168 <_write>:
   1c168:	04000893          	addi	a7,zero,64
   1c16c:	00000073          	ecall
   1c170:	00054463          	blt	a0,zero,1c178 <_write+0x10>
   1c174:	00008067          	jalr	zero,0(ra)
   1c178:	fe010113          	addi	sp,sp,-32
   1c17c:	00112e23          	sw	ra,28(sp)
   1c180:	00a12623          	sw	a0,12(sp)
   1c184:	841ff0ef          	jal	ra,1b9c4 <__errno>
   1c188:	00c12783          	lw	a5,12(sp)
   1c18c:	01c12083          	lw	ra,28(sp)
   1c190:	40f007b3          	sub	a5,zero,a5
   1c194:	00f52023          	sw	a5,0(a0)
   1c198:	fff00793          	addi	a5,zero,-1
   1c19c:	00078513          	addi	a0,a5,0
   1c1a0:	02010113          	addi	sp,sp,32
   1c1a4:	00008067          	jalr	zero,0(ra)

0001c1a8 <_conv_stat>:
   1c1a8:	0005a683          	lw	a3,0(a1)
   1c1ac:	0085a703          	lw	a4,8(a1)
   1c1b0:	0105a783          	lw	a5,16(a1)
   1c1b4:	0145a383          	lw	t2,20(a1)
   1c1b8:	0185a283          	lw	t0,24(a1)
   1c1bc:	01c5af83          	lw	t6,28(a1)
   1c1c0:	0205af03          	lw	t5,32(a1)
   1c1c4:	0305ae83          	lw	t4,48(a1)
   1c1c8:	0405ae03          	lw	t3,64(a1)
   1c1cc:	0385a303          	lw	t1,56(a1)
   1c1d0:	0485a803          	lw	a6,72(a1)
   1c1d4:	04c5a883          	lw	a7,76(a1)
   1c1d8:	0585a603          	lw	a2,88(a1)
   1c1dc:	00d51023          	sh	a3,0(a0)
   1c1e0:	00e51123          	sh	a4,2(a0)
   1c1e4:	05c5a683          	lw	a3,92(a1)
   1c1e8:	0685a703          	lw	a4,104(a1)
   1c1ec:	00f52223          	sw	a5,4(a0)
   1c1f0:	06c5a783          	lw	a5,108(a1)
   1c1f4:	00751423          	sh	t2,8(a0)
   1c1f8:	00551523          	sh	t0,10(a0)
   1c1fc:	01f51623          	sh	t6,12(a0)
   1c200:	01e51723          	sh	t5,14(a0)
   1c204:	01d52823          	sw	t4,16(a0)
   1c208:	05c52623          	sw	t3,76(a0)
   1c20c:	04652423          	sw	t1,72(a0)
   1c210:	01052c23          	sw	a6,24(a0)
   1c214:	01152e23          	sw	a7,28(a0)
   1c218:	02c52423          	sw	a2,40(a0)
   1c21c:	02d52623          	sw	a3,44(a0)
   1c220:	02e52c23          	sw	a4,56(a0)
   1c224:	02f52e23          	sw	a5,60(a0)
   1c228:	00008067          	jalr	zero,0(ra)

0001c22c <__adddf3>:
   1c22c:	00100737          	lui	a4,0x100
   1c230:	fe010113          	addi	sp,sp,-32
   1c234:	fff70713          	addi	a4,a4,-1 # fffff <__BSS_END__+0x4b5ab>
   1c238:	00b777b3          	and	a5,a4,a1
   1c23c:	0146d893          	srli	a7,a3,0x14
   1c240:	00d77733          	and	a4,a4,a3
   1c244:	00812c23          	sw	s0,24(sp)
   1c248:	0145d413          	srli	s0,a1,0x14
   1c24c:	00371713          	slli	a4,a4,0x3
   1c250:	01d65813          	srli	a6,a2,0x1d
   1c254:	01212823          	sw	s2,16(sp)
   1c258:	7ff47413          	andi	s0,s0,2047
   1c25c:	01f5d913          	srli	s2,a1,0x1f
   1c260:	00379793          	slli	a5,a5,0x3
   1c264:	01d55593          	srli	a1,a0,0x1d
   1c268:	7ff8f893          	andi	a7,a7,2047
   1c26c:	00112e23          	sw	ra,28(sp)
   1c270:	00912a23          	sw	s1,20(sp)
   1c274:	01312623          	sw	s3,12(sp)
   1c278:	01f6d693          	srli	a3,a3,0x1f
   1c27c:	00f5e7b3          	or	a5,a1,a5
   1c280:	00e86833          	or	a6,a6,a4
   1c284:	00351513          	slli	a0,a0,0x3
   1c288:	00361613          	slli	a2,a2,0x3
   1c28c:	41140733          	sub	a4,s0,a7
   1c290:	7ff00593          	addi	a1,zero,2047
   1c294:	30d91463          	bne	s2,a3,1c59c <__adddf3+0x370>
   1c298:	10e05263          	bge	zero,a4,1c39c <__adddf3+0x170>
   1c29c:	02089c63          	bne	a7,zero,1c2d4 <__adddf3+0xa8>
   1c2a0:	00c86733          	or	a4,a6,a2
   1c2a4:	02070463          	beq	a4,zero,1c2cc <__adddf3+0xa0>
   1c2a8:	fff40713          	addi	a4,s0,-1
   1c2ac:	00071e63          	bne	a4,zero,1c2c8 <__adddf3+0x9c>
   1c2b0:	00c50633          	add	a2,a0,a2
   1c2b4:	010787b3          	add	a5,a5,a6
   1c2b8:	00a63533          	sltu	a0,a2,a0
   1c2bc:	00a787b3          	add	a5,a5,a0
   1c2c0:	00100413          	addi	s0,zero,1
   1c2c4:	0600006f          	jal	zero,1c324 <__adddf3+0xf8>
   1c2c8:	00b41c63          	bne	s0,a1,1c2e0 <__adddf3+0xb4>
   1c2cc:	00050613          	addi	a2,a0,0
   1c2d0:	1d80006f          	jal	zero,1c4a8 <__adddf3+0x27c>
   1c2d4:	feb40ce3          	beq	s0,a1,1c2cc <__adddf3+0xa0>
   1c2d8:	008006b7          	lui	a3,0x800
   1c2dc:	00d86833          	or	a6,a6,a3
   1c2e0:	03800693          	addi	a3,zero,56
   1c2e4:	0ae6c663          	blt	a3,a4,1c390 <__adddf3+0x164>
   1c2e8:	01f00693          	addi	a3,zero,31
   1c2ec:	02000893          	addi	a7,zero,32
   1c2f0:	06e6c863          	blt	a3,a4,1c360 <__adddf3+0x134>
   1c2f4:	40e888b3          	sub	a7,a7,a4
   1c2f8:	011816b3          	sll	a3,a6,a7
   1c2fc:	00e655b3          	srl	a1,a2,a4
   1c300:	011618b3          	sll	a7,a2,a7
   1c304:	00b6e6b3          	or	a3,a3,a1
   1c308:	011038b3          	sltu	a7,zero,a7
   1c30c:	0116e6b3          	or	a3,a3,a7
   1c310:	00e85733          	srl	a4,a6,a4
   1c314:	00a68633          	add	a2,a3,a0
   1c318:	00f70733          	add	a4,a4,a5
   1c31c:	00d636b3          	sltu	a3,a2,a3
   1c320:	00d707b3          	add	a5,a4,a3
   1c324:	00879713          	slli	a4,a5,0x8
   1c328:	22075663          	bge	a4,zero,1c554 <__adddf3+0x328>
   1c32c:	00140413          	addi	s0,s0,1
   1c330:	7ff00713          	addi	a4,zero,2047
   1c334:	60e40863          	beq	s0,a4,1c944 <__adddf3+0x718>
   1c338:	ff800737          	lui	a4,0xff800
   1c33c:	fff70713          	addi	a4,a4,-1 # ff7fffff <__BSS_END__+0xff74b5ab>
   1c340:	00e7f7b3          	and	a5,a5,a4
   1c344:	00165713          	srli	a4,a2,0x1
   1c348:	00167613          	andi	a2,a2,1
   1c34c:	00c76733          	or	a4,a4,a2
   1c350:	01f79613          	slli	a2,a5,0x1f
   1c354:	00e66633          	or	a2,a2,a4
   1c358:	0017d793          	srli	a5,a5,0x1
   1c35c:	1f80006f          	jal	zero,1c554 <__adddf3+0x328>
   1c360:	fe070693          	addi	a3,a4,-32
   1c364:	00d856b3          	srl	a3,a6,a3
   1c368:	00000593          	addi	a1,zero,0
   1c36c:	01170863          	beq	a4,a7,1c37c <__adddf3+0x150>
   1c370:	04000593          	addi	a1,zero,64
   1c374:	40e585b3          	sub	a1,a1,a4
   1c378:	00b815b3          	sll	a1,a6,a1
   1c37c:	00c5e5b3          	or	a1,a1,a2
   1c380:	00b035b3          	sltu	a1,zero,a1
   1c384:	00b6e6b3          	or	a3,a3,a1
   1c388:	00000713          	addi	a4,zero,0
   1c38c:	f89ff06f          	jal	zero,1c314 <__adddf3+0xe8>
   1c390:	00c866b3          	or	a3,a6,a2
   1c394:	00d036b3          	sltu	a3,zero,a3
   1c398:	ff1ff06f          	jal	zero,1c388 <__adddf3+0x15c>
   1c39c:	0c070263          	beq	a4,zero,1c460 <__adddf3+0x234>
   1c3a0:	40888733          	sub	a4,a7,s0
   1c3a4:	02041263          	bne	s0,zero,1c3c8 <__adddf3+0x19c>
   1c3a8:	00a7e6b3          	or	a3,a5,a0
   1c3ac:	00068863          	beq	a3,zero,1c3bc <__adddf3+0x190>
   1c3b0:	fff70693          	addi	a3,a4,-1
   1c3b4:	ee068ee3          	beq	a3,zero,1c2b0 <__adddf3+0x84>
   1c3b8:	02b71063          	bne	a4,a1,1c3d8 <__adddf3+0x1ac>
   1c3bc:	00080793          	addi	a5,a6,0
   1c3c0:	00070413          	addi	s0,a4,0
   1c3c4:	0e40006f          	jal	zero,1c4a8 <__adddf3+0x27c>
   1c3c8:	58b88663          	beq	a7,a1,1c954 <__adddf3+0x728>
   1c3cc:	008006b7          	lui	a3,0x800
   1c3d0:	00d7e7b3          	or	a5,a5,a3
   1c3d4:	00070693          	addi	a3,a4,0
   1c3d8:	03800713          	addi	a4,zero,56
   1c3dc:	06d74c63          	blt	a4,a3,1c454 <__adddf3+0x228>
   1c3e0:	01f00713          	addi	a4,zero,31
   1c3e4:	02000313          	addi	t1,zero,32
   1c3e8:	02d74e63          	blt	a4,a3,1c424 <__adddf3+0x1f8>
   1c3ec:	40d30333          	sub	t1,t1,a3
   1c3f0:	00679733          	sll	a4,a5,t1
   1c3f4:	00d555b3          	srl	a1,a0,a3
   1c3f8:	00651333          	sll	t1,a0,t1
   1c3fc:	00b76733          	or	a4,a4,a1
   1c400:	00603333          	sltu	t1,zero,t1
   1c404:	00676733          	or	a4,a4,t1
   1c408:	00d7d6b3          	srl	a3,a5,a3
   1c40c:	00c70633          	add	a2,a4,a2
   1c410:	010686b3          	add	a3,a3,a6
   1c414:	00e63733          	sltu	a4,a2,a4
   1c418:	00e687b3          	add	a5,a3,a4
   1c41c:	00088413          	addi	s0,a7,0
   1c420:	f05ff06f          	jal	zero,1c324 <__adddf3+0xf8>
   1c424:	fe068713          	addi	a4,a3,-32 # 7fffe0 <__BSS_END__+0x74b58c>
   1c428:	00e7d733          	srl	a4,a5,a4
   1c42c:	00000593          	addi	a1,zero,0
   1c430:	00668863          	beq	a3,t1,1c440 <__adddf3+0x214>
   1c434:	04000593          	addi	a1,zero,64
   1c438:	40d585b3          	sub	a1,a1,a3
   1c43c:	00b795b3          	sll	a1,a5,a1
   1c440:	00a5e5b3          	or	a1,a1,a0
   1c444:	00b035b3          	sltu	a1,zero,a1
   1c448:	00b76733          	or	a4,a4,a1
   1c44c:	00000693          	addi	a3,zero,0
   1c450:	fbdff06f          	jal	zero,1c40c <__adddf3+0x1e0>
   1c454:	00a7e733          	or	a4,a5,a0
   1c458:	00e03733          	sltu	a4,zero,a4
   1c45c:	ff1ff06f          	jal	zero,1c44c <__adddf3+0x220>
   1c460:	00140713          	addi	a4,s0,1
   1c464:	7fe77693          	andi	a3,a4,2046
   1c468:	0c069263          	bne	a3,zero,1c52c <__adddf3+0x300>
   1c46c:	00a7e733          	or	a4,a5,a0
   1c470:	0a041463          	bne	s0,zero,1c518 <__adddf3+0x2ec>
   1c474:	4a070863          	beq	a4,zero,1c924 <__adddf3+0x6f8>
   1c478:	00c86733          	or	a4,a6,a2
   1c47c:	4a070863          	beq	a4,zero,1c92c <__adddf3+0x700>
   1c480:	00c50633          	add	a2,a0,a2
   1c484:	010787b3          	add	a5,a5,a6
   1c488:	00a63533          	sltu	a0,a2,a0
   1c48c:	00a787b3          	add	a5,a5,a0
   1c490:	00879713          	slli	a4,a5,0x8
   1c494:	32075a63          	bge	a4,zero,1c7c8 <__adddf3+0x59c>
   1c498:	ff800737          	lui	a4,0xff800
   1c49c:	fff70713          	addi	a4,a4,-1 # ff7fffff <__BSS_END__+0xff74b5ab>
   1c4a0:	00e7f7b3          	and	a5,a5,a4
   1c4a4:	00100413          	addi	s0,zero,1
   1c4a8:	01d79713          	slli	a4,a5,0x1d
   1c4ac:	00365613          	srli	a2,a2,0x3
   1c4b0:	7ff00693          	addi	a3,zero,2047
   1c4b4:	00c76733          	or	a4,a4,a2
   1c4b8:	0037d793          	srli	a5,a5,0x3
   1c4bc:	00d41e63          	bne	s0,a3,1c4d8 <__adddf3+0x2ac>
   1c4c0:	00f76733          	or	a4,a4,a5
   1c4c4:	00000793          	addi	a5,zero,0
   1c4c8:	00070863          	beq	a4,zero,1c4d8 <__adddf3+0x2ac>
   1c4cc:	000807b7          	lui	a5,0x80
   1c4d0:	00000713          	addi	a4,zero,0
   1c4d4:	00000913          	addi	s2,zero,0
   1c4d8:	7ff47413          	andi	s0,s0,2047
   1c4dc:	00c79793          	slli	a5,a5,0xc
   1c4e0:	00c7d793          	srli	a5,a5,0xc
   1c4e4:	01441413          	slli	s0,s0,0x14
   1c4e8:	01f91593          	slli	a1,s2,0x1f
   1c4ec:	00f46433          	or	s0,s0,a5
   1c4f0:	01c12083          	lw	ra,28(sp)
   1c4f4:	00b467b3          	or	a5,s0,a1
   1c4f8:	01812403          	lw	s0,24(sp)
   1c4fc:	01412483          	lw	s1,20(sp)
   1c500:	01012903          	lw	s2,16(sp)
   1c504:	00c12983          	lw	s3,12(sp)
   1c508:	00070513          	addi	a0,a4,0
   1c50c:	00078593          	addi	a1,a5,0 # 80000 <input_data+0x5f2ec>
   1c510:	02010113          	addi	sp,sp,32
   1c514:	00008067          	jalr	zero,0(ra)
   1c518:	40070e63          	beq	a4,zero,1c934 <__adddf3+0x708>
   1c51c:	00c86833          	or	a6,a6,a2
   1c520:	2c081c63          	bne	a6,zero,1c7f8 <__adddf3+0x5cc>
   1c524:	00050613          	addi	a2,a0,0
   1c528:	4100006f          	jal	zero,1c938 <__adddf3+0x70c>
   1c52c:	40b70a63          	beq	a4,a1,1c940 <__adddf3+0x714>
   1c530:	00c50633          	add	a2,a0,a2
   1c534:	00a63533          	sltu	a0,a2,a0
   1c538:	010787b3          	add	a5,a5,a6
   1c53c:	00a787b3          	add	a5,a5,a0
   1c540:	01f79693          	slli	a3,a5,0x1f
   1c544:	00165613          	srli	a2,a2,0x1
   1c548:	00c6e633          	or	a2,a3,a2
   1c54c:	0017d793          	srli	a5,a5,0x1
   1c550:	00070413          	addi	s0,a4,0
   1c554:	00767713          	andi	a4,a2,7
   1c558:	02070063          	beq	a4,zero,1c578 <__adddf3+0x34c>
   1c55c:	00f67713          	andi	a4,a2,15
   1c560:	00400693          	addi	a3,zero,4
   1c564:	00d70a63          	beq	a4,a3,1c578 <__adddf3+0x34c>
   1c568:	00d60733          	add	a4,a2,a3
   1c56c:	00c736b3          	sltu	a3,a4,a2
   1c570:	00d787b3          	add	a5,a5,a3
   1c574:	00070613          	addi	a2,a4,0
   1c578:	00879713          	slli	a4,a5,0x8
   1c57c:	f20756e3          	bge	a4,zero,1c4a8 <__adddf3+0x27c>
   1c580:	00140413          	addi	s0,s0,1
   1c584:	7ff00713          	addi	a4,zero,2047
   1c588:	3ae40e63          	beq	s0,a4,1c944 <__adddf3+0x718>
   1c58c:	ff800737          	lui	a4,0xff800
   1c590:	fff70713          	addi	a4,a4,-1 # ff7fffff <__BSS_END__+0xff74b5ab>
   1c594:	00e7f7b3          	and	a5,a5,a4
   1c598:	f11ff06f          	jal	zero,1c4a8 <__adddf3+0x27c>
   1c59c:	0ee05063          	bge	zero,a4,1c67c <__adddf3+0x450>
   1c5a0:	08089863          	bne	a7,zero,1c630 <__adddf3+0x404>
   1c5a4:	00c86733          	or	a4,a6,a2
   1c5a8:	d20702e3          	beq	a4,zero,1c2cc <__adddf3+0xa0>
   1c5ac:	fff40713          	addi	a4,s0,-1
   1c5b0:	00071e63          	bne	a4,zero,1c5cc <__adddf3+0x3a0>
   1c5b4:	40c50633          	sub	a2,a0,a2
   1c5b8:	410787b3          	sub	a5,a5,a6
   1c5bc:	00c53533          	sltu	a0,a0,a2
   1c5c0:	40a787b3          	sub	a5,a5,a0
   1c5c4:	00100413          	addi	s0,zero,1
   1c5c8:	04c0006f          	jal	zero,1c614 <__adddf3+0x3e8>
   1c5cc:	d0b400e3          	beq	s0,a1,1c2cc <__adddf3+0xa0>
   1c5d0:	03800693          	addi	a3,zero,56
   1c5d4:	08e6ce63          	blt	a3,a4,1c670 <__adddf3+0x444>
   1c5d8:	01f00693          	addi	a3,zero,31
   1c5dc:	02000893          	addi	a7,zero,32
   1c5e0:	06e6c063          	blt	a3,a4,1c640 <__adddf3+0x414>
   1c5e4:	40e888b3          	sub	a7,a7,a4
   1c5e8:	011816b3          	sll	a3,a6,a7
   1c5ec:	00e655b3          	srl	a1,a2,a4
   1c5f0:	011618b3          	sll	a7,a2,a7
   1c5f4:	00b6e6b3          	or	a3,a3,a1
   1c5f8:	011038b3          	sltu	a7,zero,a7
   1c5fc:	0116e6b3          	or	a3,a3,a7
   1c600:	00e85733          	srl	a4,a6,a4
   1c604:	40d50633          	sub	a2,a0,a3
   1c608:	40e78733          	sub	a4,a5,a4
   1c60c:	00c53533          	sltu	a0,a0,a2
   1c610:	40a707b3          	sub	a5,a4,a0
   1c614:	00879713          	slli	a4,a5,0x8
   1c618:	f2075ee3          	bge	a4,zero,1c554 <__adddf3+0x328>
   1c61c:	008004b7          	lui	s1,0x800
   1c620:	fff48493          	addi	s1,s1,-1 # 7fffff <__BSS_END__+0x74b5ab>
   1c624:	0097f4b3          	and	s1,a5,s1
   1c628:	00060993          	addi	s3,a2,0
   1c62c:	2140006f          	jal	zero,1c840 <__adddf3+0x614>
   1c630:	c8b40ee3          	beq	s0,a1,1c2cc <__adddf3+0xa0>
   1c634:	008006b7          	lui	a3,0x800
   1c638:	00d86833          	or	a6,a6,a3
   1c63c:	f95ff06f          	jal	zero,1c5d0 <__adddf3+0x3a4>
   1c640:	fe070693          	addi	a3,a4,-32
   1c644:	00d856b3          	srl	a3,a6,a3
   1c648:	00000593          	addi	a1,zero,0
   1c64c:	01170863          	beq	a4,a7,1c65c <__adddf3+0x430>
   1c650:	04000593          	addi	a1,zero,64
   1c654:	40e585b3          	sub	a1,a1,a4
   1c658:	00b815b3          	sll	a1,a6,a1
   1c65c:	00c5e5b3          	or	a1,a1,a2
   1c660:	00b035b3          	sltu	a1,zero,a1
   1c664:	00b6e6b3          	or	a3,a3,a1
   1c668:	00000713          	addi	a4,zero,0
   1c66c:	f99ff06f          	jal	zero,1c604 <__adddf3+0x3d8>
   1c670:	00c866b3          	or	a3,a6,a2
   1c674:	00d036b3          	sltu	a3,zero,a3
   1c678:	ff1ff06f          	jal	zero,1c668 <__adddf3+0x43c>
   1c67c:	0e070663          	beq	a4,zero,1c768 <__adddf3+0x53c>
   1c680:	40888333          	sub	t1,a7,s0
   1c684:	04041263          	bne	s0,zero,1c6c8 <__adddf3+0x49c>
   1c688:	00a7e733          	or	a4,a5,a0
   1c68c:	02070663          	beq	a4,zero,1c6b8 <__adddf3+0x48c>
   1c690:	fff30713          	addi	a4,t1,-1
   1c694:	02071063          	bne	a4,zero,1c6b4 <__adddf3+0x488>
   1c698:	40a60533          	sub	a0,a2,a0
   1c69c:	00a63733          	sltu	a4,a2,a0
   1c6a0:	40f807b3          	sub	a5,a6,a5
   1c6a4:	00050613          	addi	a2,a0,0
   1c6a8:	40e787b3          	sub	a5,a5,a4
   1c6ac:	00068913          	addi	s2,a3,0 # 800000 <__BSS_END__+0x74b5ac>
   1c6b0:	f15ff06f          	jal	zero,1c5c4 <__adddf3+0x398>
   1c6b4:	02b31263          	bne	t1,a1,1c6d8 <__adddf3+0x4ac>
   1c6b8:	00068913          	addi	s2,a3,0
   1c6bc:	00080793          	addi	a5,a6,0
   1c6c0:	00030413          	addi	s0,t1,0
   1c6c4:	de5ff06f          	jal	zero,1c4a8 <__adddf3+0x27c>
   1c6c8:	28b88463          	beq	a7,a1,1c950 <__adddf3+0x724>
   1c6cc:	00800737          	lui	a4,0x800
   1c6d0:	00e7e7b3          	or	a5,a5,a4
   1c6d4:	00030713          	addi	a4,t1,0
   1c6d8:	03800593          	addi	a1,zero,56
   1c6dc:	08e5c063          	blt	a1,a4,1c75c <__adddf3+0x530>
   1c6e0:	01f00593          	addi	a1,zero,31
   1c6e4:	02000e13          	addi	t3,zero,32
   1c6e8:	04e5c263          	blt	a1,a4,1c72c <__adddf3+0x500>
   1c6ec:	40ee0e33          	sub	t3,t3,a4
   1c6f0:	01c795b3          	sll	a1,a5,t3
   1c6f4:	00e55333          	srl	t1,a0,a4
   1c6f8:	01c51e33          	sll	t3,a0,t3
   1c6fc:	0065e5b3          	or	a1,a1,t1
   1c700:	01c03e33          	sltu	t3,zero,t3
   1c704:	01c5e5b3          	or	a1,a1,t3
   1c708:	00e7d733          	srl	a4,a5,a4
   1c70c:	40b605b3          	sub	a1,a2,a1
   1c710:	00b637b3          	sltu	a5,a2,a1
   1c714:	40e80733          	sub	a4,a6,a4
   1c718:	00058613          	addi	a2,a1,0
   1c71c:	40f707b3          	sub	a5,a4,a5
   1c720:	00088413          	addi	s0,a7,0
   1c724:	00068913          	addi	s2,a3,0
   1c728:	eedff06f          	jal	zero,1c614 <__adddf3+0x3e8>
   1c72c:	fe070593          	addi	a1,a4,-32 # 7fffe0 <__BSS_END__+0x74b58c>
   1c730:	00b7d5b3          	srl	a1,a5,a1
   1c734:	00000313          	addi	t1,zero,0
   1c738:	01c70863          	beq	a4,t3,1c748 <__adddf3+0x51c>
   1c73c:	04000313          	addi	t1,zero,64
   1c740:	40e30333          	sub	t1,t1,a4
   1c744:	00679333          	sll	t1,a5,t1
   1c748:	00a36333          	or	t1,t1,a0
   1c74c:	00603333          	sltu	t1,zero,t1
   1c750:	0065e5b3          	or	a1,a1,t1
   1c754:	00000713          	addi	a4,zero,0
   1c758:	fb5ff06f          	jal	zero,1c70c <__adddf3+0x4e0>
   1c75c:	00a7e5b3          	or	a1,a5,a0
   1c760:	00b035b3          	sltu	a1,zero,a1
   1c764:	ff1ff06f          	jal	zero,1c754 <__adddf3+0x528>
   1c768:	00140713          	addi	a4,s0,1
   1c76c:	7fe77713          	andi	a4,a4,2046
   1c770:	0a071063          	bne	a4,zero,1c810 <__adddf3+0x5e4>
   1c774:	00a7e8b3          	or	a7,a5,a0
   1c778:	00c86733          	or	a4,a6,a2
   1c77c:	06041863          	bne	s0,zero,1c7ec <__adddf3+0x5c0>
   1c780:	00089a63          	bne	a7,zero,1c794 <__adddf3+0x568>
   1c784:	00080793          	addi	a5,a6,0
   1c788:	02071e63          	bne	a4,zero,1c7c4 <__adddf3+0x598>
   1c78c:	00000913          	addi	s2,zero,0
   1c790:	1b40006f          	jal	zero,1c944 <__adddf3+0x718>
   1c794:	18070c63          	beq	a4,zero,1c92c <__adddf3+0x700>
   1c798:	40c505b3          	sub	a1,a0,a2
   1c79c:	00b538b3          	sltu	a7,a0,a1
   1c7a0:	41078733          	sub	a4,a5,a6
   1c7a4:	41170733          	sub	a4,a4,a7
   1c7a8:	00871893          	slli	a7,a4,0x8
   1c7ac:	0208d663          	bge	a7,zero,1c7d8 <__adddf3+0x5ac>
   1c7b0:	40a60533          	sub	a0,a2,a0
   1c7b4:	00a63733          	sltu	a4,a2,a0
   1c7b8:	40f807b3          	sub	a5,a6,a5
   1c7bc:	00050613          	addi	a2,a0,0
   1c7c0:	40e787b3          	sub	a5,a5,a4
   1c7c4:	00068913          	addi	s2,a3,0
   1c7c8:	00f66733          	or	a4,a2,a5
   1c7cc:	1a070063          	beq	a4,zero,1c96c <__adddf3+0x740>
   1c7d0:	00000413          	addi	s0,zero,0
   1c7d4:	d81ff06f          	jal	zero,1c554 <__adddf3+0x328>
   1c7d8:	00e5e633          	or	a2,a1,a4
   1c7dc:	18060263          	beq	a2,zero,1c960 <__adddf3+0x734>
   1c7e0:	00070793          	addi	a5,a4,0
   1c7e4:	00058613          	addi	a2,a1,0
   1c7e8:	fe1ff06f          	jal	zero,1c7c8 <__adddf3+0x59c>
   1c7ec:	00089e63          	bne	a7,zero,1c808 <__adddf3+0x5dc>
   1c7f0:	00068913          	addi	s2,a3,0
   1c7f4:	14071063          	bne	a4,zero,1c934 <__adddf3+0x708>
   1c7f8:	00000913          	addi	s2,zero,0
   1c7fc:	004007b7          	lui	a5,0x400
   1c800:	00000613          	addi	a2,zero,0
   1c804:	1340006f          	jal	zero,1c938 <__adddf3+0x70c>
   1c808:	d0070ee3          	beq	a4,zero,1c524 <__adddf3+0x2f8>
   1c80c:	fedff06f          	jal	zero,1c7f8 <__adddf3+0x5cc>
   1c810:	40c50733          	sub	a4,a0,a2
   1c814:	00e535b3          	sltu	a1,a0,a4
   1c818:	410784b3          	sub	s1,a5,a6
   1c81c:	40b484b3          	sub	s1,s1,a1
   1c820:	00849593          	slli	a1,s1,0x8
   1c824:	00070993          	addi	s3,a4,0
   1c828:	0605de63          	bge	a1,zero,1c8a4 <__adddf3+0x678>
   1c82c:	40a609b3          	sub	s3,a2,a0
   1c830:	40f804b3          	sub	s1,a6,a5
   1c834:	01363633          	sltu	a2,a2,s3
   1c838:	40c484b3          	sub	s1,s1,a2
   1c83c:	00068913          	addi	s2,a3,0
   1c840:	06048e63          	beq	s1,zero,1c8bc <__adddf3+0x690>
   1c844:	00048513          	addi	a0,s1,0
   1c848:	2f4040ef          	jal	ra,20b3c <__clzsi2>
   1c84c:	ff850713          	addi	a4,a0,-8
   1c850:	02000793          	addi	a5,zero,32
   1c854:	40e787b3          	sub	a5,a5,a4
   1c858:	00e494b3          	sll	s1,s1,a4
   1c85c:	00f9d7b3          	srl	a5,s3,a5
   1c860:	0097e7b3          	or	a5,a5,s1
   1c864:	00e99633          	sll	a2,s3,a4
   1c868:	0a874463          	blt	a4,s0,1c910 <__adddf3+0x6e4>
   1c86c:	40870733          	sub	a4,a4,s0
   1c870:	00170513          	addi	a0,a4,1
   1c874:	01f00693          	addi	a3,zero,31
   1c878:	02000593          	addi	a1,zero,32
   1c87c:	06a6c263          	blt	a3,a0,1c8e0 <__adddf3+0x6b4>
   1c880:	40a585b3          	sub	a1,a1,a0
   1c884:	00b79733          	sll	a4,a5,a1
   1c888:	00a656b3          	srl	a3,a2,a0
   1c88c:	00b615b3          	sll	a1,a2,a1
   1c890:	00d76733          	or	a4,a4,a3
   1c894:	00b035b3          	sltu	a1,zero,a1
   1c898:	00b76633          	or	a2,a4,a1
   1c89c:	00a7d7b3          	srl	a5,a5,a0
   1c8a0:	f29ff06f          	jal	zero,1c7c8 <__adddf3+0x59c>
   1c8a4:	00976633          	or	a2,a4,s1
   1c8a8:	f8061ce3          	bne	a2,zero,1c840 <__adddf3+0x614>
   1c8ac:	00000913          	addi	s2,zero,0
   1c8b0:	00000793          	addi	a5,zero,0
   1c8b4:	00000413          	addi	s0,zero,0
   1c8b8:	bf1ff06f          	jal	zero,1c4a8 <__adddf3+0x27c>
   1c8bc:	00098513          	addi	a0,s3,0
   1c8c0:	27c040ef          	jal	ra,20b3c <__clzsi2>
   1c8c4:	01850713          	addi	a4,a0,24
   1c8c8:	01f00793          	addi	a5,zero,31
   1c8cc:	f8e7d2e3          	bge	a5,a4,1c850 <__adddf3+0x624>
   1c8d0:	ff850793          	addi	a5,a0,-8
   1c8d4:	00f997b3          	sll	a5,s3,a5
   1c8d8:	00000613          	addi	a2,zero,0
   1c8dc:	f8dff06f          	jal	zero,1c868 <__adddf3+0x63c>
   1c8e0:	fe170713          	addi	a4,a4,-31
   1c8e4:	00e7d733          	srl	a4,a5,a4
   1c8e8:	00000693          	addi	a3,zero,0
   1c8ec:	00b50863          	beq	a0,a1,1c8fc <__adddf3+0x6d0>
   1c8f0:	04000693          	addi	a3,zero,64
   1c8f4:	40a686b3          	sub	a3,a3,a0
   1c8f8:	00d796b3          	sll	a3,a5,a3
   1c8fc:	00d666b3          	or	a3,a2,a3
   1c900:	00d036b3          	sltu	a3,zero,a3
   1c904:	00d76633          	or	a2,a4,a3
   1c908:	00000793          	addi	a5,zero,0
   1c90c:	ebdff06f          	jal	zero,1c7c8 <__adddf3+0x59c>
   1c910:	40e40433          	sub	s0,s0,a4
   1c914:	ff800737          	lui	a4,0xff800
   1c918:	fff70713          	addi	a4,a4,-1 # ff7fffff <__BSS_END__+0xff74b5ab>
   1c91c:	00e7f7b3          	and	a5,a5,a4
   1c920:	c35ff06f          	jal	zero,1c554 <__adddf3+0x328>
   1c924:	00080793          	addi	a5,a6,0
   1c928:	ea1ff06f          	jal	zero,1c7c8 <__adddf3+0x59c>
   1c92c:	00050613          	addi	a2,a0,0
   1c930:	e99ff06f          	jal	zero,1c7c8 <__adddf3+0x59c>
   1c934:	00080793          	addi	a5,a6,0
   1c938:	00058413          	addi	s0,a1,0
   1c93c:	b6dff06f          	jal	zero,1c4a8 <__adddf3+0x27c>
   1c940:	00070413          	addi	s0,a4,0
   1c944:	00000793          	addi	a5,zero,0
   1c948:	00000613          	addi	a2,zero,0
   1c94c:	b5dff06f          	jal	zero,1c4a8 <__adddf3+0x27c>
   1c950:	00068913          	addi	s2,a3,0
   1c954:	00080793          	addi	a5,a6,0
   1c958:	00088413          	addi	s0,a7,0
   1c95c:	b4dff06f          	jal	zero,1c4a8 <__adddf3+0x27c>
   1c960:	00000913          	addi	s2,zero,0
   1c964:	00000793          	addi	a5,zero,0
   1c968:	b41ff06f          	jal	zero,1c4a8 <__adddf3+0x27c>
   1c96c:	00000793          	addi	a5,zero,0
   1c970:	00000613          	addi	a2,zero,0
   1c974:	f41ff06f          	jal	zero,1c8b4 <__adddf3+0x688>

0001c978 <__divdf3>:
   1c978:	fd010113          	addi	sp,sp,-48
   1c97c:	0145d713          	srli	a4,a1,0x14
   1c980:	02812423          	sw	s0,40(sp)
   1c984:	03212023          	sw	s2,32(sp)
   1c988:	01312e23          	sw	s3,28(sp)
   1c98c:	01512a23          	sw	s5,20(sp)
   1c990:	01712623          	sw	s7,12(sp)
   1c994:	00c59413          	slli	s0,a1,0xc
   1c998:	02112623          	sw	ra,44(sp)
   1c99c:	02912223          	sw	s1,36(sp)
   1c9a0:	01412c23          	sw	s4,24(sp)
   1c9a4:	01612823          	sw	s6,16(sp)
   1c9a8:	7ff77713          	andi	a4,a4,2047
   1c9ac:	00050993          	addi	s3,a0,0
   1c9b0:	00060b93          	addi	s7,a2,0
   1c9b4:	00068a93          	addi	s5,a3,0
   1c9b8:	00c45413          	srli	s0,s0,0xc
   1c9bc:	01f5d913          	srli	s2,a1,0x1f
   1c9c0:	0a070063          	beq	a4,zero,1ca60 <__divdf3+0xe8>
   1c9c4:	7ff00793          	addi	a5,zero,2047
   1c9c8:	10f70063          	beq	a4,a5,1cac8 <__divdf3+0x150>
   1c9cc:	01d55a13          	srli	s4,a0,0x1d
   1c9d0:	00341413          	slli	s0,s0,0x3
   1c9d4:	008a6a33          	or	s4,s4,s0
   1c9d8:	008007b7          	lui	a5,0x800
   1c9dc:	00fa6a33          	or	s4,s4,a5
   1c9e0:	00351493          	slli	s1,a0,0x3
   1c9e4:	c0170993          	addi	s3,a4,-1023
   1c9e8:	00000b13          	addi	s6,zero,0
   1c9ec:	014ad793          	srli	a5,s5,0x14
   1c9f0:	00ca9413          	slli	s0,s5,0xc
   1c9f4:	7ff7f793          	andi	a5,a5,2047
   1c9f8:	00c45413          	srli	s0,s0,0xc
   1c9fc:	01fada93          	srli	s5,s5,0x1f
   1ca00:	10078263          	beq	a5,zero,1cb04 <__divdf3+0x18c>
   1ca04:	7ff00693          	addi	a3,zero,2047
   1ca08:	16d78663          	beq	a5,a3,1cb74 <__divdf3+0x1fc>
   1ca0c:	00341413          	slli	s0,s0,0x3
   1ca10:	01dbd693          	srli	a3,s7,0x1d
   1ca14:	0086e6b3          	or	a3,a3,s0
   1ca18:	00800437          	lui	s0,0x800
   1ca1c:	0086e433          	or	s0,a3,s0
   1ca20:	003b9f13          	slli	t5,s7,0x3
   1ca24:	c0178793          	addi	a5,a5,-1023 # 7ffc01 <__BSS_END__+0x74b1ad>
   1ca28:	00000693          	addi	a3,zero,0
   1ca2c:	40f98733          	sub	a4,s3,a5
   1ca30:	002b1793          	slli	a5,s6,0x2
   1ca34:	00d7e7b3          	or	a5,a5,a3
   1ca38:	fff78793          	addi	a5,a5,-1
   1ca3c:	00e00613          	addi	a2,zero,14
   1ca40:	01594833          	xor	a6,s2,s5
   1ca44:	16f66063          	bltu	a2,a5,1cba4 <__divdf3+0x22c>
   1ca48:	000b4637          	lui	a2,0xb4
   1ca4c:	00279793          	slli	a5,a5,0x2
   1ca50:	a2860613          	addi	a2,a2,-1496 # b3a28 <blanks.1+0x10>
   1ca54:	00c787b3          	add	a5,a5,a2
   1ca58:	0007a783          	lw	a5,0(a5)
   1ca5c:	00078067          	jalr	zero,0(a5)
   1ca60:	00a46a33          	or	s4,s0,a0
   1ca64:	060a0e63          	beq	s4,zero,1cae0 <__divdf3+0x168>
   1ca68:	04040063          	beq	s0,zero,1caa8 <__divdf3+0x130>
   1ca6c:	00040513          	addi	a0,s0,0 # 800000 <__BSS_END__+0x74b5ac>
   1ca70:	0cc040ef          	jal	ra,20b3c <__clzsi2>
   1ca74:	00050793          	addi	a5,a0,0
   1ca78:	ff550713          	addi	a4,a0,-11
   1ca7c:	01d00a13          	addi	s4,zero,29
   1ca80:	ff878693          	addi	a3,a5,-8
   1ca84:	40ea0a33          	sub	s4,s4,a4
   1ca88:	00d41433          	sll	s0,s0,a3
   1ca8c:	0149da33          	srl	s4,s3,s4
   1ca90:	008a6a33          	or	s4,s4,s0
   1ca94:	00d99433          	sll	s0,s3,a3
   1ca98:	c0d00713          	addi	a4,zero,-1011
   1ca9c:	40f709b3          	sub	s3,a4,a5
   1caa0:	00040493          	addi	s1,s0,0
   1caa4:	f45ff06f          	jal	zero,1c9e8 <__divdf3+0x70>
   1caa8:	094040ef          	jal	ra,20b3c <__clzsi2>
   1caac:	01550713          	addi	a4,a0,21
   1cab0:	01c00693          	addi	a3,zero,28
   1cab4:	02050793          	addi	a5,a0,32
   1cab8:	fce6d2e3          	bge	a3,a4,1ca7c <__divdf3+0x104>
   1cabc:	ff850513          	addi	a0,a0,-8
   1cac0:	00a99a33          	sll	s4,s3,a0
   1cac4:	fd5ff06f          	jal	zero,1ca98 <__divdf3+0x120>
   1cac8:	00a46a33          	or	s4,s0,a0
   1cacc:	020a1263          	bne	s4,zero,1caf0 <__divdf3+0x178>
   1cad0:	00000493          	addi	s1,zero,0
   1cad4:	00070993          	addi	s3,a4,0
   1cad8:	00200b13          	addi	s6,zero,2
   1cadc:	f11ff06f          	jal	zero,1c9ec <__divdf3+0x74>
   1cae0:	00000493          	addi	s1,zero,0
   1cae4:	00000993          	addi	s3,zero,0
   1cae8:	00100b13          	addi	s6,zero,1
   1caec:	f01ff06f          	jal	zero,1c9ec <__divdf3+0x74>
   1caf0:	00050493          	addi	s1,a0,0
   1caf4:	00040a13          	addi	s4,s0,0
   1caf8:	00070993          	addi	s3,a4,0
   1cafc:	00300b13          	addi	s6,zero,3
   1cb00:	eedff06f          	jal	zero,1c9ec <__divdf3+0x74>
   1cb04:	01746f33          	or	t5,s0,s7
   1cb08:	080f0063          	beq	t5,zero,1cb88 <__divdf3+0x210>
   1cb0c:	04040263          	beq	s0,zero,1cb50 <__divdf3+0x1d8>
   1cb10:	00040513          	addi	a0,s0,0
   1cb14:	028040ef          	jal	ra,20b3c <__clzsi2>
   1cb18:	00050693          	addi	a3,a0,0
   1cb1c:	ff550793          	addi	a5,a0,-11
   1cb20:	01d00593          	addi	a1,zero,29
   1cb24:	ff868613          	addi	a2,a3,-8
   1cb28:	40f585b3          	sub	a1,a1,a5
   1cb2c:	00c41433          	sll	s0,s0,a2
   1cb30:	00bbd5b3          	srl	a1,s7,a1
   1cb34:	0085e5b3          	or	a1,a1,s0
   1cb38:	00cb9433          	sll	s0,s7,a2
   1cb3c:	c0d00793          	addi	a5,zero,-1011
   1cb40:	00040f13          	addi	t5,s0,0
   1cb44:	40d787b3          	sub	a5,a5,a3
   1cb48:	00058413          	addi	s0,a1,0
   1cb4c:	eddff06f          	jal	zero,1ca28 <__divdf3+0xb0>
   1cb50:	000b8513          	addi	a0,s7,0
   1cb54:	7e9030ef          	jal	ra,20b3c <__clzsi2>
   1cb58:	01550793          	addi	a5,a0,21
   1cb5c:	01c00613          	addi	a2,zero,28
   1cb60:	02050693          	addi	a3,a0,32
   1cb64:	faf65ee3          	bge	a2,a5,1cb20 <__divdf3+0x1a8>
   1cb68:	ff850593          	addi	a1,a0,-8
   1cb6c:	00bb95b3          	sll	a1,s7,a1
   1cb70:	fcdff06f          	jal	zero,1cb3c <__divdf3+0x1c4>
   1cb74:	01746f33          	or	t5,s0,s7
   1cb78:	020f1063          	bne	t5,zero,1cb98 <__divdf3+0x220>
   1cb7c:	00000413          	addi	s0,zero,0
   1cb80:	00200693          	addi	a3,zero,2
   1cb84:	ea9ff06f          	jal	zero,1ca2c <__divdf3+0xb4>
   1cb88:	00000413          	addi	s0,zero,0
   1cb8c:	00000793          	addi	a5,zero,0
   1cb90:	00100693          	addi	a3,zero,1
   1cb94:	e99ff06f          	jal	zero,1ca2c <__divdf3+0xb4>
   1cb98:	000b8f13          	addi	t5,s7,0
   1cb9c:	00300693          	addi	a3,zero,3
   1cba0:	e8dff06f          	jal	zero,1ca2c <__divdf3+0xb4>
   1cba4:	01446663          	bltu	s0,s4,1cbb0 <__divdf3+0x238>
   1cba8:	308a1863          	bne	s4,s0,1ceb8 <__divdf3+0x540>
   1cbac:	31e4e663          	bltu	s1,t5,1ceb8 <__divdf3+0x540>
   1cbb0:	01fa1693          	slli	a3,s4,0x1f
   1cbb4:	0014d793          	srli	a5,s1,0x1
   1cbb8:	01f49613          	slli	a2,s1,0x1f
   1cbbc:	001a5a13          	srli	s4,s4,0x1
   1cbc0:	00f6e4b3          	or	s1,a3,a5
   1cbc4:	00841893          	slli	a7,s0,0x8
   1cbc8:	018f5693          	srli	a3,t5,0x18
   1cbcc:	0116e6b3          	or	a3,a3,a7
   1cbd0:	0108d893          	srli	a7,a7,0x10
   1cbd4:	031a55b3          	divu	a1,s4,a7
   1cbd8:	01069e93          	slli	t4,a3,0x10
   1cbdc:	010ede93          	srli	t4,t4,0x10
   1cbe0:	0104d793          	srli	a5,s1,0x10
   1cbe4:	008f1513          	slli	a0,t5,0x8
   1cbe8:	031a7a33          	remu	s4,s4,a7
   1cbec:	02be8333          	mul	t1,t4,a1
   1cbf0:	010a1a13          	slli	s4,s4,0x10
   1cbf4:	0147e7b3          	or	a5,a5,s4
   1cbf8:	0067fa63          	bgeu	a5,t1,1cc0c <__divdf3+0x294>
   1cbfc:	00f687b3          	add	a5,a3,a5
   1cc00:	00d7e463          	bltu	a5,a3,1cc08 <__divdf3+0x290>
   1cc04:	2c67e063          	bltu	a5,t1,1cec4 <__divdf3+0x54c>
   1cc08:	fff58593          	addi	a1,a1,-1
   1cc0c:	406787b3          	sub	a5,a5,t1
   1cc10:	0317d333          	divu	t1,a5,a7
   1cc14:	01049493          	slli	s1,s1,0x10
   1cc18:	0104d493          	srli	s1,s1,0x10
   1cc1c:	0317f7b3          	remu	a5,a5,a7
   1cc20:	026e8e33          	mul	t3,t4,t1
   1cc24:	01079793          	slli	a5,a5,0x10
   1cc28:	00f4e4b3          	or	s1,s1,a5
   1cc2c:	01c4fa63          	bgeu	s1,t3,1cc40 <__divdf3+0x2c8>
   1cc30:	009684b3          	add	s1,a3,s1
   1cc34:	01c4f463          	bgeu	s1,t3,1cc3c <__divdf3+0x2c4>
   1cc38:	28d4fc63          	bgeu	s1,a3,1ced0 <__divdf3+0x558>
   1cc3c:	fff30313          	addi	t1,t1,-1
   1cc40:	01059593          	slli	a1,a1,0x10
   1cc44:	0065e5b3          	or	a1,a1,t1
   1cc48:	41c484b3          	sub	s1,s1,t3
   1cc4c:	01059793          	slli	a5,a1,0x10
   1cc50:	01051e13          	slli	t3,a0,0x10
   1cc54:	0105df93          	srli	t6,a1,0x10
   1cc58:	01055313          	srli	t1,a0,0x10
   1cc5c:	0107d793          	srli	a5,a5,0x10
   1cc60:	010e5e13          	srli	t3,t3,0x10
   1cc64:	03c782b3          	mul	t0,a5,t3
   1cc68:	03cf83b3          	mul	t2,t6,t3
   1cc6c:	02f307b3          	mul	a5,t1,a5
   1cc70:	00778f33          	add	t5,a5,t2
   1cc74:	0102d793          	srli	a5,t0,0x10
   1cc78:	01e787b3          	add	a5,a5,t5
   1cc7c:	026f8fb3          	mul	t6,t6,t1
   1cc80:	0077f663          	bgeu	a5,t2,1cc8c <__divdf3+0x314>
   1cc84:	00010f37          	lui	t5,0x10
   1cc88:	01ef8fb3          	add	t6,t6,t5
   1cc8c:	0107df13          	srli	t5,a5,0x10
   1cc90:	01029293          	slli	t0,t0,0x10
   1cc94:	01079793          	slli	a5,a5,0x10
   1cc98:	0102d293          	srli	t0,t0,0x10
   1cc9c:	01ff0f33          	add	t5,t5,t6
   1cca0:	005787b3          	add	a5,a5,t0
   1cca4:	01e4e663          	bltu	s1,t5,1ccb0 <__divdf3+0x338>
   1cca8:	23e49a63          	bne	s1,t5,1cedc <__divdf3+0x564>
   1ccac:	22f67863          	bgeu	a2,a5,1cedc <__divdf3+0x564>
   1ccb0:	00a60fb3          	add	t6,a2,a0
   1ccb4:	00cfb2b3          	sltu	t0,t6,a2
   1ccb8:	00d283b3          	add	t2,t0,a3
   1ccbc:	007484b3          	add	s1,s1,t2
   1ccc0:	fff58413          	addi	s0,a1,-1
   1ccc4:	000f8613          	addi	a2,t6,0
   1ccc8:	0096e663          	bltu	a3,s1,1ccd4 <__divdf3+0x35c>
   1cccc:	02029463          	bne	t0,zero,1ccf4 <__divdf3+0x37c>
   1ccd0:	02969263          	bne	a3,s1,1ccf4 <__divdf3+0x37c>
   1ccd4:	01e4e663          	bltu	s1,t5,1cce0 <__divdf3+0x368>
   1ccd8:	009f1e63          	bne	t5,s1,1ccf4 <__divdf3+0x37c>
   1ccdc:	00fffc63          	bgeu	t6,a5,1ccf4 <__divdf3+0x37c>
   1cce0:	01f50633          	add	a2,a0,t6
   1cce4:	ffe58413          	addi	s0,a1,-2
   1cce8:	00a635b3          	sltu	a1,a2,a0
   1ccec:	00d585b3          	add	a1,a1,a3
   1ccf0:	00b484b3          	add	s1,s1,a1
   1ccf4:	40f607b3          	sub	a5,a2,a5
   1ccf8:	41e484b3          	sub	s1,s1,t5
   1ccfc:	00f63633          	sltu	a2,a2,a5
   1cd00:	40c484b3          	sub	s1,s1,a2
   1cd04:	fff00f13          	addi	t5,zero,-1
   1cd08:	10968663          	beq	a3,s1,1ce14 <__divdf3+0x49c>
   1cd0c:	0314d5b3          	divu	a1,s1,a7
   1cd10:	0107d613          	srli	a2,a5,0x10
   1cd14:	0314f4b3          	remu	s1,s1,a7
   1cd18:	02be8f33          	mul	t5,t4,a1
   1cd1c:	01049493          	slli	s1,s1,0x10
   1cd20:	00966633          	or	a2,a2,s1
   1cd24:	01e67a63          	bgeu	a2,t5,1cd38 <__divdf3+0x3c0>
   1cd28:	00c68633          	add	a2,a3,a2
   1cd2c:	00d66463          	bltu	a2,a3,1cd34 <__divdf3+0x3bc>
   1cd30:	1be66a63          	bltu	a2,t5,1cee4 <__divdf3+0x56c>
   1cd34:	fff58593          	addi	a1,a1,-1
   1cd38:	41e60633          	sub	a2,a2,t5
   1cd3c:	03165f33          	divu	t5,a2,a7
   1cd40:	01079793          	slli	a5,a5,0x10
   1cd44:	0107d793          	srli	a5,a5,0x10
   1cd48:	03167633          	remu	a2,a2,a7
   1cd4c:	03ee8eb3          	mul	t4,t4,t5
   1cd50:	01061613          	slli	a2,a2,0x10
   1cd54:	00c7e7b3          	or	a5,a5,a2
   1cd58:	01d7fa63          	bgeu	a5,t4,1cd6c <__divdf3+0x3f4>
   1cd5c:	00f687b3          	add	a5,a3,a5
   1cd60:	01d7f463          	bgeu	a5,t4,1cd68 <__divdf3+0x3f0>
   1cd64:	18d7f663          	bgeu	a5,a3,1cef0 <__divdf3+0x578>
   1cd68:	ffff0f13          	addi	t5,t5,-1 # ffff <exit-0xb5>
   1cd6c:	01059613          	slli	a2,a1,0x10
   1cd70:	01e66633          	or	a2,a2,t5
   1cd74:	01061593          	slli	a1,a2,0x10
   1cd78:	0105d593          	srli	a1,a1,0x10
   1cd7c:	41d787b3          	sub	a5,a5,t4
   1cd80:	01065e93          	srli	t4,a2,0x10
   1cd84:	02be0f33          	mul	t5,t3,a1
   1cd88:	03ce8e33          	mul	t3,t4,t3
   1cd8c:	03d30eb3          	mul	t4,t1,t4
   1cd90:	02b30333          	mul	t1,t1,a1
   1cd94:	010f5593          	srli	a1,t5,0x10
   1cd98:	01c30333          	add	t1,t1,t3
   1cd9c:	006585b3          	add	a1,a1,t1
   1cda0:	01c5f663          	bgeu	a1,t3,1cdac <__divdf3+0x434>
   1cda4:	000108b7          	lui	a7,0x10
   1cda8:	011e8eb3          	add	t4,t4,a7
   1cdac:	0105d893          	srli	a7,a1,0x10
   1cdb0:	010f1f13          	slli	t5,t5,0x10
   1cdb4:	01059593          	slli	a1,a1,0x10
   1cdb8:	010f5f13          	srli	t5,t5,0x10
   1cdbc:	01d888b3          	add	a7,a7,t4
   1cdc0:	01e585b3          	add	a1,a1,t5
   1cdc4:	0117e663          	bltu	a5,a7,1cdd0 <__divdf3+0x458>
   1cdc8:	05179463          	bne	a5,a7,1ce10 <__divdf3+0x498>
   1cdcc:	12058863          	beq	a1,zero,1cefc <__divdf3+0x584>
   1cdd0:	00f68333          	add	t1,a3,a5
   1cdd4:	fff60f13          	addi	t5,a2,-1
   1cdd8:	00030793          	addi	a5,t1,0
   1cddc:	02d36463          	bltu	t1,a3,1ce04 <__divdf3+0x48c>
   1cde0:	01136663          	bltu	t1,a7,1cdec <__divdf3+0x474>
   1cde4:	03131463          	bne	t1,a7,1ce0c <__divdf3+0x494>
   1cde8:	00b57e63          	bgeu	a0,a1,1ce04 <__divdf3+0x48c>
   1cdec:	ffe60f13          	addi	t5,a2,-2
   1cdf0:	00151613          	slli	a2,a0,0x1
   1cdf4:	00a637b3          	sltu	a5,a2,a0
   1cdf8:	00d787b3          	add	a5,a5,a3
   1cdfc:	00f307b3          	add	a5,t1,a5
   1ce00:	00060513          	addi	a0,a2,0
   1ce04:	00b51463          	bne	a0,a1,1ce0c <__divdf3+0x494>
   1ce08:	01178663          	beq	a5,a7,1ce14 <__divdf3+0x49c>
   1ce0c:	000f0613          	addi	a2,t5,0
   1ce10:	00166f13          	ori	t5,a2,1
   1ce14:	3ff70793          	addi	a5,a4,1023
   1ce18:	12f05663          	bge	zero,a5,1cf44 <__divdf3+0x5cc>
   1ce1c:	007f7693          	andi	a3,t5,7
   1ce20:	02068063          	beq	a3,zero,1ce40 <__divdf3+0x4c8>
   1ce24:	00ff7693          	andi	a3,t5,15
   1ce28:	00400613          	addi	a2,zero,4
   1ce2c:	00c68a63          	beq	a3,a2,1ce40 <__divdf3+0x4c8>
   1ce30:	00cf06b3          	add	a3,t5,a2
   1ce34:	01e6b633          	sltu	a2,a3,t5
   1ce38:	00c40433          	add	s0,s0,a2
   1ce3c:	00068f13          	addi	t5,a3,0
   1ce40:	00741693          	slli	a3,s0,0x7
   1ce44:	0006da63          	bge	a3,zero,1ce58 <__divdf3+0x4e0>
   1ce48:	ff0007b7          	lui	a5,0xff000
   1ce4c:	fff78793          	addi	a5,a5,-1 # feffffff <__BSS_END__+0xfef4b5ab>
   1ce50:	00f47433          	and	s0,s0,a5
   1ce54:	40070793          	addi	a5,a4,1024
   1ce58:	7fe00713          	addi	a4,zero,2046
   1ce5c:	1af74a63          	blt	a4,a5,1d010 <__divdf3+0x698>
   1ce60:	01d41713          	slli	a4,s0,0x1d
   1ce64:	003f5f13          	srli	t5,t5,0x3
   1ce68:	01e76733          	or	a4,a4,t5
   1ce6c:	00345413          	srli	s0,s0,0x3
   1ce70:	00c41413          	slli	s0,s0,0xc
   1ce74:	00c45413          	srli	s0,s0,0xc
   1ce78:	01479793          	slli	a5,a5,0x14
   1ce7c:	02c12083          	lw	ra,44(sp)
   1ce80:	0087e7b3          	or	a5,a5,s0
   1ce84:	02812403          	lw	s0,40(sp)
   1ce88:	01f81813          	slli	a6,a6,0x1f
   1ce8c:	02412483          	lw	s1,36(sp)
   1ce90:	02012903          	lw	s2,32(sp)
   1ce94:	01c12983          	lw	s3,28(sp)
   1ce98:	01812a03          	lw	s4,24(sp)
   1ce9c:	01412a83          	lw	s5,20(sp)
   1cea0:	01012b03          	lw	s6,16(sp)
   1cea4:	00c12b83          	lw	s7,12(sp)
   1cea8:	00070513          	addi	a0,a4,0
   1ceac:	0107e5b3          	or	a1,a5,a6
   1ceb0:	03010113          	addi	sp,sp,48
   1ceb4:	00008067          	jalr	zero,0(ra)
   1ceb8:	fff70713          	addi	a4,a4,-1
   1cebc:	00000613          	addi	a2,zero,0
   1cec0:	d05ff06f          	jal	zero,1cbc4 <__divdf3+0x24c>
   1cec4:	ffe58593          	addi	a1,a1,-2
   1cec8:	00d787b3          	add	a5,a5,a3
   1cecc:	d41ff06f          	jal	zero,1cc0c <__divdf3+0x294>
   1ced0:	ffe30313          	addi	t1,t1,-2
   1ced4:	00d484b3          	add	s1,s1,a3
   1ced8:	d69ff06f          	jal	zero,1cc40 <__divdf3+0x2c8>
   1cedc:	00058413          	addi	s0,a1,0
   1cee0:	e15ff06f          	jal	zero,1ccf4 <__divdf3+0x37c>
   1cee4:	ffe58593          	addi	a1,a1,-2
   1cee8:	00d60633          	add	a2,a2,a3
   1ceec:	e4dff06f          	jal	zero,1cd38 <__divdf3+0x3c0>
   1cef0:	ffef0f13          	addi	t5,t5,-2
   1cef4:	00d787b3          	add	a5,a5,a3
   1cef8:	e75ff06f          	jal	zero,1cd6c <__divdf3+0x3f4>
   1cefc:	00000513          	addi	a0,zero,0
   1cf00:	00060f13          	addi	t5,a2,0
   1cf04:	f01ff06f          	jal	zero,1ce04 <__divdf3+0x48c>
   1cf08:	000a8813          	addi	a6,s5,0
   1cf0c:	00068b13          	addi	s6,a3,0
   1cf10:	00200793          	addi	a5,zero,2
   1cf14:	0efb0e63          	beq	s6,a5,1d010 <__divdf3+0x698>
   1cf18:	00300793          	addi	a5,zero,3
   1cf1c:	0efb0063          	beq	s6,a5,1cffc <__divdf3+0x684>
   1cf20:	00100793          	addi	a5,zero,1
   1cf24:	eefb18e3          	bne	s6,a5,1ce14 <__divdf3+0x49c>
   1cf28:	00000413          	addi	s0,zero,0
   1cf2c:	00000713          	addi	a4,zero,0
   1cf30:	08c0006f          	jal	zero,1cfbc <__divdf3+0x644>
   1cf34:	00090813          	addi	a6,s2,0
   1cf38:	000a0413          	addi	s0,s4,0
   1cf3c:	00048f13          	addi	t5,s1,0
   1cf40:	fd1ff06f          	jal	zero,1cf10 <__divdf3+0x598>
   1cf44:	08078063          	beq	a5,zero,1cfc4 <__divdf3+0x64c>
   1cf48:	fc900693          	addi	a3,zero,-55
   1cf4c:	fcd7cee3          	blt	a5,a3,1cf28 <__divdf3+0x5b0>
   1cf50:	fe200693          	addi	a3,zero,-30
   1cf54:	06d7cc63          	blt	a5,a3,1cfcc <__divdf3+0x654>
   1cf58:	00100693          	addi	a3,zero,1
   1cf5c:	40f686b3          	sub	a3,a3,a5
   1cf60:	41e70713          	addi	a4,a4,1054
   1cf64:	00df57b3          	srl	a5,t5,a3
   1cf68:	00ef1f33          	sll	t5,t5,a4
   1cf6c:	01e03f33          	sltu	t5,zero,t5
   1cf70:	00e41733          	sll	a4,s0,a4
   1cf74:	00ef6f33          	or	t5,t5,a4
   1cf78:	01e7e7b3          	or	a5,a5,t5
   1cf7c:	00d45433          	srl	s0,s0,a3
   1cf80:	0077f713          	andi	a4,a5,7
   1cf84:	02070063          	beq	a4,zero,1cfa4 <__divdf3+0x62c>
   1cf88:	00f7f713          	andi	a4,a5,15
   1cf8c:	00400693          	addi	a3,zero,4
   1cf90:	00d70a63          	beq	a4,a3,1cfa4 <__divdf3+0x62c>
   1cf94:	00d78733          	add	a4,a5,a3
   1cf98:	00f736b3          	sltu	a3,a4,a5
   1cf9c:	00d40433          	add	s0,s0,a3
   1cfa0:	00070793          	addi	a5,a4,0
   1cfa4:	00841713          	slli	a4,s0,0x8
   1cfa8:	06074c63          	blt	a4,zero,1d020 <__divdf3+0x6a8>
   1cfac:	01d41713          	slli	a4,s0,0x1d
   1cfb0:	0037d793          	srli	a5,a5,0x3
   1cfb4:	00f76733          	or	a4,a4,a5
   1cfb8:	00345413          	srli	s0,s0,0x3
   1cfbc:	00000793          	addi	a5,zero,0
   1cfc0:	eb1ff06f          	jal	zero,1ce70 <__divdf3+0x4f8>
   1cfc4:	00100693          	addi	a3,zero,1
   1cfc8:	f99ff06f          	jal	zero,1cf60 <__divdf3+0x5e8>
   1cfcc:	fe100593          	addi	a1,zero,-31
   1cfd0:	40f586b3          	sub	a3,a1,a5
   1cfd4:	00d456b3          	srl	a3,s0,a3
   1cfd8:	00000613          	addi	a2,zero,0
   1cfdc:	00b78663          	beq	a5,a1,1cfe8 <__divdf3+0x670>
   1cfe0:	43e70713          	addi	a4,a4,1086
   1cfe4:	00e41633          	sll	a2,s0,a4
   1cfe8:	01e66633          	or	a2,a2,t5
   1cfec:	00c03633          	sltu	a2,zero,a2
   1cff0:	00c6e7b3          	or	a5,a3,a2
   1cff4:	00000413          	addi	s0,zero,0
   1cff8:	f89ff06f          	jal	zero,1cf80 <__divdf3+0x608>
   1cffc:	00080437          	lui	s0,0x80
   1d000:	00000713          	addi	a4,zero,0
   1d004:	7ff00793          	addi	a5,zero,2047
   1d008:	00000813          	addi	a6,zero,0
   1d00c:	e65ff06f          	jal	zero,1ce70 <__divdf3+0x4f8>
   1d010:	00000413          	addi	s0,zero,0
   1d014:	00000713          	addi	a4,zero,0
   1d018:	7ff00793          	addi	a5,zero,2047
   1d01c:	e55ff06f          	jal	zero,1ce70 <__divdf3+0x4f8>
   1d020:	00000413          	addi	s0,zero,0
   1d024:	00000713          	addi	a4,zero,0
   1d028:	00100793          	addi	a5,zero,1
   1d02c:	e45ff06f          	jal	zero,1ce70 <__divdf3+0x4f8>

0001d030 <__eqdf2>:
   1d030:	001007b7          	lui	a5,0x100
   1d034:	0145d813          	srli	a6,a1,0x14
   1d038:	fff78793          	addi	a5,a5,-1 # fffff <__BSS_END__+0x4b5ab>
   1d03c:	0146d313          	srli	t1,a3,0x14
   1d040:	7ff87813          	andi	a6,a6,2047
   1d044:	7ff00e93          	addi	t4,zero,2047
   1d048:	00b7f733          	and	a4,a5,a1
   1d04c:	00050893          	addi	a7,a0,0
   1d050:	01f5df93          	srli	t6,a1,0x1f
   1d054:	00d7f7b3          	and	a5,a5,a3
   1d058:	7ff37313          	andi	t1,t1,2047
   1d05c:	01f6df13          	srli	t5,a3,0x1f
   1d060:	01d81863          	bne	a6,t4,1d070 <__eqdf2+0x40>
   1d064:	00a76e33          	or	t3,a4,a0
   1d068:	00100513          	addi	a0,zero,1
   1d06c:	040e1263          	bne	t3,zero,1d0b0 <__eqdf2+0x80>
   1d070:	01d31863          	bne	t1,t4,1d080 <__eqdf2+0x50>
   1d074:	00c7e7b3          	or	a5,a5,a2
   1d078:	00100513          	addi	a0,zero,1
   1d07c:	02079a63          	bne	a5,zero,1d0b0 <__eqdf2+0x80>
   1d080:	00b6c6b3          	xor	a3,a3,a1
   1d084:	00169693          	slli	a3,a3,0x1
   1d088:	02069263          	bne	a3,zero,1d0ac <__eqdf2+0x7c>
   1d08c:	03161063          	bne	a2,a7,1d0ac <__eqdf2+0x7c>
   1d090:	00000513          	addi	a0,zero,0
   1d094:	01ef8e63          	beq	t6,t5,1d0b0 <__eqdf2+0x80>
   1d098:	00100513          	addi	a0,zero,1
   1d09c:	00081a63          	bne	a6,zero,1d0b0 <__eqdf2+0x80>
   1d0a0:	01176733          	or	a4,a4,a7
   1d0a4:	00e03533          	sltu	a0,zero,a4
   1d0a8:	00008067          	jalr	zero,0(ra)
   1d0ac:	00100513          	addi	a0,zero,1
   1d0b0:	00008067          	jalr	zero,0(ra)

0001d0b4 <__gedf2>:
   1d0b4:	0145d893          	srli	a7,a1,0x14
   1d0b8:	00100737          	lui	a4,0x100
   1d0bc:	fff70713          	addi	a4,a4,-1 # fffff <__BSS_END__+0x4b5ab>
   1d0c0:	0146d813          	srli	a6,a3,0x14
   1d0c4:	7ff8f893          	andi	a7,a7,2047
   1d0c8:	7ff00793          	addi	a5,zero,2047
   1d0cc:	00b77333          	and	t1,a4,a1
   1d0d0:	7ff87813          	andi	a6,a6,2047
   1d0d4:	00d77733          	and	a4,a4,a3
   1d0d8:	01f5d593          	srli	a1,a1,0x1f
   1d0dc:	01f6d693          	srli	a3,a3,0x1f
   1d0e0:	02f88063          	beq	a7,a5,1d100 <__gedf2+0x4c>
   1d0e4:	7ff00e13          	addi	t3,zero,2047
   1d0e8:	00080793          	addi	a5,a6,0
   1d0ec:	03c81463          	bne	a6,t3,1d114 <__gedf2+0x60>
   1d0f0:	00c76e33          	or	t3,a4,a2
   1d0f4:	020e0063          	beq	t3,zero,1d114 <__gedf2+0x60>
   1d0f8:	ffe00793          	addi	a5,zero,-2
   1d0fc:	0100006f          	jal	zero,1d10c <__gedf2+0x58>
   1d100:	00a36e33          	or	t3,t1,a0
   1d104:	ffe00793          	addi	a5,zero,-2
   1d108:	fc0e0ee3          	beq	t3,zero,1d0e4 <__gedf2+0x30>
   1d10c:	00078513          	addi	a0,a5,0
   1d110:	00008067          	jalr	zero,0(ra)
   1d114:	00000e13          	addi	t3,zero,0
   1d118:	00089663          	bne	a7,zero,1d124 <__gedf2+0x70>
   1d11c:	00a36e33          	or	t3,t1,a0
   1d120:	001e3e13          	sltiu	t3,t3,1
   1d124:	04081863          	bne	a6,zero,1d174 <__gedf2+0xc0>
   1d128:	00c76eb3          	or	t4,a4,a2
   1d12c:	000e0a63          	beq	t3,zero,1d140 <__gedf2+0x8c>
   1d130:	fc0e8ee3          	beq	t4,zero,1d10c <__gedf2+0x58>
   1d134:	00169793          	slli	a5,a3,0x1
   1d138:	fff78793          	addi	a5,a5,-1
   1d13c:	fd1ff06f          	jal	zero,1d10c <__gedf2+0x58>
   1d140:	020e9c63          	bne	t4,zero,1d178 <__gedf2+0xc4>
   1d144:	40b005b3          	sub	a1,zero,a1
   1d148:	0015e793          	ori	a5,a1,1
   1d14c:	fc1ff06f          	jal	zero,1d10c <__gedf2+0x58>
   1d150:	ff08c2e3          	blt	a7,a6,1d134 <__gedf2+0x80>
   1d154:	fe6768e3          	bltu	a4,t1,1d144 <__gedf2+0x90>
   1d158:	00a67463          	bgeu	a2,a0,1d160 <__gedf2+0xac>
   1d15c:	fee304e3          	beq	t1,a4,1d144 <__gedf2+0x90>
   1d160:	00c56663          	bltu	a0,a2,1d16c <__gedf2+0xb8>
   1d164:	00000793          	addi	a5,zero,0
   1d168:	fae372e3          	bgeu	t1,a4,1d10c <__gedf2+0x58>
   1d16c:	00159793          	slli	a5,a1,0x1
   1d170:	fc9ff06f          	jal	zero,1d138 <__gedf2+0x84>
   1d174:	fc0e10e3          	bne	t3,zero,1d134 <__gedf2+0x80>
   1d178:	fcb696e3          	bne	a3,a1,1d144 <__gedf2+0x90>
   1d17c:	fd185ae3          	bge	a6,a7,1d150 <__gedf2+0x9c>
   1d180:	40d006b3          	sub	a3,zero,a3
   1d184:	0016e793          	ori	a5,a3,1
   1d188:	f85ff06f          	jal	zero,1d10c <__gedf2+0x58>

0001d18c <__ledf2>:
   1d18c:	0145d893          	srli	a7,a1,0x14
   1d190:	00100737          	lui	a4,0x100
   1d194:	fff70713          	addi	a4,a4,-1 # fffff <__BSS_END__+0x4b5ab>
   1d198:	0146d813          	srli	a6,a3,0x14
   1d19c:	7ff8f893          	andi	a7,a7,2047
   1d1a0:	7ff00793          	addi	a5,zero,2047
   1d1a4:	00b77333          	and	t1,a4,a1
   1d1a8:	7ff87813          	andi	a6,a6,2047
   1d1ac:	00d77733          	and	a4,a4,a3
   1d1b0:	01f5d593          	srli	a1,a1,0x1f
   1d1b4:	01f6d693          	srli	a3,a3,0x1f
   1d1b8:	02f88063          	beq	a7,a5,1d1d8 <__ledf2+0x4c>
   1d1bc:	7ff00e13          	addi	t3,zero,2047
   1d1c0:	00080793          	addi	a5,a6,0
   1d1c4:	03c81463          	bne	a6,t3,1d1ec <__ledf2+0x60>
   1d1c8:	00c76e33          	or	t3,a4,a2
   1d1cc:	020e0063          	beq	t3,zero,1d1ec <__ledf2+0x60>
   1d1d0:	00200793          	addi	a5,zero,2
   1d1d4:	0100006f          	jal	zero,1d1e4 <__ledf2+0x58>
   1d1d8:	00a36e33          	or	t3,t1,a0
   1d1dc:	00200793          	addi	a5,zero,2
   1d1e0:	fc0e0ee3          	beq	t3,zero,1d1bc <__ledf2+0x30>
   1d1e4:	00078513          	addi	a0,a5,0
   1d1e8:	00008067          	jalr	zero,0(ra)
   1d1ec:	00000e13          	addi	t3,zero,0
   1d1f0:	00089663          	bne	a7,zero,1d1fc <__ledf2+0x70>
   1d1f4:	00a36e33          	or	t3,t1,a0
   1d1f8:	001e3e13          	sltiu	t3,t3,1
   1d1fc:	04081863          	bne	a6,zero,1d24c <__ledf2+0xc0>
   1d200:	00c76eb3          	or	t4,a4,a2
   1d204:	000e0a63          	beq	t3,zero,1d218 <__ledf2+0x8c>
   1d208:	fc0e8ee3          	beq	t4,zero,1d1e4 <__ledf2+0x58>
   1d20c:	00169793          	slli	a5,a3,0x1
   1d210:	fff78793          	addi	a5,a5,-1
   1d214:	fd1ff06f          	jal	zero,1d1e4 <__ledf2+0x58>
   1d218:	020e9c63          	bne	t4,zero,1d250 <__ledf2+0xc4>
   1d21c:	40b005b3          	sub	a1,zero,a1
   1d220:	0015e793          	ori	a5,a1,1
   1d224:	fc1ff06f          	jal	zero,1d1e4 <__ledf2+0x58>
   1d228:	ff08c2e3          	blt	a7,a6,1d20c <__ledf2+0x80>
   1d22c:	fe6768e3          	bltu	a4,t1,1d21c <__ledf2+0x90>
   1d230:	00a67463          	bgeu	a2,a0,1d238 <__ledf2+0xac>
   1d234:	fee304e3          	beq	t1,a4,1d21c <__ledf2+0x90>
   1d238:	00c56663          	bltu	a0,a2,1d244 <__ledf2+0xb8>
   1d23c:	00000793          	addi	a5,zero,0
   1d240:	fae372e3          	bgeu	t1,a4,1d1e4 <__ledf2+0x58>
   1d244:	00159793          	slli	a5,a1,0x1
   1d248:	fc9ff06f          	jal	zero,1d210 <__ledf2+0x84>
   1d24c:	fc0e10e3          	bne	t3,zero,1d20c <__ledf2+0x80>
   1d250:	fcb696e3          	bne	a3,a1,1d21c <__ledf2+0x90>
   1d254:	fd185ae3          	bge	a6,a7,1d228 <__ledf2+0x9c>
   1d258:	40d006b3          	sub	a3,zero,a3
   1d25c:	0016e793          	ori	a5,a3,1
   1d260:	f85ff06f          	jal	zero,1d1e4 <__ledf2+0x58>

0001d264 <__muldf3>:
   1d264:	fd010113          	addi	sp,sp,-48
   1d268:	01312e23          	sw	s3,28(sp)
   1d26c:	0145d993          	srli	s3,a1,0x14
   1d270:	02812423          	sw	s0,40(sp)
   1d274:	02912223          	sw	s1,36(sp)
   1d278:	01412c23          	sw	s4,24(sp)
   1d27c:	01512a23          	sw	s5,20(sp)
   1d280:	01712623          	sw	s7,12(sp)
   1d284:	00c59493          	slli	s1,a1,0xc
   1d288:	02112623          	sw	ra,44(sp)
   1d28c:	03212023          	sw	s2,32(sp)
   1d290:	01612823          	sw	s6,16(sp)
   1d294:	7ff9f993          	andi	s3,s3,2047
   1d298:	00050413          	addi	s0,a0,0
   1d29c:	00060b93          	addi	s7,a2,0
   1d2a0:	00068a13          	addi	s4,a3,0
   1d2a4:	00c4d493          	srli	s1,s1,0xc
   1d2a8:	01f5da93          	srli	s5,a1,0x1f
   1d2ac:	0c098263          	beq	s3,zero,1d370 <__muldf3+0x10c>
   1d2b0:	7ff00793          	addi	a5,zero,2047
   1d2b4:	12f98463          	beq	s3,a5,1d3dc <__muldf3+0x178>
   1d2b8:	00349493          	slli	s1,s1,0x3
   1d2bc:	01d55793          	srli	a5,a0,0x1d
   1d2c0:	0097e7b3          	or	a5,a5,s1
   1d2c4:	008004b7          	lui	s1,0x800
   1d2c8:	0097e4b3          	or	s1,a5,s1
   1d2cc:	00351913          	slli	s2,a0,0x3
   1d2d0:	c0198993          	addi	s3,s3,-1023
   1d2d4:	00000b13          	addi	s6,zero,0
   1d2d8:	014a5713          	srli	a4,s4,0x14
   1d2dc:	00ca1413          	slli	s0,s4,0xc
   1d2e0:	7ff77713          	andi	a4,a4,2047
   1d2e4:	00c45413          	srli	s0,s0,0xc
   1d2e8:	01fa5a13          	srli	s4,s4,0x1f
   1d2ec:	12070063          	beq	a4,zero,1d40c <__muldf3+0x1a8>
   1d2f0:	7ff00793          	addi	a5,zero,2047
   1d2f4:	18f70463          	beq	a4,a5,1d47c <__muldf3+0x218>
   1d2f8:	00341413          	slli	s0,s0,0x3
   1d2fc:	01dbd793          	srli	a5,s7,0x1d
   1d300:	0087e7b3          	or	a5,a5,s0
   1d304:	00800437          	lui	s0,0x800
   1d308:	0087e433          	or	s0,a5,s0
   1d30c:	c0170713          	addi	a4,a4,-1023
   1d310:	003b9793          	slli	a5,s7,0x3
   1d314:	00000813          	addi	a6,zero,0
   1d318:	00e989b3          	add	s3,s3,a4
   1d31c:	002b1713          	slli	a4,s6,0x2
   1d320:	01076733          	or	a4,a4,a6
   1d324:	00a00693          	addi	a3,zero,10
   1d328:	00198513          	addi	a0,s3,1
   1d32c:	1ae6c263          	blt	a3,a4,1d4d0 <__muldf3+0x26c>
   1d330:	00200613          	addi	a2,zero,2
   1d334:	014ac5b3          	xor	a1,s5,s4
   1d338:	00100693          	addi	a3,zero,1
   1d33c:	16e64863          	blt	a2,a4,1d4ac <__muldf3+0x248>
   1d340:	fff70713          	addi	a4,a4,-1
   1d344:	1ae6e663          	bltu	a3,a4,1d4f0 <__muldf3+0x28c>
   1d348:	00080b13          	addi	s6,a6,0
   1d34c:	00200713          	addi	a4,zero,2
   1d350:	4ceb0e63          	beq	s6,a4,1d82c <__muldf3+0x5c8>
   1d354:	00300713          	addi	a4,zero,3
   1d358:	4ceb0463          	beq	s6,a4,1d820 <__muldf3+0x5bc>
   1d35c:	00100713          	addi	a4,zero,1
   1d360:	34eb1463          	bne	s6,a4,1d6a8 <__muldf3+0x444>
   1d364:	00000413          	addi	s0,zero,0
   1d368:	00000613          	addi	a2,zero,0
   1d36c:	4640006f          	jal	zero,1d7d0 <__muldf3+0x56c>
   1d370:	00a4e933          	or	s2,s1,a0
   1d374:	06090e63          	beq	s2,zero,1d3f0 <__muldf3+0x18c>
   1d378:	04048263          	beq	s1,zero,1d3bc <__muldf3+0x158>
   1d37c:	00048513          	addi	a0,s1,0 # 800000 <__BSS_END__+0x74b5ac>
   1d380:	7bc030ef          	jal	ra,20b3c <__clzsi2>
   1d384:	00050713          	addi	a4,a0,0
   1d388:	ff550693          	addi	a3,a0,-11
   1d38c:	01d00793          	addi	a5,zero,29
   1d390:	ff870613          	addi	a2,a4,-8
   1d394:	40d787b3          	sub	a5,a5,a3
   1d398:	00c494b3          	sll	s1,s1,a2
   1d39c:	00f457b3          	srl	a5,s0,a5
   1d3a0:	0097e7b3          	or	a5,a5,s1
   1d3a4:	00c414b3          	sll	s1,s0,a2
   1d3a8:	c0d00993          	addi	s3,zero,-1011
   1d3ac:	00048913          	addi	s2,s1,0
   1d3b0:	40e989b3          	sub	s3,s3,a4
   1d3b4:	00078493          	addi	s1,a5,0
   1d3b8:	f1dff06f          	jal	zero,1d2d4 <__muldf3+0x70>
   1d3bc:	780030ef          	jal	ra,20b3c <__clzsi2>
   1d3c0:	01550693          	addi	a3,a0,21
   1d3c4:	01c00793          	addi	a5,zero,28
   1d3c8:	02050713          	addi	a4,a0,32
   1d3cc:	fcd7d0e3          	bge	a5,a3,1d38c <__muldf3+0x128>
   1d3d0:	ff850793          	addi	a5,a0,-8
   1d3d4:	00f417b3          	sll	a5,s0,a5
   1d3d8:	fd1ff06f          	jal	zero,1d3a8 <__muldf3+0x144>
   1d3dc:	00a4e933          	or	s2,s1,a0
   1d3e0:	02091063          	bne	s2,zero,1d400 <__muldf3+0x19c>
   1d3e4:	00000493          	addi	s1,zero,0
   1d3e8:	00200b13          	addi	s6,zero,2
   1d3ec:	eedff06f          	jal	zero,1d2d8 <__muldf3+0x74>
   1d3f0:	00000493          	addi	s1,zero,0
   1d3f4:	00000993          	addi	s3,zero,0
   1d3f8:	00100b13          	addi	s6,zero,1
   1d3fc:	eddff06f          	jal	zero,1d2d8 <__muldf3+0x74>
   1d400:	00050913          	addi	s2,a0,0
   1d404:	00300b13          	addi	s6,zero,3
   1d408:	ed1ff06f          	jal	zero,1d2d8 <__muldf3+0x74>
   1d40c:	017467b3          	or	a5,s0,s7
   1d410:	08078063          	beq	a5,zero,1d490 <__muldf3+0x22c>
   1d414:	04040263          	beq	s0,zero,1d458 <__muldf3+0x1f4>
   1d418:	00040513          	addi	a0,s0,0 # 800000 <__BSS_END__+0x74b5ac>
   1d41c:	720030ef          	jal	ra,20b3c <__clzsi2>
   1d420:	00050793          	addi	a5,a0,0
   1d424:	ff550713          	addi	a4,a0,-11
   1d428:	01d00693          	addi	a3,zero,29
   1d42c:	ff878613          	addi	a2,a5,-8
   1d430:	40e686b3          	sub	a3,a3,a4
   1d434:	00c41433          	sll	s0,s0,a2
   1d438:	00dbd6b3          	srl	a3,s7,a3
   1d43c:	0086e6b3          	or	a3,a3,s0
   1d440:	00cb9433          	sll	s0,s7,a2
   1d444:	c0d00713          	addi	a4,zero,-1011
   1d448:	40f70733          	sub	a4,a4,a5
   1d44c:	00040793          	addi	a5,s0,0
   1d450:	00068413          	addi	s0,a3,0
   1d454:	ec1ff06f          	jal	zero,1d314 <__muldf3+0xb0>
   1d458:	000b8513          	addi	a0,s7,0
   1d45c:	6e0030ef          	jal	ra,20b3c <__clzsi2>
   1d460:	01550713          	addi	a4,a0,21
   1d464:	01c00693          	addi	a3,zero,28
   1d468:	02050793          	addi	a5,a0,32
   1d46c:	fae6dee3          	bge	a3,a4,1d428 <__muldf3+0x1c4>
   1d470:	ff850693          	addi	a3,a0,-8
   1d474:	00db96b3          	sll	a3,s7,a3
   1d478:	fcdff06f          	jal	zero,1d444 <__muldf3+0x1e0>
   1d47c:	017467b3          	or	a5,s0,s7
   1d480:	02079063          	bne	a5,zero,1d4a0 <__muldf3+0x23c>
   1d484:	00000413          	addi	s0,zero,0
   1d488:	00200813          	addi	a6,zero,2
   1d48c:	e8dff06f          	jal	zero,1d318 <__muldf3+0xb4>
   1d490:	00000413          	addi	s0,zero,0
   1d494:	00000713          	addi	a4,zero,0
   1d498:	00100813          	addi	a6,zero,1
   1d49c:	e7dff06f          	jal	zero,1d318 <__muldf3+0xb4>
   1d4a0:	000b8793          	addi	a5,s7,0
   1d4a4:	00300813          	addi	a6,zero,3
   1d4a8:	e71ff06f          	jal	zero,1d318 <__muldf3+0xb4>
   1d4ac:	00e69733          	sll	a4,a3,a4
   1d4b0:	53077613          	andi	a2,a4,1328
   1d4b4:	02061863          	bne	a2,zero,1d4e4 <__muldf3+0x280>
   1d4b8:	24077693          	andi	a3,a4,576
   1d4bc:	34069a63          	bne	a3,zero,1d810 <__muldf3+0x5ac>
   1d4c0:	08877713          	andi	a4,a4,136
   1d4c4:	02070663          	beq	a4,zero,1d4f0 <__muldf3+0x28c>
   1d4c8:	000a0593          	addi	a1,s4,0
   1d4cc:	e7dff06f          	jal	zero,1d348 <__muldf3+0xe4>
   1d4d0:	00f00693          	addi	a3,zero,15
   1d4d4:	34d70663          	beq	a4,a3,1d820 <__muldf3+0x5bc>
   1d4d8:	00b00693          	addi	a3,zero,11
   1d4dc:	000a8593          	addi	a1,s5,0
   1d4e0:	fed704e3          	beq	a4,a3,1d4c8 <__muldf3+0x264>
   1d4e4:	00048413          	addi	s0,s1,0
   1d4e8:	00090793          	addi	a5,s2,0
   1d4ec:	e61ff06f          	jal	zero,1d34c <__muldf3+0xe8>
   1d4f0:	01095893          	srli	a7,s2,0x10
   1d4f4:	01079e13          	slli	t3,a5,0x10
   1d4f8:	01091913          	slli	s2,s2,0x10
   1d4fc:	0107d613          	srli	a2,a5,0x10
   1d500:	01095913          	srli	s2,s2,0x10
   1d504:	010e5e13          	srli	t3,t3,0x10
   1d508:	03c907b3          	mul	a5,s2,t3
   1d50c:	03c88333          	mul	t1,a7,t3
   1d510:	0107d813          	srli	a6,a5,0x10
   1d514:	03260733          	mul	a4,a2,s2
   1d518:	00670733          	add	a4,a4,t1
   1d51c:	00e80833          	add	a6,a6,a4
   1d520:	02c886b3          	mul	a3,a7,a2
   1d524:	00687663          	bgeu	a6,t1,1d530 <__muldf3+0x2cc>
   1d528:	00010737          	lui	a4,0x10
   1d52c:	00e686b3          	add	a3,a3,a4
   1d530:	01045713          	srli	a4,s0,0x10
   1d534:	01079793          	slli	a5,a5,0x10
   1d538:	01041413          	slli	s0,s0,0x10
   1d53c:	0107d793          	srli	a5,a5,0x10
   1d540:	01045413          	srli	s0,s0,0x10
   1d544:	01085f93          	srli	t6,a6,0x10
   1d548:	01081813          	slli	a6,a6,0x10
   1d54c:	02890f33          	mul	t5,s2,s0
   1d550:	00f80833          	add	a6,a6,a5
   1d554:	03270933          	mul	s2,a4,s2
   1d558:	010f5313          	srli	t1,t5,0x10
   1d55c:	028887b3          	mul	a5,a7,s0
   1d560:	00f90933          	add	s2,s2,a5
   1d564:	01230333          	add	t1,t1,s2
   1d568:	02e888b3          	mul	a7,a7,a4
   1d56c:	00f37663          	bgeu	t1,a5,1d578 <__muldf3+0x314>
   1d570:	000107b7          	lui	a5,0x10
   1d574:	00f888b3          	add	a7,a7,a5
   1d578:	010f1f13          	slli	t5,t5,0x10
   1d57c:	010f5f13          	srli	t5,t5,0x10
   1d580:	01031793          	slli	a5,t1,0x10
   1d584:	01e787b3          	add	a5,a5,t5
   1d588:	0104df13          	srli	t5,s1,0x10
   1d58c:	01049493          	slli	s1,s1,0x10
   1d590:	0104d493          	srli	s1,s1,0x10
   1d594:	03c482b3          	mul	t0,s1,t3
   1d598:	01035e93          	srli	t4,t1,0x10
   1d59c:	011e8eb3          	add	t4,t4,a7
   1d5a0:	00ff8fb3          	add	t6,t6,a5
   1d5a4:	03cf0e33          	mul	t3,t5,t3
   1d5a8:	0102d893          	srli	a7,t0,0x10
   1d5ac:	03e603b3          	mul	t2,a2,t5
   1d5b0:	02960633          	mul	a2,a2,s1
   1d5b4:	01c60633          	add	a2,a2,t3
   1d5b8:	00c888b3          	add	a7,a7,a2
   1d5bc:	01c8f663          	bgeu	a7,t3,1d5c8 <__muldf3+0x364>
   1d5c0:	00010637          	lui	a2,0x10
   1d5c4:	00c383b3          	add	t2,t2,a2
   1d5c8:	02848633          	mul	a2,s1,s0
   1d5cc:	01029293          	slli	t0,t0,0x10
   1d5d0:	0108d313          	srli	t1,a7,0x10
   1d5d4:	0102d293          	srli	t0,t0,0x10
   1d5d8:	01089893          	slli	a7,a7,0x10
   1d5dc:	00730333          	add	t1,t1,t2
   1d5e0:	005888b3          	add	a7,a7,t0
   1d5e4:	028f0433          	mul	s0,t5,s0
   1d5e8:	01065e13          	srli	t3,a2,0x10
   1d5ec:	03e70f33          	mul	t5,a4,t5
   1d5f0:	02970733          	mul	a4,a4,s1
   1d5f4:	00870733          	add	a4,a4,s0
   1d5f8:	00ee0e33          	add	t3,t3,a4
   1d5fc:	008e7663          	bgeu	t3,s0,1d608 <__muldf3+0x3a4>
   1d600:	00010737          	lui	a4,0x10
   1d604:	00ef0f33          	add	t5,t5,a4
   1d608:	01061613          	slli	a2,a2,0x10
   1d60c:	010e1713          	slli	a4,t3,0x10
   1d610:	01065613          	srli	a2,a2,0x10
   1d614:	01f686b3          	add	a3,a3,t6
   1d618:	00c70733          	add	a4,a4,a2
   1d61c:	01d70eb3          	add	t4,a4,t4
   1d620:	00f6b7b3          	sltu	a5,a3,a5
   1d624:	00fe87b3          	add	a5,t4,a5
   1d628:	011688b3          	add	a7,a3,a7
   1d62c:	00678333          	add	t1,a5,t1
   1d630:	00d8b6b3          	sltu	a3,a7,a3
   1d634:	00eeb633          	sltu	a2,t4,a4
   1d638:	00d306b3          	add	a3,t1,a3
   1d63c:	01d7beb3          	sltu	t4,a5,t4
   1d640:	00f33733          	sltu	a4,t1,a5
   1d644:	01d66633          	or	a2,a2,t4
   1d648:	0066b333          	sltu	t1,a3,t1
   1d64c:	010e5e13          	srli	t3,t3,0x10
   1d650:	00989793          	slli	a5,a7,0x9
   1d654:	01c60633          	add	a2,a2,t3
   1d658:	00676733          	or	a4,a4,t1
   1d65c:	00c70733          	add	a4,a4,a2
   1d660:	0107e7b3          	or	a5,a5,a6
   1d664:	01e70733          	add	a4,a4,t5
   1d668:	00f037b3          	sltu	a5,zero,a5
   1d66c:	0178d893          	srli	a7,a7,0x17
   1d670:	00971713          	slli	a4,a4,0x9
   1d674:	0176d413          	srli	s0,a3,0x17
   1d678:	0117e7b3          	or	a5,a5,a7
   1d67c:	00969693          	slli	a3,a3,0x9
   1d680:	00d7e7b3          	or	a5,a5,a3
   1d684:	00771693          	slli	a3,a4,0x7
   1d688:	00876433          	or	s0,a4,s0
   1d68c:	0c06d263          	bge	a3,zero,1d750 <__muldf3+0x4ec>
   1d690:	0017d713          	srli	a4,a5,0x1
   1d694:	0017f793          	andi	a5,a5,1
   1d698:	00f76733          	or	a4,a4,a5
   1d69c:	01f41793          	slli	a5,s0,0x1f
   1d6a0:	00f767b3          	or	a5,a4,a5
   1d6a4:	00145413          	srli	s0,s0,0x1
   1d6a8:	3ff50713          	addi	a4,a0,1023
   1d6ac:	0ae05663          	bge	zero,a4,1d758 <__muldf3+0x4f4>
   1d6b0:	0077f693          	andi	a3,a5,7
   1d6b4:	02068063          	beq	a3,zero,1d6d4 <__muldf3+0x470>
   1d6b8:	00f7f693          	andi	a3,a5,15
   1d6bc:	00400613          	addi	a2,zero,4
   1d6c0:	00c68a63          	beq	a3,a2,1d6d4 <__muldf3+0x470>
   1d6c4:	00c786b3          	add	a3,a5,a2
   1d6c8:	00f6b633          	sltu	a2,a3,a5
   1d6cc:	00c40433          	add	s0,s0,a2
   1d6d0:	00068793          	addi	a5,a3,0
   1d6d4:	00741693          	slli	a3,s0,0x7
   1d6d8:	0006da63          	bge	a3,zero,1d6ec <__muldf3+0x488>
   1d6dc:	ff000737          	lui	a4,0xff000
   1d6e0:	fff70713          	addi	a4,a4,-1 # feffffff <__BSS_END__+0xfef4b5ab>
   1d6e4:	00e47433          	and	s0,s0,a4
   1d6e8:	40050713          	addi	a4,a0,1024
   1d6ec:	7fe00693          	addi	a3,zero,2046
   1d6f0:	12e6ce63          	blt	a3,a4,1d82c <__muldf3+0x5c8>
   1d6f4:	01d41613          	slli	a2,s0,0x1d
   1d6f8:	0037d793          	srli	a5,a5,0x3
   1d6fc:	00f66633          	or	a2,a2,a5
   1d700:	00345413          	srli	s0,s0,0x3
   1d704:	00c41413          	slli	s0,s0,0xc
   1d708:	00c45413          	srli	s0,s0,0xc
   1d70c:	01471713          	slli	a4,a4,0x14
   1d710:	02c12083          	lw	ra,44(sp)
   1d714:	00876733          	or	a4,a4,s0
   1d718:	02812403          	lw	s0,40(sp)
   1d71c:	01f59593          	slli	a1,a1,0x1f
   1d720:	00b767b3          	or	a5,a4,a1
   1d724:	02412483          	lw	s1,36(sp)
   1d728:	02012903          	lw	s2,32(sp)
   1d72c:	01c12983          	lw	s3,28(sp)
   1d730:	01812a03          	lw	s4,24(sp)
   1d734:	01412a83          	lw	s5,20(sp)
   1d738:	01012b03          	lw	s6,16(sp)
   1d73c:	00c12b83          	lw	s7,12(sp)
   1d740:	00060513          	addi	a0,a2,0 # 10000 <exit-0xb4>
   1d744:	00078593          	addi	a1,a5,0 # 10000 <exit-0xb4>
   1d748:	03010113          	addi	sp,sp,48
   1d74c:	00008067          	jalr	zero,0(ra)
   1d750:	00098513          	addi	a0,s3,0
   1d754:	f55ff06f          	jal	zero,1d6a8 <__muldf3+0x444>
   1d758:	08070063          	beq	a4,zero,1d7d8 <__muldf3+0x574>
   1d75c:	fc900693          	addi	a3,zero,-55
   1d760:	c0d742e3          	blt	a4,a3,1d364 <__muldf3+0x100>
   1d764:	fe200693          	addi	a3,zero,-30
   1d768:	06d74c63          	blt	a4,a3,1d7e0 <__muldf3+0x57c>
   1d76c:	00100693          	addi	a3,zero,1
   1d770:	40e68733          	sub	a4,a3,a4
   1d774:	41e50513          	addi	a0,a0,1054
   1d778:	00e7d6b3          	srl	a3,a5,a4
   1d77c:	00a797b3          	sll	a5,a5,a0
   1d780:	00f037b3          	sltu	a5,zero,a5
   1d784:	00a41533          	sll	a0,s0,a0
   1d788:	00a7e7b3          	or	a5,a5,a0
   1d78c:	00d7e7b3          	or	a5,a5,a3
   1d790:	00e45433          	srl	s0,s0,a4
   1d794:	0077f713          	andi	a4,a5,7
   1d798:	02070063          	beq	a4,zero,1d7b8 <__muldf3+0x554>
   1d79c:	00f7f713          	andi	a4,a5,15
   1d7a0:	00400693          	addi	a3,zero,4
   1d7a4:	00d70a63          	beq	a4,a3,1d7b8 <__muldf3+0x554>
   1d7a8:	00d78733          	add	a4,a5,a3
   1d7ac:	00f736b3          	sltu	a3,a4,a5
   1d7b0:	00d40433          	add	s0,s0,a3
   1d7b4:	00070793          	addi	a5,a4,0
   1d7b8:	00841713          	slli	a4,s0,0x8
   1d7bc:	08074063          	blt	a4,zero,1d83c <__muldf3+0x5d8>
   1d7c0:	01d41613          	slli	a2,s0,0x1d
   1d7c4:	0037d793          	srli	a5,a5,0x3
   1d7c8:	00f66633          	or	a2,a2,a5
   1d7cc:	00345413          	srli	s0,s0,0x3
   1d7d0:	00000713          	addi	a4,zero,0
   1d7d4:	f31ff06f          	jal	zero,1d704 <__muldf3+0x4a0>
   1d7d8:	00100713          	addi	a4,zero,1
   1d7dc:	f99ff06f          	jal	zero,1d774 <__muldf3+0x510>
   1d7e0:	fe100813          	addi	a6,zero,-31
   1d7e4:	40e806b3          	sub	a3,a6,a4
   1d7e8:	00d456b3          	srl	a3,s0,a3
   1d7ec:	00000613          	addi	a2,zero,0
   1d7f0:	01070663          	beq	a4,a6,1d7fc <__muldf3+0x598>
   1d7f4:	43e50513          	addi	a0,a0,1086
   1d7f8:	00a41633          	sll	a2,s0,a0
   1d7fc:	00c7e7b3          	or	a5,a5,a2
   1d800:	00f037b3          	sltu	a5,zero,a5
   1d804:	00f6e7b3          	or	a5,a3,a5
   1d808:	00000413          	addi	s0,zero,0
   1d80c:	f89ff06f          	jal	zero,1d794 <__muldf3+0x530>
   1d810:	00080437          	lui	s0,0x80
   1d814:	7ff00713          	addi	a4,zero,2047
   1d818:	00000593          	addi	a1,zero,0
   1d81c:	ee9ff06f          	jal	zero,1d704 <__muldf3+0x4a0>
   1d820:	00080437          	lui	s0,0x80
   1d824:	00000613          	addi	a2,zero,0
   1d828:	fedff06f          	jal	zero,1d814 <__muldf3+0x5b0>
   1d82c:	00000413          	addi	s0,zero,0
   1d830:	00000613          	addi	a2,zero,0
   1d834:	7ff00713          	addi	a4,zero,2047
   1d838:	ecdff06f          	jal	zero,1d704 <__muldf3+0x4a0>
   1d83c:	00000413          	addi	s0,zero,0
   1d840:	00000613          	addi	a2,zero,0
   1d844:	00100713          	addi	a4,zero,1
   1d848:	ebdff06f          	jal	zero,1d704 <__muldf3+0x4a0>

0001d84c <__subdf3>:
   1d84c:	00100837          	lui	a6,0x100
   1d850:	fff80813          	addi	a6,a6,-1 # fffff <__BSS_END__+0x4b5ab>
   1d854:	fe010113          	addi	sp,sp,-32
   1d858:	00b877b3          	and	a5,a6,a1
   1d85c:	0145d713          	srli	a4,a1,0x14
   1d860:	00d87833          	and	a6,a6,a3
   1d864:	0146d893          	srli	a7,a3,0x14
   1d868:	00912a23          	sw	s1,20(sp)
   1d86c:	00379793          	slli	a5,a5,0x3
   1d870:	7ff77493          	andi	s1,a4,2047
   1d874:	01d55713          	srli	a4,a0,0x1d
   1d878:	01212823          	sw	s2,16(sp)
   1d87c:	00f767b3          	or	a5,a4,a5
   1d880:	01f5d913          	srli	s2,a1,0x1f
   1d884:	01d65713          	srli	a4,a2,0x1d
   1d888:	00381813          	slli	a6,a6,0x3
   1d88c:	00112e23          	sw	ra,28(sp)
   1d890:	00812c23          	sw	s0,24(sp)
   1d894:	01312623          	sw	s3,12(sp)
   1d898:	7ff8f893          	andi	a7,a7,2047
   1d89c:	7ff00593          	addi	a1,zero,2047
   1d8a0:	00351513          	slli	a0,a0,0x3
   1d8a4:	01f6d693          	srli	a3,a3,0x1f
   1d8a8:	01076733          	or	a4,a4,a6
   1d8ac:	00361613          	slli	a2,a2,0x3
   1d8b0:	00b89663          	bne	a7,a1,1d8bc <__subdf3+0x70>
   1d8b4:	00c765b3          	or	a1,a4,a2
   1d8b8:	00059463          	bne	a1,zero,1d8c0 <__subdf3+0x74>
   1d8bc:	0016c693          	xori	a3,a3,1
   1d8c0:	41148833          	sub	a6,s1,a7
   1d8c4:	7ff00593          	addi	a1,zero,2047
   1d8c8:	31269463          	bne	a3,s2,1dbd0 <__subdf3+0x384>
   1d8cc:	11005263          	bge	zero,a6,1d9d0 <__subdf3+0x184>
   1d8d0:	02089c63          	bne	a7,zero,1d908 <__subdf3+0xbc>
   1d8d4:	00c766b3          	or	a3,a4,a2
   1d8d8:	02068463          	beq	a3,zero,1d900 <__subdf3+0xb4>
   1d8dc:	fff48813          	addi	a6,s1,-1
   1d8e0:	00081e63          	bne	a6,zero,1d8fc <__subdf3+0xb0>
   1d8e4:	00c50633          	add	a2,a0,a2
   1d8e8:	00e787b3          	add	a5,a5,a4
   1d8ec:	00a63533          	sltu	a0,a2,a0
   1d8f0:	00a787b3          	add	a5,a5,a0
   1d8f4:	00100493          	addi	s1,zero,1
   1d8f8:	0600006f          	jal	zero,1d958 <__subdf3+0x10c>
   1d8fc:	00b49c63          	bne	s1,a1,1d914 <__subdf3+0xc8>
   1d900:	00050613          	addi	a2,a0,0
   1d904:	1d80006f          	jal	zero,1dadc <__subdf3+0x290>
   1d908:	feb48ce3          	beq	s1,a1,1d900 <__subdf3+0xb4>
   1d90c:	008006b7          	lui	a3,0x800
   1d910:	00d76733          	or	a4,a4,a3
   1d914:	03800693          	addi	a3,zero,56
   1d918:	0b06c663          	blt	a3,a6,1d9c4 <__subdf3+0x178>
   1d91c:	01f00693          	addi	a3,zero,31
   1d920:	02000893          	addi	a7,zero,32
   1d924:	0706c863          	blt	a3,a6,1d994 <__subdf3+0x148>
   1d928:	410888b3          	sub	a7,a7,a6
   1d92c:	011716b3          	sll	a3,a4,a7
   1d930:	010655b3          	srl	a1,a2,a6
   1d934:	011618b3          	sll	a7,a2,a7
   1d938:	00b6e6b3          	or	a3,a3,a1
   1d93c:	011038b3          	sltu	a7,zero,a7
   1d940:	0116e6b3          	or	a3,a3,a7
   1d944:	01075833          	srl	a6,a4,a6
   1d948:	00a68633          	add	a2,a3,a0
   1d94c:	00f80833          	add	a6,a6,a5
   1d950:	00d636b3          	sltu	a3,a2,a3
   1d954:	00d807b3          	add	a5,a6,a3
   1d958:	00879713          	slli	a4,a5,0x8
   1d95c:	22075663          	bge	a4,zero,1db88 <__subdf3+0x33c>
   1d960:	00148493          	addi	s1,s1,1
   1d964:	7ff00713          	addi	a4,zero,2047
   1d968:	60e48863          	beq	s1,a4,1df78 <__subdf3+0x72c>
   1d96c:	ff800737          	lui	a4,0xff800
   1d970:	fff70713          	addi	a4,a4,-1 # ff7fffff <__BSS_END__+0xff74b5ab>
   1d974:	00e7f7b3          	and	a5,a5,a4
   1d978:	00165713          	srli	a4,a2,0x1
   1d97c:	00167613          	andi	a2,a2,1
   1d980:	00c76733          	or	a4,a4,a2
   1d984:	01f79613          	slli	a2,a5,0x1f
   1d988:	00e66633          	or	a2,a2,a4
   1d98c:	0017d793          	srli	a5,a5,0x1
   1d990:	1f80006f          	jal	zero,1db88 <__subdf3+0x33c>
   1d994:	fe080693          	addi	a3,a6,-32
   1d998:	00d756b3          	srl	a3,a4,a3
   1d99c:	00000593          	addi	a1,zero,0
   1d9a0:	01180863          	beq	a6,a7,1d9b0 <__subdf3+0x164>
   1d9a4:	04000593          	addi	a1,zero,64
   1d9a8:	410585b3          	sub	a1,a1,a6
   1d9ac:	00b715b3          	sll	a1,a4,a1
   1d9b0:	00c5e5b3          	or	a1,a1,a2
   1d9b4:	00b035b3          	sltu	a1,zero,a1
   1d9b8:	00b6e6b3          	or	a3,a3,a1
   1d9bc:	00000813          	addi	a6,zero,0
   1d9c0:	f89ff06f          	jal	zero,1d948 <__subdf3+0xfc>
   1d9c4:	00c766b3          	or	a3,a4,a2
   1d9c8:	00d036b3          	sltu	a3,zero,a3
   1d9cc:	ff1ff06f          	jal	zero,1d9bc <__subdf3+0x170>
   1d9d0:	0c080263          	beq	a6,zero,1da94 <__subdf3+0x248>
   1d9d4:	409886b3          	sub	a3,a7,s1
   1d9d8:	02049263          	bne	s1,zero,1d9fc <__subdf3+0x1b0>
   1d9dc:	00a7e833          	or	a6,a5,a0
   1d9e0:	00080863          	beq	a6,zero,1d9f0 <__subdf3+0x1a4>
   1d9e4:	fff68813          	addi	a6,a3,-1 # 7fffff <__BSS_END__+0x74b5ab>
   1d9e8:	ee080ee3          	beq	a6,zero,1d8e4 <__subdf3+0x98>
   1d9ec:	02b69063          	bne	a3,a1,1da0c <__subdf3+0x1c0>
   1d9f0:	00070793          	addi	a5,a4,0
   1d9f4:	00068493          	addi	s1,a3,0
   1d9f8:	0e40006f          	jal	zero,1dadc <__subdf3+0x290>
   1d9fc:	58b88663          	beq	a7,a1,1df88 <__subdf3+0x73c>
   1da00:	008005b7          	lui	a1,0x800
   1da04:	00b7e7b3          	or	a5,a5,a1
   1da08:	00068813          	addi	a6,a3,0
   1da0c:	03800693          	addi	a3,zero,56
   1da10:	0706cc63          	blt	a3,a6,1da88 <__subdf3+0x23c>
   1da14:	01f00693          	addi	a3,zero,31
   1da18:	02000313          	addi	t1,zero,32
   1da1c:	0306ce63          	blt	a3,a6,1da58 <__subdf3+0x20c>
   1da20:	41030333          	sub	t1,t1,a6
   1da24:	006796b3          	sll	a3,a5,t1
   1da28:	010555b3          	srl	a1,a0,a6
   1da2c:	00651333          	sll	t1,a0,t1
   1da30:	00b6e6b3          	or	a3,a3,a1
   1da34:	00603333          	sltu	t1,zero,t1
   1da38:	0066e6b3          	or	a3,a3,t1
   1da3c:	0107d833          	srl	a6,a5,a6
   1da40:	00c68633          	add	a2,a3,a2
   1da44:	00e80833          	add	a6,a6,a4
   1da48:	00d636b3          	sltu	a3,a2,a3
   1da4c:	00d807b3          	add	a5,a6,a3
   1da50:	00088493          	addi	s1,a7,0 # 10000 <exit-0xb4>
   1da54:	f05ff06f          	jal	zero,1d958 <__subdf3+0x10c>
   1da58:	fe080693          	addi	a3,a6,-32
   1da5c:	00d7d6b3          	srl	a3,a5,a3
   1da60:	00000593          	addi	a1,zero,0
   1da64:	00680863          	beq	a6,t1,1da74 <__subdf3+0x228>
   1da68:	04000593          	addi	a1,zero,64
   1da6c:	410585b3          	sub	a1,a1,a6
   1da70:	00b795b3          	sll	a1,a5,a1
   1da74:	00a5e5b3          	or	a1,a1,a0
   1da78:	00b035b3          	sltu	a1,zero,a1
   1da7c:	00b6e6b3          	or	a3,a3,a1
   1da80:	00000813          	addi	a6,zero,0
   1da84:	fbdff06f          	jal	zero,1da40 <__subdf3+0x1f4>
   1da88:	00a7e6b3          	or	a3,a5,a0
   1da8c:	00d036b3          	sltu	a3,zero,a3
   1da90:	ff1ff06f          	jal	zero,1da80 <__subdf3+0x234>
   1da94:	00148693          	addi	a3,s1,1
   1da98:	7fe6f813          	andi	a6,a3,2046
   1da9c:	0c081263          	bne	a6,zero,1db60 <__subdf3+0x314>
   1daa0:	00a7e6b3          	or	a3,a5,a0
   1daa4:	0a049463          	bne	s1,zero,1db4c <__subdf3+0x300>
   1daa8:	4a068863          	beq	a3,zero,1df58 <__subdf3+0x70c>
   1daac:	00c766b3          	or	a3,a4,a2
   1dab0:	4a068863          	beq	a3,zero,1df60 <__subdf3+0x714>
   1dab4:	00c50633          	add	a2,a0,a2
   1dab8:	00e787b3          	add	a5,a5,a4
   1dabc:	00a63533          	sltu	a0,a2,a0
   1dac0:	00a787b3          	add	a5,a5,a0
   1dac4:	00879713          	slli	a4,a5,0x8
   1dac8:	32075a63          	bge	a4,zero,1ddfc <__subdf3+0x5b0>
   1dacc:	ff800737          	lui	a4,0xff800
   1dad0:	fff70713          	addi	a4,a4,-1 # ff7fffff <__BSS_END__+0xff74b5ab>
   1dad4:	00e7f7b3          	and	a5,a5,a4
   1dad8:	00100493          	addi	s1,zero,1
   1dadc:	01d79693          	slli	a3,a5,0x1d
   1dae0:	00365613          	srli	a2,a2,0x3
   1dae4:	7ff00713          	addi	a4,zero,2047
   1dae8:	00c6e6b3          	or	a3,a3,a2
   1daec:	0037d793          	srli	a5,a5,0x3
   1daf0:	00e49e63          	bne	s1,a4,1db0c <__subdf3+0x2c0>
   1daf4:	00f6e6b3          	or	a3,a3,a5
   1daf8:	00000793          	addi	a5,zero,0
   1dafc:	00068863          	beq	a3,zero,1db0c <__subdf3+0x2c0>
   1db00:	000807b7          	lui	a5,0x80
   1db04:	00000693          	addi	a3,zero,0
   1db08:	00000913          	addi	s2,zero,0
   1db0c:	7ff4f713          	andi	a4,s1,2047
   1db10:	00c79793          	slli	a5,a5,0xc
   1db14:	01c12083          	lw	ra,28(sp)
   1db18:	01812403          	lw	s0,24(sp)
   1db1c:	00c7d793          	srli	a5,a5,0xc
   1db20:	01471713          	slli	a4,a4,0x14
   1db24:	01f91593          	slli	a1,s2,0x1f
   1db28:	00f76733          	or	a4,a4,a5
   1db2c:	00b767b3          	or	a5,a4,a1
   1db30:	01412483          	lw	s1,20(sp)
   1db34:	01012903          	lw	s2,16(sp)
   1db38:	00c12983          	lw	s3,12(sp)
   1db3c:	00068513          	addi	a0,a3,0
   1db40:	00078593          	addi	a1,a5,0 # 80000 <input_data+0x5f2ec>
   1db44:	02010113          	addi	sp,sp,32
   1db48:	00008067          	jalr	zero,0(ra)
   1db4c:	40068e63          	beq	a3,zero,1df68 <__subdf3+0x71c>
   1db50:	00c76733          	or	a4,a4,a2
   1db54:	2c071c63          	bne	a4,zero,1de2c <__subdf3+0x5e0>
   1db58:	00050613          	addi	a2,a0,0
   1db5c:	4100006f          	jal	zero,1df6c <__subdf3+0x720>
   1db60:	40b68a63          	beq	a3,a1,1df74 <__subdf3+0x728>
   1db64:	00c50633          	add	a2,a0,a2
   1db68:	00e787b3          	add	a5,a5,a4
   1db6c:	00a63533          	sltu	a0,a2,a0
   1db70:	00a787b3          	add	a5,a5,a0
   1db74:	01f79713          	slli	a4,a5,0x1f
   1db78:	00165613          	srli	a2,a2,0x1
   1db7c:	00c76633          	or	a2,a4,a2
   1db80:	0017d793          	srli	a5,a5,0x1
   1db84:	00068493          	addi	s1,a3,0
   1db88:	00767713          	andi	a4,a2,7
   1db8c:	02070063          	beq	a4,zero,1dbac <__subdf3+0x360>
   1db90:	00f67713          	andi	a4,a2,15
   1db94:	00400693          	addi	a3,zero,4
   1db98:	00d70a63          	beq	a4,a3,1dbac <__subdf3+0x360>
   1db9c:	00d60733          	add	a4,a2,a3
   1dba0:	00c736b3          	sltu	a3,a4,a2
   1dba4:	00d787b3          	add	a5,a5,a3
   1dba8:	00070613          	addi	a2,a4,0
   1dbac:	00879713          	slli	a4,a5,0x8
   1dbb0:	f20756e3          	bge	a4,zero,1dadc <__subdf3+0x290>
   1dbb4:	00148493          	addi	s1,s1,1
   1dbb8:	7ff00713          	addi	a4,zero,2047
   1dbbc:	3ae48e63          	beq	s1,a4,1df78 <__subdf3+0x72c>
   1dbc0:	ff800737          	lui	a4,0xff800
   1dbc4:	fff70713          	addi	a4,a4,-1 # ff7fffff <__BSS_END__+0xff74b5ab>
   1dbc8:	00e7f7b3          	and	a5,a5,a4
   1dbcc:	f11ff06f          	jal	zero,1dadc <__subdf3+0x290>
   1dbd0:	0f005063          	bge	zero,a6,1dcb0 <__subdf3+0x464>
   1dbd4:	08089863          	bne	a7,zero,1dc64 <__subdf3+0x418>
   1dbd8:	00c766b3          	or	a3,a4,a2
   1dbdc:	d20682e3          	beq	a3,zero,1d900 <__subdf3+0xb4>
   1dbe0:	fff48813          	addi	a6,s1,-1
   1dbe4:	00081e63          	bne	a6,zero,1dc00 <__subdf3+0x3b4>
   1dbe8:	40c50633          	sub	a2,a0,a2
   1dbec:	40e787b3          	sub	a5,a5,a4
   1dbf0:	00c53533          	sltu	a0,a0,a2
   1dbf4:	40a787b3          	sub	a5,a5,a0
   1dbf8:	00100493          	addi	s1,zero,1
   1dbfc:	04c0006f          	jal	zero,1dc48 <__subdf3+0x3fc>
   1dc00:	d0b480e3          	beq	s1,a1,1d900 <__subdf3+0xb4>
   1dc04:	03800693          	addi	a3,zero,56
   1dc08:	0906ce63          	blt	a3,a6,1dca4 <__subdf3+0x458>
   1dc0c:	01f00693          	addi	a3,zero,31
   1dc10:	02000893          	addi	a7,zero,32
   1dc14:	0706c063          	blt	a3,a6,1dc74 <__subdf3+0x428>
   1dc18:	410888b3          	sub	a7,a7,a6
   1dc1c:	011716b3          	sll	a3,a4,a7
   1dc20:	010655b3          	srl	a1,a2,a6
   1dc24:	011618b3          	sll	a7,a2,a7
   1dc28:	00b6e6b3          	or	a3,a3,a1
   1dc2c:	011038b3          	sltu	a7,zero,a7
   1dc30:	0116e6b3          	or	a3,a3,a7
   1dc34:	01075833          	srl	a6,a4,a6
   1dc38:	40d50633          	sub	a2,a0,a3
   1dc3c:	41078833          	sub	a6,a5,a6
   1dc40:	00c53533          	sltu	a0,a0,a2
   1dc44:	40a807b3          	sub	a5,a6,a0
   1dc48:	00879713          	slli	a4,a5,0x8
   1dc4c:	f2075ee3          	bge	a4,zero,1db88 <__subdf3+0x33c>
   1dc50:	00800437          	lui	s0,0x800
   1dc54:	fff40413          	addi	s0,s0,-1 # 7fffff <__BSS_END__+0x74b5ab>
   1dc58:	0087f433          	and	s0,a5,s0
   1dc5c:	00060993          	addi	s3,a2,0
   1dc60:	2140006f          	jal	zero,1de74 <__subdf3+0x628>
   1dc64:	c8b48ee3          	beq	s1,a1,1d900 <__subdf3+0xb4>
   1dc68:	008006b7          	lui	a3,0x800
   1dc6c:	00d76733          	or	a4,a4,a3
   1dc70:	f95ff06f          	jal	zero,1dc04 <__subdf3+0x3b8>
   1dc74:	fe080693          	addi	a3,a6,-32
   1dc78:	00d756b3          	srl	a3,a4,a3
   1dc7c:	00000593          	addi	a1,zero,0
   1dc80:	01180863          	beq	a6,a7,1dc90 <__subdf3+0x444>
   1dc84:	04000593          	addi	a1,zero,64
   1dc88:	410585b3          	sub	a1,a1,a6
   1dc8c:	00b715b3          	sll	a1,a4,a1
   1dc90:	00c5e5b3          	or	a1,a1,a2
   1dc94:	00b035b3          	sltu	a1,zero,a1
   1dc98:	00b6e6b3          	or	a3,a3,a1
   1dc9c:	00000813          	addi	a6,zero,0
   1dca0:	f99ff06f          	jal	zero,1dc38 <__subdf3+0x3ec>
   1dca4:	00c766b3          	or	a3,a4,a2
   1dca8:	00d036b3          	sltu	a3,zero,a3
   1dcac:	ff1ff06f          	jal	zero,1dc9c <__subdf3+0x450>
   1dcb0:	0e080663          	beq	a6,zero,1dd9c <__subdf3+0x550>
   1dcb4:	40988333          	sub	t1,a7,s1
   1dcb8:	04049263          	bne	s1,zero,1dcfc <__subdf3+0x4b0>
   1dcbc:	00a7e833          	or	a6,a5,a0
   1dcc0:	02080663          	beq	a6,zero,1dcec <__subdf3+0x4a0>
   1dcc4:	fff30813          	addi	a6,t1,-1
   1dcc8:	02081063          	bne	a6,zero,1dce8 <__subdf3+0x49c>
   1dccc:	40a60533          	sub	a0,a2,a0
   1dcd0:	00a635b3          	sltu	a1,a2,a0
   1dcd4:	40f707b3          	sub	a5,a4,a5
   1dcd8:	00050613          	addi	a2,a0,0
   1dcdc:	40b787b3          	sub	a5,a5,a1
   1dce0:	00068913          	addi	s2,a3,0 # 800000 <__BSS_END__+0x74b5ac>
   1dce4:	f15ff06f          	jal	zero,1dbf8 <__subdf3+0x3ac>
   1dce8:	02b31263          	bne	t1,a1,1dd0c <__subdf3+0x4c0>
   1dcec:	00068913          	addi	s2,a3,0
   1dcf0:	00070793          	addi	a5,a4,0
   1dcf4:	00030493          	addi	s1,t1,0
   1dcf8:	de5ff06f          	jal	zero,1dadc <__subdf3+0x290>
   1dcfc:	28b88463          	beq	a7,a1,1df84 <__subdf3+0x738>
   1dd00:	008005b7          	lui	a1,0x800
   1dd04:	00b7e7b3          	or	a5,a5,a1
   1dd08:	00030813          	addi	a6,t1,0
   1dd0c:	03800593          	addi	a1,zero,56
   1dd10:	0905c063          	blt	a1,a6,1dd90 <__subdf3+0x544>
   1dd14:	01f00593          	addi	a1,zero,31
   1dd18:	02000e13          	addi	t3,zero,32
   1dd1c:	0505c263          	blt	a1,a6,1dd60 <__subdf3+0x514>
   1dd20:	410e0e33          	sub	t3,t3,a6
   1dd24:	01c795b3          	sll	a1,a5,t3
   1dd28:	01055333          	srl	t1,a0,a6
   1dd2c:	01c51e33          	sll	t3,a0,t3
   1dd30:	0065e5b3          	or	a1,a1,t1
   1dd34:	01c03e33          	sltu	t3,zero,t3
   1dd38:	01c5e5b3          	or	a1,a1,t3
   1dd3c:	0107d833          	srl	a6,a5,a6
   1dd40:	40b605b3          	sub	a1,a2,a1
   1dd44:	00b637b3          	sltu	a5,a2,a1
   1dd48:	41070833          	sub	a6,a4,a6
   1dd4c:	00058613          	addi	a2,a1,0 # 800000 <__BSS_END__+0x74b5ac>
   1dd50:	40f807b3          	sub	a5,a6,a5
   1dd54:	00088493          	addi	s1,a7,0
   1dd58:	00068913          	addi	s2,a3,0
   1dd5c:	eedff06f          	jal	zero,1dc48 <__subdf3+0x3fc>
   1dd60:	fe080593          	addi	a1,a6,-32
   1dd64:	00b7d5b3          	srl	a1,a5,a1
   1dd68:	00000313          	addi	t1,zero,0
   1dd6c:	01c80863          	beq	a6,t3,1dd7c <__subdf3+0x530>
   1dd70:	04000313          	addi	t1,zero,64
   1dd74:	41030333          	sub	t1,t1,a6
   1dd78:	00679333          	sll	t1,a5,t1
   1dd7c:	00a36333          	or	t1,t1,a0
   1dd80:	00603333          	sltu	t1,zero,t1
   1dd84:	0065e5b3          	or	a1,a1,t1
   1dd88:	00000813          	addi	a6,zero,0
   1dd8c:	fb5ff06f          	jal	zero,1dd40 <__subdf3+0x4f4>
   1dd90:	00a7e5b3          	or	a1,a5,a0
   1dd94:	00b035b3          	sltu	a1,zero,a1
   1dd98:	ff1ff06f          	jal	zero,1dd88 <__subdf3+0x53c>
   1dd9c:	00148813          	addi	a6,s1,1
   1dda0:	7fe87813          	andi	a6,a6,2046
   1dda4:	0a081063          	bne	a6,zero,1de44 <__subdf3+0x5f8>
   1dda8:	00c76833          	or	a6,a4,a2
   1ddac:	00a7e8b3          	or	a7,a5,a0
   1ddb0:	06049863          	bne	s1,zero,1de20 <__subdf3+0x5d4>
   1ddb4:	00089a63          	bne	a7,zero,1ddc8 <__subdf3+0x57c>
   1ddb8:	00070793          	addi	a5,a4,0
   1ddbc:	02081e63          	bne	a6,zero,1ddf8 <__subdf3+0x5ac>
   1ddc0:	00000913          	addi	s2,zero,0
   1ddc4:	1b40006f          	jal	zero,1df78 <__subdf3+0x72c>
   1ddc8:	18080c63          	beq	a6,zero,1df60 <__subdf3+0x714>
   1ddcc:	40c50833          	sub	a6,a0,a2
   1ddd0:	010538b3          	sltu	a7,a0,a6
   1ddd4:	40e785b3          	sub	a1,a5,a4
   1ddd8:	411585b3          	sub	a1,a1,a7
   1dddc:	00859893          	slli	a7,a1,0x8
   1dde0:	0208d663          	bge	a7,zero,1de0c <__subdf3+0x5c0>
   1dde4:	40a60533          	sub	a0,a2,a0
   1dde8:	00a635b3          	sltu	a1,a2,a0
   1ddec:	40f707b3          	sub	a5,a4,a5
   1ddf0:	00050613          	addi	a2,a0,0
   1ddf4:	40b787b3          	sub	a5,a5,a1
   1ddf8:	00068913          	addi	s2,a3,0
   1ddfc:	00f66733          	or	a4,a2,a5
   1de00:	1a070063          	beq	a4,zero,1dfa0 <__subdf3+0x754>
   1de04:	00000493          	addi	s1,zero,0
   1de08:	d81ff06f          	jal	zero,1db88 <__subdf3+0x33c>
   1de0c:	00b86633          	or	a2,a6,a1
   1de10:	18060263          	beq	a2,zero,1df94 <__subdf3+0x748>
   1de14:	00058793          	addi	a5,a1,0
   1de18:	00080613          	addi	a2,a6,0
   1de1c:	fe1ff06f          	jal	zero,1ddfc <__subdf3+0x5b0>
   1de20:	00089e63          	bne	a7,zero,1de3c <__subdf3+0x5f0>
   1de24:	00068913          	addi	s2,a3,0
   1de28:	14081063          	bne	a6,zero,1df68 <__subdf3+0x71c>
   1de2c:	00000913          	addi	s2,zero,0
   1de30:	004007b7          	lui	a5,0x400
   1de34:	00000613          	addi	a2,zero,0
   1de38:	1340006f          	jal	zero,1df6c <__subdf3+0x720>
   1de3c:	d0080ee3          	beq	a6,zero,1db58 <__subdf3+0x30c>
   1de40:	fedff06f          	jal	zero,1de2c <__subdf3+0x5e0>
   1de44:	40c505b3          	sub	a1,a0,a2
   1de48:	00b53833          	sltu	a6,a0,a1
   1de4c:	40e78433          	sub	s0,a5,a4
   1de50:	41040433          	sub	s0,s0,a6
   1de54:	00841813          	slli	a6,s0,0x8
   1de58:	00058993          	addi	s3,a1,0
   1de5c:	06085e63          	bge	a6,zero,1ded8 <__subdf3+0x68c>
   1de60:	40a609b3          	sub	s3,a2,a0
   1de64:	40f70433          	sub	s0,a4,a5
   1de68:	01363633          	sltu	a2,a2,s3
   1de6c:	40c40433          	sub	s0,s0,a2
   1de70:	00068913          	addi	s2,a3,0
   1de74:	06040e63          	beq	s0,zero,1def0 <__subdf3+0x6a4>
   1de78:	00040513          	addi	a0,s0,0
   1de7c:	4c1020ef          	jal	ra,20b3c <__clzsi2>
   1de80:	ff850713          	addi	a4,a0,-8
   1de84:	02000793          	addi	a5,zero,32
   1de88:	40e787b3          	sub	a5,a5,a4
   1de8c:	00e41433          	sll	s0,s0,a4
   1de90:	00f9d7b3          	srl	a5,s3,a5
   1de94:	0087e7b3          	or	a5,a5,s0
   1de98:	00e99633          	sll	a2,s3,a4
   1de9c:	0a974463          	blt	a4,s1,1df44 <__subdf3+0x6f8>
   1dea0:	40970733          	sub	a4,a4,s1
   1dea4:	00170513          	addi	a0,a4,1
   1dea8:	01f00693          	addi	a3,zero,31
   1deac:	02000593          	addi	a1,zero,32
   1deb0:	06a6c263          	blt	a3,a0,1df14 <__subdf3+0x6c8>
   1deb4:	40a585b3          	sub	a1,a1,a0
   1deb8:	00b79733          	sll	a4,a5,a1
   1debc:	00a656b3          	srl	a3,a2,a0
   1dec0:	00b615b3          	sll	a1,a2,a1
   1dec4:	00d76733          	or	a4,a4,a3
   1dec8:	00b035b3          	sltu	a1,zero,a1
   1decc:	00b76633          	or	a2,a4,a1
   1ded0:	00a7d7b3          	srl	a5,a5,a0
   1ded4:	f29ff06f          	jal	zero,1ddfc <__subdf3+0x5b0>
   1ded8:	0085e633          	or	a2,a1,s0
   1dedc:	f8061ce3          	bne	a2,zero,1de74 <__subdf3+0x628>
   1dee0:	00000913          	addi	s2,zero,0
   1dee4:	00000793          	addi	a5,zero,0
   1dee8:	00000493          	addi	s1,zero,0
   1deec:	bf1ff06f          	jal	zero,1dadc <__subdf3+0x290>
   1def0:	00098513          	addi	a0,s3,0
   1def4:	449020ef          	jal	ra,20b3c <__clzsi2>
   1def8:	01850713          	addi	a4,a0,24
   1defc:	01f00793          	addi	a5,zero,31
   1df00:	f8e7d2e3          	bge	a5,a4,1de84 <__subdf3+0x638>
   1df04:	ff850793          	addi	a5,a0,-8
   1df08:	00f997b3          	sll	a5,s3,a5
   1df0c:	00000613          	addi	a2,zero,0
   1df10:	f8dff06f          	jal	zero,1de9c <__subdf3+0x650>
   1df14:	fe170713          	addi	a4,a4,-31
   1df18:	00e7d733          	srl	a4,a5,a4
   1df1c:	00000693          	addi	a3,zero,0
   1df20:	00b50863          	beq	a0,a1,1df30 <__subdf3+0x6e4>
   1df24:	04000693          	addi	a3,zero,64
   1df28:	40a686b3          	sub	a3,a3,a0
   1df2c:	00d796b3          	sll	a3,a5,a3
   1df30:	00d666b3          	or	a3,a2,a3
   1df34:	00d036b3          	sltu	a3,zero,a3
   1df38:	00d76633          	or	a2,a4,a3
   1df3c:	00000793          	addi	a5,zero,0
   1df40:	ebdff06f          	jal	zero,1ddfc <__subdf3+0x5b0>
   1df44:	40e484b3          	sub	s1,s1,a4
   1df48:	ff800737          	lui	a4,0xff800
   1df4c:	fff70713          	addi	a4,a4,-1 # ff7fffff <__BSS_END__+0xff74b5ab>
   1df50:	00e7f7b3          	and	a5,a5,a4
   1df54:	c35ff06f          	jal	zero,1db88 <__subdf3+0x33c>
   1df58:	00070793          	addi	a5,a4,0
   1df5c:	ea1ff06f          	jal	zero,1ddfc <__subdf3+0x5b0>
   1df60:	00050613          	addi	a2,a0,0
   1df64:	e99ff06f          	jal	zero,1ddfc <__subdf3+0x5b0>
   1df68:	00070793          	addi	a5,a4,0
   1df6c:	00058493          	addi	s1,a1,0
   1df70:	b6dff06f          	jal	zero,1dadc <__subdf3+0x290>
   1df74:	00068493          	addi	s1,a3,0
   1df78:	00000793          	addi	a5,zero,0
   1df7c:	00000613          	addi	a2,zero,0
   1df80:	b5dff06f          	jal	zero,1dadc <__subdf3+0x290>
   1df84:	00068913          	addi	s2,a3,0
   1df88:	00070793          	addi	a5,a4,0
   1df8c:	00088493          	addi	s1,a7,0
   1df90:	b4dff06f          	jal	zero,1dadc <__subdf3+0x290>
   1df94:	00000913          	addi	s2,zero,0
   1df98:	00000793          	addi	a5,zero,0
   1df9c:	b41ff06f          	jal	zero,1dadc <__subdf3+0x290>
   1dfa0:	00000793          	addi	a5,zero,0
   1dfa4:	00000613          	addi	a2,zero,0
   1dfa8:	f41ff06f          	jal	zero,1dee8 <__subdf3+0x69c>

0001dfac <__fixdfsi>:
   1dfac:	0145d713          	srli	a4,a1,0x14
   1dfb0:	001006b7          	lui	a3,0x100
   1dfb4:	fff68793          	addi	a5,a3,-1 # fffff <__BSS_END__+0x4b5ab>
   1dfb8:	7ff77713          	andi	a4,a4,2047
   1dfbc:	3fe00613          	addi	a2,zero,1022
   1dfc0:	00b7f7b3          	and	a5,a5,a1
   1dfc4:	01f5d593          	srli	a1,a1,0x1f
   1dfc8:	04e65c63          	bge	a2,a4,1e020 <__fixdfsi+0x74>
   1dfcc:	41d00613          	addi	a2,zero,1053
   1dfd0:	00e65a63          	bge	a2,a4,1dfe4 <__fixdfsi+0x38>
   1dfd4:	80000537          	lui	a0,0x80000
   1dfd8:	fff50513          	addi	a0,a0,-1 # 7fffffff <__BSS_END__+0x7ff4b5ab>
   1dfdc:	00a58533          	add	a0,a1,a0
   1dfe0:	00008067          	jalr	zero,0(ra)
   1dfe4:	00d7e7b3          	or	a5,a5,a3
   1dfe8:	41300693          	addi	a3,zero,1043
   1dfec:	02e6d463          	bge	a3,a4,1e014 <__fixdfsi+0x68>
   1dff0:	bed70693          	addi	a3,a4,-1043
   1dff4:	00d797b3          	sll	a5,a5,a3
   1dff8:	43300693          	addi	a3,zero,1075
   1dffc:	40e68733          	sub	a4,a3,a4
   1e000:	00e55533          	srl	a0,a0,a4
   1e004:	00a7e533          	or	a0,a5,a0
   1e008:	00058e63          	beq	a1,zero,1e024 <__fixdfsi+0x78>
   1e00c:	40a00533          	sub	a0,zero,a0
   1e010:	00008067          	jalr	zero,0(ra)
   1e014:	40e686b3          	sub	a3,a3,a4
   1e018:	00d7d533          	srl	a0,a5,a3
   1e01c:	fedff06f          	jal	zero,1e008 <__fixdfsi+0x5c>
   1e020:	00000513          	addi	a0,zero,0
   1e024:	00008067          	jalr	zero,0(ra)

0001e028 <__floatsidf>:
   1e028:	ff010113          	addi	sp,sp,-16
   1e02c:	00112623          	sw	ra,12(sp)
   1e030:	00812423          	sw	s0,8(sp)
   1e034:	00912223          	sw	s1,4(sp)
   1e038:	00050793          	addi	a5,a0,0
   1e03c:	08050063          	beq	a0,zero,1e0bc <__floatsidf+0x94>
   1e040:	41f55713          	srai	a4,a0,0x1f
   1e044:	00a74433          	xor	s0,a4,a0
   1e048:	40e40433          	sub	s0,s0,a4
   1e04c:	01f55493          	srli	s1,a0,0x1f
   1e050:	00040513          	addi	a0,s0,0
   1e054:	2e9020ef          	jal	ra,20b3c <__clzsi2>
   1e058:	41e00793          	addi	a5,zero,1054
   1e05c:	00a00713          	addi	a4,zero,10
   1e060:	40a787b3          	sub	a5,a5,a0
   1e064:	04a74463          	blt	a4,a0,1e0ac <__floatsidf+0x84>
   1e068:	00b00713          	addi	a4,zero,11
   1e06c:	40a70733          	sub	a4,a4,a0
   1e070:	01550513          	addi	a0,a0,21
   1e074:	00e45733          	srl	a4,s0,a4
   1e078:	00a41433          	sll	s0,s0,a0
   1e07c:	00c12083          	lw	ra,12(sp)
   1e080:	00040513          	addi	a0,s0,0
   1e084:	00c71713          	slli	a4,a4,0xc
   1e088:	00812403          	lw	s0,8(sp)
   1e08c:	01479793          	slli	a5,a5,0x14
   1e090:	00c75713          	srli	a4,a4,0xc
   1e094:	01f49493          	slli	s1,s1,0x1f
   1e098:	00e7e7b3          	or	a5,a5,a4
   1e09c:	0097e5b3          	or	a1,a5,s1
   1e0a0:	00412483          	lw	s1,4(sp)
   1e0a4:	01010113          	addi	sp,sp,16
   1e0a8:	00008067          	jalr	zero,0(ra)
   1e0ac:	ff550513          	addi	a0,a0,-11
   1e0b0:	00a41733          	sll	a4,s0,a0
   1e0b4:	00000413          	addi	s0,zero,0
   1e0b8:	fc5ff06f          	jal	zero,1e07c <__floatsidf+0x54>
   1e0bc:	00000493          	addi	s1,zero,0
   1e0c0:	00000713          	addi	a4,zero,0
   1e0c4:	ff1ff06f          	jal	zero,1e0b4 <__floatsidf+0x8c>

0001e0c8 <__eqtf2>:
   1e0c8:	00c52883          	lw	a7,12(a0)
   1e0cc:	00c5a303          	lw	t1,12(a1)
   1e0d0:	0005a683          	lw	a3,0(a1)
   1e0d4:	0045a603          	lw	a2,4(a1)
   1e0d8:	0085a703          	lw	a4,8(a1)
   1e0dc:	000085b7          	lui	a1,0x8
   1e0e0:	0108d813          	srli	a6,a7,0x10
   1e0e4:	fff58593          	addi	a1,a1,-1 # 7fff <exit-0x80b5>
   1e0e8:	01089e13          	slli	t3,a7,0x10
   1e0ec:	01031293          	slli	t0,t1,0x10
   1e0f0:	01035793          	srli	a5,t1,0x10
   1e0f4:	00b87833          	and	a6,a6,a1
   1e0f8:	00052e83          	lw	t4,0(a0)
   1e0fc:	00452f83          	lw	t6,4(a0)
   1e100:	00852f03          	lw	t5,8(a0)
   1e104:	ff010113          	addi	sp,sp,-16
   1e108:	010e5e13          	srli	t3,t3,0x10
   1e10c:	01f8d893          	srli	a7,a7,0x1f
   1e110:	0102d293          	srli	t0,t0,0x10
   1e114:	00b7f7b3          	and	a5,a5,a1
   1e118:	01f35313          	srli	t1,t1,0x1f
   1e11c:	02b81063          	bne	a6,a1,1e13c <__eqtf2+0x74>
   1e120:	01dfe5b3          	or	a1,t6,t4
   1e124:	01e5e5b3          	or	a1,a1,t5
   1e128:	01c5e5b3          	or	a1,a1,t3
   1e12c:	00100513          	addi	a0,zero,1
   1e130:	06059c63          	bne	a1,zero,1e1a8 <__eqtf2+0xe0>
   1e134:	07079a63          	bne	a5,a6,1e1a8 <__eqtf2+0xe0>
   1e138:	0080006f          	jal	zero,1e140 <__eqtf2+0x78>
   1e13c:	00b79c63          	bne	a5,a1,1e154 <__eqtf2+0x8c>
   1e140:	00c6e5b3          	or	a1,a3,a2
   1e144:	00e5e5b3          	or	a1,a1,a4
   1e148:	0055e5b3          	or	a1,a1,t0
   1e14c:	00100513          	addi	a0,zero,1
   1e150:	04059c63          	bne	a1,zero,1e1a8 <__eqtf2+0xe0>
   1e154:	41d686b3          	sub	a3,a3,t4
   1e158:	40cf8633          	sub	a2,t6,a2
   1e15c:	00d036b3          	sltu	a3,zero,a3
   1e160:	00c03633          	sltu	a2,zero,a2
   1e164:	410787b3          	sub	a5,a5,a6
   1e168:	00c6e6b3          	or	a3,a3,a2
   1e16c:	00f037b3          	sltu	a5,zero,a5
   1e170:	40ef0733          	sub	a4,t5,a4
   1e174:	00d7e7b3          	or	a5,a5,a3
   1e178:	00e03733          	sltu	a4,zero,a4
   1e17c:	00f76733          	or	a4,a4,a5
   1e180:	02071863          	bne	a4,zero,1e1b0 <__eqtf2+0xe8>
   1e184:	025e1663          	bne	t3,t0,1e1b0 <__eqtf2+0xe8>
   1e188:	00000513          	addi	a0,zero,0
   1e18c:	00688e63          	beq	a7,t1,1e1a8 <__eqtf2+0xe0>
   1e190:	00100513          	addi	a0,zero,1
   1e194:	00081a63          	bne	a6,zero,1e1a8 <__eqtf2+0xe0>
   1e198:	01dfe533          	or	a0,t6,t4
   1e19c:	01e56533          	or	a0,a0,t5
   1e1a0:	01c56533          	or	a0,a0,t3
   1e1a4:	00a03533          	sltu	a0,zero,a0
   1e1a8:	01010113          	addi	sp,sp,16
   1e1ac:	00008067          	jalr	zero,0(ra)
   1e1b0:	00100513          	addi	a0,zero,1
   1e1b4:	ff5ff06f          	jal	zero,1e1a8 <__eqtf2+0xe0>

0001e1b8 <__getf2>:
   1e1b8:	00c52783          	lw	a5,12(a0)
   1e1bc:	00c5a683          	lw	a3,12(a1)
   1e1c0:	00008737          	lui	a4,0x8
   1e1c4:	fff70713          	addi	a4,a4,-1 # 7fff <exit-0x80b5>
   1e1c8:	0005a283          	lw	t0,0(a1)
   1e1cc:	0045a303          	lw	t1,4(a1)
   1e1d0:	0085a383          	lw	t2,8(a1)
   1e1d4:	0107d593          	srli	a1,a5,0x10
   1e1d8:	01079e13          	slli	t3,a5,0x10
   1e1dc:	0106d613          	srli	a2,a3,0x10
   1e1e0:	00e5f5b3          	and	a1,a1,a4
   1e1e4:	00052f03          	lw	t5,0(a0)
   1e1e8:	00452883          	lw	a7,4(a0)
   1e1ec:	00852f83          	lw	t6,8(a0)
   1e1f0:	ff010113          	addi	sp,sp,-16
   1e1f4:	010e5e13          	srli	t3,t3,0x10
   1e1f8:	01f7d793          	srli	a5,a5,0x1f
   1e1fc:	00e67633          	and	a2,a2,a4
   1e200:	01f6de93          	srli	t4,a3,0x1f
   1e204:	00e59c63          	bne	a1,a4,1e21c <__getf2+0x64>
   1e208:	01e8e733          	or	a4,a7,t5
   1e20c:	01f76733          	or	a4,a4,t6
   1e210:	01c76733          	or	a4,a4,t3
   1e214:	ffe00513          	addi	a0,zero,-2
   1e218:	06071a63          	bne	a4,zero,1e28c <__getf2+0xd4>
   1e21c:	00008737          	lui	a4,0x8
   1e220:	01069693          	slli	a3,a3,0x10
   1e224:	fff70713          	addi	a4,a4,-1 # 7fff <exit-0x80b5>
   1e228:	0106d693          	srli	a3,a3,0x10
   1e22c:	00060513          	addi	a0,a2,0
   1e230:	00e61a63          	bne	a2,a4,1e244 <__getf2+0x8c>
   1e234:	00536733          	or	a4,t1,t0
   1e238:	00776733          	or	a4,a4,t2
   1e23c:	00d76733          	or	a4,a4,a3
   1e240:	04071a63          	bne	a4,zero,1e294 <__getf2+0xdc>
   1e244:	00000713          	addi	a4,zero,0
   1e248:	00059a63          	bne	a1,zero,1e25c <__getf2+0xa4>
   1e24c:	01e8e733          	or	a4,a7,t5
   1e250:	01f76733          	or	a4,a4,t6
   1e254:	01c76733          	or	a4,a4,t3
   1e258:	00173713          	sltiu	a4,a4,1
   1e25c:	04061463          	bne	a2,zero,1e2a4 <__getf2+0xec>
   1e260:	00536833          	or	a6,t1,t0
   1e264:	00786833          	or	a6,a6,t2
   1e268:	00d86833          	or	a6,a6,a3
   1e26c:	00070a63          	beq	a4,zero,1e280 <__getf2+0xc8>
   1e270:	00080e63          	beq	a6,zero,1e28c <__getf2+0xd4>
   1e274:	001e9513          	slli	a0,t4,0x1
   1e278:	fff50513          	addi	a0,a0,-1
   1e27c:	0100006f          	jal	zero,1e28c <__getf2+0xd4>
   1e280:	02081463          	bne	a6,zero,1e2a8 <__getf2+0xf0>
   1e284:	40f00533          	sub	a0,zero,a5
   1e288:	00156513          	ori	a0,a0,1
   1e28c:	01010113          	addi	sp,sp,16
   1e290:	00008067          	jalr	zero,0(ra)
   1e294:	ffe00513          	addi	a0,zero,-2
   1e298:	ff5ff06f          	jal	zero,1e28c <__getf2+0xd4>
   1e29c:	00000513          	addi	a0,zero,0
   1e2a0:	fedff06f          	jal	zero,1e28c <__getf2+0xd4>
   1e2a4:	fc0718e3          	bne	a4,zero,1e274 <__getf2+0xbc>
   1e2a8:	fcfe9ee3          	bne	t4,a5,1e284 <__getf2+0xcc>
   1e2ac:	41d00533          	sub	a0,zero,t4
   1e2b0:	fcb64ce3          	blt	a2,a1,1e288 <__getf2+0xd0>
   1e2b4:	fcc5c0e3          	blt	a1,a2,1e274 <__getf2+0xbc>
   1e2b8:	fdc6e6e3          	bltu	a3,t3,1e284 <__getf2+0xcc>
   1e2bc:	02de1463          	bne	t3,a3,1e2e4 <__getf2+0x12c>
   1e2c0:	fdf3e2e3          	bltu	t2,t6,1e284 <__getf2+0xcc>
   1e2c4:	03f39063          	bne	t2,t6,1e2e4 <__getf2+0x12c>
   1e2c8:	fb136ee3          	bltu	t1,a7,1e284 <__getf2+0xcc>
   1e2cc:	41130733          	sub	a4,t1,a7
   1e2d0:	01e2f463          	bgeu	t0,t5,1e2d8 <__getf2+0x120>
   1e2d4:	fa0708e3          	beq	a4,zero,1e284 <__getf2+0xcc>
   1e2d8:	0068e663          	bltu	a7,t1,1e2e4 <__getf2+0x12c>
   1e2dc:	fc5f70e3          	bgeu	t5,t0,1e29c <__getf2+0xe4>
   1e2e0:	fa071ee3          	bne	a4,zero,1e29c <__getf2+0xe4>
   1e2e4:	00179513          	slli	a0,a5,0x1
   1e2e8:	f91ff06f          	jal	zero,1e278 <__getf2+0xc0>

0001e2ec <__letf2>:
   1e2ec:	00c52783          	lw	a5,12(a0)
   1e2f0:	00c5a683          	lw	a3,12(a1)
   1e2f4:	00008737          	lui	a4,0x8
   1e2f8:	fff70713          	addi	a4,a4,-1 # 7fff <exit-0x80b5>
   1e2fc:	0005a283          	lw	t0,0(a1)
   1e300:	0045a303          	lw	t1,4(a1)
   1e304:	0085a383          	lw	t2,8(a1)
   1e308:	0107d593          	srli	a1,a5,0x10
   1e30c:	01079e13          	slli	t3,a5,0x10
   1e310:	0106d613          	srli	a2,a3,0x10
   1e314:	00e5f5b3          	and	a1,a1,a4
   1e318:	00052f03          	lw	t5,0(a0)
   1e31c:	00452883          	lw	a7,4(a0)
   1e320:	00852f83          	lw	t6,8(a0)
   1e324:	ff010113          	addi	sp,sp,-16
   1e328:	010e5e13          	srli	t3,t3,0x10
   1e32c:	01f7d793          	srli	a5,a5,0x1f
   1e330:	00e67633          	and	a2,a2,a4
   1e334:	01f6de93          	srli	t4,a3,0x1f
   1e338:	00e59c63          	bne	a1,a4,1e350 <__letf2+0x64>
   1e33c:	01e8e733          	or	a4,a7,t5
   1e340:	01f76733          	or	a4,a4,t6
   1e344:	01c76733          	or	a4,a4,t3
   1e348:	00200513          	addi	a0,zero,2
   1e34c:	06071a63          	bne	a4,zero,1e3c0 <__letf2+0xd4>
   1e350:	00008737          	lui	a4,0x8
   1e354:	01069693          	slli	a3,a3,0x10
   1e358:	fff70713          	addi	a4,a4,-1 # 7fff <exit-0x80b5>
   1e35c:	0106d693          	srli	a3,a3,0x10
   1e360:	00060513          	addi	a0,a2,0
   1e364:	00e61a63          	bne	a2,a4,1e378 <__letf2+0x8c>
   1e368:	00536733          	or	a4,t1,t0
   1e36c:	00776733          	or	a4,a4,t2
   1e370:	00d76733          	or	a4,a4,a3
   1e374:	04071a63          	bne	a4,zero,1e3c8 <__letf2+0xdc>
   1e378:	00000713          	addi	a4,zero,0
   1e37c:	00059a63          	bne	a1,zero,1e390 <__letf2+0xa4>
   1e380:	01e8e733          	or	a4,a7,t5
   1e384:	01f76733          	or	a4,a4,t6
   1e388:	01c76733          	or	a4,a4,t3
   1e38c:	00173713          	sltiu	a4,a4,1
   1e390:	04061463          	bne	a2,zero,1e3d8 <__letf2+0xec>
   1e394:	00536833          	or	a6,t1,t0
   1e398:	00786833          	or	a6,a6,t2
   1e39c:	00d86833          	or	a6,a6,a3
   1e3a0:	00070a63          	beq	a4,zero,1e3b4 <__letf2+0xc8>
   1e3a4:	00080e63          	beq	a6,zero,1e3c0 <__letf2+0xd4>
   1e3a8:	001e9513          	slli	a0,t4,0x1
   1e3ac:	fff50513          	addi	a0,a0,-1
   1e3b0:	0100006f          	jal	zero,1e3c0 <__letf2+0xd4>
   1e3b4:	02081463          	bne	a6,zero,1e3dc <__letf2+0xf0>
   1e3b8:	40f00533          	sub	a0,zero,a5
   1e3bc:	00156513          	ori	a0,a0,1
   1e3c0:	01010113          	addi	sp,sp,16
   1e3c4:	00008067          	jalr	zero,0(ra)
   1e3c8:	00200513          	addi	a0,zero,2
   1e3cc:	ff5ff06f          	jal	zero,1e3c0 <__letf2+0xd4>
   1e3d0:	00000513          	addi	a0,zero,0
   1e3d4:	fedff06f          	jal	zero,1e3c0 <__letf2+0xd4>
   1e3d8:	fc0718e3          	bne	a4,zero,1e3a8 <__letf2+0xbc>
   1e3dc:	fcfe9ee3          	bne	t4,a5,1e3b8 <__letf2+0xcc>
   1e3e0:	41d00533          	sub	a0,zero,t4
   1e3e4:	fcb64ce3          	blt	a2,a1,1e3bc <__letf2+0xd0>
   1e3e8:	fcc5c0e3          	blt	a1,a2,1e3a8 <__letf2+0xbc>
   1e3ec:	fdc6e6e3          	bltu	a3,t3,1e3b8 <__letf2+0xcc>
   1e3f0:	02de1463          	bne	t3,a3,1e418 <__letf2+0x12c>
   1e3f4:	fdf3e2e3          	bltu	t2,t6,1e3b8 <__letf2+0xcc>
   1e3f8:	03f39063          	bne	t2,t6,1e418 <__letf2+0x12c>
   1e3fc:	fb136ee3          	bltu	t1,a7,1e3b8 <__letf2+0xcc>
   1e400:	41130733          	sub	a4,t1,a7
   1e404:	01e2f463          	bgeu	t0,t5,1e40c <__letf2+0x120>
   1e408:	fa0708e3          	beq	a4,zero,1e3b8 <__letf2+0xcc>
   1e40c:	0068e663          	bltu	a7,t1,1e418 <__letf2+0x12c>
   1e410:	fc5f70e3          	bgeu	t5,t0,1e3d0 <__letf2+0xe4>
   1e414:	fa071ee3          	bne	a4,zero,1e3d0 <__letf2+0xe4>
   1e418:	00179513          	slli	a0,a5,0x1
   1e41c:	f91ff06f          	jal	zero,1e3ac <__letf2+0xc0>

0001e420 <__multf3>:
   1e420:	f5010113          	addi	sp,sp,-176
   1e424:	09412c23          	sw	s4,152(sp)
   1e428:	00c5aa03          	lw	s4,12(a1)
   1e42c:	0045a783          	lw	a5,4(a1)
   1e430:	0085a683          	lw	a3,8(a1)
   1e434:	00a12423          	sw	a0,8(sp)
   1e438:	0005a503          	lw	a0,0(a1)
   1e43c:	0b212023          	sw	s2,160(sp)
   1e440:	09512a23          	sw	s5,148(sp)
   1e444:	00c62903          	lw	s2,12(a2)
   1e448:	00462a83          	lw	s5,4(a2)
   1e44c:	09612823          	sw	s6,144(sp)
   1e450:	09712623          	sw	s7,140(sp)
   1e454:	00062b03          	lw	s6,0(a2)
   1e458:	00862b83          	lw	s7,8(a2)
   1e45c:	010a1713          	slli	a4,s4,0x10
   1e460:	00008637          	lui	a2,0x8
   1e464:	0a912223          	sw	s1,164(sp)
   1e468:	01075713          	srli	a4,a4,0x10
   1e46c:	010a5493          	srli	s1,s4,0x10
   1e470:	fff60613          	addi	a2,a2,-1 # 7fff <exit-0x80b5>
   1e474:	0a812423          	sw	s0,168(sp)
   1e478:	0a112623          	sw	ra,172(sp)
   1e47c:	09312e23          	sw	s3,156(sp)
   1e480:	09812423          	sw	s8,136(sp)
   1e484:	09912223          	sw	s9,132(sp)
   1e488:	09a12023          	sw	s10,128(sp)
   1e48c:	07b12e23          	sw	s11,124(sp)
   1e490:	04a12823          	sw	a0,80(sp)
   1e494:	04f12a23          	sw	a5,84(sp)
   1e498:	04d12c23          	sw	a3,88(sp)
   1e49c:	05412e23          	sw	s4,92(sp)
   1e4a0:	02a12023          	sw	a0,32(sp)
   1e4a4:	02f12223          	sw	a5,36(sp)
   1e4a8:	02d12423          	sw	a3,40(sp)
   1e4ac:	02e12623          	sw	a4,44(sp)
   1e4b0:	00c4f4b3          	and	s1,s1,a2
   1e4b4:	01fa5413          	srli	s0,s4,0x1f
   1e4b8:	16048ee3          	beq	s1,zero,1ee34 <__multf3+0xa14>
   1e4bc:	28c484e3          	beq	s1,a2,1ef44 <__multf3+0xb24>
   1e4c0:	000107b7          	lui	a5,0x10
   1e4c4:	00f76733          	or	a4,a4,a5
   1e4c8:	02e12623          	sw	a4,44(sp)
   1e4cc:	02010613          	addi	a2,sp,32
   1e4d0:	02c10793          	addi	a5,sp,44
   1e4d4:	0007a703          	lw	a4,0(a5) # 10000 <exit-0xb4>
   1e4d8:	ffc7a683          	lw	a3,-4(a5)
   1e4dc:	ffc78793          	addi	a5,a5,-4
   1e4e0:	00371713          	slli	a4,a4,0x3
   1e4e4:	01d6d693          	srli	a3,a3,0x1d
   1e4e8:	00d76733          	or	a4,a4,a3
   1e4ec:	00e7a223          	sw	a4,4(a5)
   1e4f0:	fef612e3          	bne	a2,a5,1e4d4 <__multf3+0xb4>
   1e4f4:	ffffc7b7          	lui	a5,0xffffc
   1e4f8:	00351513          	slli	a0,a0,0x3
   1e4fc:	00178793          	addi	a5,a5,1 # ffffc001 <__BSS_END__+0xfff475ad>
   1e500:	02a12023          	sw	a0,32(sp)
   1e504:	00f484b3          	add	s1,s1,a5
   1e508:	00000993          	addi	s3,zero,0
   1e50c:	01091513          	slli	a0,s2,0x10
   1e510:	00008737          	lui	a4,0x8
   1e514:	01095793          	srli	a5,s2,0x10
   1e518:	01055513          	srli	a0,a0,0x10
   1e51c:	fff70713          	addi	a4,a4,-1 # 7fff <exit-0x80b5>
   1e520:	05212e23          	sw	s2,92(sp)
   1e524:	05612823          	sw	s6,80(sp)
   1e528:	05512a23          	sw	s5,84(sp)
   1e52c:	05712c23          	sw	s7,88(sp)
   1e530:	03612823          	sw	s6,48(sp)
   1e534:	03512a23          	sw	s5,52(sp)
   1e538:	03712c23          	sw	s7,56(sp)
   1e53c:	02a12e23          	sw	a0,60(sp)
   1e540:	00e7f7b3          	and	a5,a5,a4
   1e544:	01f95913          	srli	s2,s2,0x1f
   1e548:	220782e3          	beq	a5,zero,1ef6c <__multf3+0xb4c>
   1e54c:	32e78ae3          	beq	a5,a4,1f080 <__multf3+0xc60>
   1e550:	00010737          	lui	a4,0x10
   1e554:	00e56533          	or	a0,a0,a4
   1e558:	02a12e23          	sw	a0,60(sp)
   1e55c:	03010593          	addi	a1,sp,48
   1e560:	03c10713          	addi	a4,sp,60
   1e564:	00072683          	lw	a3,0(a4) # 10000 <exit-0xb4>
   1e568:	ffc72603          	lw	a2,-4(a4)
   1e56c:	ffc70713          	addi	a4,a4,-4
   1e570:	00369693          	slli	a3,a3,0x3
   1e574:	01d65613          	srli	a2,a2,0x1d
   1e578:	00c6e6b3          	or	a3,a3,a2
   1e57c:	00d72223          	sw	a3,4(a4)
   1e580:	fee592e3          	bne	a1,a4,1e564 <__multf3+0x144>
   1e584:	ffffc737          	lui	a4,0xffffc
   1e588:	003b1b13          	slli	s6,s6,0x3
   1e58c:	00170713          	addi	a4,a4,1 # ffffc001 <__BSS_END__+0xfff475ad>
   1e590:	03612823          	sw	s6,48(sp)
   1e594:	00e787b3          	add	a5,a5,a4
   1e598:	00000713          	addi	a4,zero,0
   1e59c:	009787b3          	add	a5,a5,s1
   1e5a0:	00f12823          	sw	a5,16(sp)
   1e5a4:	00178793          	addi	a5,a5,1
   1e5a8:	00f12623          	sw	a5,12(sp)
   1e5ac:	00299793          	slli	a5,s3,0x2
   1e5b0:	00e7e7b3          	or	a5,a5,a4
   1e5b4:	00a00693          	addi	a3,zero,10
   1e5b8:	32f6c0e3          	blt	a3,a5,1f0d8 <__multf3+0xcb8>
   1e5bc:	00200613          	addi	a2,zero,2
   1e5c0:	01244433          	xor	s0,s0,s2
   1e5c4:	00100693          	addi	a3,zero,1
   1e5c8:	2cf64ae3          	blt	a2,a5,1f09c <__multf3+0xc7c>
   1e5cc:	fff78793          	addi	a5,a5,-1
   1e5d0:	30f6fee3          	bgeu	a3,a5,1f0ec <__multf3+0xccc>
   1e5d4:	02012803          	lw	a6,32(sp)
   1e5d8:	03012e03          	lw	t3,48(sp)
   1e5dc:	01085993          	srli	s3,a6,0x10
   1e5e0:	010e5693          	srli	a3,t3,0x10
   1e5e4:	01081813          	slli	a6,a6,0x10
   1e5e8:	010e1e13          	slli	t3,t3,0x10
   1e5ec:	01085813          	srli	a6,a6,0x10
   1e5f0:	010e5e13          	srli	t3,t3,0x10
   1e5f4:	030e0633          	mul	a2,t3,a6
   1e5f8:	03c985b3          	mul	a1,s3,t3
   1e5fc:	01065793          	srli	a5,a2,0x10
   1e600:	03068733          	mul	a4,a3,a6
   1e604:	00b70733          	add	a4,a4,a1
   1e608:	00e787b3          	add	a5,a5,a4
   1e60c:	02d98c33          	mul	s8,s3,a3
   1e610:	00b7f663          	bgeu	a5,a1,1e61c <__multf3+0x1fc>
   1e614:	00010737          	lui	a4,0x10
   1e618:	00ec0c33          	add	s8,s8,a4
   1e61c:	03412303          	lw	t1,52(sp)
   1e620:	01061613          	slli	a2,a2,0x10
   1e624:	01065613          	srli	a2,a2,0x10
   1e628:	01035493          	srli	s1,t1,0x10
   1e62c:	0107d713          	srli	a4,a5,0x10
   1e630:	01031313          	slli	t1,t1,0x10
   1e634:	01079793          	slli	a5,a5,0x10
   1e638:	00c787b3          	add	a5,a5,a2
   1e63c:	01035313          	srli	t1,t1,0x10
   1e640:	026985b3          	mul	a1,s3,t1
   1e644:	00f12a23          	sw	a5,20(sp)
   1e648:	04f12823          	sw	a5,80(sp)
   1e64c:	03048633          	mul	a2,s1,a6
   1e650:	030307b3          	mul	a5,t1,a6
   1e654:	00b60633          	add	a2,a2,a1
   1e658:	0107df13          	srli	t5,a5,0x10
   1e65c:	00cf0f33          	add	t5,t5,a2
   1e660:	02998bb3          	mul	s7,s3,s1
   1e664:	00bf7663          	bgeu	t5,a1,1e670 <__multf3+0x250>
   1e668:	00010637          	lui	a2,0x10
   1e66c:	00cb8bb3          	add	s7,s7,a2
   1e670:	02412503          	lw	a0,36(sp)
   1e674:	01079793          	slli	a5,a5,0x10
   1e678:	0107d793          	srli	a5,a5,0x10
   1e67c:	01055913          	srli	s2,a0,0x10
   1e680:	01051513          	slli	a0,a0,0x10
   1e684:	01055513          	srli	a0,a0,0x10
   1e688:	010f5613          	srli	a2,t5,0x10
   1e68c:	010f1f13          	slli	t5,t5,0x10
   1e690:	00ff0f33          	add	t5,t5,a5
   1e694:	03c90fb3          	mul	t6,s2,t3
   1e698:	01e70733          	add	a4,a4,t5
   1e69c:	03c507b3          	mul	a5,a0,t3
   1e6a0:	02a688b3          	mul	a7,a3,a0
   1e6a4:	0107de93          	srli	t4,a5,0x10
   1e6a8:	01f888b3          	add	a7,a7,t6
   1e6ac:	011e8eb3          	add	t4,t4,a7
   1e6b0:	032685b3          	mul	a1,a3,s2
   1e6b4:	01fef663          	bgeu	t4,t6,1e6c0 <__multf3+0x2a0>
   1e6b8:	000108b7          	lui	a7,0x10
   1e6bc:	011585b3          	add	a1,a1,a7
   1e6c0:	010eda93          	srli	s5,t4,0x10
   1e6c4:	00ba8ab3          	add	s5,s5,a1
   1e6c8:	01079793          	slli	a5,a5,0x10
   1e6cc:	0107d793          	srli	a5,a5,0x10
   1e6d0:	010e9e93          	slli	t4,t4,0x10
   1e6d4:	00fe8eb3          	add	t4,t4,a5
   1e6d8:	02a305b3          	mul	a1,t1,a0
   1e6dc:	026908b3          	mul	a7,s2,t1
   1e6e0:	0105d793          	srli	a5,a1,0x10
   1e6e4:	02a482b3          	mul	t0,s1,a0
   1e6e8:	011282b3          	add	t0,t0,a7
   1e6ec:	005787b3          	add	a5,a5,t0
   1e6f0:	03248fb3          	mul	t6,s1,s2
   1e6f4:	0117f663          	bgeu	a5,a7,1e700 <__multf3+0x2e0>
   1e6f8:	000108b7          	lui	a7,0x10
   1e6fc:	011f8fb3          	add	t6,t6,a7
   1e700:	0107d893          	srli	a7,a5,0x10
   1e704:	01f888b3          	add	a7,a7,t6
   1e708:	01112c23          	sw	a7,24(sp)
   1e70c:	03812883          	lw	a7,56(sp)
   1e710:	01059593          	slli	a1,a1,0x10
   1e714:	0105d593          	srli	a1,a1,0x10
   1e718:	0108d293          	srli	t0,a7,0x10
   1e71c:	01079793          	slli	a5,a5,0x10
   1e720:	01089893          	slli	a7,a7,0x10
   1e724:	00b787b3          	add	a5,a5,a1
   1e728:	0108d893          	srli	a7,a7,0x10
   1e72c:	030885b3          	mul	a1,a7,a6
   1e730:	00f12e23          	sw	a5,28(sp)
   1e734:	031983b3          	mul	t2,s3,a7
   1e738:	0105da13          	srli	s4,a1,0x10
   1e73c:	030287b3          	mul	a5,t0,a6
   1e740:	007787b3          	add	a5,a5,t2
   1e744:	00fa07b3          	add	a5,s4,a5
   1e748:	02598fb3          	mul	t6,s3,t0
   1e74c:	0077f663          	bgeu	a5,t2,1e758 <__multf3+0x338>
   1e750:	000103b7          	lui	t2,0x10
   1e754:	007f8fb3          	add	t6,t6,t2
   1e758:	01059593          	slli	a1,a1,0x10
   1e75c:	0107da13          	srli	s4,a5,0x10
   1e760:	0105d593          	srli	a1,a1,0x10
   1e764:	01079793          	slli	a5,a5,0x10
   1e768:	00b787b3          	add	a5,a5,a1
   1e76c:	02812583          	lw	a1,40(sp)
   1e770:	01fa0a33          	add	s4,s4,t6
   1e774:	0105d393          	srli	t2,a1,0x10
   1e778:	01059593          	slli	a1,a1,0x10
   1e77c:	0105d593          	srli	a1,a1,0x10
   1e780:	03c58fb3          	mul	t6,a1,t3
   1e784:	03c38d33          	mul	s10,t2,t3
   1e788:	010fdd93          	srli	s11,t6,0x10
   1e78c:	02b68b33          	mul	s6,a3,a1
   1e790:	01ab0b33          	add	s6,s6,s10
   1e794:	016d8b33          	add	s6,s11,s6
   1e798:	02768cb3          	mul	s9,a3,t2
   1e79c:	01ab7663          	bgeu	s6,s10,1e7a8 <__multf3+0x388>
   1e7a0:	00010d37          	lui	s10,0x10
   1e7a4:	01ac8cb3          	add	s9,s9,s10
   1e7a8:	00ec0733          	add	a4,s8,a4
   1e7ac:	01e73f33          	sltu	t5,a4,t5
   1e7b0:	01e60633          	add	a2,a2,t5
   1e7b4:	01760633          	add	a2,a2,s7
   1e7b8:	01d70eb3          	add	t4,a4,t4
   1e7bc:	01560ab3          	add	s5,a2,s5
   1e7c0:	010f9f93          	slli	t6,t6,0x10
   1e7c4:	00eeb733          	sltu	a4,t4,a4
   1e7c8:	00ea8733          	add	a4,s5,a4
   1e7cc:	010b5d13          	srli	s10,s6,0x10
   1e7d0:	010fdf93          	srli	t6,t6,0x10
   1e7d4:	010b1b13          	slli	s6,s6,0x10
   1e7d8:	01fb0fb3          	add	t6,s6,t6
   1e7dc:	00cabb33          	sltu	s6,s5,a2
   1e7e0:	01573ab3          	sltu	s5,a4,s5
   1e7e4:	01e63633          	sltu	a2,a2,t5
   1e7e8:	01c12f03          	lw	t5,28(sp)
   1e7ec:	015b6b33          	or	s6,s6,s5
   1e7f0:	01812a83          	lw	s5,24(sp)
   1e7f4:	00cb0633          	add	a2,s6,a2
   1e7f8:	01e70f33          	add	t5,a4,t5
   1e7fc:	01560ab3          	add	s5,a2,s5
   1e800:	00ef3733          	sltu	a4,t5,a4
   1e804:	00ea8733          	add	a4,s5,a4
   1e808:	00ff07b3          	add	a5,t5,a5
   1e80c:	01470a33          	add	s4,a4,s4
   1e810:	01e7bf33          	sltu	t5,a5,t5
   1e814:	01ea0f33          	add	t5,s4,t5
   1e818:	00cab633          	sltu	a2,s5,a2
   1e81c:	01573ab3          	sltu	s5,a4,s5
   1e820:	00ea3733          	sltu	a4,s4,a4
   1e824:	014f3a33          	sltu	s4,t5,s4
   1e828:	01476733          	or	a4,a4,s4
   1e82c:	03c12a03          	lw	s4,60(sp)
   1e830:	01566633          	or	a2,a2,s5
   1e834:	00e60633          	add	a2,a2,a4
   1e838:	010a5a93          	srli	s5,s4,0x10
   1e83c:	010a1a13          	slli	s4,s4,0x10
   1e840:	010a5a13          	srli	s4,s4,0x10
   1e844:	030a0733          	mul	a4,s4,a6
   1e848:	01f78fb3          	add	t6,a5,t6
   1e84c:	019d0cb3          	add	s9,s10,s9
   1e850:	019f0cb3          	add	s9,t5,s9
   1e854:	00ffb7b3          	sltu	a5,t6,a5
   1e858:	00fc87b3          	add	a5,s9,a5
   1e85c:	01ecbf33          	sltu	t5,s9,t5
   1e860:	0197bcb3          	sltu	s9,a5,s9
   1e864:	019f6f33          	or	t5,t5,s9
   1e868:	00cf0f33          	add	t5,t5,a2
   1e86c:	03498b33          	mul	s6,s3,s4
   1e870:	01075613          	srli	a2,a4,0x10
   1e874:	05d12a23          	sw	t4,84(sp)
   1e878:	05f12c23          	sw	t6,88(sp)
   1e87c:	030a8833          	mul	a6,s5,a6
   1e880:	01680833          	add	a6,a6,s6
   1e884:	01060633          	add	a2,a2,a6
   1e888:	035989b3          	mul	s3,s3,s5
   1e88c:	01667663          	bgeu	a2,s6,1e898 <__multf3+0x478>
   1e890:	00010837          	lui	a6,0x10
   1e894:	010989b3          	add	s3,s3,a6
   1e898:	02c12b03          	lw	s6,44(sp)
   1e89c:	01065813          	srli	a6,a2,0x10
   1e8a0:	013809b3          	add	s3,a6,s3
   1e8a4:	01071713          	slli	a4,a4,0x10
   1e8a8:	010b5813          	srli	a6,s6,0x10
   1e8ac:	010b1b13          	slli	s6,s6,0x10
   1e8b0:	01075713          	srli	a4,a4,0x10
   1e8b4:	010b5b13          	srli	s6,s6,0x10
   1e8b8:	01061613          	slli	a2,a2,0x10
   1e8bc:	03068bb3          	mul	s7,a3,a6
   1e8c0:	00e60633          	add	a2,a2,a4
   1e8c4:	036686b3          	mul	a3,a3,s6
   1e8c8:	03cb0733          	mul	a4,s6,t3
   1e8cc:	03c80e33          	mul	t3,a6,t3
   1e8d0:	01075c13          	srli	s8,a4,0x10
   1e8d4:	01c686b3          	add	a3,a3,t3
   1e8d8:	00dc06b3          	add	a3,s8,a3
   1e8dc:	01c6f663          	bgeu	a3,t3,1e8e8 <__multf3+0x4c8>
   1e8e0:	00010e37          	lui	t3,0x10
   1e8e4:	01cb8bb3          	add	s7,s7,t3
   1e8e8:	0106de13          	srli	t3,a3,0x10
   1e8ec:	01071713          	slli	a4,a4,0x10
   1e8f0:	017e0e33          	add	t3,t3,s7
   1e8f4:	01069693          	slli	a3,a3,0x10
   1e8f8:	01075713          	srli	a4,a4,0x10
   1e8fc:	00e68db3          	add	s11,a3,a4
   1e900:	01c12c23          	sw	t3,24(sp)
   1e904:	031506b3          	mul	a3,a0,a7
   1e908:	03190e33          	mul	t3,s2,a7
   1e90c:	0106dc13          	srli	s8,a3,0x10
   1e910:	02a28733          	mul	a4,t0,a0
   1e914:	01c70733          	add	a4,a4,t3
   1e918:	00ec0733          	add	a4,s8,a4
   1e91c:	02590bb3          	mul	s7,s2,t0
   1e920:	01c77663          	bgeu	a4,t3,1e92c <__multf3+0x50c>
   1e924:	00010e37          	lui	t3,0x10
   1e928:	01cb8bb3          	add	s7,s7,t3
   1e92c:	01069693          	slli	a3,a3,0x10
   1e930:	01075e13          	srli	t3,a4,0x10
   1e934:	0106d693          	srli	a3,a3,0x10
   1e938:	01071713          	slli	a4,a4,0x10
   1e93c:	017e0e33          	add	t3,t3,s7
   1e940:	00d70733          	add	a4,a4,a3
   1e944:	02638c33          	mul	s8,t2,t1
   1e948:	02b306b3          	mul	a3,t1,a1
   1e94c:	02b48bb3          	mul	s7,s1,a1
   1e950:	0106dd13          	srli	s10,a3,0x10
   1e954:	018b8bb3          	add	s7,s7,s8
   1e958:	017d0bb3          	add	s7,s10,s7
   1e95c:	02748cb3          	mul	s9,s1,t2
   1e960:	018bf663          	bgeu	s7,s8,1e96c <__multf3+0x54c>
   1e964:	00010c37          	lui	s8,0x10
   1e968:	018c8cb3          	add	s9,s9,s8
   1e96c:	010bdc13          	srli	s8,s7,0x10
   1e970:	00c78633          	add	a2,a5,a2
   1e974:	019c0c33          	add	s8,s8,s9
   1e978:	01069693          	slli	a3,a3,0x10
   1e97c:	01812c83          	lw	s9,24(sp)
   1e980:	013f09b3          	add	s3,t5,s3
   1e984:	010b9b93          	slli	s7,s7,0x10
   1e988:	00f637b3          	sltu	a5,a2,a5
   1e98c:	0106d693          	srli	a3,a3,0x10
   1e990:	00f987b3          	add	a5,s3,a5
   1e994:	00db86b3          	add	a3,s7,a3
   1e998:	01b60bb3          	add	s7,a2,s11
   1e99c:	01978cb3          	add	s9,a5,s9
   1e9a0:	00cbb633          	sltu	a2,s7,a2
   1e9a4:	00cc8633          	add	a2,s9,a2
   1e9a8:	00eb8733          	add	a4,s7,a4
   1e9ac:	01c60e33          	add	t3,a2,t3
   1e9b0:	01773bb3          	sltu	s7,a4,s7
   1e9b4:	017e0bb3          	add	s7,t3,s7
   1e9b8:	00d706b3          	add	a3,a4,a3
   1e9bc:	018b8c33          	add	s8,s7,s8
   1e9c0:	01e9bf33          	sltu	t5,s3,t5
   1e9c4:	00e6b733          	sltu	a4,a3,a4
   1e9c8:	0137b9b3          	sltu	s3,a5,s3
   1e9cc:	00fcb7b3          	sltu	a5,s9,a5
   1e9d0:	01963cb3          	sltu	s9,a2,s9
   1e9d4:	013f69b3          	or	s3,t5,s3
   1e9d8:	00ce3633          	sltu	a2,t3,a2
   1e9dc:	0197e7b3          	or	a5,a5,s9
   1e9e0:	01cbbe33          	sltu	t3,s7,t3
   1e9e4:	00ec0733          	add	a4,s8,a4
   1e9e8:	00f987b3          	add	a5,s3,a5
   1e9ec:	01c66633          	or	a2,a2,t3
   1e9f0:	017c3e33          	sltu	t3,s8,s7
   1e9f4:	01873c33          	sltu	s8,a4,s8
   1e9f8:	00f60633          	add	a2,a2,a5
   1e9fc:	018e6e33          	or	t3,t3,s8
   1ea00:	03138f33          	mul	t5,t2,a7
   1ea04:	00ce0e33          	add	t3,t3,a2
   1ea08:	04d12e23          	sw	a3,92(sp)
   1ea0c:	02b88633          	mul	a2,a7,a1
   1ea10:	02b28bb3          	mul	s7,t0,a1
   1ea14:	01065793          	srli	a5,a2,0x10
   1ea18:	01eb8bb3          	add	s7,s7,t5
   1ea1c:	017787b3          	add	a5,a5,s7
   1ea20:	027289b3          	mul	s3,t0,t2
   1ea24:	01e7f663          	bgeu	a5,t5,1ea30 <__multf3+0x610>
   1ea28:	00010f37          	lui	t5,0x10
   1ea2c:	01e989b3          	add	s3,s3,t5
   1ea30:	01061613          	slli	a2,a2,0x10
   1ea34:	0107df13          	srli	t5,a5,0x10
   1ea38:	01065613          	srli	a2,a2,0x10
   1ea3c:	01079793          	slli	a5,a5,0x10
   1ea40:	00c787b3          	add	a5,a5,a2
   1ea44:	013f0f33          	add	t5,t5,s3
   1ea48:	02aa0633          	mul	a2,s4,a0
   1ea4c:	03490bb3          	mul	s7,s2,s4
   1ea50:	01065993          	srli	s3,a2,0x10
   1ea54:	02aa8533          	mul	a0,s5,a0
   1ea58:	01750533          	add	a0,a0,s7
   1ea5c:	00a989b3          	add	s3,s3,a0
   1ea60:	03590933          	mul	s2,s2,s5
   1ea64:	0179f663          	bgeu	s3,s7,1ea70 <__multf3+0x650>
   1ea68:	00010537          	lui	a0,0x10
   1ea6c:	00a90933          	add	s2,s2,a0
   1ea70:	01061613          	slli	a2,a2,0x10
   1ea74:	0109d513          	srli	a0,s3,0x10
   1ea78:	01065613          	srli	a2,a2,0x10
   1ea7c:	01099993          	slli	s3,s3,0x10
   1ea80:	00c989b3          	add	s3,s3,a2
   1ea84:	01250933          	add	s2,a0,s2
   1ea88:	026b0633          	mul	a2,s6,t1
   1ea8c:	03048bb3          	mul	s7,s1,a6
   1ea90:	01065513          	srli	a0,a2,0x10
   1ea94:	02680333          	mul	t1,a6,t1
   1ea98:	036484b3          	mul	s1,s1,s6
   1ea9c:	006484b3          	add	s1,s1,t1
   1eaa0:	00950533          	add	a0,a0,s1
   1eaa4:	00657663          	bgeu	a0,t1,1eab0 <__multf3+0x690>
   1eaa8:	00010337          	lui	t1,0x10
   1eaac:	006b8bb3          	add	s7,s7,t1
   1eab0:	01061613          	slli	a2,a2,0x10
   1eab4:	01055313          	srli	t1,a0,0x10
   1eab8:	01065613          	srli	a2,a2,0x10
   1eabc:	01051513          	slli	a0,a0,0x10
   1eac0:	034384b3          	mul	s1,t2,s4
   1eac4:	00c50533          	add	a0,a0,a2
   1eac8:	01730333          	add	t1,t1,s7
   1eacc:	02ba0633          	mul	a2,s4,a1
   1ead0:	02ba85b3          	mul	a1,s5,a1
   1ead4:	01065b93          	srli	s7,a2,0x10
   1ead8:	009585b3          	add	a1,a1,s1
   1eadc:	00bb85b3          	add	a1,s7,a1
   1eae0:	035383b3          	mul	t2,t2,s5
   1eae4:	0095f663          	bgeu	a1,s1,1eaf0 <__multf3+0x6d0>
   1eae8:	000104b7          	lui	s1,0x10
   1eaec:	009383b3          	add	t2,t2,s1
   1eaf0:	0105d493          	srli	s1,a1,0x10
   1eaf4:	007483b3          	add	t2,s1,t2
   1eaf8:	01061613          	slli	a2,a2,0x10
   1eafc:	01065613          	srli	a2,a2,0x10
   1eb00:	01059593          	slli	a1,a1,0x10
   1eb04:	00c585b3          	add	a1,a1,a2
   1eb08:	031b04b3          	mul	s1,s6,a7
   1eb0c:	03028bb3          	mul	s7,t0,a6
   1eb10:	0104d613          	srli	a2,s1,0x10
   1eb14:	031808b3          	mul	a7,a6,a7
   1eb18:	036282b3          	mul	t0,t0,s6
   1eb1c:	011282b3          	add	t0,t0,a7
   1eb20:	00560633          	add	a2,a2,t0
   1eb24:	01167663          	bgeu	a2,a7,1eb30 <__multf3+0x710>
   1eb28:	000108b7          	lui	a7,0x10
   1eb2c:	011b8bb3          	add	s7,s7,a7
   1eb30:	00f707b3          	add	a5,a4,a5
   1eb34:	01ee0f33          	add	t5,t3,t5
   1eb38:	00e7b733          	sltu	a4,a5,a4
   1eb3c:	00ef0733          	add	a4,t5,a4
   1eb40:	013789b3          	add	s3,a5,s3
   1eb44:	01270933          	add	s2,a4,s2
   1eb48:	00f9b7b3          	sltu	a5,s3,a5
   1eb4c:	00f902b3          	add	t0,s2,a5
   1eb50:	00a987b3          	add	a5,s3,a0
   1eb54:	036a0533          	mul	a0,s4,s6
   1eb58:	00628333          	add	t1,t0,t1
   1eb5c:	06f12023          	sw	a5,96(sp)
   1eb60:	0137b7b3          	sltu	a5,a5,s3
   1eb64:	00f307b3          	add	a5,t1,a5
   1eb68:	01cf3e33          	sltu	t3,t5,t3
   1eb6c:	01e73f33          	sltu	t5,a4,t5
   1eb70:	00e93733          	sltu	a4,s2,a4
   1eb74:	0122b933          	sltu	s2,t0,s2
   1eb78:	01276733          	or	a4,a4,s2
   1eb7c:	03480a33          	mul	s4,a6,s4
   1eb80:	005332b3          	sltu	t0,t1,t0
   1eb84:	01ee6e33          	or	t3,t3,t5
   1eb88:	0067b333          	sltu	t1,a5,t1
   1eb8c:	00ee0e33          	add	t3,t3,a4
   1eb90:	01049493          	slli	s1,s1,0x10
   1eb94:	0062e2b3          	or	t0,t0,t1
   1eb98:	00b785b3          	add	a1,a5,a1
   1eb9c:	01065893          	srli	a7,a2,0x10
   1eba0:	01c282b3          	add	t0,t0,t3
   1eba4:	030a8833          	mul	a6,s5,a6
   1eba8:	01061613          	slli	a2,a2,0x10
   1ebac:	0104d493          	srli	s1,s1,0x10
   1ebb0:	007283b3          	add	t2,t0,t2
   1ebb4:	00960633          	add	a2,a2,s1
   1ebb8:	00f5b7b3          	sltu	a5,a1,a5
   1ebbc:	00f387b3          	add	a5,t2,a5
   1ebc0:	00c58633          	add	a2,a1,a2
   1ebc4:	017888b3          	add	a7,a7,s7
   1ebc8:	011788b3          	add	a7,a5,a7
   1ebcc:	036a8ab3          	mul	s5,s5,s6
   1ebd0:	06c12223          	sw	a2,100(sp)
   1ebd4:	00b63633          	sltu	a2,a2,a1
   1ebd8:	00c88633          	add	a2,a7,a2
   1ebdc:	01055713          	srli	a4,a0,0x10
   1ebe0:	0053b2b3          	sltu	t0,t2,t0
   1ebe4:	0077b3b3          	sltu	t2,a5,t2
   1ebe8:	00f8b7b3          	sltu	a5,a7,a5
   1ebec:	011638b3          	sltu	a7,a2,a7
   1ebf0:	0072e2b3          	or	t0,t0,t2
   1ebf4:	014a8ab3          	add	s5,s5,s4
   1ebf8:	01570733          	add	a4,a4,s5
   1ebfc:	0117e7b3          	or	a5,a5,a7
   1ec00:	01477663          	bgeu	a4,s4,1ec0c <__multf3+0x7ec>
   1ec04:	000105b7          	lui	a1,0x10
   1ec08:	00b80833          	add	a6,a6,a1
   1ec0c:	01051513          	slli	a0,a0,0x10
   1ec10:	01075593          	srli	a1,a4,0x10
   1ec14:	01055513          	srli	a0,a0,0x10
   1ec18:	01071713          	slli	a4,a4,0x10
   1ec1c:	00a70733          	add	a4,a4,a0
   1ec20:	005585b3          	add	a1,a1,t0
   1ec24:	00e60733          	add	a4,a2,a4
   1ec28:	00f587b3          	add	a5,a1,a5
   1ec2c:	00c73633          	sltu	a2,a4,a2
   1ec30:	00f60633          	add	a2,a2,a5
   1ec34:	01412783          	lw	a5,20(sp)
   1ec38:	01060633          	add	a2,a2,a6
   1ec3c:	00d69693          	slli	a3,a3,0xd
   1ec40:	01d7e7b3          	or	a5,a5,t4
   1ec44:	00ffefb3          	or	t6,t6,a5
   1ec48:	06c12623          	sw	a2,108(sp)
   1ec4c:	06e12423          	sw	a4,104(sp)
   1ec50:	01f6e6b3          	or	a3,a3,t6
   1ec54:	05010793          	addi	a5,sp,80
   1ec58:	06010593          	addi	a1,sp,96
   1ec5c:	00c7a703          	lw	a4,12(a5)
   1ec60:	0107a603          	lw	a2,16(a5)
   1ec64:	00478793          	addi	a5,a5,4
   1ec68:	01375713          	srli	a4,a4,0x13
   1ec6c:	00d61613          	slli	a2,a2,0xd
   1ec70:	00c76733          	or	a4,a4,a2
   1ec74:	fee7ae23          	sw	a4,-4(a5)
   1ec78:	fef592e3          	bne	a1,a5,1ec5c <__multf3+0x83c>
   1ec7c:	05012783          	lw	a5,80(sp)
   1ec80:	00d036b3          	sltu	a3,zero,a3
   1ec84:	05c12703          	lw	a4,92(sp)
   1ec88:	00f6e6b3          	or	a3,a3,a5
   1ec8c:	05812783          	lw	a5,88(sp)
   1ec90:	04e12623          	sw	a4,76(sp)
   1ec94:	04d12023          	sw	a3,64(sp)
   1ec98:	04f12423          	sw	a5,72(sp)
   1ec9c:	05412783          	lw	a5,84(sp)
   1eca0:	04f12223          	sw	a5,68(sp)
   1eca4:	00b71793          	slli	a5,a4,0xb
   1eca8:	4a07da63          	bge	a5,zero,1f15c <__multf3+0xd3c>
   1ecac:	01f69693          	slli	a3,a3,0x1f
   1ecb0:	04010793          	addi	a5,sp,64
   1ecb4:	04c10513          	addi	a0,sp,76
   1ecb8:	0007a603          	lw	a2,0(a5)
   1ecbc:	0047a583          	lw	a1,4(a5)
   1ecc0:	00478793          	addi	a5,a5,4
   1ecc4:	00165613          	srli	a2,a2,0x1
   1ecc8:	01f59593          	slli	a1,a1,0x1f
   1eccc:	00b66633          	or	a2,a2,a1
   1ecd0:	fec7ae23          	sw	a2,-4(a5)
   1ecd4:	fef512e3          	bne	a0,a5,1ecb8 <__multf3+0x898>
   1ecd8:	04012783          	lw	a5,64(sp)
   1ecdc:	01f6d693          	srli	a3,a3,0x1f
   1ece0:	00175713          	srli	a4,a4,0x1
   1ece4:	00d7e7b3          	or	a5,a5,a3
   1ece8:	04e12623          	sw	a4,76(sp)
   1ecec:	04f12023          	sw	a5,64(sp)
   1ecf0:	00c12703          	lw	a4,12(sp)
   1ecf4:	000047b7          	lui	a5,0x4
   1ecf8:	fff78793          	addi	a5,a5,-1 # 3fff <exit-0xc0b5>
   1ecfc:	00f707b3          	add	a5,a4,a5
   1ed00:	46f05463          	bge	zero,a5,1f168 <__multf3+0xd48>
   1ed04:	04012703          	lw	a4,64(sp)
   1ed08:	00777693          	andi	a3,a4,7
   1ed0c:	04068663          	beq	a3,zero,1ed58 <__multf3+0x938>
   1ed10:	00f77693          	andi	a3,a4,15
   1ed14:	00400613          	addi	a2,zero,4
   1ed18:	04c68063          	beq	a3,a2,1ed58 <__multf3+0x938>
   1ed1c:	00c706b3          	add	a3,a4,a2
   1ed20:	ffc73713          	sltiu	a4,a4,-4
   1ed24:	04d12023          	sw	a3,64(sp)
   1ed28:	00173693          	sltiu	a3,a4,1
   1ed2c:	04412703          	lw	a4,68(sp)
   1ed30:	00e68733          	add	a4,a3,a4
   1ed34:	04e12223          	sw	a4,68(sp)
   1ed38:	00d73733          	sltu	a4,a4,a3
   1ed3c:	04812683          	lw	a3,72(sp)
   1ed40:	00e68733          	add	a4,a3,a4
   1ed44:	04e12423          	sw	a4,72(sp)
   1ed48:	00d73733          	sltu	a4,a4,a3
   1ed4c:	04c12683          	lw	a3,76(sp)
   1ed50:	00d70733          	add	a4,a4,a3
   1ed54:	04e12623          	sw	a4,76(sp)
   1ed58:	04c12703          	lw	a4,76(sp)
   1ed5c:	00b71693          	slli	a3,a4,0xb
   1ed60:	0206d063          	bge	a3,zero,1ed80 <__multf3+0x960>
   1ed64:	00c12683          	lw	a3,12(sp)
   1ed68:	fff007b7          	lui	a5,0xfff00
   1ed6c:	fff78793          	addi	a5,a5,-1 # ffefffff <__BSS_END__+0xffe4b5ab>
   1ed70:	00f77733          	and	a4,a4,a5
   1ed74:	000047b7          	lui	a5,0x4
   1ed78:	04e12623          	sw	a4,76(sp)
   1ed7c:	00f687b3          	add	a5,a3,a5
   1ed80:	04010693          	addi	a3,sp,64
   1ed84:	04c10513          	addi	a0,sp,76
   1ed88:	0006a603          	lw	a2,0(a3)
   1ed8c:	0046a583          	lw	a1,4(a3)
   1ed90:	00468693          	addi	a3,a3,4
   1ed94:	00365613          	srli	a2,a2,0x3
   1ed98:	01d59593          	slli	a1,a1,0x1d
   1ed9c:	00b66633          	or	a2,a2,a1
   1eda0:	fec6ae23          	sw	a2,-4(a3)
   1eda4:	fed512e3          	bne	a0,a3,1ed88 <__multf3+0x968>
   1eda8:	000086b7          	lui	a3,0x8
   1edac:	ffe68693          	addi	a3,a3,-2 # 7ffe <exit-0x80b6>
   1edb0:	58f6ca63          	blt	a3,a5,1f344 <__multf3+0xf24>
   1edb4:	00375713          	srli	a4,a4,0x3
   1edb8:	04e12623          	sw	a4,76(sp)
   1edbc:	04c12703          	lw	a4,76(sp)
   1edc0:	0ac12083          	lw	ra,172(sp)
   1edc4:	0a412483          	lw	s1,164(sp)
   1edc8:	04e11e23          	sh	a4,92(sp)
   1edcc:	00f41713          	slli	a4,s0,0xf
   1edd0:	00f767b3          	or	a5,a4,a5
   1edd4:	04f11f23          	sh	a5,94(sp)
   1edd8:	00812703          	lw	a4,8(sp)
   1eddc:	04012783          	lw	a5,64(sp)
   1ede0:	0a812403          	lw	s0,168(sp)
   1ede4:	0a012903          	lw	s2,160(sp)
   1ede8:	00f72023          	sw	a5,0(a4) # 10000 <exit-0xb4>
   1edec:	04412783          	lw	a5,68(sp)
   1edf0:	09c12983          	lw	s3,156(sp)
   1edf4:	09812a03          	lw	s4,152(sp)
   1edf8:	00f72223          	sw	a5,4(a4)
   1edfc:	04812783          	lw	a5,72(sp)
   1ee00:	09412a83          	lw	s5,148(sp)
   1ee04:	09012b03          	lw	s6,144(sp)
   1ee08:	00f72423          	sw	a5,8(a4)
   1ee0c:	05c12783          	lw	a5,92(sp)
   1ee10:	08c12b83          	lw	s7,140(sp)
   1ee14:	08812c03          	lw	s8,136(sp)
   1ee18:	00f72623          	sw	a5,12(a4)
   1ee1c:	08412c83          	lw	s9,132(sp)
   1ee20:	08012d03          	lw	s10,128(sp)
   1ee24:	07c12d83          	lw	s11,124(sp)
   1ee28:	00070513          	addi	a0,a4,0
   1ee2c:	0b010113          	addi	sp,sp,176
   1ee30:	00008067          	jalr	zero,0(ra)
   1ee34:	00a7e633          	or	a2,a5,a0
   1ee38:	00d66633          	or	a2,a2,a3
   1ee3c:	00e66633          	or	a2,a2,a4
   1ee40:	12060063          	beq	a2,zero,1ef60 <__multf3+0xb40>
   1ee44:	04070863          	beq	a4,zero,1ee94 <__multf3+0xa74>
   1ee48:	00070513          	addi	a0,a4,0
   1ee4c:	4f1010ef          	jal	ra,20b3c <__clzsi2>
   1ee50:	ff450693          	addi	a3,a0,-12 # fff4 <exit-0xc0>
   1ee54:	4056d713          	srai	a4,a3,0x5
   1ee58:	01f6f693          	andi	a3,a3,31
   1ee5c:	02c10793          	addi	a5,sp,44
   1ee60:	06068463          	beq	a3,zero,1eec8 <__multf3+0xaa8>
   1ee64:	02000893          	addi	a7,zero,32
   1ee68:	00271813          	slli	a6,a4,0x2
   1ee6c:	40d888b3          	sub	a7,a7,a3
   1ee70:	02010593          	addi	a1,sp,32
   1ee74:	410787b3          	sub	a5,a5,a6
   1ee78:	08f59a63          	bne	a1,a5,1ef0c <__multf3+0xaec>
   1ee7c:	fff70793          	addi	a5,a4,-1
   1ee80:	02012703          	lw	a4,32(sp)
   1ee84:	010585b3          	add	a1,a1,a6
   1ee88:	00d71733          	sll	a4,a4,a3
   1ee8c:	00e5a023          	sw	a4,0(a1) # 10000 <exit-0xb4>
   1ee90:	0600006f          	jal	zero,1eef0 <__multf3+0xad0>
   1ee94:	00068a63          	beq	a3,zero,1eea8 <__multf3+0xa88>
   1ee98:	00068513          	addi	a0,a3,0
   1ee9c:	4a1010ef          	jal	ra,20b3c <__clzsi2>
   1eea0:	02050513          	addi	a0,a0,32
   1eea4:	fadff06f          	jal	zero,1ee50 <__multf3+0xa30>
   1eea8:	00078a63          	beq	a5,zero,1eebc <__multf3+0xa9c>
   1eeac:	00078513          	addi	a0,a5,0 # 4000 <exit-0xc0b4>
   1eeb0:	48d010ef          	jal	ra,20b3c <__clzsi2>
   1eeb4:	04050513          	addi	a0,a0,64
   1eeb8:	f99ff06f          	jal	zero,1ee50 <__multf3+0xa30>
   1eebc:	481010ef          	jal	ra,20b3c <__clzsi2>
   1eec0:	06050513          	addi	a0,a0,96
   1eec4:	f8dff06f          	jal	zero,1ee50 <__multf3+0xa30>
   1eec8:	ffc00613          	addi	a2,zero,-4
   1eecc:	02c70633          	mul	a2,a4,a2
   1eed0:	00300693          	addi	a3,zero,3
   1eed4:	00c785b3          	add	a1,a5,a2
   1eed8:	0005a583          	lw	a1,0(a1)
   1eedc:	fff68693          	addi	a3,a3,-1
   1eee0:	ffc78793          	addi	a5,a5,-4
   1eee4:	00b7a223          	sw	a1,4(a5)
   1eee8:	fee6d6e3          	bge	a3,a4,1eed4 <__multf3+0xab4>
   1eeec:	fff70793          	addi	a5,a4,-1
   1eef0:	fff00693          	addi	a3,zero,-1
   1eef4:	02010613          	addi	a2,sp,32
   1eef8:	02d79c63          	bne	a5,a3,1ef30 <__multf3+0xb10>
   1eefc:	ffffc4b7          	lui	s1,0xffffc
   1ef00:	01148493          	addi	s1,s1,17 # ffffc011 <__BSS_END__+0xfff475bd>
   1ef04:	40a484b3          	sub	s1,s1,a0
   1ef08:	e00ff06f          	jal	zero,1e508 <__multf3+0xe8>
   1ef0c:	0007a603          	lw	a2,0(a5)
   1ef10:	ffc7a303          	lw	t1,-4(a5)
   1ef14:	01078e33          	add	t3,a5,a6
   1ef18:	00d61633          	sll	a2,a2,a3
   1ef1c:	01135333          	srl	t1,t1,a7
   1ef20:	00666633          	or	a2,a2,t1
   1ef24:	00ce2023          	sw	a2,0(t3) # 10000 <exit-0xb4>
   1ef28:	ffc78793          	addi	a5,a5,-4
   1ef2c:	f4dff06f          	jal	zero,1ee78 <__multf3+0xa58>
   1ef30:	00279713          	slli	a4,a5,0x2
   1ef34:	00e60733          	add	a4,a2,a4
   1ef38:	00072023          	sw	zero,0(a4)
   1ef3c:	fff78793          	addi	a5,a5,-1
   1ef40:	fb9ff06f          	jal	zero,1eef8 <__multf3+0xad8>
   1ef44:	00a7e7b3          	or	a5,a5,a0
   1ef48:	00d7e7b3          	or	a5,a5,a3
   1ef4c:	00e7e7b3          	or	a5,a5,a4
   1ef50:	00200993          	addi	s3,zero,2
   1ef54:	da078c63          	beq	a5,zero,1e50c <__multf3+0xec>
   1ef58:	00300993          	addi	s3,zero,3
   1ef5c:	db0ff06f          	jal	zero,1e50c <__multf3+0xec>
   1ef60:	00000493          	addi	s1,zero,0
   1ef64:	00100993          	addi	s3,zero,1
   1ef68:	da4ff06f          	jal	zero,1e50c <__multf3+0xec>
   1ef6c:	016ae7b3          	or	a5,s5,s6
   1ef70:	0177e7b3          	or	a5,a5,s7
   1ef74:	00a7e7b3          	or	a5,a5,a0
   1ef78:	00100713          	addi	a4,zero,1
   1ef7c:	e2078063          	beq	a5,zero,1e59c <__multf3+0x17c>
   1ef80:	04050663          	beq	a0,zero,1efcc <__multf3+0xbac>
   1ef84:	3b9010ef          	jal	ra,20b3c <__clzsi2>
   1ef88:	ff450693          	addi	a3,a0,-12
   1ef8c:	4056d713          	srai	a4,a3,0x5
   1ef90:	01f6f693          	andi	a3,a3,31
   1ef94:	03c10793          	addi	a5,sp,60
   1ef98:	06068663          	beq	a3,zero,1f004 <__multf3+0xbe4>
   1ef9c:	02000893          	addi	a7,zero,32
   1efa0:	00271813          	slli	a6,a4,0x2
   1efa4:	40d888b3          	sub	a7,a7,a3
   1efa8:	03010593          	addi	a1,sp,48
   1efac:	410787b3          	sub	a5,a5,a6
   1efb0:	08f59c63          	bne	a1,a5,1f048 <__multf3+0xc28>
   1efb4:	fff70793          	addi	a5,a4,-1
   1efb8:	03012703          	lw	a4,48(sp)
   1efbc:	010585b3          	add	a1,a1,a6
   1efc0:	00d71733          	sll	a4,a4,a3
   1efc4:	00e5a023          	sw	a4,0(a1)
   1efc8:	0640006f          	jal	zero,1f02c <__multf3+0xc0c>
   1efcc:	000b8a63          	beq	s7,zero,1efe0 <__multf3+0xbc0>
   1efd0:	000b8513          	addi	a0,s7,0
   1efd4:	369010ef          	jal	ra,20b3c <__clzsi2>
   1efd8:	02050513          	addi	a0,a0,32
   1efdc:	fadff06f          	jal	zero,1ef88 <__multf3+0xb68>
   1efe0:	000a8a63          	beq	s5,zero,1eff4 <__multf3+0xbd4>
   1efe4:	000a8513          	addi	a0,s5,0
   1efe8:	355010ef          	jal	ra,20b3c <__clzsi2>
   1efec:	04050513          	addi	a0,a0,64
   1eff0:	f99ff06f          	jal	zero,1ef88 <__multf3+0xb68>
   1eff4:	000b0513          	addi	a0,s6,0
   1eff8:	345010ef          	jal	ra,20b3c <__clzsi2>
   1effc:	06050513          	addi	a0,a0,96
   1f000:	f89ff06f          	jal	zero,1ef88 <__multf3+0xb68>
   1f004:	ffc00613          	addi	a2,zero,-4
   1f008:	02c70633          	mul	a2,a4,a2
   1f00c:	00300693          	addi	a3,zero,3
   1f010:	00c785b3          	add	a1,a5,a2
   1f014:	0005a583          	lw	a1,0(a1)
   1f018:	fff68693          	addi	a3,a3,-1
   1f01c:	ffc78793          	addi	a5,a5,-4
   1f020:	00b7a223          	sw	a1,4(a5)
   1f024:	fee6d6e3          	bge	a3,a4,1f010 <__multf3+0xbf0>
   1f028:	fff70793          	addi	a5,a4,-1
   1f02c:	fff00693          	addi	a3,zero,-1
   1f030:	03010613          	addi	a2,sp,48
   1f034:	02d79c63          	bne	a5,a3,1f06c <__multf3+0xc4c>
   1f038:	ffffc7b7          	lui	a5,0xffffc
   1f03c:	01178793          	addi	a5,a5,17 # ffffc011 <__BSS_END__+0xfff475bd>
   1f040:	40a787b3          	sub	a5,a5,a0
   1f044:	d54ff06f          	jal	zero,1e598 <__multf3+0x178>
   1f048:	0007a603          	lw	a2,0(a5)
   1f04c:	ffc7a303          	lw	t1,-4(a5)
   1f050:	01078e33          	add	t3,a5,a6
   1f054:	00d61633          	sll	a2,a2,a3
   1f058:	01135333          	srl	t1,t1,a7
   1f05c:	00666633          	or	a2,a2,t1
   1f060:	00ce2023          	sw	a2,0(t3)
   1f064:	ffc78793          	addi	a5,a5,-4
   1f068:	f49ff06f          	jal	zero,1efb0 <__multf3+0xb90>
   1f06c:	00279713          	slli	a4,a5,0x2
   1f070:	00e60733          	add	a4,a2,a4
   1f074:	00072023          	sw	zero,0(a4)
   1f078:	fff78793          	addi	a5,a5,-1
   1f07c:	fb9ff06f          	jal	zero,1f034 <__multf3+0xc14>
   1f080:	016aeab3          	or	s5,s5,s6
   1f084:	017aeab3          	or	s5,s5,s7
   1f088:	00aaeab3          	or	s5,s5,a0
   1f08c:	00200713          	addi	a4,zero,2
   1f090:	d00a8663          	beq	s5,zero,1e59c <__multf3+0x17c>
   1f094:	00300713          	addi	a4,zero,3
   1f098:	d04ff06f          	jal	zero,1e59c <__multf3+0x17c>
   1f09c:	00f697b3          	sll	a5,a3,a5
   1f0a0:	5307f693          	andi	a3,a5,1328
   1f0a4:	06069463          	bne	a3,zero,1f10c <__multf3+0xcec>
   1f0a8:	0887f693          	andi	a3,a5,136
   1f0ac:	02069e63          	bne	a3,zero,1f0e8 <__multf3+0xcc8>
   1f0b0:	2407f793          	andi	a5,a5,576
   1f0b4:	d2078063          	beq	a5,zero,1e5d4 <__multf3+0x1b4>
   1f0b8:	000087b7          	lui	a5,0x8
   1f0bc:	04f12623          	sw	a5,76(sp)
   1f0c0:	04012423          	sw	zero,72(sp)
   1f0c4:	04012223          	sw	zero,68(sp)
   1f0c8:	04012023          	sw	zero,64(sp)
   1f0cc:	fff78793          	addi	a5,a5,-1 # 7fff <exit-0x80b5>
   1f0d0:	00000413          	addi	s0,zero,0
   1f0d4:	ce9ff06f          	jal	zero,1edbc <__multf3+0x99c>
   1f0d8:	00f00693          	addi	a3,zero,15
   1f0dc:	fcd78ee3          	beq	a5,a3,1f0b8 <__multf3+0xc98>
   1f0e0:	00b00693          	addi	a3,zero,11
   1f0e4:	02d79463          	bne	a5,a3,1f10c <__multf3+0xcec>
   1f0e8:	00090413          	addi	s0,s2,0
   1f0ec:	03012783          	lw	a5,48(sp)
   1f0f0:	04f12023          	sw	a5,64(sp)
   1f0f4:	03412783          	lw	a5,52(sp)
   1f0f8:	04f12223          	sw	a5,68(sp)
   1f0fc:	03812783          	lw	a5,56(sp)
   1f100:	04f12423          	sw	a5,72(sp)
   1f104:	03c12783          	lw	a5,60(sp)
   1f108:	0240006f          	jal	zero,1f12c <__multf3+0xd0c>
   1f10c:	02012783          	lw	a5,32(sp)
   1f110:	00098713          	addi	a4,s3,0
   1f114:	04f12023          	sw	a5,64(sp)
   1f118:	02412783          	lw	a5,36(sp)
   1f11c:	04f12223          	sw	a5,68(sp)
   1f120:	02812783          	lw	a5,40(sp)
   1f124:	04f12423          	sw	a5,72(sp)
   1f128:	02c12783          	lw	a5,44(sp)
   1f12c:	04f12623          	sw	a5,76(sp)
   1f130:	00200793          	addi	a5,zero,2
   1f134:	20f70863          	beq	a4,a5,1f344 <__multf3+0xf24>
   1f138:	00300793          	addi	a5,zero,3
   1f13c:	f6f70ee3          	beq	a4,a5,1f0b8 <__multf3+0xc98>
   1f140:	00100793          	addi	a5,zero,1
   1f144:	baf716e3          	bne	a4,a5,1ecf0 <__multf3+0x8d0>
   1f148:	04012623          	sw	zero,76(sp)
   1f14c:	04012423          	sw	zero,72(sp)
   1f150:	04012223          	sw	zero,68(sp)
   1f154:	04012023          	sw	zero,64(sp)
   1f158:	1c00006f          	jal	zero,1f318 <__multf3+0xef8>
   1f15c:	01012783          	lw	a5,16(sp)
   1f160:	00f12623          	sw	a5,12(sp)
   1f164:	b8dff06f          	jal	zero,1ecf0 <__multf3+0x8d0>
   1f168:	06078463          	beq	a5,zero,1f1d0 <__multf3+0xdb0>
   1f16c:	f8d00713          	addi	a4,zero,-115
   1f170:	1ae7c863          	blt	a5,a4,1f320 <__multf3+0xf00>
   1f174:	00100713          	addi	a4,zero,1
   1f178:	40f70733          	sub	a4,a4,a5
   1f17c:	04010513          	addi	a0,sp,64
   1f180:	40575693          	srai	a3,a4,0x5
   1f184:	00050593          	addi	a1,a0,0
   1f188:	01f77713          	andi	a4,a4,31
   1f18c:	00000793          	addi	a5,zero,0
   1f190:	00000613          	addi	a2,zero,0
   1f194:	04d61263          	bne	a2,a3,1f1d8 <__multf3+0xdb8>
   1f198:	00300613          	addi	a2,zero,3
   1f19c:	40d60633          	sub	a2,a2,a3
   1f1a0:	00269e13          	slli	t3,a3,0x2
   1f1a4:	04071463          	bne	a4,zero,1f1ec <__multf3+0xdcc>
   1f1a8:	00050593          	addi	a1,a0,0
   1f1ac:	01c58833          	add	a6,a1,t3
   1f1b0:	00082803          	lw	a6,0(a6) # 10000 <exit-0xb4>
   1f1b4:	00170713          	addi	a4,a4,1
   1f1b8:	00458593          	addi	a1,a1,4
   1f1bc:	ff05ae23          	sw	a6,-4(a1)
   1f1c0:	fee656e3          	bge	a2,a4,1f1ac <__multf3+0xd8c>
   1f1c4:	00400713          	addi	a4,zero,4
   1f1c8:	40d706b3          	sub	a3,a4,a3
   1f1cc:	05c0006f          	jal	zero,1f228 <__multf3+0xe08>
   1f1d0:	00100713          	addi	a4,zero,1
   1f1d4:	fa9ff06f          	jal	zero,1f17c <__multf3+0xd5c>
   1f1d8:	0005a803          	lw	a6,0(a1)
   1f1dc:	00160613          	addi	a2,a2,1 # 10001 <exit-0xb3>
   1f1e0:	00458593          	addi	a1,a1,4
   1f1e4:	0107e7b3          	or	a5,a5,a6
   1f1e8:	fadff06f          	jal	zero,1f194 <__multf3+0xd74>
   1f1ec:	01c505b3          	add	a1,a0,t3
   1f1f0:	0005a803          	lw	a6,0(a1)
   1f1f4:	02000893          	addi	a7,zero,32
   1f1f8:	40e888b3          	sub	a7,a7,a4
   1f1fc:	01181833          	sll	a6,a6,a7
   1f200:	0107e7b3          	or	a5,a5,a6
   1f204:	00000313          	addi	t1,zero,0
   1f208:	02c34463          	blt	t1,a2,1f230 <__multf3+0xe10>
   1f20c:	00400593          	addi	a1,zero,4
   1f210:	40d586b3          	sub	a3,a1,a3
   1f214:	04c12583          	lw	a1,76(sp)
   1f218:	00261613          	slli	a2,a2,0x2
   1f21c:	00c50633          	add	a2,a0,a2
   1f220:	00e5d733          	srl	a4,a1,a4
   1f224:	00e62023          	sw	a4,0(a2)
   1f228:	00400613          	addi	a2,zero,4
   1f22c:	03c0006f          	jal	zero,1f268 <__multf3+0xe48>
   1f230:	0005a803          	lw	a6,0(a1)
   1f234:	0045ae83          	lw	t4,4(a1)
   1f238:	41c58f33          	sub	t5,a1,t3
   1f23c:	00e85833          	srl	a6,a6,a4
   1f240:	011e9eb3          	sll	t4,t4,a7
   1f244:	01d86833          	or	a6,a6,t4
   1f248:	010f2023          	sw	a6,0(t5) # 10000 <exit-0xb4>
   1f24c:	00130313          	addi	t1,t1,1 # 10001 <exit-0xb3>
   1f250:	00458593          	addi	a1,a1,4
   1f254:	fb5ff06f          	jal	zero,1f208 <__multf3+0xde8>
   1f258:	00269713          	slli	a4,a3,0x2
   1f25c:	00e50733          	add	a4,a0,a4
   1f260:	00072023          	sw	zero,0(a4)
   1f264:	00168693          	addi	a3,a3,1
   1f268:	fec698e3          	bne	a3,a2,1f258 <__multf3+0xe38>
   1f26c:	04012703          	lw	a4,64(sp)
   1f270:	00f037b3          	sltu	a5,zero,a5
   1f274:	00e7e7b3          	or	a5,a5,a4
   1f278:	04f12023          	sw	a5,64(sp)
   1f27c:	0077f713          	andi	a4,a5,7
   1f280:	04070463          	beq	a4,zero,1f2c8 <__multf3+0xea8>
   1f284:	00f7f713          	andi	a4,a5,15
   1f288:	04d70063          	beq	a4,a3,1f2c8 <__multf3+0xea8>
   1f28c:	00478713          	addi	a4,a5,4
   1f290:	04e12023          	sw	a4,64(sp)
   1f294:	04412703          	lw	a4,68(sp)
   1f298:	ffc7b793          	sltiu	a5,a5,-4
   1f29c:	0017b793          	sltiu	a5,a5,1
   1f2a0:	00f707b3          	add	a5,a4,a5
   1f2a4:	04f12223          	sw	a5,68(sp)
   1f2a8:	00e7b7b3          	sltu	a5,a5,a4
   1f2ac:	04812703          	lw	a4,72(sp)
   1f2b0:	00f707b3          	add	a5,a4,a5
   1f2b4:	04f12423          	sw	a5,72(sp)
   1f2b8:	00e7b7b3          	sltu	a5,a5,a4
   1f2bc:	04c12703          	lw	a4,76(sp)
   1f2c0:	00e787b3          	add	a5,a5,a4
   1f2c4:	04f12623          	sw	a5,76(sp)
   1f2c8:	04c12703          	lw	a4,76(sp)
   1f2cc:	00c71793          	slli	a5,a4,0xc
   1f2d0:	0007de63          	bge	a5,zero,1f2ec <__multf3+0xecc>
   1f2d4:	04012623          	sw	zero,76(sp)
   1f2d8:	04012423          	sw	zero,72(sp)
   1f2dc:	04012223          	sw	zero,68(sp)
   1f2e0:	04012023          	sw	zero,64(sp)
   1f2e4:	00100793          	addi	a5,zero,1
   1f2e8:	ad5ff06f          	jal	zero,1edbc <__multf3+0x99c>
   1f2ec:	00c50613          	addi	a2,a0,12
   1f2f0:	00052783          	lw	a5,0(a0)
   1f2f4:	00452683          	lw	a3,4(a0)
   1f2f8:	00450513          	addi	a0,a0,4
   1f2fc:	0037d793          	srli	a5,a5,0x3
   1f300:	01d69693          	slli	a3,a3,0x1d
   1f304:	00d7e7b3          	or	a5,a5,a3
   1f308:	fef52e23          	sw	a5,-4(a0)
   1f30c:	fea612e3          	bne	a2,a0,1f2f0 <__multf3+0xed0>
   1f310:	00375713          	srli	a4,a4,0x3
   1f314:	04e12623          	sw	a4,76(sp)
   1f318:	00000793          	addi	a5,zero,0
   1f31c:	aa1ff06f          	jal	zero,1edbc <__multf3+0x99c>
   1f320:	04412703          	lw	a4,68(sp)
   1f324:	04012783          	lw	a5,64(sp)
   1f328:	00e7e7b3          	or	a5,a5,a4
   1f32c:	04812703          	lw	a4,72(sp)
   1f330:	00e7e7b3          	or	a5,a5,a4
   1f334:	04c12703          	lw	a4,76(sp)
   1f338:	00e7e7b3          	or	a5,a5,a4
   1f33c:	fc078ee3          	beq	a5,zero,1f318 <__multf3+0xef8>
   1f340:	e09ff06f          	jal	zero,1f148 <__multf3+0xd28>
   1f344:	000087b7          	lui	a5,0x8
   1f348:	04012623          	sw	zero,76(sp)
   1f34c:	04012423          	sw	zero,72(sp)
   1f350:	04012223          	sw	zero,68(sp)
   1f354:	04012023          	sw	zero,64(sp)
   1f358:	fff78793          	addi	a5,a5,-1 # 7fff <exit-0x80b5>
   1f35c:	a61ff06f          	jal	zero,1edbc <__multf3+0x99c>

0001f360 <__subtf3>:
   1f360:	fa010113          	addi	sp,sp,-96
   1f364:	0085a783          	lw	a5,8(a1)
   1f368:	04812c23          	sw	s0,88(sp)
   1f36c:	00050413          	addi	s0,a0,0
   1f370:	00c5a503          	lw	a0,12(a1)
   1f374:	0045a803          	lw	a6,4(a1)
   1f378:	0005a683          	lw	a3,0(a1)
   1f37c:	02f12c23          	sw	a5,56(sp)
   1f380:	00f12c23          	sw	a5,24(sp)
   1f384:	01051793          	slli	a5,a0,0x10
   1f388:	0107d793          	srli	a5,a5,0x10
   1f38c:	00062703          	lw	a4,0(a2)
   1f390:	00462883          	lw	a7,4(a2)
   1f394:	00862583          	lw	a1,8(a2)
   1f398:	00c62f03          	lw	t5,12(a2)
   1f39c:	02a12e23          	sw	a0,60(sp)
   1f3a0:	00f12e23          	sw	a5,28(sp)
   1f3a4:	00151793          	slli	a5,a0,0x1
   1f3a8:	01f55513          	srli	a0,a0,0x1f
   1f3ac:	04912a23          	sw	s1,84(sp)
   1f3b0:	05212823          	sw	s2,80(sp)
   1f3b4:	03012a23          	sw	a6,52(sp)
   1f3b8:	01012a23          	sw	a6,20(sp)
   1f3bc:	04112e23          	sw	ra,92(sp)
   1f3c0:	05312623          	sw	s3,76(sp)
   1f3c4:	05412423          	sw	s4,72(sp)
   1f3c8:	05512223          	sw	s5,68(sp)
   1f3cc:	02d12823          	sw	a3,48(sp)
   1f3d0:	00d12823          	sw	a3,16(sp)
   1f3d4:	0117d913          	srli	s2,a5,0x11
   1f3d8:	00050493          	addi	s1,a0,0
   1f3dc:	01010293          	addi	t0,sp,16
   1f3e0:	01c10813          	addi	a6,sp,28
   1f3e4:	00082783          	lw	a5,0(a6)
   1f3e8:	ffc82603          	lw	a2,-4(a6)
   1f3ec:	ffc80813          	addi	a6,a6,-4
   1f3f0:	00379793          	slli	a5,a5,0x3
   1f3f4:	01d65613          	srli	a2,a2,0x1d
   1f3f8:	00c7e7b3          	or	a5,a5,a2
   1f3fc:	00f82223          	sw	a5,4(a6)
   1f400:	ff0292e3          	bne	t0,a6,1f3e4 <__subtf3+0x84>
   1f404:	010f1793          	slli	a5,t5,0x10
   1f408:	0107d793          	srli	a5,a5,0x10
   1f40c:	00369693          	slli	a3,a3,0x3
   1f410:	02f12623          	sw	a5,44(sp)
   1f414:	001f1793          	slli	a5,t5,0x1
   1f418:	03e12e23          	sw	t5,60(sp)
   1f41c:	00d12823          	sw	a3,16(sp)
   1f420:	02e12823          	sw	a4,48(sp)
   1f424:	03112a23          	sw	a7,52(sp)
   1f428:	02b12c23          	sw	a1,56(sp)
   1f42c:	02e12023          	sw	a4,32(sp)
   1f430:	03112223          	sw	a7,36(sp)
   1f434:	02b12423          	sw	a1,40(sp)
   1f438:	0117de13          	srli	t3,a5,0x11
   1f43c:	01ff5f13          	srli	t5,t5,0x1f
   1f440:	02010f93          	addi	t6,sp,32
   1f444:	02c10313          	addi	t1,sp,44
   1f448:	00032783          	lw	a5,0(t1)
   1f44c:	ffc32603          	lw	a2,-4(t1)
   1f450:	ffc30313          	addi	t1,t1,-4
   1f454:	00379793          	slli	a5,a5,0x3
   1f458:	01d65613          	srli	a2,a2,0x1d
   1f45c:	00c7e7b3          	or	a5,a5,a2
   1f460:	00f32223          	sw	a5,4(t1)
   1f464:	fe6f92e3          	bne	t6,t1,1f448 <__subtf3+0xe8>
   1f468:	00371713          	slli	a4,a4,0x3
   1f46c:	000087b7          	lui	a5,0x8
   1f470:	02e12023          	sw	a4,32(sp)
   1f474:	fff78793          	addi	a5,a5,-1 # 7fff <exit-0x80b5>
   1f478:	02fe1063          	bne	t3,a5,1f498 <__subtf3+0x138>
   1f47c:	02812603          	lw	a2,40(sp)
   1f480:	02412783          	lw	a5,36(sp)
   1f484:	00c7e7b3          	or	a5,a5,a2
   1f488:	02c12603          	lw	a2,44(sp)
   1f48c:	00c7e7b3          	or	a5,a5,a2
   1f490:	00e7e7b3          	or	a5,a5,a4
   1f494:	00079463          	bne	a5,zero,1f49c <__subtf3+0x13c>
   1f498:	001f4f13          	xori	t5,t5,1
   1f49c:	41c907b3          	sub	a5,s2,t3
   1f4a0:	02af18e3          	bne	t5,a0,1fcd0 <__subtf3+0x970>
   1f4a4:	38f05863          	bge	zero,a5,1f834 <__subtf3+0x4d4>
   1f4a8:	01412803          	lw	a6,20(sp)
   1f4ac:	01812e83          	lw	t4,24(sp)
   1f4b0:	01c12883          	lw	a7,28(sp)
   1f4b4:	0a0e1263          	bne	t3,zero,1f558 <__subtf3+0x1f8>
   1f4b8:	02412503          	lw	a0,36(sp)
   1f4bc:	02812583          	lw	a1,40(sp)
   1f4c0:	02c12e03          	lw	t3,44(sp)
   1f4c4:	00b56633          	or	a2,a0,a1
   1f4c8:	01c66633          	or	a2,a2,t3
   1f4cc:	00e66633          	or	a2,a2,a4
   1f4d0:	00061c63          	bne	a2,zero,1f4e8 <__subtf3+0x188>
   1f4d4:	02d12823          	sw	a3,48(sp)
   1f4d8:	03012a23          	sw	a6,52(sp)
   1f4dc:	03d12c23          	sw	t4,56(sp)
   1f4e0:	03112e23          	sw	a7,60(sp)
   1f4e4:	0940006f          	jal	zero,1f578 <__subtf3+0x218>
   1f4e8:	fff78613          	addi	a2,a5,-1
   1f4ec:	04061863          	bne	a2,zero,1f53c <__subtf3+0x1dc>
   1f4f0:	00e68633          	add	a2,a3,a4
   1f4f4:	01050833          	add	a6,a0,a6
   1f4f8:	00d636b3          	sltu	a3,a2,a3
   1f4fc:	00d806b3          	add	a3,a6,a3
   1f500:	02d12a23          	sw	a3,52(sp)
   1f504:	00a83533          	sltu	a0,a6,a0
   1f508:	0106b6b3          	sltu	a3,a3,a6
   1f50c:	01d58eb3          	add	t4,a1,t4
   1f510:	00d56533          	or	a0,a0,a3
   1f514:	00ae8533          	add	a0,t4,a0
   1f518:	02a12c23          	sw	a0,56(sp)
   1f51c:	00beb733          	sltu	a4,t4,a1
   1f520:	01d53533          	sltu	a0,a0,t4
   1f524:	00a76733          	or	a4,a4,a0
   1f528:	011e0e33          	add	t3,t3,a7
   1f52c:	02c12823          	sw	a2,48(sp)
   1f530:	01c70733          	add	a4,a4,t3
   1f534:	00100793          	addi	a5,zero,1
   1f538:	2ec0006f          	jal	zero,1f824 <__subtf3+0x4c4>
   1f53c:	00008737          	lui	a4,0x8
   1f540:	fff70713          	addi	a4,a4,-1 # 7fff <exit-0x80b5>
   1f544:	00e78463          	beq	a5,a4,1f54c <__subtf3+0x1ec>
   1f548:	0dc0106f          	jal	zero,20624 <__subtf3+0x12c4>
   1f54c:	02d12823          	sw	a3,48(sp)
   1f550:	03012a23          	sw	a6,52(sp)
   1f554:	3840006f          	jal	zero,1f8d8 <__subtf3+0x578>
   1f558:	00008737          	lui	a4,0x8
   1f55c:	fff70713          	addi	a4,a4,-1 # 7fff <exit-0x80b5>
   1f560:	16e91263          	bne	s2,a4,1f6c4 <__subtf3+0x364>
   1f564:	02d12823          	sw	a3,48(sp)
   1f568:	03012a23          	sw	a6,52(sp)
   1f56c:	03d12c23          	sw	t4,56(sp)
   1f570:	03112e23          	sw	a7,60(sp)
   1f574:	00090793          	addi	a5,s2,0
   1f578:	03012703          	lw	a4,48(sp)
   1f57c:	00777693          	andi	a3,a4,7
   1f580:	04068663          	beq	a3,zero,1f5cc <__subtf3+0x26c>
   1f584:	00f77693          	andi	a3,a4,15
   1f588:	00400613          	addi	a2,zero,4
   1f58c:	04c68063          	beq	a3,a2,1f5cc <__subtf3+0x26c>
   1f590:	00c706b3          	add	a3,a4,a2
   1f594:	02d12823          	sw	a3,48(sp)
   1f598:	03412683          	lw	a3,52(sp)
   1f59c:	ffc73713          	sltiu	a4,a4,-4
   1f5a0:	00173713          	sltiu	a4,a4,1
   1f5a4:	00e68733          	add	a4,a3,a4
   1f5a8:	02e12a23          	sw	a4,52(sp)
   1f5ac:	00d73733          	sltu	a4,a4,a3
   1f5b0:	03812683          	lw	a3,56(sp)
   1f5b4:	00e68733          	add	a4,a3,a4
   1f5b8:	02e12c23          	sw	a4,56(sp)
   1f5bc:	00d73733          	sltu	a4,a4,a3
   1f5c0:	03c12683          	lw	a3,60(sp)
   1f5c4:	00d70733          	add	a4,a4,a3
   1f5c8:	02e12e23          	sw	a4,60(sp)
   1f5cc:	03c12703          	lw	a4,60(sp)
   1f5d0:	00c71693          	slli	a3,a4,0xc
   1f5d4:	0206d463          	bge	a3,zero,1f5fc <__subtf3+0x29c>
   1f5d8:	000086b7          	lui	a3,0x8
   1f5dc:	00178793          	addi	a5,a5,1
   1f5e0:	fff68693          	addi	a3,a3,-1 # 7fff <exit-0x80b5>
   1f5e4:	00d79463          	bne	a5,a3,1f5ec <__subtf3+0x28c>
   1f5e8:	0240106f          	jal	zero,2060c <__subtf3+0x12ac>
   1f5ec:	fff806b7          	lui	a3,0xfff80
   1f5f0:	fff68693          	addi	a3,a3,-1 # fff7ffff <__BSS_END__+0xffecb5ab>
   1f5f4:	00d77733          	and	a4,a4,a3
   1f5f8:	02e12e23          	sw	a4,60(sp)
   1f5fc:	03010693          	addi	a3,sp,48
   1f600:	03c10513          	addi	a0,sp,60
   1f604:	0006a603          	lw	a2,0(a3)
   1f608:	0046a583          	lw	a1,4(a3)
   1f60c:	00468693          	addi	a3,a3,4
   1f610:	00365613          	srli	a2,a2,0x3
   1f614:	01d59593          	slli	a1,a1,0x1d
   1f618:	00b66633          	or	a2,a2,a1
   1f61c:	fec6ae23          	sw	a2,-4(a3)
   1f620:	fed512e3          	bne	a0,a3,1f604 <__subtf3+0x2a4>
   1f624:	00008637          	lui	a2,0x8
   1f628:	fff60693          	addi	a3,a2,-1 # 7fff <exit-0x80b5>
   1f62c:	00375713          	srli	a4,a4,0x3
   1f630:	02d79a63          	bne	a5,a3,1f664 <__subtf3+0x304>
   1f634:	03412583          	lw	a1,52(sp)
   1f638:	03012683          	lw	a3,48(sp)
   1f63c:	00b6e6b3          	or	a3,a3,a1
   1f640:	03812583          	lw	a1,56(sp)
   1f644:	00b6e6b3          	or	a3,a3,a1
   1f648:	00d76733          	or	a4,a4,a3
   1f64c:	00070c63          	beq	a4,zero,1f664 <__subtf3+0x304>
   1f650:	02012c23          	sw	zero,56(sp)
   1f654:	02012a23          	sw	zero,52(sp)
   1f658:	02012823          	sw	zero,48(sp)
   1f65c:	00060713          	addi	a4,a2,0
   1f660:	00000493          	addi	s1,zero,0
   1f664:	01179793          	slli	a5,a5,0x11
   1f668:	0117d793          	srli	a5,a5,0x11
   1f66c:	00f49493          	slli	s1,s1,0xf
   1f670:	00f4e4b3          	or	s1,s1,a5
   1f674:	03012783          	lw	a5,48(sp)
   1f678:	00911723          	sh	s1,14(sp)
   1f67c:	00e11623          	sh	a4,12(sp)
   1f680:	00f42023          	sw	a5,0(s0)
   1f684:	03412783          	lw	a5,52(sp)
   1f688:	05c12083          	lw	ra,92(sp)
   1f68c:	00040513          	addi	a0,s0,0
   1f690:	00f42223          	sw	a5,4(s0)
   1f694:	03812783          	lw	a5,56(sp)
   1f698:	05412483          	lw	s1,84(sp)
   1f69c:	05012903          	lw	s2,80(sp)
   1f6a0:	00f42423          	sw	a5,8(s0)
   1f6a4:	00c12783          	lw	a5,12(sp)
   1f6a8:	04c12983          	lw	s3,76(sp)
   1f6ac:	04812a03          	lw	s4,72(sp)
   1f6b0:	00f42623          	sw	a5,12(s0)
   1f6b4:	05812403          	lw	s0,88(sp)
   1f6b8:	04412a83          	lw	s5,68(sp)
   1f6bc:	06010113          	addi	sp,sp,96
   1f6c0:	00008067          	jalr	zero,0(ra)
   1f6c4:	02c12703          	lw	a4,44(sp)
   1f6c8:	00080637          	lui	a2,0x80
   1f6cc:	00c76733          	or	a4,a4,a2
   1f6d0:	02e12623          	sw	a4,44(sp)
   1f6d4:	07400713          	addi	a4,zero,116
   1f6d8:	74f74ae3          	blt	a4,a5,2062c <__subtf3+0x12cc>
   1f6dc:	00078613          	addi	a2,a5,0
   1f6e0:	40565793          	srai	a5,a2,0x5
   1f6e4:	01f67e13          	andi	t3,a2,31
   1f6e8:	00030593          	addi	a1,t1,0
   1f6ec:	00000613          	addi	a2,zero,0
   1f6f0:	00000713          	addi	a4,zero,0
   1f6f4:	02f71c63          	bne	a4,a5,1f72c <__subtf3+0x3cc>
   1f6f8:	00300713          	addi	a4,zero,3
   1f6fc:	40f70733          	sub	a4,a4,a5
   1f700:	00279393          	slli	t2,a5,0x2
   1f704:	020e1e63          	bne	t3,zero,1f740 <__subtf3+0x3e0>
   1f708:	007305b3          	add	a1,t1,t2
   1f70c:	0005a583          	lw	a1,0(a1)
   1f710:	001e0e13          	addi	t3,t3,1
   1f714:	00430313          	addi	t1,t1,4
   1f718:	feb32e23          	sw	a1,-4(t1)
   1f71c:	ffc756e3          	bge	a4,t3,1f708 <__subtf3+0x3a8>
   1f720:	00400713          	addi	a4,zero,4
   1f724:	40f707b3          	sub	a5,a4,a5
   1f728:	0580006f          	jal	zero,1f780 <__subtf3+0x420>
   1f72c:	0005a503          	lw	a0,0(a1)
   1f730:	00170713          	addi	a4,a4,1
   1f734:	00458593          	addi	a1,a1,4
   1f738:	00a66633          	or	a2,a2,a0
   1f73c:	fb9ff06f          	jal	zero,1f6f4 <__subtf3+0x394>
   1f740:	007f85b3          	add	a1,t6,t2
   1f744:	0005a583          	lw	a1,0(a1)
   1f748:	02000513          	addi	a0,zero,32
   1f74c:	41c50533          	sub	a0,a0,t3
   1f750:	00a595b3          	sll	a1,a1,a0
   1f754:	00b66633          	or	a2,a2,a1
   1f758:	00730333          	add	t1,t1,t2
   1f75c:	00000f13          	addi	t5,zero,0
   1f760:	02ef4463          	blt	t5,a4,1f788 <__subtf3+0x428>
   1f764:	00400593          	addi	a1,zero,4
   1f768:	40f587b3          	sub	a5,a1,a5
   1f76c:	02c12583          	lw	a1,44(sp)
   1f770:	00271713          	slli	a4,a4,0x2
   1f774:	00ef8733          	add	a4,t6,a4
   1f778:	01c5d5b3          	srl	a1,a1,t3
   1f77c:	00b72023          	sw	a1,0(a4)
   1f780:	00400593          	addi	a1,zero,4
   1f784:	03c0006f          	jal	zero,1f7c0 <__subtf3+0x460>
   1f788:	00032583          	lw	a1,0(t1)
   1f78c:	00432283          	lw	t0,4(t1)
   1f790:	407309b3          	sub	s3,t1,t2
   1f794:	01c5d5b3          	srl	a1,a1,t3
   1f798:	00a292b3          	sll	t0,t0,a0
   1f79c:	0055e5b3          	or	a1,a1,t0
   1f7a0:	00b9a023          	sw	a1,0(s3)
   1f7a4:	001f0f13          	addi	t5,t5,1
   1f7a8:	00430313          	addi	t1,t1,4
   1f7ac:	fb5ff06f          	jal	zero,1f760 <__subtf3+0x400>
   1f7b0:	00279713          	slli	a4,a5,0x2
   1f7b4:	00ef8733          	add	a4,t6,a4
   1f7b8:	00072023          	sw	zero,0(a4)
   1f7bc:	00178793          	addi	a5,a5,1
   1f7c0:	feb798e3          	bne	a5,a1,1f7b0 <__subtf3+0x450>
   1f7c4:	02012783          	lw	a5,32(sp)
   1f7c8:	00c03633          	sltu	a2,zero,a2
   1f7cc:	00f66633          	or	a2,a2,a5
   1f7d0:	02412783          	lw	a5,36(sp)
   1f7d4:	00c68633          	add	a2,a3,a2
   1f7d8:	02812703          	lw	a4,40(sp)
   1f7dc:	01078833          	add	a6,a5,a6
   1f7e0:	00d636b3          	sltu	a3,a2,a3
   1f7e4:	00d806b3          	add	a3,a6,a3
   1f7e8:	02d12a23          	sw	a3,52(sp)
   1f7ec:	00f837b3          	sltu	a5,a6,a5
   1f7f0:	0106b6b3          	sltu	a3,a3,a6
   1f7f4:	01d70eb3          	add	t4,a4,t4
   1f7f8:	00d7e7b3          	or	a5,a5,a3
   1f7fc:	00fe87b3          	add	a5,t4,a5
   1f800:	02f12c23          	sw	a5,56(sp)
   1f804:	00eeb733          	sltu	a4,t4,a4
   1f808:	01d7b7b3          	sltu	a5,a5,t4
   1f80c:	00f76733          	or	a4,a4,a5
   1f810:	02c12783          	lw	a5,44(sp)
   1f814:	02c12823          	sw	a2,48(sp)
   1f818:	00f887b3          	add	a5,a7,a5
   1f81c:	00f70733          	add	a4,a4,a5
   1f820:	00090793          	addi	a5,s2,0
   1f824:	00c71693          	slli	a3,a4,0xc
   1f828:	4406c063          	blt	a3,zero,1fc68 <__subtf3+0x908>
   1f82c:	02e12e23          	sw	a4,60(sp)
   1f830:	d49ff06f          	jal	zero,1f578 <__subtf3+0x218>
   1f834:	02412583          	lw	a1,36(sp)
   1f838:	02812e83          	lw	t4,40(sp)
   1f83c:	02c12883          	lw	a7,44(sp)
   1f840:	22078e63          	beq	a5,zero,1fa7c <__subtf3+0x71c>
   1f844:	412e07b3          	sub	a5,t3,s2
   1f848:	0a091663          	bne	s2,zero,1f8f4 <__subtf3+0x594>
   1f84c:	01412303          	lw	t1,20(sp)
   1f850:	01812503          	lw	a0,24(sp)
   1f854:	01c12f03          	lw	t5,28(sp)
   1f858:	00a36633          	or	a2,t1,a0
   1f85c:	01e66633          	or	a2,a2,t5
   1f860:	00d66633          	or	a2,a2,a3
   1f864:	00061863          	bne	a2,zero,1f874 <__subtf3+0x514>
   1f868:	02e12823          	sw	a4,48(sp)
   1f86c:	02b12a23          	sw	a1,52(sp)
   1f870:	c6dff06f          	jal	zero,1f4dc <__subtf3+0x17c>
   1f874:	fff78913          	addi	s2,a5,-1
   1f878:	04091663          	bne	s2,zero,1f8c4 <__subtf3+0x564>
   1f87c:	00e68633          	add	a2,a3,a4
   1f880:	00b305b3          	add	a1,t1,a1
   1f884:	00d636b3          	sltu	a3,a2,a3
   1f888:	00d586b3          	add	a3,a1,a3
   1f88c:	02d12a23          	sw	a3,52(sp)
   1f890:	0065b333          	sltu	t1,a1,t1
   1f894:	00b6b6b3          	sltu	a3,a3,a1
   1f898:	01d50eb3          	add	t4,a0,t4
   1f89c:	00d36333          	or	t1,t1,a3
   1f8a0:	006e8333          	add	t1,t4,t1
   1f8a4:	02612c23          	sw	t1,56(sp)
   1f8a8:	00aeb733          	sltu	a4,t4,a0
   1f8ac:	01d33333          	sltu	t1,t1,t4
   1f8b0:	00676733          	or	a4,a4,t1
   1f8b4:	011f07b3          	add	a5,t5,a7
   1f8b8:	02c12823          	sw	a2,48(sp)
   1f8bc:	00f70733          	add	a4,a4,a5
   1f8c0:	c75ff06f          	jal	zero,1f534 <__subtf3+0x1d4>
   1f8c4:	000086b7          	lui	a3,0x8
   1f8c8:	fff68693          	addi	a3,a3,-1 # 7fff <exit-0x80b5>
   1f8cc:	56d79ae3          	bne	a5,a3,20640 <__subtf3+0x12e0>
   1f8d0:	02e12823          	sw	a4,48(sp)
   1f8d4:	02b12a23          	sw	a1,52(sp)
   1f8d8:	03d12c23          	sw	t4,56(sp)
   1f8dc:	03112e23          	sw	a7,60(sp)
   1f8e0:	000087b7          	lui	a5,0x8
   1f8e4:	fff78793          	addi	a5,a5,-1 # 7fff <exit-0x80b5>
   1f8e8:	c91ff06f          	jal	zero,1f578 <__subtf3+0x218>
   1f8ec:	00068713          	addi	a4,a3,0
   1f8f0:	fe1ff06f          	jal	zero,1f8d0 <__subtf3+0x570>
   1f8f4:	000086b7          	lui	a3,0x8
   1f8f8:	fff68693          	addi	a3,a3,-1 # 7fff <exit-0x80b5>
   1f8fc:	fcde0ae3          	beq	t3,a3,1f8d0 <__subtf3+0x570>
   1f900:	01c12683          	lw	a3,28(sp)
   1f904:	00080637          	lui	a2,0x80
   1f908:	00c6e6b3          	or	a3,a3,a2
   1f90c:	00d12e23          	sw	a3,28(sp)
   1f910:	07400693          	addi	a3,zero,116
   1f914:	52f6cae3          	blt	a3,a5,20648 <__subtf3+0x12e8>
   1f918:	00078913          	addi	s2,a5,0
   1f91c:	02000793          	addi	a5,zero,32
   1f920:	02f947b3          	div	a5,s2,a5
   1f924:	00080513          	addi	a0,a6,0
   1f928:	00000613          	addi	a2,zero,0
   1f92c:	00000693          	addi	a3,zero,0
   1f930:	02f6ce63          	blt	a3,a5,1f96c <__subtf3+0x60c>
   1f934:	00300693          	addi	a3,zero,3
   1f938:	01f97f13          	andi	t5,s2,31
   1f93c:	40f68333          	sub	t1,a3,a5
   1f940:	00279393          	slli	t2,a5,0x2
   1f944:	020f1e63          	bne	t5,zero,1f980 <__subtf3+0x620>
   1f948:	007806b3          	add	a3,a6,t2
   1f94c:	0006a683          	lw	a3,0(a3)
   1f950:	001f0f13          	addi	t5,t5,1
   1f954:	00480813          	addi	a6,a6,4
   1f958:	fed82e23          	sw	a3,-4(a6)
   1f95c:	ffe356e3          	bge	t1,t5,1f948 <__subtf3+0x5e8>
   1f960:	00400693          	addi	a3,zero,4
   1f964:	40f687b3          	sub	a5,a3,a5
   1f968:	06c0006f          	jal	zero,1f9d4 <__subtf3+0x674>
   1f96c:	00052303          	lw	t1,0(a0)
   1f970:	00168693          	addi	a3,a3,1
   1f974:	00450513          	addi	a0,a0,4
   1f978:	00666633          	or	a2,a2,t1
   1f97c:	fb5ff06f          	jal	zero,1f930 <__subtf3+0x5d0>
   1f980:	02000f93          	addi	t6,zero,32
   1f984:	03f96933          	rem	s2,s2,t6
   1f988:	fff7c693          	xori	a3,a5,-1
   1f98c:	41f6d693          	srai	a3,a3,0x1f
   1f990:	00d7f6b3          	and	a3,a5,a3
   1f994:	00269693          	slli	a3,a3,0x2
   1f998:	00d286b3          	add	a3,t0,a3
   1f99c:	0006a683          	lw	a3,0(a3)
   1f9a0:	00780833          	add	a6,a6,t2
   1f9a4:	412f8fb3          	sub	t6,t6,s2
   1f9a8:	01f696b3          	sll	a3,a3,t6
   1f9ac:	00d66633          	or	a2,a2,a3
   1f9b0:	00000693          	addi	a3,zero,0
   1f9b4:	0266c463          	blt	a3,t1,1f9dc <__subtf3+0x67c>
   1f9b8:	01c12503          	lw	a0,28(sp)
   1f9bc:	00400693          	addi	a3,zero,4
   1f9c0:	40f687b3          	sub	a5,a3,a5
   1f9c4:	00231693          	slli	a3,t1,0x2
   1f9c8:	00d286b3          	add	a3,t0,a3
   1f9cc:	01e55533          	srl	a0,a0,t5
   1f9d0:	00a6a023          	sw	a0,0(a3)
   1f9d4:	00300513          	addi	a0,zero,3
   1f9d8:	03c0006f          	jal	zero,1fa14 <__subtf3+0x6b4>
   1f9dc:	00082503          	lw	a0,0(a6)
   1f9e0:	00482903          	lw	s2,4(a6)
   1f9e4:	407809b3          	sub	s3,a6,t2
   1f9e8:	01e55533          	srl	a0,a0,t5
   1f9ec:	01f91933          	sll	s2,s2,t6
   1f9f0:	01256533          	or	a0,a0,s2
   1f9f4:	00a9a023          	sw	a0,0(s3)
   1f9f8:	00168693          	addi	a3,a3,1
   1f9fc:	00480813          	addi	a6,a6,4
   1fa00:	fb5ff06f          	jal	zero,1f9b4 <__subtf3+0x654>
   1fa04:	00279693          	slli	a3,a5,0x2
   1fa08:	00d286b3          	add	a3,t0,a3
   1fa0c:	0006a023          	sw	zero,0(a3)
   1fa10:	00178793          	addi	a5,a5,1
   1fa14:	fef558e3          	bge	a0,a5,1fa04 <__subtf3+0x6a4>
   1fa18:	01012783          	lw	a5,16(sp)
   1fa1c:	00c03633          	sltu	a2,zero,a2
   1fa20:	00f66633          	or	a2,a2,a5
   1fa24:	01412683          	lw	a3,20(sp)
   1fa28:	01812783          	lw	a5,24(sp)
   1fa2c:	00c70633          	add	a2,a4,a2
   1fa30:	00b685b3          	add	a1,a3,a1
   1fa34:	00e63733          	sltu	a4,a2,a4
   1fa38:	00e58733          	add	a4,a1,a4
   1fa3c:	01d78eb3          	add	t4,a5,t4
   1fa40:	02e12a23          	sw	a4,52(sp)
   1fa44:	00d5b6b3          	sltu	a3,a1,a3
   1fa48:	00b73733          	sltu	a4,a4,a1
   1fa4c:	00e6e6b3          	or	a3,a3,a4
   1fa50:	00feb733          	sltu	a4,t4,a5
   1fa54:	01c12783          	lw	a5,28(sp)
   1fa58:	00de86b3          	add	a3,t4,a3
   1fa5c:	02d12c23          	sw	a3,56(sp)
   1fa60:	01d6b6b3          	sltu	a3,a3,t4
   1fa64:	00f887b3          	add	a5,a7,a5
   1fa68:	00d76733          	or	a4,a4,a3
   1fa6c:	00f70733          	add	a4,a4,a5
   1fa70:	02c12823          	sw	a2,48(sp)
   1fa74:	000e0793          	addi	a5,t3,0
   1fa78:	dadff06f          	jal	zero,1f824 <__subtf3+0x4c4>
   1fa7c:	00190793          	addi	a5,s2,1
   1fa80:	01179513          	slli	a0,a5,0x11
   1fa84:	01255513          	srli	a0,a0,0x12
   1fa88:	01412603          	lw	a2,20(sp)
   1fa8c:	01812303          	lw	t1,24(sp)
   1fa90:	01c12803          	lw	a6,28(sp)
   1fa94:	03010e13          	addi	t3,sp,48
   1fa98:	03c10f13          	addi	t5,sp,60
   1fa9c:	12051e63          	bne	a0,zero,1fbd8 <__subtf3+0x878>
   1faa0:	006667b3          	or	a5,a2,t1
   1faa4:	0107e7b3          	or	a5,a5,a6
   1faa8:	00d7e7b3          	or	a5,a5,a3
   1faac:	0a091463          	bne	s2,zero,1fb54 <__subtf3+0x7f4>
   1fab0:	00079a63          	bne	a5,zero,1fac4 <__subtf3+0x764>
   1fab4:	02e12823          	sw	a4,48(sp)
   1fab8:	02b12a23          	sw	a1,52(sp)
   1fabc:	03d12c23          	sw	t4,56(sp)
   1fac0:	0240006f          	jal	zero,1fae4 <__subtf3+0x784>
   1fac4:	01d5e7b3          	or	a5,a1,t4
   1fac8:	0117e7b3          	or	a5,a5,a7
   1facc:	00e7e7b3          	or	a5,a5,a4
   1fad0:	02079063          	bne	a5,zero,1faf0 <__subtf3+0x790>
   1fad4:	02d12823          	sw	a3,48(sp)
   1fad8:	02c12a23          	sw	a2,52(sp)
   1fadc:	02612c23          	sw	t1,56(sp)
   1fae0:	00080893          	addi	a7,a6,0
   1fae4:	03112e23          	sw	a7,60(sp)
   1fae8:	00000793          	addi	a5,zero,0
   1faec:	a8dff06f          	jal	zero,1f578 <__subtf3+0x218>
   1faf0:	00e687b3          	add	a5,a3,a4
   1faf4:	00b605b3          	add	a1,a2,a1
   1faf8:	02f12823          	sw	a5,48(sp)
   1fafc:	00d7b7b3          	sltu	a5,a5,a3
   1fb00:	00f587b3          	add	a5,a1,a5
   1fb04:	00c5b6b3          	sltu	a3,a1,a2
   1fb08:	02f12a23          	sw	a5,52(sp)
   1fb0c:	00b7b7b3          	sltu	a5,a5,a1
   1fb10:	01d30eb3          	add	t4,t1,t4
   1fb14:	00f6e6b3          	or	a3,a3,a5
   1fb18:	00de86b3          	add	a3,t4,a3
   1fb1c:	02d12c23          	sw	a3,56(sp)
   1fb20:	006eb733          	sltu	a4,t4,t1
   1fb24:	01d6b6b3          	sltu	a3,a3,t4
   1fb28:	00d76733          	or	a4,a4,a3
   1fb2c:	01180633          	add	a2,a6,a7
   1fb30:	00c708b3          	add	a7,a4,a2
   1fb34:	00c89793          	slli	a5,a7,0xc
   1fb38:	fa07d6e3          	bge	a5,zero,1fae4 <__subtf3+0x784>
   1fb3c:	fff807b7          	lui	a5,0xfff80
   1fb40:	fff78793          	addi	a5,a5,-1 # fff7ffff <__BSS_END__+0xffecb5ab>
   1fb44:	00f8f7b3          	and	a5,a7,a5
   1fb48:	02f12e23          	sw	a5,60(sp)
   1fb4c:	00100793          	addi	a5,zero,1
   1fb50:	a29ff06f          	jal	zero,1f578 <__subtf3+0x218>
   1fb54:	02078463          	beq	a5,zero,1fb7c <__subtf3+0x81c>
   1fb58:	01d5e5b3          	or	a1,a1,t4
   1fb5c:	0115e5b3          	or	a1,a1,a7
   1fb60:	00e5e5b3          	or	a1,a1,a4
   1fb64:	02059663          	bne	a1,zero,1fb90 <__subtf3+0x830>
   1fb68:	02d12823          	sw	a3,48(sp)
   1fb6c:	02c12a23          	sw	a2,52(sp)
   1fb70:	02612c23          	sw	t1,56(sp)
   1fb74:	03012e23          	sw	a6,60(sp)
   1fb78:	d69ff06f          	jal	zero,1f8e0 <__subtf3+0x580>
   1fb7c:	00070693          	addi	a3,a4,0
   1fb80:	00058613          	addi	a2,a1,0
   1fb84:	000e8313          	addi	t1,t4,0
   1fb88:	00088813          	addi	a6,a7,0 # 10000 <exit-0xb4>
   1fb8c:	fddff06f          	jal	zero,1fb68 <__subtf3+0x808>
   1fb90:	000087b7          	lui	a5,0x8
   1fb94:	02f12e23          	sw	a5,60(sp)
   1fb98:	02012c23          	sw	zero,56(sp)
   1fb9c:	02012a23          	sw	zero,52(sp)
   1fba0:	02012823          	sw	zero,48(sp)
   1fba4:	000f0793          	addi	a5,t5,0
   1fba8:	0007a703          	lw	a4,0(a5) # 8000 <exit-0x80b4>
   1fbac:	ffc7a683          	lw	a3,-4(a5)
   1fbb0:	ffc78793          	addi	a5,a5,-4
   1fbb4:	00371713          	slli	a4,a4,0x3
   1fbb8:	01d6d693          	srli	a3,a3,0x1d
   1fbbc:	00d76733          	or	a4,a4,a3
   1fbc0:	00e7a223          	sw	a4,4(a5)
   1fbc4:	fefe12e3          	bne	t3,a5,1fba8 <__subtf3+0x848>
   1fbc8:	000087b7          	lui	a5,0x8
   1fbcc:	fff78793          	addi	a5,a5,-1 # 7fff <exit-0x80b5>
   1fbd0:	00000493          	addi	s1,zero,0
   1fbd4:	9a5ff06f          	jal	zero,1f578 <__subtf3+0x218>
   1fbd8:	00e68533          	add	a0,a3,a4
   1fbdc:	00b605b3          	add	a1,a2,a1
   1fbe0:	02a12823          	sw	a0,48(sp)
   1fbe4:	00d53533          	sltu	a0,a0,a3
   1fbe8:	00a58533          	add	a0,a1,a0
   1fbec:	00c5b6b3          	sltu	a3,a1,a2
   1fbf0:	02a12a23          	sw	a0,52(sp)
   1fbf4:	00b53533          	sltu	a0,a0,a1
   1fbf8:	01d30eb3          	add	t4,t1,t4
   1fbfc:	00a6e6b3          	or	a3,a3,a0
   1fc00:	00de86b3          	add	a3,t4,a3
   1fc04:	02d12c23          	sw	a3,56(sp)
   1fc08:	006eb733          	sltu	a4,t4,t1
   1fc0c:	01d6b6b3          	sltu	a3,a3,t4
   1fc10:	00d76733          	or	a4,a4,a3
   1fc14:	01180633          	add	a2,a6,a7
   1fc18:	00c70733          	add	a4,a4,a2
   1fc1c:	02e12e23          	sw	a4,60(sp)
   1fc20:	000e0693          	addi	a3,t3,0
   1fc24:	0006a603          	lw	a2,0(a3)
   1fc28:	0046a583          	lw	a1,4(a3)
   1fc2c:	00468693          	addi	a3,a3,4
   1fc30:	00165613          	srli	a2,a2,0x1
   1fc34:	01f59593          	slli	a1,a1,0x1f
   1fc38:	00b66633          	or	a2,a2,a1
   1fc3c:	fec6ae23          	sw	a2,-4(a3)
   1fc40:	fedf12e3          	bne	t5,a3,1fc24 <__subtf3+0x8c4>
   1fc44:	000086b7          	lui	a3,0x8
   1fc48:	fff68693          	addi	a3,a3,-1 # 7fff <exit-0x80b5>
   1fc4c:	00175713          	srli	a4,a4,0x1
   1fc50:	bcd79ee3          	bne	a5,a3,1f82c <__subtf3+0x4cc>
   1fc54:	02012e23          	sw	zero,60(sp)
   1fc58:	02012c23          	sw	zero,56(sp)
   1fc5c:	02012a23          	sw	zero,52(sp)
   1fc60:	02012823          	sw	zero,48(sp)
   1fc64:	915ff06f          	jal	zero,1f578 <__subtf3+0x218>
   1fc68:	fff806b7          	lui	a3,0xfff80
   1fc6c:	fff68693          	addi	a3,a3,-1 # fff7ffff <__BSS_END__+0xffecb5ab>
   1fc70:	00d77733          	and	a4,a4,a3
   1fc74:	02e12e23          	sw	a4,60(sp)
   1fc78:	00178793          	addi	a5,a5,1
   1fc7c:	01f61613          	slli	a2,a2,0x1f
   1fc80:	03010693          	addi	a3,sp,48
   1fc84:	03c10813          	addi	a6,sp,60
   1fc88:	0006a583          	lw	a1,0(a3)
   1fc8c:	0046a503          	lw	a0,4(a3)
   1fc90:	00468693          	addi	a3,a3,4
   1fc94:	0015d593          	srli	a1,a1,0x1
   1fc98:	01f51513          	slli	a0,a0,0x1f
   1fc9c:	00a5e5b3          	or	a1,a1,a0
   1fca0:	feb6ae23          	sw	a1,-4(a3)
   1fca4:	fed812e3          	bne	a6,a3,1fc88 <__subtf3+0x928>
   1fca8:	00175713          	srli	a4,a4,0x1
   1fcac:	02e12e23          	sw	a4,60(sp)
   1fcb0:	03012703          	lw	a4,48(sp)
   1fcb4:	01f65613          	srli	a2,a2,0x1f
   1fcb8:	00c76733          	or	a4,a4,a2
   1fcbc:	02e12823          	sw	a4,48(sp)
   1fcc0:	00008737          	lui	a4,0x8
   1fcc4:	fff70713          	addi	a4,a4,-1 # 7fff <exit-0x80b5>
   1fcc8:	8ae798e3          	bne	a5,a4,1f578 <__subtf3+0x218>
   1fccc:	f89ff06f          	jal	zero,1fc54 <__subtf3+0x8f4>
   1fcd0:	24f05c63          	bge	zero,a5,1ff28 <__subtf3+0xbc8>
   1fcd4:	01412583          	lw	a1,20(sp)
   1fcd8:	01812e83          	lw	t4,24(sp)
   1fcdc:	01c12883          	lw	a7,28(sp)
   1fce0:	0a0e1463          	bne	t3,zero,1fd88 <__subtf3+0xa28>
   1fce4:	02412e03          	lw	t3,36(sp)
   1fce8:	02812f03          	lw	t5,40(sp)
   1fcec:	02c12503          	lw	a0,44(sp)
   1fcf0:	01ee6633          	or	a2,t3,t5
   1fcf4:	00a66633          	or	a2,a2,a0
   1fcf8:	00e66633          	or	a2,a2,a4
   1fcfc:	00061663          	bne	a2,zero,1fd08 <__subtf3+0x9a8>
   1fd00:	02d12823          	sw	a3,48(sp)
   1fd04:	b69ff06f          	jal	zero,1f86c <__subtf3+0x50c>
   1fd08:	fff78613          	addi	a2,a5,-1
   1fd0c:	04061a63          	bne	a2,zero,1fd60 <__subtf3+0xa00>
   1fd10:	41c587b3          	sub	a5,a1,t3
   1fd14:	40e68633          	sub	a2,a3,a4
   1fd18:	40be0e33          	sub	t3,t3,a1
   1fd1c:	00c6b6b3          	sltu	a3,a3,a2
   1fd20:	001e3e13          	sltiu	t3,t3,1
   1fd24:	40d78833          	sub	a6,a5,a3
   1fd28:	01c6f6b3          	and	a3,a3,t3
   1fd2c:	00f5b7b3          	sltu	a5,a1,a5
   1fd30:	00d7e7b3          	or	a5,a5,a3
   1fd34:	41df06b3          	sub	a3,t5,t4
   1fd38:	41ee85b3          	sub	a1,t4,t5
   1fd3c:	0016b693          	sltiu	a3,a3,1
   1fd40:	40f58733          	sub	a4,a1,a5
   1fd44:	00d7f7b3          	and	a5,a5,a3
   1fd48:	00beb5b3          	sltu	a1,t4,a1
   1fd4c:	40a88533          	sub	a0,a7,a0
   1fd50:	00f5e5b3          	or	a1,a1,a5
   1fd54:	40b50533          	sub	a0,a0,a1
   1fd58:	00100793          	addi	a5,zero,1
   1fd5c:	19c0006f          	jal	zero,1fef8 <__subtf3+0xb98>
   1fd60:	00008737          	lui	a4,0x8
   1fd64:	fff70713          	addi	a4,a4,-1 # 7fff <exit-0x80b5>
   1fd68:	f8e78ce3          	beq	a5,a4,1fd00 <__subtf3+0x9a0>
   1fd6c:	07400793          	addi	a5,zero,116
   1fd70:	04c7d063          	bge	a5,a2,1fdb0 <__subtf3+0xa50>
   1fd74:	02012623          	sw	zero,44(sp)
   1fd78:	02012423          	sw	zero,40(sp)
   1fd7c:	02012223          	sw	zero,36(sp)
   1fd80:	00100613          	addi	a2,zero,1
   1fd84:	11c0006f          	jal	zero,1fea0 <__subtf3+0xb40>
   1fd88:	00008737          	lui	a4,0x8
   1fd8c:	fff70713          	addi	a4,a4,-1 # 7fff <exit-0x80b5>
   1fd90:	b4e90ee3          	beq	s2,a4,1f8ec <__subtf3+0x58c>
   1fd94:	02c12703          	lw	a4,44(sp)
   1fd98:	00080637          	lui	a2,0x80
   1fd9c:	00c76733          	or	a4,a4,a2
   1fda0:	02e12623          	sw	a4,44(sp)
   1fda4:	07400713          	addi	a4,zero,116
   1fda8:	fcf746e3          	blt	a4,a5,1fd74 <__subtf3+0xa14>
   1fdac:	00078613          	addi	a2,a5,0
   1fdb0:	40565793          	srai	a5,a2,0x5
   1fdb4:	01f67e13          	andi	t3,a2,31
   1fdb8:	00030513          	addi	a0,t1,0
   1fdbc:	00000613          	addi	a2,zero,0
   1fdc0:	00000713          	addi	a4,zero,0
   1fdc4:	02f71c63          	bne	a4,a5,1fdfc <__subtf3+0xa9c>
   1fdc8:	00300713          	addi	a4,zero,3
   1fdcc:	40f70733          	sub	a4,a4,a5
   1fdd0:	00279393          	slli	t2,a5,0x2
   1fdd4:	020e1e63          	bne	t3,zero,1fe10 <__subtf3+0xab0>
   1fdd8:	00730533          	add	a0,t1,t2
   1fddc:	00052503          	lw	a0,0(a0)
   1fde0:	001e0e13          	addi	t3,t3,1
   1fde4:	00430313          	addi	t1,t1,4
   1fde8:	fea32e23          	sw	a0,-4(t1)
   1fdec:	ffc756e3          	bge	a4,t3,1fdd8 <__subtf3+0xa78>
   1fdf0:	00400713          	addi	a4,zero,4
   1fdf4:	40f707b3          	sub	a5,a4,a5
   1fdf8:	0580006f          	jal	zero,1fe50 <__subtf3+0xaf0>
   1fdfc:	00052803          	lw	a6,0(a0)
   1fe00:	00170713          	addi	a4,a4,1
   1fe04:	00450513          	addi	a0,a0,4
   1fe08:	01066633          	or	a2,a2,a6
   1fe0c:	fb9ff06f          	jal	zero,1fdc4 <__subtf3+0xa64>
   1fe10:	007f8533          	add	a0,t6,t2
   1fe14:	00052503          	lw	a0,0(a0)
   1fe18:	02000813          	addi	a6,zero,32
   1fe1c:	41c80833          	sub	a6,a6,t3
   1fe20:	01051533          	sll	a0,a0,a6
   1fe24:	00a66633          	or	a2,a2,a0
   1fe28:	00730333          	add	t1,t1,t2
   1fe2c:	00000f13          	addi	t5,zero,0
   1fe30:	02ef4463          	blt	t5,a4,1fe58 <__subtf3+0xaf8>
   1fe34:	00400513          	addi	a0,zero,4
   1fe38:	40f507b3          	sub	a5,a0,a5
   1fe3c:	02c12503          	lw	a0,44(sp)
   1fe40:	00271713          	slli	a4,a4,0x2
   1fe44:	00ef8733          	add	a4,t6,a4
   1fe48:	01c55533          	srl	a0,a0,t3
   1fe4c:	00a72023          	sw	a0,0(a4)
   1fe50:	00400513          	addi	a0,zero,4
   1fe54:	03c0006f          	jal	zero,1fe90 <__subtf3+0xb30>
   1fe58:	00032503          	lw	a0,0(t1)
   1fe5c:	00432283          	lw	t0,4(t1)
   1fe60:	407309b3          	sub	s3,t1,t2
   1fe64:	01c55533          	srl	a0,a0,t3
   1fe68:	010292b3          	sll	t0,t0,a6
   1fe6c:	00556533          	or	a0,a0,t0
   1fe70:	00a9a023          	sw	a0,0(s3)
   1fe74:	001f0f13          	addi	t5,t5,1
   1fe78:	00430313          	addi	t1,t1,4
   1fe7c:	fb5ff06f          	jal	zero,1fe30 <__subtf3+0xad0>
   1fe80:	00279713          	slli	a4,a5,0x2
   1fe84:	00ef8733          	add	a4,t6,a4
   1fe88:	00072023          	sw	zero,0(a4)
   1fe8c:	00178793          	addi	a5,a5,1
   1fe90:	fea798e3          	bne	a5,a0,1fe80 <__subtf3+0xb20>
   1fe94:	02012783          	lw	a5,32(sp)
   1fe98:	00c03633          	sltu	a2,zero,a2
   1fe9c:	00f66633          	or	a2,a2,a5
   1fea0:	02412703          	lw	a4,36(sp)
   1fea4:	40c68633          	sub	a2,a3,a2
   1fea8:	00c6b6b3          	sltu	a3,a3,a2
   1feac:	40e587b3          	sub	a5,a1,a4
   1feb0:	40d78833          	sub	a6,a5,a3
   1feb4:	40b70733          	sub	a4,a4,a1
   1feb8:	00f5b7b3          	sltu	a5,a1,a5
   1febc:	02812583          	lw	a1,40(sp)
   1fec0:	00173713          	sltiu	a4,a4,1
   1fec4:	00e6f6b3          	and	a3,a3,a4
   1fec8:	00d7e7b3          	or	a5,a5,a3
   1fecc:	02c12503          	lw	a0,44(sp)
   1fed0:	40be86b3          	sub	a3,t4,a1
   1fed4:	41d585b3          	sub	a1,a1,t4
   1fed8:	0015b593          	sltiu	a1,a1,1
   1fedc:	40f68733          	sub	a4,a3,a5
   1fee0:	00b7f7b3          	and	a5,a5,a1
   1fee4:	00deb6b3          	sltu	a3,t4,a3
   1fee8:	00f6e6b3          	or	a3,a3,a5
   1feec:	40a88533          	sub	a0,a7,a0
   1fef0:	40d50533          	sub	a0,a0,a3
   1fef4:	00090793          	addi	a5,s2,0
   1fef8:	02e12c23          	sw	a4,56(sp)
   1fefc:	02a12e23          	sw	a0,60(sp)
   1ff00:	03012a23          	sw	a6,52(sp)
   1ff04:	02c12823          	sw	a2,48(sp)
   1ff08:	00c51713          	slli	a4,a0,0xc
   1ff0c:	e6075663          	bge	a4,zero,1f578 <__subtf3+0x218>
   1ff10:	00080737          	lui	a4,0x80
   1ff14:	fff70713          	addi	a4,a4,-1 # 7ffff <input_data+0x5f2eb>
   1ff18:	00e57533          	and	a0,a0,a4
   1ff1c:	02a12e23          	sw	a0,60(sp)
   1ff20:	00078913          	addi	s2,a5,0
   1ff24:	4c40006f          	jal	zero,203e8 <__subtf3+0x1088>
   1ff28:	02412303          	lw	t1,36(sp)
   1ff2c:	02812583          	lw	a1,40(sp)
   1ff30:	02c12f83          	lw	t6,44(sp)
   1ff34:	24078663          	beq	a5,zero,20180 <__subtf3+0xe20>
   1ff38:	412e07b3          	sub	a5,t3,s2
   1ff3c:	0a091a63          	bne	s2,zero,1fff0 <__subtf3+0xc90>
   1ff40:	01412883          	lw	a7,20(sp)
   1ff44:	01812e83          	lw	t4,24(sp)
   1ff48:	01c12503          	lw	a0,28(sp)
   1ff4c:	01d8e633          	or	a2,a7,t4
   1ff50:	00a66633          	or	a2,a2,a0
   1ff54:	00d66633          	or	a2,a2,a3
   1ff58:	00061e63          	bne	a2,zero,1ff74 <__subtf3+0xc14>
   1ff5c:	02e12823          	sw	a4,48(sp)
   1ff60:	02612a23          	sw	t1,52(sp)
   1ff64:	02b12c23          	sw	a1,56(sp)
   1ff68:	03f12e23          	sw	t6,60(sp)
   1ff6c:	000f0493          	addi	s1,t5,0
   1ff70:	e08ff06f          	jal	zero,1f578 <__subtf3+0x218>
   1ff74:	fff78913          	addi	s2,a5,-1
   1ff78:	04091a63          	bne	s2,zero,1ffcc <__subtf3+0xc6c>
   1ff7c:	411307b3          	sub	a5,t1,a7
   1ff80:	40d70633          	sub	a2,a4,a3
   1ff84:	406888b3          	sub	a7,a7,t1
   1ff88:	00c73733          	sltu	a4,a4,a2
   1ff8c:	0018b893          	sltiu	a7,a7,1
   1ff90:	40e78833          	sub	a6,a5,a4
   1ff94:	40be86b3          	sub	a3,t4,a1
   1ff98:	01177733          	and	a4,a4,a7
   1ff9c:	00f337b3          	sltu	a5,t1,a5
   1ffa0:	00e7e7b3          	or	a5,a5,a4
   1ffa4:	41d588b3          	sub	a7,a1,t4
   1ffa8:	0016b693          	sltiu	a3,a3,1
   1ffac:	40f88733          	sub	a4,a7,a5
   1ffb0:	00d7f7b3          	and	a5,a5,a3
   1ffb4:	0115b8b3          	sltu	a7,a1,a7
   1ffb8:	40af8533          	sub	a0,t6,a0
   1ffbc:	00f8e8b3          	or	a7,a7,a5
   1ffc0:	41150533          	sub	a0,a0,a7
   1ffc4:	000f0493          	addi	s1,t5,0
   1ffc8:	d91ff06f          	jal	zero,1fd58 <__subtf3+0x9f8>
   1ffcc:	000086b7          	lui	a3,0x8
   1ffd0:	fff68693          	addi	a3,a3,-1 # 7fff <exit-0x80b5>
   1ffd4:	68d79463          	bne	a5,a3,2065c <__subtf3+0x12fc>
   1ffd8:	02e12823          	sw	a4,48(sp)
   1ffdc:	02612a23          	sw	t1,52(sp)
   1ffe0:	02b12c23          	sw	a1,56(sp)
   1ffe4:	03f12e23          	sw	t6,60(sp)
   1ffe8:	000f0493          	addi	s1,t5,0
   1ffec:	8f5ff06f          	jal	zero,1f8e0 <__subtf3+0x580>
   1fff0:	000086b7          	lui	a3,0x8
   1fff4:	fff68693          	addi	a3,a3,-1 # 7fff <exit-0x80b5>
   1fff8:	fede00e3          	beq	t3,a3,1ffd8 <__subtf3+0xc78>
   1fffc:	01c12683          	lw	a3,28(sp)
   20000:	00080637          	lui	a2,0x80
   20004:	00c6e6b3          	or	a3,a3,a2
   20008:	00d12e23          	sw	a3,28(sp)
   2000c:	07400693          	addi	a3,zero,116
   20010:	64f6ca63          	blt	a3,a5,20664 <__subtf3+0x1304>
   20014:	00078913          	addi	s2,a5,0
   20018:	02000793          	addi	a5,zero,32
   2001c:	02f947b3          	div	a5,s2,a5
   20020:	00080513          	addi	a0,a6,0
   20024:	00000613          	addi	a2,zero,0
   20028:	00000693          	addi	a3,zero,0
   2002c:	02f6ce63          	blt	a3,a5,20068 <__subtf3+0xd08>
   20030:	00300693          	addi	a3,zero,3
   20034:	01f97e93          	andi	t4,s2,31
   20038:	40f688b3          	sub	a7,a3,a5
   2003c:	00279493          	slli	s1,a5,0x2
   20040:	020e9e63          	bne	t4,zero,2007c <__subtf3+0xd1c>
   20044:	009806b3          	add	a3,a6,s1
   20048:	0006a683          	lw	a3,0(a3)
   2004c:	001e8e93          	addi	t4,t4,1
   20050:	00480813          	addi	a6,a6,4
   20054:	fed82e23          	sw	a3,-4(a6)
   20058:	ffd8d6e3          	bge	a7,t4,20044 <__subtf3+0xce4>
   2005c:	00400693          	addi	a3,zero,4
   20060:	40f687b3          	sub	a5,a3,a5
   20064:	06c0006f          	jal	zero,200d0 <__subtf3+0xd70>
   20068:	00052883          	lw	a7,0(a0)
   2006c:	00168693          	addi	a3,a3,1
   20070:	00450513          	addi	a0,a0,4
   20074:	01166633          	or	a2,a2,a7
   20078:	fb5ff06f          	jal	zero,2002c <__subtf3+0xccc>
   2007c:	02000393          	addi	t2,zero,32
   20080:	02796933          	rem	s2,s2,t2
   20084:	fff7c693          	xori	a3,a5,-1
   20088:	41f6d693          	srai	a3,a3,0x1f
   2008c:	00d7f6b3          	and	a3,a5,a3
   20090:	00269693          	slli	a3,a3,0x2
   20094:	00d286b3          	add	a3,t0,a3
   20098:	0006a683          	lw	a3,0(a3)
   2009c:	00980833          	add	a6,a6,s1
   200a0:	412383b3          	sub	t2,t2,s2
   200a4:	007696b3          	sll	a3,a3,t2
   200a8:	00d66633          	or	a2,a2,a3
   200ac:	00000693          	addi	a3,zero,0
   200b0:	0316c463          	blt	a3,a7,200d8 <__subtf3+0xd78>
   200b4:	01c12503          	lw	a0,28(sp)
   200b8:	00400693          	addi	a3,zero,4
   200bc:	40f687b3          	sub	a5,a3,a5
   200c0:	00289693          	slli	a3,a7,0x2
   200c4:	00d286b3          	add	a3,t0,a3
   200c8:	01d55533          	srl	a0,a0,t4
   200cc:	00a6a023          	sw	a0,0(a3)
   200d0:	00300513          	addi	a0,zero,3
   200d4:	03c0006f          	jal	zero,20110 <__subtf3+0xdb0>
   200d8:	00082503          	lw	a0,0(a6)
   200dc:	00482903          	lw	s2,4(a6)
   200e0:	409809b3          	sub	s3,a6,s1
   200e4:	01d55533          	srl	a0,a0,t4
   200e8:	00791933          	sll	s2,s2,t2
   200ec:	01256533          	or	a0,a0,s2
   200f0:	00a9a023          	sw	a0,0(s3)
   200f4:	00168693          	addi	a3,a3,1
   200f8:	00480813          	addi	a6,a6,4
   200fc:	fb5ff06f          	jal	zero,200b0 <__subtf3+0xd50>
   20100:	00279693          	slli	a3,a5,0x2
   20104:	00d286b3          	add	a3,t0,a3
   20108:	0006a023          	sw	zero,0(a3)
   2010c:	00178793          	addi	a5,a5,1
   20110:	fef558e3          	bge	a0,a5,20100 <__subtf3+0xda0>
   20114:	01012783          	lw	a5,16(sp)
   20118:	00c03633          	sltu	a2,zero,a2
   2011c:	00f66633          	or	a2,a2,a5
   20120:	01412683          	lw	a3,20(sp)
   20124:	01812883          	lw	a7,24(sp)
   20128:	40c70633          	sub	a2,a4,a2
   2012c:	40d307b3          	sub	a5,t1,a3
   20130:	406686b3          	sub	a3,a3,t1
   20134:	00c73733          	sltu	a4,a4,a2
   20138:	0016b693          	sltiu	a3,a3,1
   2013c:	40e78833          	sub	a6,a5,a4
   20140:	01c12503          	lw	a0,28(sp)
   20144:	00d77733          	and	a4,a4,a3
   20148:	00f337b3          	sltu	a5,t1,a5
   2014c:	411586b3          	sub	a3,a1,a7
   20150:	40b888b3          	sub	a7,a7,a1
   20154:	00e7e7b3          	or	a5,a5,a4
   20158:	0018b893          	sltiu	a7,a7,1
   2015c:	40f68733          	sub	a4,a3,a5
   20160:	0117f7b3          	and	a5,a5,a7
   20164:	00d5b6b3          	sltu	a3,a1,a3
   20168:	00f6e6b3          	or	a3,a3,a5
   2016c:	40af8533          	sub	a0,t6,a0
   20170:	40d50533          	sub	a0,a0,a3
   20174:	000e0793          	addi	a5,t3,0
   20178:	000f0493          	addi	s1,t5,0
   2017c:	d7dff06f          	jal	zero,1fef8 <__subtf3+0xb98>
   20180:	00190613          	addi	a2,s2,1
   20184:	01161e13          	slli	t3,a2,0x11
   20188:	012e5e13          	srli	t3,t3,0x12
   2018c:	01412803          	lw	a6,20(sp)
   20190:	01812e83          	lw	t4,24(sp)
   20194:	01c12883          	lw	a7,28(sp)
   20198:	000082b7          	lui	t0,0x8
   2019c:	1a0e1463          	bne	t3,zero,20344 <__subtf3+0xfe4>
   201a0:	00b36633          	or	a2,t1,a1
   201a4:	01d86e33          	or	t3,a6,t4
   201a8:	01f66633          	or	a2,a2,t6
   201ac:	011e6e33          	or	t3,t3,a7
   201b0:	00e66633          	or	a2,a2,a4
   201b4:	00de6e33          	or	t3,t3,a3
   201b8:	0e091863          	bne	s2,zero,202a8 <__subtf3+0xf48>
   201bc:	020e1063          	bne	t3,zero,201dc <__subtf3+0xe7c>
   201c0:	00c03633          	sltu	a2,zero,a2
   201c4:	02e12823          	sw	a4,48(sp)
   201c8:	02612a23          	sw	t1,52(sp)
   201cc:	02b12c23          	sw	a1,56(sp)
   201d0:	03f12e23          	sw	t6,60(sp)
   201d4:	01e674b3          	and	s1,a2,t5
   201d8:	ba0ff06f          	jal	zero,1f578 <__subtf3+0x218>
   201dc:	00061863          	bne	a2,zero,201ec <__subtf3+0xe8c>
   201e0:	02d12823          	sw	a3,48(sp)
   201e4:	03012a23          	sw	a6,52(sp)
   201e8:	8d5ff06f          	jal	zero,1fabc <__subtf3+0x75c>
   201ec:	40680633          	sub	a2,a6,t1
   201f0:	40e684b3          	sub	s1,a3,a4
   201f4:	0096be33          	sltu	t3,a3,s1
   201f8:	00163913          	sltiu	s2,a2,1
   201fc:	41c609b3          	sub	s3,a2,t3
   20200:	40be82b3          	sub	t0,t4,a1
   20204:	012e7e33          	and	t3,t3,s2
   20208:	00c83633          	sltu	a2,a6,a2
   2020c:	01c66633          	or	a2,a2,t3
   20210:	0012b393          	sltiu	t2,t0,1
   20214:	40c28a33          	sub	s4,t0,a2
   20218:	00c3f633          	and	a2,t2,a2
   2021c:	005eb2b3          	sltu	t0,t4,t0
   20220:	00c2e2b3          	or	t0,t0,a2
   20224:	41f88633          	sub	a2,a7,t6
   20228:	40560633          	sub	a2,a2,t0
   2022c:	02c12e23          	sw	a2,60(sp)
   20230:	03412c23          	sw	s4,56(sp)
   20234:	03312a23          	sw	s3,52(sp)
   20238:	02912823          	sw	s1,48(sp)
   2023c:	00c61e13          	slli	t3,a2,0xc
   20240:	040e5863          	bge	t3,zero,20290 <__subtf3+0xf30>
   20244:	40d706b3          	sub	a3,a4,a3
   20248:	00d73733          	sltu	a4,a4,a3
   2024c:	41030833          	sub	a6,t1,a6
   20250:	40e80633          	sub	a2,a6,a4
   20254:	01033833          	sltu	a6,t1,a6
   20258:	01277733          	and	a4,a4,s2
   2025c:	00e86833          	or	a6,a6,a4
   20260:	41d58eb3          	sub	t4,a1,t4
   20264:	01d5b5b3          	sltu	a1,a1,t4
   20268:	0103f3b3          	and	t2,t2,a6
   2026c:	411f8fb3          	sub	t6,t6,a7
   20270:	0075e5b3          	or	a1,a1,t2
   20274:	40bf8fb3          	sub	t6,t6,a1
   20278:	410e8eb3          	sub	t4,t4,a6
   2027c:	03f12e23          	sw	t6,60(sp)
   20280:	03d12c23          	sw	t4,56(sp)
   20284:	02c12a23          	sw	a2,52(sp)
   20288:	02d12823          	sw	a3,48(sp)
   2028c:	ce1ff06f          	jal	zero,1ff6c <__subtf3+0xc0c>
   20290:	0134e4b3          	or	s1,s1,s3
   20294:	0144e4b3          	or	s1,s1,s4
   20298:	00c4e4b3          	or	s1,s1,a2
   2029c:	009034b3          	sltu	s1,zero,s1
   202a0:	009574b3          	and	s1,a0,s1
   202a4:	ad4ff06f          	jal	zero,1f578 <__subtf3+0x218>
   202a8:	03010513          	addi	a0,sp,48
   202ac:	040e1e63          	bne	t3,zero,20308 <__subtf3+0xfa8>
   202b0:	02061e63          	bne	a2,zero,202ec <__subtf3+0xf8c>
   202b4:	02512e23          	sw	t0,60(sp)
   202b8:	02012c23          	sw	zero,56(sp)
   202bc:	02012a23          	sw	zero,52(sp)
   202c0:	02012823          	sw	zero,48(sp)
   202c4:	03c10793          	addi	a5,sp,60
   202c8:	0007a703          	lw	a4,0(a5)
   202cc:	ffc7a683          	lw	a3,-4(a5)
   202d0:	ffc78793          	addi	a5,a5,-4
   202d4:	00371713          	slli	a4,a4,0x3
   202d8:	01d6d693          	srli	a3,a3,0x1d
   202dc:	00d76733          	or	a4,a4,a3
   202e0:	00e7a223          	sw	a4,4(a5)
   202e4:	fef512e3          	bne	a0,a5,202c8 <__subtf3+0xf68>
   202e8:	8e1ff06f          	jal	zero,1fbc8 <__subtf3+0x868>
   202ec:	02e12823          	sw	a4,48(sp)
   202f0:	02612a23          	sw	t1,52(sp)
   202f4:	02b12c23          	sw	a1,56(sp)
   202f8:	03f12e23          	sw	t6,60(sp)
   202fc:	000f0493          	addi	s1,t5,0
   20300:	fff28793          	addi	a5,t0,-1 # 7fff <exit-0x80b5>
   20304:	a74ff06f          	jal	zero,1f578 <__subtf3+0x218>
   20308:	a4060263          	beq	a2,zero,1f54c <__subtf3+0x1ec>
   2030c:	02512e23          	sw	t0,60(sp)
   20310:	02012c23          	sw	zero,56(sp)
   20314:	02012a23          	sw	zero,52(sp)
   20318:	02012823          	sw	zero,48(sp)
   2031c:	03c10793          	addi	a5,sp,60
   20320:	0007a703          	lw	a4,0(a5)
   20324:	ffc7a683          	lw	a3,-4(a5)
   20328:	ffc78793          	addi	a5,a5,-4
   2032c:	00371713          	slli	a4,a4,0x3
   20330:	01d6d693          	srli	a3,a3,0x1d
   20334:	00d76733          	or	a4,a4,a3
   20338:	00e7a223          	sw	a4,4(a5)
   2033c:	fef512e3          	bne	a0,a5,20320 <__subtf3+0xfc0>
   20340:	889ff06f          	jal	zero,1fbc8 <__subtf3+0x868>
   20344:	40680633          	sub	a2,a6,t1
   20348:	40e682b3          	sub	t0,a3,a4
   2034c:	0056b533          	sltu	a0,a3,t0
   20350:	00163993          	sltiu	s3,a2,1
   20354:	40a60a33          	sub	s4,a2,a0
   20358:	40be8e33          	sub	t3,t4,a1
   2035c:	01357533          	and	a0,a0,s3
   20360:	00c83633          	sltu	a2,a6,a2
   20364:	00a66633          	or	a2,a2,a0
   20368:	001e3393          	sltiu	t2,t3,1
   2036c:	40ce0ab3          	sub	s5,t3,a2
   20370:	00c3f633          	and	a2,t2,a2
   20374:	01cebe33          	sltu	t3,t4,t3
   20378:	00ce6e33          	or	t3,t3,a2
   2037c:	41f88533          	sub	a0,a7,t6
   20380:	41c50533          	sub	a0,a0,t3
   20384:	02a12e23          	sw	a0,60(sp)
   20388:	03512c23          	sw	s5,56(sp)
   2038c:	03412a23          	sw	s4,52(sp)
   20390:	02512823          	sw	t0,48(sp)
   20394:	00c51613          	slli	a2,a0,0xc
   20398:	0a065463          	bge	a2,zero,20440 <__subtf3+0x10e0>
   2039c:	40d706b3          	sub	a3,a4,a3
   203a0:	00d73733          	sltu	a4,a4,a3
   203a4:	41030833          	sub	a6,t1,a6
   203a8:	40e807b3          	sub	a5,a6,a4
   203ac:	01377733          	and	a4,a4,s3
   203b0:	01033833          	sltu	a6,t1,a6
   203b4:	00e86833          	or	a6,a6,a4
   203b8:	41d58eb3          	sub	t4,a1,t4
   203bc:	01d5b5b3          	sltu	a1,a1,t4
   203c0:	007873b3          	and	t2,a6,t2
   203c4:	411f8533          	sub	a0,t6,a7
   203c8:	0075e5b3          	or	a1,a1,t2
   203cc:	40b50533          	sub	a0,a0,a1
   203d0:	410e8eb3          	sub	t4,t4,a6
   203d4:	02a12e23          	sw	a0,60(sp)
   203d8:	03d12c23          	sw	t4,56(sp)
   203dc:	02f12a23          	sw	a5,52(sp)
   203e0:	02d12823          	sw	a3,48(sp)
   203e4:	000f0493          	addi	s1,t5,0
   203e8:	06050663          	beq	a0,zero,20454 <__subtf3+0x10f4>
   203ec:	750000ef          	jal	ra,20b3c <__clzsi2>
   203f0:	ff450793          	addi	a5,a0,-12
   203f4:	02000613          	addi	a2,zero,32
   203f8:	01f7f813          	andi	a6,a5,31
   203fc:	02c7c6b3          	div	a3,a5,a2
   20400:	03c10713          	addi	a4,sp,60
   20404:	08080463          	beq	a6,zero,2048c <__subtf3+0x112c>
   20408:	00269893          	slli	a7,a3,0x2
   2040c:	03010513          	addi	a0,sp,48
   20410:	41170733          	sub	a4,a4,a7
   20414:	02c7e5b3          	rem	a1,a5,a2
   20418:	40b60633          	sub	a2,a2,a1
   2041c:	08e51e63          	bne	a0,a4,204b8 <__subtf3+0x1158>
   20420:	fff68713          	addi	a4,a3,-1
   20424:	03012683          	lw	a3,48(sp)
   20428:	01150533          	add	a0,a0,a7
   2042c:	010696b3          	sll	a3,a3,a6
   20430:	00d52023          	sw	a3,0(a0)
   20434:	fff00613          	addi	a2,zero,-1
   20438:	03010893          	addi	a7,sp,48
   2043c:	0b00006f          	jal	zero,204ec <__subtf3+0x118c>
   20440:	0142e733          	or	a4,t0,s4
   20444:	01576733          	or	a4,a4,s5
   20448:	00a76733          	or	a4,a4,a0
   2044c:	f8070263          	beq	a4,zero,1fbd0 <__subtf3+0x870>
   20450:	f99ff06f          	jal	zero,203e8 <__subtf3+0x1088>
   20454:	03812503          	lw	a0,56(sp)
   20458:	00050863          	beq	a0,zero,20468 <__subtf3+0x1108>
   2045c:	6e0000ef          	jal	ra,20b3c <__clzsi2>
   20460:	02050513          	addi	a0,a0,32
   20464:	f8dff06f          	jal	zero,203f0 <__subtf3+0x1090>
   20468:	03412503          	lw	a0,52(sp)
   2046c:	00050863          	beq	a0,zero,2047c <__subtf3+0x111c>
   20470:	6cc000ef          	jal	ra,20b3c <__clzsi2>
   20474:	04050513          	addi	a0,a0,64
   20478:	f79ff06f          	jal	zero,203f0 <__subtf3+0x1090>
   2047c:	03012503          	lw	a0,48(sp)
   20480:	6bc000ef          	jal	ra,20b3c <__clzsi2>
   20484:	06050513          	addi	a0,a0,96
   20488:	f69ff06f          	jal	zero,203f0 <__subtf3+0x1090>
   2048c:	ffc00593          	addi	a1,zero,-4
   20490:	02b685b3          	mul	a1,a3,a1
   20494:	00300613          	addi	a2,zero,3
   20498:	00b70533          	add	a0,a4,a1
   2049c:	00052503          	lw	a0,0(a0)
   204a0:	fff60613          	addi	a2,a2,-1 # 7ffff <input_data+0x5f2eb>
   204a4:	ffc70713          	addi	a4,a4,-4
   204a8:	00a72223          	sw	a0,4(a4)
   204ac:	fed656e3          	bge	a2,a3,20498 <__subtf3+0x1138>
   204b0:	fff68713          	addi	a4,a3,-1
   204b4:	f81ff06f          	jal	zero,20434 <__subtf3+0x10d4>
   204b8:	00072583          	lw	a1,0(a4)
   204bc:	ffc72303          	lw	t1,-4(a4)
   204c0:	01170e33          	add	t3,a4,a7
   204c4:	010595b3          	sll	a1,a1,a6
   204c8:	00c35333          	srl	t1,t1,a2
   204cc:	0065e5b3          	or	a1,a1,t1
   204d0:	00be2023          	sw	a1,0(t3)
   204d4:	ffc70713          	addi	a4,a4,-4
   204d8:	f45ff06f          	jal	zero,2041c <__subtf3+0x10bc>
   204dc:	00271693          	slli	a3,a4,0x2
   204e0:	00d886b3          	add	a3,a7,a3
   204e4:	0006a023          	sw	zero,0(a3)
   204e8:	fff70713          	addi	a4,a4,-1
   204ec:	fec718e3          	bne	a4,a2,204dc <__subtf3+0x117c>
   204f0:	1127c263          	blt	a5,s2,205f4 <__subtf3+0x1294>
   204f4:	412787b3          	sub	a5,a5,s2
   204f8:	00178793          	addi	a5,a5,1
   204fc:	4057d713          	srai	a4,a5,0x5
   20500:	00088613          	addi	a2,a7,0
   20504:	01f7f793          	andi	a5,a5,31
   20508:	00088593          	addi	a1,a7,0
   2050c:	00000813          	addi	a6,zero,0
   20510:	00000693          	addi	a3,zero,0
   20514:	02e69c63          	bne	a3,a4,2054c <__subtf3+0x11ec>
   20518:	00300693          	addi	a3,zero,3
   2051c:	40e686b3          	sub	a3,a3,a4
   20520:	00271e13          	slli	t3,a4,0x2
   20524:	02079e63          	bne	a5,zero,20560 <__subtf3+0x1200>
   20528:	01c605b3          	add	a1,a2,t3
   2052c:	0005a583          	lw	a1,0(a1)
   20530:	00178793          	addi	a5,a5,1
   20534:	00460613          	addi	a2,a2,4
   20538:	feb62e23          	sw	a1,-4(a2)
   2053c:	fef6d6e3          	bge	a3,a5,20528 <__subtf3+0x11c8>
   20540:	00400793          	addi	a5,zero,4
   20544:	40e78733          	sub	a4,a5,a4
   20548:	0540006f          	jal	zero,2059c <__subtf3+0x123c>
   2054c:	0005a503          	lw	a0,0(a1)
   20550:	00168693          	addi	a3,a3,1
   20554:	00458593          	addi	a1,a1,4
   20558:	00a86833          	or	a6,a6,a0
   2055c:	fb9ff06f          	jal	zero,20514 <__subtf3+0x11b4>
   20560:	01c88633          	add	a2,a7,t3
   20564:	00062583          	lw	a1,0(a2)
   20568:	02000513          	addi	a0,zero,32
   2056c:	40f50533          	sub	a0,a0,a5
   20570:	00a595b3          	sll	a1,a1,a0
   20574:	00b86833          	or	a6,a6,a1
   20578:	00000313          	addi	t1,zero,0
   2057c:	02d34463          	blt	t1,a3,205a4 <__subtf3+0x1244>
   20580:	00400613          	addi	a2,zero,4
   20584:	40e60733          	sub	a4,a2,a4
   20588:	03c12603          	lw	a2,60(sp)
   2058c:	00269693          	slli	a3,a3,0x2
   20590:	00d886b3          	add	a3,a7,a3
   20594:	00f657b3          	srl	a5,a2,a5
   20598:	00f6a023          	sw	a5,0(a3)
   2059c:	00400693          	addi	a3,zero,4
   205a0:	03c0006f          	jal	zero,205dc <__subtf3+0x127c>
   205a4:	00062583          	lw	a1,0(a2)
   205a8:	00462e83          	lw	t4,4(a2)
   205ac:	41c60f33          	sub	t5,a2,t3
   205b0:	00f5d5b3          	srl	a1,a1,a5
   205b4:	00ae9eb3          	sll	t4,t4,a0
   205b8:	01d5e5b3          	or	a1,a1,t4
   205bc:	00bf2023          	sw	a1,0(t5)
   205c0:	00130313          	addi	t1,t1,1
   205c4:	00460613          	addi	a2,a2,4
   205c8:	fb5ff06f          	jal	zero,2057c <__subtf3+0x121c>
   205cc:	00271793          	slli	a5,a4,0x2
   205d0:	00f887b3          	add	a5,a7,a5
   205d4:	0007a023          	sw	zero,0(a5)
   205d8:	00170713          	addi	a4,a4,1
   205dc:	fed718e3          	bne	a4,a3,205cc <__subtf3+0x126c>
   205e0:	03012703          	lw	a4,48(sp)
   205e4:	010037b3          	sltu	a5,zero,a6
   205e8:	00f767b3          	or	a5,a4,a5
   205ec:	02f12823          	sw	a5,48(sp)
   205f0:	cf8ff06f          	jal	zero,1fae8 <__subtf3+0x788>
   205f4:	03c12703          	lw	a4,60(sp)
   205f8:	fff806b7          	lui	a3,0xfff80
   205fc:	fff68693          	addi	a3,a3,-1 # fff7ffff <__BSS_END__+0xffecb5ab>
   20600:	40f907b3          	sub	a5,s2,a5
   20604:	00d77733          	and	a4,a4,a3
   20608:	a24ff06f          	jal	zero,1f82c <__subtf3+0x4cc>
   2060c:	02012e23          	sw	zero,60(sp)
   20610:	02012c23          	sw	zero,56(sp)
   20614:	02012a23          	sw	zero,52(sp)
   20618:	02012823          	sw	zero,48(sp)
   2061c:	00000713          	addi	a4,zero,0
   20620:	fddfe06f          	jal	zero,1f5fc <__subtf3+0x29c>
   20624:	07400793          	addi	a5,zero,116
   20628:	8ac7dc63          	bge	a5,a2,1f6e0 <__subtf3+0x380>
   2062c:	02012623          	sw	zero,44(sp)
   20630:	02012423          	sw	zero,40(sp)
   20634:	02012223          	sw	zero,36(sp)
   20638:	00100613          	addi	a2,zero,1
   2063c:	994ff06f          	jal	zero,1f7d0 <__subtf3+0x470>
   20640:	07400793          	addi	a5,zero,116
   20644:	ad27dc63          	bge	a5,s2,1f91c <__subtf3+0x5bc>
   20648:	00012e23          	sw	zero,28(sp)
   2064c:	00012c23          	sw	zero,24(sp)
   20650:	00012a23          	sw	zero,20(sp)
   20654:	00100613          	addi	a2,zero,1
   20658:	bccff06f          	jal	zero,1fa24 <__subtf3+0x6c4>
   2065c:	07400793          	addi	a5,zero,116
   20660:	9b27dce3          	bge	a5,s2,20018 <__subtf3+0xcb8>
   20664:	00012e23          	sw	zero,28(sp)
   20668:	00012c23          	sw	zero,24(sp)
   2066c:	00012a23          	sw	zero,20(sp)
   20670:	00100613          	addi	a2,zero,1
   20674:	aadff06f          	jal	zero,20120 <__subtf3+0xdc0>

00020678 <__unordtf2>:
   20678:	00052703          	lw	a4,0(a0)
   2067c:	00452e83          	lw	t4,4(a0)
   20680:	00852e03          	lw	t3,8(a0)
   20684:	00c52503          	lw	a0,12(a0)
   20688:	00c5a603          	lw	a2,12(a1)
   2068c:	000086b7          	lui	a3,0x8
   20690:	fff68693          	addi	a3,a3,-1 # 7fff <exit-0x80b5>
   20694:	01055813          	srli	a6,a0,0x10
   20698:	0005a783          	lw	a5,0(a1)
   2069c:	0045a303          	lw	t1,4(a1)
   206a0:	0085a883          	lw	a7,8(a1)
   206a4:	00d87833          	and	a6,a6,a3
   206a8:	01065593          	srli	a1,a2,0x10
   206ac:	ff010113          	addi	sp,sp,-16
   206b0:	00d5f5b3          	and	a1,a1,a3
   206b4:	02d81063          	bne	a6,a3,206d4 <__unordtf2+0x5c>
   206b8:	01d76733          	or	a4,a4,t4
   206bc:	01051513          	slli	a0,a0,0x10
   206c0:	01055513          	srli	a0,a0,0x10
   206c4:	01c76733          	or	a4,a4,t3
   206c8:	00a76733          	or	a4,a4,a0
   206cc:	00100513          	addi	a0,zero,1
   206d0:	02071663          	bne	a4,zero,206fc <__unordtf2+0x84>
   206d4:	00008737          	lui	a4,0x8
   206d8:	fff70713          	addi	a4,a4,-1 # 7fff <exit-0x80b5>
   206dc:	00000513          	addi	a0,zero,0
   206e0:	00e59e63          	bne	a1,a4,206fc <__unordtf2+0x84>
   206e4:	0067e533          	or	a0,a5,t1
   206e8:	01061613          	slli	a2,a2,0x10
   206ec:	01156533          	or	a0,a0,a7
   206f0:	01065613          	srli	a2,a2,0x10
   206f4:	00c56533          	or	a0,a0,a2
   206f8:	00a03533          	sltu	a0,zero,a0
   206fc:	01010113          	addi	sp,sp,16
   20700:	00008067          	jalr	zero,0(ra)

00020704 <__fixtfsi>:
   20704:	00052703          	lw	a4,0(a0)
   20708:	00c52783          	lw	a5,12(a0)
   2070c:	00452683          	lw	a3,4(a0)
   20710:	fe010113          	addi	sp,sp,-32
   20714:	00852583          	lw	a1,8(a0)
   20718:	00e12023          	sw	a4,0(sp)
   2071c:	00e12823          	sw	a4,16(sp)
   20720:	00179713          	slli	a4,a5,0x1
   20724:	00d12223          	sw	a3,4(sp)
   20728:	01175693          	srli	a3,a4,0x11
   2072c:	00004737          	lui	a4,0x4
   20730:	00b12423          	sw	a1,8(sp)
   20734:	00f12623          	sw	a5,12(sp)
   20738:	00b12c23          	sw	a1,24(sp)
   2073c:	ffe70713          	addi	a4,a4,-2 # 3ffe <exit-0xc0b6>
   20740:	00000513          	addi	a0,zero,0
   20744:	02d75063          	bge	a4,a3,20764 <__fixtfsi+0x60>
   20748:	00004737          	lui	a4,0x4
   2074c:	01d70713          	addi	a4,a4,29 # 401d <exit-0xc097>
   20750:	01f7d813          	srli	a6,a5,0x1f
   20754:	00d75c63          	bge	a4,a3,2076c <__fixtfsi+0x68>
   20758:	80000537          	lui	a0,0x80000
   2075c:	fff50513          	addi	a0,a0,-1 # 7fffffff <__BSS_END__+0x7ff4b5ab>
   20760:	00a80533          	add	a0,a6,a0
   20764:	02010113          	addi	sp,sp,32
   20768:	00008067          	jalr	zero,0(ra)
   2076c:	01079793          	slli	a5,a5,0x10
   20770:	00010737          	lui	a4,0x10
   20774:	0107d793          	srli	a5,a5,0x10
   20778:	00e7e7b3          	or	a5,a5,a4
   2077c:	00004737          	lui	a4,0x4
   20780:	06f70713          	addi	a4,a4,111 # 406f <exit-0xc045>
   20784:	40d70733          	sub	a4,a4,a3
   20788:	40575513          	srai	a0,a4,0x5
   2078c:	00f12e23          	sw	a5,28(sp)
   20790:	01f77713          	andi	a4,a4,31
   20794:	01010613          	addi	a2,sp,16
   20798:	02071263          	bne	a4,zero,207bc <__fixtfsi+0xb8>
   2079c:	00251513          	slli	a0,a0,0x2
   207a0:	00a60633          	add	a2,a2,a0
   207a4:	00062783          	lw	a5,0(a2)
   207a8:	00f12823          	sw	a5,16(sp)
   207ac:	01012503          	lw	a0,16(sp)
   207b0:	fa080ae3          	beq	a6,zero,20764 <__fixtfsi+0x60>
   207b4:	40a00533          	sub	a0,zero,a0
   207b8:	fadff06f          	jal	zero,20764 <__fixtfsi+0x60>
   207bc:	00200893          	addi	a7,zero,2
   207c0:	00000693          	addi	a3,zero,0
   207c4:	03151063          	bne	a0,a7,207e4 <__fixtfsi+0xe0>
   207c8:	02000693          	addi	a3,zero,32
   207cc:	40e686b3          	sub	a3,a3,a4
   207d0:	00d796b3          	sll	a3,a5,a3
   207d4:	00e5d5b3          	srl	a1,a1,a4
   207d8:	00b6e6b3          	or	a3,a3,a1
   207dc:	00d12823          	sw	a3,16(sp)
   207e0:	00100693          	addi	a3,zero,1
   207e4:	00269693          	slli	a3,a3,0x2
   207e8:	00d60633          	add	a2,a2,a3
   207ec:	00e7d7b3          	srl	a5,a5,a4
   207f0:	00f62023          	sw	a5,0(a2)
   207f4:	fb9ff06f          	jal	zero,207ac <__fixtfsi+0xa8>

000207f8 <__floatsitf>:
   207f8:	fd010113          	addi	sp,sp,-48
   207fc:	02912223          	sw	s1,36(sp)
   20800:	02112623          	sw	ra,44(sp)
   20804:	02812423          	sw	s0,40(sp)
   20808:	03212023          	sw	s2,32(sp)
   2080c:	00050493          	addi	s1,a0,0
   20810:	10058e63          	beq	a1,zero,2092c <__floatsitf+0x134>
   20814:	41f5d793          	srai	a5,a1,0x1f
   20818:	00b7c433          	xor	s0,a5,a1
   2081c:	40f40433          	sub	s0,s0,a5
   20820:	00040513          	addi	a0,s0,0
   20824:	01f5d913          	srli	s2,a1,0x1f
   20828:	314000ef          	jal	ra,20b3c <__clzsi2>
   2082c:	000045b7          	lui	a1,0x4
   20830:	01e58593          	addi	a1,a1,30 # 401e <exit-0xc096>
   20834:	40a585b3          	sub	a1,a1,a0
   20838:	05150513          	addi	a0,a0,81
   2083c:	40555793          	srai	a5,a0,0x5
   20840:	00812823          	sw	s0,16(sp)
   20844:	00012a23          	sw	zero,20(sp)
   20848:	00012c23          	sw	zero,24(sp)
   2084c:	00012e23          	sw	zero,28(sp)
   20850:	01f57513          	andi	a0,a0,31
   20854:	01010693          	addi	a3,sp,16
   20858:	02050a63          	beq	a0,zero,2088c <__floatsitf+0x94>
   2085c:	00200713          	addi	a4,zero,2
   20860:	0ce79263          	bne	a5,a4,20924 <__floatsitf+0x12c>
   20864:	02000713          	addi	a4,zero,32
   20868:	40a70733          	sub	a4,a4,a0
   2086c:	00e45733          	srl	a4,s0,a4
   20870:	00e12e23          	sw	a4,28(sp)
   20874:	fff78713          	addi	a4,a5,-1
   20878:	00279793          	slli	a5,a5,0x2
   2087c:	00f687b3          	add	a5,a3,a5
   20880:	00a41433          	sll	s0,s0,a0
   20884:	0087a023          	sw	s0,0(a5)
   20888:	0300006f          	jal	zero,208b8 <__floatsitf+0xc0>
   2088c:	00300713          	addi	a4,zero,3
   20890:	40f70733          	sub	a4,a4,a5
   20894:	00271713          	slli	a4,a4,0x2
   20898:	00e68733          	add	a4,a3,a4
   2089c:	00072703          	lw	a4,0(a4)
   208a0:	00200613          	addi	a2,zero,2
   208a4:	00e12e23          	sw	a4,28(sp)
   208a8:	00060713          	addi	a4,a2,0
   208ac:	00c79663          	bne	a5,a2,208b8 <__floatsitf+0xc0>
   208b0:	00812c23          	sw	s0,24(sp)
   208b4:	00100713          	addi	a4,zero,1
   208b8:	00271713          	slli	a4,a4,0x2
   208bc:	00012823          	sw	zero,16(sp)
   208c0:	0006a223          	sw	zero,4(a3)
   208c4:	ffc70713          	addi	a4,a4,-4
   208c8:	00400793          	addi	a5,zero,4
   208cc:	00f76463          	bltu	a4,a5,208d4 <__floatsitf+0xdc>
   208d0:	00012c23          	sw	zero,24(sp)
   208d4:	01c12783          	lw	a5,28(sp)
   208d8:	02c12083          	lw	ra,44(sp)
   208dc:	02812403          	lw	s0,40(sp)
   208e0:	00f11623          	sh	a5,12(sp)
   208e4:	00f91793          	slli	a5,s2,0xf
   208e8:	00b7e7b3          	or	a5,a5,a1
   208ec:	00f11723          	sh	a5,14(sp)
   208f0:	01012783          	lw	a5,16(sp)
   208f4:	02012903          	lw	s2,32(sp)
   208f8:	00048513          	addi	a0,s1,0
   208fc:	00f4a023          	sw	a5,0(s1)
   20900:	01412783          	lw	a5,20(sp)
   20904:	00f4a223          	sw	a5,4(s1)
   20908:	01812783          	lw	a5,24(sp)
   2090c:	00f4a423          	sw	a5,8(s1)
   20910:	00c12783          	lw	a5,12(sp)
   20914:	00f4a623          	sw	a5,12(s1)
   20918:	02412483          	lw	s1,36(sp)
   2091c:	03010113          	addi	sp,sp,48
   20920:	00008067          	jalr	zero,0(ra)
   20924:	00300793          	addi	a5,zero,3
   20928:	f4dff06f          	jal	zero,20874 <__floatsitf+0x7c>
   2092c:	00012e23          	sw	zero,28(sp)
   20930:	00012c23          	sw	zero,24(sp)
   20934:	00012a23          	sw	zero,20(sp)
   20938:	00012823          	sw	zero,16(sp)
   2093c:	00000913          	addi	s2,zero,0
   20940:	f95ff06f          	jal	zero,208d4 <__floatsitf+0xdc>

00020944 <__extenddftf2>:
   20944:	01465713          	srli	a4,a2,0x14
   20948:	00c61793          	slli	a5,a2,0xc
   2094c:	7ff77713          	andi	a4,a4,2047
   20950:	fd010113          	addi	sp,sp,-48
   20954:	00c7d793          	srli	a5,a5,0xc
   20958:	00170693          	addi	a3,a4,1
   2095c:	02812423          	sw	s0,40(sp)
   20960:	02912223          	sw	s1,36(sp)
   20964:	03212023          	sw	s2,32(sp)
   20968:	02112623          	sw	ra,44(sp)
   2096c:	00b12823          	sw	a1,16(sp)
   20970:	00f12a23          	sw	a5,20(sp)
   20974:	00012e23          	sw	zero,28(sp)
   20978:	00012c23          	sw	zero,24(sp)
   2097c:	7fe6f693          	andi	a3,a3,2046
   20980:	00050913          	addi	s2,a0,0
   20984:	00058493          	addi	s1,a1,0
   20988:	01f65413          	srli	s0,a2,0x1f
   2098c:	08068263          	beq	a3,zero,20a10 <__extenddftf2+0xcc>
   20990:	000046b7          	lui	a3,0x4
   20994:	c0068693          	addi	a3,a3,-1024 # 3c00 <exit-0xc4b4>
   20998:	00d70733          	add	a4,a4,a3
   2099c:	0047d693          	srli	a3,a5,0x4
   209a0:	00d12e23          	sw	a3,28(sp)
   209a4:	01c79793          	slli	a5,a5,0x1c
   209a8:	0045d693          	srli	a3,a1,0x4
   209ac:	00d7e7b3          	or	a5,a5,a3
   209b0:	01c59493          	slli	s1,a1,0x1c
   209b4:	00f12c23          	sw	a5,24(sp)
   209b8:	00912a23          	sw	s1,20(sp)
   209bc:	00012823          	sw	zero,16(sp)
   209c0:	01c12783          	lw	a5,28(sp)
   209c4:	00f41413          	slli	s0,s0,0xf
   209c8:	00e46433          	or	s0,s0,a4
   209cc:	00f11623          	sh	a5,12(sp)
   209d0:	01012783          	lw	a5,16(sp)
   209d4:	00811723          	sh	s0,14(sp)
   209d8:	02c12083          	lw	ra,44(sp)
   209dc:	00f92023          	sw	a5,0(s2)
   209e0:	01412783          	lw	a5,20(sp)
   209e4:	02812403          	lw	s0,40(sp)
   209e8:	02412483          	lw	s1,36(sp)
   209ec:	00f92223          	sw	a5,4(s2)
   209f0:	01812783          	lw	a5,24(sp)
   209f4:	00090513          	addi	a0,s2,0
   209f8:	00f92423          	sw	a5,8(s2)
   209fc:	00c12783          	lw	a5,12(sp)
   20a00:	00f92623          	sw	a5,12(s2)
   20a04:	02012903          	lw	s2,32(sp)
   20a08:	03010113          	addi	sp,sp,48
   20a0c:	00008067          	jalr	zero,0(ra)
   20a10:	00b7e533          	or	a0,a5,a1
   20a14:	0e071663          	bne	a4,zero,20b00 <__extenddftf2+0x1bc>
   20a18:	fa0504e3          	beq	a0,zero,209c0 <__extenddftf2+0x7c>
   20a1c:	04078663          	beq	a5,zero,20a68 <__extenddftf2+0x124>
   20a20:	00078513          	addi	a0,a5,0
   20a24:	118000ef          	jal	ra,20b3c <__clzsi2>
   20a28:	03150693          	addi	a3,a0,49
   20a2c:	4056d713          	srai	a4,a3,0x5
   20a30:	01f6f693          	andi	a3,a3,31
   20a34:	01c10793          	addi	a5,sp,28
   20a38:	02068e63          	beq	a3,zero,20a74 <__extenddftf2+0x130>
   20a3c:	02000813          	addi	a6,zero,32
   20a40:	00271593          	slli	a1,a4,0x2
   20a44:	40d80833          	sub	a6,a6,a3
   20a48:	01010313          	addi	t1,sp,16
   20a4c:	40b787b3          	sub	a5,a5,a1
   20a50:	08679663          	bne	a5,t1,20adc <__extenddftf2+0x198>
   20a54:	00b787b3          	add	a5,a5,a1
   20a58:	00d496b3          	sll	a3,s1,a3
   20a5c:	fff70713          	addi	a4,a4,-1
   20a60:	00d7a023          	sw	a3,0(a5)
   20a64:	0380006f          	jal	zero,20a9c <__extenddftf2+0x158>
   20a68:	0d4000ef          	jal	ra,20b3c <__clzsi2>
   20a6c:	02050513          	addi	a0,a0,32
   20a70:	fb9ff06f          	jal	zero,20a28 <__extenddftf2+0xe4>
   20a74:	ffc00613          	addi	a2,zero,-4
   20a78:	02c70633          	mul	a2,a4,a2
   20a7c:	00300693          	addi	a3,zero,3
   20a80:	00c785b3          	add	a1,a5,a2
   20a84:	0005a583          	lw	a1,0(a1)
   20a88:	fff68693          	addi	a3,a3,-1
   20a8c:	ffc78793          	addi	a5,a5,-4
   20a90:	00b7a223          	sw	a1,4(a5)
   20a94:	fee6d6e3          	bge	a3,a4,20a80 <__extenddftf2+0x13c>
   20a98:	fff70713          	addi	a4,a4,-1
   20a9c:	00170713          	addi	a4,a4,1
   20aa0:	00271713          	slli	a4,a4,0x2
   20aa4:	00800693          	addi	a3,zero,8
   20aa8:	01010793          	addi	a5,sp,16
   20aac:	00d76a63          	bltu	a4,a3,20ac0 <__extenddftf2+0x17c>
   20ab0:	00012823          	sw	zero,16(sp)
   20ab4:	0007a223          	sw	zero,4(a5)
   20ab8:	ff870713          	addi	a4,a4,-8
   20abc:	01810793          	addi	a5,sp,24
   20ac0:	00400693          	addi	a3,zero,4
   20ac4:	00d76463          	bltu	a4,a3,20acc <__extenddftf2+0x188>
   20ac8:	0007a023          	sw	zero,0(a5)
   20acc:	00004737          	lui	a4,0x4
   20ad0:	c0c70713          	addi	a4,a4,-1012 # 3c0c <exit-0xc4a8>
   20ad4:	40a70733          	sub	a4,a4,a0
   20ad8:	ee9ff06f          	jal	zero,209c0 <__extenddftf2+0x7c>
   20adc:	0007a603          	lw	a2,0(a5)
   20ae0:	ffc7a883          	lw	a7,-4(a5)
   20ae4:	00b78e33          	add	t3,a5,a1
   20ae8:	00d61633          	sll	a2,a2,a3
   20aec:	0108d8b3          	srl	a7,a7,a6
   20af0:	01166633          	or	a2,a2,a7
   20af4:	00ce2023          	sw	a2,0(t3)
   20af8:	ffc78793          	addi	a5,a5,-4
   20afc:	f55ff06f          	jal	zero,20a50 <__extenddftf2+0x10c>
   20b00:	02050863          	beq	a0,zero,20b30 <__extenddftf2+0x1ec>
   20b04:	01c79713          	slli	a4,a5,0x1c
   20b08:	0045d693          	srli	a3,a1,0x4
   20b0c:	00d76733          	or	a4,a4,a3
   20b10:	00e12c23          	sw	a4,24(sp)
   20b14:	0047d793          	srli	a5,a5,0x4
   20b18:	00008737          	lui	a4,0x8
   20b1c:	01c59493          	slli	s1,a1,0x1c
   20b20:	00e7e7b3          	or	a5,a5,a4
   20b24:	00912a23          	sw	s1,20(sp)
   20b28:	00012823          	sw	zero,16(sp)
   20b2c:	00f12e23          	sw	a5,28(sp)
   20b30:	00008737          	lui	a4,0x8
   20b34:	fff70713          	addi	a4,a4,-1 # 7fff <exit-0x80b5>
   20b38:	e89ff06f          	jal	zero,209c0 <__extenddftf2+0x7c>

00020b3c <__clzsi2>:
   20b3c:	000107b7          	lui	a5,0x10
   20b40:	02f57a63          	bgeu	a0,a5,20b74 <__clzsi2+0x38>
   20b44:	10053793          	sltiu	a5,a0,256
   20b48:	0017b793          	sltiu	a5,a5,1
   20b4c:	00379793          	slli	a5,a5,0x3
   20b50:	000b4737          	lui	a4,0xb4
   20b54:	00f55533          	srl	a0,a0,a5
   20b58:	a6470713          	addi	a4,a4,-1436 # b3a64 <__clz_tab>
   20b5c:	00a70733          	add	a4,a4,a0
   20b60:	00074503          	lbu	a0,0(a4)
   20b64:	02000693          	addi	a3,zero,32
   20b68:	40f686b3          	sub	a3,a3,a5
   20b6c:	40a68533          	sub	a0,a3,a0
   20b70:	00008067          	jalr	zero,0(ra)
   20b74:	01000737          	lui	a4,0x1000
   20b78:	01800793          	addi	a5,zero,24
   20b7c:	fce57ae3          	bgeu	a0,a4,20b50 <__clzsi2+0x14>
   20b80:	01000793          	addi	a5,zero,16
   20b84:	fcdff06f          	jal	zero,20b50 <__clzsi2+0x14>
