
./qsort_large_O0:     file format elf32-littleriscv


Disassembly of section .text:

000100b4 <exit>:
   100b4:	1141                	c.addi	sp,-16
   100b6:	4581                	c.li	a1,0
   100b8:	c422                	c.swsp	s0,8(sp)
   100ba:	c606                	c.swsp	ra,12(sp)
   100bc:	842a                	c.mv	s0,a0
   100be:	6fb010ef          	jal	ra,11fb8 <__call_exitprocs>
   100c2:	fdc1a783          	lw	a5,-36(gp) # 287ec <__stdio_exit_handler>
   100c6:	c391                	c.beqz	a5,100ca <exit+0x16>
   100c8:	9782                	c.jalr	a5
   100ca:	8522                	c.mv	a0,s0
   100cc:	618120ef          	jal	ra,226e4 <_exit>

000100d0 <register_fini>:
   100d0:	00000793          	addi	a5,zero,0
   100d4:	c791                	c.beqz	a5,100e0 <register_fini+0x10>
   100d6:	6561                	c.lui	a0,0x18
   100d8:	47850513          	addi	a0,a0,1144 # 18478 <__libc_fini_array>
   100dc:	7ab0106f          	jal	zero,12086 <atexit>
   100e0:	8082                	c.jr	ra

000100e2 <_start>:
   100e2:	00018197          	auipc	gp,0x18
   100e6:	72e18193          	addi	gp,gp,1838 # 28810 <object.0>
   100ea:	00018517          	auipc	a0,0x18
   100ee:	70250513          	addi	a0,a0,1794 # 287ec <__stdio_exit_handler>
   100f2:	00019617          	auipc	a2,0x19
   100f6:	a2660613          	addi	a2,a2,-1498 # 28b18 <__BSS_END__>
   100fa:	8e09                	c.sub	a2,a0
   100fc:	4581                	c.li	a1,0
   100fe:	613010ef          	jal	ra,11f10 <memset>
   10102:	00002517          	auipc	a0,0x2
   10106:	f8450513          	addi	a0,a0,-124 # 12086 <atexit>
   1010a:	c519                	c.beqz	a0,10118 <_start+0x36>
   1010c:	00008517          	auipc	a0,0x8
   10110:	36c50513          	addi	a0,a0,876 # 18478 <__libc_fini_array>
   10114:	773010ef          	jal	ra,12086 <atexit>
   10118:	58f010ef          	jal	ra,11ea6 <__libc_init_array>
   1011c:	4502                	c.lwsp	a0,0(sp)
   1011e:	004c                	c.addi4spn	a1,sp,4
   10120:	4601                	c.li	a2,0
   10122:	205d                	c.jal	101c8 <main>
   10124:	bf41                	c.j	100b4 <exit>

00010126 <__do_global_dtors_aux>:
   10126:	1141                	c.addi	sp,-16
   10128:	c422                	c.swsp	s0,8(sp)
   1012a:	ffc1c783          	lbu	a5,-4(gp) # 2880c <completed.1>
   1012e:	c606                	c.swsp	ra,12(sp)
   10130:	ef99                	c.bnez	a5,1014e <__do_global_dtors_aux+0x28>
   10132:	00000793          	addi	a5,zero,0
   10136:	cb89                	c.beqz	a5,10148 <__do_global_dtors_aux+0x22>
   10138:	00028537          	lui	a0,0x28
   1013c:	d5050513          	addi	a0,a0,-688 # 27d50 <__EH_FRAME_BEGIN__>
   10140:	00000097          	auipc	ra,0x0
   10144:	000000e7          	jalr	ra,0(zero) # 0 <exit-0x100b4>
   10148:	4785                	c.li	a5,1
   1014a:	fef18e23          	sb	a5,-4(gp) # 2880c <completed.1>
   1014e:	40b2                	c.lwsp	ra,12(sp)
   10150:	4422                	c.lwsp	s0,8(sp)
   10152:	0141                	c.addi	sp,16
   10154:	8082                	c.jr	ra

00010156 <frame_dummy>:
   10156:	00000793          	addi	a5,zero,0
   1015a:	cb99                	c.beqz	a5,10170 <frame_dummy+0x1a>
   1015c:	00028537          	lui	a0,0x28
   10160:	00018593          	addi	a1,gp,0 # 28810 <object.0>
   10164:	d5050513          	addi	a0,a0,-688 # 27d50 <__EH_FRAME_BEGIN__>
   10168:	00000317          	auipc	t1,0x0
   1016c:	00000067          	jalr	zero,0(zero) # 0 <exit-0x100b4>
   10170:	8082                	c.jr	ra

00010172 <compare>:
   10172:	7179                	c.addi16sp	sp,-48
   10174:	d606                	c.swsp	ra,44(sp)
   10176:	d422                	c.swsp	s0,40(sp)
   10178:	1800                	c.addi4spn	s0,sp,48
   1017a:	fca42e23          	sw	a0,-36(s0)
   1017e:	fcb42c23          	sw	a1,-40(s0)
   10182:	fdc42783          	lw	a5,-36(s0)
   10186:	2b9c                	c.fld	fa5,16(a5)
   10188:	fef43427          	fsd	fa5,-24(s0)
   1018c:	fd842783          	lw	a5,-40(s0)
   10190:	2b9c                	c.fld	fa5,16(a5)
   10192:	fef43027          	fsd	fa5,-32(s0)
   10196:	fe843707          	fld	fa4,-24(s0)
   1019a:	fe043787          	fld	fa5,-32(s0)
   1019e:	a2e797d3          	flt.d	a5,fa5,fa4
   101a2:	e391                	c.bnez	a5,101a6 <compare+0x34>
   101a4:	a019                	c.j	101aa <compare+0x38>
   101a6:	4785                	c.li	a5,1
   101a8:	a819                	c.j	101be <compare+0x4c>
   101aa:	fe843707          	fld	fa4,-24(s0)
   101ae:	fe043787          	fld	fa5,-32(s0)
   101b2:	a2f727d3          	feq.d	a5,fa4,fa5
   101b6:	c399                	c.beqz	a5,101bc <compare+0x4a>
   101b8:	4781                	c.li	a5,0
   101ba:	a011                	c.j	101be <compare+0x4c>
   101bc:	57fd                	c.li	a5,-1
   101be:	853e                	c.mv	a0,a5
   101c0:	50b2                	c.lwsp	ra,44(sp)
   101c2:	5422                	c.lwsp	s0,40(sp)
   101c4:	6145                	c.addi16sp	sp,48
   101c6:	8082                	c.jr	ra

000101c8 <main>:
   101c8:	1101                	c.addi	sp,-32
   101ca:	ce06                	c.swsp	ra,28(sp)
   101cc:	cc22                	c.swsp	s0,24(sp)
   101ce:	a422                	c.fsdsp	fs0,8(sp)
   101d0:	1000                	c.addi4spn	s0,sp,32
   101d2:	ffea02b7          	lui	t0,0xffea0
   101d6:	6d028293          	addi	t0,t0,1744 # ffea06d0 <__BSS_END__+0xffe77bb8>
   101da:	9116                	c.add	sp,t0
   101dc:	ffea07b7          	lui	a5,0xffea0
   101e0:	1781                	c.addi	a5,-32 # ffe9ffe0 <__BSS_END__+0xffe774c8>
   101e2:	97a2                	c.add	a5,s0
   101e4:	6ca7ae23          	sw	a0,1756(a5)
   101e8:	ffea07b7          	lui	a5,0xffea0
   101ec:	1781                	c.addi	a5,-32 # ffe9ffe0 <__BSS_END__+0xffe774c8>
   101ee:	97a2                	c.add	a5,s0
   101f0:	6cb7ac23          	sw	a1,1752(a5)
   101f4:	fc042c23          	sw	zero,-40(s0)
   101f8:	ffea07b7          	lui	a5,0xffea0
   101fc:	1781                	c.addi	a5,-32 # ffe9ffe0 <__BSS_END__+0xffe774c8>
   101fe:	97a2                	c.add	a5,s0
   10200:	6dc7a703          	lw	a4,1756(a5)
   10204:	4785                	c.li	a5,1
   10206:	02e7c063          	blt	a5,a4,10226 <main+0x5e>
   1020a:	fcc1a783          	lw	a5,-52(gp) # 287dc <_impure_ptr>
   1020e:	47dc                	c.lw	a5,12(a5)
   10210:	86be                	c.mv	a3,a5
   10212:	4669                	c.li	a2,26
   10214:	4585                	c.li	a1,1
   10216:	000257b7          	lui	a5,0x25
   1021a:	30878513          	addi	a0,a5,776 # 25308 <__clzsi2+0x40>
   1021e:	5d4010ef          	jal	ra,117f2 <fwrite>
   10222:	557d                	c.li	a0,-1
   10224:	3d41                	c.jal	100b4 <exit>
   10226:	ffea07b7          	lui	a5,0xffea0
   1022a:	1781                	c.addi	a5,-32 # ffe9ffe0 <__BSS_END__+0xffe774c8>
   1022c:	97a2                	c.add	a5,s0
   1022e:	6d87a783          	lw	a5,1752(a5)
   10232:	0791                	c.addi	a5,4
   10234:	4398                	c.lw	a4,0(a5)
   10236:	000257b7          	lui	a5,0x25
   1023a:	32478593          	addi	a1,a5,804 # 25324 <__clzsi2+0x5c>
   1023e:	853a                	c.mv	a0,a4
   10240:	444010ef          	jal	ra,11684 <fopen>
   10244:	fca42a23          	sw	a0,-44(s0)
   10248:	a215                	c.j	1036c <main+0x1a4>
   1024a:	ffea07b7          	lui	a5,0xffea0
   1024e:	1781                	c.addi	a5,-32 # ffe9ffe0 <__BSS_END__+0xffe774c8>
   10250:	97a2                	c.add	a5,s0
   10252:	6ec7a683          	lw	a3,1772(a5)
   10256:	ffea07b7          	lui	a5,0xffea0
   1025a:	1781                	c.addi	a5,-32 # ffe9ffe0 <__BSS_END__+0xffe774c8>
   1025c:	00878633          	add	a2,a5,s0
   10260:	fd842703          	lw	a4,-40(s0)
   10264:	87ba                	c.mv	a5,a4
   10266:	0786                	c.slli	a5,0x1
   10268:	97ba                	c.add	a5,a4
   1026a:	078e                	c.slli	a5,0x3
   1026c:	97b2                	c.add	a5,a2
   1026e:	6ed7a823          	sw	a3,1776(a5)
   10272:	ffea07b7          	lui	a5,0xffea0
   10276:	1781                	c.addi	a5,-32 # ffe9ffe0 <__BSS_END__+0xffe774c8>
   10278:	97a2                	c.add	a5,s0
   1027a:	6e87a683          	lw	a3,1768(a5)
   1027e:	ffea07b7          	lui	a5,0xffea0
   10282:	1781                	c.addi	a5,-32 # ffe9ffe0 <__BSS_END__+0xffe774c8>
   10284:	00878633          	add	a2,a5,s0
   10288:	fd842703          	lw	a4,-40(s0)
   1028c:	87ba                	c.mv	a5,a4
   1028e:	0786                	c.slli	a5,0x1
   10290:	97ba                	c.add	a5,a4
   10292:	078e                	c.slli	a5,0x3
   10294:	97b2                	c.add	a5,a2
   10296:	6ed7aa23          	sw	a3,1780(a5)
   1029a:	ffea07b7          	lui	a5,0xffea0
   1029e:	1781                	c.addi	a5,-32 # ffe9ffe0 <__BSS_END__+0xffe774c8>
   102a0:	97a2                	c.add	a5,s0
   102a2:	6e47a683          	lw	a3,1764(a5)
   102a6:	ffea07b7          	lui	a5,0xffea0
   102aa:	1781                	c.addi	a5,-32 # ffe9ffe0 <__BSS_END__+0xffe774c8>
   102ac:	00878633          	add	a2,a5,s0
   102b0:	fd842703          	lw	a4,-40(s0)
   102b4:	87ba                	c.mv	a5,a4
   102b6:	0786                	c.slli	a5,0x1
   102b8:	97ba                	c.add	a5,a4
   102ba:	078e                	c.slli	a5,0x3
   102bc:	97b2                	c.add	a5,a2
   102be:	6ed7ac23          	sw	a3,1784(a5)
   102c2:	ffea07b7          	lui	a5,0xffea0
   102c6:	1781                	c.addi	a5,-32 # ffe9ffe0 <__BSS_END__+0xffe774c8>
   102c8:	97a2                	c.add	a5,s0
   102ca:	6ec7a783          	lw	a5,1772(a5)
   102ce:	d20787d3          	fcvt.d.w	fa5,a5
   102d2:	000257b7          	lui	a5,0x25
   102d6:	3787b707          	fld	fa4,888(a5) # 25378 <__clzsi2+0xb0>
   102da:	22e705d3          	fsgnj.d	fa1,fa4,fa4
   102de:	22f78553          	fsgnj.d	fa0,fa5,fa5
   102e2:	2439                	c.jal	104f0 <pow>
   102e4:	22a50453          	fsgnj.d	fs0,fa0,fa0
   102e8:	ffea07b7          	lui	a5,0xffea0
   102ec:	1781                	c.addi	a5,-32 # ffe9ffe0 <__BSS_END__+0xffe774c8>
   102ee:	97a2                	c.add	a5,s0
   102f0:	6e87a783          	lw	a5,1768(a5)
   102f4:	d20787d3          	fcvt.d.w	fa5,a5
   102f8:	000257b7          	lui	a5,0x25
   102fc:	3787b707          	fld	fa4,888(a5) # 25378 <__clzsi2+0xb0>
   10300:	22e705d3          	fsgnj.d	fa1,fa4,fa4
   10304:	22f78553          	fsgnj.d	fa0,fa5,fa5
   10308:	22e5                	c.jal	104f0 <pow>
   1030a:	22a507d3          	fsgnj.d	fa5,fa0,fa0
   1030e:	02f47453          	fadd.d	fs0,fs0,fa5
   10312:	ffea07b7          	lui	a5,0xffea0
   10316:	1781                	c.addi	a5,-32 # ffe9ffe0 <__BSS_END__+0xffe774c8>
   10318:	97a2                	c.add	a5,s0
   1031a:	6e47a783          	lw	a5,1764(a5)
   1031e:	d20787d3          	fcvt.d.w	fa5,a5
   10322:	000257b7          	lui	a5,0x25
   10326:	3787b707          	fld	fa4,888(a5) # 25378 <__clzsi2+0xb0>
   1032a:	22e705d3          	fsgnj.d	fa1,fa4,fa4
   1032e:	22f78553          	fsgnj.d	fa0,fa5,fa5
   10332:	2a7d                	c.jal	104f0 <pow>
   10334:	22a507d3          	fsgnj.d	fa5,fa0,fa0
   10338:	02f477d3          	fadd.d	fa5,fs0,fa5
   1033c:	22f78553          	fsgnj.d	fa0,fa5,fa5
   10340:	2a8d                	c.jal	104b2 <sqrt>
   10342:	22a507d3          	fsgnj.d	fa5,fa0,fa0
   10346:	ffea07b7          	lui	a5,0xffea0
   1034a:	1781                	c.addi	a5,-32 # ffe9ffe0 <__BSS_END__+0xffe774c8>
   1034c:	008786b3          	add	a3,a5,s0
   10350:	fd842703          	lw	a4,-40(s0)
   10354:	87ba                	c.mv	a5,a4
   10356:	0786                	c.slli	a5,0x1
   10358:	97ba                	c.add	a5,a4
   1035a:	078e                	c.slli	a5,0x3
   1035c:	97b6                	c.add	a5,a3
   1035e:	70f7b027          	fsd	fa5,1792(a5)
   10362:	fd842783          	lw	a5,-40(s0)
   10366:	0785                	c.addi	a5,1
   10368:	fcf42c23          	sw	a5,-40(s0)
   1036c:	ffea07b7          	lui	a5,0xffea0
   10370:	6ec78793          	addi	a5,a5,1772 # ffea06ec <__BSS_END__+0xffe77bd4>
   10374:	1781                	c.addi	a5,-32
   10376:	97a2                	c.add	a5,s0
   10378:	863e                	c.mv	a2,a5
   1037a:	000257b7          	lui	a5,0x25
   1037e:	32878593          	addi	a1,a5,808 # 25328 <__clzsi2+0x60>
   10382:	fd442503          	lw	a0,-44(s0)
   10386:	30a010ef          	jal	ra,11690 <fscanf>
   1038a:	872a                	c.mv	a4,a0
   1038c:	4785                	c.li	a5,1
   1038e:	04f71f63          	bne	a4,a5,103ec <main+0x224>
   10392:	ffea07b7          	lui	a5,0xffea0
   10396:	6e878793          	addi	a5,a5,1768 # ffea06e8 <__BSS_END__+0xffe77bd0>
   1039a:	1781                	c.addi	a5,-32
   1039c:	97a2                	c.add	a5,s0
   1039e:	863e                	c.mv	a2,a5
   103a0:	000257b7          	lui	a5,0x25
   103a4:	32878593          	addi	a1,a5,808 # 25328 <__clzsi2+0x60>
   103a8:	fd442503          	lw	a0,-44(s0)
   103ac:	2e4010ef          	jal	ra,11690 <fscanf>
   103b0:	872a                	c.mv	a4,a0
   103b2:	4785                	c.li	a5,1
   103b4:	02f71c63          	bne	a4,a5,103ec <main+0x224>
   103b8:	ffea07b7          	lui	a5,0xffea0
   103bc:	6e478793          	addi	a5,a5,1764 # ffea06e4 <__BSS_END__+0xffe77bcc>
   103c0:	1781                	c.addi	a5,-32
   103c2:	97a2                	c.add	a5,s0
   103c4:	863e                	c.mv	a2,a5
   103c6:	000257b7          	lui	a5,0x25
   103ca:	32878593          	addi	a1,a5,808 # 25328 <__clzsi2+0x60>
   103ce:	fd442503          	lw	a0,-44(s0)
   103d2:	2be010ef          	jal	ra,11690 <fscanf>
   103d6:	872a                	c.mv	a4,a0
   103d8:	4785                	c.li	a5,1
   103da:	00f71963          	bne	a4,a5,103ec <main+0x224>
   103de:	fd842703          	lw	a4,-40(s0)
   103e2:	67bd                	c.lui	a5,0xf
   103e4:	a5f78793          	addi	a5,a5,-1441 # ea5f <exit-0x1655>
   103e8:	e6e7d1e3          	bge	a5,a4,1024a <main+0x82>
   103ec:	fd842583          	lw	a1,-40(s0)
   103f0:	000257b7          	lui	a5,0x25
   103f4:	32c78513          	addi	a0,a5,812 # 2532c <__clzsi2+0x64>
   103f8:	4b8010ef          	jal	ra,118b0 <printf>
   103fc:	fd842583          	lw	a1,-40(s0)
   10400:	ffea07b7          	lui	a5,0xffea0
   10404:	6f078793          	addi	a5,a5,1776 # ffea06f0 <__BSS_END__+0xffe77bd8>
   10408:	1781                	c.addi	a5,-32
   1040a:	00878733          	add	a4,a5,s0
   1040e:	67c1                	c.lui	a5,0x10
   10410:	17278693          	addi	a3,a5,370 # 10172 <compare>
   10414:	4661                	c.li	a2,24
   10416:	853a                	c.mv	a0,a4
   10418:	171000ef          	jal	ra,10d88 <qsort>
   1041c:	fc042e23          	sw	zero,-36(s0)
   10420:	a0bd                	c.j	1048e <main+0x2c6>
   10422:	ffea07b7          	lui	a5,0xffea0
   10426:	1781                	c.addi	a5,-32 # ffe9ffe0 <__BSS_END__+0xffe774c8>
   10428:	008786b3          	add	a3,a5,s0
   1042c:	fdc42703          	lw	a4,-36(s0)
   10430:	87ba                	c.mv	a5,a4
   10432:	0786                	c.slli	a5,0x1
   10434:	97ba                	c.add	a5,a4
   10436:	078e                	c.slli	a5,0x3
   10438:	97b6                	c.add	a5,a3
   1043a:	6f07a583          	lw	a1,1776(a5)
   1043e:	ffea07b7          	lui	a5,0xffea0
   10442:	1781                	c.addi	a5,-32 # ffe9ffe0 <__BSS_END__+0xffe774c8>
   10444:	008786b3          	add	a3,a5,s0
   10448:	fdc42703          	lw	a4,-36(s0)
   1044c:	87ba                	c.mv	a5,a4
   1044e:	0786                	c.slli	a5,0x1
   10450:	97ba                	c.add	a5,a4
   10452:	078e                	c.slli	a5,0x3
   10454:	97b6                	c.add	a5,a3
   10456:	6f47a603          	lw	a2,1780(a5)
   1045a:	ffea07b7          	lui	a5,0xffea0
   1045e:	1781                	c.addi	a5,-32 # ffe9ffe0 <__BSS_END__+0xffe774c8>
   10460:	008786b3          	add	a3,a5,s0
   10464:	fdc42703          	lw	a4,-36(s0)
   10468:	87ba                	c.mv	a5,a4
   1046a:	0786                	c.slli	a5,0x1
   1046c:	97ba                	c.add	a5,a4
   1046e:	078e                	c.slli	a5,0x3
   10470:	97b6                	c.add	a5,a3
   10472:	6f87a783          	lw	a5,1784(a5)
   10476:	86be                	c.mv	a3,a5
   10478:	000257b7          	lui	a5,0x25
   1047c:	36878513          	addi	a0,a5,872 # 25368 <__clzsi2+0xa0>
   10480:	430010ef          	jal	ra,118b0 <printf>
   10484:	fdc42783          	lw	a5,-36(s0)
   10488:	0785                	c.addi	a5,1
   1048a:	fcf42e23          	sw	a5,-36(s0)
   1048e:	fdc42703          	lw	a4,-36(s0)
   10492:	fd842783          	lw	a5,-40(s0)
   10496:	f8f746e3          	blt	a4,a5,10422 <main+0x25a>
   1049a:	4781                	c.li	a5,0
   1049c:	853e                	c.mv	a0,a5
   1049e:	001602b7          	lui	t0,0x160
   104a2:	93028293          	addi	t0,t0,-1744 # 15f930 <__BSS_END__+0x136e18>
   104a6:	9116                	c.add	sp,t0
   104a8:	40f2                	c.lwsp	ra,28(sp)
   104aa:	4462                	c.lwsp	s0,24(sp)
   104ac:	2422                	c.fldsp	fs0,8(sp)
   104ae:	6105                	c.addi16sp	sp,32
   104b0:	8082                	c.jr	ra

000104b2 <sqrt>:
   104b2:	1101                	c.addi	sp,-32
   104b4:	a422                	c.fsdsp	fs0,8(sp)
   104b6:	22a50453          	fsgnj.d	fs0,fa0,fa0
   104ba:	ce06                	c.swsp	ra,28(sp)
   104bc:	2db9                	c.jal	10b1a <__ieee754_sqrt>
   104be:	a28427d3          	feq.d	a5,fs0,fs0
   104c2:	c791                	c.beqz	a5,104ce <sqrt+0x1c>
   104c4:	d20007d3          	fcvt.d.w	fa5,zero
   104c8:	a2f417d3          	flt.d	a5,fs0,fa5
   104cc:	e789                	c.bnez	a5,104d6 <sqrt+0x24>
   104ce:	40f2                	c.lwsp	ra,28(sp)
   104d0:	2422                	c.fldsp	fs0,8(sp)
   104d2:	6105                	c.addi16sp	sp,32
   104d4:	8082                	c.jr	ra
   104d6:	1cb010ef          	jal	ra,11ea0 <__errno>
   104da:	40f2                	c.lwsp	ra,28(sp)
   104dc:	d20007d3          	fcvt.d.w	fa5,zero
   104e0:	02100793          	addi	a5,zero,33
   104e4:	c11c                	c.sw	a5,0(a0)
   104e6:	2422                	c.fldsp	fs0,8(sp)
   104e8:	1af7f553          	fdiv.d	fa0,fa5,fa5
   104ec:	6105                	c.addi16sp	sp,32
   104ee:	8082                	c.jr	ra

000104f0 <pow>:
   104f0:	715d                	c.addi16sp	sp,-80
   104f2:	a42a                	c.fsdsp	fa0,8(sp)
   104f4:	c4a6                	c.swsp	s1,72(sp)
   104f6:	44b2                	c.lwsp	s1,12(sp)
   104f8:	c6a2                	c.swsp	s0,76(sp)
   104fa:	4422                	c.lwsp	s0,8(sp)
   104fc:	a42e                	c.fsdsp	fa1,8(sp)
   104fe:	4332                	c.lwsp	t1,12(sp)
   10500:	0144d613          	srli	a2,s1,0x14
   10504:	7fd00693          	addi	a3,zero,2045
   10508:	fff60513          	addi	a0,a2,-1
   1050c:	88a2                	c.mv	a7,s0
   1050e:	8826                	c.mv	a6,s1
   10510:	01435593          	srli	a1,t1,0x14
   10514:	18a6ed63          	bltu	a3,a0,106ae <pow+0x1be>
   10518:	7ff5f693          	andi	a3,a1,2047
   1051c:	c4268313          	addi	t1,a3,-958
   10520:	07f00613          	addi	a2,zero,127
   10524:	4501                	c.li	a0,0
   10526:	26666963          	bltu	a2,t1,10798 <pow+0x2a8>
   1052a:	c01975b7          	lui	a1,0xc0197
   1052e:	aab58593          	addi	a1,a1,-1365 # c0196aab <__BSS_END__+0xc016df93>
   10532:	95c2                	c.add	a1,a6
   10534:	00d5d613          	srli	a2,a1,0xd
   10538:	07f67613          	andi	a2,a2,127
   1053c:	000256b7          	lui	a3,0x25
   10540:	38068693          	addi	a3,a3,896 # 25380 <__pow_log_data>
   10544:	00561793          	slli	a5,a2,0x5
   10548:	0616                	c.slli	a2,0x5
   1054a:	9636                	c.add	a2,a3
   1054c:	4145d713          	srai	a4,a1,0x14
   10550:	fff00e37          	lui	t3,0xfff00
   10554:	d2070753          	fcvt.d.w	fa4,a4
   10558:	2e2c                	c.fld	fa1,88(a2)
   1055a:	97b6                	c.add	a5,a3
   1055c:	2290                	c.fld	fa2,0(a3)
   1055e:	01c5f5b3          	and	a1,a1,t3
   10562:	27b4                	c.fld	fa3,72(a5)
   10564:	40b807b3          	sub	a5,a6,a1
   10568:	ca3e                	c.swsp	a5,20(sp)
   1056a:	c846                	c.swsp	a7,16(sp)
   1056c:	5ac77643          	fmadd.d	fa2,fa4,fa2,fa1
   10570:	ec01b787          	fld	fa5,-320(gp) # 286d0 <__SDATA_BEGIN__+0x8>
   10574:	25c2                	c.fldsp	fa1,16(sp)
   10576:	2688                	c.fld	fa0,8(a3)
   10578:	0106b007          	fld	ft0,16(a3)
   1057c:	7ad5f7c3          	fmadd.d	fa5,fa1,fa3,fa5
   10580:	3234                	c.fld	fa3,96(a2)
   10582:	0206b107          	fld	ft2,32(a3)
   10586:	368c                	c.fld	fa1,40(a3)
   10588:	6aa776c3          	fmadd.d	fa3,fa4,fa0,fa3
   1058c:	2e98                	c.fld	fa4,24(a3)
   1058e:	0306b187          	fld	ft3,48(a3)
   10592:	02c7f553          	fadd.d	fa0,fa5,fa2
   10596:	1207f053          	fmul.d	ft0,fa5,ft0
   1059a:	7227f143          	fmadd.d	ft2,fa5,ft2,fa4
   1059e:	5a37f1c3          	fmadd.d	ft3,fa5,ft3,fa1
   105a2:	0386b207          	fld	ft4,56(a3)
   105a6:	22ac                	c.fld	fa1,64(a3)
   105a8:	03e00713          	addi	a4,zero,62
   105ac:	0aa67653          	fsub.d	fa2,fa2,fa0
   105b0:	1207f0d3          	fmul.d	ft1,fa5,ft0
   105b4:	22b7f5c3          	fmadd.d	fa1,fa5,fa1,ft4
   105b8:	02f67653          	fadd.d	fa2,fa2,fa5
   105bc:	02157753          	fadd.d	fa4,fa0,ft1
   105c0:	0a07f047          	fmsub.d	ft0,fa5,ft0,ft1
   105c4:	1ab0f5c3          	fmadd.d	fa1,ft1,fa1,ft3
   105c8:	1217f7d3          	fmul.d	fa5,fa5,ft1
   105cc:	02c6f6d3          	fadd.d	fa3,fa3,fa2
   105d0:	0ae57553          	fsub.d	fa0,fa0,fa4
   105d4:	12b0f643          	fmadd.d	fa2,ft1,fa1,ft2
   105d8:	0206f6d3          	fadd.d	fa3,fa3,ft0
   105dc:	02157553          	fadd.d	fa0,fa0,ft1
   105e0:	02a6f6d3          	fadd.d	fa3,fa3,fa0
   105e4:	6ac7f7c3          	fmadd.d	fa5,fa5,fa2,fa3
   105e8:	26a2                	c.fldsp	fa3,8(sp)
   105ea:	02f77653          	fadd.d	fa2,fa4,fa5
   105ee:	12c6f6d3          	fmul.d	fa3,fa3,fa2
   105f2:	a836                	c.fsdsp	fa3,16(sp)
   105f4:	47d2                	c.lwsp	a5,20(sp)
   105f6:	46d2                	c.lwsp	a3,20(sp)
   105f8:	0147d613          	srli	a2,a5,0x14
   105fc:	7ff67613          	andi	a2,a2,2047
   10600:	c3760793          	addi	a5,a2,-969
   10604:	1ef76563          	bltu	a4,a5,107ee <pow+0x2fe>
   10608:	000267b7          	lui	a5,0x26
   1060c:	3c878793          	addi	a5,a5,968 # 263c8 <__exp_data>
   10610:	2794                	c.fld	fa3,8(a5)
   10612:	0007b007          	fld	ft0,0(a5)
   10616:	25c2                	c.fldsp	fa1,16(sp)
   10618:	0ac77753          	fsub.d	fa4,fa4,fa2
   1061c:	2b88                	c.fld	fa0,16(a5)
   1061e:	6a05f5c3          	fmadd.d	fa1,fa1,ft0,fa3
   10622:	2042                	c.fldsp	ft0,16(sp)
   10624:	0187b107          	fld	ft2,24(a5)
   10628:	0207b087          	fld	ft1,32(a5)
   1062c:	02f777d3          	fadd.d	fa5,fa4,fa5
   10630:	ac2e                	c.fsdsp	fa1,24(sp)
   10632:	25a2                	c.fldsp	fa1,8(sp)
   10634:	2762                	c.fldsp	fa4,24(sp)
   10636:	4862                	c.lwsp	a6,24(sp)
   10638:	02c5f647          	fmsub.d	fa2,fa1,fa2,ft0
   1063c:	0ad77753          	fsub.d	fa4,fa4,fa3
   10640:	26a2                	c.fldsp	fa3,8(sp)
   10642:	07f87713          	andi	a4,a6,127
   10646:	0706                	c.slli	a4,0x1
   10648:	00371693          	slli	a3,a4,0x3
   1064c:	96be                	c.add	a3,a5
   1064e:	62f6f7c3          	fmadd.d	fa5,fa3,fa5,fa2
   10652:	26c2                	c.fldsp	fa3,16(sp)
   10654:	378c                	c.fld	fa1,40(a5)
   10656:	3ab0                	c.fld	fa2,112(a3)
   10658:	6aa776c3          	fmadd.d	fa3,fa4,fa0,fa3
   1065c:	0387b007          	fld	ft0,56(a5)
   10660:	3b88                	c.fld	fa0,48(a5)
   10662:	070e                	c.slli	a4,0x3
   10664:	00e786b3          	add	a3,a5,a4
   10668:	5eec                	c.lw	a1,124(a3)
   1066a:	9542                	c.add	a0,a6
   1066c:	6a277743          	fmadd.d	fa4,fa4,ft2,fa3
   10670:	0536                	c.slli	a0,0xd
   10672:	5eb8                	c.lw	a4,120(a3)
   10674:	00b507b3          	add	a5,a0,a1
   10678:	02e7f7d3          	fadd.d	fa5,fa5,fa4
   1067c:	12f7f753          	fmul.d	fa4,fa5,fa5
   10680:	0ab7f5c3          	fmadd.d	fa1,fa5,fa1,ft1
   10684:	02c7f653          	fadd.d	fa2,fa5,fa2
   10688:	5207f7c3          	fmadd.d	fa5,fa5,ft0,fa0
   1068c:	12e776d3          	fmul.d	fa3,fa4,fa4
   10690:	62b77743          	fmadd.d	fa4,fa4,fa1,fa2
   10694:	72f6f6c3          	fmadd.d	fa3,fa3,fa5,fa4
   10698:	16060763          	beq	a2,zero,10806 <pow+0x316>
   1069c:	c43a                	c.swsp	a4,8(sp)
   1069e:	c63e                	c.swsp	a5,12(sp)
   106a0:	27a2                	c.fldsp	fa5,8(sp)
   106a2:	7af6f543          	fmadd.d	fa0,fa3,fa5,fa5
   106a6:	4436                	c.lwsp	s0,76(sp)
   106a8:	44a6                	c.lwsp	s1,72(sp)
   106aa:	6161                	c.addi16sp	sp,80
   106ac:	8082                	c.jr	ra
   106ae:	47a2                	c.lwsp	a5,8(sp)
   106b0:	00131f13          	slli	t5,t1,0x1
   106b4:	ffe00e37          	lui	t3,0xffe00
   106b8:	00179e93          	slli	t4,a5,0x1
   106bc:	01f7d693          	srli	a3,a5,0x1f
   106c0:	96fa                	c.add	a3,t5
   106c2:	001eb513          	sltiu	a0,t4,1
   106c6:	40a68533          	sub	a0,a3,a0
   106ca:	fffe8f93          	addi	t6,t4,-1
   106ce:	2fc57963          	bgeu	a0,t3,109c0 <pow+0x4d0>
   106d2:	1e7d                	c.addi	t3,-1 # ffdfffff <__BSS_END__+0xffdd74e7>
   106d4:	2fc50363          	beq	a0,t3,109ba <pow+0x4ca>
   106d8:	01f45693          	srli	a3,s0,0x1f
   106dc:	00141e93          	slli	t4,s0,0x1
   106e0:	00149e13          	slli	t3,s1,0x1
   106e4:	9e36                	c.add	t3,a3
   106e6:	001eb693          	sltiu	a3,t4,1
   106ea:	40de06b3          	sub	a3,t3,a3
   106ee:	ffe00537          	lui	a0,0xffe00
   106f2:	fffe8293          	addi	t0,t4,-1
   106f6:	8fa6                	c.mv	t6,s1
   106f8:	24a6f063          	bgeu	a3,a0,10938 <pow+0x448>
   106fc:	157d                	c.addi	a0,-1 # ffdfffff <__BSS_END__+0xffdd74e7>
   106fe:	22a68a63          	beq	a3,a0,10932 <pow+0x442>
   10702:	7ff5f693          	andi	a3,a1,2047
   10706:	300fd763          	bge	t6,zero,10a14 <pow+0x524>
   1070a:	3fe00513          	addi	a0,zero,1022
   1070e:	1ad55b63          	bge	a0,a3,108c4 <pow+0x3d4>
   10712:	43300513          	addi	a0,zero,1075
   10716:	30d54763          	blt	a0,a3,10a24 <pow+0x534>
   1071a:	8d15                	c.sub	a0,a3
   1071c:	fe050e13          	addi	t3,a0,-32
   10720:	260e4e63          	blt	t3,zero,1099c <pow+0x4ac>
   10724:	537d                	c.li	t1,-1
   10726:	01c31333          	sll	t1,t1,t3
   1072a:	4801                	c.li	a6,0
   1072c:	47a2                	c.lwsp	a5,8(sp)
   1072e:	fff84813          	xori	a6,a6,-1
   10732:	fff34313          	xori	t1,t1,-1
   10736:	00f87833          	and	a6,a6,a5
   1073a:	47b2                	c.lwsp	a5,12(sp)
   1073c:	00f37333          	and	t1,t1,a5
   10740:	00686833          	or	a6,a6,t1
   10744:	18081063          	bne	a6,zero,108c4 <pow+0x3d4>
   10748:	2e0e4063          	blt	t3,zero,10a28 <pow+0x538>
   1074c:	01c7d533          	srl	a0,a5,t3
   10750:	8905                	c.andi	a0,1
   10752:	054a                	c.slli	a0,0x12
   10754:	00149813          	slli	a6,s1,0x1
   10758:	c4268e13          	addi	t3,a3,-958
   1075c:	07f00313          	addi	t1,zero,127
   10760:	00185813          	srli	a6,a6,0x1
   10764:	07c36163          	bltu	t1,t3,107c6 <pow+0x2d6>
   10768:	7ff67613          	andi	a2,a2,2047
   1076c:	da061fe3          	bne	a2,zero,1052a <pow+0x3a>
   10770:	c822                	c.swsp	s0,16(sp)
   10772:	ca26                	c.swsp	s1,20(sp)
   10774:	2742                	c.fldsp	fa4,16(sp)
   10776:	ec81b787          	fld	fa5,-312(gp) # 286d8 <__SDATA_BEGIN__+0x10>
   1077a:	12f777d3          	fmul.d	fa5,fa4,fa5
   1077e:	a83e                	c.fsdsp	fa5,16(sp)
   10780:	4742                	c.lwsp	a4,16(sp)
   10782:	47d2                	c.lwsp	a5,20(sp)
   10784:	88ba                	c.mv	a7,a4
   10786:	80000737          	lui	a4,0x80000
   1078a:	00e7e833          	or	a6,a5,a4
   1078e:	83400737          	lui	a4,0x83400
   10792:	40e80833          	sub	a6,a6,a4
   10796:	bb51                	c.j	1052a <pow+0x3a>
   10798:	47a2                	c.lwsp	a5,8(sp)
   1079a:	ffe00337          	lui	t1,0xffe00
   1079e:	01f7de93          	srli	t4,a5,0x1f
   107a2:	47b2                	c.lwsp	a5,12(sp)
   107a4:	00179513          	slli	a0,a5,0x1
   107a8:	47a2                	c.lwsp	a5,8(sp)
   107aa:	9576                	c.add	a0,t4
   107ac:	00179e13          	slli	t3,a5,0x1
   107b0:	001e3613          	sltiu	a2,t3,1
   107b4:	40c50633          	sub	a2,a0,a2
   107b8:	fffe0f13          	addi	t5,t3,-1
   107bc:	10667e63          	bgeu	a2,t1,108d8 <pow+0x3e8>
   107c0:	137d                	c.addi	t1,-1 # ffdfffff <__BSS_END__+0xffdd74e7>
   107c2:	10660863          	beq	a2,t1,108d2 <pow+0x3e2>
   107c6:	1c088063          	beq	a7,zero,10986 <pow+0x496>
   107ca:	3bd00793          	addi	a5,zero,957
   107ce:	06d7eb63          	bltu	a5,a3,10844 <pow+0x354>
   107d2:	3ff007b7          	lui	a5,0x3ff00
   107d6:	0107e663          	bltu	a5,a6,107e2 <pow+0x2f2>
   107da:	1af81b63          	bne	a6,a5,10990 <pow+0x4a0>
   107de:	1a088963          	beq	a7,zero,10990 <pow+0x4a0>
   107e2:	eb81b507          	fld	fa0,-328(gp) # 286c8 <__SDATA_BEGIN__>
   107e6:	27a2                	c.fldsp	fa5,8(sp)
   107e8:	02a7f553          	fadd.d	fa0,fa5,fa0
   107ec:	bd6d                	c.j	106a6 <pow+0x1b6>
   107ee:	1207c963          	blt	a5,zero,10920 <pow+0x430>
   107f2:	40800793          	addi	a5,zero,1032
   107f6:	04c7f563          	bgeu	a5,a2,10840 <pow+0x350>
   107fa:	0606c463          	blt	a3,zero,10862 <pow+0x372>
   107fe:	4436                	c.lwsp	s0,76(sp)
   10800:	44a6                	c.lwsp	s1,72(sp)
   10802:	6161                	c.addi16sp	sp,80
   10804:	a30d                	c.j	10d26 <__math_oflow>
   10806:	14085b63          	bge	a6,zero,1095c <pow+0x46c>
   1080a:	3fe006b7          	lui	a3,0x3fe00
   1080e:	97b6                	c.add	a5,a3
   10810:	c63e                	c.swsp	a5,12(sp)
   10812:	c43a                	c.swsp	a4,8(sp)
   10814:	27a2                	c.fldsp	fa5,8(sp)
   10816:	eb81b707          	fld	fa4,-328(gp) # 286c8 <__SDATA_BEGIN__>
   1081a:	12f6f6d3          	fmul.d	fa3,fa3,fa5
   1081e:	22f78653          	fsgnj.d	fa2,fa5,fa5
   10822:	02f6f7d3          	fadd.d	fa5,fa3,fa5
   10826:	22f7a5d3          	fsgnjx.d	fa1,fa5,fa5
   1082a:	a2e597d3          	flt.d	a5,fa1,fa4
   1082e:	ef95                	c.bnez	a5,1086a <pow+0x37a>
   10830:	ed81b507          	fld	fa0,-296(gp) # 286e8 <__SDATA_BEGIN__+0x20>
   10834:	4436                	c.lwsp	s0,76(sp)
   10836:	44a6                	c.lwsp	s1,72(sp)
   10838:	12a7f553          	fmul.d	fa0,fa5,fa0
   1083c:	6161                	c.addi16sp	sp,80
   1083e:	a31d                	c.j	10d64 <__math_check_uflow>
   10840:	4601                	c.li	a2,0
   10842:	b3d9                	c.j	10608 <pow+0x118>
   10844:	3ff00737          	lui	a4,0x3ff00
   10848:	4785                	c.li	a5,1
   1084a:	13076c63          	bltu	a4,a6,10982 <pow+0x492>
   1084e:	12e80863          	beq	a6,a4,1097e <pow+0x48e>
   10852:	6705                	c.lui	a4,0x1
   10854:	80070713          	addi	a4,a4,-2048 # 800 <exit-0xf8b4>
   10858:	00e5b5b3          	sltu	a1,a1,a4
   1085c:	4501                	c.li	a0,0
   1085e:	fab790e3          	bne	a5,a1,107fe <pow+0x30e>
   10862:	4436                	c.lwsp	s0,76(sp)
   10864:	44a6                	c.lwsp	s1,72(sp)
   10866:	6161                	c.addi16sp	sp,80
   10868:	a94d                	c.j	10d1a <__math_uflow>
   1086a:	d20005d3          	fcvt.d.w	fa1,zero
   1086e:	a2b797d3          	flt.d	a5,fa5,fa1
   10872:	c399                	c.beqz	a5,10878 <pow+0x388>
   10874:	ec01b707          	fld	fa4,-320(gp) # 286d0 <__SDATA_BEGIN__+0x8>
   10878:	02e7f553          	fadd.d	fa0,fa5,fa4
   1087c:	0af675d3          	fsub.d	fa1,fa2,fa5
   10880:	d2000053          	fcvt.d.w	ft0,zero
   10884:	0aa77653          	fsub.d	fa2,fa4,fa0
   10888:	02d5f6d3          	fadd.d	fa3,fa1,fa3
   1088c:	02f677d3          	fadd.d	fa5,fa2,fa5
   10890:	02d7f7d3          	fadd.d	fa5,fa5,fa3
   10894:	02a7f7d3          	fadd.d	fa5,fa5,fa0
   10898:	0ae7f7d3          	fsub.d	fa5,fa5,fa4
   1089c:	a207a7d3          	feq.d	a5,fa5,ft0
   108a0:	cb91                	c.beqz	a5,108b4 <pow+0x3c4>
   108a2:	4632                	c.lwsp	a2,12(sp)
   108a4:	800006b7          	lui	a3,0x80000
   108a8:	4701                	c.li	a4,0
   108aa:	00d677b3          	and	a5,a2,a3
   108ae:	c43a                	c.swsp	a4,8(sp)
   108b0:	c63e                	c.swsp	a5,12(sp)
   108b2:	27a2                	c.fldsp	fa5,8(sp)
   108b4:	ed81b687          	fld	fa3,-296(gp) # 286e8 <__SDATA_BEGIN__+0x20>
   108b8:	b836                	c.fsdsp	fa3,48(sp)
   108ba:	3742                	c.fldsp	fa4,48(sp)
   108bc:	12d77753          	fmul.d	fa4,fa4,fa3
   108c0:	bc3a                	c.fsdsp	fa4,56(sp)
   108c2:	b7bd                	c.j	10830 <pow+0x340>
   108c4:	c422                	c.swsp	s0,8(sp)
   108c6:	c626                	c.swsp	s1,12(sp)
   108c8:	4436                	c.lwsp	s0,76(sp)
   108ca:	2522                	c.fldsp	fa0,8(sp)
   108cc:	44a6                	c.lwsp	s1,72(sp)
   108ce:	6161                	c.addi16sp	sp,80
   108d0:	a9bd                	c.j	10d4e <__math_invalid>
   108d2:	5679                	c.li	a2,-2
   108d4:	efe679e3          	bgeu	a2,t5,107c6 <pow+0x2d6>
   108d8:	00ae66b3          	or	a3,t3,a0
   108dc:	1a068b63          	beq	a3,zero,10a92 <pow+0x5a2>
   108e0:	00088b63          	beq	a7,zero,108f6 <pow+0x406>
   108e4:	200e0063          	beq	t3,zero,10ae4 <pow+0x5f4>
   108e8:	c822                	c.swsp	s0,16(sp)
   108ea:	ca26                	c.swsp	s1,20(sp)
   108ec:	27c2                	c.fldsp	fa5,16(sp)
   108ee:	2722                	c.fldsp	fa4,8(sp)
   108f0:	02e7f553          	fadd.d	fa0,fa5,fa4
   108f4:	bb4d                	c.j	106a6 <pow+0x1b6>
   108f6:	3ff006b7          	lui	a3,0x3ff00
   108fa:	fed815e3          	bne	a6,a3,108e4 <pow+0x3f4>
   108fe:	47b2                	c.lwsp	a5,12(sp)
   10900:	000806b7          	lui	a3,0x80
   10904:	fff00637          	lui	a2,0xfff00
   10908:	8ebd                	c.xor	a3,a5
   1090a:	0686                	c.slli	a3,0x1
   1090c:	96f6                	c.add	a3,t4
   1090e:	fcd66de3          	bltu	a2,a3,108e8 <pow+0x3f8>
   10912:	00c69463          	bne	a3,a2,1091a <pow+0x42a>
   10916:	fc0e19e3          	bne	t3,zero,108e8 <pow+0x3f8>
   1091a:	eb81b507          	fld	fa0,-328(gp) # 286c8 <__SDATA_BEGIN__>
   1091e:	b361                	c.j	106a6 <pow+0x1b6>
   10920:	eb81b787          	fld	fa5,-328(gp) # 286c8 <__SDATA_BEGIN__>
   10924:	02f6f553          	fadd.d	fa0,fa3,fa5
   10928:	d6050fe3          	beq	a0,zero,106a6 <pow+0x1b6>
   1092c:	22a51553          	fsgnjn.d	fa0,fa0,fa0
   10930:	bb9d                	c.j	106a6 <pow+0x1b6>
   10932:	56f9                	c.li	a3,-2
   10934:	dc56f7e3          	bgeu	a3,t0,10702 <pow+0x212>
   10938:	c822                	c.swsp	s0,16(sp)
   1093a:	ca26                	c.swsp	s1,20(sp)
   1093c:	27c2                	c.fldsp	fa5,16(sp)
   1093e:	4501                	c.li	a0,0
   10940:	12f7f553          	fmul.d	fa0,fa5,fa5
   10944:	0e0fcc63          	blt	t6,zero,10a3c <pow+0x54c>
   10948:	01ceeeb3          	or	t4,t4,t3
   1094c:	160e9563          	bne	t4,zero,10ab6 <pow+0x5c6>
   10950:	d4035be3          	bge	t1,zero,106a6 <pow+0x1b6>
   10954:	4436                	c.lwsp	s0,76(sp)
   10956:	44a6                	c.lwsp	s1,72(sp)
   10958:	6161                	c.addi16sp	sp,80
   1095a:	aec9                	c.j	10d2c <__math_divzero>
   1095c:	c0f005b7          	lui	a1,0xc0f00
   10960:	00b786b3          	add	a3,a5,a1
   10964:	c43a                	c.swsp	a4,8(sp)
   10966:	c636                	c.swsp	a3,12(sp)
   10968:	27a2                	c.fldsp	fa5,8(sp)
   1096a:	ed01b507          	fld	fa0,-304(gp) # 286e0 <__SDATA_BEGIN__+0x18>
   1096e:	7af6f6c3          	fmadd.d	fa3,fa3,fa5,fa5
   10972:	4436                	c.lwsp	s0,76(sp)
   10974:	44a6                	c.lwsp	s1,72(sp)
   10976:	6161                	c.addi16sp	sp,80
   10978:	12a6f553          	fmul.d	fa0,fa3,fa0
   1097c:	aeed                	c.j	10d76 <__math_check_oflow>
   1097e:	ec088ae3          	beq	a7,zero,10852 <pow+0x362>
   10982:	4781                	c.li	a5,0
   10984:	b5f9                	c.j	10852 <pow+0x362>
   10986:	3ff007b7          	lui	a5,0x3ff00
   1098a:	e4f810e3          	bne	a6,a5,107ca <pow+0x2da>
   1098e:	b771                	c.j	1091a <pow+0x42a>
   10990:	eb81b507          	fld	fa0,-328(gp) # 286c8 <__SDATA_BEGIN__>
   10994:	27a2                	c.fldsp	fa5,8(sp)
   10996:	0af57553          	fsub.d	fa0,fa0,fa5
   1099a:	b331                	c.j	106a6 <pow+0x1b6>
   1099c:	487d                	c.li	a6,31
   1099e:	80000eb7          	lui	t4,0x80000
   109a2:	40a80833          	sub	a6,a6,a0
   109a6:	1efd                	c.addi	t4,-1 # 7fffffff <__BSS_END__+0x7ffd74e7>
   109a8:	010edeb3          	srl	t4,t4,a6
   109ac:	587d                	c.li	a6,-1
   109ae:	00a81333          	sll	t1,a6,a0
   109b2:	9376                	c.add	t1,t4
   109b4:	00a81833          	sll	a6,a6,a0
   109b8:	bb95                	c.j	1072c <pow+0x23c>
   109ba:	5579                	c.li	a0,-2
   109bc:	d1f57ee3          	bgeu	a0,t6,106d8 <pow+0x1e8>
   109c0:	00dee633          	or	a2,t4,a3
   109c4:	c679                	c.beqz	a2,10a92 <pow+0x5a2>
   109c6:	01f45593          	srli	a1,s0,0x1f
   109ca:	00149613          	slli	a2,s1,0x1
   109ce:	962e                	c.add	a2,a1
   109d0:	ffe005b7          	lui	a1,0xffe00
   109d4:	00141513          	slli	a0,s0,0x1
   109d8:	f0c5e8e3          	bltu	a1,a2,108e8 <pow+0x3f8>
   109dc:	10b60e63          	beq	a2,a1,10af8 <pow+0x608>
   109e0:	ffe005b7          	lui	a1,0xffe00
   109e4:	8ead                	c.xor	a3,a1
   109e6:	00deeeb3          	or	t4,t4,a3
   109ea:	ee0e9fe3          	bne	t4,zero,108e8 <pow+0x3f8>
   109ee:	12050163          	beq	a0,zero,10b10 <pow+0x620>
   109f2:	7fe007b7          	lui	a5,0x7fe00
   109f6:	17fd                	c.addi	a5,-1 # 7fdfffff <__BSS_END__+0x7fdd74e7>
   109f8:	00c7b633          	sltu	a2,a5,a2
   109fc:	47b2                	c.lwsp	a5,12(sp)
   109fe:	d2000553          	fcvt.d.w	fa0,zero
   10a02:	fff7c793          	xori	a5,a5,-1
   10a06:	83fd                	c.srli	a5,0x1f
   10a08:	c8f61fe3          	bne	a2,a5,106a6 <pow+0x1b6>
   10a0c:	27a2                	c.fldsp	fa5,8(sp)
   10a0e:	12f7f553          	fmul.d	fa0,fa5,fa5
   10a12:	b951                	c.j	106a6 <pow+0x1b6>
   10a14:	c4268313          	addi	t1,a3,-958 # 7fc42 <__BSS_END__+0x5712a>
   10a18:	07f00513          	addi	a0,zero,127
   10a1c:	da6567e3          	bltu	a0,t1,107ca <pow+0x2da>
   10a20:	4501                	c.li	a0,0
   10a22:	b3a9                	c.j	1076c <pow+0x27c>
   10a24:	4501                	c.li	a0,0
   10a26:	b33d                	c.j	10754 <pow+0x264>
   10a28:	47a2                	c.lwsp	a5,8(sp)
   10a2a:	487d                	c.li	a6,31
   10a2c:	40a80833          	sub	a6,a6,a0
   10a30:	010f1f33          	sll	t5,t5,a6
   10a34:	00a7d533          	srl	a0,a5,a0
   10a38:	957a                	c.add	a0,t5
   10a3a:	bb19                	c.j	10750 <pow+0x260>
   10a3c:	7ff5f593          	andi	a1,a1,2047
   10a40:	c0158713          	addi	a4,a1,-1023 # ffdffc01 <__BSS_END__+0xffdd70e9>
   10a44:	03400793          	addi	a5,zero,52
   10a48:	f0e7e0e3          	bltu	a5,a4,10948 <pow+0x458>
   10a4c:	43300793          	addi	a5,zero,1075
   10a50:	8f8d                	c.sub	a5,a1
   10a52:	fe078613          	addi	a2,a5,-32
   10a56:	06064963          	blt	a2,zero,10ac8 <pow+0x5d8>
   10a5a:	56fd                	c.li	a3,-1
   10a5c:	00c696b3          	sll	a3,a3,a2
   10a60:	4701                	c.li	a4,0
   10a62:	45a2                	c.lwsp	a1,8(sp)
   10a64:	fff74713          	xori	a4,a4,-1
   10a68:	fff6c693          	xori	a3,a3,-1
   10a6c:	8f6d                	c.and	a4,a1
   10a6e:	45b2                	c.lwsp	a1,12(sp)
   10a70:	4501                	c.li	a0,0
   10a72:	8eed                	c.and	a3,a1
   10a74:	8f55                	c.or	a4,a3
   10a76:	ec0719e3          	bne	a4,zero,10948 <pow+0x458>
   10a7a:	08064263          	blt	a2,zero,10afe <pow+0x60e>
   10a7e:	00c5d7b3          	srl	a5,a1,a2
   10a82:	8b85                	c.andi	a5,1
   10a84:	4501                	c.li	a0,0
   10a86:	ec0781e3          	beq	a5,zero,10948 <pow+0x458>
   10a8a:	22a51553          	fsgnjn.d	fa0,fa0,fa0
   10a8e:	4505                	c.li	a0,1
   10a90:	bd65                	c.j	10948 <pow+0x458>
   10a92:	000806b7          	lui	a3,0x80
   10a96:	8ea5                	c.xor	a3,s1
   10a98:	01f45613          	srli	a2,s0,0x1f
   10a9c:	0686                	c.slli	a3,0x1
   10a9e:	96b2                	c.add	a3,a2
   10aa0:	fff00637          	lui	a2,0xfff00
   10aa4:	00141593          	slli	a1,s0,0x1
   10aa8:	e4d660e3          	bltu	a2,a3,108e8 <pow+0x3f8>
   10aac:	e6c697e3          	bne	a3,a2,1091a <pow+0x42a>
   10ab0:	e60585e3          	beq	a1,zero,1091a <pow+0x42a>
   10ab4:	bd15                	c.j	108e8 <pow+0x3f8>
   10ab6:	be0358e3          	bge	t1,zero,106a6 <pow+0x1b6>
   10aba:	eb81b787          	fld	fa5,-328(gp) # 286c8 <__SDATA_BEGIN__>
   10abe:	1aa7f7d3          	fdiv.d	fa5,fa5,fa0
   10ac2:	b43e                	c.fsdsp	fa5,40(sp)
   10ac4:	3522                	c.fldsp	fa0,40(sp)
   10ac6:	b6c5                	c.j	106a6 <pow+0x1b6>
   10ac8:	477d                	c.li	a4,31
   10aca:	800005b7          	lui	a1,0x80000
   10ace:	8f1d                	c.sub	a4,a5
   10ad0:	15fd                	c.addi	a1,-1 # 7fffffff <__BSS_END__+0x7ffd74e7>
   10ad2:	00e5d5b3          	srl	a1,a1,a4
   10ad6:	577d                	c.li	a4,-1
   10ad8:	00f716b3          	sll	a3,a4,a5
   10adc:	96ae                	c.add	a3,a1
   10ade:	00f71733          	sll	a4,a4,a5
   10ae2:	b741                	c.j	10a62 <pow+0x572>
   10ae4:	ffe006b7          	lui	a3,0xffe00
   10ae8:	e0d510e3          	bne	a0,a3,108e8 <pow+0x3f8>
   10aec:	01f45713          	srli	a4,s0,0x1f
   10af0:	00149613          	slli	a2,s1,0x1
   10af4:	963a                	c.add	a2,a4
   10af6:	bdf5                	c.j	109f2 <pow+0x502>
   10af8:	de0518e3          	bne	a0,zero,108e8 <pow+0x3f8>
   10afc:	b5d5                	c.j	109e0 <pow+0x4f0>
   10afe:	46a2                	c.lwsp	a3,8(sp)
   10b00:	477d                	c.li	a4,31
   10b02:	8f1d                	c.sub	a4,a5
   10b04:	00ef1733          	sll	a4,t5,a4
   10b08:	00f6d7b3          	srl	a5,a3,a5
   10b0c:	97ba                	c.add	a5,a4
   10b0e:	bf95                	c.j	10a82 <pow+0x592>
   10b10:	7fe007b7          	lui	a5,0x7fe00
   10b14:	ecf61fe3          	bne	a2,a5,109f2 <pow+0x502>
   10b18:	b509                	c.j	1091a <pow+0x42a>

00010b1a <__ieee754_sqrt>:
   10b1a:	1141                	c.addi	sp,-16
   10b1c:	a42a                	c.fsdsp	fa0,8(sp)
   10b1e:	46b2                	c.lwsp	a3,12(sp)
   10b20:	7ff007b7          	lui	a5,0x7ff00
   10b24:	4622                	c.lwsp	a2,8(sp)
   10b26:	00d7f733          	and	a4,a5,a3
   10b2a:	18f70d63          	beq	a4,a5,10cc4 <__ieee754_sqrt+0x1aa>
   10b2e:	87b6                	c.mv	a5,a3
   10b30:	8732                	c.mv	a4,a2
   10b32:	0cd05563          	bge	zero,a3,10bfc <__ieee754_sqrt+0xe2>
   10b36:	4146de13          	srai	t3,a3,0x14
   10b3a:	0e0e0463          	beq	t3,zero,10c22 <__ieee754_sqrt+0x108>
   10b3e:	001006b7          	lui	a3,0x100
   10b42:	fff68613          	addi	a2,a3,-1 # fffff <__BSS_END__+0xd74e7>
   10b46:	c01e0e13          	addi	t3,t3,-1023
   10b4a:	8ff1                	c.and	a5,a2
   10b4c:	001e7613          	andi	a2,t3,1
   10b50:	8fd5                	c.or	a5,a3
   10b52:	c611                	c.beqz	a2,10b5e <__ieee754_sqrt+0x44>
   10b54:	01f75693          	srli	a3,a4,0x1f
   10b58:	0786                	c.slli	a5,0x1
   10b5a:	97b6                	c.add	a5,a3
   10b5c:	0706                	c.slli	a4,0x1
   10b5e:	00179693          	slli	a3,a5,0x1
   10b62:	01f75793          	srli	a5,a4,0x1f
   10b66:	97b6                	c.add	a5,a3
   10b68:	401e5e13          	srai	t3,t3,0x1
   10b6c:	0706                	c.slli	a4,0x1
   10b6e:	45d9                	c.li	a1,22
   10b70:	4e81                	c.li	t4,0
   10b72:	4681                	c.li	a3,0
   10b74:	00200637          	lui	a2,0x200
   10b78:	00c68533          	add	a0,a3,a2
   10b7c:	01f75813          	srli	a6,a4,0x1f
   10b80:	15fd                	c.addi	a1,-1
   10b82:	00a7c663          	blt	a5,a0,10b8e <__ieee754_sqrt+0x74>
   10b86:	8f89                	c.sub	a5,a0
   10b88:	00c506b3          	add	a3,a0,a2
   10b8c:	9eb2                	c.add	t4,a2
   10b8e:	0786                	c.slli	a5,0x1
   10b90:	97c2                	c.add	a5,a6
   10b92:	0706                	c.slli	a4,0x1
   10b94:	8205                	c.srli	a2,0x1
   10b96:	f1ed                	c.bnez	a1,10b78 <__ieee754_sqrt+0x5e>
   10b98:	4301                	c.li	t1,0
   10b9a:	4881                	c.li	a7,0
   10b9c:	02000513          	addi	a0,zero,32
   10ba0:	80000637          	lui	a2,0x80000
   10ba4:	a80d                	c.j	10bd6 <__ieee754_sqrt+0xbc>
   10ba6:	0ad79163          	bne	a5,a3,10c48 <__ieee754_sqrt+0x12e>
   10baa:	08b76f63          	bltu	a4,a1,10c48 <__ieee754_sqrt+0x12e>
   10bae:	00c588b3          	add	a7,a1,a2
   10bb2:	4781                	c.li	a5,0
   10bb4:	0005d763          	bge	a1,zero,10bc2 <__ieee754_sqrt+0xa8>
   10bb8:	fff8c813          	xori	a6,a7,-1
   10bbc:	01f85813          	srli	a6,a6,0x1f
   10bc0:	96c2                	c.add	a3,a6
   10bc2:	8f0d                	c.sub	a4,a1
   10bc4:	01f75593          	srli	a1,a4,0x1f
   10bc8:	95be                	c.add	a1,a5
   10bca:	157d                	c.addi	a0,-1
   10bcc:	9332                	c.add	t1,a2
   10bce:	0706                	c.slli	a4,0x1
   10bd0:	8205                	c.srli	a2,0x1
   10bd2:	87ae                	c.mv	a5,a1
   10bd4:	c159                	c.beqz	a0,10c5a <__ieee754_sqrt+0x140>
   10bd6:	011605b3          	add	a1,a2,a7
   10bda:	fcf6d6e3          	bge	a3,a5,10ba6 <__ieee754_sqrt+0x8c>
   10bde:	00c588b3          	add	a7,a1,a2
   10be2:	fff8c813          	xori	a6,a7,-1
   10be6:	00b87833          	and	a6,a6,a1
   10bea:	01f85813          	srli	a6,a6,0x1f
   10bee:	8f95                	c.sub	a5,a3
   10bf0:	96c2                	c.add	a3,a6
   10bf2:	00b77363          	bgeu	a4,a1,10bf8 <__ieee754_sqrt+0xde>
   10bf6:	17fd                	c.addi	a5,-1 # 7fefffff <__BSS_END__+0x7fed74e7>
   10bf8:	0786                	c.slli	a5,0x1
   10bfa:	b7e1                	c.j	10bc2 <__ieee754_sqrt+0xa8>
   10bfc:	00169513          	slli	a0,a3,0x1
   10c00:	8105                	c.srli	a0,0x1
   10c02:	c432                	c.swsp	a2,8(sp)
   10c04:	c636                	c.swsp	a3,12(sp)
   10c06:	8d51                	c.or	a0,a2
   10c08:	2522                	c.fldsp	fa0,8(sp)
   10c0a:	c95d                	c.beqz	a0,10cc0 <__ieee754_sqrt+0x1a6>
   10c0c:	e2e1                	c.bnez	a3,10ccc <__ieee754_sqrt+0x1b2>
   10c0e:	00b75693          	srli	a3,a4,0xb
   10c12:	17ad                	c.addi	a5,-21
   10c14:	0756                	c.slli	a4,0x15
   10c16:	dee5                	c.beqz	a3,10c0e <__ieee754_sqrt+0xf4>
   10c18:	0146d613          	srli	a2,a3,0x14
   10c1c:	8e3e                	c.mv	t3,a5
   10c1e:	ee55                	c.bnez	a2,10cda <__ieee754_sqrt+0x1c0>
   10c20:	87b6                	c.mv	a5,a3
   10c22:	4681                	c.li	a3,0
   10c24:	0786                	c.slli	a5,0x1
   10c26:	00b79593          	slli	a1,a5,0xb
   10c2a:	8636                	c.mv	a2,a3
   10c2c:	0685                	c.addi	a3,1
   10c2e:	fe05dbe3          	bge	a1,zero,10c24 <__ieee754_sqrt+0x10a>
   10c32:	02000593          	addi	a1,zero,32
   10c36:	8d95                	c.sub	a1,a3
   10c38:	00b755b3          	srl	a1,a4,a1
   10c3c:	8fcd                	c.or	a5,a1
   10c3e:	00d71733          	sll	a4,a4,a3
   10c42:	40ce0e33          	sub	t3,t3,a2
   10c46:	bde5                	c.j	10b3e <__ieee754_sqrt+0x24>
   10c48:	0786                	c.slli	a5,0x1
   10c4a:	01f75593          	srli	a1,a4,0x1f
   10c4e:	95be                	c.add	a1,a5
   10c50:	157d                	c.addi	a0,-1
   10c52:	8205                	c.srli	a2,0x1
   10c54:	0706                	c.slli	a4,0x1
   10c56:	87ae                	c.mv	a5,a1
   10c58:	fd3d                	c.bnez	a0,10bd6 <__ieee754_sqrt+0xbc>
   10c5a:	8dd9                	c.or	a1,a4
   10c5c:	c1b1                	c.beqz	a1,10ca0 <__ieee754_sqrt+0x186>
   10c5e:	fc01b787          	fld	fa5,-64(gp) # 287d0 <one>
   10c62:	fb81b687          	fld	fa3,-72(gp) # 287c8 <tiny>
   10c66:	fc01b707          	fld	fa4,-64(gp) # 287d0 <one>
   10c6a:	0ad7f7d3          	fsub.d	fa5,fa5,fa3
   10c6e:	a2f706d3          	fle.d	a3,fa4,fa5
   10c72:	c69d                	c.beqz	a3,10ca0 <__ieee754_sqrt+0x186>
   10c74:	fc01b787          	fld	fa5,-64(gp) # 287d0 <one>
   10c78:	fb81b707          	fld	fa4,-72(gp) # 287c8 <tiny>
   10c7c:	577d                	c.li	a4,-1
   10c7e:	04e30c63          	beq	t1,a4,10cd6 <__ieee754_sqrt+0x1bc>
   10c82:	02e7f7d3          	fadd.d	fa5,fa5,fa4
   10c86:	fc01b707          	fld	fa4,-64(gp) # 287d0 <one>
   10c8a:	a2f717d3          	flt.d	a5,fa4,fa5
   10c8e:	cb81                	c.beqz	a5,10c9e <__ieee754_sqrt+0x184>
   10c90:	0309                	c.addi	t1,2
   10c92:	00133793          	sltiu	a5,t1,1
   10c96:	9ebe                	c.add	t4,a5
   10c98:	00135513          	srli	a0,t1,0x1
   10c9c:	a021                	c.j	10ca4 <__ieee754_sqrt+0x18a>
   10c9e:	0305                	c.addi	t1,1
   10ca0:	00135513          	srli	a0,t1,0x1
   10ca4:	401ed693          	srai	a3,t4,0x1
   10ca8:	3fe007b7          	lui	a5,0x3fe00
   10cac:	96be                	c.add	a3,a5
   10cae:	0e52                	c.slli	t3,0x14
   10cb0:	0efe                	c.slli	t4,0x1f
   10cb2:	00de07b3          	add	a5,t3,a3
   10cb6:	00aee733          	or	a4,t4,a0
   10cba:	c43a                	c.swsp	a4,8(sp)
   10cbc:	c63e                	c.swsp	a5,12(sp)
   10cbe:	2522                	c.fldsp	fa0,8(sp)
   10cc0:	0141                	c.addi	sp,16
   10cc2:	8082                	c.jr	ra
   10cc4:	52a57543          	fmadd.d	fa0,fa0,fa0,fa0
   10cc8:	0141                	c.addi	sp,16
   10cca:	8082                	c.jr	ra
   10ccc:	0aa57553          	fsub.d	fa0,fa0,fa0
   10cd0:	1aa57553          	fdiv.d	fa0,fa0,fa0
   10cd4:	b7f5                	c.j	10cc0 <__ieee754_sqrt+0x1a6>
   10cd6:	0e85                	c.addi	t4,1
   10cd8:	b7f1                	c.j	10ca4 <__ieee754_sqrt+0x18a>
   10cda:	567d                	c.li	a2,-1
   10cdc:	87b6                	c.mv	a5,a3
   10cde:	40ce0e33          	sub	t3,t3,a2
   10ce2:	bdb1                	c.j	10b3e <__ieee754_sqrt+0x24>

00010ce4 <with_errno>:
   10ce4:	1101                	c.addi	sp,-32
   10ce6:	cc22                	c.swsp	s0,24(sp)
   10ce8:	ce06                	c.swsp	ra,28(sp)
   10cea:	a42a                	c.fsdsp	fa0,8(sp)
   10cec:	842a                	c.mv	s0,a0
   10cee:	1b2010ef          	jal	ra,11ea0 <__errno>
   10cf2:	40f2                	c.lwsp	ra,28(sp)
   10cf4:	c100                	c.sw	s0,0(a0)
   10cf6:	4462                	c.lwsp	s0,24(sp)
   10cf8:	2522                	c.fldsp	fa0,8(sp)
   10cfa:	6105                	c.addi16sp	sp,32
   10cfc:	8082                	c.jr	ra

00010cfe <xflow>:
   10cfe:	22a507d3          	fsgnj.d	fa5,fa0,fa0
   10d02:	1141                	c.addi	sp,-16
   10d04:	c119                	c.beqz	a0,10d0a <xflow+0xc>
   10d06:	22a517d3          	fsgnjn.d	fa5,fa0,fa0
   10d0a:	a43e                	c.fsdsp	fa5,8(sp)
   10d0c:	27a2                	c.fldsp	fa5,8(sp)
   10d0e:	02200513          	addi	a0,zero,34
   10d12:	12f57553          	fmul.d	fa0,fa0,fa5
   10d16:	0141                	c.addi	sp,16
   10d18:	b7f1                	c.j	10ce4 <with_errno>

00010d1a <__math_uflow>:
   10d1a:	ee01b507          	fld	fa0,-288(gp) # 286f0 <__SDATA_BEGIN__+0x28>
   10d1e:	b7c5                	c.j	10cfe <xflow>

00010d20 <__math_may_uflow>:
   10d20:	ee81b507          	fld	fa0,-280(gp) # 286f8 <__SDATA_BEGIN__+0x30>
   10d24:	bfe9                	c.j	10cfe <xflow>

00010d26 <__math_oflow>:
   10d26:	ef01b507          	fld	fa0,-272(gp) # 28700 <__SDATA_BEGIN__+0x38>
   10d2a:	bfd1                	c.j	10cfe <xflow>

00010d2c <__math_divzero>:
   10d2c:	1141                	c.addi	sp,-16
   10d2e:	cd09                	c.beqz	a0,10d48 <__math_divzero+0x1c>
   10d30:	ec01b787          	fld	fa5,-320(gp) # 286d0 <__SDATA_BEGIN__+0x8>
   10d34:	a43e                	c.fsdsp	fa5,8(sp)
   10d36:	2522                	c.fldsp	fa0,8(sp)
   10d38:	d20007d3          	fcvt.d.w	fa5,zero
   10d3c:	02200513          	addi	a0,zero,34
   10d40:	1af57553          	fdiv.d	fa0,fa0,fa5
   10d44:	0141                	c.addi	sp,16
   10d46:	bf79                	c.j	10ce4 <with_errno>
   10d48:	eb81b787          	fld	fa5,-328(gp) # 286c8 <__SDATA_BEGIN__>
   10d4c:	b7e5                	c.j	10d34 <__math_divzero+0x8>

00010d4e <__math_invalid>:
   10d4e:	0aa577d3          	fsub.d	fa5,fa0,fa0
   10d52:	a2a527d3          	feq.d	a5,fa0,fa0
   10d56:	1af7f553          	fdiv.d	fa0,fa5,fa5
   10d5a:	c781                	c.beqz	a5,10d62 <__math_invalid+0x14>
   10d5c:	02100513          	addi	a0,zero,33
   10d60:	b751                	c.j	10ce4 <with_errno>
   10d62:	8082                	c.jr	ra

00010d64 <__math_check_uflow>:
   10d64:	d20007d3          	fcvt.d.w	fa5,zero
   10d68:	a2f527d3          	feq.d	a5,fa0,fa5
   10d6c:	e391                	c.bnez	a5,10d70 <__math_check_uflow+0xc>
   10d6e:	8082                	c.jr	ra
   10d70:	02200513          	addi	a0,zero,34
   10d74:	bf85                	c.j	10ce4 <with_errno>

00010d76 <__math_check_oflow>:
   10d76:	e20517d3          	fclass.d	a5,fa0
   10d7a:	0817f793          	andi	a5,a5,129
   10d7e:	e391                	c.bnez	a5,10d82 <__math_check_oflow+0xc>
   10d80:	8082                	c.jr	ra
   10d82:	02200513          	addi	a0,zero,34
   10d86:	bfb9                	c.j	10ce4 <with_errno>

00010d88 <qsort>:
   10d88:	7135                	c.addi16sp	sp,-160
   10d8a:	00c567b3          	or	a5,a0,a2
   10d8e:	cd22                	c.swsp	s0,152(sp)
   10d90:	c94a                	c.swsp	s2,144(sp)
   10d92:	c356                	c.swsp	s5,132(sp)
   10d94:	c15a                	c.swsp	s6,128(sp)
   10d96:	cf06                	c.swsp	ra,156(sp)
   10d98:	cb26                	c.swsp	s1,148(sp)
   10d9a:	c74e                	c.swsp	s3,140(sp)
   10d9c:	c552                	c.swsp	s4,136(sp)
   10d9e:	dede                	c.swsp	s7,124(sp)
   10da0:	dce2                	c.swsp	s8,120(sp)
   10da2:	dae6                	c.swsp	s9,116(sp)
   10da4:	d8ea                	c.swsp	s10,112(sp)
   10da6:	d6ee                	c.swsp	s11,108(sp)
   10da8:	8b8d                	c.andi	a5,3
   10daa:	892a                	c.mv	s2,a0
   10dac:	8432                	c.mv	s0,a2
   10dae:	8ab6                	c.mv	s5,a3
   10db0:	4b09                	c.li	s6,2
   10db2:	e789                	c.bnez	a5,10dbc <qsort+0x34>
   10db4:	ffc60b13          	addi	s6,a2,-4 # 7ffffffc <__BSS_END__+0x7ffd74e4>
   10db8:	01603b33          	sltu	s6,zero,s6
   10dbc:	00141793          	slli	a5,s0,0x1
   10dc0:	cc02                	c.swsp	zero,24(sp)
   10dc2:	4d05                	c.li	s10,1
   10dc4:	c43e                	c.swsp	a5,8(sp)
   10dc6:	028587b3          	mul	a5,a1,s0
   10dca:	00890bb3          	add	s7,s2,s0
   10dce:	c85e                	c.swsp	s7,16(sp)
   10dd0:	00f90733          	add	a4,s2,a5
   10dd4:	c63a                	c.swsp	a4,12(sp)
   10dd6:	4719                	c.li	a4,6
   10dd8:	0eb77a63          	bgeu	a4,a1,10ecc <qsort+0x144>
   10ddc:	0015d713          	srli	a4,a1,0x1
   10de0:	02870733          	mul	a4,a4,s0
   10de4:	8f81                	c.sub	a5,s0
   10de6:	469d                	c.li	a3,7
   10de8:	00f90db3          	add	s11,s2,a5
   10dec:	00e90cb3          	add	s9,s2,a4
   10df0:	02d58263          	beq	a1,a3,10e14 <qsort+0x8c>
   10df4:	02800693          	addi	a3,zero,40
   10df8:	84ee                	c.mv	s1,s11
   10dfa:	89ca                	c.mv	s3,s2
   10dfc:	3cb6ed63          	bltu	a3,a1,111d6 <qsort+0x44e>
   10e00:	85e6                	c.mv	a1,s9
   10e02:	854e                	c.mv	a0,s3
   10e04:	9a82                	c.jalr	s5
   10e06:	85a6                	c.mv	a1,s1
   10e08:	38054d63          	blt	a0,zero,111a2 <qsort+0x41a>
   10e0c:	8566                	c.mv	a0,s9
   10e0e:	9a82                	c.jalr	s5
   10e10:	14a05d63          	bge	zero,a0,10f6a <qsort+0x1e2>
   10e14:	160b1363          	bne	s6,zero,10f7a <qsort+0x1f2>
   10e18:	000ca603          	lw	a2,0(s9)
   10e1c:	00092683          	lw	a3,0(s2)
   10e20:	00c92023          	sw	a2,0(s2)
   10e24:	00dca023          	sw	a3,0(s9)
   10e28:	47c2                	c.lwsp	a5,16(sp)
   10e2a:	84ee                	c.mv	s1,s11
   10e2c:	4c01                	c.li	s8,0
   10e2e:	00f40733          	add	a4,s0,a5
   10e32:	ce3a                	c.swsp	a4,28(sp)
   10e34:	8cba                	c.mv	s9,a4
   10e36:	8a3e                	c.mv	s4,a5
   10e38:	ca3e                	c.swsp	a5,20(sp)
   10e3a:	89d2                	c.mv	s3,s4
   10e3c:	0d4de163          	bltu	s11,s4,10efe <qsort+0x176>
   10e40:	85ca                	c.mv	a1,s2
   10e42:	8552                	c.mv	a0,s4
   10e44:	9a82                	c.jalr	s5
   10e46:	00a04f63          	blt	zero,a0,10e64 <qsort+0xdc>
   10e4a:	aad9                	c.j	11020 <qsort+0x298>
   10e4c:	4094                	c.lw	a3,0(s1)
   10e4e:	000da703          	lw	a4,0(s11)
   10e52:	00dda023          	sw	a3,0(s11)
   10e56:	c098                	c.sw	a4,0(s1)
   10e58:	8c81                	c.sub	s1,s0
   10e5a:	4c05                	c.li	s8,1
   10e5c:	408d8db3          	sub	s11,s11,s0
   10e60:	094def63          	bltu	s11,s4,10efe <qsort+0x176>
   10e64:	85ca                	c.mv	a1,s2
   10e66:	856e                	c.mv	a0,s11
   10e68:	9a82                	c.jalr	s5
   10e6a:	12054b63          	blt	a0,zero,10fa0 <qsort+0x218>
   10e6e:	f57d                	c.bnez	a0,10e5c <qsort+0xd4>
   10e70:	fc0b0ee3          	beq	s6,zero,10e4c <qsort+0xc4>
   10e74:	15ab0663          	beq	s6,s10,10fc0 <qsort+0x238>
   10e78:	86a6                	c.mv	a3,s1
   10e7a:	876e                	c.mv	a4,s11
   10e7c:	008d8533          	add	a0,s11,s0
   10e80:	0006c583          	lbu	a1,0(a3)
   10e84:	00074603          	lbu	a2,0(a4)
   10e88:	0685                	c.addi	a3,1
   10e8a:	0705                	c.addi	a4,1
   10e8c:	feb70fa3          	sb	a1,-1(a4)
   10e90:	fec68fa3          	sb	a2,-1(a3)
   10e94:	40e50633          	sub	a2,a0,a4
   10e98:	fec044e3          	blt	zero,a2,10e80 <qsort+0xf8>
   10e9c:	bf75                	c.j	10e58 <qsort+0xd0>
   10e9e:	4722                	c.lwsp	a4,8(sp)
   10ea0:	87ce                	c.mv	a5,s3
   10ea2:	00e98633          	add	a2,s3,a4
   10ea6:	13ab0c63          	beq	s6,s10,10fde <qsort+0x256>
   10eaa:	0007c683          	lbu	a3,0(a5) # 3fe00000 <__BSS_END__+0x3fdd74e8>
   10eae:	0004c703          	lbu	a4,0(s1)
   10eb2:	0785                	c.addi	a5,1
   10eb4:	0485                	c.addi	s1,1
   10eb6:	fed48fa3          	sb	a3,-1(s1)
   10eba:	fee78fa3          	sb	a4,-1(a5)
   10ebe:	40960733          	sub	a4,a2,s1
   10ec2:	fee044e3          	blt	zero,a4,10eaa <qsort+0x122>
   10ec6:	01396963          	bltu	s2,s3,10ed8 <qsort+0x150>
   10eca:	9ba2                	c.add	s7,s0
   10ecc:	47b2                	c.lwsp	a5,12(sp)
   10ece:	18fbf963          	bgeu	s7,a5,11060 <qsort+0x2d8>
   10ed2:	ff797ce3          	bgeu	s2,s7,10eca <qsort+0x142>
   10ed6:	89de                	c.mv	s3,s7
   10ed8:	84ce                	c.mv	s1,s3
   10eda:	408989b3          	sub	s3,s3,s0
   10ede:	85a6                	c.mv	a1,s1
   10ee0:	854e                	c.mv	a0,s3
   10ee2:	9a82                	c.jalr	s5
   10ee4:	fea053e3          	bge	zero,a0,10eca <qsort+0x142>
   10ee8:	fa0b1be3          	bne	s6,zero,10e9e <qsort+0x116>
   10eec:	0009a703          	lw	a4,0(s3)
   10ef0:	409c                	c.lw	a5,0(s1)
   10ef2:	c098                	c.sw	a4,0(s1)
   10ef4:	00f9a023          	sw	a5,0(s3)
   10ef8:	ff3960e3          	bltu	s2,s3,10ed8 <qsort+0x150>
   10efc:	b7f9                	c.j	10eca <qsort+0x142>
   10efe:	160c0e63          	beq	s8,zero,1107a <qsort+0x2f2>
   10f02:	47d2                	c.lwsp	a5,20(sp)
   10f04:	40fa05b3          	sub	a1,s4,a5
   10f08:	41278733          	sub	a4,a5,s2
   10f0c:	00e5d363          	bge	a1,a4,10f12 <qsort+0x18a>
   10f10:	872e                	c.mv	a4,a1
   10f12:	22071763          	bne	a4,zero,11140 <qsort+0x3b8>
   10f16:	47b2                	c.lwsp	a5,12(sp)
   10f18:	41b48bb3          	sub	s7,s1,s11
   10f1c:	40978733          	sub	a4,a5,s1
   10f20:	408707b3          	sub	a5,a4,s0
   10f24:	00fbf363          	bgeu	s7,a5,10f2a <qsort+0x1a2>
   10f28:	87de                	c.mv	a5,s7
   10f2a:	30079f63          	bne	a5,zero,11248 <qsort+0x4c0>
   10f2e:	47b2                	c.lwsp	a5,12(sp)
   10f30:	417784b3          	sub	s1,a5,s7
   10f34:	0175e863          	bltu	a1,s7,10f44 <qsort+0x1bc>
   10f38:	875e                	c.mv	a4,s7
   10f3a:	87a6                	c.mv	a5,s1
   10f3c:	8bae                	c.mv	s7,a1
   10f3e:	84ca                	c.mv	s1,s2
   10f40:	85ba                	c.mv	a1,a4
   10f42:	893e                	c.mv	s2,a5
   10f44:	10b47c63          	bgeu	s0,a1,1105c <qsort+0x2d4>
   10f48:	4662                	c.lwsp	a2,24(sp)
   10f4a:	479d                	c.li	a5,7
   10f4c:	1ac7e963          	bltu	a5,a2,110fe <qsort+0x376>
   10f50:	028bd6b3          	divu	a3,s7,s0
   10f54:	00361793          	slli	a5,a2,0x3
   10f58:	00278733          	add	a4,a5,sp
   10f5c:	0605                	c.addi	a2,1
   10f5e:	cc32                	c.swsp	a2,24(sp)
   10f60:	d304                	c.sw	s1,32(a4)
   10f62:	0285d5b3          	divu	a1,a1,s0
   10f66:	d354                	c.sw	a3,36(a4)
   10f68:	bdb9                	c.j	10dc6 <qsort+0x3e>
   10f6a:	85a6                	c.mv	a1,s1
   10f6c:	854e                	c.mv	a0,s3
   10f6e:	9a82                	c.jalr	s5
   10f70:	24054263          	blt	a0,zero,111b4 <qsort+0x42c>
   10f74:	8ca6                	c.mv	s9,s1
   10f76:	ea0b01e3          	beq	s6,zero,10e18 <qsort+0x90>
   10f7a:	86ca                	c.mv	a3,s2
   10f7c:	31ab0a63          	beq	s6,s10,11290 <qsort+0x508>
   10f80:	000cc583          	lbu	a1,0(s9)
   10f84:	0006c603          	lbu	a2,0(a3)
   10f88:	47c2                	c.lwsp	a5,16(sp)
   10f8a:	0685                	c.addi	a3,1
   10f8c:	0c85                	c.addi	s9,1
   10f8e:	feb68fa3          	sb	a1,-1(a3)
   10f92:	fecc8fa3          	sb	a2,-1(s9)
   10f96:	40d78633          	sub	a2,a5,a3
   10f9a:	fec043e3          	blt	zero,a2,10f80 <qsort+0x1f8>
   10f9e:	b569                	c.j	10e28 <qsort+0xa0>
   10fa0:	040b1e63          	bne	s6,zero,10ffc <qsort+0x274>
   10fa4:	000da683          	lw	a3,0(s11)
   10fa8:	000a2703          	lw	a4,0(s4)
   10fac:	00da2023          	sw	a3,0(s4)
   10fb0:	00eda023          	sw	a4,0(s11)
   10fb4:	408d8db3          	sub	s11,s11,s0
   10fb8:	4c05                	c.li	s8,1
   10fba:	9a22                	c.add	s4,s0
   10fbc:	9ca2                	c.add	s9,s0
   10fbe:	bdb5                	c.j	10e3a <qsort+0xb2>
   10fc0:	00245613          	srli	a2,s0,0x2
   10fc4:	86a6                	c.mv	a3,s1
   10fc6:	876e                	c.mv	a4,s11
   10fc8:	4288                	c.lw	a0,0(a3)
   10fca:	430c                	c.lw	a1,0(a4)
   10fcc:	0691                	c.addi	a3,4
   10fce:	167d                	c.addi	a2,-1
   10fd0:	c308                	c.sw	a0,0(a4)
   10fd2:	feb6ae23          	sw	a1,-4(a3)
   10fd6:	0711                	c.addi	a4,4
   10fd8:	fec048e3          	blt	zero,a2,10fc8 <qsort+0x240>
   10fdc:	bdb5                	c.j	10e58 <qsort+0xd0>
   10fde:	00245713          	srli	a4,s0,0x2
   10fe2:	4390                	c.lw	a2,0(a5)
   10fe4:	4094                	c.lw	a3,0(s1)
   10fe6:	0791                	c.addi	a5,4
   10fe8:	177d                	c.addi	a4,-1
   10fea:	c090                	c.sw	a2,0(s1)
   10fec:	fed7ae23          	sw	a3,-4(a5)
   10ff0:	0491                	c.addi	s1,4
   10ff2:	fee048e3          	blt	zero,a4,10fe2 <qsort+0x25a>
   10ff6:	ef3961e3          	bltu	s2,s3,10ed8 <qsort+0x150>
   10ffa:	bdc1                	c.j	10eca <qsort+0x142>
   10ffc:	876e                	c.mv	a4,s11
   10ffe:	05ab0063          	beq	s6,s10,1103e <qsort+0x2b6>
   11002:	00074603          	lbu	a2,0(a4)
   11006:	0009c683          	lbu	a3,0(s3)
   1100a:	0705                	c.addi	a4,1
   1100c:	0985                	c.addi	s3,1
   1100e:	fec98fa3          	sb	a2,-1(s3)
   11012:	fed70fa3          	sb	a3,-1(a4)
   11016:	413c86b3          	sub	a3,s9,s3
   1101a:	fed044e3          	blt	zero,a3,11002 <qsort+0x27a>
   1101e:	bf59                	c.j	10fb4 <qsort+0x22c>
   11020:	fd49                	c.bnez	a0,10fba <qsort+0x232>
   11022:	0e0b1a63          	bne	s6,zero,11116 <qsort+0x38e>
   11026:	47d2                	c.lwsp	a5,20(sp)
   11028:	000a2603          	lw	a2,0(s4)
   1102c:	4398                	c.lw	a4,0(a5)
   1102e:	c390                	c.sw	a2,0(a5)
   11030:	008786b3          	add	a3,a5,s0
   11034:	00ea2023          	sw	a4,0(s4)
   11038:	ca36                	c.swsp	a3,20(sp)
   1103a:	4c05                	c.li	s8,1
   1103c:	bfbd                	c.j	10fba <qsort+0x232>
   1103e:	00245693          	srli	a3,s0,0x2
   11042:	430c                	c.lw	a1,0(a4)
   11044:	0009a603          	lw	a2,0(s3)
   11048:	0711                	c.addi	a4,4
   1104a:	16fd                	c.addi	a3,-1
   1104c:	00b9a023          	sw	a1,0(s3)
   11050:	fec72e23          	sw	a2,-4(a4)
   11054:	0991                	c.addi	s3,4
   11056:	fed046e3          	blt	zero,a3,11042 <qsort+0x2ba>
   1105a:	bfa9                	c.j	10fb4 <qsort+0x22c>
   1105c:	0b746963          	bltu	s0,s7,1110e <qsort+0x386>
   11060:	47e2                	c.lwsp	a5,24(sp)
   11062:	14078b63          	beq	a5,zero,111b8 <qsort+0x430>
   11066:	47e2                	c.lwsp	a5,24(sp)
   11068:	17fd                	c.addi	a5,-1
   1106a:	cc3e                	c.swsp	a5,24(sp)
   1106c:	078e                	c.slli	a5,0x3
   1106e:	00278733          	add	a4,a5,sp
   11072:	02072903          	lw	s2,32(a4)
   11076:	534c                	c.lw	a1,36(a4)
   11078:	b3b9                	c.j	10dc6 <qsort+0x3e>
   1107a:	47b2                	c.lwsp	a5,12(sp)
   1107c:	4742                	c.lwsp	a4,16(sp)
   1107e:	fef771e3          	bgeu	a4,a5,11060 <qsort+0x2d8>
   11082:	03797463          	bgeu	s2,s7,110aa <qsort+0x322>
   11086:	84de                	c.mv	s1,s7
   11088:	408b8bb3          	sub	s7,s7,s0
   1108c:	85a6                	c.mv	a1,s1
   1108e:	855e                	c.mv	a0,s7
   11090:	9a82                	c.jalr	s5
   11092:	00a05c63          	bge	zero,a0,110aa <qsort+0x322>
   11096:	020b1263          	bne	s6,zero,110ba <qsort+0x332>
   1109a:	000ba703          	lw	a4,0(s7)
   1109e:	409c                	c.lw	a5,0(s1)
   110a0:	c098                	c.sw	a4,0(s1)
   110a2:	00fba023          	sw	a5,0(s7)
   110a6:	ff7960e3          	bltu	s2,s7,11086 <qsort+0x2fe>
   110aa:	47f2                	c.lwsp	a5,28(sp)
   110ac:	4732                	c.lwsp	a4,12(sp)
   110ae:	8bbe                	c.mv	s7,a5
   110b0:	fae7f8e3          	bgeu	a5,a4,11060 <qsort+0x2d8>
   110b4:	97a2                	c.add	a5,s0
   110b6:	ce3e                	c.swsp	a5,28(sp)
   110b8:	b7e9                	c.j	11082 <qsort+0x2fa>
   110ba:	4722                	c.lwsp	a4,8(sp)
   110bc:	87de                	c.mv	a5,s7
   110be:	00eb8633          	add	a2,s7,a4
   110c2:	03ab0163          	beq	s6,s10,110e4 <qsort+0x35c>
   110c6:	0007c683          	lbu	a3,0(a5)
   110ca:	0004c703          	lbu	a4,0(s1)
   110ce:	0785                	c.addi	a5,1
   110d0:	0485                	c.addi	s1,1
   110d2:	fed48fa3          	sb	a3,-1(s1)
   110d6:	fee78fa3          	sb	a4,-1(a5)
   110da:	40960733          	sub	a4,a2,s1
   110de:	fee044e3          	blt	zero,a4,110c6 <qsort+0x33e>
   110e2:	b745                	c.j	11082 <qsort+0x2fa>
   110e4:	00245713          	srli	a4,s0,0x2
   110e8:	4390                	c.lw	a2,0(a5)
   110ea:	4094                	c.lw	a3,0(s1)
   110ec:	0791                	c.addi	a5,4
   110ee:	177d                	c.addi	a4,-1
   110f0:	c090                	c.sw	a2,0(s1)
   110f2:	fed7ae23          	sw	a3,-4(a5)
   110f6:	0491                	c.addi	s1,4
   110f8:	fee048e3          	blt	zero,a4,110e8 <qsort+0x360>
   110fc:	b759                	c.j	11082 <qsort+0x2fa>
   110fe:	0285d5b3          	divu	a1,a1,s0
   11102:	854a                	c.mv	a0,s2
   11104:	86d6                	c.mv	a3,s5
   11106:	8622                	c.mv	a2,s0
   11108:	3141                	c.jal	10d88 <qsort>
   1110a:	f5747ee3          	bgeu	s0,s7,11066 <qsort+0x2de>
   1110e:	028bd5b3          	divu	a1,s7,s0
   11112:	8926                	c.mv	s2,s1
   11114:	b94d                	c.j	10dc6 <qsort+0x3e>
   11116:	47d2                	c.lwsp	a5,20(sp)
   11118:	873e                	c.mv	a4,a5
   1111a:	008786b3          	add	a3,a5,s0
   1111e:	15ab0863          	beq	s6,s10,1126e <qsort+0x4e6>
   11122:	0009c583          	lbu	a1,0(s3)
   11126:	00074603          	lbu	a2,0(a4)
   1112a:	0985                	c.addi	s3,1
   1112c:	0705                	c.addi	a4,1
   1112e:	feb70fa3          	sb	a1,-1(a4)
   11132:	fec98fa3          	sb	a2,-1(s3)
   11136:	40e68633          	sub	a2,a3,a4
   1113a:	fec044e3          	blt	zero,a2,11122 <qsort+0x39a>
   1113e:	bded                	c.j	11038 <qsort+0x2b0>
   11140:	4509                	c.li	a0,2
   11142:	40ea06b3          	sub	a3,s4,a4
   11146:	864a                	c.mv	a2,s2
   11148:	00e90833          	add	a6,s2,a4
   1114c:	18ab1263          	bne	s6,a0,112d0 <qsort+0x548>
   11150:	0006c503          	lbu	a0,0(a3)
   11154:	00064703          	lbu	a4,0(a2)
   11158:	0685                	c.addi	a3,1
   1115a:	0605                	c.addi	a2,1
   1115c:	fea60fa3          	sb	a0,-1(a2)
   11160:	fee68fa3          	sb	a4,-1(a3)
   11164:	40c80733          	sub	a4,a6,a2
   11168:	fee044e3          	blt	zero,a4,11150 <qsort+0x3c8>
   1116c:	47b2                	c.lwsp	a5,12(sp)
   1116e:	41b48bb3          	sub	s7,s1,s11
   11172:	8f85                	c.sub	a5,s1
   11174:	8f81                	c.sub	a5,s0
   11176:	12fbeb63          	bltu	s7,a5,112ac <qsort+0x524>
   1117a:	da078ae3          	beq	a5,zero,10f2e <qsort+0x1a6>
   1117e:	4732                	c.lwsp	a4,12(sp)
   11180:	8f1d                	c.sub	a4,a5
   11182:	97d2                	c.add	a5,s4
   11184:	00074603          	lbu	a2,0(a4)
   11188:	0009c683          	lbu	a3,0(s3)
   1118c:	0705                	c.addi	a4,1
   1118e:	0985                	c.addi	s3,1
   11190:	fec98fa3          	sb	a2,-1(s3)
   11194:	fed70fa3          	sb	a3,-1(a4)
   11198:	413786b3          	sub	a3,a5,s3
   1119c:	fed044e3          	blt	zero,a3,11184 <qsort+0x3fc>
   111a0:	b379                	c.j	10f2e <qsort+0x1a6>
   111a2:	8566                	c.mv	a0,s9
   111a4:	9a82                	c.jalr	s5
   111a6:	c60547e3          	blt	a0,zero,10e14 <qsort+0x8c>
   111aa:	85a6                	c.mv	a1,s1
   111ac:	854e                	c.mv	a0,s3
   111ae:	9a82                	c.jalr	s5
   111b0:	dc0542e3          	blt	a0,zero,10f74 <qsort+0x1ec>
   111b4:	8cce                	c.mv	s9,s3
   111b6:	b9b9                	c.j	10e14 <qsort+0x8c>
   111b8:	40fa                	c.lwsp	ra,156(sp)
   111ba:	446a                	c.lwsp	s0,152(sp)
   111bc:	44da                	c.lwsp	s1,148(sp)
   111be:	494a                	c.lwsp	s2,144(sp)
   111c0:	49ba                	c.lwsp	s3,140(sp)
   111c2:	4a2a                	c.lwsp	s4,136(sp)
   111c4:	4a9a                	c.lwsp	s5,132(sp)
   111c6:	4b0a                	c.lwsp	s6,128(sp)
   111c8:	5bf6                	c.lwsp	s7,124(sp)
   111ca:	5c66                	c.lwsp	s8,120(sp)
   111cc:	5cd6                	c.lwsp	s9,116(sp)
   111ce:	5d46                	c.lwsp	s10,112(sp)
   111d0:	5db6                	c.lwsp	s11,108(sp)
   111d2:	610d                	c.addi16sp	sp,160
   111d4:	8082                	c.jr	ra
   111d6:	818d                	c.srli	a1,0x3
   111d8:	028584b3          	mul	s1,a1,s0
   111dc:	854a                	c.mv	a0,s2
   111de:	009909b3          	add	s3,s2,s1
   111e2:	85ce                	c.mv	a1,s3
   111e4:	00149793          	slli	a5,s1,0x1
   111e8:	00998a33          	add	s4,s3,s1
   111ec:	ca3e                	c.swsp	a5,20(sp)
   111ee:	9a82                	c.jalr	s5
   111f0:	85d2                	c.mv	a1,s4
   111f2:	14054263          	blt	a0,zero,11336 <qsort+0x5ae>
   111f6:	854e                	c.mv	a0,s3
   111f8:	9a82                	c.jalr	s5
   111fa:	0ca05463          	bge	zero,a0,112c2 <qsort+0x53a>
   111fe:	409c8c33          	sub	s8,s9,s1
   11202:	85e6                	c.mv	a1,s9
   11204:	8562                	c.mv	a0,s8
   11206:	009c8a33          	add	s4,s9,s1
   1120a:	9a82                	c.jalr	s5
   1120c:	85d2                	c.mv	a1,s4
   1120e:	10054963          	blt	a0,zero,11320 <qsort+0x598>
   11212:	8566                	c.mv	a0,s9
   11214:	9a82                	c.jalr	s5
   11216:	08a05f63          	bge	zero,a0,112b4 <qsort+0x52c>
   1121a:	00149793          	slli	a5,s1,0x1
   1121e:	40fd8a33          	sub	s4,s11,a5
   11222:	94d2                	c.add	s1,s4
   11224:	85a6                	c.mv	a1,s1
   11226:	8552                	c.mv	a0,s4
   11228:	9a82                	c.jalr	s5
   1122a:	85ee                	c.mv	a1,s11
   1122c:	0c054e63          	blt	a0,zero,11308 <qsort+0x580>
   11230:	8526                	c.mv	a0,s1
   11232:	9a82                	c.jalr	s5
   11234:	bca046e3          	blt	zero,a0,10e00 <qsort+0x78>
   11238:	85ee                	c.mv	a1,s11
   1123a:	8552                	c.mv	a0,s4
   1123c:	9a82                	c.jalr	s5
   1123e:	84d2                	c.mv	s1,s4
   11240:	bc0540e3          	blt	a0,zero,10e00 <qsort+0x78>
   11244:	84ee                	c.mv	s1,s11
   11246:	be6d                	c.j	10e00 <qsort+0x78>
   11248:	4732                	c.lwsp	a4,12(sp)
   1124a:	4689                	c.li	a3,2
   1124c:	8f1d                	c.sub	a4,a5
   1124e:	f2db0ae3          	beq	s6,a3,11182 <qsort+0x3fa>
   11252:	8389                	c.srli	a5,0x2
   11254:	4310                	c.lw	a2,0(a4)
   11256:	0009a683          	lw	a3,0(s3)
   1125a:	0711                	c.addi	a4,4
   1125c:	17fd                	c.addi	a5,-1
   1125e:	00c9a023          	sw	a2,0(s3)
   11262:	fed72e23          	sw	a3,-4(a4)
   11266:	0991                	c.addi	s3,4
   11268:	fef046e3          	blt	zero,a5,11254 <qsort+0x4cc>
   1126c:	b1c9                	c.j	10f2e <qsort+0x1a6>
   1126e:	00245693          	srli	a3,s0,0x2
   11272:	0009a583          	lw	a1,0(s3)
   11276:	4310                	c.lw	a2,0(a4)
   11278:	0991                	c.addi	s3,4
   1127a:	16fd                	c.addi	a3,-1
   1127c:	c30c                	c.sw	a1,0(a4)
   1127e:	fec9ae23          	sw	a2,-4(s3)
   11282:	0711                	c.addi	a4,4
   11284:	fed047e3          	blt	zero,a3,11272 <qsort+0x4ea>
   11288:	47d2                	c.lwsp	a5,20(sp)
   1128a:	008786b3          	add	a3,a5,s0
   1128e:	b36d                	c.j	11038 <qsort+0x2b0>
   11290:	00245613          	srli	a2,s0,0x2
   11294:	000ca503          	lw	a0,0(s9)
   11298:	428c                	c.lw	a1,0(a3)
   1129a:	0c91                	c.addi	s9,4
   1129c:	167d                	c.addi	a2,-1
   1129e:	c288                	c.sw	a0,0(a3)
   112a0:	febcae23          	sw	a1,-4(s9)
   112a4:	0691                	c.addi	a3,4
   112a6:	fec047e3          	blt	zero,a2,11294 <qsort+0x50c>
   112aa:	bebd                	c.j	10e28 <qsort+0xa0>
   112ac:	87de                	c.mv	a5,s7
   112ae:	c80780e3          	beq	a5,zero,10f2e <qsort+0x1a6>
   112b2:	b5f1                	c.j	1117e <qsort+0x3f6>
   112b4:	85d2                	c.mv	a1,s4
   112b6:	8562                	c.mv	a0,s8
   112b8:	9a82                	c.jalr	s5
   112ba:	06054c63          	blt	a0,zero,11332 <qsort+0x5aa>
   112be:	8cd2                	c.mv	s9,s4
   112c0:	bfa9                	c.j	1121a <qsort+0x492>
   112c2:	85d2                	c.mv	a1,s4
   112c4:	854a                	c.mv	a0,s2
   112c6:	9a82                	c.jalr	s5
   112c8:	08054063          	blt	a0,zero,11348 <qsort+0x5c0>
   112cc:	89d2                	c.mv	s3,s4
   112ce:	bf05                	c.j	111fe <qsort+0x476>
   112d0:	8309                	c.srli	a4,0x2
   112d2:	0006a803          	lw	a6,0(a3)
   112d6:	4208                	c.lw	a0,0(a2)
   112d8:	0691                	c.addi	a3,4
   112da:	177d                	c.addi	a4,-1
   112dc:	01062023          	sw	a6,0(a2)
   112e0:	fea6ae23          	sw	a0,-4(a3)
   112e4:	0611                	c.addi	a2,4
   112e6:	fee046e3          	blt	zero,a4,112d2 <qsort+0x54a>
   112ea:	47b2                	c.lwsp	a5,12(sp)
   112ec:	41b48bb3          	sub	s7,s1,s11
   112f0:	40978733          	sub	a4,a5,s1
   112f4:	408707b3          	sub	a5,a4,s0
   112f8:	00fbf363          	bgeu	s7,a5,112fe <qsort+0x576>
   112fc:	87de                	c.mv	a5,s7
   112fe:	c20788e3          	beq	a5,zero,10f2e <qsort+0x1a6>
   11302:	4732                	c.lwsp	a4,12(sp)
   11304:	8f1d                	c.sub	a4,a5
   11306:	b7b1                	c.j	11252 <qsort+0x4ca>
   11308:	8526                	c.mv	a0,s1
   1130a:	9a82                	c.jalr	s5
   1130c:	ae054ae3          	blt	a0,zero,10e00 <qsort+0x78>
   11310:	85ee                	c.mv	a1,s11
   11312:	8552                	c.mv	a0,s4
   11314:	9a82                	c.jalr	s5
   11316:	84d2                	c.mv	s1,s4
   11318:	ae0554e3          	bge	a0,zero,10e00 <qsort+0x78>
   1131c:	84ee                	c.mv	s1,s11
   1131e:	b4cd                	c.j	10e00 <qsort+0x78>
   11320:	8566                	c.mv	a0,s9
   11322:	9a82                	c.jalr	s5
   11324:	ee054be3          	blt	a0,zero,1121a <qsort+0x492>
   11328:	85d2                	c.mv	a1,s4
   1132a:	8562                	c.mv	a0,s8
   1132c:	9a82                	c.jalr	s5
   1132e:	f80548e3          	blt	a0,zero,112be <qsort+0x536>
   11332:	8ce2                	c.mv	s9,s8
   11334:	b5dd                	c.j	1121a <qsort+0x492>
   11336:	854e                	c.mv	a0,s3
   11338:	9a82                	c.jalr	s5
   1133a:	ec0542e3          	blt	a0,zero,111fe <qsort+0x476>
   1133e:	85d2                	c.mv	a1,s4
   11340:	854a                	c.mv	a0,s2
   11342:	9a82                	c.jalr	s5
   11344:	f80544e3          	blt	a0,zero,112cc <qsort+0x544>
   11348:	89ca                	c.mv	s3,s2
   1134a:	bd55                	c.j	111fe <qsort+0x476>

0001134c <__fp_lock>:
   1134c:	4501                	c.li	a0,0
   1134e:	8082                	c.jr	ra

00011350 <stdio_exit_handler>:
   11350:	00028637          	lui	a2,0x28
   11354:	65dd                	c.lui	a1,0x17
   11356:	00028537          	lui	a0,0x28
   1135a:	01060613          	addi	a2,a2,16 # 28010 <__sglue>
   1135e:	38a58593          	addi	a1,a1,906 # 1738a <_fclose_r>
   11362:	02050513          	addi	a0,a0,32 # 28020 <_impure_data>
   11366:	a661                	c.j	116ee <_fwalk_sglue>

00011368 <cleanup_stdio>:
   11368:	414c                	c.lw	a1,4(a0)
   1136a:	1141                	c.addi	sp,-16
   1136c:	c422                	c.swsp	s0,8(sp)
   1136e:	c606                	c.swsp	ra,12(sp)
   11370:	01818793          	addi	a5,gp,24 # 28828 <__sf>
   11374:	842a                	c.mv	s0,a0
   11376:	00f58463          	beq	a1,a5,1137e <cleanup_stdio+0x16>
   1137a:	010060ef          	jal	ra,1738a <_fclose_r>
   1137e:	440c                	c.lw	a1,8(s0)
   11380:	08018793          	addi	a5,gp,128 # 28890 <__sf+0x68>
   11384:	00f58563          	beq	a1,a5,1138e <cleanup_stdio+0x26>
   11388:	8522                	c.mv	a0,s0
   1138a:	000060ef          	jal	ra,1738a <_fclose_r>
   1138e:	444c                	c.lw	a1,12(s0)
   11390:	0e818793          	addi	a5,gp,232 # 288f8 <__sf+0xd0>
   11394:	00f58863          	beq	a1,a5,113a4 <cleanup_stdio+0x3c>
   11398:	8522                	c.mv	a0,s0
   1139a:	4422                	c.lwsp	s0,8(sp)
   1139c:	40b2                	c.lwsp	ra,12(sp)
   1139e:	0141                	c.addi	sp,16
   113a0:	7eb0506f          	jal	zero,1738a <_fclose_r>
   113a4:	40b2                	c.lwsp	ra,12(sp)
   113a6:	4422                	c.lwsp	s0,8(sp)
   113a8:	0141                	c.addi	sp,16
   113aa:	8082                	c.jr	ra

000113ac <__fp_unlock>:
   113ac:	4501                	c.li	a0,0
   113ae:	8082                	c.jr	ra

000113b0 <global_stdio_init.part.0>:
   113b0:	1101                	c.addi	sp,-32
   113b2:	67c5                	c.lui	a5,0x11
   113b4:	cc22                	c.swsp	s0,24(sp)
   113b6:	35078793          	addi	a5,a5,848 # 11350 <stdio_exit_handler>
   113ba:	01818413          	addi	s0,gp,24 # 28828 <__sf>
   113be:	ce06                	c.swsp	ra,28(sp)
   113c0:	ca26                	c.swsp	s1,20(sp)
   113c2:	c84a                	c.swsp	s2,16(sp)
   113c4:	c64e                	c.swsp	s3,12(sp)
   113c6:	c452                	c.swsp	s4,8(sp)
   113c8:	fcf1ae23          	sw	a5,-36(gp) # 287ec <__stdio_exit_handler>
   113cc:	4621                	c.li	a2,8
   113ce:	4791                	c.li	a5,4
   113d0:	4581                	c.li	a1,0
   113d2:	07418513          	addi	a0,gp,116 # 28884 <__sf+0x5c>
   113d6:	c45c                	c.sw	a5,12(s0)
   113d8:	00042023          	sw	zero,0(s0)
   113dc:	00042223          	sw	zero,4(s0)
   113e0:	00042423          	sw	zero,8(s0)
   113e4:	06042223          	sw	zero,100(s0)
   113e8:	00042823          	sw	zero,16(s0)
   113ec:	00042a23          	sw	zero,20(s0)
   113f0:	00042c23          	sw	zero,24(s0)
   113f4:	31d000ef          	jal	ra,11f10 <memset>
   113f8:	6a49                	c.lui	s4,0x12
   113fa:	69c9                	c.lui	s3,0x12
   113fc:	6949                	c.lui	s2,0x12
   113fe:	64c9                	c.lui	s1,0x12
   11400:	67c1                	c.lui	a5,0x10
   11402:	8dca0a13          	addi	s4,s4,-1828 # 118dc <__sread>
   11406:	91698993          	addi	s3,s3,-1770 # 11916 <__swrite>
   1140a:	96690913          	addi	s2,s2,-1690 # 11966 <__sseek>
   1140e:	9a648493          	addi	s1,s1,-1626 # 119a6 <__sclose>
   11412:	07a5                	c.addi	a5,9 # 10009 <exit-0xab>
   11414:	4621                	c.li	a2,8
   11416:	4581                	c.li	a1,0
   11418:	0dc18513          	addi	a0,gp,220 # 288ec <__sf+0xc4>
   1141c:	d87c                	c.sw	a5,116(s0)
   1141e:	03442023          	sw	s4,32(s0)
   11422:	03342223          	sw	s3,36(s0)
   11426:	03242423          	sw	s2,40(s0)
   1142a:	d444                	c.sw	s1,44(s0)
   1142c:	cc40                	c.sw	s0,28(s0)
   1142e:	06042423          	sw	zero,104(s0)
   11432:	06042623          	sw	zero,108(s0)
   11436:	06042823          	sw	zero,112(s0)
   1143a:	0c042623          	sw	zero,204(s0)
   1143e:	06042c23          	sw	zero,120(s0)
   11442:	06042e23          	sw	zero,124(s0)
   11446:	08042023          	sw	zero,128(s0)
   1144a:	2c7000ef          	jal	ra,11f10 <memset>
   1144e:	000207b7          	lui	a5,0x20
   11452:	07c9                	c.addi	a5,18 # 20012 <_strtodg_l+0x156>
   11454:	08018713          	addi	a4,gp,128 # 28890 <__sf+0x68>
   11458:	14418513          	addi	a0,gp,324 # 28954 <__sf+0x12c>
   1145c:	4621                	c.li	a2,8
   1145e:	4581                	c.li	a1,0
   11460:	09442423          	sw	s4,136(s0)
   11464:	09342623          	sw	s3,140(s0)
   11468:	09242823          	sw	s2,144(s0)
   1146c:	08942a23          	sw	s1,148(s0)
   11470:	0cf42e23          	sw	a5,220(s0)
   11474:	0c042823          	sw	zero,208(s0)
   11478:	0c042a23          	sw	zero,212(s0)
   1147c:	0c042c23          	sw	zero,216(s0)
   11480:	12042a23          	sw	zero,308(s0)
   11484:	0e042023          	sw	zero,224(s0)
   11488:	0e042223          	sw	zero,228(s0)
   1148c:	0e042423          	sw	zero,232(s0)
   11490:	08e42223          	sw	a4,132(s0)
   11494:	27d000ef          	jal	ra,11f10 <memset>
   11498:	0e818793          	addi	a5,gp,232 # 288f8 <__sf+0xd0>
   1149c:	0f442823          	sw	s4,240(s0)
   114a0:	0f342a23          	sw	s3,244(s0)
   114a4:	0f242c23          	sw	s2,248(s0)
   114a8:	0e942e23          	sw	s1,252(s0)
   114ac:	40f2                	c.lwsp	ra,28(sp)
   114ae:	0ef42623          	sw	a5,236(s0)
   114b2:	4462                	c.lwsp	s0,24(sp)
   114b4:	44d2                	c.lwsp	s1,20(sp)
   114b6:	4942                	c.lwsp	s2,16(sp)
   114b8:	49b2                	c.lwsp	s3,12(sp)
   114ba:	4a22                	c.lwsp	s4,8(sp)
   114bc:	6105                	c.addi16sp	sp,32
   114be:	8082                	c.jr	ra

000114c0 <__sfp>:
   114c0:	fdc1a783          	lw	a5,-36(gp) # 287ec <__stdio_exit_handler>
   114c4:	1101                	c.addi	sp,-32
   114c6:	ca26                	c.swsp	s1,20(sp)
   114c8:	ce06                	c.swsp	ra,28(sp)
   114ca:	cc22                	c.swsp	s0,24(sp)
   114cc:	84aa                	c.mv	s1,a0
   114ce:	cbdd                	c.beqz	a5,11584 <__sfp+0xc4>
   114d0:	00028837          	lui	a6,0x28
   114d4:	01080813          	addi	a6,a6,16 # 28010 <__sglue>
   114d8:	56fd                	c.li	a3,-1
   114da:	00482783          	lw	a5,4(a6)
   114de:	17fd                	c.addi	a5,-1
   114e0:	0607c263          	blt	a5,zero,11544 <__sfp+0x84>
   114e4:	00882403          	lw	s0,8(a6)
   114e8:	a029                	c.j	114f2 <__sfp+0x32>
   114ea:	06840413          	addi	s0,s0,104
   114ee:	04d78b63          	beq	a5,a3,11544 <__sfp+0x84>
   114f2:	00c41703          	lh	a4,12(s0)
   114f6:	17fd                	c.addi	a5,-1
   114f8:	fb6d                	c.bnez	a4,114ea <__sfp+0x2a>
   114fa:	77c1                	c.lui	a5,0xffff0
   114fc:	0785                	c.addi	a5,1 # ffff0001 <__BSS_END__+0xfffc74e9>
   114fe:	c45c                	c.sw	a5,12(s0)
   11500:	06042223          	sw	zero,100(s0)
   11504:	00042023          	sw	zero,0(s0)
   11508:	00042423          	sw	zero,8(s0)
   1150c:	00042223          	sw	zero,4(s0)
   11510:	00042823          	sw	zero,16(s0)
   11514:	00042a23          	sw	zero,20(s0)
   11518:	00042c23          	sw	zero,24(s0)
   1151c:	4621                	c.li	a2,8
   1151e:	4581                	c.li	a1,0
   11520:	05c40513          	addi	a0,s0,92
   11524:	1ed000ef          	jal	ra,11f10 <memset>
   11528:	02042823          	sw	zero,48(s0)
   1152c:	02042a23          	sw	zero,52(s0)
   11530:	04042223          	sw	zero,68(s0)
   11534:	04042423          	sw	zero,72(s0)
   11538:	40f2                	c.lwsp	ra,28(sp)
   1153a:	8522                	c.mv	a0,s0
   1153c:	4462                	c.lwsp	s0,24(sp)
   1153e:	44d2                	c.lwsp	s1,20(sp)
   11540:	6105                	c.addi16sp	sp,32
   11542:	8082                	c.jr	ra
   11544:	00082403          	lw	s0,0(a6)
   11548:	c019                	c.beqz	s0,1154e <__sfp+0x8e>
   1154a:	8822                	c.mv	a6,s0
   1154c:	b779                	c.j	114da <__sfp+0x1a>
   1154e:	1ac00593          	addi	a1,zero,428
   11552:	8526                	c.mv	a0,s1
   11554:	c642                	c.swsp	a6,12(sp)
   11556:	629000ef          	jal	ra,1237e <_malloc_r>
   1155a:	4832                	c.lwsp	a6,12(sp)
   1155c:	842a                	c.mv	s0,a0
   1155e:	c50d                	c.beqz	a0,11588 <__sfp+0xc8>
   11560:	4791                	c.li	a5,4
   11562:	c15c                	c.sw	a5,4(a0)
   11564:	0531                	c.addi	a0,12
   11566:	00042023          	sw	zero,0(s0)
   1156a:	c408                	c.sw	a0,8(s0)
   1156c:	1a000613          	addi	a2,zero,416
   11570:	4581                	c.li	a1,0
   11572:	c642                	c.swsp	a6,12(sp)
   11574:	19d000ef          	jal	ra,11f10 <memset>
   11578:	4832                	c.lwsp	a6,12(sp)
   1157a:	56fd                	c.li	a3,-1
   1157c:	00882023          	sw	s0,0(a6)
   11580:	8822                	c.mv	a6,s0
   11582:	bfa1                	c.j	114da <__sfp+0x1a>
   11584:	3535                	c.jal	113b0 <global_stdio_init.part.0>
   11586:	b7a9                	c.j	114d0 <__sfp+0x10>
   11588:	00082023          	sw	zero,0(a6)
   1158c:	47b1                	c.li	a5,12
   1158e:	c09c                	c.sw	a5,0(s1)
   11590:	b765                	c.j	11538 <__sfp+0x78>

00011592 <__sinit>:
   11592:	595c                	c.lw	a5,52(a0)
   11594:	c391                	c.beqz	a5,11598 <__sinit+0x6>
   11596:	8082                	c.jr	ra
   11598:	67c5                	c.lui	a5,0x11
   1159a:	fdc1a703          	lw	a4,-36(gp) # 287ec <__stdio_exit_handler>
   1159e:	36878793          	addi	a5,a5,872 # 11368 <cleanup_stdio>
   115a2:	d95c                	c.sw	a5,52(a0)
   115a4:	fb6d                	c.bnez	a4,11596 <__sinit+0x4>
   115a6:	b529                	c.j	113b0 <global_stdio_init.part.0>

000115a8 <__sfp_lock_acquire>:
   115a8:	8082                	c.jr	ra

000115aa <__sfp_lock_release>:
   115aa:	8082                	c.jr	ra

000115ac <__fp_lock_all>:
   115ac:	00028637          	lui	a2,0x28
   115b0:	65c5                	c.lui	a1,0x11
   115b2:	01060613          	addi	a2,a2,16 # 28010 <__sglue>
   115b6:	34c58593          	addi	a1,a1,844 # 1134c <__fp_lock>
   115ba:	4501                	c.li	a0,0
   115bc:	aa0d                	c.j	116ee <_fwalk_sglue>

000115be <__fp_unlock_all>:
   115be:	00028637          	lui	a2,0x28
   115c2:	65c5                	c.lui	a1,0x11
   115c4:	01060613          	addi	a2,a2,16 # 28010 <__sglue>
   115c8:	3ac58593          	addi	a1,a1,940 # 113ac <__fp_unlock>
   115cc:	4501                	c.li	a0,0
   115ce:	a205                	c.j	116ee <_fwalk_sglue>

000115d0 <_fopen_r>:
   115d0:	7179                	c.addi16sp	sp,-48
   115d2:	d04a                	c.swsp	s2,32(sp)
   115d4:	892e                	c.mv	s2,a1
   115d6:	85b2                	c.mv	a1,a2
   115d8:	0870                	c.addi4spn	a2,sp,28
   115da:	d226                	c.swsp	s1,36(sp)
   115dc:	d606                	c.swsp	ra,44(sp)
   115de:	84aa                	c.mv	s1,a0
   115e0:	08e060ef          	jal	ra,1766e <__sflags>
   115e4:	c13d                	c.beqz	a0,1164a <_fopen_r+0x7a>
   115e6:	d422                	c.swsp	s0,40(sp)
   115e8:	842a                	c.mv	s0,a0
   115ea:	8526                	c.mv	a0,s1
   115ec:	3dd1                	c.jal	114c0 <__sfp>
   115ee:	cd29                	c.beqz	a0,11648 <_fopen_r+0x78>
   115f0:	4672                	c.lwsp	a2,28(sp)
   115f2:	c62a                	c.swsp	a0,12(sp)
   115f4:	85ca                	c.mv	a1,s2
   115f6:	1b600693          	addi	a3,zero,438
   115fa:	8526                	c.mv	a0,s1
   115fc:	7f0000ef          	jal	ra,11dec <_open_r>
   11600:	47b2                	c.lwsp	a5,12(sp)
   11602:	06054963          	blt	a0,zero,11674 <_fopen_r+0xa4>
   11606:	0442                	c.slli	s0,0x10
   11608:	65c9                	c.lui	a1,0x12
   1160a:	6649                	c.lui	a2,0x12
   1160c:	66c9                	c.lui	a3,0x12
   1160e:	6749                	c.lui	a4,0x12
   11610:	8441                	c.srai	s0,0x10
   11612:	8dc58593          	addi	a1,a1,-1828 # 118dc <__sread>
   11616:	91660613          	addi	a2,a2,-1770 # 11916 <__swrite>
   1161a:	96668693          	addi	a3,a3,-1690 # 11966 <__sseek>
   1161e:	9a670713          	addi	a4,a4,-1626 # 119a6 <__sclose>
   11622:	00879623          	sh	s0,12(a5)
   11626:	00a79723          	sh	a0,14(a5)
   1162a:	10047413          	andi	s0,s0,256
   1162e:	cfdc                	c.sw	a5,28(a5)
   11630:	d38c                	c.sw	a1,32(a5)
   11632:	d3d0                	c.sw	a2,36(a5)
   11634:	d794                	c.sw	a3,40(a5)
   11636:	d7d8                	c.sw	a4,44(a5)
   11638:	e005                	c.bnez	s0,11658 <_fopen_r+0x88>
   1163a:	5422                	c.lwsp	s0,40(sp)
   1163c:	50b2                	c.lwsp	ra,44(sp)
   1163e:	5492                	c.lwsp	s1,36(sp)
   11640:	5902                	c.lwsp	s2,32(sp)
   11642:	853e                	c.mv	a0,a5
   11644:	6145                	c.addi16sp	sp,48
   11646:	8082                	c.jr	ra
   11648:	5422                	c.lwsp	s0,40(sp)
   1164a:	4781                	c.li	a5,0
   1164c:	50b2                	c.lwsp	ra,44(sp)
   1164e:	5492                	c.lwsp	s1,36(sp)
   11650:	5902                	c.lwsp	s2,32(sp)
   11652:	853e                	c.mv	a0,a5
   11654:	6145                	c.addi16sp	sp,48
   11656:	8082                	c.jr	ra
   11658:	8526                	c.mv	a0,s1
   1165a:	85be                	c.mv	a1,a5
   1165c:	4689                	c.li	a3,2
   1165e:	4601                	c.li	a2,0
   11660:	c63e                	c.swsp	a5,12(sp)
   11662:	28b5                	c.jal	116de <_fseek_r>
   11664:	47b2                	c.lwsp	a5,12(sp)
   11666:	5422                	c.lwsp	s0,40(sp)
   11668:	50b2                	c.lwsp	ra,44(sp)
   1166a:	5492                	c.lwsp	s1,36(sp)
   1166c:	5902                	c.lwsp	s2,32(sp)
   1166e:	853e                	c.mv	a0,a5
   11670:	6145                	c.addi16sp	sp,48
   11672:	8082                	c.jr	ra
   11674:	3f15                	c.jal	115a8 <__sfp_lock_acquire>
   11676:	47b2                	c.lwsp	a5,12(sp)
   11678:	00079623          	sh	zero,12(a5)
   1167c:	373d                	c.jal	115aa <__sfp_lock_release>
   1167e:	4781                	c.li	a5,0
   11680:	5422                	c.lwsp	s0,40(sp)
   11682:	b7e9                	c.j	1164c <_fopen_r+0x7c>

00011684 <fopen>:
   11684:	87aa                	c.mv	a5,a0
   11686:	fcc1a503          	lw	a0,-52(gp) # 287dc <_impure_ptr>
   1168a:	862e                	c.mv	a2,a1
   1168c:	85be                	c.mv	a1,a5
   1168e:	b789                	c.j	115d0 <_fopen_r>

00011690 <fscanf>:
   11690:	7139                	c.addi16sp	sp,-64
   11692:	8eaa                	c.mv	t4,a0
   11694:	fcc1a503          	lw	a0,-52(gp) # 287dc <_impure_ptr>
   11698:	8e2e                	c.mv	t3,a1
   1169a:	02810313          	addi	t1,sp,40
   1169e:	d432                	c.swsp	a2,40(sp)
   116a0:	d636                	c.swsp	a3,44(sp)
   116a2:	85f6                	c.mv	a1,t4
   116a4:	8672                	c.mv	a2,t3
   116a6:	869a                	c.mv	a3,t1
   116a8:	ce06                	c.swsp	ra,28(sp)
   116aa:	d83a                	c.swsp	a4,48(sp)
   116ac:	da3e                	c.swsp	a5,52(sp)
   116ae:	dc42                	c.swsp	a6,56(sp)
   116b0:	de46                	c.swsp	a7,60(sp)
   116b2:	c61a                	c.swsp	t1,12(sp)
   116b4:	483050ef          	jal	ra,17336 <_vfscanf_r>
   116b8:	40f2                	c.lwsp	ra,28(sp)
   116ba:	6121                	c.addi16sp	sp,64
   116bc:	8082                	c.jr	ra

000116be <_fscanf_r>:
   116be:	7139                	c.addi16sp	sp,-64
   116c0:	02c10313          	addi	t1,sp,44
   116c4:	d636                	c.swsp	a3,44(sp)
   116c6:	869a                	c.mv	a3,t1
   116c8:	ce06                	c.swsp	ra,28(sp)
   116ca:	d83a                	c.swsp	a4,48(sp)
   116cc:	da3e                	c.swsp	a5,52(sp)
   116ce:	dc42                	c.swsp	a6,56(sp)
   116d0:	de46                	c.swsp	a7,60(sp)
   116d2:	c61a                	c.swsp	t1,12(sp)
   116d4:	463050ef          	jal	ra,17336 <_vfscanf_r>
   116d8:	40f2                	c.lwsp	ra,28(sp)
   116da:	6121                	c.addi16sp	sp,64
   116dc:	8082                	c.jr	ra

000116de <_fseek_r>:
   116de:	a4f9                	c.j	119ac <_fseeko_r>

000116e0 <fseek>:
   116e0:	872a                	c.mv	a4,a0
   116e2:	fcc1a503          	lw	a0,-52(gp) # 287dc <_impure_ptr>
   116e6:	86b2                	c.mv	a3,a2
   116e8:	862e                	c.mv	a2,a1
   116ea:	85ba                	c.mv	a1,a4
   116ec:	a4c1                	c.j	119ac <_fseeko_r>

000116ee <_fwalk_sglue>:
   116ee:	7179                	c.addi16sp	sp,-48
   116f0:	d04a                	c.swsp	s2,32(sp)
   116f2:	ce4e                	c.swsp	s3,28(sp)
   116f4:	cc52                	c.swsp	s4,24(sp)
   116f6:	ca56                	c.swsp	s5,20(sp)
   116f8:	c85a                	c.swsp	s6,16(sp)
   116fa:	c65e                	c.swsp	s7,12(sp)
   116fc:	d606                	c.swsp	ra,44(sp)
   116fe:	d422                	c.swsp	s0,40(sp)
   11700:	d226                	c.swsp	s1,36(sp)
   11702:	8ab2                	c.mv	s5,a2
   11704:	8b2a                	c.mv	s6,a0
   11706:	8bae                	c.mv	s7,a1
   11708:	4a01                	c.li	s4,0
   1170a:	4985                	c.li	s3,1
   1170c:	597d                	c.li	s2,-1
   1170e:	004aa483          	lw	s1,4(s5)
   11712:	14fd                	c.addi	s1,-1
   11714:	0204c663          	blt	s1,zero,11740 <_fwalk_sglue+0x52>
   11718:	008aa403          	lw	s0,8(s5)
   1171c:	00c45783          	lhu	a5,12(s0)
   11720:	00f9fb63          	bgeu	s3,a5,11736 <_fwalk_sglue+0x48>
   11724:	00e41783          	lh	a5,14(s0)
   11728:	85a2                	c.mv	a1,s0
   1172a:	855a                	c.mv	a0,s6
   1172c:	01278563          	beq	a5,s2,11736 <_fwalk_sglue+0x48>
   11730:	9b82                	c.jalr	s7
   11732:	00aa6a33          	or	s4,s4,a0
   11736:	14fd                	c.addi	s1,-1
   11738:	06840413          	addi	s0,s0,104
   1173c:	ff2490e3          	bne	s1,s2,1171c <_fwalk_sglue+0x2e>
   11740:	000aaa83          	lw	s5,0(s5)
   11744:	fc0a95e3          	bne	s5,zero,1170e <_fwalk_sglue+0x20>
   11748:	50b2                	c.lwsp	ra,44(sp)
   1174a:	5422                	c.lwsp	s0,40(sp)
   1174c:	5492                	c.lwsp	s1,36(sp)
   1174e:	5902                	c.lwsp	s2,32(sp)
   11750:	49f2                	c.lwsp	s3,28(sp)
   11752:	4ad2                	c.lwsp	s5,20(sp)
   11754:	4b42                	c.lwsp	s6,16(sp)
   11756:	4bb2                	c.lwsp	s7,12(sp)
   11758:	8552                	c.mv	a0,s4
   1175a:	4a62                	c.lwsp	s4,24(sp)
   1175c:	6145                	c.addi16sp	sp,48
   1175e:	8082                	c.jr	ra

00011760 <_fwrite_r>:
   11760:	02c687b3          	mul	a5,a3,a2
   11764:	715d                	c.addi16sp	sp,-80
   11766:	02c10813          	addi	a6,sp,44
   1176a:	88b2                	c.mv	a7,a2
   1176c:	4605                	c.li	a2,1
   1176e:	da42                	c.swsp	a6,52(sp)
   11770:	c686                	c.swsp	ra,76(sp)
   11772:	d62e                	c.swsp	a1,44(sp)
   11774:	dc32                	c.swsp	a2,56(sp)
   11776:	882a                	c.mv	a6,a0
   11778:	d83e                	c.swsp	a5,48(sp)
   1177a:	de3e                	c.swsp	a5,60(sp)
   1177c:	c119                	c.beqz	a0,11782 <_fwrite_r+0x22>
   1177e:	5950                	c.lw	a2,52(a0)
   11780:	ce29                	c.beqz	a2,117da <_fwrite_r+0x7a>
   11782:	00c71603          	lh	a2,12(a4)
   11786:	536c                	c.lw	a1,100(a4)
   11788:	6309                	c.lui	t1,0x2
   1178a:	01261513          	slli	a0,a2,0x12
   1178e:	02054e63          	blt	a0,zero,117ca <_fwrite_r+0x6a>
   11792:	7579                	c.lui	a0,0xffffe
   11794:	157d                	c.addi	a0,-1 # ffffdfff <__BSS_END__+0xfffd54e7>
   11796:	00666633          	or	a2,a2,t1
   1179a:	8de9                	c.and	a1,a0
   1179c:	00c71623          	sh	a2,12(a4)
   117a0:	d36c                	c.sw	a1,100(a4)
   117a2:	85ba                	c.mv	a1,a4
   117a4:	8542                	c.mv	a0,a6
   117a6:	1850                	c.addi4spn	a2,sp,52
   117a8:	c636                	c.swsp	a3,12(sp)
   117aa:	ca46                	c.swsp	a7,20(sp)
   117ac:	c83e                	c.swsp	a5,16(sp)
   117ae:	0e4060ef          	jal	ra,17892 <__sfvwrite_r>
   117b2:	872a                	c.mv	a4,a0
   117b4:	4532                	c.lwsp	a0,12(sp)
   117b6:	c719                	c.beqz	a4,117c4 <_fwrite_r+0x64>
   117b8:	5772                	c.lwsp	a4,60(sp)
   117ba:	47c2                	c.lwsp	a5,16(sp)
   117bc:	48d2                	c.lwsp	a7,20(sp)
   117be:	8f99                	c.sub	a5,a4
   117c0:	0317d533          	divu	a0,a5,a7
   117c4:	40b6                	c.lwsp	ra,76(sp)
   117c6:	6161                	c.addi16sp	sp,80
   117c8:	8082                	c.jr	ra
   117ca:	01259613          	slli	a2,a1,0x12
   117ce:	4501                	c.li	a0,0
   117d0:	fc0659e3          	bge	a2,zero,117a2 <_fwrite_r+0x42>
   117d4:	40b6                	c.lwsp	ra,76(sp)
   117d6:	6161                	c.addi16sp	sp,80
   117d8:	8082                	c.jr	ra
   117da:	ce3a                	c.swsp	a4,28(sp)
   117dc:	cc36                	c.swsp	a3,24(sp)
   117de:	ca46                	c.swsp	a7,20(sp)
   117e0:	c63e                	c.swsp	a5,12(sp)
   117e2:	c82a                	c.swsp	a0,16(sp)
   117e4:	337d                	c.jal	11592 <__sinit>
   117e6:	4772                	c.lwsp	a4,28(sp)
   117e8:	46e2                	c.lwsp	a3,24(sp)
   117ea:	48d2                	c.lwsp	a7,20(sp)
   117ec:	4842                	c.lwsp	a6,16(sp)
   117ee:	47b2                	c.lwsp	a5,12(sp)
   117f0:	bf49                	c.j	11782 <_fwrite_r+0x22>

000117f2 <fwrite>:
   117f2:	02c587b3          	mul	a5,a1,a2
   117f6:	715d                	c.addi16sp	sp,-80
   117f8:	8832                	c.mv	a6,a2
   117fa:	fcc1a603          	lw	a2,-52(gp) # 287dc <_impure_ptr>
   117fe:	88ae                	c.mv	a7,a1
   11800:	4705                	c.li	a4,1
   11802:	106c                	c.addi4spn	a1,sp,44
   11804:	c686                	c.swsp	ra,76(sp)
   11806:	d62a                	c.swsp	a0,44(sp)
   11808:	da2e                	c.swsp	a1,52(sp)
   1180a:	dc3a                	c.swsp	a4,56(sp)
   1180c:	d83e                	c.swsp	a5,48(sp)
   1180e:	de3e                	c.swsp	a5,60(sp)
   11810:	c219                	c.beqz	a2,11816 <fwrite+0x24>
   11812:	5a58                	c.lw	a4,52(a2)
   11814:	cf29                	c.beqz	a4,1186e <fwrite+0x7c>
   11816:	00c69703          	lh	a4,12(a3)
   1181a:	52ec                	c.lw	a1,100(a3)
   1181c:	6309                	c.lui	t1,0x2
   1181e:	01271513          	slli	a0,a4,0x12
   11822:	02054e63          	blt	a0,zero,1185e <fwrite+0x6c>
   11826:	7579                	c.lui	a0,0xffffe
   11828:	157d                	c.addi	a0,-1 # ffffdfff <__BSS_END__+0xfffd54e7>
   1182a:	00676733          	or	a4,a4,t1
   1182e:	8de9                	c.and	a1,a0
   11830:	00e69623          	sh	a4,12(a3)
   11834:	d2ec                	c.sw	a1,100(a3)
   11836:	8532                	c.mv	a0,a2
   11838:	85b6                	c.mv	a1,a3
   1183a:	1850                	c.addi4spn	a2,sp,52
   1183c:	c642                	c.swsp	a6,12(sp)
   1183e:	ca46                	c.swsp	a7,20(sp)
   11840:	c83e                	c.swsp	a5,16(sp)
   11842:	050060ef          	jal	ra,17892 <__sfvwrite_r>
   11846:	872a                	c.mv	a4,a0
   11848:	4532                	c.lwsp	a0,12(sp)
   1184a:	c719                	c.beqz	a4,11858 <fwrite+0x66>
   1184c:	5772                	c.lwsp	a4,60(sp)
   1184e:	47c2                	c.lwsp	a5,16(sp)
   11850:	48d2                	c.lwsp	a7,20(sp)
   11852:	8f99                	c.sub	a5,a4
   11854:	0317d533          	divu	a0,a5,a7
   11858:	40b6                	c.lwsp	ra,76(sp)
   1185a:	6161                	c.addi16sp	sp,80
   1185c:	8082                	c.jr	ra
   1185e:	01259713          	slli	a4,a1,0x12
   11862:	4501                	c.li	a0,0
   11864:	fc0759e3          	bge	a4,zero,11836 <fwrite+0x44>
   11868:	40b6                	c.lwsp	ra,76(sp)
   1186a:	6161                	c.addi16sp	sp,80
   1186c:	8082                	c.jr	ra
   1186e:	8532                	c.mv	a0,a2
   11870:	ce36                	c.swsp	a3,28(sp)
   11872:	cc42                	c.swsp	a6,24(sp)
   11874:	ca46                	c.swsp	a7,20(sp)
   11876:	c83e                	c.swsp	a5,16(sp)
   11878:	c632                	c.swsp	a2,12(sp)
   1187a:	3b21                	c.jal	11592 <__sinit>
   1187c:	46f2                	c.lwsp	a3,28(sp)
   1187e:	4862                	c.lwsp	a6,24(sp)
   11880:	48d2                	c.lwsp	a7,20(sp)
   11882:	47c2                	c.lwsp	a5,16(sp)
   11884:	4632                	c.lwsp	a2,12(sp)
   11886:	bf41                	c.j	11816 <fwrite+0x24>

00011888 <_printf_r>:
   11888:	7139                	c.addi16sp	sp,-64
   1188a:	8e2e                	c.mv	t3,a1
   1188c:	450c                	c.lw	a1,8(a0)
   1188e:	02810313          	addi	t1,sp,40
   11892:	d432                	c.swsp	a2,40(sp)
   11894:	d636                	c.swsp	a3,44(sp)
   11896:	8672                	c.mv	a2,t3
   11898:	869a                	c.mv	a3,t1
   1189a:	ce06                	c.swsp	ra,28(sp)
   1189c:	d83a                	c.swsp	a4,48(sp)
   1189e:	da3e                	c.swsp	a5,52(sp)
   118a0:	dc42                	c.swsp	a6,56(sp)
   118a2:	de46                	c.swsp	a7,60(sp)
   118a4:	c61a                	c.swsp	t1,12(sp)
   118a6:	0ee010ef          	jal	ra,12994 <_vfprintf_r>
   118aa:	40f2                	c.lwsp	ra,28(sp)
   118ac:	6121                	c.addi16sp	sp,64
   118ae:	8082                	c.jr	ra

000118b0 <printf>:
   118b0:	fcc1a303          	lw	t1,-52(gp) # 287dc <_impure_ptr>
   118b4:	7139                	c.addi16sp	sp,-64
   118b6:	d432                	c.swsp	a2,40(sp)
   118b8:	d636                	c.swsp	a3,44(sp)
   118ba:	d22e                	c.swsp	a1,36(sp)
   118bc:	d83a                	c.swsp	a4,48(sp)
   118be:	da3e                	c.swsp	a5,52(sp)
   118c0:	dc42                	c.swsp	a6,56(sp)
   118c2:	de46                	c.swsp	a7,60(sp)
   118c4:	00832583          	lw	a1,8(t1) # 2008 <exit-0xe0ac>
   118c8:	1054                	c.addi4spn	a3,sp,36
   118ca:	862a                	c.mv	a2,a0
   118cc:	851a                	c.mv	a0,t1
   118ce:	ce06                	c.swsp	ra,28(sp)
   118d0:	c636                	c.swsp	a3,12(sp)
   118d2:	0c2010ef          	jal	ra,12994 <_vfprintf_r>
   118d6:	40f2                	c.lwsp	ra,28(sp)
   118d8:	6121                	c.addi16sp	sp,64
   118da:	8082                	c.jr	ra

000118dc <__sread>:
   118dc:	1141                	c.addi	sp,-16
   118de:	c422                	c.swsp	s0,8(sp)
   118e0:	842e                	c.mv	s0,a1
   118e2:	00e59583          	lh	a1,14(a1)
   118e6:	c606                	c.swsp	ra,12(sp)
   118e8:	2381                	c.jal	11e28 <_read_r>
   118ea:	00054963          	blt	a0,zero,118fc <__sread+0x20>
   118ee:	483c                	c.lw	a5,80(s0)
   118f0:	40b2                	c.lwsp	ra,12(sp)
   118f2:	97aa                	c.add	a5,a0
   118f4:	c83c                	c.sw	a5,80(s0)
   118f6:	4422                	c.lwsp	s0,8(sp)
   118f8:	0141                	c.addi	sp,16
   118fa:	8082                	c.jr	ra
   118fc:	00c45783          	lhu	a5,12(s0)
   11900:	777d                	c.lui	a4,0xfffff
   11902:	177d                	c.addi	a4,-1 # ffffefff <__BSS_END__+0xfffd64e7>
   11904:	8ff9                	c.and	a5,a4
   11906:	40b2                	c.lwsp	ra,12(sp)
   11908:	00f41623          	sh	a5,12(s0)
   1190c:	4422                	c.lwsp	s0,8(sp)
   1190e:	0141                	c.addi	sp,16
   11910:	8082                	c.jr	ra

00011912 <__seofread>:
   11912:	4501                	c.li	a0,0
   11914:	8082                	c.jr	ra

00011916 <__swrite>:
   11916:	00c59783          	lh	a5,12(a1)
   1191a:	1101                	c.addi	sp,-32
   1191c:	8336                	c.mv	t1,a3
   1191e:	ce06                	c.swsp	ra,28(sp)
   11920:	1007f693          	andi	a3,a5,256
   11924:	872e                	c.mv	a4,a1
   11926:	88b2                	c.mv	a7,a2
   11928:	882a                	c.mv	a6,a0
   1192a:	ee91                	c.bnez	a3,11946 <__swrite+0x30>
   1192c:	76fd                	c.lui	a3,0xfffff
   1192e:	16fd                	c.addi	a3,-1 # ffffefff <__BSS_END__+0xfffd64e7>
   11930:	40f2                	c.lwsp	ra,28(sp)
   11932:	8ff5                	c.and	a5,a3
   11934:	00e71583          	lh	a1,14(a4)
   11938:	00f71623          	sh	a5,12(a4)
   1193c:	869a                	c.mv	a3,t1
   1193e:	8646                	c.mv	a2,a7
   11940:	8542                	c.mv	a0,a6
   11942:	6105                	c.addi16sp	sp,32
   11944:	a305                	c.j	11e64 <_write_r>
   11946:	00e59583          	lh	a1,14(a1)
   1194a:	c432                	c.swsp	a2,8(sp)
   1194c:	4689                	c.li	a3,2
   1194e:	4601                	c.li	a2,0
   11950:	c61a                	c.swsp	t1,12(sp)
   11952:	c03a                	c.swsp	a4,0(sp)
   11954:	c22a                	c.swsp	a0,4(sp)
   11956:	29a9                	c.jal	11db0 <_lseek_r>
   11958:	4702                	c.lwsp	a4,0(sp)
   1195a:	4332                	c.lwsp	t1,12(sp)
   1195c:	48a2                	c.lwsp	a7,8(sp)
   1195e:	00c71783          	lh	a5,12(a4)
   11962:	4812                	c.lwsp	a6,4(sp)
   11964:	b7e1                	c.j	1192c <__swrite+0x16>

00011966 <__sseek>:
   11966:	1141                	c.addi	sp,-16
   11968:	c422                	c.swsp	s0,8(sp)
   1196a:	842e                	c.mv	s0,a1
   1196c:	00e59583          	lh	a1,14(a1)
   11970:	c606                	c.swsp	ra,12(sp)
   11972:	293d                	c.jal	11db0 <_lseek_r>
   11974:	577d                	c.li	a4,-1
   11976:	00c41783          	lh	a5,12(s0)
   1197a:	00e50b63          	beq	a0,a4,11990 <__sseek+0x2a>
   1197e:	6705                	c.lui	a4,0x1
   11980:	8fd9                	c.or	a5,a4
   11982:	40b2                	c.lwsp	ra,12(sp)
   11984:	c828                	c.sw	a0,80(s0)
   11986:	00f41623          	sh	a5,12(s0)
   1198a:	4422                	c.lwsp	s0,8(sp)
   1198c:	0141                	c.addi	sp,16
   1198e:	8082                	c.jr	ra
   11990:	80050713          	addi	a4,a0,-2048
   11994:	80070713          	addi	a4,a4,-2048 # 800 <exit-0xf8b4>
   11998:	8ff9                	c.and	a5,a4
   1199a:	40b2                	c.lwsp	ra,12(sp)
   1199c:	00f41623          	sh	a5,12(s0)
   119a0:	4422                	c.lwsp	s0,8(sp)
   119a2:	0141                	c.addi	sp,16
   119a4:	8082                	c.jr	ra

000119a6 <__sclose>:
   119a6:	00e59583          	lh	a1,14(a1)
   119aa:	ae29                	c.j	11cc4 <_close_r>

000119ac <_fseeko_r>:
   119ac:	7175                	c.addi16sp	sp,-144
   119ae:	c522                	c.swsp	s0,136(sp)
   119b0:	c326                	c.swsp	s1,132(sp)
   119b2:	c14a                	c.swsp	s2,128(sp)
   119b4:	dece                	c.swsp	s3,124(sp)
   119b6:	c706                	c.swsp	ra,140(sp)
   119b8:	dcd2                	c.swsp	s4,120(sp)
   119ba:	892a                	c.mv	s2,a0
   119bc:	89b2                	c.mv	s3,a2
   119be:	84b6                	c.mv	s1,a3
   119c0:	842e                	c.mv	s0,a1
   119c2:	c501                	c.beqz	a0,119ca <_fseeko_r+0x1e>
   119c4:	595c                	c.lw	a5,52(a0)
   119c6:	28078163          	beq	a5,zero,11c48 <_fseeko_r+0x29c>
   119ca:	00c45783          	lhu	a5,12(s0)
   119ce:	10800713          	addi	a4,zero,264
   119d2:	8ff9                	c.and	a5,a4
   119d4:	26e78563          	beq	a5,a4,11c3e <_fseeko_r+0x292>
   119d8:	02842a03          	lw	s4,40(s0)
   119dc:	2c0a0963          	beq	s4,zero,11cae <_fseeko_r+0x302>
   119e0:	4785                	c.li	a5,1
   119e2:	0af48b63          	beq	s1,a5,11a98 <_fseeko_r+0xec>
   119e6:	ffd4f793          	andi	a5,s1,-3
   119ea:	cf89                	c.beqz	a5,11a04 <_fseeko_r+0x58>
   119ec:	47d9                	c.li	a5,22
   119ee:	00f92023          	sw	a5,0(s2)
   119f2:	40ba                	c.lwsp	ra,140(sp)
   119f4:	442a                	c.lwsp	s0,136(sp)
   119f6:	449a                	c.lwsp	s1,132(sp)
   119f8:	490a                	c.lwsp	s2,128(sp)
   119fa:	59f6                	c.lwsp	s3,124(sp)
   119fc:	5a66                	c.lwsp	s4,120(sp)
   119fe:	557d                	c.li	a0,-1
   11a00:	6149                	c.addi16sp	sp,144
   11a02:	8082                	c.jr	ra
   11a04:	4814                	c.lw	a3,16(s0)
   11a06:	4801                	c.li	a6,0
   11a08:	cee1                	c.beqz	a3,11ae0 <_fseeko_r+0x134>
   11a0a:	00c41703          	lh	a4,12(s0)
   11a0e:	00175693          	srli	a3,a4,0x1
   11a12:	40d6f693          	andi	a3,a3,1037
   11a16:	e285                	c.bnez	a3,11a36 <_fseeko_r+0x8a>
   11a18:	40077693          	andi	a3,a4,1024
   11a1c:	10069763          	bne	a3,zero,11b2a <_fseeko_r+0x17e>
   11a20:	66c9                	c.lui	a3,0x12
   11a22:	96668693          	addi	a3,a3,-1690 # 11966 <__sseek>
   11a26:	0cda0663          	beq	s4,a3,11af2 <_fseeko_r+0x146>
   11a2a:	6785                	c.lui	a5,0x1
   11a2c:	80078793          	addi	a5,a5,-2048 # 800 <exit-0xf8b4>
   11a30:	8f5d                	c.or	a4,a5
   11a32:	00e41623          	sh	a4,12(s0)
   11a36:	85a2                	c.mv	a1,s0
   11a38:	854a                	c.mv	a0,s2
   11a3a:	399050ef          	jal	ra,175d2 <_fflush_r>
   11a3e:	f955                	c.bnez	a0,119f2 <_fseeko_r+0x46>
   11a40:	4c4c                	c.lw	a1,28(s0)
   11a42:	86a6                	c.mv	a3,s1
   11a44:	864e                	c.mv	a2,s3
   11a46:	854a                	c.mv	a0,s2
   11a48:	9a02                	c.jalr	s4
   11a4a:	57fd                	c.li	a5,-1
   11a4c:	faf503e3          	beq	a0,a5,119f2 <_fseeko_r+0x46>
   11a50:	580c                	c.lw	a1,48(s0)
   11a52:	c989                	c.beqz	a1,11a64 <_fseeko_r+0xb8>
   11a54:	04040793          	addi	a5,s0,64
   11a58:	00f58463          	beq	a1,a5,11a60 <_fseeko_r+0xb4>
   11a5c:	854a                	c.mv	a0,s2
   11a5e:	2df5                	c.jal	1215a <_free_r>
   11a60:	02042823          	sw	zero,48(s0)
   11a64:	00c45783          	lhu	a5,12(s0)
   11a68:	4814                	c.lw	a3,16(s0)
   11a6a:	777d                	c.lui	a4,0xfffff
   11a6c:	7df70713          	addi	a4,a4,2015 # fffff7df <__BSS_END__+0xfffd6cc7>
   11a70:	8ff9                	c.and	a5,a4
   11a72:	00042223          	sw	zero,4(s0)
   11a76:	00f41623          	sh	a5,12(s0)
   11a7a:	c014                	c.sw	a3,0(s0)
   11a7c:	05c40513          	addi	a0,s0,92
   11a80:	4621                	c.li	a2,8
   11a82:	4581                	c.li	a1,0
   11a84:	2171                	c.jal	11f10 <memset>
   11a86:	4501                	c.li	a0,0
   11a88:	40ba                	c.lwsp	ra,140(sp)
   11a8a:	442a                	c.lwsp	s0,136(sp)
   11a8c:	449a                	c.lwsp	s1,132(sp)
   11a8e:	490a                	c.lwsp	s2,128(sp)
   11a90:	59f6                	c.lwsp	s3,124(sp)
   11a92:	5a66                	c.lwsp	s4,120(sp)
   11a94:	6149                	c.addi16sp	sp,144
   11a96:	8082                	c.jr	ra
   11a98:	85a2                	c.mv	a1,s0
   11a9a:	854a                	c.mv	a0,s2
   11a9c:	337050ef          	jal	ra,175d2 <_fflush_r>
   11aa0:	00c41703          	lh	a4,12(s0)
   11aa4:	01371793          	slli	a5,a4,0x13
   11aa8:	1407c763          	blt	a5,zero,11bf6 <_fseeko_r+0x24a>
   11aac:	4c4c                	c.lw	a1,28(s0)
   11aae:	86a6                	c.mv	a3,s1
   11ab0:	4601                	c.li	a2,0
   11ab2:	854a                	c.mv	a0,s2
   11ab4:	9a02                	c.jalr	s4
   11ab6:	577d                	c.li	a4,-1
   11ab8:	87aa                	c.mv	a5,a0
   11aba:	f2e50ce3          	beq	a0,a4,119f2 <_fseeko_r+0x46>
   11abe:	00c41703          	lh	a4,12(s0)
   11ac2:	4814                	c.lw	a3,16(s0)
   11ac4:	00477613          	andi	a2,a4,4
   11ac8:	12060d63          	beq	a2,zero,11c02 <_fseeko_r+0x256>
   11acc:	4050                	c.lw	a2,4(s0)
   11ace:	5818                	c.lw	a4,48(s0)
   11ad0:	8f91                	c.sub	a5,a2
   11ad2:	c319                	c.beqz	a4,11ad8 <_fseeko_r+0x12c>
   11ad4:	5c58                	c.lw	a4,60(s0)
   11ad6:	8f99                	c.sub	a5,a4
   11ad8:	8826                	c.mv	a6,s1
   11ada:	99be                	c.add	s3,a5
   11adc:	4481                	c.li	s1,0
   11ade:	f695                	c.bnez	a3,11a0a <_fseeko_r+0x5e>
   11ae0:	85a2                	c.mv	a1,s0
   11ae2:	854a                	c.mv	a0,s2
   11ae4:	c642                	c.swsp	a6,12(sp)
   11ae6:	c43e                	c.swsp	a5,8(sp)
   11ae8:	0ea060ef          	jal	ra,17bd2 <__smakebuf_r>
   11aec:	4832                	c.lwsp	a6,12(sp)
   11aee:	47a2                	c.lwsp	a5,8(sp)
   11af0:	bf29                	c.j	11a0a <_fseeko_r+0x5e>
   11af2:	00e41583          	lh	a1,14(s0)
   11af6:	f205cae3          	blt	a1,zero,11a2a <_fseeko_r+0x7e>
   11afa:	0830                	c.addi4spn	a2,sp,24
   11afc:	854a                	c.mv	a0,s2
   11afe:	c43e                	c.swsp	a5,8(sp)
   11b00:	c642                	c.swsp	a6,12(sp)
   11b02:	2c95                	c.jal	11d76 <_fstat_r>
   11b04:	00c41703          	lh	a4,12(s0)
   11b08:	f10d                	c.bnez	a0,11a2a <_fseeko_r+0x7e>
   11b0a:	46f2                	c.lwsp	a3,28(sp)
   11b0c:	45a1                	c.li	a1,8
   11b0e:	47a2                	c.lwsp	a5,8(sp)
   11b10:	40c6d613          	srai	a2,a3,0xc
   11b14:	8a3d                	c.andi	a2,15
   11b16:	4832                	c.lwsp	a6,12(sp)
   11b18:	f0b619e3          	bne	a2,a1,11a2a <_fseeko_r+0x7e>
   11b1c:	40076713          	ori	a4,a4,1024
   11b20:	40000693          	addi	a3,zero,1024
   11b24:	00e41623          	sh	a4,12(s0)
   11b28:	c474                	c.sw	a3,76(s0)
   11b2a:	874e                	c.mv	a4,s3
   11b2c:	0e049963          	bne	s1,zero,11c1e <_fseeko_r+0x272>
   11b30:	0e081263          	bne	a6,zero,11c14 <_fseeko_r+0x268>
   11b34:	00c45783          	lhu	a5,12(s0)
   11b38:	01379693          	slli	a3,a5,0x13
   11b3c:	1206d163          	bge	a3,zero,11c5e <_fseeko_r+0x2b2>
   11b40:	4828                	c.lw	a0,80(s0)
   11b42:	4050                	c.lw	a2,4(s0)
   11b44:	580c                	c.lw	a1,48(s0)
   11b46:	40c507b3          	sub	a5,a0,a2
   11b4a:	10058263          	beq	a1,zero,11c4e <_fseeko_r+0x2a2>
   11b4e:	5c54                	c.lw	a3,60(s0)
   11b50:	8f95                	c.sub	a5,a3
   11b52:	5c08                	c.lw	a0,56(s0)
   11b54:	01042803          	lw	a6,16(s0)
   11b58:	963e                	c.add	a2,a5
   11b5a:	41050533          	sub	a0,a0,a6
   11b5e:	40a607b3          	sub	a5,a2,a0
   11b62:	96aa                	c.add	a3,a0
   11b64:	00f74663          	blt	a4,a5,11b70 <_fseeko_r+0x1c4>
   11b68:	00d78633          	add	a2,a5,a3
   11b6c:	10c76463          	bltu	a4,a2,11c74 <_fseeko_r+0x2c8>
   11b70:	4470                	c.lw	a2,76(s0)
   11b72:	4c4c                	c.lw	a1,28(s0)
   11b74:	4681                	c.li	a3,0
   11b76:	40c00633          	sub	a2,zero,a2
   11b7a:	8e79                	c.and	a2,a4
   11b7c:	854a                	c.mv	a0,s2
   11b7e:	c63a                	c.swsp	a4,12(sp)
   11b80:	c432                	c.swsp	a2,8(sp)
   11b82:	9a02                	c.jalr	s4
   11b84:	57fd                	c.li	a5,-1
   11b86:	eaf508e3          	beq	a0,a5,11a36 <_fseeko_r+0x8a>
   11b8a:	481c                	c.lw	a5,16(s0)
   11b8c:	580c                	c.lw	a1,48(s0)
   11b8e:	00042223          	sw	zero,4(s0)
   11b92:	c01c                	c.sw	a5,0(s0)
   11b94:	4622                	c.lwsp	a2,8(sp)
   11b96:	4732                	c.lwsp	a4,12(sp)
   11b98:	cd89                	c.beqz	a1,11bb2 <_fseeko_r+0x206>
   11b9a:	04040793          	addi	a5,s0,64
   11b9e:	00f58863          	beq	a1,a5,11bae <_fseeko_r+0x202>
   11ba2:	854a                	c.mv	a0,s2
   11ba4:	c632                	c.swsp	a2,12(sp)
   11ba6:	c43a                	c.swsp	a4,8(sp)
   11ba8:	2b4d                	c.jal	1215a <_free_r>
   11baa:	4632                	c.lwsp	a2,12(sp)
   11bac:	4722                	c.lwsp	a4,8(sp)
   11bae:	02042823          	sw	zero,48(s0)
   11bb2:	00c45783          	lhu	a5,12(s0)
   11bb6:	40c706b3          	sub	a3,a4,a2
   11bba:	fdf7f793          	andi	a5,a5,-33
   11bbe:	00f41623          	sh	a5,12(s0)
   11bc2:	02c70363          	beq	a4,a2,11be8 <_fseeko_r+0x23c>
   11bc6:	85a2                	c.mv	a1,s0
   11bc8:	854a                	c.mv	a0,s2
   11bca:	c436                	c.swsp	a3,8(sp)
   11bcc:	1b8060ef          	jal	ra,17d84 <__srefill_r>
   11bd0:	e60513e3          	bne	a0,zero,11a36 <_fseeko_r+0x8a>
   11bd4:	405c                	c.lw	a5,4(s0)
   11bd6:	46a2                	c.lwsp	a3,8(sp)
   11bd8:	e4d7efe3          	bltu	a5,a3,11a36 <_fseeko_r+0x8a>
   11bdc:	4018                	c.lw	a4,0(s0)
   11bde:	8f95                	c.sub	a5,a3
   11be0:	c05c                	c.sw	a5,4(s0)
   11be2:	00d707b3          	add	a5,a4,a3
   11be6:	c01c                	c.sw	a5,0(s0)
   11be8:	05c40513          	addi	a0,s0,92
   11bec:	4621                	c.li	a2,8
   11bee:	4581                	c.li	a1,0
   11bf0:	2605                	c.jal	11f10 <memset>
   11bf2:	4501                	c.li	a0,0
   11bf4:	bd51                	c.j	11a88 <_fseeko_r+0xdc>
   11bf6:	00477613          	andi	a2,a4,4
   11bfa:	483c                	c.lw	a5,80(s0)
   11bfc:	4814                	c.lw	a3,16(s0)
   11bfe:	ec0617e3          	bne	a2,zero,11acc <_fseeko_r+0x120>
   11c02:	8b21                	c.andi	a4,8
   11c04:	ec070ae3          	beq	a4,zero,11ad8 <_fseeko_r+0x12c>
   11c08:	4018                	c.lw	a4,0(s0)
   11c0a:	ec0707e3          	beq	a4,zero,11ad8 <_fseeko_r+0x12c>
   11c0e:	8f15                	c.sub	a4,a3
   11c10:	97ba                	c.add	a5,a4
   11c12:	b5d9                	c.j	11ad8 <_fseeko_r+0x12c>
   11c14:	580c                	c.lw	a1,48(s0)
   11c16:	4050                	c.lw	a2,4(s0)
   11c18:	c99d                	c.beqz	a1,11c4e <_fseeko_r+0x2a2>
   11c1a:	5c54                	c.lw	a3,60(s0)
   11c1c:	bf1d                	c.j	11b52 <_fseeko_r+0x1a6>
   11c1e:	00e41583          	lh	a1,14(s0)
   11c22:	0830                	c.addi4spn	a2,sp,24
   11c24:	854a                	c.mv	a0,s2
   11c26:	c642                	c.swsp	a6,12(sp)
   11c28:	c43e                	c.swsp	a5,8(sp)
   11c2a:	22b1                	c.jal	11d76 <_fstat_r>
   11c2c:	e00515e3          	bne	a0,zero,11a36 <_fseeko_r+0x8a>
   11c30:	5722                	c.lwsp	a4,40(sp)
   11c32:	4832                	c.lwsp	a6,12(sp)
   11c34:	47a2                	c.lwsp	a5,8(sp)
   11c36:	974e                	c.add	a4,s3
   11c38:	fc081ee3          	bne	a6,zero,11c14 <_fseeko_r+0x268>
   11c3c:	bde5                	c.j	11b34 <_fseeko_r+0x188>
   11c3e:	85a2                	c.mv	a1,s0
   11c40:	854a                	c.mv	a0,s2
   11c42:	191050ef          	jal	ra,175d2 <_fflush_r>
   11c46:	bb49                	c.j	119d8 <_fseeko_r+0x2c>
   11c48:	94bff0ef          	jal	ra,11592 <__sinit>
   11c4c:	bbbd                	c.j	119ca <_fseeko_r+0x1e>
   11c4e:	4014                	c.lw	a3,0(s0)
   11c50:	01042803          	lw	a6,16(s0)
   11c54:	410686b3          	sub	a3,a3,a6
   11c58:	8f95                	c.sub	a5,a3
   11c5a:	96b2                	c.add	a3,a2
   11c5c:	b721                	c.j	11b64 <_fseeko_r+0x1b8>
   11c5e:	4c4c                	c.lw	a1,28(s0)
   11c60:	4685                	c.li	a3,1
   11c62:	4601                	c.li	a2,0
   11c64:	854a                	c.mv	a0,s2
   11c66:	c43a                	c.swsp	a4,8(sp)
   11c68:	9a02                	c.jalr	s4
   11c6a:	57fd                	c.li	a5,-1
   11c6c:	4722                	c.lwsp	a4,8(sp)
   11c6e:	ecf51ae3          	bne	a0,a5,11b42 <_fseeko_r+0x196>
   11c72:	b3d1                	c.j	11a36 <_fseeko_r+0x8a>
   11c74:	40f707b3          	sub	a5,a4,a5
   11c78:	983e                	c.add	a6,a5
   11c7a:	8e9d                	c.sub	a3,a5
   11c7c:	01042023          	sw	a6,0(s0)
   11c80:	c054                	c.sw	a3,4(s0)
   11c82:	c989                	c.beqz	a1,11c94 <_fseeko_r+0x2e8>
   11c84:	04040793          	addi	a5,s0,64
   11c88:	00f58463          	beq	a1,a5,11c90 <_fseeko_r+0x2e4>
   11c8c:	854a                	c.mv	a0,s2
   11c8e:	21f1                	c.jal	1215a <_free_r>
   11c90:	02042823          	sw	zero,48(s0)
   11c94:	00c45783          	lhu	a5,12(s0)
   11c98:	05c40513          	addi	a0,s0,92
   11c9c:	4621                	c.li	a2,8
   11c9e:	fdf7f793          	andi	a5,a5,-33
   11ca2:	00f41623          	sh	a5,12(s0)
   11ca6:	4581                	c.li	a1,0
   11ca8:	24a5                	c.jal	11f10 <memset>
   11caa:	4501                	c.li	a0,0
   11cac:	bbf1                	c.j	11a88 <_fseeko_r+0xdc>
   11cae:	47f5                	c.li	a5,29
   11cb0:	00f92023          	sw	a5,0(s2)
   11cb4:	bb3d                	c.j	119f2 <_fseeko_r+0x46>

00011cb6 <fseeko>:
   11cb6:	872a                	c.mv	a4,a0
   11cb8:	fcc1a503          	lw	a0,-52(gp) # 287dc <_impure_ptr>
   11cbc:	86b2                	c.mv	a3,a2
   11cbe:	862e                	c.mv	a2,a1
   11cc0:	85ba                	c.mv	a1,a4
   11cc2:	b1ed                	c.j	119ac <_fseeko_r>

00011cc4 <_close_r>:
   11cc4:	1141                	c.addi	sp,-16
   11cc6:	c422                	c.swsp	s0,8(sp)
   11cc8:	c226                	c.swsp	s1,4(sp)
   11cca:	84aa                	c.mv	s1,a0
   11ccc:	852e                	c.mv	a0,a1
   11cce:	c606                	c.swsp	ra,12(sp)
   11cd0:	fe01a023          	sw	zero,-32(gp) # 287f0 <errno>
   11cd4:	1e7100ef          	jal	ra,226ba <_close>
   11cd8:	57fd                	c.li	a5,-1
   11cda:	00f50763          	beq	a0,a5,11ce8 <_close_r+0x24>
   11cde:	40b2                	c.lwsp	ra,12(sp)
   11ce0:	4422                	c.lwsp	s0,8(sp)
   11ce2:	4492                	c.lwsp	s1,4(sp)
   11ce4:	0141                	c.addi	sp,16
   11ce6:	8082                	c.jr	ra
   11ce8:	fe01a783          	lw	a5,-32(gp) # 287f0 <errno>
   11cec:	dbed                	c.beqz	a5,11cde <_close_r+0x1a>
   11cee:	40b2                	c.lwsp	ra,12(sp)
   11cf0:	4422                	c.lwsp	s0,8(sp)
   11cf2:	c09c                	c.sw	a5,0(s1)
   11cf4:	4492                	c.lwsp	s1,4(sp)
   11cf6:	0141                	c.addi	sp,16
   11cf8:	8082                	c.jr	ra

00011cfa <_reclaim_reent>:
   11cfa:	fcc1a783          	lw	a5,-52(gp) # 287dc <_impure_ptr>
   11cfe:	06a78b63          	beq	a5,a0,11d74 <_reclaim_reent+0x7a>
   11d02:	416c                	c.lw	a1,68(a0)
   11d04:	1101                	c.addi	sp,-32
   11d06:	ca26                	c.swsp	s1,20(sp)
   11d08:	ce06                	c.swsp	ra,28(sp)
   11d0a:	cc22                	c.swsp	s0,24(sp)
   11d0c:	84aa                	c.mv	s1,a0
   11d0e:	c59d                	c.beqz	a1,11d3c <_reclaim_reent+0x42>
   11d10:	c84a                	c.swsp	s2,16(sp)
   11d12:	c64e                	c.swsp	s3,12(sp)
   11d14:	4901                	c.li	s2,0
   11d16:	08000993          	addi	s3,zero,128
   11d1a:	012587b3          	add	a5,a1,s2
   11d1e:	4380                	c.lw	s0,0(a5)
   11d20:	c419                	c.beqz	s0,11d2e <_reclaim_reent+0x34>
   11d22:	85a2                	c.mv	a1,s0
   11d24:	4000                	c.lw	s0,0(s0)
   11d26:	8526                	c.mv	a0,s1
   11d28:	290d                	c.jal	1215a <_free_r>
   11d2a:	fc65                	c.bnez	s0,11d22 <_reclaim_reent+0x28>
   11d2c:	40ec                	c.lw	a1,68(s1)
   11d2e:	0911                	c.addi	s2,4
   11d30:	ff3915e3          	bne	s2,s3,11d1a <_reclaim_reent+0x20>
   11d34:	8526                	c.mv	a0,s1
   11d36:	2115                	c.jal	1215a <_free_r>
   11d38:	4942                	c.lwsp	s2,16(sp)
   11d3a:	49b2                	c.lwsp	s3,12(sp)
   11d3c:	5c8c                	c.lw	a1,56(s1)
   11d3e:	c199                	c.beqz	a1,11d44 <_reclaim_reent+0x4a>
   11d40:	8526                	c.mv	a0,s1
   11d42:	2921                	c.jal	1215a <_free_r>
   11d44:	40a0                	c.lw	s0,64(s1)
   11d46:	c411                	c.beqz	s0,11d52 <_reclaim_reent+0x58>
   11d48:	85a2                	c.mv	a1,s0
   11d4a:	4000                	c.lw	s0,0(s0)
   11d4c:	8526                	c.mv	a0,s1
   11d4e:	2131                	c.jal	1215a <_free_r>
   11d50:	fc65                	c.bnez	s0,11d48 <_reclaim_reent+0x4e>
   11d52:	44ec                	c.lw	a1,76(s1)
   11d54:	c199                	c.beqz	a1,11d5a <_reclaim_reent+0x60>
   11d56:	8526                	c.mv	a0,s1
   11d58:	2109                	c.jal	1215a <_free_r>
   11d5a:	58dc                	c.lw	a5,52(s1)
   11d5c:	c799                	c.beqz	a5,11d6a <_reclaim_reent+0x70>
   11d5e:	4462                	c.lwsp	s0,24(sp)
   11d60:	40f2                	c.lwsp	ra,28(sp)
   11d62:	8526                	c.mv	a0,s1
   11d64:	44d2                	c.lwsp	s1,20(sp)
   11d66:	6105                	c.addi16sp	sp,32
   11d68:	8782                	c.jr	a5
   11d6a:	40f2                	c.lwsp	ra,28(sp)
   11d6c:	4462                	c.lwsp	s0,24(sp)
   11d6e:	44d2                	c.lwsp	s1,20(sp)
   11d70:	6105                	c.addi16sp	sp,32
   11d72:	8082                	c.jr	ra
   11d74:	8082                	c.jr	ra

00011d76 <_fstat_r>:
   11d76:	1141                	c.addi	sp,-16
   11d78:	87ae                	c.mv	a5,a1
   11d7a:	c422                	c.swsp	s0,8(sp)
   11d7c:	c226                	c.swsp	s1,4(sp)
   11d7e:	85b2                	c.mv	a1,a2
   11d80:	84aa                	c.mv	s1,a0
   11d82:	853e                	c.mv	a0,a5
   11d84:	c606                	c.swsp	ra,12(sp)
   11d86:	fe01a023          	sw	zero,-32(gp) # 287f0 <errno>
   11d8a:	17d100ef          	jal	ra,22706 <_fstat>
   11d8e:	57fd                	c.li	a5,-1
   11d90:	00f50763          	beq	a0,a5,11d9e <_fstat_r+0x28>
   11d94:	40b2                	c.lwsp	ra,12(sp)
   11d96:	4422                	c.lwsp	s0,8(sp)
   11d98:	4492                	c.lwsp	s1,4(sp)
   11d9a:	0141                	c.addi	sp,16
   11d9c:	8082                	c.jr	ra
   11d9e:	fe01a783          	lw	a5,-32(gp) # 287f0 <errno>
   11da2:	dbed                	c.beqz	a5,11d94 <_fstat_r+0x1e>
   11da4:	40b2                	c.lwsp	ra,12(sp)
   11da6:	4422                	c.lwsp	s0,8(sp)
   11da8:	c09c                	c.sw	a5,0(s1)
   11daa:	4492                	c.lwsp	s1,4(sp)
   11dac:	0141                	c.addi	sp,16
   11dae:	8082                	c.jr	ra

00011db0 <_lseek_r>:
   11db0:	1141                	c.addi	sp,-16
   11db2:	87ae                	c.mv	a5,a1
   11db4:	c422                	c.swsp	s0,8(sp)
   11db6:	c226                	c.swsp	s1,4(sp)
   11db8:	85b2                	c.mv	a1,a2
   11dba:	84aa                	c.mv	s1,a0
   11dbc:	8636                	c.mv	a2,a3
   11dbe:	853e                	c.mv	a0,a5
   11dc0:	c606                	c.swsp	ra,12(sp)
   11dc2:	fe01a023          	sw	zero,-32(gp) # 287f0 <errno>
   11dc6:	1b7100ef          	jal	ra,2277c <_lseek>
   11dca:	57fd                	c.li	a5,-1
   11dcc:	00f50763          	beq	a0,a5,11dda <_lseek_r+0x2a>
   11dd0:	40b2                	c.lwsp	ra,12(sp)
   11dd2:	4422                	c.lwsp	s0,8(sp)
   11dd4:	4492                	c.lwsp	s1,4(sp)
   11dd6:	0141                	c.addi	sp,16
   11dd8:	8082                	c.jr	ra
   11dda:	fe01a783          	lw	a5,-32(gp) # 287f0 <errno>
   11dde:	dbed                	c.beqz	a5,11dd0 <_lseek_r+0x20>
   11de0:	40b2                	c.lwsp	ra,12(sp)
   11de2:	4422                	c.lwsp	s0,8(sp)
   11de4:	c09c                	c.sw	a5,0(s1)
   11de6:	4492                	c.lwsp	s1,4(sp)
   11de8:	0141                	c.addi	sp,16
   11dea:	8082                	c.jr	ra

00011dec <_open_r>:
   11dec:	1141                	c.addi	sp,-16
   11dee:	87ae                	c.mv	a5,a1
   11df0:	c422                	c.swsp	s0,8(sp)
   11df2:	c226                	c.swsp	s1,4(sp)
   11df4:	85b2                	c.mv	a1,a2
   11df6:	84aa                	c.mv	s1,a0
   11df8:	8636                	c.mv	a2,a3
   11dfa:	853e                	c.mv	a0,a5
   11dfc:	c606                	c.swsp	ra,12(sp)
   11dfe:	fe01a023          	sw	zero,-32(gp) # 287f0 <errno>
   11e02:	1a5100ef          	jal	ra,227a6 <_open>
   11e06:	57fd                	c.li	a5,-1
   11e08:	00f50763          	beq	a0,a5,11e16 <_open_r+0x2a>
   11e0c:	40b2                	c.lwsp	ra,12(sp)
   11e0e:	4422                	c.lwsp	s0,8(sp)
   11e10:	4492                	c.lwsp	s1,4(sp)
   11e12:	0141                	c.addi	sp,16
   11e14:	8082                	c.jr	ra
   11e16:	fe01a783          	lw	a5,-32(gp) # 287f0 <errno>
   11e1a:	dbed                	c.beqz	a5,11e0c <_open_r+0x20>
   11e1c:	40b2                	c.lwsp	ra,12(sp)
   11e1e:	4422                	c.lwsp	s0,8(sp)
   11e20:	c09c                	c.sw	a5,0(s1)
   11e22:	4492                	c.lwsp	s1,4(sp)
   11e24:	0141                	c.addi	sp,16
   11e26:	8082                	c.jr	ra

00011e28 <_read_r>:
   11e28:	1141                	c.addi	sp,-16
   11e2a:	87ae                	c.mv	a5,a1
   11e2c:	c422                	c.swsp	s0,8(sp)
   11e2e:	c226                	c.swsp	s1,4(sp)
   11e30:	85b2                	c.mv	a1,a2
   11e32:	84aa                	c.mv	s1,a0
   11e34:	8636                	c.mv	a2,a3
   11e36:	853e                	c.mv	a0,a5
   11e38:	c606                	c.swsp	ra,12(sp)
   11e3a:	fe01a023          	sw	zero,-32(gp) # 287f0 <errno>
   11e3e:	193100ef          	jal	ra,227d0 <_read>
   11e42:	57fd                	c.li	a5,-1
   11e44:	00f50763          	beq	a0,a5,11e52 <_read_r+0x2a>
   11e48:	40b2                	c.lwsp	ra,12(sp)
   11e4a:	4422                	c.lwsp	s0,8(sp)
   11e4c:	4492                	c.lwsp	s1,4(sp)
   11e4e:	0141                	c.addi	sp,16
   11e50:	8082                	c.jr	ra
   11e52:	fe01a783          	lw	a5,-32(gp) # 287f0 <errno>
   11e56:	dbed                	c.beqz	a5,11e48 <_read_r+0x20>
   11e58:	40b2                	c.lwsp	ra,12(sp)
   11e5a:	4422                	c.lwsp	s0,8(sp)
   11e5c:	c09c                	c.sw	a5,0(s1)
   11e5e:	4492                	c.lwsp	s1,4(sp)
   11e60:	0141                	c.addi	sp,16
   11e62:	8082                	c.jr	ra

00011e64 <_write_r>:
   11e64:	1141                	c.addi	sp,-16
   11e66:	87ae                	c.mv	a5,a1
   11e68:	c422                	c.swsp	s0,8(sp)
   11e6a:	c226                	c.swsp	s1,4(sp)
   11e6c:	85b2                	c.mv	a1,a2
   11e6e:	84aa                	c.mv	s1,a0
   11e70:	8636                	c.mv	a2,a3
   11e72:	853e                	c.mv	a0,a5
   11e74:	c606                	c.swsp	ra,12(sp)
   11e76:	fe01a023          	sw	zero,-32(gp) # 287f0 <errno>
   11e7a:	1d5100ef          	jal	ra,2284e <_write>
   11e7e:	57fd                	c.li	a5,-1
   11e80:	00f50763          	beq	a0,a5,11e8e <_write_r+0x2a>
   11e84:	40b2                	c.lwsp	ra,12(sp)
   11e86:	4422                	c.lwsp	s0,8(sp)
   11e88:	4492                	c.lwsp	s1,4(sp)
   11e8a:	0141                	c.addi	sp,16
   11e8c:	8082                	c.jr	ra
   11e8e:	fe01a783          	lw	a5,-32(gp) # 287f0 <errno>
   11e92:	dbed                	c.beqz	a5,11e84 <_write_r+0x20>
   11e94:	40b2                	c.lwsp	ra,12(sp)
   11e96:	4422                	c.lwsp	s0,8(sp)
   11e98:	c09c                	c.sw	a5,0(s1)
   11e9a:	4492                	c.lwsp	s1,4(sp)
   11e9c:	0141                	c.addi	sp,16
   11e9e:	8082                	c.jr	ra

00011ea0 <__errno>:
   11ea0:	fcc1a503          	lw	a0,-52(gp) # 287dc <_impure_ptr>
   11ea4:	8082                	c.jr	ra

00011ea6 <__libc_init_array>:
   11ea6:	1141                	c.addi	sp,-16
   11ea8:	c422                	c.swsp	s0,8(sp)
   11eaa:	c04a                	c.swsp	s2,0(sp)
   11eac:	00028437          	lui	s0,0x28
   11eb0:	00028937          	lui	s2,0x28
   11eb4:	c606                	c.swsp	ra,12(sp)
   11eb6:	c226                	c.swsp	s1,4(sp)
   11eb8:	00090913          	addi	s2,s2,0 # 28000 <__init_array_start>
   11ebc:	00040413          	addi	s0,s0,0 # 28000 <__init_array_start>
   11ec0:	00890d63          	beq	s2,s0,11eda <__libc_init_array+0x34>
   11ec4:	40890933          	sub	s2,s2,s0
   11ec8:	40295913          	srai	s2,s2,0x2
   11ecc:	4481                	c.li	s1,0
   11ece:	401c                	c.lw	a5,0(s0)
   11ed0:	0485                	c.addi	s1,1
   11ed2:	0411                	c.addi	s0,4
   11ed4:	9782                	c.jalr	a5
   11ed6:	ff24ece3          	bltu	s1,s2,11ece <__libc_init_array+0x28>
   11eda:	00028937          	lui	s2,0x28
   11ede:	00028437          	lui	s0,0x28
   11ee2:	00890913          	addi	s2,s2,8 # 28008 <__do_global_dtors_aux_fini_array_entry>
   11ee6:	00040413          	addi	s0,s0,0 # 28000 <__init_array_start>
   11eea:	00890d63          	beq	s2,s0,11f04 <__libc_init_array+0x5e>
   11eee:	40890933          	sub	s2,s2,s0
   11ef2:	40295913          	srai	s2,s2,0x2
   11ef6:	4481                	c.li	s1,0
   11ef8:	401c                	c.lw	a5,0(s0)
   11efa:	0485                	c.addi	s1,1
   11efc:	0411                	c.addi	s0,4
   11efe:	9782                	c.jalr	a5
   11f00:	ff24ece3          	bltu	s1,s2,11ef8 <__libc_init_array+0x52>
   11f04:	40b2                	c.lwsp	ra,12(sp)
   11f06:	4422                	c.lwsp	s0,8(sp)
   11f08:	4492                	c.lwsp	s1,4(sp)
   11f0a:	4902                	c.lwsp	s2,0(sp)
   11f0c:	0141                	c.addi	sp,16
   11f0e:	8082                	c.jr	ra

00011f10 <memset>:
   11f10:	433d                	c.li	t1,15
   11f12:	872a                	c.mv	a4,a0
   11f14:	02c37363          	bgeu	t1,a2,11f3a <memset+0x2a>
   11f18:	00f77793          	andi	a5,a4,15
   11f1c:	efbd                	c.bnez	a5,11f9a <memset+0x8a>
   11f1e:	e5ad                	c.bnez	a1,11f88 <memset+0x78>
   11f20:	ff067693          	andi	a3,a2,-16
   11f24:	8a3d                	c.andi	a2,15
   11f26:	96ba                	c.add	a3,a4
   11f28:	c30c                	c.sw	a1,0(a4)
   11f2a:	c34c                	c.sw	a1,4(a4)
   11f2c:	c70c                	c.sw	a1,8(a4)
   11f2e:	c74c                	c.sw	a1,12(a4)
   11f30:	0741                	c.addi	a4,16
   11f32:	fed76be3          	bltu	a4,a3,11f28 <memset+0x18>
   11f36:	e211                	c.bnez	a2,11f3a <memset+0x2a>
   11f38:	8082                	c.jr	ra
   11f3a:	40c306b3          	sub	a3,t1,a2
   11f3e:	068a                	c.slli	a3,0x2
   11f40:	00000297          	auipc	t0,0x0
   11f44:	9696                	c.add	a3,t0
   11f46:	00a68067          	jalr	zero,10(a3)
   11f4a:	00b70723          	sb	a1,14(a4)
   11f4e:	00b706a3          	sb	a1,13(a4)
   11f52:	00b70623          	sb	a1,12(a4)
   11f56:	00b705a3          	sb	a1,11(a4)
   11f5a:	00b70523          	sb	a1,10(a4)
   11f5e:	00b704a3          	sb	a1,9(a4)
   11f62:	00b70423          	sb	a1,8(a4)
   11f66:	00b703a3          	sb	a1,7(a4)
   11f6a:	00b70323          	sb	a1,6(a4)
   11f6e:	00b702a3          	sb	a1,5(a4)
   11f72:	00b70223          	sb	a1,4(a4)
   11f76:	00b701a3          	sb	a1,3(a4)
   11f7a:	00b70123          	sb	a1,2(a4)
   11f7e:	00b700a3          	sb	a1,1(a4)
   11f82:	00b70023          	sb	a1,0(a4)
   11f86:	8082                	c.jr	ra
   11f88:	0ff5f593          	andi	a1,a1,255
   11f8c:	00859693          	slli	a3,a1,0x8
   11f90:	8dd5                	c.or	a1,a3
   11f92:	01059693          	slli	a3,a1,0x10
   11f96:	8dd5                	c.or	a1,a3
   11f98:	b761                	c.j	11f20 <memset+0x10>
   11f9a:	00279693          	slli	a3,a5,0x2
   11f9e:	00000297          	auipc	t0,0x0
   11fa2:	9696                	c.add	a3,t0
   11fa4:	8286                	c.mv	t0,ra
   11fa6:	fa8680e7          	jalr	ra,-88(a3)
   11faa:	8096                	c.mv	ra,t0
   11fac:	17c1                	c.addi	a5,-16
   11fae:	8f1d                	c.sub	a4,a5
   11fb0:	963e                	c.add	a2,a5
   11fb2:	f8c374e3          	bgeu	t1,a2,11f3a <memset+0x2a>
   11fb6:	b7a5                	c.j	11f1e <memset+0xe>

00011fb8 <__call_exitprocs>:
   11fb8:	7179                	c.addi16sp	sp,-48
   11fba:	cc52                	c.swsp	s4,24(sp)
   11fbc:	d04a                	c.swsp	s2,32(sp)
   11fbe:	fe41a903          	lw	s2,-28(gp) # 287f4 <__atexit>
   11fc2:	d606                	c.swsp	ra,44(sp)
   11fc4:	04090663          	beq	s2,zero,12010 <__call_exitprocs+0x58>
   11fc8:	ce4e                	c.swsp	s3,28(sp)
   11fca:	ca56                	c.swsp	s5,20(sp)
   11fcc:	c85a                	c.swsp	s6,16(sp)
   11fce:	c65e                	c.swsp	s7,12(sp)
   11fd0:	d422                	c.swsp	s0,40(sp)
   11fd2:	d226                	c.swsp	s1,36(sp)
   11fd4:	c462                	c.swsp	s8,8(sp)
   11fd6:	8b2a                	c.mv	s6,a0
   11fd8:	8bae                	c.mv	s7,a1
   11fda:	59fd                	c.li	s3,-1
   11fdc:	4a85                	c.li	s5,1
   11fde:	00492483          	lw	s1,4(s2)
   11fe2:	fff48413          	addi	s0,s1,-1
   11fe6:	00044e63          	blt	s0,zero,12002 <__call_exitprocs+0x4a>
   11fea:	048a                	c.slli	s1,0x2
   11fec:	94ca                	c.add	s1,s2
   11fee:	020b8663          	beq	s7,zero,1201a <__call_exitprocs+0x62>
   11ff2:	1044a783          	lw	a5,260(s1)
   11ff6:	03778263          	beq	a5,s7,1201a <__call_exitprocs+0x62>
   11ffa:	147d                	c.addi	s0,-1
   11ffc:	14f1                	c.addi	s1,-4
   11ffe:	ff341ae3          	bne	s0,s3,11ff2 <__call_exitprocs+0x3a>
   12002:	5422                	c.lwsp	s0,40(sp)
   12004:	5492                	c.lwsp	s1,36(sp)
   12006:	49f2                	c.lwsp	s3,28(sp)
   12008:	4ad2                	c.lwsp	s5,20(sp)
   1200a:	4b42                	c.lwsp	s6,16(sp)
   1200c:	4bb2                	c.lwsp	s7,12(sp)
   1200e:	4c22                	c.lwsp	s8,8(sp)
   12010:	50b2                	c.lwsp	ra,44(sp)
   12012:	5902                	c.lwsp	s2,32(sp)
   12014:	4a62                	c.lwsp	s4,24(sp)
   12016:	6145                	c.addi16sp	sp,48
   12018:	8082                	c.jr	ra
   1201a:	00492783          	lw	a5,4(s2)
   1201e:	40d4                	c.lw	a3,4(s1)
   12020:	17fd                	c.addi	a5,-1
   12022:	04878c63          	beq	a5,s0,1207a <__call_exitprocs+0xc2>
   12026:	0004a223          	sw	zero,4(s1)
   1202a:	c295                	c.beqz	a3,1204e <__call_exitprocs+0x96>
   1202c:	18892783          	lw	a5,392(s2)
   12030:	008a9733          	sll	a4,s5,s0
   12034:	00492c03          	lw	s8,4(s2)
   12038:	8ff9                	c.and	a5,a4
   1203a:	ef99                	c.bnez	a5,12058 <__call_exitprocs+0xa0>
   1203c:	9682                	c.jalr	a3
   1203e:	00492703          	lw	a4,4(s2)
   12042:	fe41a783          	lw	a5,-28(gp) # 287f4 <__atexit>
   12046:	03871763          	bne	a4,s8,12074 <__call_exitprocs+0xbc>
   1204a:	03279563          	bne	a5,s2,12074 <__call_exitprocs+0xbc>
   1204e:	147d                	c.addi	s0,-1
   12050:	14f1                	c.addi	s1,-4
   12052:	f9341ee3          	bne	s0,s3,11fee <__call_exitprocs+0x36>
   12056:	b775                	c.j	12002 <__call_exitprocs+0x4a>
   12058:	18c92783          	lw	a5,396(s2)
   1205c:	0844a583          	lw	a1,132(s1)
   12060:	8f7d                	c.and	a4,a5
   12062:	ef19                	c.bnez	a4,12080 <__call_exitprocs+0xc8>
   12064:	855a                	c.mv	a0,s6
   12066:	9682                	c.jalr	a3
   12068:	00492703          	lw	a4,4(s2)
   1206c:	fe41a783          	lw	a5,-28(gp) # 287f4 <__atexit>
   12070:	fd870de3          	beq	a4,s8,1204a <__call_exitprocs+0x92>
   12074:	d7d9                	c.beqz	a5,12002 <__call_exitprocs+0x4a>
   12076:	893e                	c.mv	s2,a5
   12078:	b79d                	c.j	11fde <__call_exitprocs+0x26>
   1207a:	00892223          	sw	s0,4(s2)
   1207e:	b775                	c.j	1202a <__call_exitprocs+0x72>
   12080:	852e                	c.mv	a0,a1
   12082:	9682                	c.jalr	a3
   12084:	bf6d                	c.j	1203e <__call_exitprocs+0x86>

00012086 <atexit>:
   12086:	85aa                	c.mv	a1,a0
   12088:	4681                	c.li	a3,0
   1208a:	4601                	c.li	a2,0
   1208c:	4501                	c.li	a0,0
   1208e:	04b0606f          	jal	zero,188d8 <__register_exitproc>

00012092 <_malloc_trim_r>:
   12092:	1101                	c.addi	sp,-32
   12094:	c84a                	c.swsp	s2,16(sp)
   12096:	00028937          	lui	s2,0x28
   1209a:	cc22                	c.swsp	s0,24(sp)
   1209c:	ca26                	c.swsp	s1,20(sp)
   1209e:	c64e                	c.swsp	s3,12(sp)
   120a0:	842e                	c.mv	s0,a1
   120a2:	ce06                	c.swsp	ra,28(sp)
   120a4:	89aa                	c.mv	s3,a0
   120a6:	14090913          	addi	s2,s2,320 # 28140 <__malloc_av_>
   120aa:	0e7000ef          	jal	ra,12990 <__malloc_lock>
   120ae:	00892783          	lw	a5,8(s2)
   120b2:	6705                	c.lui	a4,0x1
   120b4:	43c4                	c.lw	s1,4(a5)
   120b6:	98f1                	c.andi	s1,-4
   120b8:	7ff48793          	addi	a5,s1,2047
   120bc:	7f078793          	addi	a5,a5,2032
   120c0:	40878433          	sub	s0,a5,s0
   120c4:	8031                	c.srli	s0,0xc
   120c6:	147d                	c.addi	s0,-1
   120c8:	0432                	c.slli	s0,0xc
   120ca:	00e44b63          	blt	s0,a4,120e0 <_malloc_trim_r+0x4e>
   120ce:	4581                	c.li	a1,0
   120d0:	854e                	c.mv	a0,s3
   120d2:	370060ef          	jal	ra,18442 <_sbrk_r>
   120d6:	00892783          	lw	a5,8(s2)
   120da:	97a6                	c.add	a5,s1
   120dc:	00f50d63          	beq	a0,a5,120f6 <_malloc_trim_r+0x64>
   120e0:	854e                	c.mv	a0,s3
   120e2:	0b1000ef          	jal	ra,12992 <__malloc_unlock>
   120e6:	40f2                	c.lwsp	ra,28(sp)
   120e8:	4462                	c.lwsp	s0,24(sp)
   120ea:	44d2                	c.lwsp	s1,20(sp)
   120ec:	4942                	c.lwsp	s2,16(sp)
   120ee:	49b2                	c.lwsp	s3,12(sp)
   120f0:	4501                	c.li	a0,0
   120f2:	6105                	c.addi16sp	sp,32
   120f4:	8082                	c.jr	ra
   120f6:	408005b3          	sub	a1,zero,s0
   120fa:	854e                	c.mv	a0,s3
   120fc:	346060ef          	jal	ra,18442 <_sbrk_r>
   12100:	57fd                	c.li	a5,-1
   12102:	02f50863          	beq	a0,a5,12132 <_malloc_trim_r+0xa0>
   12106:	00892683          	lw	a3,8(s2)
   1210a:	1501a783          	lw	a5,336(gp) # 28960 <__malloc_current_mallinfo>
   1210e:	8c81                	c.sub	s1,s0
   12110:	0014e493          	ori	s1,s1,1
   12114:	854e                	c.mv	a0,s3
   12116:	8f81                	c.sub	a5,s0
   12118:	c2c4                	c.sw	s1,4(a3)
   1211a:	14f1a823          	sw	a5,336(gp) # 28960 <__malloc_current_mallinfo>
   1211e:	075000ef          	jal	ra,12992 <__malloc_unlock>
   12122:	40f2                	c.lwsp	ra,28(sp)
   12124:	4462                	c.lwsp	s0,24(sp)
   12126:	44d2                	c.lwsp	s1,20(sp)
   12128:	4942                	c.lwsp	s2,16(sp)
   1212a:	49b2                	c.lwsp	s3,12(sp)
   1212c:	4505                	c.li	a0,1
   1212e:	6105                	c.addi16sp	sp,32
   12130:	8082                	c.jr	ra
   12132:	4581                	c.li	a1,0
   12134:	854e                	c.mv	a0,s3
   12136:	30c060ef          	jal	ra,18442 <_sbrk_r>
   1213a:	00892703          	lw	a4,8(s2)
   1213e:	46bd                	c.li	a3,15
   12140:	40e507b3          	sub	a5,a0,a4
   12144:	f8f6dee3          	bge	a3,a5,120e0 <_malloc_trim_r+0x4e>
   12148:	fd01a603          	lw	a2,-48(gp) # 287e0 <__malloc_sbrk_base>
   1214c:	0017e793          	ori	a5,a5,1
   12150:	8d11                	c.sub	a0,a2
   12152:	c35c                	c.sw	a5,4(a4)
   12154:	14a1a823          	sw	a0,336(gp) # 28960 <__malloc_current_mallinfo>
   12158:	b761                	c.j	120e0 <_malloc_trim_r+0x4e>

0001215a <_free_r>:
   1215a:	c1f5                	c.beqz	a1,1223e <_free_r+0xe4>
   1215c:	1101                	c.addi	sp,-32
   1215e:	cc22                	c.swsp	s0,24(sp)
   12160:	c62e                	c.swsp	a1,12(sp)
   12162:	842a                	c.mv	s0,a0
   12164:	ce06                	c.swsp	ra,28(sp)
   12166:	02b000ef          	jal	ra,12990 <__malloc_lock>
   1216a:	45b2                	c.lwsp	a1,12(sp)
   1216c:	00028837          	lui	a6,0x28
   12170:	14080813          	addi	a6,a6,320 # 28140 <__malloc_av_>
   12174:	ffc5a503          	lw	a0,-4(a1)
   12178:	ff858713          	addi	a4,a1,-8
   1217c:	00882883          	lw	a7,8(a6)
   12180:	ffe57793          	andi	a5,a0,-2
   12184:	00f70633          	add	a2,a4,a5
   12188:	4254                	c.lw	a3,4(a2)
   1218a:	00157313          	andi	t1,a0,1
   1218e:	9af1                	c.andi	a3,-4
   12190:	12c88163          	beq	a7,a2,122b2 <_free_r+0x158>
   12194:	c254                	c.sw	a3,4(a2)
   12196:	00d608b3          	add	a7,a2,a3
   1219a:	0048a883          	lw	a7,4(a7)
   1219e:	0018f893          	andi	a7,a7,1
   121a2:	06031963          	bne	t1,zero,12214 <_free_r+0xba>
   121a6:	ff85a303          	lw	t1,-8(a1)
   121aa:	000285b7          	lui	a1,0x28
   121ae:	14858593          	addi	a1,a1,328 # 28148 <__malloc_av_+0x8>
   121b2:	40670733          	sub	a4,a4,t1
   121b6:	4708                	c.lw	a0,8(a4)
   121b8:	979a                	c.add	a5,t1
   121ba:	0cb50f63          	beq	a0,a1,12298 <_free_r+0x13e>
   121be:	00c72303          	lw	t1,12(a4) # 100c <exit-0xf0a8>
   121c2:	00652623          	sw	t1,12(a0)
   121c6:	00a32423          	sw	a0,8(t1)
   121ca:	10088d63          	beq	a7,zero,122e4 <_free_r+0x18a>
   121ce:	0017e693          	ori	a3,a5,1
   121d2:	c354                	c.sw	a3,4(a4)
   121d4:	c21c                	c.sw	a5,0(a2)
   121d6:	1ff00693          	addi	a3,zero,511
   121da:	06f6ec63          	bltu	a3,a5,12252 <_free_r+0xf8>
   121de:	ff87f693          	andi	a3,a5,-8
   121e2:	06a1                	c.addi	a3,8
   121e4:	00482583          	lw	a1,4(a6)
   121e8:	96c2                	c.add	a3,a6
   121ea:	4290                	c.lw	a2,0(a3)
   121ec:	0057d513          	srli	a0,a5,0x5
   121f0:	4785                	c.li	a5,1
   121f2:	00a797b3          	sll	a5,a5,a0
   121f6:	8fcd                	c.or	a5,a1
   121f8:	ff868593          	addi	a1,a3,-8
   121fc:	c710                	c.sw	a2,8(a4)
   121fe:	c74c                	c.sw	a1,12(a4)
   12200:	00f82223          	sw	a5,4(a6)
   12204:	c298                	c.sw	a4,0(a3)
   12206:	c658                	c.sw	a4,12(a2)
   12208:	8522                	c.mv	a0,s0
   1220a:	4462                	c.lwsp	s0,24(sp)
   1220c:	40f2                	c.lwsp	ra,28(sp)
   1220e:	6105                	c.addi16sp	sp,32
   12210:	7820006f          	jal	zero,12992 <__malloc_unlock>
   12214:	02089663          	bne	a7,zero,12240 <_free_r+0xe6>
   12218:	000285b7          	lui	a1,0x28
   1221c:	97b6                	c.add	a5,a3
   1221e:	14858593          	addi	a1,a1,328 # 28148 <__malloc_av_+0x8>
   12222:	4614                	c.lw	a3,8(a2)
   12224:	0017e893          	ori	a7,a5,1
   12228:	00f70533          	add	a0,a4,a5
   1222c:	0eb68863          	beq	a3,a1,1231c <_free_r+0x1c2>
   12230:	4650                	c.lw	a2,12(a2)
   12232:	c6d0                	c.sw	a2,12(a3)
   12234:	c614                	c.sw	a3,8(a2)
   12236:	01172223          	sw	a7,4(a4)
   1223a:	c11c                	c.sw	a5,0(a0)
   1223c:	bf69                	c.j	121d6 <_free_r+0x7c>
   1223e:	8082                	c.jr	ra
   12240:	00156513          	ori	a0,a0,1
   12244:	fea5ae23          	sw	a0,-4(a1)
   12248:	c21c                	c.sw	a5,0(a2)
   1224a:	1ff00693          	addi	a3,zero,511
   1224e:	f8f6f8e3          	bgeu	a3,a5,121de <_free_r+0x84>
   12252:	0097d693          	srli	a3,a5,0x9
   12256:	4611                	c.li	a2,4
   12258:	08d66863          	bltu	a2,a3,122e8 <_free_r+0x18e>
   1225c:	0067d693          	srli	a3,a5,0x6
   12260:	03968593          	addi	a1,a3,57
   12264:	058e                	c.slli	a1,0x3
   12266:	03868613          	addi	a2,a3,56
   1226a:	95c2                	c.add	a1,a6
   1226c:	4194                	c.lw	a3,0(a1)
   1226e:	15e1                	c.addi	a1,-8
   12270:	00d59663          	bne	a1,a3,1227c <_free_r+0x122>
   12274:	a875                	c.j	12330 <_free_r+0x1d6>
   12276:	4694                	c.lw	a3,8(a3)
   12278:	00d58663          	beq	a1,a3,12284 <_free_r+0x12a>
   1227c:	42d0                	c.lw	a2,4(a3)
   1227e:	9a71                	c.andi	a2,-4
   12280:	fec7ebe3          	bltu	a5,a2,12276 <_free_r+0x11c>
   12284:	46cc                	c.lw	a1,12(a3)
   12286:	c74c                	c.sw	a1,12(a4)
   12288:	c714                	c.sw	a3,8(a4)
   1228a:	8522                	c.mv	a0,s0
   1228c:	4462                	c.lwsp	s0,24(sp)
   1228e:	40f2                	c.lwsp	ra,28(sp)
   12290:	c598                	c.sw	a4,8(a1)
   12292:	c6d8                	c.sw	a4,12(a3)
   12294:	6105                	c.addi16sp	sp,32
   12296:	adf5                	c.j	12992 <__malloc_unlock>
   12298:	06089763          	bne	a7,zero,12306 <_free_r+0x1ac>
   1229c:	464c                	c.lw	a1,12(a2)
   1229e:	4610                	c.lw	a2,8(a2)
   122a0:	96be                	c.add	a3,a5
   122a2:	0016e793          	ori	a5,a3,1
   122a6:	c64c                	c.sw	a1,12(a2)
   122a8:	c590                	c.sw	a2,8(a1)
   122aa:	c35c                	c.sw	a5,4(a4)
   122ac:	9736                	c.add	a4,a3
   122ae:	c314                	c.sw	a3,0(a4)
   122b0:	bfa1                	c.j	12208 <_free_r+0xae>
   122b2:	96be                	c.add	a3,a5
   122b4:	00031a63          	bne	t1,zero,122c8 <_free_r+0x16e>
   122b8:	ff85a783          	lw	a5,-8(a1)
   122bc:	8f1d                	c.sub	a4,a5
   122be:	4710                	c.lw	a2,8(a4)
   122c0:	96be                	c.add	a3,a5
   122c2:	475c                	c.lw	a5,12(a4)
   122c4:	c65c                	c.sw	a5,12(a2)
   122c6:	c790                	c.sw	a2,8(a5)
   122c8:	0016e613          	ori	a2,a3,1
   122cc:	fd41a783          	lw	a5,-44(gp) # 287e4 <__malloc_trim_threshold>
   122d0:	c350                	c.sw	a2,4(a4)
   122d2:	00e82423          	sw	a4,8(a6)
   122d6:	f2f6e9e3          	bltu	a3,a5,12208 <_free_r+0xae>
   122da:	ff01a583          	lw	a1,-16(gp) # 28800 <__malloc_top_pad>
   122de:	8522                	c.mv	a0,s0
   122e0:	3b4d                	c.jal	12092 <_malloc_trim_r>
   122e2:	b71d                	c.j	12208 <_free_r+0xae>
   122e4:	97b6                	c.add	a5,a3
   122e6:	bf35                	c.j	12222 <_free_r+0xc8>
   122e8:	4651                	c.li	a2,20
   122ea:	02d67363          	bgeu	a2,a3,12310 <_free_r+0x1b6>
   122ee:	05400613          	addi	a2,zero,84
   122f2:	04d66963          	bltu	a2,a3,12344 <_free_r+0x1ea>
   122f6:	00c7d693          	srli	a3,a5,0xc
   122fa:	06f68593          	addi	a1,a3,111
   122fe:	058e                	c.slli	a1,0x3
   12300:	06e68613          	addi	a2,a3,110
   12304:	b79d                	c.j	1226a <_free_r+0x110>
   12306:	0017e693          	ori	a3,a5,1
   1230a:	c354                	c.sw	a3,4(a4)
   1230c:	c21c                	c.sw	a5,0(a2)
   1230e:	bded                	c.j	12208 <_free_r+0xae>
   12310:	05c68593          	addi	a1,a3,92
   12314:	058e                	c.slli	a1,0x3
   12316:	05b68613          	addi	a2,a3,91
   1231a:	bf81                	c.j	1226a <_free_r+0x110>
   1231c:	00e82a23          	sw	a4,20(a6)
   12320:	00e82823          	sw	a4,16(a6)
   12324:	c74c                	c.sw	a1,12(a4)
   12326:	c70c                	c.sw	a1,8(a4)
   12328:	01172223          	sw	a7,4(a4)
   1232c:	c11c                	c.sw	a5,0(a0)
   1232e:	bde9                	c.j	12208 <_free_r+0xae>
   12330:	00482503          	lw	a0,4(a6)
   12334:	8609                	c.srai	a2,0x2
   12336:	4785                	c.li	a5,1
   12338:	00c797b3          	sll	a5,a5,a2
   1233c:	8fc9                	c.or	a5,a0
   1233e:	00f82223          	sw	a5,4(a6)
   12342:	b791                	c.j	12286 <_free_r+0x12c>
   12344:	15400613          	addi	a2,zero,340
   12348:	00d66a63          	bltu	a2,a3,1235c <_free_r+0x202>
   1234c:	00f7d693          	srli	a3,a5,0xf
   12350:	07868593          	addi	a1,a3,120
   12354:	058e                	c.slli	a1,0x3
   12356:	07768613          	addi	a2,a3,119
   1235a:	bf01                	c.j	1226a <_free_r+0x110>
   1235c:	55400613          	addi	a2,zero,1364
   12360:	00d66a63          	bltu	a2,a3,12374 <_free_r+0x21a>
   12364:	0127d693          	srli	a3,a5,0x12
   12368:	07d68593          	addi	a1,a3,125
   1236c:	058e                	c.slli	a1,0x3
   1236e:	07c68613          	addi	a2,a3,124
   12372:	bde5                	c.j	1226a <_free_r+0x110>
   12374:	3f800593          	addi	a1,zero,1016
   12378:	07e00613          	addi	a2,zero,126
   1237c:	b5fd                	c.j	1226a <_free_r+0x110>

0001237e <_malloc_r>:
   1237e:	7139                	c.addi16sp	sp,-64
   12380:	dc22                	c.swsp	s0,56(sp)
   12382:	de06                	c.swsp	ra,60(sp)
   12384:	00b58793          	addi	a5,a1,11
   12388:	4759                	c.li	a4,22
   1238a:	842a                	c.mv	s0,a0
   1238c:	04f76f63          	bltu	a4,a5,123ea <_malloc_r+0x6c>
   12390:	46c1                	c.li	a3,16
   12392:	04b6e563          	bltu	a3,a1,123dc <_malloc_r+0x5e>
   12396:	2bed                	c.jal	12990 <__malloc_lock>
   12398:	46c1                	c.li	a3,16
   1239a:	4761                	c.li	a4,24
   1239c:	4889                	c.li	a7,2
   1239e:	00028837          	lui	a6,0x28
   123a2:	14080813          	addi	a6,a6,320 # 28140 <__malloc_av_>
   123a6:	9742                	c.add	a4,a6
   123a8:	435c                	c.lw	a5,4(a4)
   123aa:	ff870613          	addi	a2,a4,-8
   123ae:	30c78763          	beq	a5,a2,126bc <_malloc_r+0x33e>
   123b2:	43d8                	c.lw	a4,4(a5)
   123b4:	47d0                	c.lw	a2,12(a5)
   123b6:	478c                	c.lw	a1,8(a5)
   123b8:	9b71                	c.andi	a4,-4
   123ba:	973e                	c.add	a4,a5
   123bc:	4354                	c.lw	a3,4(a4)
   123be:	c5d0                	c.sw	a2,12(a1)
   123c0:	c63e                	c.swsp	a5,12(sp)
   123c2:	c60c                	c.sw	a1,8(a2)
   123c4:	0016e693          	ori	a3,a3,1
   123c8:	8522                	c.mv	a0,s0
   123ca:	c354                	c.sw	a3,4(a4)
   123cc:	23d9                	c.jal	12992 <__malloc_unlock>
   123ce:	47b2                	c.lwsp	a5,12(sp)
   123d0:	50f2                	c.lwsp	ra,60(sp)
   123d2:	5462                	c.lwsp	s0,56(sp)
   123d4:	00878513          	addi	a0,a5,8
   123d8:	6121                	c.addi16sp	sp,64
   123da:	8082                	c.jr	ra
   123dc:	47b1                	c.li	a5,12
   123de:	c01c                	c.sw	a5,0(s0)
   123e0:	4501                	c.li	a0,0
   123e2:	50f2                	c.lwsp	ra,60(sp)
   123e4:	5462                	c.lwsp	s0,56(sp)
   123e6:	6121                	c.addi16sp	sp,64
   123e8:	8082                	c.jr	ra
   123ea:	ff87f693          	andi	a3,a5,-8
   123ee:	fe07c7e3          	blt	a5,zero,123dc <_malloc_r+0x5e>
   123f2:	feb6e5e3          	bltu	a3,a1,123dc <_malloc_r+0x5e>
   123f6:	c636                	c.swsp	a3,12(sp)
   123f8:	2b61                	c.jal	12990 <__malloc_lock>
   123fa:	46b2                	c.lwsp	a3,12(sp)
   123fc:	1f700793          	addi	a5,zero,503
   12400:	36d7f763          	bgeu	a5,a3,1276e <_malloc_r+0x3f0>
   12404:	0096d793          	srli	a5,a3,0x9
   12408:	10078d63          	beq	a5,zero,12522 <_malloc_r+0x1a4>
   1240c:	4711                	c.li	a4,4
   1240e:	2ef76c63          	bltu	a4,a5,12706 <_malloc_r+0x388>
   12412:	0066d793          	srli	a5,a3,0x6
   12416:	03978893          	addi	a7,a5,57
   1241a:	03878e13          	addi	t3,a5,56
   1241e:	00389513          	slli	a0,a7,0x3
   12422:	00028837          	lui	a6,0x28
   12426:	14080813          	addi	a6,a6,320 # 28140 <__malloc_av_>
   1242a:	9542                	c.add	a0,a6
   1242c:	415c                	c.lw	a5,4(a0)
   1242e:	1561                	c.addi	a0,-8
   12430:	02f50163          	beq	a0,a5,12452 <_malloc_r+0xd4>
   12434:	433d                	c.li	t1,15
   12436:	a039                	c.j	12444 <_malloc_r+0xc6>
   12438:	47cc                	c.lw	a1,12(a5)
   1243a:	24065f63          	bge	a2,zero,12698 <_malloc_r+0x31a>
   1243e:	00b50a63          	beq	a0,a1,12452 <_malloc_r+0xd4>
   12442:	87ae                	c.mv	a5,a1
   12444:	43d8                	c.lw	a4,4(a5)
   12446:	9b71                	c.andi	a4,-4
   12448:	40d70633          	sub	a2,a4,a3
   1244c:	fec356e3          	bge	t1,a2,12438 <_malloc_r+0xba>
   12450:	88f2                	c.mv	a7,t3
   12452:	01082783          	lw	a5,16(a6)
   12456:	00028e37          	lui	t3,0x28
   1245a:	148e0e13          	addi	t3,t3,328 # 28148 <__malloc_av_+0x8>
   1245e:	21c78763          	beq	a5,t3,1266c <_malloc_r+0x2ee>
   12462:	43d8                	c.lw	a4,4(a5)
   12464:	45bd                	c.li	a1,15
   12466:	9b71                	c.andi	a4,-4
   12468:	40d70633          	sub	a2,a4,a3
   1246c:	32c5c263          	blt	a1,a2,12790 <_malloc_r+0x412>
   12470:	01c82a23          	sw	t3,20(a6)
   12474:	01c82823          	sw	t3,16(a6)
   12478:	30065063          	bge	a2,zero,12778 <_malloc_r+0x3fa>
   1247c:	1ff00613          	addi	a2,zero,511
   12480:	00482303          	lw	t1,4(a6)
   12484:	24e66163          	bltu	a2,a4,126c6 <_malloc_r+0x348>
   12488:	ff877613          	andi	a2,a4,-8
   1248c:	0621                	c.addi	a2,8
   1248e:	9642                	c.add	a2,a6
   12490:	420c                	c.lw	a1,0(a2)
   12492:	00575513          	srli	a0,a4,0x5
   12496:	4705                	c.li	a4,1
   12498:	00a71733          	sll	a4,a4,a0
   1249c:	00e36333          	or	t1,t1,a4
   124a0:	ff860713          	addi	a4,a2,-8
   124a4:	c78c                	c.sw	a1,8(a5)
   124a6:	c7d8                	c.sw	a4,12(a5)
   124a8:	00682223          	sw	t1,4(a6)
   124ac:	c21c                	c.sw	a5,0(a2)
   124ae:	c5dc                	c.sw	a5,12(a1)
   124b0:	4028d793          	srai	a5,a7,0x2
   124b4:	4505                	c.li	a0,1
   124b6:	00f51533          	sll	a0,a0,a5
   124ba:	06a36b63          	bltu	t1,a0,12530 <_malloc_r+0x1b2>
   124be:	006577b3          	and	a5,a0,t1
   124c2:	ef89                	c.bnez	a5,124dc <_malloc_r+0x15e>
   124c4:	0506                	c.slli	a0,0x1
   124c6:	ffc8f893          	andi	a7,a7,-4
   124ca:	006577b3          	and	a5,a0,t1
   124ce:	0891                	c.addi	a7,4
   124d0:	e791                	c.bnez	a5,124dc <_malloc_r+0x15e>
   124d2:	0506                	c.slli	a0,0x1
   124d4:	006577b3          	and	a5,a0,t1
   124d8:	0891                	c.addi	a7,4
   124da:	dfe5                	c.beqz	a5,124d2 <_malloc_r+0x154>
   124dc:	4ebd                	c.li	t4,15
   124de:	00389f13          	slli	t5,a7,0x3
   124e2:	9f42                	c.add	t5,a6
   124e4:	837a                	c.mv	t1,t5
   124e6:	00c32703          	lw	a4,12(t1)
   124ea:	8fc6                	c.mv	t6,a7
   124ec:	22e30d63          	beq	t1,a4,12726 <_malloc_r+0x3a8>
   124f0:	4350                	c.lw	a2,4(a4)
   124f2:	87ba                	c.mv	a5,a4
   124f4:	4758                	c.lw	a4,12(a4)
   124f6:	9a71                	c.andi	a2,-4
   124f8:	40d605b3          	sub	a1,a2,a3
   124fc:	22becd63          	blt	t4,a1,12736 <_malloc_r+0x3b8>
   12500:	fe05c6e3          	blt	a1,zero,124ec <_malloc_r+0x16e>
   12504:	963e                	c.add	a2,a5
   12506:	4254                	c.lw	a3,4(a2)
   12508:	478c                	c.lw	a1,8(a5)
   1250a:	8522                	c.mv	a0,s0
   1250c:	0016e693          	ori	a3,a3,1
   12510:	c254                	c.sw	a3,4(a2)
   12512:	c5d8                	c.sw	a4,12(a1)
   12514:	c70c                	c.sw	a1,8(a4)
   12516:	c63e                	c.swsp	a5,12(sp)
   12518:	29ad                	c.jal	12992 <__malloc_unlock>
   1251a:	47b2                	c.lwsp	a5,12(sp)
   1251c:	00878513          	addi	a0,a5,8
   12520:	b5c9                	c.j	123e2 <_malloc_r+0x64>
   12522:	20000513          	addi	a0,zero,512
   12526:	04000893          	addi	a7,zero,64
   1252a:	03f00e13          	addi	t3,zero,63
   1252e:	bdd5                	c.j	12422 <_malloc_r+0xa4>
   12530:	00882783          	lw	a5,8(a6)
   12534:	43d8                	c.lw	a4,4(a5)
   12536:	9b71                	c.andi	a4,-4
   12538:	40d70633          	sub	a2,a4,a3
   1253c:	00d76663          	bltu	a4,a3,12548 <_malloc_r+0x1ca>
   12540:	01062593          	slti	a1,a2,16
   12544:	12058763          	beq	a1,zero,12672 <_malloc_r+0x2f4>
   12548:	ff01a583          	lw	a1,-16(gp) # 28800 <__malloc_top_pad>
   1254c:	fd01a503          	lw	a0,-48(gp) # 287e0 <__malloc_sbrk_base>
   12550:	567d                	c.li	a2,-1
   12552:	95b6                	c.add	a1,a3
   12554:	2ec50563          	beq	a0,a2,1283e <_malloc_r+0x4c0>
   12558:	6605                	c.lui	a2,0x1
   1255a:	063d                	c.addi	a2,15 # 100f <exit-0xf0a5>
   1255c:	95b2                	c.add	a1,a2
   1255e:	767d                	c.lui	a2,0xfffff
   12560:	8df1                	c.and	a1,a2
   12562:	8522                	c.mv	a0,s0
   12564:	ce42                	c.swsp	a6,28(sp)
   12566:	cc3e                	c.swsp	a5,24(sp)
   12568:	ca36                	c.swsp	a3,20(sp)
   1256a:	c83a                	c.swsp	a4,16(sp)
   1256c:	c62e                	c.swsp	a1,12(sp)
   1256e:	6d5050ef          	jal	ra,18442 <_sbrk_r>
   12572:	567d                	c.li	a2,-1
   12574:	45b2                	c.lwsp	a1,12(sp)
   12576:	4742                	c.lwsp	a4,16(sp)
   12578:	46d2                	c.lwsp	a3,20(sp)
   1257a:	47e2                	c.lwsp	a5,24(sp)
   1257c:	4872                	c.lwsp	a6,28(sp)
   1257e:	88aa                	c.mv	a7,a0
   12580:	24c50a63          	beq	a0,a2,127d4 <_malloc_r+0x456>
   12584:	00e78533          	add	a0,a5,a4
   12588:	24a8e463          	bltu	a7,a0,127d0 <_malloc_r+0x452>
   1258c:	15018e13          	addi	t3,gp,336 # 28960 <__malloc_current_mallinfo>
   12590:	000e2603          	lw	a2,0(t3)
   12594:	962e                	c.add	a2,a1
   12596:	00ce2023          	sw	a2,0(t3)
   1259a:	8eb2                	c.mv	t4,a2
   1259c:	33150c63          	beq	a0,a7,128d4 <_malloc_r+0x556>
   125a0:	fd01af03          	lw	t5,-48(gp) # 287e0 <__malloc_sbrk_base>
   125a4:	567d                	c.li	a2,-1
   125a6:	34cf0363          	beq	t5,a2,128ec <_malloc_r+0x56e>
   125aa:	40a88633          	sub	a2,a7,a0
   125ae:	9676                	c.add	a2,t4
   125b0:	00ce2023          	sw	a2,0(t3)
   125b4:	0078fe93          	andi	t4,a7,7
   125b8:	280e8e63          	beq	t4,zero,12854 <_malloc_r+0x4d6>
   125bc:	ff88f893          	andi	a7,a7,-8
   125c0:	6605                	c.lui	a2,0x1
   125c2:	08a1                	c.addi	a7,8
   125c4:	0621                	c.addi	a2,8 # 1008 <exit-0xf0ac>
   125c6:	00b88333          	add	t1,a7,a1
   125ca:	41d60633          	sub	a2,a2,t4
   125ce:	40660633          	sub	a2,a2,t1
   125d2:	0652                	c.slli	a2,0x14
   125d4:	01465593          	srli	a1,a2,0x14
   125d8:	8522                	c.mv	a0,s0
   125da:	d642                	c.swsp	a6,44(sp)
   125dc:	d472                	c.swsp	t3,40(sp)
   125de:	d23e                	c.swsp	a5,36(sp)
   125e0:	d036                	c.swsp	a3,32(sp)
   125e2:	ce3a                	c.swsp	a4,28(sp)
   125e4:	cc46                	c.swsp	a7,24(sp)
   125e6:	ca76                	c.swsp	t4,20(sp)
   125e8:	c81a                	c.swsp	t1,16(sp)
   125ea:	c62e                	c.swsp	a1,12(sp)
   125ec:	657050ef          	jal	ra,18442 <_sbrk_r>
   125f0:	567d                	c.li	a2,-1
   125f2:	45b2                	c.lwsp	a1,12(sp)
   125f4:	4342                	c.lwsp	t1,16(sp)
   125f6:	4ed2                	c.lwsp	t4,20(sp)
   125f8:	48e2                	c.lwsp	a7,24(sp)
   125fa:	4772                	c.lwsp	a4,28(sp)
   125fc:	5682                	c.lwsp	a3,32(sp)
   125fe:	5792                	c.lwsp	a5,36(sp)
   12600:	5e22                	c.lwsp	t3,40(sp)
   12602:	5832                	c.lwsp	a6,44(sp)
   12604:	32c50463          	beq	a0,a2,1292c <_malloc_r+0x5ae>
   12608:	000e2603          	lw	a2,0(t3)
   1260c:	41150533          	sub	a0,a0,a7
   12610:	952e                	c.add	a0,a1
   12612:	00156513          	ori	a0,a0,1
   12616:	01182423          	sw	a7,8(a6)
   1261a:	962e                	c.add	a2,a1
   1261c:	00a8a223          	sw	a0,4(a7)
   12620:	00ce2023          	sw	a2,0(t3)
   12624:	03078663          	beq	a5,a6,12650 <_malloc_r+0x2d2>
   12628:	453d                	c.li	a0,15
   1262a:	2ce57463          	bgeu	a0,a4,128f2 <_malloc_r+0x574>
   1262e:	43cc                	c.lw	a1,4(a5)
   12630:	1751                	c.addi	a4,-12
   12632:	9b61                	c.andi	a4,-8
   12634:	8985                	c.andi	a1,1
   12636:	8dd9                	c.or	a1,a4
   12638:	c3cc                	c.sw	a1,4(a5)
   1263a:	4315                	c.li	t1,5
   1263c:	00e785b3          	add	a1,a5,a4
   12640:	0065a223          	sw	t1,4(a1)
   12644:	0065a423          	sw	t1,8(a1)
   12648:	2ee56763          	bltu	a0,a4,12936 <_malloc_r+0x5b8>
   1264c:	0048a503          	lw	a0,4(a7)
   12650:	fec1a703          	lw	a4,-20(gp) # 287fc <__malloc_max_sbrked_mem>
   12654:	00c77463          	bgeu	a4,a2,1265c <_malloc_r+0x2de>
   12658:	fec1a623          	sw	a2,-20(gp) # 287fc <__malloc_max_sbrked_mem>
   1265c:	fe81a703          	lw	a4,-24(gp) # 287f8 <__malloc_max_total_mem>
   12660:	00c77463          	bgeu	a4,a2,12668 <_malloc_r+0x2ea>
   12664:	fec1a423          	sw	a2,-24(gp) # 287f8 <__malloc_max_total_mem>
   12668:	87c6                	c.mv	a5,a7
   1266a:	aa85                	c.j	127da <_malloc_r+0x45c>
   1266c:	00482303          	lw	t1,4(a6)
   12670:	b581                	c.j	124b0 <_malloc_r+0x132>
   12672:	0016e713          	ori	a4,a3,1
   12676:	c3d8                	c.sw	a4,4(a5)
   12678:	96be                	c.add	a3,a5
   1267a:	00166613          	ori	a2,a2,1
   1267e:	00d82423          	sw	a3,8(a6)
   12682:	8522                	c.mv	a0,s0
   12684:	c2d0                	c.sw	a2,4(a3)
   12686:	c63e                	c.swsp	a5,12(sp)
   12688:	2629                	c.jal	12992 <__malloc_unlock>
   1268a:	47b2                	c.lwsp	a5,12(sp)
   1268c:	50f2                	c.lwsp	ra,60(sp)
   1268e:	5462                	c.lwsp	s0,56(sp)
   12690:	00878513          	addi	a0,a5,8
   12694:	6121                	c.addi16sp	sp,64
   12696:	8082                	c.jr	ra
   12698:	4790                	c.lw	a2,8(a5)
   1269a:	973e                	c.add	a4,a5
   1269c:	4354                	c.lw	a3,4(a4)
   1269e:	c64c                	c.sw	a1,12(a2)
   126a0:	c63e                	c.swsp	a5,12(sp)
   126a2:	0016e693          	ori	a3,a3,1
   126a6:	c590                	c.sw	a2,8(a1)
   126a8:	8522                	c.mv	a0,s0
   126aa:	c354                	c.sw	a3,4(a4)
   126ac:	24dd                	c.jal	12992 <__malloc_unlock>
   126ae:	47b2                	c.lwsp	a5,12(sp)
   126b0:	50f2                	c.lwsp	ra,60(sp)
   126b2:	5462                	c.lwsp	s0,56(sp)
   126b4:	00878513          	addi	a0,a5,8
   126b8:	6121                	c.addi16sp	sp,64
   126ba:	8082                	c.jr	ra
   126bc:	475c                	c.lw	a5,12(a4)
   126be:	0889                	c.addi	a7,2
   126c0:	d8f709e3          	beq	a4,a5,12452 <_malloc_r+0xd4>
   126c4:	b1fd                	c.j	123b2 <_malloc_r+0x34>
   126c6:	00975613          	srli	a2,a4,0x9
   126ca:	4591                	c.li	a1,4
   126cc:	0ec5fa63          	bgeu	a1,a2,127c0 <_malloc_r+0x442>
   126d0:	45d1                	c.li	a1,20
   126d2:	1cc5e063          	bltu	a1,a2,12892 <_malloc_r+0x514>
   126d6:	05c60513          	addi	a0,a2,92
   126da:	050e                	c.slli	a0,0x3
   126dc:	05b60593          	addi	a1,a2,91
   126e0:	9542                	c.add	a0,a6
   126e2:	4110                	c.lw	a2,0(a0)
   126e4:	1561                	c.addi	a0,-8
   126e6:	00c51663          	bne	a0,a2,126f2 <_malloc_r+0x374>
   126ea:	aaa1                	c.j	12842 <_malloc_r+0x4c4>
   126ec:	4610                	c.lw	a2,8(a2)
   126ee:	00c50663          	beq	a0,a2,126fa <_malloc_r+0x37c>
   126f2:	424c                	c.lw	a1,4(a2)
   126f4:	99f1                	c.andi	a1,-4
   126f6:	feb76be3          	bltu	a4,a1,126ec <_malloc_r+0x36e>
   126fa:	4648                	c.lw	a0,12(a2)
   126fc:	c7c8                	c.sw	a0,12(a5)
   126fe:	c790                	c.sw	a2,8(a5)
   12700:	c51c                	c.sw	a5,8(a0)
   12702:	c65c                	c.sw	a5,12(a2)
   12704:	b375                	c.j	124b0 <_malloc_r+0x132>
   12706:	4751                	c.li	a4,20
   12708:	0ef77563          	bgeu	a4,a5,127f2 <_malloc_r+0x474>
   1270c:	05400713          	addi	a4,zero,84
   12710:	18f76d63          	bltu	a4,a5,128aa <_malloc_r+0x52c>
   12714:	00c6d793          	srli	a5,a3,0xc
   12718:	06f78893          	addi	a7,a5,111
   1271c:	06e78e13          	addi	t3,a5,110
   12720:	00389513          	slli	a0,a7,0x3
   12724:	b9fd                	c.j	12422 <_malloc_r+0xa4>
   12726:	0f85                	c.addi	t6,1
   12728:	003ff793          	andi	a5,t6,3
   1272c:	0321                	c.addi	t1,8
   1272e:	cff1                	c.beqz	a5,1280a <_malloc_r+0x48c>
   12730:	00c32703          	lw	a4,12(t1)
   12734:	bb65                	c.j	124ec <_malloc_r+0x16e>
   12736:	4788                	c.lw	a0,8(a5)
   12738:	0016e893          	ori	a7,a3,1
   1273c:	0117a223          	sw	a7,4(a5)
   12740:	c558                	c.sw	a4,12(a0)
   12742:	c708                	c.sw	a0,8(a4)
   12744:	96be                	c.add	a3,a5
   12746:	00d82a23          	sw	a3,20(a6)
   1274a:	00d82823          	sw	a3,16(a6)
   1274e:	0015e713          	ori	a4,a1,1
   12752:	963e                	c.add	a2,a5
   12754:	01c6a623          	sw	t3,12(a3)
   12758:	01c6a423          	sw	t3,8(a3)
   1275c:	c2d8                	c.sw	a4,4(a3)
   1275e:	8522                	c.mv	a0,s0
   12760:	c20c                	c.sw	a1,0(a2)
   12762:	c63e                	c.swsp	a5,12(sp)
   12764:	243d                	c.jal	12992 <__malloc_unlock>
   12766:	47b2                	c.lwsp	a5,12(sp)
   12768:	00878513          	addi	a0,a5,8
   1276c:	b99d                	c.j	123e2 <_malloc_r+0x64>
   1276e:	0036d893          	srli	a7,a3,0x3
   12772:	00868713          	addi	a4,a3,8
   12776:	b125                	c.j	1239e <_malloc_r+0x20>
   12778:	973e                	c.add	a4,a5
   1277a:	4354                	c.lw	a3,4(a4)
   1277c:	c63e                	c.swsp	a5,12(sp)
   1277e:	8522                	c.mv	a0,s0
   12780:	0016e693          	ori	a3,a3,1
   12784:	c354                	c.sw	a3,4(a4)
   12786:	2431                	c.jal	12992 <__malloc_unlock>
   12788:	47b2                	c.lwsp	a5,12(sp)
   1278a:	00878513          	addi	a0,a5,8
   1278e:	b991                	c.j	123e2 <_malloc_r+0x64>
   12790:	0016e593          	ori	a1,a3,1
   12794:	c3cc                	c.sw	a1,4(a5)
   12796:	96be                	c.add	a3,a5
   12798:	00d82a23          	sw	a3,20(a6)
   1279c:	00d82823          	sw	a3,16(a6)
   127a0:	00166593          	ori	a1,a2,1
   127a4:	973e                	c.add	a4,a5
   127a6:	01c6a623          	sw	t3,12(a3)
   127aa:	01c6a423          	sw	t3,8(a3)
   127ae:	c2cc                	c.sw	a1,4(a3)
   127b0:	8522                	c.mv	a0,s0
   127b2:	c310                	c.sw	a2,0(a4)
   127b4:	c63e                	c.swsp	a5,12(sp)
   127b6:	2af1                	c.jal	12992 <__malloc_unlock>
   127b8:	47b2                	c.lwsp	a5,12(sp)
   127ba:	00878513          	addi	a0,a5,8
   127be:	b115                	c.j	123e2 <_malloc_r+0x64>
   127c0:	00675613          	srli	a2,a4,0x6
   127c4:	03960513          	addi	a0,a2,57
   127c8:	050e                	c.slli	a0,0x3
   127ca:	03860593          	addi	a1,a2,56
   127ce:	bf09                	c.j	126e0 <_malloc_r+0x362>
   127d0:	0f078a63          	beq	a5,a6,128c4 <_malloc_r+0x546>
   127d4:	00882783          	lw	a5,8(a6)
   127d8:	43c8                	c.lw	a0,4(a5)
   127da:	9971                	c.andi	a0,-4
   127dc:	40d50633          	sub	a2,a0,a3
   127e0:	00d56663          	bltu	a0,a3,127ec <_malloc_r+0x46e>
   127e4:	01062713          	slti	a4,a2,16
   127e8:	e80705e3          	beq	a4,zero,12672 <_malloc_r+0x2f4>
   127ec:	8522                	c.mv	a0,s0
   127ee:	2255                	c.jal	12992 <__malloc_unlock>
   127f0:	bec5                	c.j	123e0 <_malloc_r+0x62>
   127f2:	05c78893          	addi	a7,a5,92
   127f6:	05b78e13          	addi	t3,a5,91
   127fa:	00389513          	slli	a0,a7,0x3
   127fe:	b115                	c.j	12422 <_malloc_r+0xa4>
   12800:	008f2783          	lw	a5,8(t5)
   12804:	18fd                	c.addi	a7,-1
   12806:	19e79263          	bne	a5,t5,1298a <_malloc_r+0x60c>
   1280a:	0038f793          	andi	a5,a7,3
   1280e:	1f61                	c.addi	t5,-8
   12810:	fbe5                	c.bnez	a5,12800 <_malloc_r+0x482>
   12812:	00482703          	lw	a4,4(a6)
   12816:	fff54793          	xori	a5,a0,-1
   1281a:	8ff9                	c.and	a5,a4
   1281c:	00f82223          	sw	a5,4(a6)
   12820:	0506                	c.slli	a0,0x1
   12822:	fff50713          	addi	a4,a0,-1
   12826:	d0f775e3          	bgeu	a4,a5,12530 <_malloc_r+0x1b2>
   1282a:	00f57733          	and	a4,a0,a5
   1282e:	e711                	c.bnez	a4,1283a <_malloc_r+0x4bc>
   12830:	0506                	c.slli	a0,0x1
   12832:	00f57733          	and	a4,a0,a5
   12836:	0f91                	c.addi	t6,4
   12838:	df65                	c.beqz	a4,12830 <_malloc_r+0x4b2>
   1283a:	88fe                	c.mv	a7,t6
   1283c:	b14d                	c.j	124de <_malloc_r+0x160>
   1283e:	05c1                	c.addi	a1,16
   12840:	b30d                	c.j	12562 <_malloc_r+0x1e4>
   12842:	8589                	c.srai	a1,0x2
   12844:	4705                	c.li	a4,1
   12846:	00b71733          	sll	a4,a4,a1
   1284a:	00e36333          	or	t1,t1,a4
   1284e:	00682223          	sw	t1,4(a6)
   12852:	b56d                	c.j	126fc <_malloc_r+0x37e>
   12854:	00b88333          	add	t1,a7,a1
   12858:	40600633          	sub	a2,zero,t1
   1285c:	0652                	c.slli	a2,0x14
   1285e:	01465593          	srli	a1,a2,0x14
   12862:	8522                	c.mv	a0,s0
   12864:	d442                	c.swsp	a6,40(sp)
   12866:	d272                	c.swsp	t3,36(sp)
   12868:	d03e                	c.swsp	a5,32(sp)
   1286a:	ce36                	c.swsp	a3,28(sp)
   1286c:	cc3a                	c.swsp	a4,24(sp)
   1286e:	ca46                	c.swsp	a7,20(sp)
   12870:	c62e                	c.swsp	a1,12(sp)
   12872:	c81a                	c.swsp	t1,16(sp)
   12874:	3cf050ef          	jal	ra,18442 <_sbrk_r>
   12878:	567d                	c.li	a2,-1
   1287a:	45b2                	c.lwsp	a1,12(sp)
   1287c:	48d2                	c.lwsp	a7,20(sp)
   1287e:	4762                	c.lwsp	a4,24(sp)
   12880:	46f2                	c.lwsp	a3,28(sp)
   12882:	5782                	c.lwsp	a5,32(sp)
   12884:	5e12                	c.lwsp	t3,36(sp)
   12886:	5822                	c.lwsp	a6,40(sp)
   12888:	d8c510e3          	bne	a0,a2,12608 <_malloc_r+0x28a>
   1288c:	4542                	c.lwsp	a0,16(sp)
   1288e:	4581                	c.li	a1,0
   12890:	bba5                	c.j	12608 <_malloc_r+0x28a>
   12892:	05400593          	addi	a1,zero,84
   12896:	06c5e263          	bltu	a1,a2,128fa <_malloc_r+0x57c>
   1289a:	00c75613          	srli	a2,a4,0xc
   1289e:	06f60513          	addi	a0,a2,111
   128a2:	050e                	c.slli	a0,0x3
   128a4:	06e60593          	addi	a1,a2,110
   128a8:	bd25                	c.j	126e0 <_malloc_r+0x362>
   128aa:	15400713          	addi	a4,zero,340
   128ae:	06f76263          	bltu	a4,a5,12912 <_malloc_r+0x594>
   128b2:	00f6d793          	srli	a5,a3,0xf
   128b6:	07878893          	addi	a7,a5,120
   128ba:	07778e13          	addi	t3,a5,119
   128be:	00389513          	slli	a0,a7,0x3
   128c2:	b685                	c.j	12422 <_malloc_r+0xa4>
   128c4:	15018e13          	addi	t3,gp,336 # 28960 <__malloc_current_mallinfo>
   128c8:	000e2e83          	lw	t4,0(t3)
   128cc:	9eae                	c.add	t4,a1
   128ce:	01de2023          	sw	t4,0(t3)
   128d2:	b1f9                	c.j	125a0 <_malloc_r+0x222>
   128d4:	01489f13          	slli	t5,a7,0x14
   128d8:	cc0f14e3          	bne	t5,zero,125a0 <_malloc_r+0x222>
   128dc:	00882883          	lw	a7,8(a6)
   128e0:	95ba                	c.add	a1,a4
   128e2:	0015e513          	ori	a0,a1,1
   128e6:	00a8a223          	sw	a0,4(a7)
   128ea:	b39d                	c.j	12650 <_malloc_r+0x2d2>
   128ec:	fd11a823          	sw	a7,-48(gp) # 287e0 <__malloc_sbrk_base>
   128f0:	b1d1                	c.j	125b4 <_malloc_r+0x236>
   128f2:	4785                	c.li	a5,1
   128f4:	00f8a223          	sw	a5,4(a7)
   128f8:	bdd5                	c.j	127ec <_malloc_r+0x46e>
   128fa:	15400593          	addi	a1,zero,340
   128fe:	04c5ee63          	bltu	a1,a2,1295a <_malloc_r+0x5dc>
   12902:	00f75613          	srli	a2,a4,0xf
   12906:	07860513          	addi	a0,a2,120
   1290a:	050e                	c.slli	a0,0x3
   1290c:	07760593          	addi	a1,a2,119
   12910:	bbc1                	c.j	126e0 <_malloc_r+0x362>
   12912:	55400713          	addi	a4,zero,1364
   12916:	04f76e63          	bltu	a4,a5,12972 <_malloc_r+0x5f4>
   1291a:	0126d793          	srli	a5,a3,0x12
   1291e:	07d78893          	addi	a7,a5,125
   12922:	07c78e13          	addi	t3,a5,124
   12926:	00389513          	slli	a0,a7,0x3
   1292a:	bce5                	c.j	12422 <_malloc_r+0xa4>
   1292c:	1ee1                	c.addi	t4,-8
   1292e:	01d30533          	add	a0,t1,t4
   12932:	4581                	c.li	a1,0
   12934:	b9d1                	c.j	12608 <_malloc_r+0x28a>
   12936:	8522                	c.mv	a0,s0
   12938:	00878593          	addi	a1,a5,8
   1293c:	ca42                	c.swsp	a6,20(sp)
   1293e:	c872                	c.swsp	t3,16(sp)
   12940:	c636                	c.swsp	a3,12(sp)
   12942:	819ff0ef          	jal	ra,1215a <_free_r>
   12946:	4852                	c.lwsp	a6,20(sp)
   12948:	4e42                	c.lwsp	t3,16(sp)
   1294a:	46b2                	c.lwsp	a3,12(sp)
   1294c:	00882883          	lw	a7,8(a6)
   12950:	000e2603          	lw	a2,0(t3)
   12954:	0048a503          	lw	a0,4(a7)
   12958:	b9e5                	c.j	12650 <_malloc_r+0x2d2>
   1295a:	55400593          	addi	a1,zero,1364
   1295e:	02c5e163          	bltu	a1,a2,12980 <_malloc_r+0x602>
   12962:	01275613          	srli	a2,a4,0x12
   12966:	07d60513          	addi	a0,a2,125
   1296a:	050e                	c.slli	a0,0x3
   1296c:	07c60593          	addi	a1,a2,124
   12970:	bb85                	c.j	126e0 <_malloc_r+0x362>
   12972:	3f800513          	addi	a0,zero,1016
   12976:	07f00893          	addi	a7,zero,127
   1297a:	07e00e13          	addi	t3,zero,126
   1297e:	b455                	c.j	12422 <_malloc_r+0xa4>
   12980:	3f800513          	addi	a0,zero,1016
   12984:	07e00593          	addi	a1,zero,126
   12988:	bba1                	c.j	126e0 <_malloc_r+0x362>
   1298a:	00482783          	lw	a5,4(a6)
   1298e:	bd49                	c.j	12820 <_malloc_r+0x4a2>

00012990 <__malloc_lock>:
   12990:	8082                	c.jr	ra

00012992 <__malloc_unlock>:
   12992:	8082                	c.jr	ra

00012994 <_vfprintf_r>:
   12994:	7121                	c.addi16sp	sp,-448
   12996:	1a112e23          	sw	ra,444(sp)
   1299a:	1a912a23          	sw	s1,436(sp)
   1299e:	1b212823          	sw	s2,432(sp)
   129a2:	19a12823          	sw	s10,400(sp)
   129a6:	c836                	c.swsp	a3,16(sp)
   129a8:	8d32                	c.mv	s10,a2
   129aa:	84ae                	c.mv	s1,a1
   129ac:	892a                	c.mv	s2,a0
   129ae:	253050ef          	jal	ra,18400 <_localeconv_r>
   129b2:	411c                	c.lw	a5,0(a0)
   129b4:	853e                	c.mv	a0,a5
   129b6:	d43e                	c.swsp	a5,40(sp)
   129b8:	4bb050ef          	jal	ra,18672 <strlen>
   129bc:	d22a                	c.swsp	a0,36(sp)
   129be:	c182                	c.swsp	zero,192(sp)
   129c0:	00090763          	beq	s2,zero,129ce <_vfprintf_r+0x3a>
   129c4:	03492783          	lw	a5,52(s2)
   129c8:	e399                	c.bnez	a5,129ce <_vfprintf_r+0x3a>
   129ca:	44e0106f          	jal	zero,13e18 <_vfprintf_r+0x1484>
   129ce:	00c49783          	lh	a5,12(s1)
   129d2:	50f8                	c.lw	a4,100(s1)
   129d4:	6609                	c.lui	a2,0x2
   129d6:	01279693          	slli	a3,a5,0x12
   129da:	2406cb63          	blt	a3,zero,12c30 <_vfprintf_r+0x29c>
   129de:	76f9                	c.lui	a3,0xffffe
   129e0:	8fd1                	c.or	a5,a2
   129e2:	16fd                	c.addi	a3,-1 # ffffdfff <__BSS_END__+0xfffd54e7>
   129e4:	8f75                	c.and	a4,a3
   129e6:	00f49623          	sh	a5,12(s1)
   129ea:	07c2                	c.slli	a5,0x10
   129ec:	87c1                	c.srai	a5,0x10
   129ee:	d0f8                	c.sw	a4,100(s1)
   129f0:	0087f713          	andi	a4,a5,8
   129f4:	1e070463          	beq	a4,zero,12bdc <_vfprintf_r+0x248>
   129f8:	4898                	c.lw	a4,16(s1)
   129fa:	1e070163          	beq	a4,zero,12bdc <_vfprintf_r+0x248>
   129fe:	8be9                	c.andi	a5,26
   12a00:	4729                	c.li	a4,10
   12a02:	1ee78863          	beq	a5,a4,12bf2 <_vfprintf_r+0x25e>
   12a06:	000277b7          	lui	a5,0x27
   12a0a:	1b312623          	sw	s3,428(sp)
   12a0e:	1b412423          	sw	s4,424(sp)
   12a12:	0dc10993          	addi	s3,sp,220
   12a16:	00027a37          	lui	s4,0x27
   12a1a:	e2478793          	addi	a5,a5,-476 # 26e24 <__exp_data+0xa5c>
   12a1e:	1a812c23          	sw	s0,440(sp)
   12a22:	1b612023          	sw	s6,416(sp)
   12a26:	1b512223          	sw	s5,420(sp)
   12a2a:	19712e23          	sw	s7,412(sp)
   12a2e:	19812c23          	sw	s8,408(sp)
   12a32:	19912a23          	sw	s9,404(sp)
   12a36:	19b12623          	sw	s11,396(sp)
   12a3a:	df02                	c.swsp	zero,188(sp)
   12a3c:	dd02                	c.swsp	zero,184(sp)
   12a3e:	db4e                	c.swsp	s3,180(sp)
   12a40:	8b4e                	c.mv	s6,s3
   12a42:	ca3e                	c.swsp	a5,20(sp)
   12a44:	f90a0a13          	addi	s4,s4,-112 # 26f90 <zeroes.0>
   12a48:	cc02                	c.swsp	zero,24(sp)
   12a4a:	dc02                	c.swsp	zero,56(sp)
   12a4c:	d602                	c.swsp	zero,44(sp)
   12a4e:	c282                	c.swsp	zero,68(sp)
   12a50:	de02                	c.swsp	zero,60(sp)
   12a52:	c402                	c.swsp	zero,8(sp)
   12a54:	4441                	c.li	s0,16
   12a56:	c026                	c.swsp	s1,0(sp)
   12a58:	000d4783          	lbu	a5,0(s10)
   12a5c:	8aea                	c.mv	s5,s10
   12a5e:	fdb78713          	addi	a4,a5,-37
   12a62:	c329                	c.beqz	a4,12aa4 <_vfprintf_r+0x110>
   12a64:	c3a1                	c.beqz	a5,12aa4 <_vfprintf_r+0x110>
   12a66:	8c56                	c.mv	s8,s5
   12a68:	001ac783          	lbu	a5,1(s5)
   12a6c:	0a85                	c.addi	s5,1
   12a6e:	c781                	c.beqz	a5,12a76 <_vfprintf_r+0xe2>
   12a70:	fdb78713          	addi	a4,a5,-37
   12a74:	fb6d                	c.bnez	a4,12a66 <_vfprintf_r+0xd2>
   12a76:	41aa8cb3          	sub	s9,s5,s10
   12a7a:	03aa8563          	beq	s5,s10,12aa4 <_vfprintf_r+0x110>
   12a7e:	57fa                	c.lwsp	a5,188(sp)
   12a80:	556a                	c.lwsp	a0,184(sp)
   12a82:	01ab2023          	sw	s10,0(s6)
   12a86:	97e6                	c.add	a5,s9
   12a88:	0505                	c.addi	a0,1
   12a8a:	019b2223          	sw	s9,4(s6)
   12a8e:	df3e                	c.swsp	a5,188(sp)
   12a90:	dd2a                	c.swsp	a0,184(sp)
   12a92:	479d                	c.li	a5,7
   12a94:	0b21                	c.addi	s6,8
   12a96:	18a7c363          	blt	a5,a0,12c1c <_vfprintf_r+0x288>
   12a9a:	47a2                	c.lwsp	a5,8(sp)
   12a9c:	97e6                	c.add	a5,s9
   12a9e:	c43e                	c.swsp	a5,8(sp)
   12aa0:	001c4783          	lbu	a5,1(s8)
   12aa4:	e399                	c.bnez	a5,12aaa <_vfprintf_r+0x116>
   12aa6:	44c0106f          	jal	zero,13ef2 <_vfprintf_r+0x155e>
   12aaa:	001ac883          	lbu	a7,1(s5)
   12aae:	001a8d13          	addi	s10,s5,1
   12ab2:	080109a3          	sb	zero,147(sp)
   12ab6:	5afd                	c.li	s5,-1
   12ab8:	c202                	c.swsp	zero,4(sp)
   12aba:	4b81                	c.li	s7,0
   12abc:	05a00c13          	addi	s8,zero,90
   12ac0:	0d05                	c.addi	s10,1
   12ac2:	fe088793          	addi	a5,a7,-32
   12ac6:	02fc6d63          	bltu	s8,a5,12b00 <_vfprintf_r+0x16c>
   12aca:	4752                	c.lwsp	a4,20(sp)
   12acc:	078a                	c.slli	a5,0x2
   12ace:	97ba                	c.add	a5,a4
   12ad0:	439c                	c.lw	a5,0(a5)
   12ad2:	8782                	c.jr	a5
   12ad4:	fd088793          	addi	a5,a7,-48
   12ad8:	c202                	c.swsp	zero,4(sp)
   12ada:	46a5                	c.li	a3,9
   12adc:	4612                	c.lwsp	a2,4(sp)
   12ade:	000d4883          	lbu	a7,0(s10)
   12ae2:	0d05                	c.addi	s10,1
   12ae4:	00261713          	slli	a4,a2,0x2
   12ae8:	9732                	c.add	a4,a2
   12aea:	0706                	c.slli	a4,0x1
   12aec:	97ba                	c.add	a5,a4
   12aee:	c23e                	c.swsp	a5,4(sp)
   12af0:	fd088793          	addi	a5,a7,-48
   12af4:	fef6f4e3          	bgeu	a3,a5,12adc <_vfprintf_r+0x148>
   12af8:	fe088793          	addi	a5,a7,-32
   12afc:	fcfc77e3          	bgeu	s8,a5,12aca <_vfprintf_r+0x136>
   12b00:	00089463          	bne	a7,zero,12b08 <_vfprintf_r+0x174>
   12b04:	3ee0106f          	jal	zero,13ef2 <_vfprintf_r+0x155e>
   12b08:	4c85                	c.li	s9,1
   12b0a:	11110e23          	sb	a7,284(sp)
   12b0e:	080109a3          	sb	zero,147(sp)
   12b12:	8c66                	c.mv	s8,s9
   12b14:	c602                	c.swsp	zero,12(sp)
   12b16:	4a81                	c.li	s5,0
   12b18:	d002                	c.swsp	zero,32(sp)
   12b1a:	ce02                	c.swsp	zero,28(sp)
   12b1c:	4301                	c.li	t1,0
   12b1e:	0a7c                	c.addi4spn	a5,sp,284
   12b20:	567a                	c.lwsp	a2,188(sp)
   12b22:	084bfd93          	andi	s11,s7,132
   12b26:	8832                	c.mv	a6,a2
   12b28:	500d8a63          	beq	s11,zero,1303c <_vfprintf_r+0x6a8>
   12b2c:	09314703          	lbu	a4,147(sp)
   12b30:	c331                	c.beqz	a4,12b74 <_vfprintf_r+0x1e0>
   12b32:	55ea                	c.lwsp	a1,184(sp)
   12b34:	4701                	c.li	a4,0
   12b36:	09310513          	addi	a0,sp,147
   12b3a:	00ab2023          	sw	a0,0(s6)
   12b3e:	0605                	c.addi	a2,1 # 2001 <exit-0xe0b3>
   12b40:	4505                	c.li	a0,1
   12b42:	0585                	c.addi	a1,1
   12b44:	00ab2223          	sw	a0,4(s6)
   12b48:	df32                	c.swsp	a2,188(sp)
   12b4a:	dd2e                	c.swsp	a1,184(sp)
   12b4c:	451d                	c.li	a0,7
   12b4e:	0b21                	c.addi	s6,8
   12b50:	3ab54563          	blt	a0,a1,12efa <_vfprintf_r+0x566>
   12b54:	c305                	c.beqz	a4,12b74 <_vfprintf_r+0x1e0>
   12b56:	55ea                	c.lwsp	a1,184(sp)
   12b58:	0958                	c.addi4spn	a4,sp,148
   12b5a:	00eb2023          	sw	a4,0(s6)
   12b5e:	0609                	c.addi	a2,2
   12b60:	4709                	c.li	a4,2
   12b62:	0585                	c.addi	a1,1
   12b64:	00eb2223          	sw	a4,4(s6)
   12b68:	df32                	c.swsp	a2,188(sp)
   12b6a:	dd2e                	c.swsp	a1,184(sp)
   12b6c:	471d                	c.li	a4,7
   12b6e:	0b21                	c.addi	s6,8
   12b70:	42b746e3          	blt	a4,a1,1379c <_vfprintf_r+0xe08>
   12b74:	08000713          	addi	a4,zero,128
   12b78:	2eed89e3          	beq	s11,a4,1366a <_vfprintf_r+0xcd6>
   12b7c:	419a8ab3          	sub	s5,s5,s9
   12b80:	4d504b63          	blt	zero,s5,13056 <_vfprintf_r+0x6c2>
   12b84:	100bf713          	andi	a4,s7,256
   12b88:	56071563          	bne	a4,zero,130f2 <_vfprintf_r+0x75e>
   12b8c:	00fb2023          	sw	a5,0(s6)
   12b90:	57ea                	c.lwsp	a5,184(sp)
   12b92:	9666                	c.add	a2,s9
   12b94:	df32                	c.swsp	a2,188(sp)
   12b96:	0785                	c.addi	a5,1
   12b98:	019b2223          	sw	s9,4(s6)
   12b9c:	471d                	c.li	a4,7
   12b9e:	dd3e                	c.swsp	a5,184(sp)
   12ba0:	42f74663          	blt	a4,a5,12fcc <_vfprintf_r+0x638>
   12ba4:	0b21                	c.addi	s6,8
   12ba6:	004bfe13          	andi	t3,s7,4
   12baa:	000e0763          	beq	t3,zero,12bb8 <_vfprintf_r+0x224>
   12bae:	4792                	c.lwsp	a5,4(sp)
   12bb0:	41878ab3          	sub	s5,a5,s8
   12bb4:	415044e3          	blt	zero,s5,137bc <_vfprintf_r+0xe28>
   12bb8:	4312                	c.lwsp	t1,4(sp)
   12bba:	01835363          	bge	t1,s8,12bc0 <_vfprintf_r+0x22c>
   12bbe:	8362                	c.mv	t1,s8
   12bc0:	47a2                	c.lwsp	a5,8(sp)
   12bc2:	979a                	c.add	a5,t1
   12bc4:	c43e                	c.swsp	a5,8(sp)
   12bc6:	34061ee3          	bne	a2,zero,13722 <_vfprintf_r+0xd8e>
   12bca:	47b2                	c.lwsp	a5,12(sp)
   12bcc:	dd02                	c.swsp	zero,184(sp)
   12bce:	c789                	c.beqz	a5,12bd8 <_vfprintf_r+0x244>
   12bd0:	45b2                	c.lwsp	a1,12(sp)
   12bd2:	854a                	c.mv	a0,s2
   12bd4:	d86ff0ef          	jal	ra,1215a <_free_r>
   12bd8:	8b4e                	c.mv	s6,s3
   12bda:	bdbd                	c.j	12a58 <_vfprintf_r+0xc4>
   12bdc:	85a6                	c.mv	a1,s1
   12bde:	854a                	c.mv	a0,s2
   12be0:	58a050ef          	jal	ra,1816a <__swsetup_r>
   12be4:	e931                	c.bnez	a0,12c38 <_vfprintf_r+0x2a4>
   12be6:	00c49783          	lh	a5,12(s1)
   12bea:	4729                	c.li	a4,10
   12bec:	8be9                	c.andi	a5,26
   12bee:	e0e79ce3          	bne	a5,a4,12a06 <_vfprintf_r+0x72>
   12bf2:	00e49783          	lh	a5,14(s1)
   12bf6:	e007c8e3          	blt	a5,zero,12a06 <_vfprintf_r+0x72>
   12bfa:	46c2                	c.lwsp	a3,16(sp)
   12bfc:	866a                	c.mv	a2,s10
   12bfe:	85a6                	c.mv	a1,s1
   12c00:	854a                	c.mv	a0,s2
   12c02:	6f1010ef          	jal	ra,14af2 <__sbprintf>
   12c06:	c42a                	c.swsp	a0,8(sp)
   12c08:	3650006f          	jal	zero,1376c <_vfprintf_r+0xdd8>
   12c0c:	000d4883          	lbu	a7,0(s10)
   12c10:	bd45                	c.j	12ac0 <_vfprintf_r+0x12c>
   12c12:	000d4883          	lbu	a7,0(s10)
   12c16:	020beb93          	ori	s7,s7,32
   12c1a:	b55d                	c.j	12ac0 <_vfprintf_r+0x12c>
   12c1c:	4582                	c.lwsp	a1,0(sp)
   12c1e:	1950                	c.addi4spn	a2,sp,180
   12c20:	854a                	c.mv	a0,s2
   12c22:	744040ef          	jal	ra,17366 <__sprint_r>
   12c26:	c119                	c.beqz	a0,12c2c <_vfprintf_r+0x298>
   12c28:	4950106f          	jal	zero,148bc <_vfprintf_r+0x1f28>
   12c2c:	8b4e                	c.mv	s6,s3
   12c2e:	b5b5                	c.j	12a9a <_vfprintf_r+0x106>
   12c30:	01271693          	slli	a3,a4,0x12
   12c34:	da06dee3          	bge	a3,zero,129f0 <_vfprintf_r+0x5c>
   12c38:	57fd                	c.li	a5,-1
   12c3a:	c43e                	c.swsp	a5,8(sp)
   12c3c:	3310006f          	jal	zero,1376c <_vfprintf_r+0xdd8>
   12c40:	008bf793          	andi	a5,s7,8
   12c44:	6c0796e3          	bne	a5,zero,13b10 <_vfprintf_r+0x117c>
   12c48:	47c2                	c.lwsp	a5,16(sp)
   12c4a:	0108                	c.addi4spn	a0,sp,128
   12c4c:	c646                	c.swsp	a7,12(sp)
   12c4e:	079d                	c.addi	a5,7
   12c50:	9be1                	c.andi	a5,-8
   12c52:	2388                	c.fld	fa0,0(a5)
   12c54:	07a1                	c.addi	a5,8
   12c56:	c83e                	c.swsp	a5,16(sp)
   12c58:	4fa120ef          	jal	ra,25152 <__extenddftf2>
   12c5c:	460a                	c.lwsp	a2,128(sp)
   12c5e:	469a                	c.lwsp	a3,132(sp)
   12c60:	472a                	c.lwsp	a4,136(sp)
   12c62:	47ba                	c.lwsp	a5,140(sp)
   12c64:	48b2                	c.lwsp	a7,12(sp)
   12c66:	0188                	c.addi4spn	a0,sp,192
   12c68:	c646                	c.swsp	a7,12(sp)
   12c6a:	c7be                	c.swsp	a5,204(sp)
   12c6c:	c1b2                	c.swsp	a2,192(sp)
   12c6e:	c3b6                	c.swsp	a3,196(sp)
   12c70:	c5ba                	c.swsp	a4,200(sp)
   12c72:	661050ef          	jal	ra,18ad2 <_ldcheck>
   12c76:	cd2a                	c.swsp	a0,152(sp)
   12c78:	4789                	c.li	a5,2
   12c7a:	48b2                	c.lwsp	a7,12(sp)
   12c7c:	00f51463          	bne	a0,a5,12c84 <_vfprintf_r+0x2f0>
   12c80:	2040106f          	jal	zero,13e84 <_vfprintf_r+0x14f0>
   12c84:	4785                	c.li	a5,1
   12c86:	00f51463          	bne	a0,a5,12c8e <_vfprintf_r+0x2fa>
   12c8a:	3300106f          	jal	zero,13fba <_vfprintf_r+0x1626>
   12c8e:	fdf8fc13          	andi	s8,a7,-33
   12c92:	04100793          	addi	a5,zero,65
   12c96:	00fc0463          	beq	s8,a5,12c9e <_vfprintf_r+0x30a>
   12c9a:	2fa0106f          	jal	zero,13f94 <_vfprintf_r+0x1600>
   12c9e:	03000793          	addi	a5,zero,48
   12ca2:	08f10a23          	sb	a5,148(sp)
   12ca6:	06100713          	addi	a4,zero,97
   12caa:	05800793          	addi	a5,zero,88
   12cae:	00e89463          	bne	a7,a4,12cb6 <_vfprintf_r+0x322>
   12cb2:	6ae0106f          	jal	zero,14360 <_vfprintf_r+0x19cc>
   12cb6:	08f10aa3          	sb	a5,149(sp)
   12cba:	06300793          	addi	a5,zero,99
   12cbe:	0157d463          	bge	a5,s5,12cc6 <_vfprintf_r+0x332>
   12cc2:	76a0106f          	jal	zero,1442c <_vfprintf_r+0x1a98>
   12cc6:	473e                	c.lwsp	a4,204(sp)
   12cc8:	468e                	c.lwsp	a3,192(sp)
   12cca:	461e                	c.lwsp	a2,196(sp)
   12ccc:	45ae                	c.lwsp	a1,200(sp)
   12cce:	00075463          	bge	a4,zero,12cd6 <_vfprintf_r+0x342>
   12cd2:	3cd0106f          	jal	zero,1489e <_vfprintf_r+0x1f0a>
   12cd6:	d802                	c.swsp	zero,48(sp)
   12cd8:	c602                	c.swsp	zero,12(sp)
   12cda:	0a7c                	c.addi4spn	a5,sp,284
   12cdc:	08010d93          	addi	s11,sp,128
   12ce0:	c0be                	c.swsp	a5,64(sp)
   12ce2:	dab2                	c.swsp	a2,116(sp)
   12ce4:	002be793          	ori	a5,s7,2
   12ce8:	dcae                	c.swsp	a1,120(sp)
   12cea:	856e                	c.mv	a0,s11
   12cec:	188c                	c.addi4spn	a1,sp,112
   12cee:	0930                	c.addi4spn	a2,sp,152
   12cf0:	dc46                	c.swsp	a7,56(sp)
   12cf2:	ce3e                	c.swsp	a5,28(sp)
   12cf4:	d8b6                	c.swsp	a3,112(sp)
   12cf6:	deba                	c.swsp	a4,124(sp)
   12cf8:	303050ef          	jal	ra,187fa <frexpl>
   12cfc:	472a                	c.lwsp	a4,136(sp)
   12cfe:	460a                	c.lwsp	a2,128(sp)
   12d00:	469a                	c.lwsp	a3,132(sp)
   12d02:	dcba                	c.swsp	a4,120(sp)
   12d04:	473a                	c.lwsp	a4,140(sp)
   12d06:	d8b2                	c.swsp	a2,112(sp)
   12d08:	dab6                	c.swsp	a3,116(sp)
   12d0a:	1090                	c.addi4spn	a2,sp,96
   12d0c:	3ffc06b7          	lui	a3,0x3ffc0
   12d10:	188c                	c.addi4spn	a1,sp,112
   12d12:	856e                	c.mv	a0,s11
   12d14:	d6b6                	c.swsp	a3,108(sp)
   12d16:	deba                	c.swsp	a4,124(sp)
   12d18:	d082                	c.swsp	zero,96(sp)
   12d1a:	d282                	c.swsp	zero,100(sp)
   12d1c:	d482                	c.swsp	zero,104(sp)
   12d1e:	57e100ef          	jal	ra,2329c <__multf3>
   12d22:	4e0a                	c.lwsp	t3,128(sp)
   12d24:	481a                	c.lwsp	a6,132(sp)
   12d26:	462a                	c.lwsp	a2,136(sp)
   12d28:	188c                	c.addi4spn	a1,sp,112
   12d2a:	856e                	c.mv	a0,s11
   12d2c:	da72                	c.swsp	t3,52(sp)
   12d2e:	d042                	c.swsp	a6,32(sp)
   12d30:	cc32                	c.swsp	a2,24(sp)
   12d32:	d882                	c.swsp	zero,112(sp)
   12d34:	da82                	c.swsp	zero,116(sp)
   12d36:	dc82                	c.swsp	zero,120(sp)
   12d38:	de82                	c.swsp	zero,124(sp)
   12d3a:	260100ef          	jal	ra,22f9a <__eqtf2>
   12d3e:	4bba                	c.lwsp	s7,140(sp)
   12d40:	4662                	c.lwsp	a2,24(sp)
   12d42:	5802                	c.lwsp	a6,32(sp)
   12d44:	5e52                	c.lwsp	t3,52(sp)
   12d46:	58e2                	c.lwsp	a7,56(sp)
   12d48:	4786                	c.lwsp	a5,64(sp)
   12d4a:	e119                	c.bnez	a0,12d50 <_vfprintf_r+0x3bc>
   12d4c:	4685                	c.li	a3,1
   12d4e:	cd36                	c.swsp	a3,152(sp)
   12d50:	06100693          	addi	a3,zero,97
   12d54:	00d89463          	bne	a7,a3,12d5c <_vfprintf_r+0x3c8>
   12d58:	4a30106f          	jal	zero,149fa <_vfprintf_r+0x2066>
   12d5c:	000276b7          	lui	a3,0x27
   12d60:	c5c68713          	addi	a4,a3,-932 # 26c5c <__exp_data+0x894>
   12d64:	cc3a                	c.swsp	a4,24(sp)
   12d66:	d05a                	c.swsp	s6,32(sp)
   12d68:	8cde                	c.mv	s9,s7
   12d6a:	c4ca                	c.swsp	s2,72(sp)
   12d6c:	44e2                	c.lwsp	s1,24(sp)
   12d6e:	8c3e                	c.mv	s8,a5
   12d70:	da46                	c.swsp	a7,52(sp)
   12d72:	dc3e                	c.swsp	a5,56(sp)
   12d74:	c0ea                	c.swsp	s10,64(sp)
   12d76:	8b42                	c.mv	s6,a6
   12d78:	8bb2                	c.mv	s7,a2
   12d7a:	8972                	c.mv	s2,t3
   12d7c:	a00d                	c.j	12d9e <_vfprintf_r+0x40a>
   12d7e:	188c                	c.addi4spn	a1,sp,112
   12d80:	856e                	c.mv	a0,s11
   12d82:	c14a                	c.swsp	s2,128(sp)
   12d84:	c35a                	c.swsp	s6,132(sp)
   12d86:	c55e                	c.swsp	s7,136(sp)
   12d88:	c766                	c.swsp	s9,140(sp)
   12d8a:	d882                	c.swsp	zero,112(sp)
   12d8c:	da82                	c.swsp	zero,116(sp)
   12d8e:	dc82                	c.swsp	zero,120(sp)
   12d90:	de82                	c.swsp	zero,124(sp)
   12d92:	208100ef          	jal	ra,22f9a <__eqtf2>
   12d96:	e119                	c.bnez	a0,12d9c <_vfprintf_r+0x408>
   12d98:	3a90106f          	jal	zero,14940 <_vfprintf_r+0x1fac>
   12d9c:	1afd                	c.addi	s5,-1
   12d9e:	400307b7          	lui	a5,0x40030
   12da2:	1090                	c.addi4spn	a2,sp,96
   12da4:	188c                	c.addi4spn	a1,sp,112
   12da6:	856e                	c.mv	a0,s11
   12da8:	d6be                	c.swsp	a5,108(sp)
   12daa:	d8ca                	c.swsp	s2,112(sp)
   12dac:	dada                	c.swsp	s6,116(sp)
   12dae:	dcde                	c.swsp	s7,120(sp)
   12db0:	dee6                	c.swsp	s9,124(sp)
   12db2:	d082                	c.swsp	zero,96(sp)
   12db4:	d282                	c.swsp	zero,100(sp)
   12db6:	d482                	c.swsp	zero,104(sp)
   12db8:	4e4100ef          	jal	ra,2329c <__multf3>
   12dbc:	856e                	c.mv	a0,s11
   12dbe:	1c0120ef          	jal	ra,24f7e <__fixtfsi>
   12dc2:	85aa                	c.mv	a1,a0
   12dc4:	8d2a                	c.mv	s10,a0
   12dc6:	856e                	c.mv	a0,s11
   12dc8:	4c8a                	c.lwsp	s9,128(sp)
   12dca:	4b9a                	c.lwsp	s7,132(sp)
   12dcc:	4b2a                	c.lwsp	s6,136(sp)
   12dce:	493a                	c.lwsp	s2,140(sp)
   12dd0:	2ba120ef          	jal	ra,2508a <__floatsitf>
   12dd4:	47aa                	c.lwsp	a5,136(sp)
   12dd6:	460a                	c.lwsp	a2,128(sp)
   12dd8:	469a                	c.lwsp	a3,132(sp)
   12dda:	ccbe                	c.swsp	a5,88(sp)
   12ddc:	47ba                	c.lwsp	a5,140(sp)
   12dde:	c8b2                	c.swsp	a2,80(sp)
   12de0:	108c                	c.addi4spn	a1,sp,96
   12de2:	0890                	c.addi4spn	a2,sp,80
   12de4:	1888                	c.addi4spn	a0,sp,112
   12de6:	d0e6                	c.swsp	s9,96(sp)
   12de8:	d2de                	c.swsp	s7,100(sp)
   12dea:	d4da                	c.swsp	s6,104(sp)
   12dec:	d6ca                	c.swsp	s2,108(sp)
   12dee:	cab6                	c.swsp	a3,84(sp)
   12df0:	cebe                	c.swsp	a5,92(sp)
   12df2:	086110ef          	jal	ra,23e78 <__subtf3>
   12df6:	01a487b3          	add	a5,s1,s10
   12dfa:	0007c683          	lbu	a3,0(a5) # 40030000 <__BSS_END__+0x400074e8>
   12dfe:	85e2                	c.mv	a1,s8
   12e00:	0c05                	c.addi	s8,1
   12e02:	5946                	c.lwsp	s2,112(sp)
   12e04:	5b56                	c.lwsp	s6,116(sp)
   12e06:	5be6                	c.lwsp	s7,120(sp)
   12e08:	5cf6                	c.lwsp	s9,124(sp)
   12e0a:	fedc0fa3          	sb	a3,-1(s8)
   12e0e:	f60a98e3          	bne	s5,zero,12d7e <_vfprintf_r+0x3ea>
   12e12:	58d2                	c.lwsp	a7,52(sp)
   12e14:	57e2                	c.lwsp	a5,56(sp)
   12e16:	8e4a                	c.mv	t3,s2
   12e18:	885a                	c.mv	a6,s6
   12e1a:	865e                	c.mv	a2,s7
   12e1c:	84ae                	c.mv	s1,a1
   12e1e:	8be6                	c.mv	s7,s9
   12e20:	3ffe0ab7          	lui	s5,0x3ffe0
   12e24:	188c                	c.addi4spn	a1,sp,112
   12e26:	856e                	c.mv	a0,s11
   12e28:	c6c6                	c.swsp	a7,76(sp)
   12e2a:	da3e                	c.swsp	a5,52(sp)
   12e2c:	4926                	c.lwsp	s2,72(sp)
   12e2e:	8cea                	c.mv	s9,s10
   12e30:	c172                	c.swsp	t3,128(sp)
   12e32:	4d06                	c.lwsp	s10,64(sp)
   12e34:	c4f2                	c.swsp	t3,72(sp)
   12e36:	c342                	c.swsp	a6,132(sp)
   12e38:	c0c2                	c.swsp	a6,64(sp)
   12e3a:	c532                	c.swsp	a2,136(sp)
   12e3c:	dc32                	c.swsp	a2,56(sp)
   12e3e:	c75e                	c.swsp	s7,140(sp)
   12e40:	d882                	c.swsp	zero,112(sp)
   12e42:	da82                	c.swsp	zero,116(sp)
   12e44:	dc82                	c.swsp	zero,120(sp)
   12e46:	ded6                	c.swsp	s5,124(sp)
   12e48:	264100ef          	jal	ra,230ac <__getf2>
   12e4c:	5b02                	c.lwsp	s6,32(sp)
   12e4e:	57d2                	c.lwsp	a5,52(sp)
   12e50:	48b6                	c.lwsp	a7,76(sp)
   12e52:	00a04e63          	blt	zero,a0,12e6e <_vfprintf_r+0x4da>
   12e56:	188c                	c.addi4spn	a1,sp,112
   12e58:	856e                	c.mv	a0,s11
   12e5a:	d046                	c.swsp	a7,32(sp)
   12e5c:	13e100ef          	jal	ra,22f9a <__eqtf2>
   12e60:	5882                	c.lwsp	a7,32(sp)
   12e62:	57d2                	c.lwsp	a5,52(sp)
   12e64:	e531                	c.bnez	a0,12eb0 <_vfprintf_r+0x51c>
   12e66:	001cfc93          	andi	s9,s9,1
   12e6a:	040c8363          	beq	s9,zero,12eb0 <_vfprintf_r+0x51c>
   12e6e:	4762                	c.lwsp	a4,24(sp)
   12e70:	d126                	c.swsp	s1,160(sp)
   12e72:	fffc4603          	lbu	a2,-1(s8)
   12e76:	00f74583          	lbu	a1,15(a4)
   12e7a:	8762                	c.mv	a4,s8
   12e7c:	00c59e63          	bne	a1,a2,12e98 <_vfprintf_r+0x504>
   12e80:	03000513          	addi	a0,zero,48
   12e84:	fea70fa3          	sb	a0,-1(a4)
   12e88:	570a                	c.lwsp	a4,160(sp)
   12e8a:	fff70693          	addi	a3,a4,-1
   12e8e:	d136                	c.swsp	a3,160(sp)
   12e90:	fff74603          	lbu	a2,-1(a4)
   12e94:	fec588e3          	beq	a1,a2,12e84 <_vfprintf_r+0x4f0>
   12e98:	00160593          	addi	a1,a2,1
   12e9c:	03900513          	addi	a0,zero,57
   12ea0:	0ff5f593          	andi	a1,a1,255
   12ea4:	00a61463          	bne	a2,a0,12eac <_vfprintf_r+0x518>
   12ea8:	7380106f          	jal	zero,145e0 <_vfprintf_r+0x1c4c>
   12eac:	feb70fa3          	sb	a1,-1(a4)
   12eb0:	466a                	c.lwsp	a2,152(sp)
   12eb2:	00f88713          	addi	a4,a7,15
   12eb6:	0ae10223          	sb	a4,164(sp)
   12eba:	40fc06b3          	sub	a3,s8,a5
   12ebe:	fff60713          	addi	a4,a2,-1
   12ec2:	cd3a                	c.swsp	a4,152(sp)
   12ec4:	cc36                	c.swsp	a3,24(sp)
   12ec6:	00075463          	bge	a4,zero,12ece <_vfprintf_r+0x53a>
   12eca:	31b0106f          	jal	zero,149e4 <_vfprintf_r+0x2050>
   12ece:	02b00693          	addi	a3,zero,43
   12ed2:	0ad102a3          	sb	a3,165(sp)
   12ed6:	46a5                	c.li	a3,9
   12ed8:	00e6d463          	bge	a3,a4,12ee0 <_vfprintf_r+0x54c>
   12edc:	65c0106f          	jal	zero,14538 <_vfprintf_r+0x1ba4>
   12ee0:	0a610693          	addi	a3,sp,166
   12ee4:	03070713          	addi	a4,a4,48
   12ee8:	00e68023          	sb	a4,0(a3)
   12eec:	0318                	c.addi4spn	a4,sp,384
   12eee:	8e99                	c.sub	a3,a4
   12ef0:	0dd68713          	addi	a4,a3,221
   12ef4:	dc3a                	c.swsp	a4,56(sp)
   12ef6:	6aa0106f          	jal	zero,145a0 <_vfprintf_r+0x1c0c>
   12efa:	4582                	c.lwsp	a1,0(sp)
   12efc:	1950                	c.addi4spn	a2,sp,180
   12efe:	854a                	c.mv	a0,s2
   12f00:	c49a                	c.swsp	t1,72(sp)
   12f02:	c0be                	c.swsp	a5,64(sp)
   12f04:	da46                	c.swsp	a7,52(sp)
   12f06:	d83a                	c.swsp	a4,48(sp)
   12f08:	45e040ef          	jal	ra,17366 <__sprint_r>
   12f0c:	020512e3          	bne	a0,zero,13730 <_vfprintf_r+0xd9c>
   12f10:	567a                	c.lwsp	a2,188(sp)
   12f12:	4326                	c.lwsp	t1,72(sp)
   12f14:	4786                	c.lwsp	a5,64(sp)
   12f16:	58d2                	c.lwsp	a7,52(sp)
   12f18:	5742                	c.lwsp	a4,48(sp)
   12f1a:	8b4e                	c.mv	s6,s3
   12f1c:	b925                	c.j	12b54 <_vfprintf_r+0x1c0>
   12f1e:	5aea                	c.lwsp	s5,184(sp)
   12f20:	46e2                	c.lwsp	a3,24(sp)
   12f22:	4705                	c.li	a4,1
   12f24:	963a                	c.add	a2,a4
   12f26:	9aba                	c.add	s5,a4
   12f28:	008b0d93          	addi	s11,s6,8
   12f2c:	2cd758e3          	bge	a4,a3,139fc <_vfprintf_r+0x1068>
   12f30:	4705                	c.li	a4,1
   12f32:	00eb2223          	sw	a4,4(s6)
   12f36:	00fb2023          	sw	a5,0(s6)
   12f3a:	df32                	c.swsp	a2,188(sp)
   12f3c:	dd56                	c.swsp	s5,184(sp)
   12f3e:	471d                	c.li	a4,7
   12f40:	5d5744e3          	blt	a4,s5,13d08 <_vfprintf_r+0x1374>
   12f44:	5712                	c.lwsp	a4,36(sp)
   12f46:	56a2                	c.lwsp	a3,40(sp)
   12f48:	0a85                	c.addi	s5,1 # 3ffe0001 <__BSS_END__+0x3ffb74e9>
   12f4a:	963a                	c.add	a2,a4
   12f4c:	00eda223          	sw	a4,4(s11)
   12f50:	00dda023          	sw	a3,0(s11)
   12f54:	df32                	c.swsp	a2,188(sp)
   12f56:	dd56                	c.swsp	s5,184(sp)
   12f58:	471d                	c.li	a4,7
   12f5a:	0da1                	c.addi	s11,8
   12f5c:	5d5744e3          	blt	a4,s5,13d24 <_vfprintf_r+0x1390>
   12f60:	472e                	c.lwsp	a4,200(sp)
   12f62:	450e                	c.lwsp	a0,192(sp)
   12f64:	459e                	c.lwsp	a1,196(sp)
   12f66:	d03e                	c.swsp	a5,32(sp)
   12f68:	c53a                	c.swsp	a4,136(sp)
   12f6a:	47e2                	c.lwsp	a5,24(sp)
   12f6c:	473e                	c.lwsp	a4,204(sp)
   12f6e:	c12a                	c.swsp	a0,128(sp)
   12f70:	c32e                	c.swsp	a1,132(sp)
   12f72:	0108                	c.addi4spn	a0,sp,128
   12f74:	188c                	c.addi4spn	a1,sp,112
   12f76:	ce32                	c.swsp	a2,28(sp)
   12f78:	d882                	c.swsp	zero,112(sp)
   12f7a:	da82                	c.swsp	zero,116(sp)
   12f7c:	dc82                	c.swsp	zero,120(sp)
   12f7e:	de82                	c.swsp	zero,124(sp)
   12f80:	c73a                	c.swsp	a4,140(sp)
   12f82:	fff78b13          	addi	s6,a5,-1
   12f86:	014100ef          	jal	ra,22f9a <__eqtf2>
   12f8a:	4672                	c.lwsp	a2,28(sp)
   12f8c:	2a0501e3          	beq	a0,zero,13a2e <_vfprintf_r+0x109a>
   12f90:	5782                	c.lwsp	a5,32(sp)
   12f92:	0a85                	c.addi	s5,1
   12f94:	965a                	c.add	a2,s6
   12f96:	0785                	c.addi	a5,1
   12f98:	dd56                	c.swsp	s5,184(sp)
   12f9a:	df32                	c.swsp	a2,188(sp)
   12f9c:	00fda023          	sw	a5,0(s11)
   12fa0:	016da223          	sw	s6,4(s11)
   12fa4:	479d                	c.li	a5,7
   12fa6:	2757c8e3          	blt	a5,s5,13a16 <_vfprintf_r+0x1082>
   12faa:	0da1                	c.addi	s11,8
   12fac:	56e2                	c.lwsp	a3,56(sp)
   12fae:	1158                	c.addi4spn	a4,sp,164
   12fb0:	001a8793          	addi	a5,s5,1
   12fb4:	9636                	c.add	a2,a3
   12fb6:	00eda023          	sw	a4,0(s11)
   12fba:	df32                	c.swsp	a2,188(sp)
   12fbc:	dd3e                	c.swsp	a5,184(sp)
   12fbe:	00dda223          	sw	a3,4(s11)
   12fc2:	471d                	c.li	a4,7
   12fc4:	008d8b13          	addi	s6,s11,8
   12fc8:	bcf75fe3          	bge	a4,a5,12ba6 <_vfprintf_r+0x212>
   12fcc:	4582                	c.lwsp	a1,0(sp)
   12fce:	1950                	c.addi4spn	a2,sp,180
   12fd0:	854a                	c.mv	a0,s2
   12fd2:	394040ef          	jal	ra,17366 <__sprint_r>
   12fd6:	74051d63          	bne	a0,zero,13730 <_vfprintf_r+0xd9c>
   12fda:	567a                	c.lwsp	a2,188(sp)
   12fdc:	8b4e                	c.mv	s6,s3
   12fde:	b6e1                	c.j	12ba6 <_vfprintf_r+0x212>
   12fe0:	4742                	c.lwsp	a4,16(sp)
   12fe2:	080109a3          	sb	zero,147(sp)
   12fe6:	431c                	c.lw	a5,0(a4)
   12fe8:	00470493          	addi	s1,a4,4
   12fec:	42078be3          	beq	a5,zero,13c22 <_vfprintf_r+0x128e>
   12ff0:	4c0acae3          	blt	s5,zero,13cc4 <_vfprintf_r+0x1330>
   12ff4:	853e                	c.mv	a0,a5
   12ff6:	8656                	c.mv	a2,s5
   12ff8:	4581                	c.li	a1,0
   12ffa:	ce46                	c.swsp	a7,28(sp)
   12ffc:	c83e                	c.swsp	a5,16(sp)
   12ffe:	25c050ef          	jal	ra,1825a <memchr>
   13002:	c62a                	c.swsp	a0,12(sp)
   13004:	09314703          	lbu	a4,147(sp)
   13008:	47c2                	c.lwsp	a5,16(sp)
   1300a:	48f2                	c.lwsp	a7,28(sp)
   1300c:	e119                	c.bnez	a0,13012 <_vfprintf_r+0x67e>
   1300e:	7360106f          	jal	zero,14744 <_vfprintf_r+0x1db0>
   13012:	40f50cb3          	sub	s9,a0,a5
   13016:	fffcc693          	xori	a3,s9,-1
   1301a:	86fd                	c.srai	a3,0x1f
   1301c:	00dcfc33          	and	s8,s9,a3
   13020:	4c0713e3          	bne	a4,zero,13ce6 <_vfprintf_r+0x1352>
   13024:	c826                	c.swsp	s1,16(sp)
   13026:	567a                	c.lwsp	a2,188(sp)
   13028:	c602                	c.swsp	zero,12(sp)
   1302a:	d002                	c.swsp	zero,32(sp)
   1302c:	ce02                	c.swsp	zero,28(sp)
   1302e:	084bfd93          	andi	s11,s7,132
   13032:	4a81                	c.li	s5,0
   13034:	4301                	c.li	t1,0
   13036:	8832                	c.mv	a6,a2
   13038:	ae0d9ae3          	bne	s11,zero,12b2c <_vfprintf_r+0x198>
   1303c:	4712                	c.lwsp	a4,4(sp)
   1303e:	41870733          	sub	a4,a4,s8
   13042:	1ae042e3          	blt	zero,a4,139e6 <_vfprintf_r+0x1052>
   13046:	09314703          	lbu	a4,147(sp)
   1304a:	ae0714e3          	bne	a4,zero,12b32 <_vfprintf_r+0x19e>
   1304e:	419a8ab3          	sub	s5,s5,s9
   13052:	b35059e3          	bge	zero,s5,12b84 <_vfprintf_r+0x1f0>
   13056:	00027837          	lui	a6,0x27
   1305a:	55ea                	c.lwsp	a1,184(sp)
   1305c:	f9080813          	addi	a6,a6,-112 # 26f90 <zeroes.0>
   13060:	05545a63          	bge	s0,s5,130b4 <_vfprintf_r+0x720>
   13064:	84d6                	c.mv	s1,s5
   13066:	da3e                	c.swsp	a5,52(sp)
   13068:	4d9d                	c.li	s11,7
   1306a:	87da                	c.mv	a5,s6
   1306c:	d846                	c.swsp	a7,48(sp)
   1306e:	8a9a                	c.mv	s5,t1
   13070:	8b52                	c.mv	s6,s4
   13072:	a021                	c.j	1307a <_vfprintf_r+0x6e6>
   13074:	14c1                	c.addi	s1,-16
   13076:	02945963          	bge	s0,s1,130a8 <_vfprintf_r+0x714>
   1307a:	0641                	c.addi	a2,16
   1307c:	0585                	c.addi	a1,1
   1307e:	0147a023          	sw	s4,0(a5)
   13082:	c3c0                	c.sw	s0,4(a5)
   13084:	df32                	c.swsp	a2,188(sp)
   13086:	dd2e                	c.swsp	a1,184(sp)
   13088:	07a1                	c.addi	a5,8
   1308a:	febdd5e3          	bge	s11,a1,13074 <_vfprintf_r+0x6e0>
   1308e:	4582                	c.lwsp	a1,0(sp)
   13090:	1950                	c.addi4spn	a2,sp,180
   13092:	854a                	c.mv	a0,s2
   13094:	2d2040ef          	jal	ra,17366 <__sprint_r>
   13098:	68051c63          	bne	a0,zero,13730 <_vfprintf_r+0xd9c>
   1309c:	14c1                	c.addi	s1,-16
   1309e:	567a                	c.lwsp	a2,188(sp)
   130a0:	55ea                	c.lwsp	a1,184(sp)
   130a2:	87ce                	c.mv	a5,s3
   130a4:	fc944be3          	blt	s0,s1,1307a <_vfprintf_r+0x6e6>
   130a8:	885a                	c.mv	a6,s6
   130aa:	58c2                	c.lwsp	a7,48(sp)
   130ac:	8b3e                	c.mv	s6,a5
   130ae:	57d2                	c.lwsp	a5,52(sp)
   130b0:	8356                	c.mv	t1,s5
   130b2:	8aa6                	c.mv	s5,s1
   130b4:	9656                	c.add	a2,s5
   130b6:	0585                	c.addi	a1,1
   130b8:	010b2023          	sw	a6,0(s6)
   130bc:	015b2223          	sw	s5,4(s6)
   130c0:	df32                	c.swsp	a2,188(sp)
   130c2:	dd2e                	c.swsp	a1,184(sp)
   130c4:	471d                	c.li	a4,7
   130c6:	0b21                	c.addi	s6,8
   130c8:	aab75ee3          	bge	a4,a1,12b84 <_vfprintf_r+0x1f0>
   130cc:	4582                	c.lwsp	a1,0(sp)
   130ce:	1950                	c.addi4spn	a2,sp,180
   130d0:	854a                	c.mv	a0,s2
   130d2:	c09a                	c.swsp	t1,64(sp)
   130d4:	da3e                	c.swsp	a5,52(sp)
   130d6:	d846                	c.swsp	a7,48(sp)
   130d8:	28e040ef          	jal	ra,17366 <__sprint_r>
   130dc:	64051a63          	bne	a0,zero,13730 <_vfprintf_r+0xd9c>
   130e0:	100bf713          	andi	a4,s7,256
   130e4:	567a                	c.lwsp	a2,188(sp)
   130e6:	4306                	c.lwsp	t1,64(sp)
   130e8:	57d2                	c.lwsp	a5,52(sp)
   130ea:	58c2                	c.lwsp	a7,48(sp)
   130ec:	8b4e                	c.mv	s6,s3
   130ee:	a8070fe3          	beq	a4,zero,12b8c <_vfprintf_r+0x1f8>
   130f2:	06500713          	addi	a4,zero,101
   130f6:	e31754e3          	bge	a4,a7,12f1e <_vfprintf_r+0x58a>
   130fa:	471e                	c.lwsp	a4,196(sp)
   130fc:	458e                	c.lwsp	a1,192(sp)
   130fe:	452e                	c.lwsp	a0,200(sp)
   13100:	c33a                	c.swsp	a4,132(sp)
   13102:	473e                	c.lwsp	a4,204(sp)
   13104:	c12e                	c.swsp	a1,128(sp)
   13106:	c52a                	c.swsp	a0,136(sp)
   13108:	188c                	c.addi4spn	a1,sp,112
   1310a:	0108                	c.addi4spn	a0,sp,128
   1310c:	da32                	c.swsp	a2,52(sp)
   1310e:	d83e                	c.swsp	a5,48(sp)
   13110:	c09a                	c.swsp	t1,64(sp)
   13112:	d882                	c.swsp	zero,112(sp)
   13114:	da82                	c.swsp	zero,116(sp)
   13116:	dc82                	c.swsp	zero,120(sp)
   13118:	de82                	c.swsp	zero,124(sp)
   1311a:	c73a                	c.swsp	a4,140(sp)
   1311c:	67f0f0ef          	jal	ra,22f9a <__eqtf2>
   13120:	57c2                	c.lwsp	a5,48(sp)
   13122:	5652                	c.lwsp	a2,52(sp)
   13124:	4306                	c.lwsp	t1,64(sp)
   13126:	74051d63          	bne	a0,zero,13880 <_vfprintf_r+0xeec>
   1312a:	57ea                	c.lwsp	a5,184(sp)
   1312c:	00027737          	lui	a4,0x27
   13130:	c7870713          	addi	a4,a4,-904 # 26c78 <__exp_data+0x8b0>
   13134:	00eb2023          	sw	a4,0(s6)
   13138:	0605                	c.addi	a2,1
   1313a:	4705                	c.li	a4,1
   1313c:	0785                	c.addi	a5,1
   1313e:	00eb2223          	sw	a4,4(s6)
   13142:	df32                	c.swsp	a2,188(sp)
   13144:	dd3e                	c.swsp	a5,184(sp)
   13146:	471d                	c.li	a4,7
   13148:	0b21                	c.addi	s6,8
   1314a:	4cf74ce3          	blt	a4,a5,13e22 <_vfprintf_r+0x148e>
   1314e:	47ea                	c.lwsp	a5,152(sp)
   13150:	4762                	c.lwsp	a4,24(sp)
   13152:	12e7d8e3          	bge	a5,a4,13a82 <_vfprintf_r+0x10ee>
   13156:	5712                	c.lwsp	a4,36(sp)
   13158:	57ea                	c.lwsp	a5,184(sp)
   1315a:	56a2                	c.lwsp	a3,40(sp)
   1315c:	963a                	c.add	a2,a4
   1315e:	0785                	c.addi	a5,1
   13160:	00eb2223          	sw	a4,4(s6)
   13164:	00db2023          	sw	a3,0(s6)
   13168:	df32                	c.swsp	a2,188(sp)
   1316a:	dd3e                	c.swsp	a5,184(sp)
   1316c:	471d                	c.li	a4,7
   1316e:	0b21                	c.addi	s6,8
   13170:	24f744e3          	blt	a4,a5,13bb8 <_vfprintf_r+0x1224>
   13174:	47e2                	c.lwsp	a5,24(sp)
   13176:	fff78a93          	addi	s5,a5,-1
   1317a:	a35056e3          	bge	zero,s5,12ba6 <_vfprintf_r+0x212>
   1317e:	00027837          	lui	a6,0x27
   13182:	4cc1                	c.li	s9,16
   13184:	57ea                	c.lwsp	a5,184(sp)
   13186:	4d9d                	c.li	s11,7
   13188:	f9080493          	addi	s1,a6,-112 # 26f90 <zeroes.0>
   1318c:	015cc663          	blt	s9,s5,13198 <_vfprintf_r+0x804>
   13190:	af75                	c.j	1394c <_vfprintf_r+0xfb8>
   13192:	1ac1                	c.addi	s5,-16
   13194:	4d5cd8e3          	bge	s9,s5,13e64 <_vfprintf_r+0x14d0>
   13198:	0641                	c.addi	a2,16
   1319a:	0785                	c.addi	a5,1
   1319c:	009b2023          	sw	s1,0(s6)
   131a0:	019b2223          	sw	s9,4(s6)
   131a4:	df32                	c.swsp	a2,188(sp)
   131a6:	dd3e                	c.swsp	a5,184(sp)
   131a8:	0b21                	c.addi	s6,8
   131aa:	fefdd4e3          	bge	s11,a5,13192 <_vfprintf_r+0x7fe>
   131ae:	4582                	c.lwsp	a1,0(sp)
   131b0:	1950                	c.addi4spn	a2,sp,180
   131b2:	854a                	c.mv	a0,s2
   131b4:	1b2040ef          	jal	ra,17366 <__sprint_r>
   131b8:	56051c63          	bne	a0,zero,13730 <_vfprintf_r+0xd9c>
   131bc:	567a                	c.lwsp	a2,188(sp)
   131be:	57ea                	c.lwsp	a5,184(sp)
   131c0:	8b4e                	c.mv	s6,s3
   131c2:	bfc1                	c.j	13192 <_vfprintf_r+0x7fe>
   131c4:	020bf793          	andi	a5,s7,32
   131c8:	e3d5                	c.bnez	a5,1326c <_vfprintf_r+0x8d8>
   131ca:	47c2                	c.lwsp	a5,16(sp)
   131cc:	010bf713          	andi	a4,s7,16
   131d0:	0791                	c.addi	a5,4
   131d2:	c319                	c.beqz	a4,131d8 <_vfprintf_r+0x844>
   131d4:	6160106f          	jal	zero,147ea <_vfprintf_r+0x1e56>
   131d8:	46c2                	c.lwsp	a3,16(sp)
   131da:	040bf713          	andi	a4,s7,64
   131de:	0006ac03          	lw	s8,0(a3)
   131e2:	580703e3          	beq	a4,zero,13f68 <_vfprintf_r+0x15d4>
   131e6:	0c42                	c.slli	s8,0x10
   131e8:	410c5c13          	srai	s8,s8,0x10
   131ec:	41fc5e93          	srai	t4,s8,0x1f
   131f0:	c83e                	c.swsp	a5,16(sp)
   131f2:	8776                	c.mv	a4,t4
   131f4:	08074863          	blt	a4,zero,13284 <_vfprintf_r+0x8f0>
   131f8:	0a0ac663          	blt	s5,zero,132a4 <_vfprintf_r+0x910>
   131fc:	01dc67b3          	or	a5,s8,t4
   13200:	f7fbfb93          	andi	s7,s7,-129
   13204:	e3c5                	c.bnez	a5,132a4 <_vfprintf_r+0x910>
   13206:	080a9f63          	bne	s5,zero,132a4 <_vfprintf_r+0x910>
   1320a:	09314e83          	lbu	t4,147(sp)
   1320e:	560e8ae3          	beq	t4,zero,13f82 <_vfprintf_r+0x15ee>
   13212:	4c01                	c.li	s8,0
   13214:	4301                	c.li	t1,0
   13216:	c602                	c.swsp	zero,12(sp)
   13218:	4c81                	c.li	s9,0
   1321a:	4a81                	c.li	s5,0
   1321c:	031c                	c.addi4spn	a5,sp,384
   1321e:	0c05                	c.addi	s8,1
   13220:	00031463          	bne	t1,zero,13228 <_vfprintf_r+0x894>
   13224:	0750106f          	jal	zero,14a98 <_vfprintf_r+0x2104>
   13228:	567a                	c.lwsp	a2,188(sp)
   1322a:	55ea                	c.lwsp	a1,184(sp)
   1322c:	084bfd93          	andi	s11,s7,132
   13230:	0c09                	c.addi	s8,2
   13232:	8832                	c.mv	a6,a2
   13234:	852e                	c.mv	a0,a1
   13236:	540d8663          	beq	s11,zero,13782 <_vfprintf_r+0xdee>
   1323a:	d002                	c.swsp	zero,32(sp)
   1323c:	ce02                	c.swsp	zero,28(sp)
   1323e:	4301                	c.li	t1,0
   13240:	900e8ce3          	beq	t4,zero,12b58 <_vfprintf_r+0x1c4>
   13244:	4709                	c.li	a4,2
   13246:	b8c5                	c.j	12b36 <_vfprintf_r+0x1a2>
   13248:	4742                	c.lwsp	a4,16(sp)
   1324a:	4c85                	c.li	s9,1
   1324c:	080109a3          	sb	zero,147(sp)
   13250:	431c                	c.lw	a5,0(a4)
   13252:	10f10e23          	sb	a5,284(sp)
   13256:	00470793          	addi	a5,a4,4
   1325a:	c83e                	c.swsp	a5,16(sp)
   1325c:	b85d                	c.j	12b12 <_vfprintf_r+0x17e>
   1325e:	020bf793          	andi	a5,s7,32
   13262:	010bee13          	ori	t3,s7,16
   13266:	080789e3          	beq	a5,zero,13af8 <_vfprintf_r+0x1164>
   1326a:	8bf2                	c.mv	s7,t3
   1326c:	47c2                	c.lwsp	a5,16(sp)
   1326e:	079d                	c.addi	a5,7
   13270:	9be1                	c.andi	a5,-8
   13272:	43d8                	c.lw	a4,4(a5)
   13274:	00878693          	addi	a3,a5,8
   13278:	c836                	c.swsp	a3,16(sp)
   1327a:	0007ac03          	lw	s8,0(a5)
   1327e:	8eba                	c.mv	t4,a4
   13280:	f6075ce3          	bge	a4,zero,131f8 <_vfprintf_r+0x864>
   13284:	018037b3          	sltu	a5,zero,s8
   13288:	41d00eb3          	sub	t4,zero,t4
   1328c:	40fe8eb3          	sub	t4,t4,a5
   13290:	02d00793          	addi	a5,zero,45
   13294:	08f109a3          	sb	a5,147(sp)
   13298:	41800c33          	sub	s8,zero,s8
   1329c:	000ac463          	blt	s5,zero,132a4 <_vfprintf_r+0x910>
   132a0:	f7fbfb93          	andi	s7,s7,-129
   132a4:	200e9563          	bne	t4,zero,134ae <_vfprintf_r+0xb1a>
   132a8:	47a5                	c.li	a5,9
   132aa:	2187e263          	bltu	a5,s8,134ae <_vfprintf_r+0xb1a>
   132ae:	030c0c13          	addi	s8,s8,48
   132b2:	17810fa3          	sb	s8,383(sp)
   132b6:	8c56                	c.mv	s8,s5
   132b8:	075058e3          	bge	zero,s5,13b28 <_vfprintf_r+0x1194>
   132bc:	09314e83          	lbu	t4,147(sp)
   132c0:	4301                	c.li	t1,0
   132c2:	4c85                	c.li	s9,1
   132c4:	17f10793          	addi	a5,sp,383
   132c8:	c602                	c.swsp	zero,12(sp)
   132ca:	f40e8be3          	beq	t4,zero,13220 <_vfprintf_r+0x88c>
   132ce:	0c05                	c.addi	s8,1
   132d0:	bf81                	c.j	13220 <_vfprintf_r+0x88c>
   132d2:	4742                	c.lwsp	a4,16(sp)
   132d4:	431c                	c.lw	a5,0(a4)
   132d6:	c23e                	c.swsp	a5,4(sp)
   132d8:	7a07db63          	bge	a5,zero,13a8e <_vfprintf_r+0x10fa>
   132dc:	4792                	c.lwsp	a5,4(sp)
   132de:	40f007b3          	sub	a5,zero,a5
   132e2:	c23e                	c.swsp	a5,4(sp)
   132e4:	47c2                	c.lwsp	a5,16(sp)
   132e6:	0791                	c.addi	a5,4
   132e8:	c83e                	c.swsp	a5,16(sp)
   132ea:	000d4883          	lbu	a7,0(s10)
   132ee:	004beb93          	ori	s7,s7,4
   132f2:	fceff06f          	jal	zero,12ac0 <_vfprintf_r+0x12c>
   132f6:	02b00793          	addi	a5,zero,43
   132fa:	000d4883          	lbu	a7,0(s10)
   132fe:	08f109a3          	sb	a5,147(sp)
   13302:	fbeff06f          	jal	zero,12ac0 <_vfprintf_r+0x12c>
   13306:	000d4883          	lbu	a7,0(s10)
   1330a:	080beb93          	ori	s7,s7,128
   1330e:	fb2ff06f          	jal	zero,12ac0 <_vfprintf_r+0x12c>
   13312:	000d4883          	lbu	a7,0(s10)
   13316:	02a00793          	addi	a5,zero,42
   1331a:	001d0693          	addi	a3,s10,1
   1331e:	00f89463          	bne	a7,a5,13326 <_vfprintf_r+0x992>
   13322:	6e60106f          	jal	zero,14a08 <_vfprintf_r+0x2074>
   13326:	fd088793          	addi	a5,a7,-48
   1332a:	4625                	c.li	a2,9
   1332c:	4a81                	c.li	s5,0
   1332e:	02f66063          	bltu	a2,a5,1334e <_vfprintf_r+0x9ba>
   13332:	002a9713          	slli	a4,s5,0x2
   13336:	0006c883          	lbu	a7,0(a3)
   1333a:	9aba                	c.add	s5,a4
   1333c:	0a86                	c.slli	s5,0x1
   1333e:	9abe                	c.add	s5,a5
   13340:	fd088793          	addi	a5,a7,-48
   13344:	0685                	c.addi	a3,1
   13346:	fef676e3          	bgeu	a2,a5,13332 <_vfprintf_r+0x99e>
   1334a:	040ac5e3          	blt	s5,zero,13b94 <_vfprintf_r+0x1200>
   1334e:	8d36                	c.mv	s10,a3
   13350:	f72ff06f          	jal	zero,12ac2 <_vfprintf_r+0x12e>
   13354:	854a                	c.mv	a0,s2
   13356:	0aa050ef          	jal	ra,18400 <_localeconv_r>
   1335a:	415c                	c.lw	a5,4(a0)
   1335c:	853e                	c.mv	a0,a5
   1335e:	de3e                	c.swsp	a5,60(sp)
   13360:	312050ef          	jal	ra,18672 <strlen>
   13364:	84aa                	c.mv	s1,a0
   13366:	854a                	c.mv	a0,s2
   13368:	c2a6                	c.swsp	s1,68(sp)
   1336a:	096050ef          	jal	ra,18400 <_localeconv_r>
   1336e:	4518                	c.lw	a4,8(a0)
   13370:	000d4883          	lbu	a7,0(s10)
   13374:	d63a                	c.swsp	a4,44(sp)
   13376:	f4048563          	beq	s1,zero,12ac0 <_vfprintf_r+0x12c>
   1337a:	f4070363          	beq	a4,zero,12ac0 <_vfprintf_r+0x12c>
   1337e:	00074783          	lbu	a5,0(a4)
   13382:	f2078f63          	beq	a5,zero,12ac0 <_vfprintf_r+0x12c>
   13386:	400beb93          	ori	s7,s7,1024
   1338a:	f36ff06f          	jal	zero,12ac0 <_vfprintf_r+0x12c>
   1338e:	000d4883          	lbu	a7,0(s10)
   13392:	001beb93          	ori	s7,s7,1
   13396:	f2aff06f          	jal	zero,12ac0 <_vfprintf_r+0x12c>
   1339a:	09314783          	lbu	a5,147(sp)
   1339e:	000d4883          	lbu	a7,0(s10)
   133a2:	f0079f63          	bne	a5,zero,12ac0 <_vfprintf_r+0x12c>
   133a6:	02000793          	addi	a5,zero,32
   133aa:	08f109a3          	sb	a5,147(sp)
   133ae:	f12ff06f          	jal	zero,12ac0 <_vfprintf_r+0x12c>
   133b2:	020bf793          	andi	a5,s7,32
   133b6:	010be693          	ori	a3,s7,16
   133ba:	70078f63          	beq	a5,zero,13ad8 <_vfprintf_r+0x1144>
   133be:	47c2                	c.lwsp	a5,16(sp)
   133c0:	079d                	c.addi	a5,7
   133c2:	9be1                	c.andi	a5,-8
   133c4:	00878713          	addi	a4,a5,8
   133c8:	c83a                	c.swsp	a4,16(sp)
   133ca:	43d0                	c.lw	a2,4(a5)
   133cc:	4398                	c.lw	a4,0(a5)
   133ce:	080109a3          	sb	zero,147(sp)
   133d2:	bff6fb93          	andi	s7,a3,-1025
   133d6:	460ac163          	blt	s5,zero,13838 <_vfprintf_r+0xea4>
   133da:	00c767b3          	or	a5,a4,a2
   133de:	b7f6fb93          	andi	s7,a3,-1153
   133e2:	44079b63          	bne	a5,zero,13838 <_vfprintf_r+0xea4>
   133e6:	440a9963          	bne	s5,zero,13838 <_vfprintf_r+0xea4>
   133ea:	0016fc13          	andi	s8,a3,1
   133ee:	5e0c0e63          	beq	s8,zero,139ea <_vfprintf_r+0x1056>
   133f2:	03000793          	addi	a5,zero,48
   133f6:	16f10fa3          	sb	a5,383(sp)
   133fa:	8ce2                	c.mv	s9,s8
   133fc:	c602                	c.swsp	zero,12(sp)
   133fe:	d002                	c.swsp	zero,32(sp)
   13400:	ce02                	c.swsp	zero,28(sp)
   13402:	4301                	c.li	t1,0
   13404:	17f10793          	addi	a5,sp,383
   13408:	f18ff06f          	jal	zero,12b20 <_vfprintf_r+0x18c>
   1340c:	000d4883          	lbu	a7,0(s10)
   13410:	06800793          	addi	a5,zero,104
   13414:	78f88b63          	beq	a7,a5,13baa <_vfprintf_r+0x1216>
   13418:	040beb93          	ori	s7,s7,64
   1341c:	ea4ff06f          	jal	zero,12ac0 <_vfprintf_r+0x12c>
   13420:	46c2                	c.lwsp	a3,16(sp)
   13422:	020bf793          	andi	a5,s7,32
   13426:	00468713          	addi	a4,a3,4
   1342a:	6a079e63          	bne	a5,zero,13ae6 <_vfprintf_r+0x1152>
   1342e:	010bf793          	andi	a5,s7,16
   13432:	28079ee3          	bne	a5,zero,13ece <_vfprintf_r+0x153a>
   13436:	040bf793          	andi	a5,s7,64
   1343a:	5e0791e3          	bne	a5,zero,1421c <_vfprintf_r+0x1888>
   1343e:	200bfe13          	andi	t3,s7,512
   13442:	280e06e3          	beq	t3,zero,13ece <_vfprintf_r+0x153a>
   13446:	47c2                	c.lwsp	a5,16(sp)
   13448:	46a2                	c.lwsp	a3,8(sp)
   1344a:	c83a                	c.swsp	a4,16(sp)
   1344c:	439c                	c.lw	a5,0(a5)
   1344e:	00d78023          	sb	a3,0(a5)
   13452:	e06ff06f          	jal	zero,12a58 <_vfprintf_r+0xc4>
   13456:	000d4883          	lbu	a7,0(s10)
   1345a:	06c00793          	addi	a5,zero,108
   1345e:	72f88f63          	beq	a7,a5,13b9c <_vfprintf_r+0x1208>
   13462:	010beb93          	ori	s7,s7,16
   13466:	e5aff06f          	jal	zero,12ac0 <_vfprintf_r+0x12c>
   1346a:	020bf793          	andi	a5,s7,32
   1346e:	1a079f63          	bne	a5,zero,1362c <_vfprintf_r+0xc98>
   13472:	010bf793          	andi	a5,s7,16
   13476:	c399                	c.beqz	a5,1347c <_vfprintf_r+0xae8>
   13478:	36c0106f          	jal	zero,147e4 <_vfprintf_r+0x1e50>
   1347c:	4742                	c.lwsp	a4,16(sp)
   1347e:	040bf793          	andi	a5,s7,64
   13482:	00072c03          	lw	s8,0(a4)
   13486:	0711                	c.addi	a4,4
   13488:	c83a                	c.swsp	a4,16(sp)
   1348a:	2a078ee3          	beq	a5,zero,13f46 <_vfprintf_r+0x15b2>
   1348e:	0c42                	c.slli	s8,0x10
   13490:	080109a3          	sb	zero,147(sp)
   13494:	010c5c13          	srli	s8,s8,0x10
   13498:	4e81                	c.li	t4,0
   1349a:	e00ac5e3          	blt	s5,zero,132a4 <_vfprintf_r+0x910>
   1349e:	018ae333          	or	t1,s5,s8
   134a2:	f7fbfb93          	andi	s7,s7,-129
   134a6:	10030c63          	beq	t1,zero,135be <_vfprintf_r+0xc2a>
   134aa:	de0e8fe3          	beq	t4,zero,132a8 <_vfprintf_r+0x914>
   134ae:	ccccdcb7          	lui	s9,0xccccd
   134b2:	ccccddb7          	lui	s11,0xccccd
   134b6:	ccdc8c93          	addi	s9,s9,-819 # cccccccd <__BSS_END__+0xccca41b5>
   134ba:	cccd8d93          	addi	s11,s11,-820 # cccccccc <__BSS_END__+0xccca41b4>
   134be:	400bf813          	andi	a6,s7,1024
   134c2:	4581                	c.li	a1,0
   134c4:	0310                	c.addi4spn	a2,sp,384
   134c6:	84c6                	c.mv	s1,a7
   134c8:	a095                	c.j	1352c <_vfprintf_r+0xb98>
   134ca:	5732                	c.lwsp	a4,44(sp)
   134cc:	00074703          	lbu	a4,0(a4)
   134d0:	f0170693          	addi	a3,a4,-255
   134d4:	c299                	c.beqz	a3,134da <_vfprintf_r+0xb46>
   134d6:	16b703e3          	beq	a4,a1,13e3c <_vfprintf_r+0x14a8>
   134da:	8362                	c.mv	t1,s8
   134dc:	8576                	c.mv	a0,t4
   134de:	863e                	c.mv	a2,a5
   134e0:	01dc0733          	add	a4,s8,t4
   134e4:	018736b3          	sltu	a3,a4,s8
   134e8:	9736                	c.add	a4,a3
   134ea:	039736b3          	mulhu	a3,a4,s9
   134ee:	0026de13          	srli	t3,a3,0x2
   134f2:	9af1                	c.andi	a3,-4
   134f4:	96f2                	c.add	a3,t3
   134f6:	8f15                	c.sub	a4,a3
   134f8:	40ec0733          	sub	a4,s8,a4
   134fc:	00ec36b3          	sltu	a3,s8,a4
   13500:	40de86b3          	sub	a3,t4,a3
   13504:	039686b3          	mul	a3,a3,s9
   13508:	03b70eb3          	mul	t4,a4,s11
   1350c:	03973e33          	mulhu	t3,a4,s9
   13510:	96f6                	c.add	a3,t4
   13512:	03970733          	mul	a4,a4,s9
   13516:	96f2                	c.add	a3,t3
   13518:	01f69e13          	slli	t3,a3,0x1f
   1351c:	0016de93          	srli	t4,a3,0x1
   13520:	8305                	c.srli	a4,0x1
   13522:	00ee0c33          	add	s8,t3,a4
   13526:	e119                	c.bnez	a0,1352c <_vfprintf_r+0xb98>
   13528:	20e0106f          	jal	zero,14736 <_vfprintf_r+0x1da2>
   1352c:	01dc0733          	add	a4,s8,t4
   13530:	018736b3          	sltu	a3,a4,s8
   13534:	96ba                	c.add	a3,a4
   13536:	0396b533          	mulhu	a0,a3,s9
   1353a:	0585                	c.addi	a1,1
   1353c:	fff60793          	addi	a5,a2,-1
   13540:	00255313          	srli	t1,a0,0x2
   13544:	9971                	c.andi	a0,-4
   13546:	951a                	c.add	a0,t1
   13548:	8e89                	c.sub	a3,a0
   1354a:	40dc06b3          	sub	a3,s8,a3
   1354e:	00dc3533          	sltu	a0,s8,a3
   13552:	40ae8533          	sub	a0,t4,a0
   13556:	0396b333          	mulhu	t1,a3,s9
   1355a:	03950533          	mul	a0,a0,s9
   1355e:	039686b3          	mul	a3,a3,s9
   13562:	951a                	c.add	a0,t1
   13564:	057e                	c.slli	a0,0x1f
   13566:	8285                	c.srli	a3,0x1
   13568:	96aa                	c.add	a3,a0
   1356a:	00269513          	slli	a0,a3,0x2
   1356e:	96aa                	c.add	a3,a0
   13570:	0686                	c.slli	a3,0x1
   13572:	40dc06b3          	sub	a3,s8,a3
   13576:	03068693          	addi	a3,a3,48
   1357a:	fed60fa3          	sb	a3,-1(a2)
   1357e:	f40816e3          	bne	a6,zero,134ca <_vfprintf_r+0xb36>
   13582:	8362                	c.mv	t1,s8
   13584:	8576                	c.mv	a0,t4
   13586:	863e                	c.mv	a2,a5
   13588:	bfb1                	c.j	134e4 <_vfprintf_r+0xb50>
   1358a:	4742                	c.lwsp	a4,16(sp)
   1358c:	67a1                	c.lui	a5,0x8
   1358e:	83078793          	addi	a5,a5,-2000 # 7830 <exit-0x8884>
   13592:	08f11a23          	sh	a5,148(sp)
   13596:	080109a3          	sb	zero,147(sp)
   1359a:	00470793          	addi	a5,a4,4
   1359e:	4601                	c.li	a2,0
   135a0:	4318                	c.lw	a4,0(a4)
   135a2:	580acf63          	blt	s5,zero,13b40 <_vfprintf_r+0x11ac>
   135a6:	f7fbfe13          	andi	t3,s7,-129
   135aa:	002e6b93          	ori	s7,t3,2
   135ae:	120a97e3          	bne	s5,zero,13edc <_vfprintf_r+0x1548>
   135b2:	120715e3          	bne	a4,zero,13edc <_vfprintf_r+0x1548>
   135b6:	c83e                	c.swsp	a5,16(sp)
   135b8:	4309                	c.li	t1,2
   135ba:	07800893          	addi	a7,zero,120
   135be:	09314e83          	lbu	t4,147(sp)
   135c2:	4a81                	c.li	s5,0
   135c4:	4c01                	c.li	s8,0
   135c6:	4c81                	c.li	s9,0
   135c8:	031c                	c.addi4spn	a5,sp,384
   135ca:	c602                	c.swsp	zero,12(sp)
   135cc:	b9fd                	c.j	132ca <_vfprintf_r+0x936>
   135ce:	020bf793          	andi	a5,s7,32
   135d2:	54079963          	bne	a5,zero,13b24 <_vfprintf_r+0x1190>
   135d6:	47c2                	c.lwsp	a5,16(sp)
   135d8:	010bf713          	andi	a4,s7,16
   135dc:	0791                	c.addi	a5,4
   135de:	c319                	c.beqz	a4,135e4 <_vfprintf_r+0xc50>
   135e0:	1f60106f          	jal	zero,147d6 <_vfprintf_r+0x1e42>
   135e4:	4742                	c.lwsp	a4,16(sp)
   135e6:	040bf693          	andi	a3,s7,64
   135ea:	4318                	c.lw	a4,0(a4)
   135ec:	140682e3          	beq	a3,zero,13f30 <_vfprintf_r+0x159c>
   135f0:	0742                	c.slli	a4,0x10
   135f2:	8341                	c.srli	a4,0x10
   135f4:	c83e                	c.swsp	a5,16(sp)
   135f6:	86de                	c.mv	a3,s7
   135f8:	4601                	c.li	a2,0
   135fa:	bbd1                	c.j	133ce <_vfprintf_r+0xa3a>
   135fc:	020bf793          	andi	a5,s7,32
   13600:	010bee13          	ori	t3,s7,16
   13604:	e78d                	c.bnez	a5,1362e <_vfprintf_r+0xc9a>
   13606:	4742                	c.lwsp	a4,16(sp)
   13608:	080109a3          	sb	zero,147(sp)
   1360c:	4e81                	c.li	t4,0
   1360e:	00072c03          	lw	s8,0(a4)
   13612:	00470793          	addi	a5,a4,4
   13616:	1e0ac0e3          	blt	s5,zero,13ff6 <_vfprintf_r+0x1662>
   1361a:	c83e                	c.swsp	a5,16(sp)
   1361c:	f7fe7b93          	andi	s7,t3,-129
   13620:	c80c14e3          	bne	s8,zero,132a8 <_vfprintf_r+0x914>
   13624:	c80a92e3          	bne	s5,zero,132a8 <_vfprintf_r+0x914>
   13628:	4301                	c.li	t1,0
   1362a:	bf51                	c.j	135be <_vfprintf_r+0xc2a>
   1362c:	8e5e                	c.mv	t3,s7
   1362e:	47c2                	c.lwsp	a5,16(sp)
   13630:	080109a3          	sb	zero,147(sp)
   13634:	079d                	c.addi	a5,7
   13636:	9be1                	c.andi	a5,-8
   13638:	00878713          	addi	a4,a5,8
   1363c:	c83a                	c.swsp	a4,16(sp)
   1363e:	0007ac03          	lw	s8,0(a5)
   13642:	0047ae83          	lw	t4,4(a5)
   13646:	4e0aca63          	blt	s5,zero,13b3a <_vfprintf_r+0x11a6>
   1364a:	f7fe7b93          	andi	s7,t3,-129
   1364e:	c40a9be3          	bne	s5,zero,132a4 <_vfprintf_r+0x910>
   13652:	01dc67b3          	or	a5,s8,t4
   13656:	c40797e3          	bne	a5,zero,132a4 <_vfprintf_r+0x910>
   1365a:	4301                	c.li	t1,0
   1365c:	b78d                	c.j	135be <_vfprintf_r+0xc2a>
   1365e:	000d4883          	lbu	a7,0(s10)
   13662:	008beb93          	ori	s7,s7,8
   13666:	c5aff06f          	jal	zero,12ac0 <_vfprintf_r+0x12c>
   1366a:	4712                	c.lwsp	a4,4(sp)
   1366c:	41870db3          	sub	s11,a4,s8
   13670:	d1b05663          	bge	zero,s11,12b7c <_vfprintf_r+0x1e8>
   13674:	4ec1                	c.li	t4,16
   13676:	55ea                	c.lwsp	a1,184(sp)
   13678:	00027837          	lui	a6,0x27
   1367c:	01bec463          	blt	t4,s11,13684 <_vfprintf_r+0xcf0>
   13680:	1b80106f          	jal	zero,14838 <_vfprintf_r+0x1ea4>
   13684:	84ee                	c.mv	s1,s11
   13686:	da3e                	c.swsp	a5,52(sp)
   13688:	8dea                	c.mv	s11,s10
   1368a:	87da                	c.mv	a5,s6
   1368c:	8d66                	c.mv	s10,s9
   1368e:	429d                	c.li	t0,7
   13690:	8ce2                	c.mv	s9,s8
   13692:	d846                	c.swsp	a7,48(sp)
   13694:	8c56                	c.mv	s8,s5
   13696:	8b1a                	c.mv	s6,t1
   13698:	f9080a93          	addi	s5,a6,-112 # 26f90 <zeroes.0>
   1369c:	a021                	c.j	136a4 <_vfprintf_r+0xd10>
   1369e:	14c1                	c.addi	s1,-16
   136a0:	029edb63          	bge	t4,s1,136d6 <_vfprintf_r+0xd42>
   136a4:	0641                	c.addi	a2,16
   136a6:	0585                	c.addi	a1,1
   136a8:	0157a023          	sw	s5,0(a5)
   136ac:	01d7a223          	sw	t4,4(a5)
   136b0:	df32                	c.swsp	a2,188(sp)
   136b2:	dd2e                	c.swsp	a1,184(sp)
   136b4:	07a1                	c.addi	a5,8
   136b6:	feb2d4e3          	bge	t0,a1,1369e <_vfprintf_r+0xd0a>
   136ba:	4582                	c.lwsp	a1,0(sp)
   136bc:	1950                	c.addi4spn	a2,sp,180
   136be:	854a                	c.mv	a0,s2
   136c0:	4a7030ef          	jal	ra,17366 <__sprint_r>
   136c4:	e535                	c.bnez	a0,13730 <_vfprintf_r+0xd9c>
   136c6:	4ec1                	c.li	t4,16
   136c8:	14c1                	c.addi	s1,-16
   136ca:	567a                	c.lwsp	a2,188(sp)
   136cc:	55ea                	c.lwsp	a1,184(sp)
   136ce:	87ce                	c.mv	a5,s3
   136d0:	429d                	c.li	t0,7
   136d2:	fc9ec9e3          	blt	t4,s1,136a4 <_vfprintf_r+0xd10>
   136d6:	835a                	c.mv	t1,s6
   136d8:	58c2                	c.lwsp	a7,48(sp)
   136da:	8b3e                	c.mv	s6,a5
   136dc:	57d2                	c.lwsp	a5,52(sp)
   136de:	8856                	c.mv	a6,s5
   136e0:	8ae2                	c.mv	s5,s8
   136e2:	8c66                	c.mv	s8,s9
   136e4:	8cea                	c.mv	s9,s10
   136e6:	8d6e                	c.mv	s10,s11
   136e8:	8da6                	c.mv	s11,s1
   136ea:	966e                	c.add	a2,s11
   136ec:	0585                	c.addi	a1,1
   136ee:	010b2023          	sw	a6,0(s6)
   136f2:	01bb2223          	sw	s11,4(s6)
   136f6:	df32                	c.swsp	a2,188(sp)
   136f8:	dd2e                	c.swsp	a1,184(sp)
   136fa:	471d                	c.li	a4,7
   136fc:	0b21                	c.addi	s6,8
   136fe:	c6b75f63          	bge	a4,a1,12b7c <_vfprintf_r+0x1e8>
   13702:	4582                	c.lwsp	a1,0(sp)
   13704:	1950                	c.addi4spn	a2,sp,180
   13706:	854a                	c.mv	a0,s2
   13708:	c09a                	c.swsp	t1,64(sp)
   1370a:	da3e                	c.swsp	a5,52(sp)
   1370c:	d846                	c.swsp	a7,48(sp)
   1370e:	459030ef          	jal	ra,17366 <__sprint_r>
   13712:	ed19                	c.bnez	a0,13730 <_vfprintf_r+0xd9c>
   13714:	567a                	c.lwsp	a2,188(sp)
   13716:	58c2                	c.lwsp	a7,48(sp)
   13718:	57d2                	c.lwsp	a5,52(sp)
   1371a:	4306                	c.lwsp	t1,64(sp)
   1371c:	8b4e                	c.mv	s6,s3
   1371e:	c5eff06f          	jal	zero,12b7c <_vfprintf_r+0x1e8>
   13722:	4582                	c.lwsp	a1,0(sp)
   13724:	1950                	c.addi4spn	a2,sp,180
   13726:	854a                	c.mv	a0,s2
   13728:	43f030ef          	jal	ra,17366 <__sprint_r>
   1372c:	c8050f63          	beq	a0,zero,12bca <_vfprintf_r+0x236>
   13730:	45b2                	c.lwsp	a1,12(sp)
   13732:	4482                	c.lwsp	s1,0(sp)
   13734:	c581                	c.beqz	a1,1373c <_vfprintf_r+0xda8>
   13736:	854a                	c.mv	a0,s2
   13738:	a23fe0ef          	jal	ra,1215a <_free_r>
   1373c:	00c4d783          	lhu	a5,12(s1)
   13740:	1b812403          	lw	s0,440(sp)
   13744:	1ac12983          	lw	s3,428(sp)
   13748:	0407f793          	andi	a5,a5,64
   1374c:	1a812a03          	lw	s4,424(sp)
   13750:	1a412a83          	lw	s5,420(sp)
   13754:	1a012b03          	lw	s6,416(sp)
   13758:	19c12b83          	lw	s7,412(sp)
   1375c:	19812c03          	lw	s8,408(sp)
   13760:	19412c83          	lw	s9,404(sp)
   13764:	18c12d83          	lw	s11,396(sp)
   13768:	cc079863          	bne	a5,zero,12c38 <_vfprintf_r+0x2a4>
   1376c:	1bc12083          	lw	ra,444(sp)
   13770:	4522                	c.lwsp	a0,8(sp)
   13772:	1b412483          	lw	s1,436(sp)
   13776:	1b012903          	lw	s2,432(sp)
   1377a:	19012d03          	lw	s10,400(sp)
   1377e:	6139                	c.addi16sp	sp,448
   13780:	8082                	c.jr	ra
   13782:	4712                	c.lwsp	a4,4(sp)
   13784:	d002                	c.swsp	zero,32(sp)
   13786:	ce02                	c.swsp	zero,28(sp)
   13788:	41870733          	sub	a4,a4,s8
   1378c:	4301                	c.li	t1,0
   1378e:	1ce04263          	blt	zero,a4,13952 <_vfprintf_r+0xfbe>
   13792:	bc0e8363          	beq	t4,zero,12b58 <_vfprintf_r+0x1c4>
   13796:	4709                	c.li	a4,2
   13798:	b9eff06f          	jal	zero,12b36 <_vfprintf_r+0x1a2>
   1379c:	4582                	c.lwsp	a1,0(sp)
   1379e:	1950                	c.addi4spn	a2,sp,180
   137a0:	854a                	c.mv	a0,s2
   137a2:	c09a                	c.swsp	t1,64(sp)
   137a4:	da3e                	c.swsp	a5,52(sp)
   137a6:	d846                	c.swsp	a7,48(sp)
   137a8:	3bf030ef          	jal	ra,17366 <__sprint_r>
   137ac:	f151                	c.bnez	a0,13730 <_vfprintf_r+0xd9c>
   137ae:	567a                	c.lwsp	a2,188(sp)
   137b0:	4306                	c.lwsp	t1,64(sp)
   137b2:	57d2                	c.lwsp	a5,52(sp)
   137b4:	58c2                	c.lwsp	a7,48(sp)
   137b6:	8b4e                	c.mv	s6,s3
   137b8:	bbcff06f          	jal	zero,12b74 <_vfprintf_r+0x1e0>
   137bc:	4cc1                	c.li	s9,16
   137be:	57ea                	c.lwsp	a5,184(sp)
   137c0:	00027837          	lui	a6,0x27
   137c4:	015cc463          	blt	s9,s5,137cc <_vfprintf_r+0xe38>
   137c8:	0140106f          	jal	zero,147dc <_vfprintf_r+0x1e48>
   137cc:	4482                	c.lwsp	s1,0(sp)
   137ce:	4d9d                	c.li	s11,7
   137d0:	fa080b93          	addi	s7,a6,-96 # 26fa0 <blanks.1>
   137d4:	a021                	c.j	137dc <_vfprintf_r+0xe48>
   137d6:	1ac1                	c.addi	s5,-16
   137d8:	035cda63          	bge	s9,s5,1380c <_vfprintf_r+0xe78>
   137dc:	0641                	c.addi	a2,16
   137de:	0785                	c.addi	a5,1
   137e0:	017b2023          	sw	s7,0(s6)
   137e4:	019b2223          	sw	s9,4(s6)
   137e8:	df32                	c.swsp	a2,188(sp)
   137ea:	dd3e                	c.swsp	a5,184(sp)
   137ec:	0b21                	c.addi	s6,8
   137ee:	fefdd4e3          	bge	s11,a5,137d6 <_vfprintf_r+0xe42>
   137f2:	1950                	c.addi4spn	a2,sp,180
   137f4:	85a6                	c.mv	a1,s1
   137f6:	854a                	c.mv	a0,s2
   137f8:	36f030ef          	jal	ra,17366 <__sprint_r>
   137fc:	62051e63          	bne	a0,zero,13e38 <_vfprintf_r+0x14a4>
   13800:	1ac1                	c.addi	s5,-16
   13802:	567a                	c.lwsp	a2,188(sp)
   13804:	57ea                	c.lwsp	a5,184(sp)
   13806:	8b4e                	c.mv	s6,s3
   13808:	fd5ccae3          	blt	s9,s5,137dc <_vfprintf_r+0xe48>
   1380c:	885e                	c.mv	a6,s7
   1380e:	9656                	c.add	a2,s5
   13810:	0785                	c.addi	a5,1
   13812:	df32                	c.swsp	a2,188(sp)
   13814:	dd3e                	c.swsp	a5,184(sp)
   13816:	010b2023          	sw	a6,0(s6)
   1381a:	015b2223          	sw	s5,4(s6)
   1381e:	471d                	c.li	a4,7
   13820:	b8f75c63          	bge	a4,a5,12bb8 <_vfprintf_r+0x224>
   13824:	4582                	c.lwsp	a1,0(sp)
   13826:	1950                	c.addi4spn	a2,sp,180
   13828:	854a                	c.mv	a0,s2
   1382a:	33d030ef          	jal	ra,17366 <__sprint_r>
   1382e:	f00511e3          	bne	a0,zero,13730 <_vfprintf_r+0xd9c>
   13832:	567a                	c.lwsp	a2,188(sp)
   13834:	b84ff06f          	jal	zero,12bb8 <_vfprintf_r+0x224>
   13838:	031c                	c.addi4spn	a5,sp,384
   1383a:	01d61593          	slli	a1,a2,0x1d
   1383e:	00777693          	andi	a3,a4,7
   13842:	830d                	c.srli	a4,0x3
   13844:	853e                	c.mv	a0,a5
   13846:	972e                	c.add	a4,a1
   13848:	03068693          	addi	a3,a3,48
   1384c:	820d                	c.srli	a2,0x3
   1384e:	00c765b3          	or	a1,a4,a2
   13852:	fed78fa3          	sb	a3,-1(a5)
   13856:	17fd                	c.addi	a5,-1
   13858:	f1ed                	c.bnez	a1,1383a <_vfprintf_r+0xea6>
   1385a:	fd068693          	addi	a3,a3,-48
   1385e:	c689                	c.beqz	a3,13868 <_vfprintf_r+0xed4>
   13860:	001bf713          	andi	a4,s7,1
   13864:	24071763          	bne	a4,zero,13ab2 <_vfprintf_r+0x111e>
   13868:	0318                	c.addi4spn	a4,sp,384
   1386a:	40f70cb3          	sub	s9,a4,a5
   1386e:	8c56                	c.mv	s8,s5
   13870:	239aca63          	blt	s5,s9,13aa4 <_vfprintf_r+0x1110>
   13874:	c602                	c.swsp	zero,12(sp)
   13876:	d002                	c.swsp	zero,32(sp)
   13878:	ce02                	c.swsp	zero,28(sp)
   1387a:	4301                	c.li	t1,0
   1387c:	aa4ff06f          	jal	zero,12b20 <_vfprintf_r+0x18c>
   13880:	456a                	c.lwsp	a0,152(sp)
   13882:	50a05263          	bge	zero,a0,13d86 <_vfprintf_r+0x13f2>
   13886:	4762                	c.lwsp	a4,24(sp)
   13888:	8a9a                	c.mv	s5,t1
   1388a:	30674163          	blt	a4,t1,13b8c <_vfprintf_r+0x11f8>
