
./qsort_large_O3:     file format elf32-littleriscv


Disassembly of section .text:

000100b4 <exit>:
   100b4:	ff010113          	addi	sp,sp,-16
   100b8:	00000593          	addi	a1,zero,0
   100bc:	00812423          	sw	s0,8(sp)
   100c0:	00112623          	sw	ra,12(sp)
   100c4:	00050413          	addi	s0,a0,0
   100c8:	631000ef          	jal	ra,10ef8 <__call_exitprocs>
   100cc:	f181a783          	lw	a5,-232(gp) # b4728 <__stdio_exit_handler>
   100d0:	00078463          	beq	a5,zero,100d8 <exit+0x24>
   100d4:	000780e7          	jalr	ra,0(a5)
   100d8:	00040513          	addi	a0,s0,0
   100dc:	6990b0ef          	jal	ra,1bf74 <_exit>

000100e0 <main>:
   100e0:	ffedc2b7          	lui	t0,0xffedc
   100e4:	81010113          	addi	sp,sp,-2032
   100e8:	85028293          	addi	t0,t0,-1968 # ffedb850 <__BSS_END__+0xffe26dfc>
   100ec:	7e912223          	sw	s1,2020(sp)
   100f0:	7e112623          	sw	ra,2028(sp)
   100f4:	7e812423          	sw	s0,2024(sp)
   100f8:	7f212023          	sw	s2,2016(sp)
   100fc:	7d312e23          	sw	s3,2012(sp)
   10100:	00021837          	lui	a6,0x21
   10104:	00510133          	add	sp,sp,t0
   10108:	00010493          	addi	s1,sp,0
   1010c:	00010613          	addi	a2,sp,0
   10110:	d1480813          	addi	a6,a6,-748 # 20d14 <input_data>
   10114:	00082703          	lw	a4,0(a6)
   10118:	00482503          	lw	a0,4(a6)
   1011c:	00882583          	lw	a1,8(a6)
   10120:	02e706b3          	mul	a3,a4,a4
   10124:	00e62023          	sw	a4,0(a2)
   10128:	00a62223          	sw	a0,4(a2)
   1012c:	00b62423          	sw	a1,8(a2)
   10130:	01860613          	addi	a2,a2,24
   10134:	00c80813          	addi	a6,a6,12
   10138:	02a507b3          	mul	a5,a0,a0
   1013c:	02e71733          	mulh	a4,a4,a4
   10140:	00f687b3          	add	a5,a3,a5
   10144:	00d7b6b3          	sltu	a3,a5,a3
   10148:	02a51533          	mulh	a0,a0,a0
   1014c:	02b588b3          	mul	a7,a1,a1
   10150:	00a70733          	add	a4,a4,a0
   10154:	00e686b3          	add	a3,a3,a4
   10158:	02b595b3          	mulh	a1,a1,a1
   1015c:	01178733          	add	a4,a5,a7
   10160:	00f737b3          	sltu	a5,a4,a5
   10164:	fee62c23          	sw	a4,-8(a2)
   10168:	00b686b3          	add	a3,a3,a1
   1016c:	00d787b3          	add	a5,a5,a3
   10170:	fef62e23          	sw	a5,-4(a2)
   10174:	001257b7          	lui	a5,0x125
   10178:	f8078793          	addi	a5,a5,-128 # 124f80 <__BSS_END__+0x7052c>
   1017c:	002787b3          	add	a5,a5,sp
   10180:	f8c79ae3          	bne	a5,a2,10114 <main+0x34>
   10184:	0000c637          	lui	a2,0xc
   10188:	00010513          	addi	a0,sp,0
   1018c:	34f60613          	addi	a2,a2,847 # c34f <exit-0x3d65>
   10190:	00000593          	addi	a1,zero,0
   10194:	198000ef          	jal	ra,1032c <quicksort_range>
   10198:	00048793          	addi	a5,s1,0
   1019c:	00000713          	addi	a4,zero,0
   101a0:	00000693          	addi	a3,zero,0
   101a4:	0007a403          	lw	s0,0(a5)
   101a8:	0047a583          	lw	a1,4(a5)
   101ac:	0087a603          	lw	a2,8(a5)
   101b0:	01878793          	addi	a5,a5,24
   101b4:	00b40433          	add	s0,s0,a1
   101b8:	00c40433          	add	s0,s0,a2
   101bc:	41f45613          	srai	a2,s0,0x1f
   101c0:	00c686b3          	add	a3,a3,a2
   101c4:	00870433          	add	s0,a4,s0
   101c8:	00125637          	lui	a2,0x125
   101cc:	00e43733          	sltu	a4,s0,a4
   101d0:	f8060613          	addi	a2,a2,-128 # 124f80 <__BSS_END__+0x7052c>
   101d4:	00d70933          	add	s2,a4,a3
   101d8:	00260633          	add	a2,a2,sp
   101dc:	00090693          	addi	a3,s2,0
   101e0:	00040713          	addi	a4,s0,0
   101e4:	fcf610e3          	bne	a2,a5,101a4 <main+0xc4>
   101e8:	00021537          	lui	a0,0x21
   101ec:	0000c5b7          	lui	a1,0xc
   101f0:	35058593          	addi	a1,a1,848 # c350 <exit-0x3d64>
   101f4:	b8850513          	addi	a0,a0,-1144 # 20b88 <__clzsi2+0x4c>
   101f8:	000219b7          	lui	s3,0x21
   101fc:	770000ef          	jal	ra,1096c <printf>
   10200:	bc498993          	addi	s3,s3,-1084 # 20bc4 <__clzsi2+0x88>
   10204:	0084a683          	lw	a3,8(s1)
   10208:	0044a603          	lw	a2,4(s1)
   1020c:	0004a583          	lw	a1,0(s1)
   10210:	00098513          	addi	a0,s3,0
   10214:	01848493          	addi	s1,s1,24
   10218:	754000ef          	jal	ra,1096c <printf>
   1021c:	001257b7          	lui	a5,0x125
   10220:	f8078793          	addi	a5,a5,-128 # 124f80 <__BSS_END__+0x7052c>
   10224:	002787b3          	add	a5,a5,sp
   10228:	fc979ee3          	bne	a5,s1,10204 <main+0x124>
   1022c:	001242b7          	lui	t0,0x124
   10230:	7b028293          	addi	t0,t0,1968 # 1247b0 <__BSS_END__+0x6fd5c>
   10234:	00510133          	add	sp,sp,t0
   10238:	7ec12083          	lw	ra,2028(sp)
   1023c:	01246533          	or	a0,s0,s2
   10240:	7e412483          	lw	s1,2020(sp)
   10244:	7e812403          	lw	s0,2024(sp)
   10248:	7e012903          	lw	s2,2016(sp)
   1024c:	7dc12983          	lw	s3,2012(sp)
   10250:	00153513          	sltiu	a0,a0,1
   10254:	7f010113          	addi	sp,sp,2032
   10258:	00008067          	jalr	zero,0(ra)

0001025c <register_fini>:
   1025c:	00000793          	addi	a5,zero,0
   10260:	00078863          	beq	a5,zero,10270 <register_fini+0x14>
   10264:	00016537          	lui	a0,0x16
   10268:	aac50513          	addi	a0,a0,-1364 # 15aac <__libc_fini_array>
   1026c:	5c10006f          	jal	zero,1102c <atexit>
   10270:	00008067          	jalr	zero,0(ra)

00010274 <_start>:
   10274:	000a4197          	auipc	gp,0xa4
   10278:	59c18193          	addi	gp,gp,1436 # b4810 <__global_pointer$>
   1027c:	000a4517          	auipc	a0,0xa4
   10280:	4ac50513          	addi	a0,a0,1196 # b4728 <__stdio_exit_handler>
   10284:	000a4617          	auipc	a2,0xa4
   10288:	7d060613          	addi	a2,a2,2000 # b4a54 <__BSS_END__>
   1028c:	40a60633          	sub	a2,a2,a0
   10290:	00000593          	addi	a1,zero,0
   10294:	389000ef          	jal	ra,10e1c <memset>
   10298:	00001517          	auipc	a0,0x1
   1029c:	d9450513          	addi	a0,a0,-620 # 1102c <atexit>
   102a0:	00050863          	beq	a0,zero,102b0 <_start+0x3c>
   102a4:	00006517          	auipc	a0,0x6
   102a8:	80850513          	addi	a0,a0,-2040 # 15aac <__libc_fini_array>
   102ac:	581000ef          	jal	ra,1102c <atexit>
   102b0:	2d9000ef          	jal	ra,10d88 <__libc_init_array>
   102b4:	00012503          	lw	a0,0(sp)
   102b8:	00410593          	addi	a1,sp,4
   102bc:	00000613          	addi	a2,zero,0
   102c0:	e21ff0ef          	jal	ra,100e0 <main>
   102c4:	df1ff06f          	jal	zero,100b4 <exit>

000102c8 <__do_global_dtors_aux>:
   102c8:	ff010113          	addi	sp,sp,-16
   102cc:	00812423          	sw	s0,8(sp)
   102d0:	f381c783          	lbu	a5,-200(gp) # b4748 <completed.1>
   102d4:	00112623          	sw	ra,12(sp)
   102d8:	02079263          	bne	a5,zero,102fc <__do_global_dtors_aux+0x34>
   102dc:	00000793          	addi	a5,zero,0
   102e0:	00078a63          	beq	a5,zero,102f4 <__do_global_dtors_aux+0x2c>
   102e4:	000b4537          	lui	a0,0xb4
   102e8:	b6450513          	addi	a0,a0,-1180 # b3b64 <__EH_FRAME_BEGIN__>
   102ec:	00000097          	auipc	ra,0x0
   102f0:	000000e7          	jalr	ra,0(zero) # 0 <exit-0x100b4>
   102f4:	00100793          	addi	a5,zero,1
   102f8:	f2f18c23          	sb	a5,-200(gp) # b4748 <completed.1>
   102fc:	00c12083          	lw	ra,12(sp)
   10300:	00812403          	lw	s0,8(sp)
   10304:	01010113          	addi	sp,sp,16
   10308:	00008067          	jalr	zero,0(ra) # 102ec <__do_global_dtors_aux+0x24>

0001030c <frame_dummy>:
   1030c:	00000793          	addi	a5,zero,0
   10310:	00078c63          	beq	a5,zero,10328 <frame_dummy+0x1c>
   10314:	000b4537          	lui	a0,0xb4
   10318:	f3c18593          	addi	a1,gp,-196 # b474c <object.0>
   1031c:	b6450513          	addi	a0,a0,-1180 # b3b64 <__EH_FRAME_BEGIN__>
   10320:	00000317          	auipc	t1,0x0
   10324:	00000067          	jalr	zero,0(zero) # 0 <exit-0x100b4>
   10328:	00008067          	jalr	zero,0(ra)

0001032c <quicksort_range>:
   1032c:	1cc5da63          	bge	a1,a2,10500 <quicksort_range+0x1d4>
   10330:	fb010113          	addi	sp,sp,-80
   10334:	04912223          	sw	s1,68(sp)
   10338:	05212023          	sw	s2,64(sp)
   1033c:	03312e23          	sw	s3,60(sp)
   10340:	04112623          	sw	ra,76(sp)
   10344:	04812423          	sw	s0,72(sp)
   10348:	00060993          	addi	s3,a2,0
   1034c:	fe850913          	addi	s2,a0,-24
   10350:	01850493          	addi	s1,a0,24
   10354:	00b98733          	add	a4,s3,a1
   10358:	01f75793          	srli	a5,a4,0x1f
   1035c:	00e787b3          	add	a5,a5,a4
   10360:	4017d713          	srai	a4,a5,0x1
   10364:	ffe7f793          	andi	a5,a5,-2
   10368:	00e787b3          	add	a5,a5,a4
   1036c:	00379793          	slli	a5,a5,0x3
   10370:	00f507b3          	add	a5,a0,a5
   10374:	0107ae03          	lw	t3,16(a5)
   10378:	0147a683          	lw	a3,20(a5)
   1037c:	00098613          	addi	a2,s3,0
   10380:	00058413          	addi	s0,a1,0
   10384:	10864463          	blt	a2,s0,1048c <quicksort_range+0x160>
   10388:	00141713          	slli	a4,s0,0x1
   1038c:	00870733          	add	a4,a4,s0
   10390:	00371713          	slli	a4,a4,0x3
   10394:	00e50333          	add	t1,a0,a4
   10398:	00161793          	slli	a5,a2,0x1
   1039c:	01432803          	lw	a6,20(t1) # 10334 <quicksort_range+0x8>
   103a0:	00c787b3          	add	a5,a5,a2
   103a4:	00379793          	slli	a5,a5,0x3
   103a8:	00f508b3          	add	a7,a0,a5
   103ac:	0ed87863          	bgeu	a6,a3,1049c <quicksort_range+0x170>
   103b0:	00e48733          	add	a4,s1,a4
   103b4:	00070313          	addi	t1,a4,0
   103b8:	01472803          	lw	a6,20(a4)
   103bc:	01870713          	addi	a4,a4,24
   103c0:	00140413          	addi	s0,s0,1
   103c4:	fed868e3          	bltu	a6,a3,103b4 <quicksort_range+0x88>
   103c8:	00d81663          	bne	a6,a3,103d4 <quicksort_range+0xa8>
   103cc:	ff872803          	lw	a6,-8(a4)
   103d0:	ffc862e3          	bltu	a6,t3,103b4 <quicksort_range+0x88>
   103d4:	0148a703          	lw	a4,20(a7)
   103d8:	0ee6f463          	bgeu	a3,a4,104c0 <quicksort_range+0x194>
   103dc:	00f907b3          	add	a5,s2,a5
   103e0:	00078813          	addi	a6,a5,0
   103e4:	0147a703          	lw	a4,20(a5)
   103e8:	fe878793          	addi	a5,a5,-24
   103ec:	fff60613          	addi	a2,a2,-1
   103f0:	fee6e8e3          	bltu	a3,a4,103e0 <quicksort_range+0xb4>
   103f4:	00d71663          	bne	a4,a3,10400 <quicksort_range+0xd4>
   103f8:	0287a703          	lw	a4,40(a5)
   103fc:	feee62e3          	bltu	t3,a4,103e0 <quicksort_range+0xb4>
   10400:	00080893          	addi	a7,a6,0
   10404:	f88640e3          	blt	a2,s0,10384 <quicksort_range+0x58>
   10408:	0008af03          	lw	t5,0(a7)
   1040c:	0048ae83          	lw	t4,4(a7)
   10410:	0088a803          	lw	a6,8(a7)
   10414:	00c8a703          	lw	a4,12(a7)
   10418:	0108a783          	lw	a5,16(a7)
   1041c:	00032f83          	lw	t6,0(t1)
   10420:	01e32023          	sw	t5,0(t1)
   10424:	00432f03          	lw	t5,4(t1)
   10428:	01d32223          	sw	t4,4(t1)
   1042c:	00832e83          	lw	t4,8(t1)
   10430:	01032423          	sw	a6,8(t1)
   10434:	00c32803          	lw	a6,12(t1)
   10438:	00e32623          	sw	a4,12(t1)
   1043c:	01032703          	lw	a4,16(t1)
   10440:	00f32823          	sw	a5,16(t1)
   10444:	0148a283          	lw	t0,20(a7)
   10448:	01432783          	lw	a5,20(t1)
   1044c:	00140413          	addi	s0,s0,1
   10450:	00532a23          	sw	t0,20(t1)
   10454:	fff60613          	addi	a2,a2,-1
   10458:	01f12c23          	sw	t6,24(sp)
   1045c:	01e12e23          	sw	t5,28(sp)
   10460:	03d12023          	sw	t4,32(sp)
   10464:	03012223          	sw	a6,36(sp)
   10468:	02e12423          	sw	a4,40(sp)
   1046c:	01f8a023          	sw	t6,0(a7)
   10470:	02f12623          	sw	a5,44(sp)
   10474:	01e8a223          	sw	t5,4(a7)
   10478:	01d8a423          	sw	t4,8(a7)
   1047c:	0108a623          	sw	a6,12(a7)
   10480:	00e8a823          	sw	a4,16(a7)
   10484:	00f8aa23          	sw	a5,20(a7)
   10488:	f08650e3          	bge	a2,s0,10388 <quicksort_range+0x5c>
   1048c:	04c5c463          	blt	a1,a2,104d4 <quicksort_range+0x1a8>
   10490:	05345a63          	bge	s0,s3,104e4 <quicksort_range+0x1b8>
   10494:	00040593          	addi	a1,s0,0
   10498:	ebdff06f          	jal	zero,10354 <quicksort_range+0x28>
   1049c:	00d81663          	bne	a6,a3,104a8 <quicksort_range+0x17c>
   104a0:	01032803          	lw	a6,16(t1)
   104a4:	f1c866e3          	bltu	a6,t3,103b0 <quicksort_range+0x84>
   104a8:	0148a703          	lw	a4,20(a7)
   104ac:	f2e6e8e3          	bltu	a3,a4,103dc <quicksort_range+0xb0>
   104b0:	f4d71ce3          	bne	a4,a3,10408 <quicksort_range+0xdc>
   104b4:	0108a703          	lw	a4,16(a7)
   104b8:	f2ee62e3          	bltu	t3,a4,103dc <quicksort_range+0xb0>
   104bc:	f4dff06f          	jal	zero,10408 <quicksort_range+0xdc>
   104c0:	f4d712e3          	bne	a4,a3,10404 <quicksort_range+0xd8>
   104c4:	0108a703          	lw	a4,16(a7)
   104c8:	f0ee6ae3          	bltu	t3,a4,103dc <quicksort_range+0xb0>
   104cc:	ea864ce3          	blt	a2,s0,10384 <quicksort_range+0x58>
   104d0:	f39ff06f          	jal	zero,10408 <quicksort_range+0xdc>
   104d4:	00a12623          	sw	a0,12(sp)
   104d8:	e55ff0ef          	jal	ra,1032c <quicksort_range>
   104dc:	00c12503          	lw	a0,12(sp)
   104e0:	fb344ae3          	blt	s0,s3,10494 <quicksort_range+0x168>
   104e4:	04c12083          	lw	ra,76(sp)
   104e8:	04812403          	lw	s0,72(sp)
   104ec:	04412483          	lw	s1,68(sp)
   104f0:	04012903          	lw	s2,64(sp)
   104f4:	03c12983          	lw	s3,60(sp)
   104f8:	05010113          	addi	sp,sp,80
   104fc:	00008067          	jalr	zero,0(ra)
   10500:	00008067          	jalr	zero,0(ra)

00010504 <__fp_lock>:
   10504:	00000513          	addi	a0,zero,0
   10508:	00008067          	jalr	zero,0(ra)

0001050c <stdio_exit_handler>:
   1050c:	000b4637          	lui	a2,0xb4
   10510:	000155b7          	lui	a1,0x15
   10514:	000b4537          	lui	a0,0xb4
   10518:	01060613          	addi	a2,a2,16 # b4010 <__sglue>
   1051c:	e6458593          	addi	a1,a1,-412 # 14e64 <_fclose_r>
   10520:	02050513          	addi	a0,a0,32 # b4020 <_impure_data>
   10524:	34c0006f          	jal	zero,10870 <_fwalk_sglue>

00010528 <cleanup_stdio>:
   10528:	00452583          	lw	a1,4(a0)
   1052c:	ff010113          	addi	sp,sp,-16
   10530:	00812423          	sw	s0,8(sp)
   10534:	00112623          	sw	ra,12(sp)
   10538:	f5418793          	addi	a5,gp,-172 # b4764 <__sf>
   1053c:	00050413          	addi	s0,a0,0
   10540:	00f58463          	beq	a1,a5,10548 <cleanup_stdio+0x20>
   10544:	121040ef          	jal	ra,14e64 <_fclose_r>
   10548:	00842583          	lw	a1,8(s0)
   1054c:	fbc18793          	addi	a5,gp,-68 # b47cc <__sf+0x68>
   10550:	00f58663          	beq	a1,a5,1055c <cleanup_stdio+0x34>
   10554:	00040513          	addi	a0,s0,0
   10558:	10d040ef          	jal	ra,14e64 <_fclose_r>
   1055c:	00c42583          	lw	a1,12(s0)
   10560:	02418793          	addi	a5,gp,36 # b4834 <__global_pointer$+0x24>
   10564:	00f58c63          	beq	a1,a5,1057c <cleanup_stdio+0x54>
   10568:	00040513          	addi	a0,s0,0
   1056c:	00812403          	lw	s0,8(sp)
   10570:	00c12083          	lw	ra,12(sp)
   10574:	01010113          	addi	sp,sp,16
   10578:	0ed0406f          	jal	zero,14e64 <_fclose_r>
   1057c:	00c12083          	lw	ra,12(sp)
   10580:	00812403          	lw	s0,8(sp)
   10584:	01010113          	addi	sp,sp,16
   10588:	00008067          	jalr	zero,0(ra)

0001058c <__fp_unlock>:
   1058c:	00000513          	addi	a0,zero,0
   10590:	00008067          	jalr	zero,0(ra)

00010594 <global_stdio_init.part.0>:
   10594:	fe010113          	addi	sp,sp,-32
   10598:	000107b7          	lui	a5,0x10
   1059c:	00812c23          	sw	s0,24(sp)
   105a0:	50c78793          	addi	a5,a5,1292 # 1050c <stdio_exit_handler>
   105a4:	f5418413          	addi	s0,gp,-172 # b4764 <__sf>
   105a8:	00112e23          	sw	ra,28(sp)
   105ac:	00912a23          	sw	s1,20(sp)
   105b0:	01212823          	sw	s2,16(sp)
   105b4:	01312623          	sw	s3,12(sp)
   105b8:	01412423          	sw	s4,8(sp)
   105bc:	f0f1ac23          	sw	a5,-232(gp) # b4728 <__stdio_exit_handler>
   105c0:	00800613          	addi	a2,zero,8
   105c4:	00400793          	addi	a5,zero,4
   105c8:	00000593          	addi	a1,zero,0
   105cc:	fb018513          	addi	a0,gp,-80 # b47c0 <__sf+0x5c>
   105d0:	00f42623          	sw	a5,12(s0)
   105d4:	00042023          	sw	zero,0(s0)
   105d8:	00042223          	sw	zero,4(s0)
   105dc:	00042423          	sw	zero,8(s0)
   105e0:	06042223          	sw	zero,100(s0)
   105e4:	00042823          	sw	zero,16(s0)
   105e8:	00042a23          	sw	zero,20(s0)
   105ec:	00042c23          	sw	zero,24(s0)
   105f0:	02d000ef          	jal	ra,10e1c <memset>
   105f4:	00011a37          	lui	s4,0x11
   105f8:	000119b7          	lui	s3,0x11
   105fc:	00011937          	lui	s2,0x11
   10600:	000114b7          	lui	s1,0x11
   10604:	000107b7          	lui	a5,0x10
   10608:	9b8a0a13          	addi	s4,s4,-1608 # 109b8 <__sread>
   1060c:	a1c98993          	addi	s3,s3,-1508 # 10a1c <__swrite>
   10610:	aa490913          	addi	s2,s2,-1372 # 10aa4 <__sseek>
   10614:	b0848493          	addi	s1,s1,-1272 # 10b08 <__sclose>
   10618:	00978793          	addi	a5,a5,9 # 10009 <exit-0xab>
   1061c:	00800613          	addi	a2,zero,8
   10620:	00000593          	addi	a1,zero,0
   10624:	01818513          	addi	a0,gp,24 # b4828 <__global_pointer$+0x18>
   10628:	06f42a23          	sw	a5,116(s0)
   1062c:	03442023          	sw	s4,32(s0)
   10630:	03342223          	sw	s3,36(s0)
   10634:	03242423          	sw	s2,40(s0)
   10638:	02942623          	sw	s1,44(s0)
   1063c:	00842e23          	sw	s0,28(s0)
   10640:	06042423          	sw	zero,104(s0)
   10644:	06042623          	sw	zero,108(s0)
   10648:	06042823          	sw	zero,112(s0)
   1064c:	0c042623          	sw	zero,204(s0)
   10650:	06042c23          	sw	zero,120(s0)
   10654:	06042e23          	sw	zero,124(s0)
   10658:	08042023          	sw	zero,128(s0)
   1065c:	7c0000ef          	jal	ra,10e1c <memset>
   10660:	000207b7          	lui	a5,0x20
   10664:	01278793          	addi	a5,a5,18 # 20012 <__subtf3+0xcb2>
   10668:	fbc18713          	addi	a4,gp,-68 # b47cc <__sf+0x68>
   1066c:	08018513          	addi	a0,gp,128 # b4890 <__global_pointer$+0x80>
   10670:	00800613          	addi	a2,zero,8
   10674:	00000593          	addi	a1,zero,0
   10678:	09442423          	sw	s4,136(s0)
   1067c:	09342623          	sw	s3,140(s0)
   10680:	09242823          	sw	s2,144(s0)
   10684:	08942a23          	sw	s1,148(s0)
   10688:	0cf42e23          	sw	a5,220(s0)
   1068c:	0c042823          	sw	zero,208(s0)
   10690:	0c042a23          	sw	zero,212(s0)
   10694:	0c042c23          	sw	zero,216(s0)
   10698:	12042a23          	sw	zero,308(s0)
   1069c:	0e042023          	sw	zero,224(s0)
   106a0:	0e042223          	sw	zero,228(s0)
   106a4:	0e042423          	sw	zero,232(s0)
   106a8:	08e42223          	sw	a4,132(s0)
   106ac:	770000ef          	jal	ra,10e1c <memset>
   106b0:	02418793          	addi	a5,gp,36 # b4834 <__global_pointer$+0x24>
   106b4:	0f442823          	sw	s4,240(s0)
   106b8:	0f342a23          	sw	s3,244(s0)
   106bc:	0f242c23          	sw	s2,248(s0)
   106c0:	0e942e23          	sw	s1,252(s0)
   106c4:	01c12083          	lw	ra,28(sp)
   106c8:	0ef42623          	sw	a5,236(s0)
   106cc:	01812403          	lw	s0,24(sp)
   106d0:	01412483          	lw	s1,20(sp)
   106d4:	01012903          	lw	s2,16(sp)
   106d8:	00c12983          	lw	s3,12(sp)
   106dc:	00812a03          	lw	s4,8(sp)
   106e0:	02010113          	addi	sp,sp,32
   106e4:	00008067          	jalr	zero,0(ra)

000106e8 <__sfp>:
   106e8:	f181a783          	lw	a5,-232(gp) # b4728 <__stdio_exit_handler>
   106ec:	fe010113          	addi	sp,sp,-32
   106f0:	00912a23          	sw	s1,20(sp)
   106f4:	00112e23          	sw	ra,28(sp)
   106f8:	00812c23          	sw	s0,24(sp)
   106fc:	00050493          	addi	s1,a0,0
   10700:	0e078e63          	beq	a5,zero,107fc <__sfp+0x114>
   10704:	000b4837          	lui	a6,0xb4
   10708:	01080813          	addi	a6,a6,16 # b4010 <__sglue>
   1070c:	fff00693          	addi	a3,zero,-1
   10710:	00482783          	lw	a5,4(a6)
   10714:	fff78793          	addi	a5,a5,-1
   10718:	0807c063          	blt	a5,zero,10798 <__sfp+0xb0>
   1071c:	00882403          	lw	s0,8(a6)
   10720:	00c0006f          	jal	zero,1072c <__sfp+0x44>
   10724:	06840413          	addi	s0,s0,104
   10728:	06d78863          	beq	a5,a3,10798 <__sfp+0xb0>
   1072c:	00c41703          	lh	a4,12(s0)
   10730:	fff78793          	addi	a5,a5,-1
   10734:	fe0718e3          	bne	a4,zero,10724 <__sfp+0x3c>
   10738:	ffff07b7          	lui	a5,0xffff0
   1073c:	00178793          	addi	a5,a5,1 # ffff0001 <__BSS_END__+0xfff3b5ad>
   10740:	00f42623          	sw	a5,12(s0)
   10744:	06042223          	sw	zero,100(s0)
   10748:	00042023          	sw	zero,0(s0)
   1074c:	00042423          	sw	zero,8(s0)
   10750:	00042223          	sw	zero,4(s0)
   10754:	00042823          	sw	zero,16(s0)
   10758:	00042a23          	sw	zero,20(s0)
   1075c:	00042c23          	sw	zero,24(s0)
   10760:	00800613          	addi	a2,zero,8
   10764:	00000593          	addi	a1,zero,0
   10768:	05c40513          	addi	a0,s0,92
   1076c:	6b0000ef          	jal	ra,10e1c <memset>
   10770:	02042823          	sw	zero,48(s0)
   10774:	02042a23          	sw	zero,52(s0)
   10778:	04042223          	sw	zero,68(s0)
   1077c:	04042423          	sw	zero,72(s0)
   10780:	01c12083          	lw	ra,28(sp)
   10784:	00040513          	addi	a0,s0,0
   10788:	01812403          	lw	s0,24(sp)
   1078c:	01412483          	lw	s1,20(sp)
   10790:	02010113          	addi	sp,sp,32
   10794:	00008067          	jalr	zero,0(ra)
   10798:	00082403          	lw	s0,0(a6)
   1079c:	00040663          	beq	s0,zero,107a8 <__sfp+0xc0>
   107a0:	00040813          	addi	a6,s0,0
   107a4:	f6dff06f          	jal	zero,10710 <__sfp+0x28>
   107a8:	1ac00593          	addi	a1,zero,428
   107ac:	00048513          	addi	a0,s1,0
   107b0:	01012623          	sw	a6,12(sp)
   107b4:	499000ef          	jal	ra,1144c <_malloc_r>
   107b8:	00c12803          	lw	a6,12(sp)
   107bc:	00050413          	addi	s0,a0,0
   107c0:	04050263          	beq	a0,zero,10804 <__sfp+0x11c>
   107c4:	00400793          	addi	a5,zero,4
   107c8:	00f52223          	sw	a5,4(a0)
   107cc:	00c50513          	addi	a0,a0,12
   107d0:	00042023          	sw	zero,0(s0)
   107d4:	00a42423          	sw	a0,8(s0)
   107d8:	1a000613          	addi	a2,zero,416
   107dc:	00000593          	addi	a1,zero,0
   107e0:	01012623          	sw	a6,12(sp)
   107e4:	638000ef          	jal	ra,10e1c <memset>
   107e8:	00c12803          	lw	a6,12(sp)
   107ec:	fff00693          	addi	a3,zero,-1
   107f0:	00882023          	sw	s0,0(a6)
   107f4:	00040813          	addi	a6,s0,0
   107f8:	f19ff06f          	jal	zero,10710 <__sfp+0x28>
   107fc:	d99ff0ef          	jal	ra,10594 <global_stdio_init.part.0>
   10800:	f05ff06f          	jal	zero,10704 <__sfp+0x1c>
   10804:	00082023          	sw	zero,0(a6)
   10808:	00c00793          	addi	a5,zero,12
   1080c:	00f4a023          	sw	a5,0(s1)
   10810:	f71ff06f          	jal	zero,10780 <__sfp+0x98>

00010814 <__sinit>:
   10814:	03452783          	lw	a5,52(a0)
   10818:	00078463          	beq	a5,zero,10820 <__sinit+0xc>
   1081c:	00008067          	jalr	zero,0(ra)
   10820:	000107b7          	lui	a5,0x10
   10824:	f181a703          	lw	a4,-232(gp) # b4728 <__stdio_exit_handler>
   10828:	52878793          	addi	a5,a5,1320 # 10528 <cleanup_stdio>
   1082c:	02f52a23          	sw	a5,52(a0)
   10830:	fe0716e3          	bne	a4,zero,1081c <__sinit+0x8>
   10834:	d61ff06f          	jal	zero,10594 <global_stdio_init.part.0>

00010838 <__sfp_lock_acquire>:
   10838:	00008067          	jalr	zero,0(ra)

0001083c <__sfp_lock_release>:
   1083c:	00008067          	jalr	zero,0(ra)

00010840 <__fp_lock_all>:
   10840:	000b4637          	lui	a2,0xb4
   10844:	000105b7          	lui	a1,0x10
   10848:	01060613          	addi	a2,a2,16 # b4010 <__sglue>
   1084c:	50458593          	addi	a1,a1,1284 # 10504 <__fp_lock>
   10850:	00000513          	addi	a0,zero,0
   10854:	01c0006f          	jal	zero,10870 <_fwalk_sglue>

00010858 <__fp_unlock_all>:
   10858:	000b4637          	lui	a2,0xb4
   1085c:	000105b7          	lui	a1,0x10
   10860:	01060613          	addi	a2,a2,16 # b4010 <__sglue>
   10864:	58c58593          	addi	a1,a1,1420 # 1058c <__fp_unlock>
   10868:	00000513          	addi	a0,zero,0
   1086c:	0040006f          	jal	zero,10870 <_fwalk_sglue>

00010870 <_fwalk_sglue>:
   10870:	fd010113          	addi	sp,sp,-48
   10874:	03212023          	sw	s2,32(sp)
   10878:	01312e23          	sw	s3,28(sp)
   1087c:	01412c23          	sw	s4,24(sp)
   10880:	01512a23          	sw	s5,20(sp)
   10884:	01612823          	sw	s6,16(sp)
   10888:	01712623          	sw	s7,12(sp)
   1088c:	02112623          	sw	ra,44(sp)
   10890:	02812423          	sw	s0,40(sp)
   10894:	02912223          	sw	s1,36(sp)
   10898:	00060a93          	addi	s5,a2,0
   1089c:	00050b13          	addi	s6,a0,0
   108a0:	00058b93          	addi	s7,a1,0
   108a4:	00000a13          	addi	s4,zero,0
   108a8:	00100993          	addi	s3,zero,1
   108ac:	fff00913          	addi	s2,zero,-1
   108b0:	004aa483          	lw	s1,4(s5)
   108b4:	fff48493          	addi	s1,s1,-1
   108b8:	0204ca63          	blt	s1,zero,108ec <_fwalk_sglue+0x7c>
   108bc:	008aa403          	lw	s0,8(s5)
   108c0:	00c45783          	lhu	a5,12(s0)
   108c4:	00f9fe63          	bgeu	s3,a5,108e0 <_fwalk_sglue+0x70>
   108c8:	00e41783          	lh	a5,14(s0)
   108cc:	00040593          	addi	a1,s0,0
   108d0:	000b0513          	addi	a0,s6,0
   108d4:	01278663          	beq	a5,s2,108e0 <_fwalk_sglue+0x70>
   108d8:	000b80e7          	jalr	ra,0(s7)
   108dc:	00aa6a33          	or	s4,s4,a0
   108e0:	fff48493          	addi	s1,s1,-1
   108e4:	06840413          	addi	s0,s0,104
   108e8:	fd249ce3          	bne	s1,s2,108c0 <_fwalk_sglue+0x50>
   108ec:	000aaa83          	lw	s5,0(s5)
   108f0:	fc0a90e3          	bne	s5,zero,108b0 <_fwalk_sglue+0x40>
   108f4:	02c12083          	lw	ra,44(sp)
   108f8:	02812403          	lw	s0,40(sp)
   108fc:	02412483          	lw	s1,36(sp)
   10900:	02012903          	lw	s2,32(sp)
   10904:	01c12983          	lw	s3,28(sp)
   10908:	01412a83          	lw	s5,20(sp)
   1090c:	01012b03          	lw	s6,16(sp)
   10910:	00c12b83          	lw	s7,12(sp)
   10914:	000a0513          	addi	a0,s4,0
   10918:	01812a03          	lw	s4,24(sp)
   1091c:	03010113          	addi	sp,sp,48
   10920:	00008067          	jalr	zero,0(ra)

00010924 <_printf_r>:
   10924:	fc010113          	addi	sp,sp,-64
   10928:	00058e13          	addi	t3,a1,0
   1092c:	00852583          	lw	a1,8(a0)
   10930:	02810313          	addi	t1,sp,40
   10934:	02c12423          	sw	a2,40(sp)
   10938:	02d12623          	sw	a3,44(sp)
   1093c:	000e0613          	addi	a2,t3,0
   10940:	00030693          	addi	a3,t1,0
   10944:	00112e23          	sw	ra,28(sp)
   10948:	02e12823          	sw	a4,48(sp)
   1094c:	02f12a23          	sw	a5,52(sp)
   10950:	03012c23          	sw	a6,56(sp)
   10954:	03112e23          	sw	a7,60(sp)
   10958:	00612623          	sw	t1,12(sp)
   1095c:	370010ef          	jal	ra,11ccc <_vfprintf_r>
   10960:	01c12083          	lw	ra,28(sp)
   10964:	04010113          	addi	sp,sp,64
   10968:	00008067          	jalr	zero,0(ra)

0001096c <printf>:
   1096c:	f0c1a303          	lw	t1,-244(gp) # b471c <_impure_ptr>
   10970:	fc010113          	addi	sp,sp,-64
   10974:	02c12423          	sw	a2,40(sp)
   10978:	02d12623          	sw	a3,44(sp)
   1097c:	02b12223          	sw	a1,36(sp)
   10980:	02e12823          	sw	a4,48(sp)
   10984:	02f12a23          	sw	a5,52(sp)
   10988:	03012c23          	sw	a6,56(sp)
   1098c:	03112e23          	sw	a7,60(sp)
   10990:	00832583          	lw	a1,8(t1)
   10994:	02410693          	addi	a3,sp,36
   10998:	00050613          	addi	a2,a0,0
   1099c:	00030513          	addi	a0,t1,0
   109a0:	00112e23          	sw	ra,28(sp)
   109a4:	00d12623          	sw	a3,12(sp)
   109a8:	324010ef          	jal	ra,11ccc <_vfprintf_r>
   109ac:	01c12083          	lw	ra,28(sp)
   109b0:	04010113          	addi	sp,sp,64
   109b4:	00008067          	jalr	zero,0(ra)

000109b8 <__sread>:
   109b8:	ff010113          	addi	sp,sp,-16
   109bc:	00812423          	sw	s0,8(sp)
   109c0:	00058413          	addi	s0,a1,0
   109c4:	00e59583          	lh	a1,14(a1)
   109c8:	00112623          	sw	ra,12(sp)
   109cc:	2ec000ef          	jal	ra,10cb8 <_read_r>
   109d0:	02054063          	blt	a0,zero,109f0 <__sread+0x38>
   109d4:	05042783          	lw	a5,80(s0)
   109d8:	00c12083          	lw	ra,12(sp)
   109dc:	00a787b3          	add	a5,a5,a0
   109e0:	04f42823          	sw	a5,80(s0)
   109e4:	00812403          	lw	s0,8(sp)
   109e8:	01010113          	addi	sp,sp,16
   109ec:	00008067          	jalr	zero,0(ra)
   109f0:	00c45783          	lhu	a5,12(s0)
   109f4:	fffff737          	lui	a4,0xfffff
   109f8:	fff70713          	addi	a4,a4,-1 # ffffefff <__BSS_END__+0xfff4a5ab>
   109fc:	00e7f7b3          	and	a5,a5,a4
   10a00:	00c12083          	lw	ra,12(sp)
   10a04:	00f41623          	sh	a5,12(s0)
   10a08:	00812403          	lw	s0,8(sp)
   10a0c:	01010113          	addi	sp,sp,16
   10a10:	00008067          	jalr	zero,0(ra)

00010a14 <__seofread>:
   10a14:	00000513          	addi	a0,zero,0
   10a18:	00008067          	jalr	zero,0(ra)

00010a1c <__swrite>:
   10a1c:	00c59783          	lh	a5,12(a1)
   10a20:	fe010113          	addi	sp,sp,-32
   10a24:	00068313          	addi	t1,a3,0
   10a28:	00112e23          	sw	ra,28(sp)
   10a2c:	1007f693          	andi	a3,a5,256
   10a30:	00058713          	addi	a4,a1,0
   10a34:	00060893          	addi	a7,a2,0
   10a38:	00050813          	addi	a6,a0,0
   10a3c:	02069863          	bne	a3,zero,10a6c <__swrite+0x50>
   10a40:	fffff6b7          	lui	a3,0xfffff
   10a44:	fff68693          	addi	a3,a3,-1 # ffffefff <__BSS_END__+0xfff4a5ab>
   10a48:	01c12083          	lw	ra,28(sp)
   10a4c:	00d7f7b3          	and	a5,a5,a3
   10a50:	00e71583          	lh	a1,14(a4)
   10a54:	00f71623          	sh	a5,12(a4)
   10a58:	00030693          	addi	a3,t1,0
   10a5c:	00088613          	addi	a2,a7,0
   10a60:	00080513          	addi	a0,a6,0
   10a64:	02010113          	addi	sp,sp,32
   10a68:	2b80006f          	jal	zero,10d20 <_write_r>
   10a6c:	00e59583          	lh	a1,14(a1)
   10a70:	00c12423          	sw	a2,8(sp)
   10a74:	00200693          	addi	a3,zero,2
   10a78:	00000613          	addi	a2,zero,0
   10a7c:	00612623          	sw	t1,12(sp)
   10a80:	00e12023          	sw	a4,0(sp)
   10a84:	00a12223          	sw	a0,4(sp)
   10a88:	1c8000ef          	jal	ra,10c50 <_lseek_r>
   10a8c:	00012703          	lw	a4,0(sp)
   10a90:	00c12303          	lw	t1,12(sp)
   10a94:	00812883          	lw	a7,8(sp)
   10a98:	00c71783          	lh	a5,12(a4)
   10a9c:	00412803          	lw	a6,4(sp)
   10aa0:	fa1ff06f          	jal	zero,10a40 <__swrite+0x24>

00010aa4 <__sseek>:
   10aa4:	ff010113          	addi	sp,sp,-16
   10aa8:	00812423          	sw	s0,8(sp)
   10aac:	00058413          	addi	s0,a1,0
   10ab0:	00e59583          	lh	a1,14(a1)
   10ab4:	00112623          	sw	ra,12(sp)
   10ab8:	198000ef          	jal	ra,10c50 <_lseek_r>
   10abc:	fff00713          	addi	a4,zero,-1
   10ac0:	00c41783          	lh	a5,12(s0)
   10ac4:	02e50263          	beq	a0,a4,10ae8 <__sseek+0x44>
   10ac8:	00001737          	lui	a4,0x1
   10acc:	00e7e7b3          	or	a5,a5,a4
   10ad0:	00c12083          	lw	ra,12(sp)
   10ad4:	04a42823          	sw	a0,80(s0)
   10ad8:	00f41623          	sh	a5,12(s0)
   10adc:	00812403          	lw	s0,8(sp)
   10ae0:	01010113          	addi	sp,sp,16
   10ae4:	00008067          	jalr	zero,0(ra)
   10ae8:	80050713          	addi	a4,a0,-2048
   10aec:	80070713          	addi	a4,a4,-2048 # 800 <exit-0xf8b4>
   10af0:	00e7f7b3          	and	a5,a5,a4
   10af4:	00c12083          	lw	ra,12(sp)
   10af8:	00f41623          	sh	a5,12(s0)
   10afc:	00812403          	lw	s0,8(sp)
   10b00:	01010113          	addi	sp,sp,16
   10b04:	00008067          	jalr	zero,0(ra)

00010b08 <__sclose>:
   10b08:	00e59583          	lh	a1,14(a1)
   10b0c:	0040006f          	jal	zero,10b10 <_close_r>

00010b10 <_close_r>:
   10b10:	ff010113          	addi	sp,sp,-16
   10b14:	00812423          	sw	s0,8(sp)
   10b18:	00912223          	sw	s1,4(sp)
   10b1c:	00050493          	addi	s1,a0,0
   10b20:	00058513          	addi	a0,a1,0
   10b24:	00112623          	sw	ra,12(sp)
   10b28:	f001ae23          	sw	zero,-228(gp) # b472c <errno>
   10b2c:	4080b0ef          	jal	ra,1bf34 <_close>
   10b30:	fff00793          	addi	a5,zero,-1
   10b34:	00f50c63          	beq	a0,a5,10b4c <_close_r+0x3c>
   10b38:	00c12083          	lw	ra,12(sp)
   10b3c:	00812403          	lw	s0,8(sp)
   10b40:	00412483          	lw	s1,4(sp)
   10b44:	01010113          	addi	sp,sp,16
   10b48:	00008067          	jalr	zero,0(ra)
   10b4c:	f1c1a783          	lw	a5,-228(gp) # b472c <errno>
   10b50:	fe0784e3          	beq	a5,zero,10b38 <_close_r+0x28>
   10b54:	00c12083          	lw	ra,12(sp)
   10b58:	00812403          	lw	s0,8(sp)
   10b5c:	00f4a023          	sw	a5,0(s1)
   10b60:	00412483          	lw	s1,4(sp)
   10b64:	01010113          	addi	sp,sp,16
   10b68:	00008067          	jalr	zero,0(ra)

00010b6c <_reclaim_reent>:
   10b6c:	f0c1a783          	lw	a5,-244(gp) # b471c <_impure_ptr>
   10b70:	0ca78e63          	beq	a5,a0,10c4c <_reclaim_reent+0xe0>
   10b74:	04452583          	lw	a1,68(a0)
   10b78:	fe010113          	addi	sp,sp,-32
   10b7c:	00912a23          	sw	s1,20(sp)
   10b80:	00112e23          	sw	ra,28(sp)
   10b84:	00812c23          	sw	s0,24(sp)
   10b88:	00050493          	addi	s1,a0,0
   10b8c:	04058863          	beq	a1,zero,10bdc <_reclaim_reent+0x70>
   10b90:	01212823          	sw	s2,16(sp)
   10b94:	01312623          	sw	s3,12(sp)
   10b98:	00000913          	addi	s2,zero,0
   10b9c:	08000993          	addi	s3,zero,128
   10ba0:	012587b3          	add	a5,a1,s2
   10ba4:	0007a403          	lw	s0,0(a5)
   10ba8:	00040e63          	beq	s0,zero,10bc4 <_reclaim_reent+0x58>
   10bac:	00040593          	addi	a1,s0,0
   10bb0:	00042403          	lw	s0,0(s0)
   10bb4:	00048513          	addi	a0,s1,0
   10bb8:	5ac000ef          	jal	ra,11164 <_free_r>
   10bbc:	fe0418e3          	bne	s0,zero,10bac <_reclaim_reent+0x40>
   10bc0:	0444a583          	lw	a1,68(s1)
   10bc4:	00490913          	addi	s2,s2,4
   10bc8:	fd391ce3          	bne	s2,s3,10ba0 <_reclaim_reent+0x34>
   10bcc:	00048513          	addi	a0,s1,0
   10bd0:	594000ef          	jal	ra,11164 <_free_r>
   10bd4:	01012903          	lw	s2,16(sp)
   10bd8:	00c12983          	lw	s3,12(sp)
   10bdc:	0384a583          	lw	a1,56(s1)
   10be0:	00058663          	beq	a1,zero,10bec <_reclaim_reent+0x80>
   10be4:	00048513          	addi	a0,s1,0
   10be8:	57c000ef          	jal	ra,11164 <_free_r>
   10bec:	0404a403          	lw	s0,64(s1)
   10bf0:	00040c63          	beq	s0,zero,10c08 <_reclaim_reent+0x9c>
   10bf4:	00040593          	addi	a1,s0,0
   10bf8:	00042403          	lw	s0,0(s0)
   10bfc:	00048513          	addi	a0,s1,0
   10c00:	564000ef          	jal	ra,11164 <_free_r>
   10c04:	fe0418e3          	bne	s0,zero,10bf4 <_reclaim_reent+0x88>
   10c08:	04c4a583          	lw	a1,76(s1)
   10c0c:	00058663          	beq	a1,zero,10c18 <_reclaim_reent+0xac>
   10c10:	00048513          	addi	a0,s1,0
   10c14:	550000ef          	jal	ra,11164 <_free_r>
   10c18:	0344a783          	lw	a5,52(s1)
   10c1c:	00078e63          	beq	a5,zero,10c38 <_reclaim_reent+0xcc>
   10c20:	01812403          	lw	s0,24(sp)
   10c24:	01c12083          	lw	ra,28(sp)
   10c28:	00048513          	addi	a0,s1,0
   10c2c:	01412483          	lw	s1,20(sp)
   10c30:	02010113          	addi	sp,sp,32
   10c34:	00078067          	jalr	zero,0(a5)
   10c38:	01c12083          	lw	ra,28(sp)
   10c3c:	01812403          	lw	s0,24(sp)
   10c40:	01412483          	lw	s1,20(sp)
   10c44:	02010113          	addi	sp,sp,32
   10c48:	00008067          	jalr	zero,0(ra)
   10c4c:	00008067          	jalr	zero,0(ra)

00010c50 <_lseek_r>:
   10c50:	ff010113          	addi	sp,sp,-16
   10c54:	00058793          	addi	a5,a1,0
   10c58:	00812423          	sw	s0,8(sp)
   10c5c:	00912223          	sw	s1,4(sp)
   10c60:	00060593          	addi	a1,a2,0
   10c64:	00050493          	addi	s1,a0,0
   10c68:	00068613          	addi	a2,a3,0
   10c6c:	00078513          	addi	a0,a5,0
   10c70:	00112623          	sw	ra,12(sp)
   10c74:	f001ae23          	sw	zero,-228(gp) # b472c <errno>
   10c78:	3f80b0ef          	jal	ra,1c070 <_lseek>
   10c7c:	fff00793          	addi	a5,zero,-1
   10c80:	00f50c63          	beq	a0,a5,10c98 <_lseek_r+0x48>
   10c84:	00c12083          	lw	ra,12(sp)
   10c88:	00812403          	lw	s0,8(sp)
   10c8c:	00412483          	lw	s1,4(sp)
   10c90:	01010113          	addi	sp,sp,16
   10c94:	00008067          	jalr	zero,0(ra)
   10c98:	f1c1a783          	lw	a5,-228(gp) # b472c <errno>
   10c9c:	fe0784e3          	beq	a5,zero,10c84 <_lseek_r+0x34>
   10ca0:	00c12083          	lw	ra,12(sp)
   10ca4:	00812403          	lw	s0,8(sp)
   10ca8:	00f4a023          	sw	a5,0(s1)
   10cac:	00412483          	lw	s1,4(sp)
   10cb0:	01010113          	addi	sp,sp,16
   10cb4:	00008067          	jalr	zero,0(ra)

00010cb8 <_read_r>:
   10cb8:	ff010113          	addi	sp,sp,-16
   10cbc:	00058793          	addi	a5,a1,0
   10cc0:	00812423          	sw	s0,8(sp)
   10cc4:	00912223          	sw	s1,4(sp)
   10cc8:	00060593          	addi	a1,a2,0
   10ccc:	00050493          	addi	s1,a0,0
   10cd0:	00068613          	addi	a2,a3,0
   10cd4:	00078513          	addi	a0,a5,0
   10cd8:	00112623          	sw	ra,12(sp)
   10cdc:	f001ae23          	sw	zero,-228(gp) # b472c <errno>
   10ce0:	3d00b0ef          	jal	ra,1c0b0 <_read>
   10ce4:	fff00793          	addi	a5,zero,-1
   10ce8:	00f50c63          	beq	a0,a5,10d00 <_read_r+0x48>
   10cec:	00c12083          	lw	ra,12(sp)
   10cf0:	00812403          	lw	s0,8(sp)
   10cf4:	00412483          	lw	s1,4(sp)
   10cf8:	01010113          	addi	sp,sp,16
   10cfc:	00008067          	jalr	zero,0(ra)
   10d00:	f1c1a783          	lw	a5,-228(gp) # b472c <errno>
   10d04:	fe0784e3          	beq	a5,zero,10cec <_read_r+0x34>
   10d08:	00c12083          	lw	ra,12(sp)
   10d0c:	00812403          	lw	s0,8(sp)
   10d10:	00f4a023          	sw	a5,0(s1)
   10d14:	00412483          	lw	s1,4(sp)
   10d18:	01010113          	addi	sp,sp,16
   10d1c:	00008067          	jalr	zero,0(ra)

00010d20 <_write_r>:
   10d20:	ff010113          	addi	sp,sp,-16
   10d24:	00058793          	addi	a5,a1,0
   10d28:	00812423          	sw	s0,8(sp)
   10d2c:	00912223          	sw	s1,4(sp)
   10d30:	00060593          	addi	a1,a2,0
   10d34:	00050493          	addi	s1,a0,0
   10d38:	00068613          	addi	a2,a3,0
   10d3c:	00078513          	addi	a0,a5,0
   10d40:	00112623          	sw	ra,12(sp)
   10d44:	f001ae23          	sw	zero,-228(gp) # b472c <errno>
   10d48:	4200b0ef          	jal	ra,1c168 <_write>
   10d4c:	fff00793          	addi	a5,zero,-1
   10d50:	00f50c63          	beq	a0,a5,10d68 <_write_r+0x48>
   10d54:	00c12083          	lw	ra,12(sp)
   10d58:	00812403          	lw	s0,8(sp)
   10d5c:	00412483          	lw	s1,4(sp)
   10d60:	01010113          	addi	sp,sp,16
   10d64:	00008067          	jalr	zero,0(ra)
   10d68:	f1c1a783          	lw	a5,-228(gp) # b472c <errno>
   10d6c:	fe0784e3          	beq	a5,zero,10d54 <_write_r+0x34>
   10d70:	00c12083          	lw	ra,12(sp)
   10d74:	00812403          	lw	s0,8(sp)
   10d78:	00f4a023          	sw	a5,0(s1)
   10d7c:	00412483          	lw	s1,4(sp)
   10d80:	01010113          	addi	sp,sp,16
   10d84:	00008067          	jalr	zero,0(ra)

00010d88 <__libc_init_array>:
   10d88:	ff010113          	addi	sp,sp,-16
   10d8c:	00812423          	sw	s0,8(sp)
   10d90:	01212023          	sw	s2,0(sp)
   10d94:	000b4437          	lui	s0,0xb4
   10d98:	000b4937          	lui	s2,0xb4
   10d9c:	00112623          	sw	ra,12(sp)
   10da0:	00912223          	sw	s1,4(sp)
   10da4:	00090913          	addi	s2,s2,0 # b4000 <__init_array_start>
   10da8:	00040413          	addi	s0,s0,0 # b4000 <__init_array_start>
   10dac:	02890263          	beq	s2,s0,10dd0 <__libc_init_array+0x48>
   10db0:	40890933          	sub	s2,s2,s0
   10db4:	40295913          	srai	s2,s2,0x2
   10db8:	00000493          	addi	s1,zero,0
   10dbc:	00042783          	lw	a5,0(s0)
   10dc0:	00148493          	addi	s1,s1,1
   10dc4:	00440413          	addi	s0,s0,4
   10dc8:	000780e7          	jalr	ra,0(a5)
   10dcc:	ff24e8e3          	bltu	s1,s2,10dbc <__libc_init_array+0x34>
   10dd0:	000b4937          	lui	s2,0xb4
   10dd4:	000b4437          	lui	s0,0xb4
   10dd8:	00890913          	addi	s2,s2,8 # b4008 <__do_global_dtors_aux_fini_array_entry>
   10ddc:	00040413          	addi	s0,s0,0 # b4000 <__init_array_start>
   10de0:	02890263          	beq	s2,s0,10e04 <__libc_init_array+0x7c>
   10de4:	40890933          	sub	s2,s2,s0
   10de8:	40295913          	srai	s2,s2,0x2
   10dec:	00000493          	addi	s1,zero,0
   10df0:	00042783          	lw	a5,0(s0)
   10df4:	00148493          	addi	s1,s1,1
   10df8:	00440413          	addi	s0,s0,4
   10dfc:	000780e7          	jalr	ra,0(a5)
   10e00:	ff24e8e3          	bltu	s1,s2,10df0 <__libc_init_array+0x68>
   10e04:	00c12083          	lw	ra,12(sp)
   10e08:	00812403          	lw	s0,8(sp)
   10e0c:	00412483          	lw	s1,4(sp)
   10e10:	00012903          	lw	s2,0(sp)
   10e14:	01010113          	addi	sp,sp,16
   10e18:	00008067          	jalr	zero,0(ra)

00010e1c <memset>:
   10e1c:	00f00313          	addi	t1,zero,15
   10e20:	00050713          	addi	a4,a0,0
   10e24:	02c37e63          	bgeu	t1,a2,10e60 <memset+0x44>
   10e28:	00f77793          	andi	a5,a4,15
   10e2c:	0a079063          	bne	a5,zero,10ecc <memset+0xb0>
   10e30:	08059263          	bne	a1,zero,10eb4 <memset+0x98>
   10e34:	ff067693          	andi	a3,a2,-16
   10e38:	00f67613          	andi	a2,a2,15
   10e3c:	00e686b3          	add	a3,a3,a4
   10e40:	00b72023          	sw	a1,0(a4)
   10e44:	00b72223          	sw	a1,4(a4)
   10e48:	00b72423          	sw	a1,8(a4)
   10e4c:	00b72623          	sw	a1,12(a4)
   10e50:	01070713          	addi	a4,a4,16
   10e54:	fed766e3          	bltu	a4,a3,10e40 <memset+0x24>
   10e58:	00061463          	bne	a2,zero,10e60 <memset+0x44>
   10e5c:	00008067          	jalr	zero,0(ra)
   10e60:	40c306b3          	sub	a3,t1,a2
   10e64:	00269693          	slli	a3,a3,0x2
   10e68:	00000297          	auipc	t0,0x0
   10e6c:	005686b3          	add	a3,a3,t0
   10e70:	00c68067          	jalr	zero,12(a3)
   10e74:	00b70723          	sb	a1,14(a4)
   10e78:	00b706a3          	sb	a1,13(a4)
   10e7c:	00b70623          	sb	a1,12(a4)
   10e80:	00b705a3          	sb	a1,11(a4)
   10e84:	00b70523          	sb	a1,10(a4)
   10e88:	00b704a3          	sb	a1,9(a4)
   10e8c:	00b70423          	sb	a1,8(a4)
   10e90:	00b703a3          	sb	a1,7(a4)
   10e94:	00b70323          	sb	a1,6(a4)
   10e98:	00b702a3          	sb	a1,5(a4)
   10e9c:	00b70223          	sb	a1,4(a4)
   10ea0:	00b701a3          	sb	a1,3(a4)
   10ea4:	00b70123          	sb	a1,2(a4)
   10ea8:	00b700a3          	sb	a1,1(a4)
   10eac:	00b70023          	sb	a1,0(a4)
   10eb0:	00008067          	jalr	zero,0(ra)
   10eb4:	0ff5f593          	andi	a1,a1,255
   10eb8:	00859693          	slli	a3,a1,0x8
   10ebc:	00d5e5b3          	or	a1,a1,a3
   10ec0:	01059693          	slli	a3,a1,0x10
   10ec4:	00d5e5b3          	or	a1,a1,a3
   10ec8:	f6dff06f          	jal	zero,10e34 <memset+0x18>
   10ecc:	00279693          	slli	a3,a5,0x2
   10ed0:	00000297          	auipc	t0,0x0
   10ed4:	005686b3          	add	a3,a3,t0
   10ed8:	00008293          	addi	t0,ra,0
   10edc:	fa0680e7          	jalr	ra,-96(a3)
   10ee0:	00028093          	addi	ra,t0,0 # 10ed0 <memset+0xb4>
   10ee4:	ff078793          	addi	a5,a5,-16
   10ee8:	40f70733          	sub	a4,a4,a5
   10eec:	00f60633          	add	a2,a2,a5
   10ef0:	f6c378e3          	bgeu	t1,a2,10e60 <memset+0x44>
   10ef4:	f3dff06f          	jal	zero,10e30 <memset+0x14>

00010ef8 <__call_exitprocs>:
   10ef8:	fd010113          	addi	sp,sp,-48
   10efc:	01412c23          	sw	s4,24(sp)
   10f00:	03212023          	sw	s2,32(sp)
   10f04:	f201a903          	lw	s2,-224(gp) # b4730 <__atexit>
   10f08:	02112623          	sw	ra,44(sp)
   10f0c:	06090c63          	beq	s2,zero,10f84 <__call_exitprocs+0x8c>
   10f10:	01312e23          	sw	s3,28(sp)
   10f14:	01512a23          	sw	s5,20(sp)
   10f18:	01612823          	sw	s6,16(sp)
   10f1c:	01712623          	sw	s7,12(sp)
   10f20:	02812423          	sw	s0,40(sp)
   10f24:	02912223          	sw	s1,36(sp)
   10f28:	01812423          	sw	s8,8(sp)
   10f2c:	00050b13          	addi	s6,a0,0
   10f30:	00058b93          	addi	s7,a1,0
   10f34:	fff00993          	addi	s3,zero,-1
   10f38:	00100a93          	addi	s5,zero,1
   10f3c:	00492483          	lw	s1,4(s2)
   10f40:	fff48413          	addi	s0,s1,-1
   10f44:	02044263          	blt	s0,zero,10f68 <__call_exitprocs+0x70>
   10f48:	00249493          	slli	s1,s1,0x2
   10f4c:	009904b3          	add	s1,s2,s1
   10f50:	040b8463          	beq	s7,zero,10f98 <__call_exitprocs+0xa0>
   10f54:	1044a783          	lw	a5,260(s1)
   10f58:	05778063          	beq	a5,s7,10f98 <__call_exitprocs+0xa0>
   10f5c:	fff40413          	addi	s0,s0,-1
   10f60:	ffc48493          	addi	s1,s1,-4
   10f64:	ff3418e3          	bne	s0,s3,10f54 <__call_exitprocs+0x5c>
   10f68:	02812403          	lw	s0,40(sp)
   10f6c:	02412483          	lw	s1,36(sp)
   10f70:	01c12983          	lw	s3,28(sp)
   10f74:	01412a83          	lw	s5,20(sp)
   10f78:	01012b03          	lw	s6,16(sp)
   10f7c:	00c12b83          	lw	s7,12(sp)
   10f80:	00812c03          	lw	s8,8(sp)
   10f84:	02c12083          	lw	ra,44(sp)
   10f88:	02012903          	lw	s2,32(sp)
   10f8c:	01812a03          	lw	s4,24(sp)
   10f90:	03010113          	addi	sp,sp,48
   10f94:	00008067          	jalr	zero,0(ra)
   10f98:	00492783          	lw	a5,4(s2)
   10f9c:	0044a683          	lw	a3,4(s1)
   10fa0:	fff78793          	addi	a5,a5,-1
   10fa4:	06878a63          	beq	a5,s0,11018 <__call_exitprocs+0x120>
   10fa8:	0004a223          	sw	zero,4(s1)
   10fac:	02068663          	beq	a3,zero,10fd8 <__call_exitprocs+0xe0>
   10fb0:	18892783          	lw	a5,392(s2)
   10fb4:	008a9733          	sll	a4,s5,s0
   10fb8:	00492c03          	lw	s8,4(s2)
   10fbc:	00f777b3          	and	a5,a4,a5
   10fc0:	02079463          	bne	a5,zero,10fe8 <__call_exitprocs+0xf0>
   10fc4:	000680e7          	jalr	ra,0(a3)
   10fc8:	00492703          	lw	a4,4(s2)
   10fcc:	f201a783          	lw	a5,-224(gp) # b4730 <__atexit>
   10fd0:	03871e63          	bne	a4,s8,1100c <__call_exitprocs+0x114>
   10fd4:	03279c63          	bne	a5,s2,1100c <__call_exitprocs+0x114>
   10fd8:	fff40413          	addi	s0,s0,-1
   10fdc:	ffc48493          	addi	s1,s1,-4
   10fe0:	f73418e3          	bne	s0,s3,10f50 <__call_exitprocs+0x58>
   10fe4:	f85ff06f          	jal	zero,10f68 <__call_exitprocs+0x70>
   10fe8:	18c92783          	lw	a5,396(s2)
   10fec:	0844a583          	lw	a1,132(s1)
   10ff0:	00f77733          	and	a4,a4,a5
   10ff4:	02071663          	bne	a4,zero,11020 <__call_exitprocs+0x128>
   10ff8:	000b0513          	addi	a0,s6,0
   10ffc:	000680e7          	jalr	ra,0(a3)
   11000:	00492703          	lw	a4,4(s2)
   11004:	f201a783          	lw	a5,-224(gp) # b4730 <__atexit>
   11008:	fd8706e3          	beq	a4,s8,10fd4 <__call_exitprocs+0xdc>
   1100c:	f4078ee3          	beq	a5,zero,10f68 <__call_exitprocs+0x70>
   11010:	00078913          	addi	s2,a5,0
   11014:	f29ff06f          	jal	zero,10f3c <__call_exitprocs+0x44>
   11018:	00892223          	sw	s0,4(s2)
   1101c:	f91ff06f          	jal	zero,10fac <__call_exitprocs+0xb4>
   11020:	00058513          	addi	a0,a1,0
   11024:	000680e7          	jalr	ra,0(a3)
   11028:	fa1ff06f          	jal	zero,10fc8 <__call_exitprocs+0xd0>

0001102c <atexit>:
   1102c:	00050593          	addi	a1,a0,0
   11030:	00000693          	addi	a3,zero,0
   11034:	00000613          	addi	a2,zero,0
   11038:	00000513          	addi	a0,zero,0
   1103c:	7290406f          	jal	zero,15f64 <__register_exitproc>

00011040 <_malloc_trim_r>:
   11040:	fe010113          	addi	sp,sp,-32
   11044:	01212823          	sw	s2,16(sp)
   11048:	000b4937          	lui	s2,0xb4
   1104c:	00812c23          	sw	s0,24(sp)
   11050:	00912a23          	sw	s1,20(sp)
   11054:	01312623          	sw	s3,12(sp)
   11058:	00058413          	addi	s0,a1,0
   1105c:	00112e23          	sw	ra,28(sp)
   11060:	00050993          	addi	s3,a0,0
   11064:	14090913          	addi	s2,s2,320 # b4140 <__malloc_av_>
   11068:	45d000ef          	jal	ra,11cc4 <__malloc_lock>
   1106c:	00892783          	lw	a5,8(s2)
   11070:	00001737          	lui	a4,0x1
   11074:	0047a483          	lw	s1,4(a5)
   11078:	ffc4f493          	andi	s1,s1,-4
   1107c:	7ff48793          	addi	a5,s1,2047
   11080:	7f078793          	addi	a5,a5,2032
   11084:	40878433          	sub	s0,a5,s0
   11088:	00c45413          	srli	s0,s0,0xc
   1108c:	fff40413          	addi	s0,s0,-1
   11090:	00c41413          	slli	s0,s0,0xc
   11094:	00e44e63          	blt	s0,a4,110b0 <_malloc_trim_r+0x70>
   11098:	00000593          	addi	a1,zero,0
   1109c:	00098513          	addi	a0,s3,0
   110a0:	1b1040ef          	jal	ra,15a50 <_sbrk_r>
   110a4:	00892783          	lw	a5,8(s2)
   110a8:	009787b3          	add	a5,a5,s1
   110ac:	02f50663          	beq	a0,a5,110d8 <_malloc_trim_r+0x98>
   110b0:	00098513          	addi	a0,s3,0
   110b4:	415000ef          	jal	ra,11cc8 <__malloc_unlock>
   110b8:	01c12083          	lw	ra,28(sp)
   110bc:	01812403          	lw	s0,24(sp)
   110c0:	01412483          	lw	s1,20(sp)
   110c4:	01012903          	lw	s2,16(sp)
   110c8:	00c12983          	lw	s3,12(sp)
   110cc:	00000513          	addi	a0,zero,0
   110d0:	02010113          	addi	sp,sp,32
   110d4:	00008067          	jalr	zero,0(ra)
   110d8:	408005b3          	sub	a1,zero,s0
   110dc:	00098513          	addi	a0,s3,0
   110e0:	171040ef          	jal	ra,15a50 <_sbrk_r>
   110e4:	fff00793          	addi	a5,zero,-1
   110e8:	04f50463          	beq	a0,a5,11130 <_malloc_trim_r+0xf0>
   110ec:	00892683          	lw	a3,8(s2)
   110f0:	08c1a783          	lw	a5,140(gp) # b489c <__malloc_current_mallinfo>
   110f4:	408484b3          	sub	s1,s1,s0
   110f8:	0014e493          	ori	s1,s1,1
   110fc:	00098513          	addi	a0,s3,0
   11100:	408787b3          	sub	a5,a5,s0
   11104:	0096a223          	sw	s1,4(a3)
   11108:	08f1a623          	sw	a5,140(gp) # b489c <__malloc_current_mallinfo>
   1110c:	3bd000ef          	jal	ra,11cc8 <__malloc_unlock>
   11110:	01c12083          	lw	ra,28(sp)
   11114:	01812403          	lw	s0,24(sp)
   11118:	01412483          	lw	s1,20(sp)
   1111c:	01012903          	lw	s2,16(sp)
   11120:	00c12983          	lw	s3,12(sp)
   11124:	00100513          	addi	a0,zero,1
   11128:	02010113          	addi	sp,sp,32
   1112c:	00008067          	jalr	zero,0(ra)
   11130:	00000593          	addi	a1,zero,0
   11134:	00098513          	addi	a0,s3,0
   11138:	119040ef          	jal	ra,15a50 <_sbrk_r>
   1113c:	00892703          	lw	a4,8(s2)
   11140:	00f00693          	addi	a3,zero,15
   11144:	40e507b3          	sub	a5,a0,a4
   11148:	f6f6d4e3          	bge	a3,a5,110b0 <_malloc_trim_r+0x70>
   1114c:	f101a603          	lw	a2,-240(gp) # b4720 <__malloc_sbrk_base>
   11150:	0017e793          	ori	a5,a5,1
   11154:	40c50533          	sub	a0,a0,a2
   11158:	00f72223          	sw	a5,4(a4) # 1004 <exit-0xf0b0>
   1115c:	08a1a623          	sw	a0,140(gp) # b489c <__malloc_current_mallinfo>
   11160:	f51ff06f          	jal	zero,110b0 <_malloc_trim_r+0x70>

00011164 <_free_r>:
   11164:	12058463          	beq	a1,zero,1128c <_free_r+0x128>
   11168:	fe010113          	addi	sp,sp,-32
   1116c:	00812c23          	sw	s0,24(sp)
   11170:	00b12623          	sw	a1,12(sp)
   11174:	00050413          	addi	s0,a0,0
   11178:	00112e23          	sw	ra,28(sp)
   1117c:	349000ef          	jal	ra,11cc4 <__malloc_lock>
   11180:	00c12583          	lw	a1,12(sp)
   11184:	000b4837          	lui	a6,0xb4
   11188:	14080813          	addi	a6,a6,320 # b4140 <__malloc_av_>
   1118c:	ffc5a503          	lw	a0,-4(a1)
   11190:	ff858713          	addi	a4,a1,-8
   11194:	00882883          	lw	a7,8(a6)
   11198:	ffe57793          	andi	a5,a0,-2
   1119c:	00f70633          	add	a2,a4,a5
   111a0:	00462683          	lw	a3,4(a2)
   111a4:	00157313          	andi	t1,a0,1
   111a8:	ffc6f693          	andi	a3,a3,-4
   111ac:	18c88863          	beq	a7,a2,1133c <_free_r+0x1d8>
   111b0:	00d62223          	sw	a3,4(a2)
   111b4:	00d608b3          	add	a7,a2,a3
   111b8:	0048a883          	lw	a7,4(a7)
   111bc:	0018f893          	andi	a7,a7,1
   111c0:	08031a63          	bne	t1,zero,11254 <_free_r+0xf0>
   111c4:	ff85a303          	lw	t1,-8(a1)
   111c8:	000b45b7          	lui	a1,0xb4
   111cc:	14858593          	addi	a1,a1,328 # b4148 <__malloc_av_+0x8>
   111d0:	40670733          	sub	a4,a4,t1
   111d4:	00872503          	lw	a0,8(a4)
   111d8:	006787b3          	add	a5,a5,t1
   111dc:	12b50a63          	beq	a0,a1,11310 <_free_r+0x1ac>
   111e0:	00c72303          	lw	t1,12(a4)
   111e4:	00652623          	sw	t1,12(a0)
   111e8:	00a32423          	sw	a0,8(t1)
   111ec:	18088c63          	beq	a7,zero,11384 <_free_r+0x220>
   111f0:	0017e693          	ori	a3,a5,1
   111f4:	00d72223          	sw	a3,4(a4)
   111f8:	00f62023          	sw	a5,0(a2)
   111fc:	1ff00693          	addi	a3,zero,511
   11200:	0af6e263          	bltu	a3,a5,112a4 <_free_r+0x140>
   11204:	ff87f693          	andi	a3,a5,-8
   11208:	00868693          	addi	a3,a3,8
   1120c:	00482583          	lw	a1,4(a6)
   11210:	00d806b3          	add	a3,a6,a3
   11214:	0006a603          	lw	a2,0(a3)
   11218:	0057d513          	srli	a0,a5,0x5
   1121c:	00100793          	addi	a5,zero,1
   11220:	00a797b3          	sll	a5,a5,a0
   11224:	00b7e7b3          	or	a5,a5,a1
   11228:	ff868593          	addi	a1,a3,-8
   1122c:	00c72423          	sw	a2,8(a4)
   11230:	00b72623          	sw	a1,12(a4)
   11234:	00f82223          	sw	a5,4(a6)
   11238:	00e6a023          	sw	a4,0(a3)
   1123c:	00e62623          	sw	a4,12(a2)
   11240:	00040513          	addi	a0,s0,0
   11244:	01812403          	lw	s0,24(sp)
   11248:	01c12083          	lw	ra,28(sp)
   1124c:	02010113          	addi	sp,sp,32
   11250:	2790006f          	jal	zero,11cc8 <__malloc_unlock>
   11254:	02089e63          	bne	a7,zero,11290 <_free_r+0x12c>
   11258:	000b45b7          	lui	a1,0xb4
   1125c:	00d787b3          	add	a5,a5,a3
   11260:	14858593          	addi	a1,a1,328 # b4148 <__malloc_av_+0x8>
   11264:	00862683          	lw	a3,8(a2)
   11268:	0017e893          	ori	a7,a5,1
   1126c:	00f70533          	add	a0,a4,a5
   11270:	16b68063          	beq	a3,a1,113d0 <_free_r+0x26c>
   11274:	00c62603          	lw	a2,12(a2)
   11278:	00c6a623          	sw	a2,12(a3)
   1127c:	00d62423          	sw	a3,8(a2)
   11280:	01172223          	sw	a7,4(a4)
   11284:	00f52023          	sw	a5,0(a0)
   11288:	f75ff06f          	jal	zero,111fc <_free_r+0x98>
   1128c:	00008067          	jalr	zero,0(ra)
   11290:	00156513          	ori	a0,a0,1
   11294:	fea5ae23          	sw	a0,-4(a1)
   11298:	00f62023          	sw	a5,0(a2)
   1129c:	1ff00693          	addi	a3,zero,511
   112a0:	f6f6f2e3          	bgeu	a3,a5,11204 <_free_r+0xa0>
   112a4:	0097d693          	srli	a3,a5,0x9
   112a8:	00400613          	addi	a2,zero,4
   112ac:	0ed66063          	bltu	a2,a3,1138c <_free_r+0x228>
   112b0:	0067d693          	srli	a3,a5,0x6
   112b4:	03968593          	addi	a1,a3,57
   112b8:	00359593          	slli	a1,a1,0x3
   112bc:	03868613          	addi	a2,a3,56
   112c0:	00b805b3          	add	a1,a6,a1
   112c4:	0005a683          	lw	a3,0(a1)
   112c8:	ff858593          	addi	a1,a1,-8
   112cc:	00d59863          	bne	a1,a3,112dc <_free_r+0x178>
   112d0:	11c0006f          	jal	zero,113ec <_free_r+0x288>
   112d4:	0086a683          	lw	a3,8(a3)
   112d8:	00d58863          	beq	a1,a3,112e8 <_free_r+0x184>
   112dc:	0046a603          	lw	a2,4(a3)
   112e0:	ffc67613          	andi	a2,a2,-4
   112e4:	fec7e8e3          	bltu	a5,a2,112d4 <_free_r+0x170>
   112e8:	00c6a583          	lw	a1,12(a3)
   112ec:	00b72623          	sw	a1,12(a4)
   112f0:	00d72423          	sw	a3,8(a4)
   112f4:	00040513          	addi	a0,s0,0
   112f8:	01812403          	lw	s0,24(sp)
   112fc:	01c12083          	lw	ra,28(sp)
   11300:	00e5a423          	sw	a4,8(a1)
   11304:	00e6a623          	sw	a4,12(a3)
   11308:	02010113          	addi	sp,sp,32
   1130c:	1bd0006f          	jal	zero,11cc8 <__malloc_unlock>
   11310:	0a089063          	bne	a7,zero,113b0 <_free_r+0x24c>
   11314:	00c62583          	lw	a1,12(a2)
   11318:	00862603          	lw	a2,8(a2)
   1131c:	00f686b3          	add	a3,a3,a5
   11320:	0016e793          	ori	a5,a3,1
   11324:	00b62623          	sw	a1,12(a2)
   11328:	00c5a423          	sw	a2,8(a1)
   1132c:	00f72223          	sw	a5,4(a4)
   11330:	00d70733          	add	a4,a4,a3
   11334:	00d72023          	sw	a3,0(a4)
   11338:	f09ff06f          	jal	zero,11240 <_free_r+0xdc>
   1133c:	00d786b3          	add	a3,a5,a3
   11340:	02031063          	bne	t1,zero,11360 <_free_r+0x1fc>
   11344:	ff85a783          	lw	a5,-8(a1)
   11348:	40f70733          	sub	a4,a4,a5
   1134c:	00872603          	lw	a2,8(a4)
   11350:	00f686b3          	add	a3,a3,a5
   11354:	00c72783          	lw	a5,12(a4)
   11358:	00f62623          	sw	a5,12(a2)
   1135c:	00c7a423          	sw	a2,8(a5)
   11360:	0016e613          	ori	a2,a3,1
   11364:	f141a783          	lw	a5,-236(gp) # b4724 <__malloc_trim_threshold>
   11368:	00c72223          	sw	a2,4(a4)
   1136c:	00e82423          	sw	a4,8(a6)
   11370:	ecf6e8e3          	bltu	a3,a5,11240 <_free_r+0xdc>
   11374:	f2c1a583          	lw	a1,-212(gp) # b473c <__malloc_top_pad>
   11378:	00040513          	addi	a0,s0,0
   1137c:	cc5ff0ef          	jal	ra,11040 <_malloc_trim_r>
   11380:	ec1ff06f          	jal	zero,11240 <_free_r+0xdc>
   11384:	00d787b3          	add	a5,a5,a3
   11388:	eddff06f          	jal	zero,11264 <_free_r+0x100>
   1138c:	01400613          	addi	a2,zero,20
   11390:	02d67863          	bgeu	a2,a3,113c0 <_free_r+0x25c>
   11394:	05400613          	addi	a2,zero,84
   11398:	06d66863          	bltu	a2,a3,11408 <_free_r+0x2a4>
   1139c:	00c7d693          	srli	a3,a5,0xc
   113a0:	06f68593          	addi	a1,a3,111
   113a4:	00359593          	slli	a1,a1,0x3
   113a8:	06e68613          	addi	a2,a3,110
   113ac:	f15ff06f          	jal	zero,112c0 <_free_r+0x15c>
   113b0:	0017e693          	ori	a3,a5,1
   113b4:	00d72223          	sw	a3,4(a4)
   113b8:	00f62023          	sw	a5,0(a2)
   113bc:	e85ff06f          	jal	zero,11240 <_free_r+0xdc>
   113c0:	05c68593          	addi	a1,a3,92
   113c4:	00359593          	slli	a1,a1,0x3
   113c8:	05b68613          	addi	a2,a3,91
   113cc:	ef5ff06f          	jal	zero,112c0 <_free_r+0x15c>
   113d0:	00e82a23          	sw	a4,20(a6)
   113d4:	00e82823          	sw	a4,16(a6)
   113d8:	00b72623          	sw	a1,12(a4)
   113dc:	00b72423          	sw	a1,8(a4)
   113e0:	01172223          	sw	a7,4(a4)
   113e4:	00f52023          	sw	a5,0(a0)
   113e8:	e59ff06f          	jal	zero,11240 <_free_r+0xdc>
   113ec:	00482503          	lw	a0,4(a6)
   113f0:	40265613          	srai	a2,a2,0x2
   113f4:	00100793          	addi	a5,zero,1
   113f8:	00c797b3          	sll	a5,a5,a2
   113fc:	00a7e7b3          	or	a5,a5,a0
   11400:	00f82223          	sw	a5,4(a6)
   11404:	ee9ff06f          	jal	zero,112ec <_free_r+0x188>
   11408:	15400613          	addi	a2,zero,340
   1140c:	00d66c63          	bltu	a2,a3,11424 <_free_r+0x2c0>
   11410:	00f7d693          	srli	a3,a5,0xf
   11414:	07868593          	addi	a1,a3,120
   11418:	00359593          	slli	a1,a1,0x3
   1141c:	07768613          	addi	a2,a3,119
   11420:	ea1ff06f          	jal	zero,112c0 <_free_r+0x15c>
   11424:	55400613          	addi	a2,zero,1364
   11428:	00d66c63          	bltu	a2,a3,11440 <_free_r+0x2dc>
   1142c:	0127d693          	srli	a3,a5,0x12
   11430:	07d68593          	addi	a1,a3,125
   11434:	00359593          	slli	a1,a1,0x3
   11438:	07c68613          	addi	a2,a3,124
   1143c:	e85ff06f          	jal	zero,112c0 <_free_r+0x15c>
   11440:	3f800593          	addi	a1,zero,1016
   11444:	07e00613          	addi	a2,zero,126
   11448:	e79ff06f          	jal	zero,112c0 <_free_r+0x15c>

0001144c <_malloc_r>:
   1144c:	fc010113          	addi	sp,sp,-64
   11450:	02812c23          	sw	s0,56(sp)
   11454:	02112e23          	sw	ra,60(sp)
   11458:	00b58793          	addi	a5,a1,11
   1145c:	01600713          	addi	a4,zero,22
   11460:	00050413          	addi	s0,a0,0
   11464:	08f76e63          	bltu	a4,a5,11500 <_malloc_r+0xb4>
   11468:	01000693          	addi	a3,zero,16
   1146c:	06b6ec63          	bltu	a3,a1,114e4 <_malloc_r+0x98>
   11470:	055000ef          	jal	ra,11cc4 <__malloc_lock>
   11474:	01000693          	addi	a3,zero,16
   11478:	01800713          	addi	a4,zero,24
   1147c:	00200893          	addi	a7,zero,2
   11480:	000b4837          	lui	a6,0xb4
   11484:	14080813          	addi	a6,a6,320 # b4140 <__malloc_av_>
   11488:	00e80733          	add	a4,a6,a4
   1148c:	00472783          	lw	a5,4(a4)
   11490:	ff870613          	addi	a2,a4,-8
   11494:	44c78c63          	beq	a5,a2,118ec <_malloc_r+0x4a0>
   11498:	0047a703          	lw	a4,4(a5)
   1149c:	00c7a603          	lw	a2,12(a5)
   114a0:	0087a583          	lw	a1,8(a5)
   114a4:	ffc77713          	andi	a4,a4,-4
   114a8:	00e78733          	add	a4,a5,a4
   114ac:	00472683          	lw	a3,4(a4)
   114b0:	00c5a623          	sw	a2,12(a1)
   114b4:	00f12623          	sw	a5,12(sp)
   114b8:	00b62423          	sw	a1,8(a2)
   114bc:	0016e693          	ori	a3,a3,1
   114c0:	00040513          	addi	a0,s0,0
   114c4:	00d72223          	sw	a3,4(a4)
   114c8:	001000ef          	jal	ra,11cc8 <__malloc_unlock>
   114cc:	00c12783          	lw	a5,12(sp)
   114d0:	03c12083          	lw	ra,60(sp)
   114d4:	03812403          	lw	s0,56(sp)
   114d8:	00878513          	addi	a0,a5,8
   114dc:	04010113          	addi	sp,sp,64
   114e0:	00008067          	jalr	zero,0(ra)
   114e4:	00c00793          	addi	a5,zero,12
   114e8:	00f42023          	sw	a5,0(s0)
   114ec:	00000513          	addi	a0,zero,0
   114f0:	03c12083          	lw	ra,60(sp)
   114f4:	03812403          	lw	s0,56(sp)
   114f8:	04010113          	addi	sp,sp,64
   114fc:	00008067          	jalr	zero,0(ra)
   11500:	ff87f693          	andi	a3,a5,-8
   11504:	fe07c0e3          	blt	a5,zero,114e4 <_malloc_r+0x98>
   11508:	fcb6eee3          	bltu	a3,a1,114e4 <_malloc_r+0x98>
   1150c:	00d12623          	sw	a3,12(sp)
   11510:	7b4000ef          	jal	ra,11cc4 <__malloc_lock>
   11514:	00c12683          	lw	a3,12(sp)
   11518:	1f700793          	addi	a5,zero,503
   1151c:	4cd7f663          	bgeu	a5,a3,119e8 <_malloc_r+0x59c>
   11520:	0096d793          	srli	a5,a3,0x9
   11524:	16078e63          	beq	a5,zero,116a0 <_malloc_r+0x254>
   11528:	00400713          	addi	a4,zero,4
   1152c:	42f76863          	bltu	a4,a5,1195c <_malloc_r+0x510>
   11530:	0066d793          	srli	a5,a3,0x6
   11534:	03978893          	addi	a7,a5,57
   11538:	03878e13          	addi	t3,a5,56
   1153c:	00389513          	slli	a0,a7,0x3
   11540:	000b4837          	lui	a6,0xb4
   11544:	14080813          	addi	a6,a6,320 # b4140 <__malloc_av_>
   11548:	00a80533          	add	a0,a6,a0
   1154c:	00452783          	lw	a5,4(a0)
   11550:	ff850513          	addi	a0,a0,-8
   11554:	02f50863          	beq	a0,a5,11584 <_malloc_r+0x138>
   11558:	00f00313          	addi	t1,zero,15
   1155c:	0140006f          	jal	zero,11570 <_malloc_r+0x124>
   11560:	00c7a583          	lw	a1,12(a5)
   11564:	34065463          	bge	a2,zero,118ac <_malloc_r+0x460>
   11568:	00b50e63          	beq	a0,a1,11584 <_malloc_r+0x138>
   1156c:	00058793          	addi	a5,a1,0
   11570:	0047a703          	lw	a4,4(a5)
   11574:	ffc77713          	andi	a4,a4,-4
   11578:	40d70633          	sub	a2,a4,a3
   1157c:	fec352e3          	bge	t1,a2,11560 <_malloc_r+0x114>
   11580:	000e0893          	addi	a7,t3,0
   11584:	01082783          	lw	a5,16(a6)
   11588:	000b4e37          	lui	t3,0xb4
   1158c:	148e0e13          	addi	t3,t3,328 # b4148 <__malloc_av_+0x8>
   11590:	2dc78c63          	beq	a5,t3,11868 <_malloc_r+0x41c>
   11594:	0047a703          	lw	a4,4(a5)
   11598:	00f00593          	addi	a1,zero,15
   1159c:	ffc77713          	andi	a4,a4,-4
   115a0:	40d70633          	sub	a2,a4,a3
   115a4:	46c5cc63          	blt	a1,a2,11a1c <_malloc_r+0x5d0>
   115a8:	01c82a23          	sw	t3,20(a6)
   115ac:	01c82823          	sw	t3,16(a6)
   115b0:	44065263          	bge	a2,zero,119f4 <_malloc_r+0x5a8>
   115b4:	1ff00613          	addi	a2,zero,511
   115b8:	00482303          	lw	t1,4(a6)
   115bc:	34e66063          	bltu	a2,a4,118fc <_malloc_r+0x4b0>
   115c0:	ff877613          	andi	a2,a4,-8
   115c4:	00860613          	addi	a2,a2,8
   115c8:	00c80633          	add	a2,a6,a2
   115cc:	00062583          	lw	a1,0(a2)
   115d0:	00575513          	srli	a0,a4,0x5
   115d4:	00100713          	addi	a4,zero,1
   115d8:	00a71733          	sll	a4,a4,a0
   115dc:	00e36333          	or	t1,t1,a4
   115e0:	ff860713          	addi	a4,a2,-8
   115e4:	00b7a423          	sw	a1,8(a5)
   115e8:	00e7a623          	sw	a4,12(a5)
   115ec:	00682223          	sw	t1,4(a6)
   115f0:	00f62023          	sw	a5,0(a2)
   115f4:	00f5a623          	sw	a5,12(a1)
   115f8:	4028d793          	srai	a5,a7,0x2
   115fc:	00100513          	addi	a0,zero,1
   11600:	00f51533          	sll	a0,a0,a5
   11604:	0aa36663          	bltu	t1,a0,116b0 <_malloc_r+0x264>
   11608:	006577b3          	and	a5,a0,t1
   1160c:	02079463          	bne	a5,zero,11634 <_malloc_r+0x1e8>
   11610:	00151513          	slli	a0,a0,0x1
   11614:	ffc8f893          	andi	a7,a7,-4
   11618:	006577b3          	and	a5,a0,t1
   1161c:	00488893          	addi	a7,a7,4
   11620:	00079a63          	bne	a5,zero,11634 <_malloc_r+0x1e8>
   11624:	00151513          	slli	a0,a0,0x1
   11628:	006577b3          	and	a5,a0,t1
   1162c:	00488893          	addi	a7,a7,4
   11630:	fe078ae3          	beq	a5,zero,11624 <_malloc_r+0x1d8>
   11634:	00f00e93          	addi	t4,zero,15
   11638:	00389f13          	slli	t5,a7,0x3
   1163c:	01e80f33          	add	t5,a6,t5
   11640:	000f0313          	addi	t1,t5,0
   11644:	00c32703          	lw	a4,12(t1)
   11648:	00088f93          	addi	t6,a7,0
   1164c:	32e30a63          	beq	t1,a4,11980 <_malloc_r+0x534>
   11650:	00472603          	lw	a2,4(a4)
   11654:	00070793          	addi	a5,a4,0
   11658:	00c72703          	lw	a4,12(a4)
   1165c:	ffc67613          	andi	a2,a2,-4
   11660:	40d605b3          	sub	a1,a2,a3
   11664:	32beca63          	blt	t4,a1,11998 <_malloc_r+0x54c>
   11668:	fe05c2e3          	blt	a1,zero,1164c <_malloc_r+0x200>
   1166c:	00c78633          	add	a2,a5,a2
   11670:	00462683          	lw	a3,4(a2)
   11674:	0087a583          	lw	a1,8(a5)
   11678:	00040513          	addi	a0,s0,0
   1167c:	0016e693          	ori	a3,a3,1
   11680:	00d62223          	sw	a3,4(a2)
   11684:	00e5a623          	sw	a4,12(a1)
   11688:	00b72423          	sw	a1,8(a4)
   1168c:	00f12623          	sw	a5,12(sp)
   11690:	638000ef          	jal	ra,11cc8 <__malloc_unlock>
   11694:	00c12783          	lw	a5,12(sp)
   11698:	00878513          	addi	a0,a5,8
   1169c:	e55ff06f          	jal	zero,114f0 <_malloc_r+0xa4>
   116a0:	20000513          	addi	a0,zero,512
   116a4:	04000893          	addi	a7,zero,64
   116a8:	03f00e13          	addi	t3,zero,63
   116ac:	e95ff06f          	jal	zero,11540 <_malloc_r+0xf4>
   116b0:	00882783          	lw	a5,8(a6)
   116b4:	0047a703          	lw	a4,4(a5)
   116b8:	ffc77713          	andi	a4,a4,-4
   116bc:	40d70633          	sub	a2,a4,a3
   116c0:	00d76663          	bltu	a4,a3,116cc <_malloc_r+0x280>
   116c4:	01062593          	slti	a1,a2,16
   116c8:	1a058463          	beq	a1,zero,11870 <_malloc_r+0x424>
   116cc:	f2c1a583          	lw	a1,-212(gp) # b473c <__malloc_top_pad>
   116d0:	f101a503          	lw	a0,-240(gp) # b4720 <__malloc_sbrk_base>
   116d4:	fff00613          	addi	a2,zero,-1
   116d8:	00b685b3          	add	a1,a3,a1
   116dc:	42c50463          	beq	a0,a2,11b04 <_malloc_r+0x6b8>
   116e0:	00001637          	lui	a2,0x1
   116e4:	00f60613          	addi	a2,a2,15 # 100f <exit-0xf0a5>
   116e8:	00c585b3          	add	a1,a1,a2
   116ec:	fffff637          	lui	a2,0xfffff
   116f0:	00c5f5b3          	and	a1,a1,a2
   116f4:	00040513          	addi	a0,s0,0
   116f8:	01012e23          	sw	a6,28(sp)
   116fc:	00f12c23          	sw	a5,24(sp)
   11700:	00d12a23          	sw	a3,20(sp)
   11704:	00e12823          	sw	a4,16(sp)
   11708:	00b12623          	sw	a1,12(sp)
   1170c:	344040ef          	jal	ra,15a50 <_sbrk_r>
   11710:	fff00613          	addi	a2,zero,-1
   11714:	00c12583          	lw	a1,12(sp)
   11718:	01012703          	lw	a4,16(sp)
   1171c:	01412683          	lw	a3,20(sp)
   11720:	01812783          	lw	a5,24(sp)
   11724:	01c12803          	lw	a6,28(sp)
   11728:	00050893          	addi	a7,a0,0
   1172c:	34c50663          	beq	a0,a2,11a78 <_malloc_r+0x62c>
   11730:	00e78533          	add	a0,a5,a4
   11734:	34a8e063          	bltu	a7,a0,11a74 <_malloc_r+0x628>
   11738:	08c18e13          	addi	t3,gp,140 # b489c <__malloc_current_mallinfo>
   1173c:	000e2603          	lw	a2,0(t3)
   11740:	00c58633          	add	a2,a1,a2
   11744:	00ce2023          	sw	a2,0(t3)
   11748:	00060e93          	addi	t4,a2,0 # fffff000 <__BSS_END__+0xfff4a5ac>
   1174c:	49150663          	beq	a0,a7,11bd8 <_malloc_r+0x78c>
   11750:	f101af03          	lw	t5,-240(gp) # b4720 <__malloc_sbrk_base>
   11754:	fff00613          	addi	a2,zero,-1
   11758:	48cf0e63          	beq	t5,a2,11bf4 <_malloc_r+0x7a8>
   1175c:	40a88633          	sub	a2,a7,a0
   11760:	01d60633          	add	a2,a2,t4
   11764:	00ce2023          	sw	a2,0(t3)
   11768:	0078fe93          	andi	t4,a7,7
   1176c:	3a0e8c63          	beq	t4,zero,11b24 <_malloc_r+0x6d8>
   11770:	ff88f893          	andi	a7,a7,-8
   11774:	00001637          	lui	a2,0x1
   11778:	00888893          	addi	a7,a7,8
   1177c:	00860613          	addi	a2,a2,8 # 1008 <exit-0xf0ac>
   11780:	00b88333          	add	t1,a7,a1
   11784:	41d60633          	sub	a2,a2,t4
   11788:	40660633          	sub	a2,a2,t1
   1178c:	01461613          	slli	a2,a2,0x14
   11790:	01465593          	srli	a1,a2,0x14
   11794:	00040513          	addi	a0,s0,0
   11798:	03012623          	sw	a6,44(sp)
   1179c:	03c12423          	sw	t3,40(sp)
   117a0:	02f12223          	sw	a5,36(sp)
   117a4:	02d12023          	sw	a3,32(sp)
   117a8:	00e12e23          	sw	a4,28(sp)
   117ac:	01112c23          	sw	a7,24(sp)
   117b0:	01d12a23          	sw	t4,20(sp)
   117b4:	00612823          	sw	t1,16(sp)
   117b8:	00b12623          	sw	a1,12(sp)
   117bc:	294040ef          	jal	ra,15a50 <_sbrk_r>
   117c0:	fff00613          	addi	a2,zero,-1
   117c4:	00c12583          	lw	a1,12(sp)
   117c8:	01012303          	lw	t1,16(sp)
   117cc:	01412e83          	lw	t4,20(sp)
   117d0:	01812883          	lw	a7,24(sp)
   117d4:	01c12703          	lw	a4,28(sp)
   117d8:	02012683          	lw	a3,32(sp)
   117dc:	02412783          	lw	a5,36(sp)
   117e0:	02812e03          	lw	t3,40(sp)
   117e4:	02c12803          	lw	a6,44(sp)
   117e8:	44c50c63          	beq	a0,a2,11c40 <_malloc_r+0x7f4>
   117ec:	000e2603          	lw	a2,0(t3)
   117f0:	41150533          	sub	a0,a0,a7
   117f4:	00b50533          	add	a0,a0,a1
   117f8:	00156513          	ori	a0,a0,1
   117fc:	01182423          	sw	a7,8(a6)
   11800:	00c58633          	add	a2,a1,a2
   11804:	00a8a223          	sw	a0,4(a7)
   11808:	00ce2023          	sw	a2,0(t3)
   1180c:	03078e63          	beq	a5,a6,11848 <_malloc_r+0x3fc>
   11810:	00f00513          	addi	a0,zero,15
   11814:	3ee57463          	bgeu	a0,a4,11bfc <_malloc_r+0x7b0>
   11818:	0047a583          	lw	a1,4(a5)
   1181c:	ff470713          	addi	a4,a4,-12
   11820:	ff877713          	andi	a4,a4,-8
   11824:	0015f593          	andi	a1,a1,1
   11828:	00e5e5b3          	or	a1,a1,a4
   1182c:	00b7a223          	sw	a1,4(a5)
   11830:	00500313          	addi	t1,zero,5
   11834:	00e785b3          	add	a1,a5,a4
   11838:	0065a223          	sw	t1,4(a1)
   1183c:	0065a423          	sw	t1,8(a1)
   11840:	40e56863          	bltu	a0,a4,11c50 <_malloc_r+0x804>
   11844:	0048a503          	lw	a0,4(a7)
   11848:	f281a703          	lw	a4,-216(gp) # b4738 <__malloc_max_sbrked_mem>
   1184c:	00c77463          	bgeu	a4,a2,11854 <_malloc_r+0x408>
   11850:	f2c1a423          	sw	a2,-216(gp) # b4738 <__malloc_max_sbrked_mem>
   11854:	f241a703          	lw	a4,-220(gp) # b4734 <__malloc_max_total_mem>
   11858:	00c77463          	bgeu	a4,a2,11860 <_malloc_r+0x414>
   1185c:	f2c1a223          	sw	a2,-220(gp) # b4734 <__malloc_max_total_mem>
   11860:	00088793          	addi	a5,a7,0
   11864:	21c0006f          	jal	zero,11a80 <_malloc_r+0x634>
   11868:	00482303          	lw	t1,4(a6)
   1186c:	d8dff06f          	jal	zero,115f8 <_malloc_r+0x1ac>
   11870:	0016e713          	ori	a4,a3,1
   11874:	00e7a223          	sw	a4,4(a5)
   11878:	00d786b3          	add	a3,a5,a3
   1187c:	00166613          	ori	a2,a2,1
   11880:	00d82423          	sw	a3,8(a6)
   11884:	00040513          	addi	a0,s0,0
   11888:	00c6a223          	sw	a2,4(a3)
   1188c:	00f12623          	sw	a5,12(sp)
   11890:	438000ef          	jal	ra,11cc8 <__malloc_unlock>
   11894:	00c12783          	lw	a5,12(sp)
   11898:	03c12083          	lw	ra,60(sp)
   1189c:	03812403          	lw	s0,56(sp)
   118a0:	00878513          	addi	a0,a5,8
   118a4:	04010113          	addi	sp,sp,64
   118a8:	00008067          	jalr	zero,0(ra)
   118ac:	0087a603          	lw	a2,8(a5)
   118b0:	00e78733          	add	a4,a5,a4
   118b4:	00472683          	lw	a3,4(a4)
   118b8:	00b62623          	sw	a1,12(a2)
   118bc:	00f12623          	sw	a5,12(sp)
   118c0:	0016e693          	ori	a3,a3,1
   118c4:	00c5a423          	sw	a2,8(a1)
   118c8:	00040513          	addi	a0,s0,0
   118cc:	00d72223          	sw	a3,4(a4)
   118d0:	3f8000ef          	jal	ra,11cc8 <__malloc_unlock>
   118d4:	00c12783          	lw	a5,12(sp)
   118d8:	03c12083          	lw	ra,60(sp)
   118dc:	03812403          	lw	s0,56(sp)
   118e0:	00878513          	addi	a0,a5,8
   118e4:	04010113          	addi	sp,sp,64
   118e8:	00008067          	jalr	zero,0(ra)
   118ec:	00c72783          	lw	a5,12(a4)
   118f0:	00288893          	addi	a7,a7,2
   118f4:	c8f708e3          	beq	a4,a5,11584 <_malloc_r+0x138>
   118f8:	ba1ff06f          	jal	zero,11498 <_malloc_r+0x4c>
   118fc:	00975613          	srli	a2,a4,0x9
   11900:	00400593          	addi	a1,zero,4
   11904:	14c5fe63          	bgeu	a1,a2,11a60 <_malloc_r+0x614>
   11908:	01400593          	addi	a1,zero,20
   1190c:	28c5e063          	bltu	a1,a2,11b8c <_malloc_r+0x740>
   11910:	05c60513          	addi	a0,a2,92
   11914:	00351513          	slli	a0,a0,0x3
   11918:	05b60593          	addi	a1,a2,91
   1191c:	00a80533          	add	a0,a6,a0
   11920:	00052603          	lw	a2,0(a0)
   11924:	ff850513          	addi	a0,a0,-8
   11928:	00c51863          	bne	a0,a2,11938 <_malloc_r+0x4ec>
   1192c:	1e00006f          	jal	zero,11b0c <_malloc_r+0x6c0>
   11930:	00862603          	lw	a2,8(a2)
   11934:	00c50863          	beq	a0,a2,11944 <_malloc_r+0x4f8>
   11938:	00462583          	lw	a1,4(a2)
   1193c:	ffc5f593          	andi	a1,a1,-4
   11940:	feb768e3          	bltu	a4,a1,11930 <_malloc_r+0x4e4>
   11944:	00c62503          	lw	a0,12(a2)
   11948:	00a7a623          	sw	a0,12(a5)
   1194c:	00c7a423          	sw	a2,8(a5)
   11950:	00f52423          	sw	a5,8(a0)
   11954:	00f62623          	sw	a5,12(a2)
   11958:	ca1ff06f          	jal	zero,115f8 <_malloc_r+0x1ac>
   1195c:	01400713          	addi	a4,zero,20
   11960:	14f77063          	bgeu	a4,a5,11aa0 <_malloc_r+0x654>
   11964:	05400713          	addi	a4,zero,84
   11968:	24f76063          	bltu	a4,a5,11ba8 <_malloc_r+0x75c>
   1196c:	00c6d793          	srli	a5,a3,0xc
   11970:	06f78893          	addi	a7,a5,111
   11974:	06e78e13          	addi	t3,a5,110
   11978:	00389513          	slli	a0,a7,0x3
   1197c:	bc5ff06f          	jal	zero,11540 <_malloc_r+0xf4>
   11980:	001f8f93          	addi	t6,t6,1
   11984:	003ff793          	andi	a5,t6,3
   11988:	00830313          	addi	t1,t1,8
   1198c:	12078863          	beq	a5,zero,11abc <_malloc_r+0x670>
   11990:	00c32703          	lw	a4,12(t1)
   11994:	cb9ff06f          	jal	zero,1164c <_malloc_r+0x200>
   11998:	0087a503          	lw	a0,8(a5)
   1199c:	0016e893          	ori	a7,a3,1
   119a0:	0117a223          	sw	a7,4(a5)
   119a4:	00e52623          	sw	a4,12(a0)
   119a8:	00a72423          	sw	a0,8(a4)
   119ac:	00d786b3          	add	a3,a5,a3
   119b0:	00d82a23          	sw	a3,20(a6)
   119b4:	00d82823          	sw	a3,16(a6)
   119b8:	0015e713          	ori	a4,a1,1
   119bc:	00c78633          	add	a2,a5,a2
   119c0:	01c6a623          	sw	t3,12(a3)
   119c4:	01c6a423          	sw	t3,8(a3)
   119c8:	00e6a223          	sw	a4,4(a3)
   119cc:	00040513          	addi	a0,s0,0
   119d0:	00b62023          	sw	a1,0(a2)
   119d4:	00f12623          	sw	a5,12(sp)
   119d8:	2f0000ef          	jal	ra,11cc8 <__malloc_unlock>
   119dc:	00c12783          	lw	a5,12(sp)
   119e0:	00878513          	addi	a0,a5,8
   119e4:	b0dff06f          	jal	zero,114f0 <_malloc_r+0xa4>
   119e8:	0036d893          	srli	a7,a3,0x3
   119ec:	00868713          	addi	a4,a3,8
   119f0:	a91ff06f          	jal	zero,11480 <_malloc_r+0x34>
   119f4:	00e78733          	add	a4,a5,a4
   119f8:	00472683          	lw	a3,4(a4)
   119fc:	00f12623          	sw	a5,12(sp)
   11a00:	00040513          	addi	a0,s0,0
   11a04:	0016e693          	ori	a3,a3,1
   11a08:	00d72223          	sw	a3,4(a4)
   11a0c:	2bc000ef          	jal	ra,11cc8 <__malloc_unlock>
   11a10:	00c12783          	lw	a5,12(sp)
   11a14:	00878513          	addi	a0,a5,8
   11a18:	ad9ff06f          	jal	zero,114f0 <_malloc_r+0xa4>
   11a1c:	0016e593          	ori	a1,a3,1
   11a20:	00b7a223          	sw	a1,4(a5)
   11a24:	00d786b3          	add	a3,a5,a3
   11a28:	00d82a23          	sw	a3,20(a6)
   11a2c:	00d82823          	sw	a3,16(a6)
   11a30:	00166593          	ori	a1,a2,1
   11a34:	00e78733          	add	a4,a5,a4
   11a38:	01c6a623          	sw	t3,12(a3)
   11a3c:	01c6a423          	sw	t3,8(a3)
   11a40:	00b6a223          	sw	a1,4(a3)
   11a44:	00040513          	addi	a0,s0,0
   11a48:	00c72023          	sw	a2,0(a4)
   11a4c:	00f12623          	sw	a5,12(sp)
   11a50:	278000ef          	jal	ra,11cc8 <__malloc_unlock>
   11a54:	00c12783          	lw	a5,12(sp)
   11a58:	00878513          	addi	a0,a5,8
   11a5c:	a95ff06f          	jal	zero,114f0 <_malloc_r+0xa4>
   11a60:	00675613          	srli	a2,a4,0x6
   11a64:	03960513          	addi	a0,a2,57
   11a68:	00351513          	slli	a0,a0,0x3
   11a6c:	03860593          	addi	a1,a2,56
   11a70:	eadff06f          	jal	zero,1191c <_malloc_r+0x4d0>
   11a74:	15078863          	beq	a5,a6,11bc4 <_malloc_r+0x778>
   11a78:	00882783          	lw	a5,8(a6)
   11a7c:	0047a503          	lw	a0,4(a5)
   11a80:	ffc57513          	andi	a0,a0,-4
   11a84:	40d50633          	sub	a2,a0,a3
   11a88:	00d56663          	bltu	a0,a3,11a94 <_malloc_r+0x648>
   11a8c:	01062713          	slti	a4,a2,16
   11a90:	de0700e3          	beq	a4,zero,11870 <_malloc_r+0x424>
   11a94:	00040513          	addi	a0,s0,0
   11a98:	230000ef          	jal	ra,11cc8 <__malloc_unlock>
   11a9c:	a51ff06f          	jal	zero,114ec <_malloc_r+0xa0>
   11aa0:	05c78893          	addi	a7,a5,92
   11aa4:	05b78e13          	addi	t3,a5,91
   11aa8:	00389513          	slli	a0,a7,0x3
   11aac:	a95ff06f          	jal	zero,11540 <_malloc_r+0xf4>
   11ab0:	008f2783          	lw	a5,8(t5)
   11ab4:	fff88893          	addi	a7,a7,-1
   11ab8:	21e79263          	bne	a5,t5,11cbc <_malloc_r+0x870>
   11abc:	0038f793          	andi	a5,a7,3
   11ac0:	ff8f0f13          	addi	t5,t5,-8
   11ac4:	fe0796e3          	bne	a5,zero,11ab0 <_malloc_r+0x664>
   11ac8:	00482703          	lw	a4,4(a6)
   11acc:	fff54793          	xori	a5,a0,-1
   11ad0:	00e7f7b3          	and	a5,a5,a4
   11ad4:	00f82223          	sw	a5,4(a6)
   11ad8:	00151513          	slli	a0,a0,0x1
   11adc:	fff50713          	addi	a4,a0,-1
   11ae0:	bcf778e3          	bgeu	a4,a5,116b0 <_malloc_r+0x264>
   11ae4:	00f57733          	and	a4,a0,a5
   11ae8:	00071a63          	bne	a4,zero,11afc <_malloc_r+0x6b0>
   11aec:	00151513          	slli	a0,a0,0x1
   11af0:	00f57733          	and	a4,a0,a5
   11af4:	004f8f93          	addi	t6,t6,4
   11af8:	fe070ae3          	beq	a4,zero,11aec <_malloc_r+0x6a0>
   11afc:	000f8893          	addi	a7,t6,0
   11b00:	b39ff06f          	jal	zero,11638 <_malloc_r+0x1ec>
   11b04:	01058593          	addi	a1,a1,16
   11b08:	bedff06f          	jal	zero,116f4 <_malloc_r+0x2a8>
   11b0c:	4025d593          	srai	a1,a1,0x2
   11b10:	00100713          	addi	a4,zero,1
   11b14:	00b71733          	sll	a4,a4,a1
   11b18:	00e36333          	or	t1,t1,a4
   11b1c:	00682223          	sw	t1,4(a6)
   11b20:	e29ff06f          	jal	zero,11948 <_malloc_r+0x4fc>
   11b24:	00b88333          	add	t1,a7,a1
   11b28:	40600633          	sub	a2,zero,t1
   11b2c:	01461613          	slli	a2,a2,0x14
   11b30:	01465593          	srli	a1,a2,0x14
   11b34:	00040513          	addi	a0,s0,0
   11b38:	03012423          	sw	a6,40(sp)
   11b3c:	03c12223          	sw	t3,36(sp)
   11b40:	02f12023          	sw	a5,32(sp)
   11b44:	00d12e23          	sw	a3,28(sp)
   11b48:	00e12c23          	sw	a4,24(sp)
   11b4c:	01112a23          	sw	a7,20(sp)
   11b50:	00b12623          	sw	a1,12(sp)
   11b54:	00612823          	sw	t1,16(sp)
   11b58:	6f9030ef          	jal	ra,15a50 <_sbrk_r>
   11b5c:	fff00613          	addi	a2,zero,-1
   11b60:	00c12583          	lw	a1,12(sp)
   11b64:	01412883          	lw	a7,20(sp)
   11b68:	01812703          	lw	a4,24(sp)
   11b6c:	01c12683          	lw	a3,28(sp)
   11b70:	02012783          	lw	a5,32(sp)
   11b74:	02412e03          	lw	t3,36(sp)
   11b78:	02812803          	lw	a6,40(sp)
   11b7c:	c6c518e3          	bne	a0,a2,117ec <_malloc_r+0x3a0>
   11b80:	01012503          	lw	a0,16(sp)
   11b84:	00000593          	addi	a1,zero,0
   11b88:	c65ff06f          	jal	zero,117ec <_malloc_r+0x3a0>
   11b8c:	05400593          	addi	a1,zero,84
   11b90:	06c5ec63          	bltu	a1,a2,11c08 <_malloc_r+0x7bc>
   11b94:	00c75613          	srli	a2,a4,0xc
   11b98:	06f60513          	addi	a0,a2,111
   11b9c:	00351513          	slli	a0,a0,0x3
   11ba0:	06e60593          	addi	a1,a2,110
   11ba4:	d79ff06f          	jal	zero,1191c <_malloc_r+0x4d0>
   11ba8:	15400713          	addi	a4,zero,340
   11bac:	06f76c63          	bltu	a4,a5,11c24 <_malloc_r+0x7d8>
   11bb0:	00f6d793          	srli	a5,a3,0xf
   11bb4:	07878893          	addi	a7,a5,120
   11bb8:	07778e13          	addi	t3,a5,119
   11bbc:	00389513          	slli	a0,a7,0x3
   11bc0:	981ff06f          	jal	zero,11540 <_malloc_r+0xf4>
   11bc4:	08c18e13          	addi	t3,gp,140 # b489c <__malloc_current_mallinfo>
   11bc8:	000e2e83          	lw	t4,0(t3)
   11bcc:	01d58eb3          	add	t4,a1,t4
   11bd0:	01de2023          	sw	t4,0(t3)
   11bd4:	b7dff06f          	jal	zero,11750 <_malloc_r+0x304>
   11bd8:	01489f13          	slli	t5,a7,0x14
   11bdc:	b60f1ae3          	bne	t5,zero,11750 <_malloc_r+0x304>
   11be0:	00882883          	lw	a7,8(a6)
   11be4:	00b705b3          	add	a1,a4,a1
   11be8:	0015e513          	ori	a0,a1,1
   11bec:	00a8a223          	sw	a0,4(a7)
   11bf0:	c59ff06f          	jal	zero,11848 <_malloc_r+0x3fc>
   11bf4:	f111a823          	sw	a7,-240(gp) # b4720 <__malloc_sbrk_base>
   11bf8:	b71ff06f          	jal	zero,11768 <_malloc_r+0x31c>
   11bfc:	00100793          	addi	a5,zero,1
   11c00:	00f8a223          	sw	a5,4(a7)
   11c04:	e91ff06f          	jal	zero,11a94 <_malloc_r+0x648>
   11c08:	15400593          	addi	a1,zero,340
   11c0c:	06c5ec63          	bltu	a1,a2,11c84 <_malloc_r+0x838>
   11c10:	00f75613          	srli	a2,a4,0xf
   11c14:	07860513          	addi	a0,a2,120
   11c18:	00351513          	slli	a0,a0,0x3
   11c1c:	07760593          	addi	a1,a2,119
   11c20:	cfdff06f          	jal	zero,1191c <_malloc_r+0x4d0>
   11c24:	55400713          	addi	a4,zero,1364
   11c28:	06f76c63          	bltu	a4,a5,11ca0 <_malloc_r+0x854>
   11c2c:	0126d793          	srli	a5,a3,0x12
   11c30:	07d78893          	addi	a7,a5,125
   11c34:	07c78e13          	addi	t3,a5,124
   11c38:	00389513          	slli	a0,a7,0x3
   11c3c:	905ff06f          	jal	zero,11540 <_malloc_r+0xf4>
   11c40:	ff8e8e93          	addi	t4,t4,-8
   11c44:	01d30533          	add	a0,t1,t4
   11c48:	00000593          	addi	a1,zero,0
   11c4c:	ba1ff06f          	jal	zero,117ec <_malloc_r+0x3a0>
   11c50:	00040513          	addi	a0,s0,0
   11c54:	00878593          	addi	a1,a5,8
   11c58:	01012a23          	sw	a6,20(sp)
   11c5c:	01c12823          	sw	t3,16(sp)
   11c60:	00d12623          	sw	a3,12(sp)
   11c64:	d00ff0ef          	jal	ra,11164 <_free_r>
   11c68:	01412803          	lw	a6,20(sp)
   11c6c:	01012e03          	lw	t3,16(sp)
   11c70:	00c12683          	lw	a3,12(sp)
   11c74:	00882883          	lw	a7,8(a6)
   11c78:	000e2603          	lw	a2,0(t3)
   11c7c:	0048a503          	lw	a0,4(a7)
   11c80:	bc9ff06f          	jal	zero,11848 <_malloc_r+0x3fc>
   11c84:	55400593          	addi	a1,zero,1364
   11c88:	02c5e463          	bltu	a1,a2,11cb0 <_malloc_r+0x864>
   11c8c:	01275613          	srli	a2,a4,0x12
   11c90:	07d60513          	addi	a0,a2,125
   11c94:	00351513          	slli	a0,a0,0x3
   11c98:	07c60593          	addi	a1,a2,124
   11c9c:	c81ff06f          	jal	zero,1191c <_malloc_r+0x4d0>
   11ca0:	3f800513          	addi	a0,zero,1016
   11ca4:	07f00893          	addi	a7,zero,127
   11ca8:	07e00e13          	addi	t3,zero,126
   11cac:	895ff06f          	jal	zero,11540 <_malloc_r+0xf4>
   11cb0:	3f800513          	addi	a0,zero,1016
   11cb4:	07e00593          	addi	a1,zero,126
   11cb8:	c65ff06f          	jal	zero,1191c <_malloc_r+0x4d0>
   11cbc:	00482783          	lw	a5,4(a6)
   11cc0:	e19ff06f          	jal	zero,11ad8 <_malloc_r+0x68c>

00011cc4 <__malloc_lock>:
   11cc4:	00008067          	jalr	zero,0(ra)

00011cc8 <__malloc_unlock>:
   11cc8:	00008067          	jalr	zero,0(ra)

00011ccc <_vfprintf_r>:
   11ccc:	e4010113          	addi	sp,sp,-448
   11cd0:	1a112e23          	sw	ra,444(sp)
   11cd4:	1a912a23          	sw	s1,436(sp)
   11cd8:	1b212823          	sw	s2,432(sp)
   11cdc:	19a12823          	sw	s10,400(sp)
   11ce0:	00d12623          	sw	a3,12(sp)
   11ce4:	00060d13          	addi	s10,a2,0
   11ce8:	00058493          	addi	s1,a1,0
   11cec:	00050913          	addi	s2,a0,0
   11cf0:	551030ef          	jal	ra,15a40 <_localeconv_r>
   11cf4:	00052783          	lw	a5,0(a0)
   11cf8:	00078513          	addi	a0,a5,0
   11cfc:	02f12423          	sw	a5,40(sp)
   11d00:	058040ef          	jal	ra,15d58 <strlen>
   11d04:	02a12223          	sw	a0,36(sp)
   11d08:	0c012023          	sw	zero,192(sp)
   11d0c:	00090863          	beq	s2,zero,11d1c <_vfprintf_r+0x50>
   11d10:	03492783          	lw	a5,52(s2)
   11d14:	00079463          	bne	a5,zero,11d1c <_vfprintf_r+0x50>
   11d18:	5c90106f          	jal	zero,13ae0 <_vfprintf_r+0x1e14>
   11d1c:	00c49783          	lh	a5,12(s1)
   11d20:	0644a703          	lw	a4,100(s1)
   11d24:	00002637          	lui	a2,0x2
   11d28:	01279693          	slli	a3,a5,0x12
   11d2c:	3606c463          	blt	a3,zero,12094 <_vfprintf_r+0x3c8>
   11d30:	ffffe6b7          	lui	a3,0xffffe
   11d34:	00c7e7b3          	or	a5,a5,a2
   11d38:	fff68693          	addi	a3,a3,-1 # ffffdfff <__BSS_END__+0xfff495ab>
   11d3c:	00d77733          	and	a4,a4,a3
   11d40:	00f49623          	sh	a5,12(s1)
   11d44:	01079793          	slli	a5,a5,0x10
   11d48:	4107d793          	srai	a5,a5,0x10
   11d4c:	06e4a223          	sw	a4,100(s1)
   11d50:	0087f713          	andi	a4,a5,8
   11d54:	2c070463          	beq	a4,zero,1201c <_vfprintf_r+0x350>
   11d58:	0104a703          	lw	a4,16(s1)
   11d5c:	2c070063          	beq	a4,zero,1201c <_vfprintf_r+0x350>
   11d60:	01a7f793          	andi	a5,a5,26
   11d64:	00a00713          	addi	a4,zero,10
   11d68:	2ce78a63          	beq	a5,a4,1203c <_vfprintf_r+0x370>
   11d6c:	000b37b7          	lui	a5,0xb3
   11d70:	1b312623          	sw	s3,428(sp)
   11d74:	1b412423          	sw	s4,424(sp)
   11d78:	0dc10993          	addi	s3,sp,220
   11d7c:	000b3a37          	lui	s4,0xb3
   11d80:	4d478793          	addi	a5,a5,1236 # b34d4 <input_data+0x927c0>
   11d84:	1a812c23          	sw	s0,440(sp)
   11d88:	1b612023          	sw	s6,416(sp)
   11d8c:	1b512223          	sw	s5,420(sp)
   11d90:	19712e23          	sw	s7,412(sp)
   11d94:	19812c23          	sw	s8,408(sp)
   11d98:	19912a23          	sw	s9,404(sp)
   11d9c:	19b12623          	sw	s11,396(sp)
   11da0:	0a012e23          	sw	zero,188(sp)
   11da4:	0a012c23          	sw	zero,184(sp)
   11da8:	0b312a23          	sw	s3,180(sp)
   11dac:	00098b13          	addi	s6,s3,0
   11db0:	00f12a23          	sw	a5,20(sp)
   11db4:	640a0a13          	addi	s4,s4,1600 # b3640 <zeroes.0>
   11db8:	00012c23          	sw	zero,24(sp)
   11dbc:	02012623          	sw	zero,44(sp)
   11dc0:	02012823          	sw	zero,48(sp)
   11dc4:	04012223          	sw	zero,68(sp)
   11dc8:	02012a23          	sw	zero,52(sp)
   11dcc:	00012423          	sw	zero,8(sp)
   11dd0:	01000413          	addi	s0,zero,16
   11dd4:	00912223          	sw	s1,4(sp)
   11dd8:	000d4783          	lbu	a5,0(s10)
   11ddc:	000d0a93          	addi	s5,s10,0
   11de0:	fdb78713          	addi	a4,a5,-37
   11de4:	06070263          	beq	a4,zero,11e48 <_vfprintf_r+0x17c>
   11de8:	06078063          	beq	a5,zero,11e48 <_vfprintf_r+0x17c>
   11dec:	000a8c13          	addi	s8,s5,0
   11df0:	001ac783          	lbu	a5,1(s5)
   11df4:	001a8a93          	addi	s5,s5,1
   11df8:	00078663          	beq	a5,zero,11e04 <_vfprintf_r+0x138>
   11dfc:	fdb78713          	addi	a4,a5,-37
   11e00:	fe0716e3          	bne	a4,zero,11dec <_vfprintf_r+0x120>
   11e04:	41aa8cb3          	sub	s9,s5,s10
   11e08:	05aa8063          	beq	s5,s10,11e48 <_vfprintf_r+0x17c>
   11e0c:	0bc12783          	lw	a5,188(sp)
   11e10:	0b812503          	lw	a0,184(sp)
   11e14:	01ab2023          	sw	s10,0(s6)
   11e18:	019787b3          	add	a5,a5,s9
   11e1c:	00150513          	addi	a0,a0,1
   11e20:	019b2223          	sw	s9,4(s6)
   11e24:	0af12e23          	sw	a5,188(sp)
   11e28:	0aa12c23          	sw	a0,184(sp)
   11e2c:	00700793          	addi	a5,zero,7
   11e30:	008b0b13          	addi	s6,s6,8
   11e34:	24a7c063          	blt	a5,a0,12074 <_vfprintf_r+0x3a8>
   11e38:	00812783          	lw	a5,8(sp)
   11e3c:	019787b3          	add	a5,a5,s9
   11e40:	00f12423          	sw	a5,8(sp)
   11e44:	001c4783          	lbu	a5,1(s8)
   11e48:	00079463          	bne	a5,zero,11e50 <_vfprintf_r+0x184>
   11e4c:	5cd0106f          	jal	zero,13c18 <_vfprintf_r+0x1f4c>
   11e50:	001ac883          	lbu	a7,1(s5)
   11e54:	001a8d13          	addi	s10,s5,1
   11e58:	080109a3          	sb	zero,147(sp)
   11e5c:	fff00a93          	addi	s5,zero,-1
   11e60:	00012023          	sw	zero,0(sp)
   11e64:	00000b93          	addi	s7,zero,0
   11e68:	05a00c13          	addi	s8,zero,90
   11e6c:	001d0d13          	addi	s10,s10,1
   11e70:	fe088793          	addi	a5,a7,-32
   11e74:	04fc6c63          	bltu	s8,a5,11ecc <_vfprintf_r+0x200>
   11e78:	01412703          	lw	a4,20(sp)
   11e7c:	00279793          	slli	a5,a5,0x2
   11e80:	00e787b3          	add	a5,a5,a4
   11e84:	0007a783          	lw	a5,0(a5)
   11e88:	00078067          	jalr	zero,0(a5)
   11e8c:	fd088793          	addi	a5,a7,-48
   11e90:	00012023          	sw	zero,0(sp)
   11e94:	00900693          	addi	a3,zero,9
   11e98:	00012703          	lw	a4,0(sp)
   11e9c:	00012603          	lw	a2,0(sp)
   11ea0:	000d4883          	lbu	a7,0(s10)
   11ea4:	00271713          	slli	a4,a4,0x2
   11ea8:	00c70733          	add	a4,a4,a2
   11eac:	00171713          	slli	a4,a4,0x1
   11eb0:	00e787b3          	add	a5,a5,a4
   11eb4:	00f12023          	sw	a5,0(sp)
   11eb8:	fd088793          	addi	a5,a7,-48
   11ebc:	001d0d13          	addi	s10,s10,1
   11ec0:	fcf6fce3          	bgeu	a3,a5,11e98 <_vfprintf_r+0x1cc>
   11ec4:	fe088793          	addi	a5,a7,-32
   11ec8:	fafc78e3          	bgeu	s8,a5,11e78 <_vfprintf_r+0x1ac>
   11ecc:	00089463          	bne	a7,zero,11ed4 <_vfprintf_r+0x208>
   11ed0:	5490106f          	jal	zero,13c18 <_vfprintf_r+0x1f4c>
   11ed4:	00100c93          	addi	s9,zero,1
   11ed8:	11110e23          	sb	a7,284(sp)
   11edc:	080109a3          	sb	zero,147(sp)
   11ee0:	000c8c13          	addi	s8,s9,0
   11ee4:	00012823          	sw	zero,16(sp)
   11ee8:	00000a93          	addi	s5,zero,0
   11eec:	02012023          	sw	zero,32(sp)
   11ef0:	00012e23          	sw	zero,28(sp)
   11ef4:	00000313          	addi	t1,zero,0
   11ef8:	11c10793          	addi	a5,sp,284
   11efc:	0bc12603          	lw	a2,188(sp)
   11f00:	084bfd93          	andi	s11,s7,132
   11f04:	00060813          	addi	a6,a2,0 # 2000 <exit-0xe0b4>
   11f08:	7e0d8663          	beq	s11,zero,126f4 <_vfprintf_r+0xa28>
   11f0c:	09314703          	lbu	a4,147(sp)
   11f10:	06070863          	beq	a4,zero,11f80 <_vfprintf_r+0x2b4>
   11f14:	0b812583          	lw	a1,184(sp)
   11f18:	00000713          	addi	a4,zero,0
   11f1c:	09310513          	addi	a0,sp,147
   11f20:	00ab2023          	sw	a0,0(s6)
   11f24:	00160613          	addi	a2,a2,1
   11f28:	00100513          	addi	a0,zero,1
   11f2c:	00158593          	addi	a1,a1,1
   11f30:	00ab2223          	sw	a0,4(s6)
   11f34:	0ac12e23          	sw	a2,188(sp)
   11f38:	0ab12c23          	sw	a1,184(sp)
   11f3c:	00700513          	addi	a0,zero,7
   11f40:	008b0b13          	addi	s6,s6,8
   11f44:	58b54e63          	blt	a0,a1,124e0 <_vfprintf_r+0x814>
   11f48:	02070c63          	beq	a4,zero,11f80 <_vfprintf_r+0x2b4>
   11f4c:	0b812583          	lw	a1,184(sp)
   11f50:	09410713          	addi	a4,sp,148
   11f54:	00eb2023          	sw	a4,0(s6)
   11f58:	00260613          	addi	a2,a2,2
   11f5c:	00200713          	addi	a4,zero,2
   11f60:	00158593          	addi	a1,a1,1
   11f64:	00eb2223          	sw	a4,4(s6)
   11f68:	0ac12e23          	sw	a2,188(sp)
   11f6c:	0ab12c23          	sw	a1,184(sp)
   11f70:	00700713          	addi	a4,zero,7
   11f74:	008b0b13          	addi	s6,s6,8
   11f78:	00b75463          	bge	a4,a1,11f80 <_vfprintf_r+0x2b4>
   11f7c:	1b40106f          	jal	zero,13130 <_vfprintf_r+0x1464>
   11f80:	08000713          	addi	a4,zero,128
   11f84:	00ed9463          	bne	s11,a4,11f8c <_vfprintf_r+0x2c0>
   11f88:	7d10006f          	jal	zero,12f58 <_vfprintf_r+0x128c>
   11f8c:	419a8ab3          	sub	s5,s5,s9
   11f90:	79504063          	blt	zero,s5,12710 <_vfprintf_r+0xa44>
   11f94:	100bf713          	andi	a4,s7,256
   11f98:	060718e3          	bne	a4,zero,12808 <_vfprintf_r+0xb3c>
   11f9c:	00fb2023          	sw	a5,0(s6)
   11fa0:	0b812783          	lw	a5,184(sp)
   11fa4:	01960633          	add	a2,a2,s9
   11fa8:	0ac12e23          	sw	a2,188(sp)
   11fac:	00178793          	addi	a5,a5,1
   11fb0:	019b2223          	sw	s9,4(s6)
   11fb4:	00700713          	addi	a4,zero,7
   11fb8:	0af12c23          	sw	a5,184(sp)
   11fbc:	68f74263          	blt	a4,a5,12640 <_vfprintf_r+0x974>
   11fc0:	008b0b13          	addi	s6,s6,8
   11fc4:	004bfe13          	andi	t3,s7,4
   11fc8:	000e0a63          	beq	t3,zero,11fdc <_vfprintf_r+0x310>
   11fcc:	00012783          	lw	a5,0(sp)
   11fd0:	41878ab3          	sub	s5,a5,s8
   11fd4:	01505463          	bge	zero,s5,11fdc <_vfprintf_r+0x310>
   11fd8:	1900106f          	jal	zero,13168 <_vfprintf_r+0x149c>
   11fdc:	00012303          	lw	t1,0(sp)
   11fe0:	01835463          	bge	t1,s8,11fe8 <_vfprintf_r+0x31c>
   11fe4:	000c0313          	addi	t1,s8,0
   11fe8:	00812783          	lw	a5,8(sp)
   11fec:	006787b3          	add	a5,a5,t1
   11ff0:	00f12423          	sw	a5,8(sp)
   11ff4:	00060463          	beq	a2,zero,11ffc <_vfprintf_r+0x330>
   11ff8:	0940106f          	jal	zero,1308c <_vfprintf_r+0x13c0>
   11ffc:	01012783          	lw	a5,16(sp)
   12000:	0a012c23          	sw	zero,184(sp)
   12004:	00078863          	beq	a5,zero,12014 <_vfprintf_r+0x348>
   12008:	01012583          	lw	a1,16(sp)
   1200c:	00090513          	addi	a0,s2,0
   12010:	954ff0ef          	jal	ra,11164 <_free_r>
   12014:	00098b13          	addi	s6,s3,0
   12018:	dc1ff06f          	jal	zero,11dd8 <_vfprintf_r+0x10c>
   1201c:	00048593          	addi	a1,s1,0
   12020:	00090513          	addi	a0,s2,0
   12024:	764030ef          	jal	ra,15788 <__swsetup_r>
   12028:	06051a63          	bne	a0,zero,1209c <_vfprintf_r+0x3d0>
   1202c:	00c49783          	lh	a5,12(s1)
   12030:	00a00713          	addi	a4,zero,10
   12034:	01a7f793          	andi	a5,a5,26
   12038:	d2e79ae3          	bne	a5,a4,11d6c <_vfprintf_r+0xa0>
   1203c:	00e49783          	lh	a5,14(s1)
   12040:	d207c6e3          	blt	a5,zero,11d6c <_vfprintf_r+0xa0>
   12044:	00c12683          	lw	a3,12(sp)
   12048:	000d0613          	addi	a2,s10,0
   1204c:	00048593          	addi	a1,s1,0
   12050:	00090513          	addi	a0,s2,0
   12054:	515020ef          	jal	ra,14d68 <__sbprintf>
   12058:	00a12423          	sw	a0,8(sp)
   1205c:	0900106f          	jal	zero,130ec <_vfprintf_r+0x1420>
   12060:	000d4883          	lbu	a7,0(s10)
   12064:	e09ff06f          	jal	zero,11e6c <_vfprintf_r+0x1a0>
   12068:	000d4883          	lbu	a7,0(s10)
   1206c:	020beb93          	ori	s7,s7,32
   12070:	dfdff06f          	jal	zero,11e6c <_vfprintf_r+0x1a0>
   12074:	00412583          	lw	a1,4(sp)
   12078:	0b410613          	addi	a2,sp,180
   1207c:	00090513          	addi	a0,s2,0
   12080:	5a9020ef          	jal	ra,14e28 <__sprint_r>
   12084:	00050463          	beq	a0,zero,1208c <_vfprintf_r+0x3c0>
   12088:	1b50206f          	jal	zero,14a3c <_vfprintf_r+0x2d70>
   1208c:	00098b13          	addi	s6,s3,0
   12090:	da9ff06f          	jal	zero,11e38 <_vfprintf_r+0x16c>
   12094:	01271693          	slli	a3,a4,0x12
   12098:	ca06dce3          	bge	a3,zero,11d50 <_vfprintf_r+0x84>
   1209c:	fff00793          	addi	a5,zero,-1
   120a0:	00f12423          	sw	a5,8(sp)
   120a4:	0480106f          	jal	zero,130ec <_vfprintf_r+0x1420>
   120a8:	008bf793          	andi	a5,s7,8
   120ac:	00078463          	beq	a5,zero,120b4 <_vfprintf_r+0x3e8>
   120b0:	5bc0106f          	jal	zero,1366c <_vfprintf_r+0x19a0>
   120b4:	00c12783          	lw	a5,12(sp)
   120b8:	08010513          	addi	a0,sp,128
   120bc:	01112823          	sw	a7,16(sp)
   120c0:	00778793          	addi	a5,a5,7
   120c4:	ff87f793          	andi	a5,a5,-8
   120c8:	0047a603          	lw	a2,4(a5)
   120cc:	0007a583          	lw	a1,0(a5)
   120d0:	00878793          	addi	a5,a5,8
   120d4:	00f12623          	sw	a5,12(sp)
   120d8:	06d0e0ef          	jal	ra,20944 <__extenddftf2>
   120dc:	08012603          	lw	a2,128(sp)
   120e0:	08412683          	lw	a3,132(sp)
   120e4:	08812703          	lw	a4,136(sp)
   120e8:	08c12783          	lw	a5,140(sp)
   120ec:	01012883          	lw	a7,16(sp)
   120f0:	0c010513          	addi	a0,sp,192
   120f4:	01112823          	sw	a7,16(sp)
   120f8:	0cf12623          	sw	a5,204(sp)
   120fc:	0cc12023          	sw	a2,192(sp)
   12100:	0cd12223          	sw	a3,196(sp)
   12104:	0ce12423          	sw	a4,200(sp)
   12108:	17c040ef          	jal	ra,16284 <_ldcheck>
   1210c:	08a12c23          	sw	a0,152(sp)
   12110:	00200793          	addi	a5,zero,2
   12114:	01012883          	lw	a7,16(sp)
   12118:	00f51463          	bne	a0,a5,12120 <_vfprintf_r+0x454>
   1211c:	25d0106f          	jal	zero,13b78 <_vfprintf_r+0x1eac>
   12120:	00100793          	addi	a5,zero,1
   12124:	00f51463          	bne	a0,a5,1212c <_vfprintf_r+0x460>
   12128:	4110106f          	jal	zero,13d38 <_vfprintf_r+0x206c>
   1212c:	fdf8fc13          	andi	s8,a7,-33
   12130:	04100793          	addi	a5,zero,65
   12134:	00fc0463          	beq	s8,a5,1213c <_vfprintf_r+0x470>
   12138:	3c90106f          	jal	zero,13d00 <_vfprintf_r+0x2034>
   1213c:	03000793          	addi	a5,zero,48
   12140:	08f10a23          	sb	a5,148(sp)
   12144:	06100713          	addi	a4,zero,97
   12148:	05800793          	addi	a5,zero,88
   1214c:	00e89463          	bne	a7,a4,12154 <_vfprintf_r+0x488>
   12150:	12c0206f          	jal	zero,1427c <_vfprintf_r+0x25b0>
   12154:	08f10aa3          	sb	a5,149(sp)
   12158:	06300793          	addi	a5,zero,99
   1215c:	0157d463          	bge	a5,s5,12164 <_vfprintf_r+0x498>
   12160:	2440206f          	jal	zero,143a4 <_vfprintf_r+0x26d8>
   12164:	0cc12703          	lw	a4,204(sp)
   12168:	0c012683          	lw	a3,192(sp)
   1216c:	0c412603          	lw	a2,196(sp)
   12170:	0c812583          	lw	a1,200(sp)
   12174:	00075463          	bge	a4,zero,1217c <_vfprintf_r+0x4b0>
   12178:	09d0206f          	jal	zero,14a14 <_vfprintf_r+0x2d48>
   1217c:	02012c23          	sw	zero,56(sp)
   12180:	00012823          	sw	zero,16(sp)
   12184:	11c10793          	addi	a5,sp,284
   12188:	08010d93          	addi	s11,sp,128
   1218c:	04f12023          	sw	a5,64(sp)
   12190:	06c12a23          	sw	a2,116(sp)
   12194:	002be793          	ori	a5,s7,2
   12198:	06b12c23          	sw	a1,120(sp)
   1219c:	000d8513          	addi	a0,s11,0
   121a0:	07010593          	addi	a1,sp,112
   121a4:	09810613          	addi	a2,sp,152
   121a8:	03112e23          	sw	a7,60(sp)
   121ac:	00f12e23          	sw	a5,28(sp)
   121b0:	06d12823          	sw	a3,112(sp)
   121b4:	06e12e23          	sw	a4,124(sp)
   121b8:	42d030ef          	jal	ra,15de4 <frexpl>
   121bc:	08812703          	lw	a4,136(sp)
   121c0:	08012603          	lw	a2,128(sp)
   121c4:	08412683          	lw	a3,132(sp)
   121c8:	06e12c23          	sw	a4,120(sp)
   121cc:	08c12703          	lw	a4,140(sp)
   121d0:	06c12823          	sw	a2,112(sp)
   121d4:	06d12a23          	sw	a3,116(sp)
   121d8:	06010613          	addi	a2,sp,96
   121dc:	3ffc06b7          	lui	a3,0x3ffc0
   121e0:	07010593          	addi	a1,sp,112
   121e4:	000d8513          	addi	a0,s11,0
   121e8:	06d12623          	sw	a3,108(sp)
   121ec:	06e12e23          	sw	a4,124(sp)
   121f0:	06012023          	sw	zero,96(sp)
   121f4:	06012223          	sw	zero,100(sp)
   121f8:	06012423          	sw	zero,104(sp)
   121fc:	2240c0ef          	jal	ra,1e420 <__multf3>
   12200:	08012e03          	lw	t3,128(sp)
   12204:	08412803          	lw	a6,132(sp)
   12208:	08812603          	lw	a2,136(sp)
   1220c:	07010593          	addi	a1,sp,112
   12210:	000d8513          	addi	a0,s11,0
   12214:	03c12623          	sw	t3,44(sp)
   12218:	03012023          	sw	a6,32(sp)
   1221c:	00c12c23          	sw	a2,24(sp)
   12220:	06012823          	sw	zero,112(sp)
   12224:	06012a23          	sw	zero,116(sp)
   12228:	06012c23          	sw	zero,120(sp)
   1222c:	06012e23          	sw	zero,124(sp)
   12230:	6990b0ef          	jal	ra,1e0c8 <__eqtf2>
   12234:	08c12b83          	lw	s7,140(sp)
   12238:	01812603          	lw	a2,24(sp)
   1223c:	02012803          	lw	a6,32(sp)
   12240:	02c12e03          	lw	t3,44(sp)
   12244:	03c12883          	lw	a7,60(sp)
   12248:	04012783          	lw	a5,64(sp)
   1224c:	00051663          	bne	a0,zero,12258 <_vfprintf_r+0x58c>
   12250:	00100693          	addi	a3,zero,1
   12254:	08d12c23          	sw	a3,152(sp)
   12258:	06100693          	addi	a3,zero,97
   1225c:	00d89463          	bne	a7,a3,12264 <_vfprintf_r+0x598>
   12260:	1990206f          	jal	zero,14bf8 <_vfprintf_r+0x2f2c>
   12264:	000216b7          	lui	a3,0x21
   12268:	bf468713          	addi	a4,a3,-1036 # 20bf4 <__clzsi2+0xb8>
   1226c:	00e12c23          	sw	a4,24(sp)
   12270:	03612023          	sw	s6,32(sp)
   12274:	000b8c93          	addi	s9,s7,0
   12278:	05212423          	sw	s2,72(sp)
   1227c:	01812483          	lw	s1,24(sp)
   12280:	00078c13          	addi	s8,a5,0
   12284:	03112623          	sw	a7,44(sp)
   12288:	02f12e23          	sw	a5,60(sp)
   1228c:	05a12023          	sw	s10,64(sp)
   12290:	00080b13          	addi	s6,a6,0
   12294:	00060b93          	addi	s7,a2,0
   12298:	000e0913          	addi	s2,t3,0
   1229c:	03c0006f          	jal	zero,122d8 <_vfprintf_r+0x60c>
   122a0:	07010593          	addi	a1,sp,112
   122a4:	000d8513          	addi	a0,s11,0
   122a8:	09212023          	sw	s2,128(sp)
   122ac:	09612223          	sw	s6,132(sp)
   122b0:	09712423          	sw	s7,136(sp)
   122b4:	09912623          	sw	s9,140(sp)
   122b8:	06012823          	sw	zero,112(sp)
   122bc:	06012a23          	sw	zero,116(sp)
   122c0:	06012c23          	sw	zero,120(sp)
   122c4:	06012e23          	sw	zero,124(sp)
   122c8:	6010b0ef          	jal	ra,1e0c8 <__eqtf2>
   122cc:	00051463          	bne	a0,zero,122d4 <_vfprintf_r+0x608>
   122d0:	0210206f          	jal	zero,14af0 <_vfprintf_r+0x2e24>
   122d4:	fffa8a93          	addi	s5,s5,-1
   122d8:	400307b7          	lui	a5,0x40030
   122dc:	06010613          	addi	a2,sp,96
   122e0:	07010593          	addi	a1,sp,112
   122e4:	000d8513          	addi	a0,s11,0
   122e8:	06f12623          	sw	a5,108(sp)
   122ec:	07212823          	sw	s2,112(sp)
   122f0:	07612a23          	sw	s6,116(sp)
   122f4:	07712c23          	sw	s7,120(sp)
   122f8:	07912e23          	sw	s9,124(sp)
   122fc:	06012023          	sw	zero,96(sp)
   12300:	06012223          	sw	zero,100(sp)
   12304:	06012423          	sw	zero,104(sp)
   12308:	1180c0ef          	jal	ra,1e420 <__multf3>
   1230c:	000d8513          	addi	a0,s11,0
   12310:	3f40e0ef          	jal	ra,20704 <__fixtfsi>
   12314:	00050593          	addi	a1,a0,0
   12318:	00050d13          	addi	s10,a0,0
   1231c:	000d8513          	addi	a0,s11,0
   12320:	08012c83          	lw	s9,128(sp)
   12324:	08412b83          	lw	s7,132(sp)
   12328:	08812b03          	lw	s6,136(sp)
   1232c:	08c12903          	lw	s2,140(sp)
   12330:	4c80e0ef          	jal	ra,207f8 <__floatsitf>
   12334:	08812783          	lw	a5,136(sp)
   12338:	08012603          	lw	a2,128(sp)
   1233c:	08412683          	lw	a3,132(sp)
   12340:	04f12c23          	sw	a5,88(sp)
   12344:	08c12783          	lw	a5,140(sp)
   12348:	04c12823          	sw	a2,80(sp)
   1234c:	06010593          	addi	a1,sp,96
   12350:	05010613          	addi	a2,sp,80
   12354:	07010513          	addi	a0,sp,112
   12358:	07912023          	sw	s9,96(sp)
   1235c:	07712223          	sw	s7,100(sp)
   12360:	07612423          	sw	s6,104(sp)
   12364:	07212623          	sw	s2,108(sp)
   12368:	04d12a23          	sw	a3,84(sp)
   1236c:	04f12e23          	sw	a5,92(sp)
   12370:	7f10c0ef          	jal	ra,1f360 <__subtf3>
   12374:	01a487b3          	add	a5,s1,s10
   12378:	0007c683          	lbu	a3,0(a5) # 40030000 <__BSS_END__+0x3ff7b5ac>
   1237c:	000c0593          	addi	a1,s8,0
   12380:	001c0c13          	addi	s8,s8,1
   12384:	07012903          	lw	s2,112(sp)
   12388:	07412b03          	lw	s6,116(sp)
   1238c:	07812b83          	lw	s7,120(sp)
   12390:	07c12c83          	lw	s9,124(sp)
   12394:	fedc0fa3          	sb	a3,-1(s8)
   12398:	f00a94e3          	bne	s5,zero,122a0 <_vfprintf_r+0x5d4>
   1239c:	02c12883          	lw	a7,44(sp)
   123a0:	03c12783          	lw	a5,60(sp)
   123a4:	00090e13          	addi	t3,s2,0
   123a8:	000b0813          	addi	a6,s6,0
   123ac:	000b8613          	addi	a2,s7,0
   123b0:	00058493          	addi	s1,a1,0
   123b4:	000c8b93          	addi	s7,s9,0
   123b8:	3ffe0ab7          	lui	s5,0x3ffe0
   123bc:	07010593          	addi	a1,sp,112
   123c0:	000d8513          	addi	a0,s11,0
   123c4:	05112623          	sw	a7,76(sp)
   123c8:	02f12623          	sw	a5,44(sp)
   123cc:	04812903          	lw	s2,72(sp)
   123d0:	000d0c93          	addi	s9,s10,0
   123d4:	09c12023          	sw	t3,128(sp)
   123d8:	04012d03          	lw	s10,64(sp)
   123dc:	05c12423          	sw	t3,72(sp)
   123e0:	09012223          	sw	a6,132(sp)
   123e4:	05012023          	sw	a6,64(sp)
   123e8:	08c12423          	sw	a2,136(sp)
   123ec:	02c12e23          	sw	a2,60(sp)
   123f0:	09712623          	sw	s7,140(sp)
   123f4:	06012823          	sw	zero,112(sp)
   123f8:	06012a23          	sw	zero,116(sp)
   123fc:	06012c23          	sw	zero,120(sp)
   12400:	07512e23          	sw	s5,124(sp)
   12404:	5b50b0ef          	jal	ra,1e1b8 <__getf2>
   12408:	02012b03          	lw	s6,32(sp)
   1240c:	02c12783          	lw	a5,44(sp)
   12410:	04c12883          	lw	a7,76(sp)
   12414:	02a04463          	blt	zero,a0,1243c <_vfprintf_r+0x770>
   12418:	07010593          	addi	a1,sp,112
   1241c:	000d8513          	addi	a0,s11,0
   12420:	03112023          	sw	a7,32(sp)
   12424:	4a50b0ef          	jal	ra,1e0c8 <__eqtf2>
   12428:	02012883          	lw	a7,32(sp)
   1242c:	02c12783          	lw	a5,44(sp)
   12430:	04051c63          	bne	a0,zero,12488 <_vfprintf_r+0x7bc>
   12434:	001cfc93          	andi	s9,s9,1
   12438:	040c8863          	beq	s9,zero,12488 <_vfprintf_r+0x7bc>
   1243c:	01812703          	lw	a4,24(sp)
   12440:	0a912023          	sw	s1,160(sp)
   12444:	fffc4603          	lbu	a2,-1(s8)
   12448:	00f74583          	lbu	a1,15(a4)
   1244c:	000c0713          	addi	a4,s8,0
   12450:	02c59063          	bne	a1,a2,12470 <_vfprintf_r+0x7a4>
   12454:	03000513          	addi	a0,zero,48
   12458:	fea70fa3          	sb	a0,-1(a4)
   1245c:	0a012703          	lw	a4,160(sp)
   12460:	fff70693          	addi	a3,a4,-1
   12464:	0ad12023          	sw	a3,160(sp)
   12468:	fff74603          	lbu	a2,-1(a4)
   1246c:	fec586e3          	beq	a1,a2,12458 <_vfprintf_r+0x78c>
   12470:	00160593          	addi	a1,a2,1
   12474:	03900513          	addi	a0,zero,57
   12478:	0ff5f593          	andi	a1,a1,255
   1247c:	00a61463          	bne	a2,a0,12484 <_vfprintf_r+0x7b8>
   12480:	1980206f          	jal	zero,14618 <_vfprintf_r+0x294c>
   12484:	feb70fa3          	sb	a1,-1(a4)
   12488:	09812603          	lw	a2,152(sp)
   1248c:	00f88713          	addi	a4,a7,15
   12490:	0ae10223          	sb	a4,164(sp)
   12494:	40fc06b3          	sub	a3,s8,a5
   12498:	fff60713          	addi	a4,a2,-1
   1249c:	08e12c23          	sw	a4,152(sp)
   124a0:	00d12c23          	sw	a3,24(sp)
   124a4:	00075463          	bge	a4,zero,124ac <_vfprintf_r+0x7e0>
   124a8:	7340206f          	jal	zero,14bdc <_vfprintf_r+0x2f10>
   124ac:	02b00693          	addi	a3,zero,43
   124b0:	0ad102a3          	sb	a3,165(sp)
   124b4:	00900693          	addi	a3,zero,9
   124b8:	00e6d463          	bge	a3,a4,124c0 <_vfprintf_r+0x7f4>
   124bc:	07c0206f          	jal	zero,14538 <_vfprintf_r+0x286c>
   124c0:	0a610693          	addi	a3,sp,166
   124c4:	03070713          	addi	a4,a4,48
   124c8:	00e68023          	sb	a4,0(a3)
   124cc:	18010713          	addi	a4,sp,384
   124d0:	40e686b3          	sub	a3,a3,a4
   124d4:	0dd68713          	addi	a4,a3,221
   124d8:	02e12623          	sw	a4,44(sp)
   124dc:	0e80206f          	jal	zero,145c4 <_vfprintf_r+0x28f8>
   124e0:	00412583          	lw	a1,4(sp)
   124e4:	0b410613          	addi	a2,sp,180
   124e8:	00090513          	addi	a0,s2,0
   124ec:	04612423          	sw	t1,72(sp)
   124f0:	04f12023          	sw	a5,64(sp)
   124f4:	03112e23          	sw	a7,60(sp)
   124f8:	02e12c23          	sw	a4,56(sp)
   124fc:	12d020ef          	jal	ra,14e28 <__sprint_r>
   12500:	3a0512e3          	bne	a0,zero,130a4 <_vfprintf_r+0x13d8>
   12504:	0bc12603          	lw	a2,188(sp)
   12508:	04812303          	lw	t1,72(sp)
   1250c:	04012783          	lw	a5,64(sp)
   12510:	03c12883          	lw	a7,60(sp)
   12514:	03812703          	lw	a4,56(sp)
   12518:	00098b13          	addi	s6,s3,0
   1251c:	a2dff06f          	jal	zero,11f48 <_vfprintf_r+0x27c>
   12520:	0b812a83          	lw	s5,184(sp)
   12524:	01812683          	lw	a3,24(sp)
   12528:	00100713          	addi	a4,zero,1
   1252c:	00e60633          	add	a2,a2,a4
   12530:	00ea8ab3          	add	s5,s5,a4
   12534:	008b0d93          	addi	s11,s6,8
   12538:	78d758e3          	bge	a4,a3,134c8 <_vfprintf_r+0x17fc>
   1253c:	00100713          	addi	a4,zero,1
   12540:	00eb2223          	sw	a4,4(s6)
   12544:	00fb2023          	sw	a5,0(s6)
   12548:	0ac12e23          	sw	a2,188(sp)
   1254c:	0b512c23          	sw	s5,184(sp)
   12550:	00700713          	addi	a4,zero,7
   12554:	01575463          	bge	a4,s5,1255c <_vfprintf_r+0x890>
   12558:	3f80106f          	jal	zero,13950 <_vfprintf_r+0x1c84>
   1255c:	02412703          	lw	a4,36(sp)
   12560:	001a8a93          	addi	s5,s5,1 # 3ffe0001 <__BSS_END__+0x3ff2b5ad>
   12564:	0b512c23          	sw	s5,184(sp)
   12568:	00e60633          	add	a2,a2,a4
   1256c:	02812703          	lw	a4,40(sp)
   12570:	0ac12e23          	sw	a2,188(sp)
   12574:	008d8d93          	addi	s11,s11,8
   12578:	feedac23          	sw	a4,-8(s11)
   1257c:	02412703          	lw	a4,36(sp)
   12580:	feedae23          	sw	a4,-4(s11)
   12584:	00700713          	addi	a4,zero,7
   12588:	01575463          	bge	a4,s5,12590 <_vfprintf_r+0x8c4>
   1258c:	3f00106f          	jal	zero,1397c <_vfprintf_r+0x1cb0>
   12590:	0c812703          	lw	a4,200(sp)
   12594:	0c012503          	lw	a0,192(sp)
   12598:	0c412583          	lw	a1,196(sp)
   1259c:	02f12023          	sw	a5,32(sp)
   125a0:	08e12423          	sw	a4,136(sp)
   125a4:	01812783          	lw	a5,24(sp)
   125a8:	0cc12703          	lw	a4,204(sp)
   125ac:	08a12023          	sw	a0,128(sp)
   125b0:	08b12223          	sw	a1,132(sp)
   125b4:	08010513          	addi	a0,sp,128
   125b8:	07010593          	addi	a1,sp,112
   125bc:	00c12e23          	sw	a2,28(sp)
   125c0:	06012823          	sw	zero,112(sp)
   125c4:	06012a23          	sw	zero,116(sp)
   125c8:	06012c23          	sw	zero,120(sp)
   125cc:	06012e23          	sw	zero,124(sp)
   125d0:	08e12623          	sw	a4,140(sp)
   125d4:	fff78b13          	addi	s6,a5,-1
   125d8:	2f10b0ef          	jal	ra,1e0c8 <__eqtf2>
   125dc:	01c12603          	lw	a2,28(sp)
   125e0:	720506e3          	beq	a0,zero,1350c <_vfprintf_r+0x1840>
   125e4:	02012783          	lw	a5,32(sp)
   125e8:	001a8a93          	addi	s5,s5,1
   125ec:	01660633          	add	a2,a2,s6
   125f0:	00178793          	addi	a5,a5,1
   125f4:	0b512c23          	sw	s5,184(sp)
   125f8:	0ac12e23          	sw	a2,188(sp)
   125fc:	00fda023          	sw	a5,0(s11)
   12600:	016da223          	sw	s6,4(s11)
   12604:	00700793          	addi	a5,zero,7
   12608:	6f57c0e3          	blt	a5,s5,134e8 <_vfprintf_r+0x181c>
   1260c:	008d8d93          	addi	s11,s11,8
   12610:	02c12783          	lw	a5,44(sp)
   12614:	02c12683          	lw	a3,44(sp)
   12618:	0a410713          	addi	a4,sp,164
   1261c:	00c78633          	add	a2,a5,a2
   12620:	001a8793          	addi	a5,s5,1
   12624:	00eda023          	sw	a4,0(s11)
   12628:	0ac12e23          	sw	a2,188(sp)
   1262c:	0af12c23          	sw	a5,184(sp)
   12630:	00dda223          	sw	a3,4(s11)
   12634:	00700713          	addi	a4,zero,7
   12638:	008d8b13          	addi	s6,s11,8
   1263c:	98f754e3          	bge	a4,a5,11fc4 <_vfprintf_r+0x2f8>
   12640:	00412583          	lw	a1,4(sp)
   12644:	0b410613          	addi	a2,sp,180
   12648:	00090513          	addi	a0,s2,0
   1264c:	7dc020ef          	jal	ra,14e28 <__sprint_r>
   12650:	24051ae3          	bne	a0,zero,130a4 <_vfprintf_r+0x13d8>
   12654:	0bc12603          	lw	a2,188(sp)
   12658:	00098b13          	addi	s6,s3,0
   1265c:	969ff06f          	jal	zero,11fc4 <_vfprintf_r+0x2f8>
   12660:	00c12783          	lw	a5,12(sp)
   12664:	00c12703          	lw	a4,12(sp)
   12668:	080109a3          	sb	zero,147(sp)
   1266c:	0007a783          	lw	a5,0(a5)
   12670:	00470493          	addi	s1,a4,4
   12674:	00079463          	bne	a5,zero,1267c <_vfprintf_r+0x9b0>
   12678:	16c0106f          	jal	zero,137e4 <_vfprintf_r+0x1b18>
   1267c:	000ad463          	bge	s5,zero,12684 <_vfprintf_r+0x9b8>
   12680:	2600106f          	jal	zero,138e0 <_vfprintf_r+0x1c14>
   12684:	00078513          	addi	a0,a5,0
   12688:	000a8613          	addi	a2,s5,0
   1268c:	00000593          	addi	a1,zero,0
   12690:	01112e23          	sw	a7,28(sp)
   12694:	00f12623          	sw	a5,12(sp)
   12698:	254030ef          	jal	ra,158ec <memchr>
   1269c:	00a12823          	sw	a0,16(sp)
   126a0:	09314703          	lbu	a4,147(sp)
   126a4:	00c12783          	lw	a5,12(sp)
   126a8:	01c12883          	lw	a7,28(sp)
   126ac:	00051463          	bne	a0,zero,126b4 <_vfprintf_r+0x9e8>
   126b0:	17c0206f          	jal	zero,1482c <_vfprintf_r+0x2b60>
   126b4:	40f50cb3          	sub	s9,a0,a5
   126b8:	fffcc693          	xori	a3,s9,-1
   126bc:	41f6d693          	srai	a3,a3,0x1f
   126c0:	00dcfc33          	and	s8,s9,a3
   126c4:	00070463          	beq	a4,zero,126cc <_vfprintf_r+0xa00>
   126c8:	24c0106f          	jal	zero,13914 <_vfprintf_r+0x1c48>
   126cc:	00912623          	sw	s1,12(sp)
   126d0:	0bc12603          	lw	a2,188(sp)
   126d4:	00012823          	sw	zero,16(sp)
   126d8:	02012023          	sw	zero,32(sp)
   126dc:	00012e23          	sw	zero,28(sp)
   126e0:	084bfd93          	andi	s11,s7,132
   126e4:	00000a93          	addi	s5,zero,0
   126e8:	00000313          	addi	t1,zero,0
   126ec:	00060813          	addi	a6,a2,0
   126f0:	800d9ee3          	bne	s11,zero,11f0c <_vfprintf_r+0x240>
   126f4:	00012703          	lw	a4,0(sp)
   126f8:	41870733          	sub	a4,a4,s8
   126fc:	5ae042e3          	blt	zero,a4,134a0 <_vfprintf_r+0x17d4>
   12700:	09314703          	lbu	a4,147(sp)
   12704:	800718e3          	bne	a4,zero,11f14 <_vfprintf_r+0x248>
   12708:	419a8ab3          	sub	s5,s5,s9
   1270c:	895054e3          	bge	zero,s5,11f94 <_vfprintf_r+0x2c8>
   12710:	000b3837          	lui	a6,0xb3
   12714:	0b812583          	lw	a1,184(sp)
   12718:	64080813          	addi	a6,a6,1600 # b3640 <zeroes.0>
   1271c:	09545663          	bge	s0,s5,127a8 <_vfprintf_r+0xadc>
   12720:	000a8493          	addi	s1,s5,0
   12724:	02f12e23          	sw	a5,60(sp)
   12728:	00700d93          	addi	s11,zero,7
   1272c:	000b0793          	addi	a5,s6,0
   12730:	03112c23          	sw	a7,56(sp)
   12734:	00030a93          	addi	s5,t1,0
   12738:	000a0b13          	addi	s6,s4,0
   1273c:	00c0006f          	jal	zero,12748 <_vfprintf_r+0xa7c>
   12740:	ff048493          	addi	s1,s1,-16
   12744:	04945663          	bge	s0,s1,12790 <_vfprintf_r+0xac4>
   12748:	01060613          	addi	a2,a2,16
   1274c:	00158593          	addi	a1,a1,1
   12750:	0147a023          	sw	s4,0(a5)
   12754:	0087a223          	sw	s0,4(a5)
   12758:	0ac12e23          	sw	a2,188(sp)
   1275c:	0ab12c23          	sw	a1,184(sp)
   12760:	00878793          	addi	a5,a5,8
   12764:	fcbddee3          	bge	s11,a1,12740 <_vfprintf_r+0xa74>
   12768:	00412583          	lw	a1,4(sp)
   1276c:	0b410613          	addi	a2,sp,180
   12770:	00090513          	addi	a0,s2,0
   12774:	6b4020ef          	jal	ra,14e28 <__sprint_r>
   12778:	120516e3          	bne	a0,zero,130a4 <_vfprintf_r+0x13d8>
   1277c:	ff048493          	addi	s1,s1,-16
   12780:	0bc12603          	lw	a2,188(sp)
   12784:	0b812583          	lw	a1,184(sp)
   12788:	00098793          	addi	a5,s3,0
   1278c:	fa944ee3          	blt	s0,s1,12748 <_vfprintf_r+0xa7c>
   12790:	000b0813          	addi	a6,s6,0
   12794:	03812883          	lw	a7,56(sp)
   12798:	00078b13          	addi	s6,a5,0
   1279c:	03c12783          	lw	a5,60(sp)
   127a0:	000a8313          	addi	t1,s5,0
   127a4:	00048a93          	addi	s5,s1,0
   127a8:	01560633          	add	a2,a2,s5
   127ac:	00158593          	addi	a1,a1,1
   127b0:	010b2023          	sw	a6,0(s6)
   127b4:	015b2223          	sw	s5,4(s6)
   127b8:	0ac12e23          	sw	a2,188(sp)
   127bc:	0ab12c23          	sw	a1,184(sp)
   127c0:	00700713          	addi	a4,zero,7
   127c4:	008b0b13          	addi	s6,s6,8
   127c8:	fcb75663          	bge	a4,a1,11f94 <_vfprintf_r+0x2c8>
   127cc:	00412583          	lw	a1,4(sp)
   127d0:	0b410613          	addi	a2,sp,180
   127d4:	00090513          	addi	a0,s2,0
   127d8:	04612023          	sw	t1,64(sp)
   127dc:	02f12e23          	sw	a5,60(sp)
   127e0:	03112c23          	sw	a7,56(sp)
   127e4:	644020ef          	jal	ra,14e28 <__sprint_r>
   127e8:	0a051ee3          	bne	a0,zero,130a4 <_vfprintf_r+0x13d8>
   127ec:	100bf713          	andi	a4,s7,256
   127f0:	0bc12603          	lw	a2,188(sp)
   127f4:	04012303          	lw	t1,64(sp)
   127f8:	03c12783          	lw	a5,60(sp)
   127fc:	03812883          	lw	a7,56(sp)
   12800:	00098b13          	addi	s6,s3,0
   12804:	f8070c63          	beq	a4,zero,11f9c <_vfprintf_r+0x2d0>
   12808:	06500713          	addi	a4,zero,101
   1280c:	d1175ae3          	bge	a4,a7,12520 <_vfprintf_r+0x854>
   12810:	0c412703          	lw	a4,196(sp)
   12814:	0c012583          	lw	a1,192(sp)
   12818:	0c812503          	lw	a0,200(sp)
   1281c:	08e12223          	sw	a4,132(sp)
   12820:	0cc12703          	lw	a4,204(sp)
   12824:	08b12023          	sw	a1,128(sp)
   12828:	08a12423          	sw	a0,136(sp)
   1282c:	07010593          	addi	a1,sp,112
   12830:	08010513          	addi	a0,sp,128
   12834:	02c12e23          	sw	a2,60(sp)
   12838:	02f12c23          	sw	a5,56(sp)
   1283c:	04612023          	sw	t1,64(sp)
   12840:	06012823          	sw	zero,112(sp)
   12844:	06012a23          	sw	zero,116(sp)
   12848:	06012c23          	sw	zero,120(sp)
   1284c:	06012e23          	sw	zero,124(sp)
   12850:	08e12623          	sw	a4,140(sp)
   12854:	0750b0ef          	jal	ra,1e0c8 <__eqtf2>
   12858:	03812783          	lw	a5,56(sp)
   1285c:	03c12603          	lw	a2,60(sp)
   12860:	04012303          	lw	t1,64(sp)
   12864:	220510e3          	bne	a0,zero,13284 <_vfprintf_r+0x15b8>
   12868:	0b812783          	lw	a5,184(sp)
   1286c:	00021737          	lui	a4,0x21
   12870:	c1070713          	addi	a4,a4,-1008 # 20c10 <__clzsi2+0xd4>
   12874:	00eb2023          	sw	a4,0(s6)
   12878:	00160613          	addi	a2,a2,1
   1287c:	00100713          	addi	a4,zero,1
   12880:	00178793          	addi	a5,a5,1
   12884:	00eb2223          	sw	a4,4(s6)
   12888:	0ac12e23          	sw	a2,188(sp)
   1288c:	0af12c23          	sw	a5,184(sp)
   12890:	00700713          	addi	a4,zero,7
   12894:	008b0b13          	addi	s6,s6,8
   12898:	00f75463          	bge	a4,a5,128a0 <_vfprintf_r+0xbd4>
   1289c:	2500106f          	jal	zero,13aec <_vfprintf_r+0x1e20>
   128a0:	09812783          	lw	a5,152(sp)
   128a4:	01812703          	lw	a4,24(sp)
   128a8:	4ee7d0e3          	bge	a5,a4,13588 <_vfprintf_r+0x18bc>
   128ac:	02412703          	lw	a4,36(sp)
   128b0:	0b812783          	lw	a5,184(sp)
   128b4:	008b0b13          	addi	s6,s6,8
   128b8:	00e60633          	add	a2,a2,a4
   128bc:	02812703          	lw	a4,40(sp)
   128c0:	00178793          	addi	a5,a5,1
   128c4:	0ac12e23          	sw	a2,188(sp)
   128c8:	feeb2c23          	sw	a4,-8(s6)
   128cc:	02412703          	lw	a4,36(sp)
   128d0:	0af12c23          	sw	a5,184(sp)
   128d4:	feeb2e23          	sw	a4,-4(s6)
   128d8:	00700713          	addi	a4,zero,7
   128dc:	68f740e3          	blt	a4,a5,1375c <_vfprintf_r+0x1a90>
   128e0:	01812783          	lw	a5,24(sp)
   128e4:	fff78a93          	addi	s5,a5,-1
   128e8:	ed505e63          	bge	zero,s5,11fc4 <_vfprintf_r+0x2f8>
   128ec:	000b3837          	lui	a6,0xb3
   128f0:	01000c93          	addi	s9,zero,16
   128f4:	0b812783          	lw	a5,184(sp)
   128f8:	00700d93          	addi	s11,zero,7
   128fc:	64080493          	addi	s1,a6,1600 # b3640 <zeroes.0>
   12900:	015cca63          	blt	s9,s5,12914 <_vfprintf_r+0xc48>
   12904:	2a50006f          	jal	zero,133a8 <_vfprintf_r+0x16dc>
   12908:	ff0a8a93          	addi	s5,s5,-16
   1290c:	015cc463          	blt	s9,s5,12914 <_vfprintf_r+0xc48>
   12910:	23c0106f          	jal	zero,13b4c <_vfprintf_r+0x1e80>
   12914:	01060613          	addi	a2,a2,16
   12918:	00178793          	addi	a5,a5,1
   1291c:	009b2023          	sw	s1,0(s6)
   12920:	019b2223          	sw	s9,4(s6)
   12924:	0ac12e23          	sw	a2,188(sp)
   12928:	0af12c23          	sw	a5,184(sp)
   1292c:	008b0b13          	addi	s6,s6,8
   12930:	fcfddce3          	bge	s11,a5,12908 <_vfprintf_r+0xc3c>
   12934:	00412583          	lw	a1,4(sp)
   12938:	0b410613          	addi	a2,sp,180
   1293c:	00090513          	addi	a0,s2,0
   12940:	4e8020ef          	jal	ra,14e28 <__sprint_r>
   12944:	76051063          	bne	a0,zero,130a4 <_vfprintf_r+0x13d8>
   12948:	0bc12603          	lw	a2,188(sp)
   1294c:	0b812783          	lw	a5,184(sp)
   12950:	00098b13          	addi	s6,s3,0
   12954:	fb5ff06f          	jal	zero,12908 <_vfprintf_r+0xc3c>
   12958:	020bf793          	andi	a5,s7,32
   1295c:	0e079863          	bne	a5,zero,12a4c <_vfprintf_r+0xd80>
   12960:	00c12783          	lw	a5,12(sp)
   12964:	010bf713          	andi	a4,s7,16
   12968:	00478793          	addi	a5,a5,4
   1296c:	00070463          	beq	a4,zero,12974 <_vfprintf_r+0xca8>
   12970:	7ad0106f          	jal	zero,1491c <_vfprintf_r+0x2c50>
   12974:	00c12683          	lw	a3,12(sp)
   12978:	040bf713          	andi	a4,s7,64
   1297c:	0006ac03          	lw	s8,0(a3)
   12980:	00071463          	bne	a4,zero,12988 <_vfprintf_r+0xcbc>
   12984:	33c0106f          	jal	zero,13cc0 <_vfprintf_r+0x1ff4>
   12988:	010c1c13          	slli	s8,s8,0x10
   1298c:	410c5c13          	srai	s8,s8,0x10
   12990:	41fc5e93          	srai	t4,s8,0x1f
   12994:	00f12623          	sw	a5,12(sp)
   12998:	000e8713          	addi	a4,t4,0
   1299c:	0c074a63          	blt	a4,zero,12a70 <_vfprintf_r+0xda4>
   129a0:	0e0ac863          	blt	s5,zero,12a90 <_vfprintf_r+0xdc4>
   129a4:	01dc67b3          	or	a5,s8,t4
   129a8:	f7fbfb93          	andi	s7,s7,-129
   129ac:	0e079263          	bne	a5,zero,12a90 <_vfprintf_r+0xdc4>
   129b0:	0e0a9063          	bne	s5,zero,12a90 <_vfprintf_r+0xdc4>
   129b4:	09314e83          	lbu	t4,147(sp)
   129b8:	000e9463          	bne	t4,zero,129c0 <_vfprintf_r+0xcf4>
   129bc:	3240106f          	jal	zero,13ce0 <_vfprintf_r+0x2014>
   129c0:	00000c13          	addi	s8,zero,0
   129c4:	00000313          	addi	t1,zero,0
   129c8:	00012823          	sw	zero,16(sp)
   129cc:	00000c93          	addi	s9,zero,0
   129d0:	00000a93          	addi	s5,zero,0
   129d4:	18010793          	addi	a5,sp,384
   129d8:	001c0c13          	addi	s8,s8,1
   129dc:	00031463          	bne	t1,zero,129e4 <_vfprintf_r+0xd18>
   129e0:	2f80206f          	jal	zero,14cd8 <_vfprintf_r+0x300c>
   129e4:	0bc12603          	lw	a2,188(sp)
   129e8:	0b812583          	lw	a1,184(sp)
   129ec:	084bfd93          	andi	s11,s7,132
   129f0:	002c0c13          	addi	s8,s8,2
   129f4:	00060813          	addi	a6,a2,0
   129f8:	00058513          	addi	a0,a1,0
   129fc:	700d8663          	beq	s11,zero,13108 <_vfprintf_r+0x143c>
   12a00:	02012023          	sw	zero,32(sp)
   12a04:	00012e23          	sw	zero,28(sp)
   12a08:	00000313          	addi	t1,zero,0
   12a0c:	d40e8263          	beq	t4,zero,11f50 <_vfprintf_r+0x284>
   12a10:	00200713          	addi	a4,zero,2
   12a14:	d08ff06f          	jal	zero,11f1c <_vfprintf_r+0x250>
   12a18:	00c12783          	lw	a5,12(sp)
   12a1c:	00100c93          	addi	s9,zero,1
   12a20:	080109a3          	sb	zero,147(sp)
   12a24:	0007a783          	lw	a5,0(a5)
   12a28:	10f10e23          	sb	a5,284(sp)
   12a2c:	00c12783          	lw	a5,12(sp)
   12a30:	00478793          	addi	a5,a5,4
   12a34:	00f12623          	sw	a5,12(sp)
   12a38:	ca8ff06f          	jal	zero,11ee0 <_vfprintf_r+0x214>
   12a3c:	020bf793          	andi	a5,s7,32
   12a40:	010bee13          	ori	t3,s7,16
   12a44:	400782e3          	beq	a5,zero,13648 <_vfprintf_r+0x197c>
   12a48:	000e0b93          	addi	s7,t3,0
   12a4c:	00c12783          	lw	a5,12(sp)
   12a50:	00778793          	addi	a5,a5,7
   12a54:	ff87f793          	andi	a5,a5,-8
   12a58:	0047a703          	lw	a4,4(a5)
   12a5c:	00878693          	addi	a3,a5,8
   12a60:	00d12623          	sw	a3,12(sp)
   12a64:	0007ac03          	lw	s8,0(a5)
   12a68:	00070e93          	addi	t4,a4,0
   12a6c:	f2075ae3          	bge	a4,zero,129a0 <_vfprintf_r+0xcd4>
   12a70:	018037b3          	sltu	a5,zero,s8
   12a74:	41d00eb3          	sub	t4,zero,t4
   12a78:	40fe8eb3          	sub	t4,t4,a5
   12a7c:	02d00793          	addi	a5,zero,45
   12a80:	08f109a3          	sb	a5,147(sp)
   12a84:	41800c33          	sub	s8,zero,s8
   12a88:	000ac463          	blt	s5,zero,12a90 <_vfprintf_r+0xdc4>
   12a8c:	f7fbfb93          	andi	s7,s7,-129
   12a90:	260e9e63          	bne	t4,zero,12d0c <_vfprintf_r+0x1040>
   12a94:	00900793          	addi	a5,zero,9
   12a98:	2787ea63          	bltu	a5,s8,12d0c <_vfprintf_r+0x1040>
   12a9c:	030c0c13          	addi	s8,s8,48
   12aa0:	17810fa3          	sb	s8,383(sp)
   12aa4:	000a8c13          	addi	s8,s5,0
   12aa8:	3f505ae3          	bge	zero,s5,1369c <_vfprintf_r+0x19d0>
   12aac:	09314e83          	lbu	t4,147(sp)
   12ab0:	00000313          	addi	t1,zero,0
   12ab4:	00100c93          	addi	s9,zero,1
   12ab8:	17f10793          	addi	a5,sp,383
   12abc:	00012823          	sw	zero,16(sp)
   12ac0:	f00e8ee3          	beq	t4,zero,129dc <_vfprintf_r+0xd10>
   12ac4:	001c0c13          	addi	s8,s8,1
   12ac8:	f15ff06f          	jal	zero,129dc <_vfprintf_r+0xd10>
   12acc:	00c12783          	lw	a5,12(sp)
   12ad0:	0007a783          	lw	a5,0(a5)
   12ad4:	00f12023          	sw	a5,0(sp)
   12ad8:	2c07d0e3          	bge	a5,zero,13598 <_vfprintf_r+0x18cc>
   12adc:	00012783          	lw	a5,0(sp)
   12ae0:	40f007b3          	sub	a5,zero,a5
   12ae4:	00f12023          	sw	a5,0(sp)
   12ae8:	00c12783          	lw	a5,12(sp)
   12aec:	00478793          	addi	a5,a5,4
   12af0:	00f12623          	sw	a5,12(sp)
   12af4:	000d4883          	lbu	a7,0(s10)
   12af8:	004beb93          	ori	s7,s7,4
   12afc:	b70ff06f          	jal	zero,11e6c <_vfprintf_r+0x1a0>
   12b00:	02b00793          	addi	a5,zero,43
   12b04:	000d4883          	lbu	a7,0(s10)
   12b08:	08f109a3          	sb	a5,147(sp)
   12b0c:	b60ff06f          	jal	zero,11e6c <_vfprintf_r+0x1a0>
   12b10:	000d4883          	lbu	a7,0(s10)
   12b14:	080beb93          	ori	s7,s7,128
   12b18:	b54ff06f          	jal	zero,11e6c <_vfprintf_r+0x1a0>
   12b1c:	000d4883          	lbu	a7,0(s10)
   12b20:	02a00793          	addi	a5,zero,42
   12b24:	001d0693          	addi	a3,s10,1
   12b28:	00f89463          	bne	a7,a5,12b30 <_vfprintf_r+0xe64>
   12b2c:	0dc0206f          	jal	zero,14c08 <_vfprintf_r+0x2f3c>
   12b30:	fd088793          	addi	a5,a7,-48
   12b34:	00900613          	addi	a2,zero,9
   12b38:	00000a93          	addi	s5,zero,0
   12b3c:	02f66463          	bltu	a2,a5,12b64 <_vfprintf_r+0xe98>
   12b40:	002a9713          	slli	a4,s5,0x2
   12b44:	0006c883          	lbu	a7,0(a3)
   12b48:	01570ab3          	add	s5,a4,s5
   12b4c:	001a9a93          	slli	s5,s5,0x1
   12b50:	00fa8ab3          	add	s5,s5,a5
   12b54:	fd088793          	addi	a5,a7,-48
   12b58:	00168693          	addi	a3,a3,1
   12b5c:	fef672e3          	bgeu	a2,a5,12b40 <_vfprintf_r+0xe74>
   12b60:	3c0ac8e3          	blt	s5,zero,13730 <_vfprintf_r+0x1a64>
   12b64:	00068d13          	addi	s10,a3,0
   12b68:	b08ff06f          	jal	zero,11e70 <_vfprintf_r+0x1a4>
   12b6c:	00090513          	addi	a0,s2,0
   12b70:	6d1020ef          	jal	ra,15a40 <_localeconv_r>
   12b74:	00452783          	lw	a5,4(a0)
   12b78:	00078513          	addi	a0,a5,0
   12b7c:	02f12a23          	sw	a5,52(sp)
   12b80:	1d8030ef          	jal	ra,15d58 <strlen>
   12b84:	00050493          	addi	s1,a0,0
   12b88:	00090513          	addi	a0,s2,0
   12b8c:	04912223          	sw	s1,68(sp)
   12b90:	6b1020ef          	jal	ra,15a40 <_localeconv_r>
   12b94:	00852703          	lw	a4,8(a0)
   12b98:	000d4883          	lbu	a7,0(s10)
   12b9c:	02e12823          	sw	a4,48(sp)
   12ba0:	ac048663          	beq	s1,zero,11e6c <_vfprintf_r+0x1a0>
   12ba4:	ac070463          	beq	a4,zero,11e6c <_vfprintf_r+0x1a0>
   12ba8:	00074783          	lbu	a5,0(a4)
   12bac:	ac078063          	beq	a5,zero,11e6c <_vfprintf_r+0x1a0>
   12bb0:	400beb93          	ori	s7,s7,1024
   12bb4:	ab8ff06f          	jal	zero,11e6c <_vfprintf_r+0x1a0>
   12bb8:	000d4883          	lbu	a7,0(s10)
   12bbc:	001beb93          	ori	s7,s7,1
   12bc0:	aacff06f          	jal	zero,11e6c <_vfprintf_r+0x1a0>
   12bc4:	09314783          	lbu	a5,147(sp)
   12bc8:	000d4883          	lbu	a7,0(s10)
   12bcc:	aa079063          	bne	a5,zero,11e6c <_vfprintf_r+0x1a0>
   12bd0:	02000793          	addi	a5,zero,32
   12bd4:	08f109a3          	sb	a5,147(sp)
   12bd8:	a94ff06f          	jal	zero,11e6c <_vfprintf_r+0x1a0>
   12bdc:	020bf793          	andi	a5,s7,32
   12be0:	010be693          	ori	a3,s7,16
   12be4:	220782e3          	beq	a5,zero,13608 <_vfprintf_r+0x193c>
   12be8:	00c12783          	lw	a5,12(sp)
   12bec:	00778793          	addi	a5,a5,7
   12bf0:	ff87f793          	andi	a5,a5,-8
   12bf4:	00878713          	addi	a4,a5,8
   12bf8:	00e12623          	sw	a4,12(sp)
   12bfc:	0047a603          	lw	a2,4(a5)
   12c00:	0007a703          	lw	a4,0(a5)
   12c04:	080109a3          	sb	zero,147(sp)
   12c08:	bff6fb93          	andi	s7,a3,-1025
   12c0c:	600aca63          	blt	s5,zero,13220 <_vfprintf_r+0x1554>
   12c10:	00c767b3          	or	a5,a4,a2
   12c14:	b7f6fb93          	andi	s7,a3,-1153
   12c18:	60079463          	bne	a5,zero,13220 <_vfprintf_r+0x1554>
   12c1c:	600a9263          	bne	s5,zero,13220 <_vfprintf_r+0x1554>
   12c20:	0016fc13          	andi	s8,a3,1
   12c24:	080c02e3          	beq	s8,zero,134a8 <_vfprintf_r+0x17dc>
   12c28:	03000793          	addi	a5,zero,48
   12c2c:	16f10fa3          	sb	a5,383(sp)
   12c30:	000c0c93          	addi	s9,s8,0
   12c34:	00012823          	sw	zero,16(sp)
   12c38:	02012023          	sw	zero,32(sp)
   12c3c:	00012e23          	sw	zero,28(sp)
   12c40:	00000313          	addi	t1,zero,0
   12c44:	17f10793          	addi	a5,sp,383
   12c48:	ab4ff06f          	jal	zero,11efc <_vfprintf_r+0x230>
   12c4c:	000d4883          	lbu	a7,0(s10)
   12c50:	06800793          	addi	a5,zero,104
   12c54:	2ef88ce3          	beq	a7,a5,1374c <_vfprintf_r+0x1a80>
   12c58:	040beb93          	ori	s7,s7,64
   12c5c:	a10ff06f          	jal	zero,11e6c <_vfprintf_r+0x1a0>
   12c60:	00c12703          	lw	a4,12(sp)
   12c64:	020bf793          	andi	a5,s7,32
   12c68:	00470713          	addi	a4,a4,4
   12c6c:	1a079ce3          	bne	a5,zero,13624 <_vfprintf_r+0x1958>
   12c70:	010bf793          	andi	a5,s7,16
   12c74:	760798e3          	bne	a5,zero,13be4 <_vfprintf_r+0x1f18>
   12c78:	040bf793          	andi	a5,s7,64
   12c7c:	00078463          	beq	a5,zero,12c84 <_vfprintf_r+0xfb8>
   12c80:	44c0106f          	jal	zero,140cc <_vfprintf_r+0x2400>
   12c84:	200bfe13          	andi	t3,s7,512
   12c88:	740e0ee3          	beq	t3,zero,13be4 <_vfprintf_r+0x1f18>
   12c8c:	00c12783          	lw	a5,12(sp)
   12c90:	00812683          	lw	a3,8(sp)
   12c94:	00e12623          	sw	a4,12(sp)
   12c98:	0007a783          	lw	a5,0(a5)
   12c9c:	00d78023          	sb	a3,0(a5)
   12ca0:	938ff06f          	jal	zero,11dd8 <_vfprintf_r+0x10c>
   12ca4:	000d4883          	lbu	a7,0(s10)
   12ca8:	06c00793          	addi	a5,zero,108
   12cac:	28f888e3          	beq	a7,a5,1373c <_vfprintf_r+0x1a70>
   12cb0:	010beb93          	ori	s7,s7,16
   12cb4:	9b8ff06f          	jal	zero,11e6c <_vfprintf_r+0x1a0>
   12cb8:	020bf793          	andi	a5,s7,32
   12cbc:	24079863          	bne	a5,zero,12f0c <_vfprintf_r+0x1240>
   12cc0:	010bf793          	andi	a5,s7,16
   12cc4:	00078463          	beq	a5,zero,12ccc <_vfprintf_r+0x1000>
   12cc8:	44d0106f          	jal	zero,14914 <_vfprintf_r+0x2c48>
   12ccc:	00c12703          	lw	a4,12(sp)
   12cd0:	040bf793          	andi	a5,s7,64
   12cd4:	00072c03          	lw	s8,0(a4)
   12cd8:	00470713          	addi	a4,a4,4
   12cdc:	00e12623          	sw	a4,12(sp)
   12ce0:	00079463          	bne	a5,zero,12ce8 <_vfprintf_r+0x101c>
   12ce4:	7b10006f          	jal	zero,13c94 <_vfprintf_r+0x1fc8>
   12ce8:	010c1c13          	slli	s8,s8,0x10
   12cec:	080109a3          	sb	zero,147(sp)
   12cf0:	010c5c13          	srli	s8,s8,0x10
   12cf4:	00000e93          	addi	t4,zero,0
   12cf8:	d80acce3          	blt	s5,zero,12a90 <_vfprintf_r+0xdc4>
   12cfc:	018ae333          	or	t1,s5,s8
   12d00:	f7fbfb93          	andi	s7,s7,-129
   12d04:	16030463          	beq	t1,zero,12e6c <_vfprintf_r+0x11a0>
   12d08:	d80e86e3          	beq	t4,zero,12a94 <_vfprintf_r+0xdc8>
   12d0c:	ccccdcb7          	lui	s9,0xccccd
   12d10:	ccccddb7          	lui	s11,0xccccd
   12d14:	ccdc8c93          	addi	s9,s9,-819 # cccccccd <__BSS_END__+0xccc18279>
   12d18:	cccd8d93          	addi	s11,s11,-820 # cccccccc <__BSS_END__+0xccc18278>
   12d1c:	400bf813          	andi	a6,s7,1024
   12d20:	00000593          	addi	a1,zero,0
   12d24:	18010613          	addi	a2,sp,384
   12d28:	00088493          	addi	s1,a7,0
   12d2c:	0800006f          	jal	zero,12dac <_vfprintf_r+0x10e0>
   12d30:	03012703          	lw	a4,48(sp)
   12d34:	00074703          	lbu	a4,0(a4)
   12d38:	f0170693          	addi	a3,a4,-255
   12d3c:	00068463          	beq	a3,zero,12d44 <_vfprintf_r+0x1078>
   12d40:	5cb70ae3          	beq	a4,a1,13b14 <_vfprintf_r+0x1e48>
   12d44:	000c0313          	addi	t1,s8,0
   12d48:	000e8513          	addi	a0,t4,0
   12d4c:	00078613          	addi	a2,a5,0
   12d50:	01dc0733          	add	a4,s8,t4
   12d54:	018736b3          	sltu	a3,a4,s8
   12d58:	00d70733          	add	a4,a4,a3
   12d5c:	039736b3          	mulhu	a3,a4,s9
   12d60:	0026de13          	srli	t3,a3,0x2
   12d64:	ffc6f693          	andi	a3,a3,-4
   12d68:	01c686b3          	add	a3,a3,t3
   12d6c:	40d70733          	sub	a4,a4,a3
   12d70:	40ec0733          	sub	a4,s8,a4
   12d74:	00ec36b3          	sltu	a3,s8,a4
   12d78:	40de86b3          	sub	a3,t4,a3
   12d7c:	039686b3          	mul	a3,a3,s9
   12d80:	03b70eb3          	mul	t4,a4,s11
   12d84:	03973e33          	mulhu	t3,a4,s9
   12d88:	01d686b3          	add	a3,a3,t4
   12d8c:	03970733          	mul	a4,a4,s9
   12d90:	01c686b3          	add	a3,a3,t3
   12d94:	01f69e13          	slli	t3,a3,0x1f
   12d98:	0016de93          	srli	t4,a3,0x1
   12d9c:	00175713          	srli	a4,a4,0x1
   12da0:	00ee0c33          	add	s8,t3,a4
   12da4:	00051463          	bne	a0,zero,12dac <_vfprintf_r+0x10e0>
   12da8:	2750106f          	jal	zero,1481c <_vfprintf_r+0x2b50>
   12dac:	01dc0733          	add	a4,s8,t4
   12db0:	018736b3          	sltu	a3,a4,s8
   12db4:	00d706b3          	add	a3,a4,a3
   12db8:	0396b533          	mulhu	a0,a3,s9
   12dbc:	00158593          	addi	a1,a1,1
   12dc0:	fff60793          	addi	a5,a2,-1
   12dc4:	00255313          	srli	t1,a0,0x2
   12dc8:	ffc57513          	andi	a0,a0,-4
   12dcc:	00650533          	add	a0,a0,t1
   12dd0:	40a686b3          	sub	a3,a3,a0
   12dd4:	40dc06b3          	sub	a3,s8,a3
   12dd8:	00dc3533          	sltu	a0,s8,a3
   12ddc:	40ae8533          	sub	a0,t4,a0
   12de0:	0396b333          	mulhu	t1,a3,s9
   12de4:	03950533          	mul	a0,a0,s9
   12de8:	039686b3          	mul	a3,a3,s9
   12dec:	00650533          	add	a0,a0,t1
   12df0:	01f51513          	slli	a0,a0,0x1f
   12df4:	0016d693          	srli	a3,a3,0x1
   12df8:	00d506b3          	add	a3,a0,a3
   12dfc:	00269513          	slli	a0,a3,0x2
   12e00:	00d506b3          	add	a3,a0,a3
   12e04:	00169693          	slli	a3,a3,0x1
   12e08:	40dc06b3          	sub	a3,s8,a3
   12e0c:	03068693          	addi	a3,a3,48
   12e10:	fed60fa3          	sb	a3,-1(a2)
   12e14:	f0081ee3          	bne	a6,zero,12d30 <_vfprintf_r+0x1064>
   12e18:	000c0313          	addi	t1,s8,0
   12e1c:	000e8513          	addi	a0,t4,0
   12e20:	00078613          	addi	a2,a5,0
   12e24:	f31ff06f          	jal	zero,12d54 <_vfprintf_r+0x1088>
   12e28:	000087b7          	lui	a5,0x8
   12e2c:	83078793          	addi	a5,a5,-2000 # 7830 <exit-0x8884>
   12e30:	00c12703          	lw	a4,12(sp)
   12e34:	08f11a23          	sh	a5,148(sp)
   12e38:	00c12783          	lw	a5,12(sp)
   12e3c:	080109a3          	sb	zero,147(sp)
   12e40:	00072703          	lw	a4,0(a4)
   12e44:	00478793          	addi	a5,a5,4
   12e48:	00000613          	addi	a2,zero,0
   12e4c:	060ac8e3          	blt	s5,zero,136bc <_vfprintf_r+0x19f0>
   12e50:	f7fbfe13          	andi	t3,s7,-129
   12e54:	002e6b93          	ori	s7,t3,2
   12e58:	5a0a92e3          	bne	s5,zero,13bfc <_vfprintf_r+0x1f30>
   12e5c:	5a0710e3          	bne	a4,zero,13bfc <_vfprintf_r+0x1f30>
   12e60:	00f12623          	sw	a5,12(sp)
   12e64:	00200313          	addi	t1,zero,2
   12e68:	07800893          	addi	a7,zero,120
   12e6c:	09314e83          	lbu	t4,147(sp)
   12e70:	00000a93          	addi	s5,zero,0
   12e74:	00000c13          	addi	s8,zero,0
   12e78:	00000c93          	addi	s9,zero,0
   12e7c:	18010793          	addi	a5,sp,384
   12e80:	00012823          	sw	zero,16(sp)
   12e84:	c3dff06f          	jal	zero,12ac0 <_vfprintf_r+0xdf4>
   12e88:	020bf793          	andi	a5,s7,32
   12e8c:	000794e3          	bne	a5,zero,13694 <_vfprintf_r+0x19c8>
   12e90:	00c12783          	lw	a5,12(sp)
   12e94:	010bf713          	andi	a4,s7,16
   12e98:	00478793          	addi	a5,a5,4
   12e9c:	00070463          	beq	a4,zero,12ea4 <_vfprintf_r+0x11d8>
   12ea0:	2650106f          	jal	zero,14904 <_vfprintf_r+0x2c38>
   12ea4:	00c12703          	lw	a4,12(sp)
   12ea8:	040bf693          	andi	a3,s7,64
   12eac:	00072703          	lw	a4,0(a4)
   12eb0:	5c0684e3          	beq	a3,zero,13c78 <_vfprintf_r+0x1fac>
   12eb4:	01071713          	slli	a4,a4,0x10
   12eb8:	01075713          	srli	a4,a4,0x10
   12ebc:	00f12623          	sw	a5,12(sp)
   12ec0:	000b8693          	addi	a3,s7,0
   12ec4:	00000613          	addi	a2,zero,0
   12ec8:	d3dff06f          	jal	zero,12c04 <_vfprintf_r+0xf38>
   12ecc:	020bf793          	andi	a5,s7,32
   12ed0:	010bee13          	ori	t3,s7,16
   12ed4:	02079e63          	bne	a5,zero,12f10 <_vfprintf_r+0x1244>
   12ed8:	00c12783          	lw	a5,12(sp)
   12edc:	00c12703          	lw	a4,12(sp)
   12ee0:	080109a3          	sb	zero,147(sp)
   12ee4:	00478793          	addi	a5,a5,4
   12ee8:	00072c03          	lw	s8,0(a4)
   12eec:	00000e93          	addi	t4,zero,0
   12ef0:	680acae3          	blt	s5,zero,13d84 <_vfprintf_r+0x20b8>
   12ef4:	00f12623          	sw	a5,12(sp)
   12ef8:	f7fe7b93          	andi	s7,t3,-129
   12efc:	b80c1ce3          	bne	s8,zero,12a94 <_vfprintf_r+0xdc8>
   12f00:	b80a9ae3          	bne	s5,zero,12a94 <_vfprintf_r+0xdc8>
   12f04:	00000313          	addi	t1,zero,0
   12f08:	f65ff06f          	jal	zero,12e6c <_vfprintf_r+0x11a0>
   12f0c:	000b8e13          	addi	t3,s7,0
   12f10:	00c12783          	lw	a5,12(sp)
   12f14:	080109a3          	sb	zero,147(sp)
   12f18:	00778793          	addi	a5,a5,7
   12f1c:	ff87f793          	andi	a5,a5,-8
   12f20:	00878713          	addi	a4,a5,8
   12f24:	00e12623          	sw	a4,12(sp)
   12f28:	0007ac03          	lw	s8,0(a5)
   12f2c:	0047ae83          	lw	t4,4(a5)
   12f30:	780ac263          	blt	s5,zero,136b4 <_vfprintf_r+0x19e8>
   12f34:	f7fe7b93          	andi	s7,t3,-129
   12f38:	b40a9ce3          	bne	s5,zero,12a90 <_vfprintf_r+0xdc4>
   12f3c:	01dc67b3          	or	a5,s8,t4
   12f40:	b40798e3          	bne	a5,zero,12a90 <_vfprintf_r+0xdc4>
   12f44:	00000313          	addi	t1,zero,0
   12f48:	f25ff06f          	jal	zero,12e6c <_vfprintf_r+0x11a0>
   12f4c:	000d4883          	lbu	a7,0(s10)
   12f50:	008beb93          	ori	s7,s7,8
   12f54:	f19fe06f          	jal	zero,11e6c <_vfprintf_r+0x1a0>
   12f58:	00012703          	lw	a4,0(sp)
   12f5c:	41870db3          	sub	s11,a4,s8
   12f60:	01b04463          	blt	zero,s11,12f68 <_vfprintf_r+0x129c>
   12f64:	828ff06f          	jal	zero,11f8c <_vfprintf_r+0x2c0>
   12f68:	01000e93          	addi	t4,zero,16
   12f6c:	0b812583          	lw	a1,184(sp)
   12f70:	000b3837          	lui	a6,0xb3
   12f74:	01bec463          	blt	t4,s11,12f7c <_vfprintf_r+0x12b0>
   12f78:	2050106f          	jal	zero,1497c <_vfprintf_r+0x2cb0>
   12f7c:	000d8493          	addi	s1,s11,0
   12f80:	02f12e23          	sw	a5,60(sp)
   12f84:	000d0d93          	addi	s11,s10,0
   12f88:	000b0793          	addi	a5,s6,0
   12f8c:	000c8d13          	addi	s10,s9,0
   12f90:	00700293          	addi	t0,zero,7
   12f94:	000c0c93          	addi	s9,s8,0
   12f98:	03112c23          	sw	a7,56(sp)
   12f9c:	000a8c13          	addi	s8,s5,0
   12fa0:	00030b13          	addi	s6,t1,0
   12fa4:	64080a93          	addi	s5,a6,1600 # b3640 <zeroes.0>
   12fa8:	00c0006f          	jal	zero,12fb4 <_vfprintf_r+0x12e8>
   12fac:	ff048493          	addi	s1,s1,-16
   12fb0:	049eda63          	bge	t4,s1,13004 <_vfprintf_r+0x1338>
   12fb4:	01060613          	addi	a2,a2,16
   12fb8:	00158593          	addi	a1,a1,1
   12fbc:	0157a023          	sw	s5,0(a5)
   12fc0:	01d7a223          	sw	t4,4(a5)
   12fc4:	0ac12e23          	sw	a2,188(sp)
   12fc8:	0ab12c23          	sw	a1,184(sp)
   12fcc:	00878793          	addi	a5,a5,8
   12fd0:	fcb2dee3          	bge	t0,a1,12fac <_vfprintf_r+0x12e0>
   12fd4:	00412583          	lw	a1,4(sp)
   12fd8:	0b410613          	addi	a2,sp,180
   12fdc:	00090513          	addi	a0,s2,0
   12fe0:	649010ef          	jal	ra,14e28 <__sprint_r>
   12fe4:	0c051063          	bne	a0,zero,130a4 <_vfprintf_r+0x13d8>
   12fe8:	01000e93          	addi	t4,zero,16
   12fec:	ff048493          	addi	s1,s1,-16
   12ff0:	0bc12603          	lw	a2,188(sp)
   12ff4:	0b812583          	lw	a1,184(sp)
   12ff8:	00098793          	addi	a5,s3,0
   12ffc:	00700293          	addi	t0,zero,7
   13000:	fa9ecae3          	blt	t4,s1,12fb4 <_vfprintf_r+0x12e8>
   13004:	000b0313          	addi	t1,s6,0
   13008:	03812883          	lw	a7,56(sp)
   1300c:	00078b13          	addi	s6,a5,0
   13010:	03c12783          	lw	a5,60(sp)
   13014:	000a8813          	addi	a6,s5,0
   13018:	000c0a93          	addi	s5,s8,0
   1301c:	000c8c13          	addi	s8,s9,0
   13020:	000d0c93          	addi	s9,s10,0
   13024:	000d8d13          	addi	s10,s11,0
   13028:	00048d93          	addi	s11,s1,0
   1302c:	01b60633          	add	a2,a2,s11
   13030:	00158593          	addi	a1,a1,1
   13034:	010b2023          	sw	a6,0(s6)
   13038:	01bb2223          	sw	s11,4(s6)
   1303c:	0ac12e23          	sw	a2,188(sp)
   13040:	0ab12c23          	sw	a1,184(sp)
   13044:	00700713          	addi	a4,zero,7
   13048:	008b0b13          	addi	s6,s6,8
   1304c:	00b74463          	blt	a4,a1,13054 <_vfprintf_r+0x1388>
   13050:	f3dfe06f          	jal	zero,11f8c <_vfprintf_r+0x2c0>
   13054:	00412583          	lw	a1,4(sp)
   13058:	0b410613          	addi	a2,sp,180
   1305c:	00090513          	addi	a0,s2,0
   13060:	04612023          	sw	t1,64(sp)
   13064:	02f12e23          	sw	a5,60(sp)
   13068:	03112c23          	sw	a7,56(sp)
   1306c:	5bd010ef          	jal	ra,14e28 <__sprint_r>
   13070:	02051a63          	bne	a0,zero,130a4 <_vfprintf_r+0x13d8>
   13074:	0bc12603          	lw	a2,188(sp)
   13078:	03812883          	lw	a7,56(sp)
   1307c:	03c12783          	lw	a5,60(sp)
   13080:	04012303          	lw	t1,64(sp)
   13084:	00098b13          	addi	s6,s3,0
   13088:	f05fe06f          	jal	zero,11f8c <_vfprintf_r+0x2c0>
   1308c:	00412583          	lw	a1,4(sp)
   13090:	0b410613          	addi	a2,sp,180
   13094:	00090513          	addi	a0,s2,0
   13098:	591010ef          	jal	ra,14e28 <__sprint_r>
   1309c:	00051463          	bne	a0,zero,130a4 <_vfprintf_r+0x13d8>
   130a0:	f5dfe06f          	jal	zero,11ffc <_vfprintf_r+0x330>
   130a4:	01012583          	lw	a1,16(sp)
   130a8:	00412483          	lw	s1,4(sp)
   130ac:	00058663          	beq	a1,zero,130b8 <_vfprintf_r+0x13ec>
   130b0:	00090513          	addi	a0,s2,0
   130b4:	8b0fe0ef          	jal	ra,11164 <_free_r>
   130b8:	00c4d783          	lhu	a5,12(s1)
   130bc:	1b812403          	lw	s0,440(sp)
   130c0:	1ac12983          	lw	s3,428(sp)
   130c4:	0407f793          	andi	a5,a5,64
   130c8:	1a812a03          	lw	s4,424(sp)
   130cc:	1a412a83          	lw	s5,420(sp)
   130d0:	1a012b03          	lw	s6,416(sp)
   130d4:	19c12b83          	lw	s7,412(sp)
   130d8:	19812c03          	lw	s8,408(sp)
   130dc:	19412c83          	lw	s9,404(sp)
   130e0:	18c12d83          	lw	s11,396(sp)
   130e4:	00078463          	beq	a5,zero,130ec <_vfprintf_r+0x1420>
   130e8:	fb5fe06f          	jal	zero,1209c <_vfprintf_r+0x3d0>
   130ec:	1bc12083          	lw	ra,444(sp)
   130f0:	00812503          	lw	a0,8(sp)
   130f4:	1b412483          	lw	s1,436(sp)
   130f8:	1b012903          	lw	s2,432(sp)
   130fc:	19012d03          	lw	s10,400(sp)
   13100:	1c010113          	addi	sp,sp,448
   13104:	00008067          	jalr	zero,0(ra)
   13108:	00012703          	lw	a4,0(sp)
   1310c:	02012023          	sw	zero,32(sp)
   13110:	00012e23          	sw	zero,28(sp)
   13114:	41870733          	sub	a4,a4,s8
   13118:	00000313          	addi	t1,zero,0
   1311c:	28e04a63          	blt	zero,a4,133b0 <_vfprintf_r+0x16e4>
   13120:	000e9463          	bne	t4,zero,13128 <_vfprintf_r+0x145c>
   13124:	e2dfe06f          	jal	zero,11f50 <_vfprintf_r+0x284>
   13128:	00200713          	addi	a4,zero,2
   1312c:	df1fe06f          	jal	zero,11f1c <_vfprintf_r+0x250>
   13130:	00412583          	lw	a1,4(sp)
   13134:	0b410613          	addi	a2,sp,180
   13138:	00090513          	addi	a0,s2,0
   1313c:	04612023          	sw	t1,64(sp)
   13140:	02f12e23          	sw	a5,60(sp)
   13144:	03112c23          	sw	a7,56(sp)
   13148:	4e1010ef          	jal	ra,14e28 <__sprint_r>
   1314c:	f4051ce3          	bne	a0,zero,130a4 <_vfprintf_r+0x13d8>
   13150:	0bc12603          	lw	a2,188(sp)
   13154:	04012303          	lw	t1,64(sp)
   13158:	03c12783          	lw	a5,60(sp)
   1315c:	03812883          	lw	a7,56(sp)
   13160:	00098b13          	addi	s6,s3,0
   13164:	e1dfe06f          	jal	zero,11f80 <_vfprintf_r+0x2b4>
   13168:	01000c93          	addi	s9,zero,16
   1316c:	0b812783          	lw	a5,184(sp)
   13170:	000b3837          	lui	a6,0xb3
   13174:	015cc463          	blt	s9,s5,1317c <_vfprintf_r+0x14b0>
   13178:	7940106f          	jal	zero,1490c <_vfprintf_r+0x2c40>
   1317c:	00412483          	lw	s1,4(sp)
   13180:	00700d93          	addi	s11,zero,7
   13184:	65080b93          	addi	s7,a6,1616 # b3650 <blanks.1>
   13188:	00c0006f          	jal	zero,13194 <_vfprintf_r+0x14c8>
   1318c:	ff0a8a93          	addi	s5,s5,-16
   13190:	055cd663          	bge	s9,s5,131dc <_vfprintf_r+0x1510>
   13194:	01060613          	addi	a2,a2,16
   13198:	00178793          	addi	a5,a5,1
   1319c:	017b2023          	sw	s7,0(s6)
   131a0:	019b2223          	sw	s9,4(s6)
   131a4:	0ac12e23          	sw	a2,188(sp)
   131a8:	0af12c23          	sw	a5,184(sp)
   131ac:	008b0b13          	addi	s6,s6,8
   131b0:	fcfddee3          	bge	s11,a5,1318c <_vfprintf_r+0x14c0>
   131b4:	0b410613          	addi	a2,sp,180
   131b8:	00048593          	addi	a1,s1,0
   131bc:	00090513          	addi	a0,s2,0
   131c0:	469010ef          	jal	ra,14e28 <__sprint_r>
   131c4:	140514e3          	bne	a0,zero,13b0c <_vfprintf_r+0x1e40>
   131c8:	ff0a8a93          	addi	s5,s5,-16
   131cc:	0bc12603          	lw	a2,188(sp)
   131d0:	0b812783          	lw	a5,184(sp)
   131d4:	00098b13          	addi	s6,s3,0
   131d8:	fb5ccee3          	blt	s9,s5,13194 <_vfprintf_r+0x14c8>
   131dc:	000b8813          	addi	a6,s7,0
   131e0:	01560633          	add	a2,a2,s5
   131e4:	00178793          	addi	a5,a5,1
   131e8:	0ac12e23          	sw	a2,188(sp)
   131ec:	0af12c23          	sw	a5,184(sp)
   131f0:	010b2023          	sw	a6,0(s6)
   131f4:	015b2223          	sw	s5,4(s6)
   131f8:	00700713          	addi	a4,zero,7
   131fc:	00f74463          	blt	a4,a5,13204 <_vfprintf_r+0x1538>
   13200:	dddfe06f          	jal	zero,11fdc <_vfprintf_r+0x310>
   13204:	00412583          	lw	a1,4(sp)
   13208:	0b410613          	addi	a2,sp,180
   1320c:	00090513          	addi	a0,s2,0
   13210:	419010ef          	jal	ra,14e28 <__sprint_r>
   13214:	e80518e3          	bne	a0,zero,130a4 <_vfprintf_r+0x13d8>
   13218:	0bc12603          	lw	a2,188(sp)
   1321c:	dc1fe06f          	jal	zero,11fdc <_vfprintf_r+0x310>
   13220:	18010793          	addi	a5,sp,384
   13224:	01d61593          	slli	a1,a2,0x1d
   13228:	00777693          	andi	a3,a4,7
   1322c:	00375713          	srli	a4,a4,0x3
   13230:	00078513          	addi	a0,a5,0
   13234:	00e58733          	add	a4,a1,a4
   13238:	03068693          	addi	a3,a3,48
   1323c:	00365613          	srli	a2,a2,0x3
   13240:	00c765b3          	or	a1,a4,a2
   13244:	fed78fa3          	sb	a3,-1(a5)
   13248:	fff78793          	addi	a5,a5,-1
   1324c:	fc059ce3          	bne	a1,zero,13224 <_vfprintf_r+0x1558>
   13250:	fd068693          	addi	a3,a3,-48
   13254:	00068663          	beq	a3,zero,13260 <_vfprintf_r+0x1594>
   13258:	001bf713          	andi	a4,s7,1
   1325c:	36071a63          	bne	a4,zero,135d0 <_vfprintf_r+0x1904>
   13260:	18010713          	addi	a4,sp,384
   13264:	40f70cb3          	sub	s9,a4,a5
   13268:	000a8c13          	addi	s8,s5,0
   1326c:	359ac663          	blt	s5,s9,135b8 <_vfprintf_r+0x18ec>
   13270:	00012823          	sw	zero,16(sp)
   13274:	02012023          	sw	zero,32(sp)
   13278:	00012e23          	sw	zero,28(sp)
   1327c:	00000313          	addi	t1,zero,0
   13280:	c7dfe06f          	jal	zero,11efc <_vfprintf_r+0x230>
   13284:	09812503          	lw	a0,152(sp)
   13288:	78a05663          	bge	zero,a0,13a14 <_vfprintf_r+0x1d48>
   1328c:	01812703          	lw	a4,24(sp)
   13290:	00030a93          	addi	s5,t1,0
   13294:	48674863          	blt	a4,t1,13724 <_vfprintf_r+0x1a58>
   13298:	03505663          	bge	zero,s5,132c4 <_vfprintf_r+0x15f8>
   1329c:	0b812703          	lw	a4,184(sp)
   132a0:	01560633          	add	a2,a2,s5
   132a4:	00fb2023          	sw	a5,0(s6)
   132a8:	00170713          	addi	a4,a4,1
   132ac:	015b2223          	sw	s5,4(s6)
   132b0:	0ac12e23          	sw	a2,188(sp)
   132b4:	0ae12c23          	sw	a4,184(sp)
   132b8:	00700593          	addi	a1,zero,7
   132bc:	008b0b13          	addi	s6,s6,8
   132c0:	54e5c4e3          	blt	a1,a4,14008 <_vfprintf_r+0x233c>
   132c4:	fffac713          	xori	a4,s5,-1
   132c8:	41f75713          	srai	a4,a4,0x1f
   132cc:	00eafab3          	and	s5,s5,a4
   132d0:	41530ab3          	sub	s5,t1,s5
   132d4:	55504263          	blt	zero,s5,13818 <_vfprintf_r+0x1b4c>
   132d8:	400bf713          	andi	a4,s7,1024
   132dc:	00678db3          	add	s11,a5,t1
   132e0:	2c0712e3          	bne	a4,zero,13da4 <_vfprintf_r+0x20d8>
   132e4:	09812a83          	lw	s5,152(sp)
   132e8:	01812703          	lw	a4,24(sp)
   132ec:	00eac663          	blt	s5,a4,132f8 <_vfprintf_r+0x162c>
   132f0:	001bf713          	andi	a4,s7,1
   132f4:	5a070ae3          	beq	a4,zero,140a8 <_vfprintf_r+0x23dc>
   132f8:	02412683          	lw	a3,36(sp)
   132fc:	0b812703          	lw	a4,184(sp)
   13300:	00700593          	addi	a1,zero,7
   13304:	00d60633          	add	a2,a2,a3
   13308:	02812683          	lw	a3,40(sp)
   1330c:	00170713          	addi	a4,a4,1
   13310:	0ac12e23          	sw	a2,188(sp)
   13314:	00db2023          	sw	a3,0(s6)
   13318:	02412683          	lw	a3,36(sp)
   1331c:	0ae12c23          	sw	a4,184(sp)
   13320:	008b0b13          	addi	s6,s6,8
   13324:	fedb2e23          	sw	a3,-4(s6)
   13328:	00e5d463          	bge	a1,a4,13330 <_vfprintf_r+0x1664>
   1332c:	4b80106f          	jal	zero,147e4 <_vfprintf_r+0x2b18>
   13330:	01812703          	lw	a4,24(sp)
   13334:	00e787b3          	add	a5,a5,a4
   13338:	41b78cb3          	sub	s9,a5,s11
   1333c:	41570ab3          	sub	s5,a4,s5
   13340:	019ad463          	bge	s5,s9,13348 <_vfprintf_r+0x167c>
   13344:	000a8c93          	addi	s9,s5,0
   13348:	03905863          	bge	zero,s9,13378 <_vfprintf_r+0x16ac>
   1334c:	0b812703          	lw	a4,184(sp)
   13350:	01960633          	add	a2,a2,s9
   13354:	01bb2023          	sw	s11,0(s6)
   13358:	00170713          	addi	a4,a4,1
   1335c:	019b2223          	sw	s9,4(s6)
   13360:	0ac12e23          	sw	a2,188(sp)
   13364:	0ae12c23          	sw	a4,184(sp)
   13368:	00700793          	addi	a5,zero,7
   1336c:	008b0b13          	addi	s6,s6,8
   13370:	00e7d463          	bge	a5,a4,13378 <_vfprintf_r+0x16ac>
   13374:	4ec0106f          	jal	zero,14860 <_vfprintf_r+0x2b94>
   13378:	fffcc713          	xori	a4,s9,-1
   1337c:	41f75713          	srai	a4,a4,0x1f
   13380:	00ecf7b3          	and	a5,s9,a4
   13384:	40fa8ab3          	sub	s5,s5,a5
   13388:	01504463          	blt	zero,s5,13390 <_vfprintf_r+0x16c4>
   1338c:	c39fe06f          	jal	zero,11fc4 <_vfprintf_r+0x2f8>
   13390:	000b3837          	lui	a6,0xb3
   13394:	01000c93          	addi	s9,zero,16
   13398:	0b812783          	lw	a5,184(sp)
   1339c:	00700d93          	addi	s11,zero,7
   133a0:	64080493          	addi	s1,a6,1600 # b3640 <zeroes.0>
   133a4:	515ccc63          	blt	s9,s5,138bc <_vfprintf_r+0x1bf0>
   133a8:	64080813          	addi	a6,a6,1600
   133ac:	7a40006f          	jal	zero,13b50 <_vfprintf_r+0x1e84>
   133b0:	00200d93          	addi	s11,zero,2
   133b4:	01000e93          	addi	t4,zero,16
   133b8:	00080613          	addi	a2,a6,0
   133bc:	00050593          	addi	a1,a0,0
   133c0:	000b3837          	lui	a6,0xb3
   133c4:	00eec463          	blt	t4,a4,133cc <_vfprintf_r+0x1700>
   133c8:	44c0106f          	jal	zero,14814 <_vfprintf_r+0x2b48>
   133cc:	02f12e23          	sw	a5,60(sp)
   133d0:	00700393          	addi	t2,zero,7
   133d4:	000b0793          	addi	a5,s6,0
   133d8:	00070493          	addi	s1,a4,0
   133dc:	000a8b13          	addi	s6,s5,0
   133e0:	03112c23          	sw	a7,56(sp)
   133e4:	04612023          	sw	t1,64(sp)
   133e8:	65080a93          	addi	s5,a6,1616 # b3650 <blanks.1>
   133ec:	00c0006f          	jal	zero,133f8 <_vfprintf_r+0x172c>
   133f0:	ff048493          	addi	s1,s1,-16
   133f4:	049eda63          	bge	t4,s1,13448 <_vfprintf_r+0x177c>
   133f8:	01060613          	addi	a2,a2,16
   133fc:	00158593          	addi	a1,a1,1
   13400:	0157a023          	sw	s5,0(a5)
   13404:	01d7a223          	sw	t4,4(a5)
   13408:	0ac12e23          	sw	a2,188(sp)
   1340c:	0ab12c23          	sw	a1,184(sp)
   13410:	00878793          	addi	a5,a5,8
   13414:	fcb3dee3          	bge	t2,a1,133f0 <_vfprintf_r+0x1724>
   13418:	00412583          	lw	a1,4(sp)
   1341c:	0b410613          	addi	a2,sp,180
   13420:	00090513          	addi	a0,s2,0
   13424:	205010ef          	jal	ra,14e28 <__sprint_r>
   13428:	c6051ee3          	bne	a0,zero,130a4 <_vfprintf_r+0x13d8>
   1342c:	01000e93          	addi	t4,zero,16
   13430:	ff048493          	addi	s1,s1,-16
   13434:	0bc12603          	lw	a2,188(sp)
   13438:	0b812583          	lw	a1,184(sp)
   1343c:	00098793          	addi	a5,s3,0
   13440:	00700393          	addi	t2,zero,7
   13444:	fa9ecae3          	blt	t4,s1,133f8 <_vfprintf_r+0x172c>
   13448:	000a8813          	addi	a6,s5,0
   1344c:	03812883          	lw	a7,56(sp)
   13450:	000b0a93          	addi	s5,s6,0
   13454:	04012303          	lw	t1,64(sp)
   13458:	00078b13          	addi	s6,a5,0
   1345c:	03c12783          	lw	a5,60(sp)
   13460:	00048713          	addi	a4,s1,0
   13464:	00c70633          	add	a2,a4,a2
   13468:	00158593          	addi	a1,a1,1
   1346c:	00eb2223          	sw	a4,4(s6)
   13470:	0ac12e23          	sw	a2,188(sp)
   13474:	0ab12c23          	sw	a1,184(sp)
   13478:	010b2023          	sw	a6,0(s6)
   1347c:	00700713          	addi	a4,zero,7
   13480:	54b74463          	blt	a4,a1,139c8 <_vfprintf_r+0x1cfc>
   13484:	09314703          	lbu	a4,147(sp)
   13488:	008b0b13          	addi	s6,s6,8
   1348c:	12071063          	bne	a4,zero,135ac <_vfprintf_r+0x18e0>
   13490:	000d9463          	bne	s11,zero,13498 <_vfprintf_r+0x17cc>
   13494:	af9fe06f          	jal	zero,11f8c <_vfprintf_r+0x2c0>
   13498:	00000d93          	addi	s11,zero,0
   1349c:	ab5fe06f          	jal	zero,11f50 <_vfprintf_r+0x284>
   134a0:	0b812503          	lw	a0,184(sp)
   134a4:	f11ff06f          	jal	zero,133b4 <_vfprintf_r+0x16e8>
   134a8:	00000c93          	addi	s9,zero,0
   134ac:	00000a93          	addi	s5,zero,0
   134b0:	02012023          	sw	zero,32(sp)
   134b4:	00012e23          	sw	zero,28(sp)
   134b8:	00000313          	addi	t1,zero,0
   134bc:	00012823          	sw	zero,16(sp)
   134c0:	18010793          	addi	a5,sp,384
   134c4:	a39fe06f          	jal	zero,11efc <_vfprintf_r+0x230>
   134c8:	00ebf5b3          	and	a1,s7,a4
   134cc:	86059863          	bne	a1,zero,1253c <_vfprintf_r+0x870>
   134d0:	00fb2023          	sw	a5,0(s6)
   134d4:	00eb2223          	sw	a4,4(s6)
   134d8:	0ac12e23          	sw	a2,188(sp)
   134dc:	0b512c23          	sw	s5,184(sp)
   134e0:	00700793          	addi	a5,zero,7
   134e4:	9357d663          	bge	a5,s5,12610 <_vfprintf_r+0x944>
   134e8:	00412583          	lw	a1,4(sp)
   134ec:	0b410613          	addi	a2,sp,180
   134f0:	00090513          	addi	a0,s2,0
   134f4:	135010ef          	jal	ra,14e28 <__sprint_r>
   134f8:	ba0516e3          	bne	a0,zero,130a4 <_vfprintf_r+0x13d8>
   134fc:	0bc12603          	lw	a2,188(sp)
   13500:	0b812a83          	lw	s5,184(sp)
   13504:	00098d93          	addi	s11,s3,0
   13508:	908ff06f          	jal	zero,12610 <_vfprintf_r+0x944>
   1350c:	01812703          	lw	a4,24(sp)
   13510:	00100793          	addi	a5,zero,1
   13514:	8ee7de63          	bge	a5,a4,12610 <_vfprintf_r+0x944>
   13518:	01100793          	addi	a5,zero,17
   1351c:	000b3837          	lui	a6,0xb3
   13520:	00e7c463          	blt	a5,a4,13528 <_vfprintf_r+0x185c>
   13524:	7800106f          	jal	zero,14ca4 <_vfprintf_r+0x2fd8>
   13528:	01000c93          	addi	s9,zero,16
   1352c:	00700793          	addi	a5,zero,7
   13530:	64080493          	addi	s1,a6,1600 # b3640 <zeroes.0>
   13534:	00c0006f          	jal	zero,13540 <_vfprintf_r+0x1874>
   13538:	ff0b0b13          	addi	s6,s6,-16
   1353c:	716cd863          	bge	s9,s6,13c4c <_vfprintf_r+0x1f80>
   13540:	01060613          	addi	a2,a2,16
   13544:	001a8a93          	addi	s5,s5,1
   13548:	009da023          	sw	s1,0(s11)
   1354c:	019da223          	sw	s9,4(s11)
   13550:	0ac12e23          	sw	a2,188(sp)
   13554:	0b512c23          	sw	s5,184(sp)
   13558:	008d8d93          	addi	s11,s11,8
   1355c:	fd57dee3          	bge	a5,s5,13538 <_vfprintf_r+0x186c>
   13560:	00412583          	lw	a1,4(sp)
   13564:	0b410613          	addi	a2,sp,180
   13568:	00090513          	addi	a0,s2,0
   1356c:	0bd010ef          	jal	ra,14e28 <__sprint_r>
   13570:	b2051ae3          	bne	a0,zero,130a4 <_vfprintf_r+0x13d8>
   13574:	0bc12603          	lw	a2,188(sp)
   13578:	0b812a83          	lw	s5,184(sp)
   1357c:	00098d93          	addi	s11,s3,0
   13580:	00700793          	addi	a5,zero,7
   13584:	fb5ff06f          	jal	zero,13538 <_vfprintf_r+0x186c>
   13588:	001bf793          	andi	a5,s7,1
   1358c:	00079463          	bne	a5,zero,13594 <_vfprintf_r+0x18c8>
   13590:	a35fe06f          	jal	zero,11fc4 <_vfprintf_r+0x2f8>
   13594:	b18ff06f          	jal	zero,128ac <_vfprintf_r+0xbe0>
   13598:	00c12783          	lw	a5,12(sp)
   1359c:	000d4883          	lbu	a7,0(s10)
   135a0:	00478793          	addi	a5,a5,4
   135a4:	00f12623          	sw	a5,12(sp)
   135a8:	8c5fe06f          	jal	zero,11e6c <_vfprintf_r+0x1a0>
   135ac:	000d8713          	addi	a4,s11,0
   135b0:	00000d93          	addi	s11,zero,0
   135b4:	969fe06f          	jal	zero,11f1c <_vfprintf_r+0x250>
   135b8:	000c8c13          	addi	s8,s9,0
   135bc:	00012823          	sw	zero,16(sp)
   135c0:	02012023          	sw	zero,32(sp)
   135c4:	00012e23          	sw	zero,28(sp)
   135c8:	00000313          	addi	t1,zero,0
   135cc:	931fe06f          	jal	zero,11efc <_vfprintf_r+0x230>
   135d0:	ffe50513          	addi	a0,a0,-2
   135d4:	03000713          	addi	a4,zero,48
   135d8:	18010693          	addi	a3,sp,384
   135dc:	40a68cb3          	sub	s9,a3,a0
   135e0:	fee78fa3          	sb	a4,-1(a5)
   135e4:	000a8c13          	addi	s8,s5,0
   135e8:	019ad463          	bge	s5,s9,135f0 <_vfprintf_r+0x1924>
   135ec:	000c8c13          	addi	s8,s9,0
   135f0:	00050793          	addi	a5,a0,0
   135f4:	00012823          	sw	zero,16(sp)
   135f8:	02012023          	sw	zero,32(sp)
   135fc:	00012e23          	sw	zero,28(sp)
   13600:	00000313          	addi	t1,zero,0
   13604:	8f9fe06f          	jal	zero,11efc <_vfprintf_r+0x230>
   13608:	00c12783          	lw	a5,12(sp)
   1360c:	00478793          	addi	a5,a5,4
   13610:	00c12703          	lw	a4,12(sp)
   13614:	00000613          	addi	a2,zero,0
   13618:	00f12623          	sw	a5,12(sp)
   1361c:	00072703          	lw	a4,0(a4)
   13620:	de4ff06f          	jal	zero,12c04 <_vfprintf_r+0xf38>
   13624:	00c12783          	lw	a5,12(sp)
   13628:	00812683          	lw	a3,8(sp)
   1362c:	00812603          	lw	a2,8(sp)
   13630:	0007a783          	lw	a5,0(a5)
   13634:	41f6d693          	srai	a3,a3,0x1f
   13638:	00e12623          	sw	a4,12(sp)
   1363c:	00c7a023          	sw	a2,0(a5)
   13640:	00d7a223          	sw	a3,4(a5)
   13644:	f94fe06f          	jal	zero,11dd8 <_vfprintf_r+0x10c>
   13648:	00c12783          	lw	a5,12(sp)
   1364c:	00478793          	addi	a5,a5,4
   13650:	00c12703          	lw	a4,12(sp)
   13654:	000e0b93          	addi	s7,t3,0
   13658:	00f12623          	sw	a5,12(sp)
   1365c:	00072c03          	lw	s8,0(a4)
   13660:	41fc5e93          	srai	t4,s8,0x1f
   13664:	000e8713          	addi	a4,t4,0
   13668:	b34ff06f          	jal	zero,1299c <_vfprintf_r+0xcd0>
   1366c:	00c12783          	lw	a5,12(sp)
   13670:	00c12703          	lw	a4,12(sp)
   13674:	0007a783          	lw	a5,0(a5)
   13678:	00470713          	addi	a4,a4,4
   1367c:	00e12623          	sw	a4,12(sp)
   13680:	0007a603          	lw	a2,0(a5)
   13684:	0047a683          	lw	a3,4(a5)
   13688:	0087a703          	lw	a4,8(a5)
   1368c:	00c7a783          	lw	a5,12(a5)
   13690:	a61fe06f          	jal	zero,120f0 <_vfprintf_r+0x424>
   13694:	000b8693          	addi	a3,s7,0
   13698:	d50ff06f          	jal	zero,12be8 <_vfprintf_r+0xf1c>
   1369c:	09314e83          	lbu	t4,147(sp)
   136a0:	00100c13          	addi	s8,zero,1
   136a4:	00000313          	addi	t1,zero,0
   136a8:	00100c93          	addi	s9,zero,1
   136ac:	17f10793          	addi	a5,sp,383
   136b0:	c0cff06f          	jal	zero,12abc <_vfprintf_r+0xdf0>
   136b4:	000e0b93          	addi	s7,t3,0
   136b8:	bd8ff06f          	jal	zero,12a90 <_vfprintf_r+0xdc4>
   136bc:	000215b7          	lui	a1,0x21
   136c0:	002beb93          	ori	s7,s7,2
   136c4:	00f12623          	sw	a5,12(sp)
   136c8:	be058593          	addi	a1,a1,-1056 # 20be0 <__clzsi2+0xa4>
   136cc:	00200313          	addi	t1,zero,2
   136d0:	00000e93          	addi	t4,zero,0
   136d4:	07800893          	addi	a7,zero,120
   136d8:	18010793          	addi	a5,sp,384
   136dc:	00f77693          	andi	a3,a4,15
   136e0:	00d586b3          	add	a3,a1,a3
   136e4:	0006c683          	lbu	a3,0(a3)
   136e8:	00475713          	srli	a4,a4,0x4
   136ec:	fff78793          	addi	a5,a5,-1
   136f0:	00d78023          	sb	a3,0(a5)
   136f4:	01c61693          	slli	a3,a2,0x1c
   136f8:	00e68733          	add	a4,a3,a4
   136fc:	00465613          	srli	a2,a2,0x4
   13700:	00c766b3          	or	a3,a4,a2
   13704:	fc069ce3          	bne	a3,zero,136dc <_vfprintf_r+0x1a10>
   13708:	18010713          	addi	a4,sp,384
   1370c:	40f70cb3          	sub	s9,a4,a5
   13710:	000a8c13          	addi	s8,s5,0
   13714:	bb9ad463          	bge	s5,s9,12abc <_vfprintf_r+0xdf0>
   13718:	000c8c13          	addi	s8,s9,0
   1371c:	00012823          	sw	zero,16(sp)
   13720:	ba0ff06f          	jal	zero,12ac0 <_vfprintf_r+0xdf4>
   13724:	00070a93          	addi	s5,a4,0
   13728:	b7504ae3          	blt	zero,s5,1329c <_vfprintf_r+0x15d0>
   1372c:	b99ff06f          	jal	zero,132c4 <_vfprintf_r+0x15f8>
   13730:	fff00a93          	addi	s5,zero,-1
   13734:	00068d13          	addi	s10,a3,0
   13738:	f38fe06f          	jal	zero,11e70 <_vfprintf_r+0x1a4>
   1373c:	001d4883          	lbu	a7,1(s10)
   13740:	020beb93          	ori	s7,s7,32
   13744:	001d0d13          	addi	s10,s10,1
   13748:	f24fe06f          	jal	zero,11e6c <_vfprintf_r+0x1a0>
   1374c:	001d4883          	lbu	a7,1(s10)
   13750:	200beb93          	ori	s7,s7,512
   13754:	001d0d13          	addi	s10,s10,1
   13758:	f14fe06f          	jal	zero,11e6c <_vfprintf_r+0x1a0>
   1375c:	00412583          	lw	a1,4(sp)
   13760:	0b410613          	addi	a2,sp,180
   13764:	00090513          	addi	a0,s2,0
   13768:	6c0010ef          	jal	ra,14e28 <__sprint_r>
   1376c:	92051ce3          	bne	a0,zero,130a4 <_vfprintf_r+0x13d8>
   13770:	0bc12603          	lw	a2,188(sp)
   13774:	00098b13          	addi	s6,s3,0
   13778:	968ff06f          	jal	zero,128e0 <_vfprintf_r+0xc14>
   1377c:	000215b7          	lui	a1,0x21
   13780:	bf458593          	addi	a1,a1,-1036 # 20bf4 <__clzsi2+0xb8>
   13784:	020bf793          	andi	a5,s7,32
   13788:	18078a63          	beq	a5,zero,1391c <_vfprintf_r+0x1c50>
   1378c:	00c12783          	lw	a5,12(sp)
   13790:	00778793          	addi	a5,a5,7
   13794:	ff87f793          	andi	a5,a5,-8
   13798:	00878713          	addi	a4,a5,8
   1379c:	00e12623          	sw	a4,12(sp)
   137a0:	0047a603          	lw	a2,4(a5)
   137a4:	0007a703          	lw	a4,0(a5)
   137a8:	001bf793          	andi	a5,s7,1
   137ac:	00c766b3          	or	a3,a4,a2
   137b0:	00078463          	beq	a5,zero,137b8 <_vfprintf_r+0x1aec>
   137b4:	30069263          	bne	a3,zero,13ab8 <_vfprintf_r+0x1dec>
   137b8:	080109a3          	sb	zero,147(sp)
   137bc:	1e0ace63          	blt	s5,zero,139b8 <_vfprintf_r+0x1cec>
   137c0:	b7fbfb93          	andi	s7,s7,-1153
   137c4:	00000313          	addi	t1,zero,0
   137c8:	000a9463          	bne	s5,zero,137d0 <_vfprintf_r+0x1b04>
   137cc:	ea068063          	beq	a3,zero,12e6c <_vfprintf_r+0x11a0>
   137d0:	09314e83          	lbu	t4,147(sp)
   137d4:	f05ff06f          	jal	zero,136d8 <_vfprintf_r+0x1a0c>
   137d8:	000215b7          	lui	a1,0x21
   137dc:	be058593          	addi	a1,a1,-1056 # 20be0 <__clzsi2+0xa4>
   137e0:	fa5ff06f          	jal	zero,13784 <_vfprintf_r+0x1ab8>
   137e4:	00600793          	addi	a5,zero,6
   137e8:	000a8c13          	addi	s8,s5,0
   137ec:	0157eae3          	bltu	a5,s5,14000 <_vfprintf_r+0x2334>
   137f0:	000217b7          	lui	a5,0x21
   137f4:	00912623          	sw	s1,12(sp)
   137f8:	c0878793          	addi	a5,a5,-1016 # 20c08 <__clzsi2+0xcc>
   137fc:	00012823          	sw	zero,16(sp)
   13800:	000c0c93          	addi	s9,s8,0
   13804:	00000a93          	addi	s5,zero,0
   13808:	02012023          	sw	zero,32(sp)
   1380c:	00012e23          	sw	zero,28(sp)
   13810:	00000313          	addi	t1,zero,0
   13814:	ee8fe06f          	jal	zero,11efc <_vfprintf_r+0x230>
   13818:	01000893          	addi	a7,zero,16
   1381c:	0b812703          	lw	a4,184(sp)
   13820:	000b3837          	lui	a6,0xb3
   13824:	0158c463          	blt	a7,s5,1382c <_vfprintf_r+0x1b60>
   13828:	4a80106f          	jal	zero,14cd0 <_vfprintf_r+0x3004>
   1382c:	000a8493          	addi	s1,s5,0
   13830:	00700c93          	addi	s9,zero,7
   13834:	00078d93          	addi	s11,a5,0
   13838:	02612c23          	sw	t1,56(sp)
   1383c:	64080a93          	addi	s5,a6,1600 # b3640 <zeroes.0>
   13840:	00c0006f          	jal	zero,1384c <_vfprintf_r+0x1b80>
   13844:	ff048493          	addi	s1,s1,-16
   13848:	7498da63          	bge	a7,s1,13f9c <_vfprintf_r+0x22d0>
   1384c:	01060613          	addi	a2,a2,16
   13850:	00170713          	addi	a4,a4,1
   13854:	015b2023          	sw	s5,0(s6)
   13858:	011b2223          	sw	a7,4(s6)
   1385c:	0ac12e23          	sw	a2,188(sp)
   13860:	0ae12c23          	sw	a4,184(sp)
   13864:	008b0b13          	addi	s6,s6,8
   13868:	fcecdee3          	bge	s9,a4,13844 <_vfprintf_r+0x1b78>
   1386c:	00412583          	lw	a1,4(sp)
   13870:	0b410613          	addi	a2,sp,180
   13874:	00090513          	addi	a0,s2,0
   13878:	5b0010ef          	jal	ra,14e28 <__sprint_r>
   1387c:	820514e3          	bne	a0,zero,130a4 <_vfprintf_r+0x13d8>
   13880:	0bc12603          	lw	a2,188(sp)
   13884:	0b812703          	lw	a4,184(sp)
   13888:	00098b13          	addi	s6,s3,0
   1388c:	01000893          	addi	a7,zero,16
   13890:	fb5ff06f          	jal	zero,13844 <_vfprintf_r+0x1b78>
   13894:	00412583          	lw	a1,4(sp)
   13898:	0b410613          	addi	a2,sp,180
   1389c:	00090513          	addi	a0,s2,0
   138a0:	588010ef          	jal	ra,14e28 <__sprint_r>
   138a4:	800510e3          	bne	a0,zero,130a4 <_vfprintf_r+0x13d8>
   138a8:	0bc12603          	lw	a2,188(sp)
   138ac:	0b812783          	lw	a5,184(sp)
   138b0:	00098b13          	addi	s6,s3,0
   138b4:	ff0a8a93          	addi	s5,s5,-16
   138b8:	295cda63          	bge	s9,s5,13b4c <_vfprintf_r+0x1e80>
   138bc:	01060613          	addi	a2,a2,16
   138c0:	00178793          	addi	a5,a5,1
   138c4:	009b2023          	sw	s1,0(s6)
   138c8:	019b2223          	sw	s9,4(s6)
   138cc:	0ac12e23          	sw	a2,188(sp)
   138d0:	0af12c23          	sw	a5,184(sp)
   138d4:	008b0b13          	addi	s6,s6,8
   138d8:	fcfddee3          	bge	s11,a5,138b4 <_vfprintf_r+0x1be8>
   138dc:	fb9ff06f          	jal	zero,13894 <_vfprintf_r+0x1bc8>
   138e0:	00078513          	addi	a0,a5,0
   138e4:	01112823          	sw	a7,16(sp)
   138e8:	00f12623          	sw	a5,12(sp)
   138ec:	46c020ef          	jal	ra,15d58 <strlen>
   138f0:	09314703          	lbu	a4,147(sp)
   138f4:	fff54693          	xori	a3,a0,-1
   138f8:	41f6d693          	srai	a3,a3,0x1f
   138fc:	00c12783          	lw	a5,12(sp)
   13900:	01012883          	lw	a7,16(sp)
   13904:	00050c93          	addi	s9,a0,0
   13908:	00d57c33          	and	s8,a0,a3
   1390c:	00071463          	bne	a4,zero,13914 <_vfprintf_r+0x1c48>
   13910:	dbdfe06f          	jal	zero,126cc <_vfprintf_r+0xa00>
   13914:	001c0c13          	addi	s8,s8,1
   13918:	db5fe06f          	jal	zero,126cc <_vfprintf_r+0xa00>
   1391c:	00c12683          	lw	a3,12(sp)
   13920:	00c12703          	lw	a4,12(sp)
   13924:	010bf793          	andi	a5,s7,16
   13928:	00468693          	addi	a3,a3,4
   1392c:	00d12623          	sw	a3,12(sp)
   13930:	00072703          	lw	a4,0(a4)
   13934:	06079e63          	bne	a5,zero,139b0 <_vfprintf_r+0x1ce4>
   13938:	040bf793          	andi	a5,s7,64
   1393c:	06078663          	beq	a5,zero,139a8 <_vfprintf_r+0x1cdc>
   13940:	01071713          	slli	a4,a4,0x10
   13944:	01075713          	srli	a4,a4,0x10
   13948:	00000613          	addi	a2,zero,0
   1394c:	e5dff06f          	jal	zero,137a8 <_vfprintf_r+0x1adc>
   13950:	00412583          	lw	a1,4(sp)
   13954:	0b410613          	addi	a2,sp,180
   13958:	00090513          	addi	a0,s2,0
   1395c:	00f12e23          	sw	a5,28(sp)
   13960:	4c8010ef          	jal	ra,14e28 <__sprint_r>
   13964:	f4051063          	bne	a0,zero,130a4 <_vfprintf_r+0x13d8>
   13968:	0bc12603          	lw	a2,188(sp)
   1396c:	0b812a83          	lw	s5,184(sp)
   13970:	01c12783          	lw	a5,28(sp)
   13974:	00098d93          	addi	s11,s3,0
   13978:	be5fe06f          	jal	zero,1255c <_vfprintf_r+0x890>
   1397c:	00412583          	lw	a1,4(sp)
   13980:	0b410613          	addi	a2,sp,180
   13984:	00090513          	addi	a0,s2,0
   13988:	00f12e23          	sw	a5,28(sp)
   1398c:	49c010ef          	jal	ra,14e28 <__sprint_r>
   13990:	f0051a63          	bne	a0,zero,130a4 <_vfprintf_r+0x13d8>
   13994:	0bc12603          	lw	a2,188(sp)
   13998:	0b812a83          	lw	s5,184(sp)
   1399c:	01c12783          	lw	a5,28(sp)
   139a0:	00098d93          	addi	s11,s3,0
   139a4:	bedfe06f          	jal	zero,12590 <_vfprintf_r+0x8c4>
   139a8:	200bf793          	andi	a5,s7,512
   139ac:	74079e63          	bne	a5,zero,14108 <_vfprintf_r+0x243c>
   139b0:	00000613          	addi	a2,zero,0
   139b4:	df5ff06f          	jal	zero,137a8 <_vfprintf_r+0x1adc>
   139b8:	bffbfb93          	andi	s7,s7,-1025
   139bc:	00000313          	addi	t1,zero,0
   139c0:	00000e93          	addi	t4,zero,0
   139c4:	d15ff06f          	jal	zero,136d8 <_vfprintf_r+0x1a0c>
   139c8:	00412583          	lw	a1,4(sp)
   139cc:	0b410613          	addi	a2,sp,180
   139d0:	00090513          	addi	a0,s2,0
   139d4:	04612023          	sw	t1,64(sp)
   139d8:	02f12e23          	sw	a5,60(sp)
   139dc:	03112c23          	sw	a7,56(sp)
   139e0:	448010ef          	jal	ra,14e28 <__sprint_r>
   139e4:	ec051063          	bne	a0,zero,130a4 <_vfprintf_r+0x13d8>
   139e8:	09314703          	lbu	a4,147(sp)
   139ec:	0bc12603          	lw	a2,188(sp)
   139f0:	03812883          	lw	a7,56(sp)
   139f4:	03c12783          	lw	a5,60(sp)
   139f8:	04012303          	lw	t1,64(sp)
   139fc:	22070e63          	beq	a4,zero,13c38 <_vfprintf_r+0x1f6c>
   13a00:	000d8713          	addi	a4,s11,0
   13a04:	0b812583          	lw	a1,184(sp)
   13a08:	00000d93          	addi	s11,zero,0
   13a0c:	00098b13          	addi	s6,s3,0
   13a10:	d0cfe06f          	jal	zero,11f1c <_vfprintf_r+0x250>
   13a14:	0b812703          	lw	a4,184(sp)
   13a18:	000215b7          	lui	a1,0x21
   13a1c:	c1058593          	addi	a1,a1,-1008 # 20c10 <__clzsi2+0xd4>
   13a20:	00bb2023          	sw	a1,0(s6)
   13a24:	00160613          	addi	a2,a2,1
   13a28:	00100593          	addi	a1,zero,1
   13a2c:	00170713          	addi	a4,a4,1
   13a30:	00bb2223          	sw	a1,4(s6)
   13a34:	0ac12e23          	sw	a2,188(sp)
   13a38:	0ae12c23          	sw	a4,184(sp)
   13a3c:	00700593          	addi	a1,zero,7
   13a40:	008b0b13          	addi	s6,s6,8
   13a44:	44e5c0e3          	blt	a1,a4,14684 <_vfprintf_r+0x29b8>
   13a48:	01812703          	lw	a4,24(sp)
   13a4c:	00a76733          	or	a4,a4,a0
   13a50:	5e070463          	beq	a4,zero,14038 <_vfprintf_r+0x236c>
   13a54:	02412683          	lw	a3,36(sp)
   13a58:	0b812703          	lw	a4,184(sp)
   13a5c:	00700593          	addi	a1,zero,7
   13a60:	00c68633          	add	a2,a3,a2
   13a64:	02812683          	lw	a3,40(sp)
   13a68:	00170713          	addi	a4,a4,1
   13a6c:	0ac12e23          	sw	a2,188(sp)
   13a70:	00db2023          	sw	a3,0(s6)
   13a74:	02412683          	lw	a3,36(sp)
   13a78:	0ae12c23          	sw	a4,184(sp)
   13a7c:	008b0b13          	addi	s6,s6,8
   13a80:	fedb2e23          	sw	a3,-4(s6)
   13a84:	5ee5c863          	blt	a1,a4,14074 <_vfprintf_r+0x23a8>
   13a88:	600544e3          	blt	a0,zero,14890 <_vfprintf_r+0x2bc4>
   13a8c:	01812683          	lw	a3,24(sp)
   13a90:	00170713          	addi	a4,a4,1
   13a94:	00fb2023          	sw	a5,0(s6)
   13a98:	00c68633          	add	a2,a3,a2
   13a9c:	0ac12e23          	sw	a2,188(sp)
   13aa0:	0ae12c23          	sw	a4,184(sp)
   13aa4:	00db2223          	sw	a3,4(s6)
   13aa8:	00700793          	addi	a5,zero,7
   13aac:	00e7c463          	blt	a5,a4,13ab4 <_vfprintf_r+0x1de8>
   13ab0:	d10fe06f          	jal	zero,11fc0 <_vfprintf_r+0x2f4>
   13ab4:	b8dfe06f          	jal	zero,12640 <_vfprintf_r+0x974>
   13ab8:	03000793          	addi	a5,zero,48
   13abc:	09110aa3          	sb	a7,149(sp)
   13ac0:	080109a3          	sb	zero,147(sp)
   13ac4:	08f10a23          	sb	a5,148(sp)
   13ac8:	2c0ac463          	blt	s5,zero,13d90 <_vfprintf_r+0x20c4>
   13acc:	b7fbfe13          	andi	t3,s7,-1153
   13ad0:	09314e83          	lbu	t4,147(sp)
   13ad4:	002e6b93          	ori	s7,t3,2
   13ad8:	00200313          	addi	t1,zero,2
   13adc:	bfdff06f          	jal	zero,136d8 <_vfprintf_r+0x1a0c>
   13ae0:	00090513          	addi	a0,s2,0
   13ae4:	d31fc0ef          	jal	ra,10814 <__sinit>
   13ae8:	a34fe06f          	jal	zero,11d1c <_vfprintf_r+0x50>
   13aec:	00412583          	lw	a1,4(sp)
   13af0:	0b410613          	addi	a2,sp,180
   13af4:	00090513          	addi	a0,s2,0
   13af8:	330010ef          	jal	ra,14e28 <__sprint_r>
   13afc:	da051463          	bne	a0,zero,130a4 <_vfprintf_r+0x13d8>
   13b00:	0bc12603          	lw	a2,188(sp)
   13b04:	00098b13          	addi	s6,s3,0
   13b08:	d99fe06f          	jal	zero,128a0 <_vfprintf_r+0xbd4>
   13b0c:	01012583          	lw	a1,16(sp)
   13b10:	d9cff06f          	jal	zero,130ac <_vfprintf_r+0x13e0>
   13b14:	640e9863          	bne	t4,zero,14164 <_vfprintf_r+0x2498>
   13b18:	00900713          	addi	a4,zero,9
   13b1c:	65876463          	bltu	a4,s8,14164 <_vfprintf_r+0x2498>
   13b20:	18010713          	addi	a4,sp,384
   13b24:	00b12c23          	sw	a1,24(sp)
   13b28:	40f70cb3          	sub	s9,a4,a5
   13b2c:	00048893          	addi	a7,s1,0
   13b30:	000a8c13          	addi	s8,s5,0
   13b34:	019ad463          	bge	s5,s9,13b3c <_vfprintf_r+0x1e70>
   13b38:	000c8c13          	addi	s8,s9,0
   13b3c:	09314e83          	lbu	t4,147(sp)
   13b40:	00000313          	addi	t1,zero,0
   13b44:	00012823          	sw	zero,16(sp)
   13b48:	f79fe06f          	jal	zero,12ac0 <_vfprintf_r+0xdf4>
   13b4c:	00048813          	addi	a6,s1,0
   13b50:	01560633          	add	a2,a2,s5
   13b54:	00178793          	addi	a5,a5,1
   13b58:	0ac12e23          	sw	a2,188(sp)
   13b5c:	0af12c23          	sw	a5,184(sp)
   13b60:	010b2023          	sw	a6,0(s6)
   13b64:	015b2223          	sw	s5,4(s6)
   13b68:	00700713          	addi	a4,zero,7
   13b6c:	00f74463          	blt	a4,a5,13b74 <_vfprintf_r+0x1ea8>
   13b70:	c50fe06f          	jal	zero,11fc0 <_vfprintf_r+0x2f4>
   13b74:	acdfe06f          	jal	zero,12640 <_vfprintf_r+0x974>
   13b78:	0c012703          	lw	a4,192(sp)
   13b7c:	0c412783          	lw	a5,196(sp)
   13b80:	07010593          	addi	a1,sp,112
   13b84:	08e12023          	sw	a4,128(sp)
   13b88:	08f12223          	sw	a5,132(sp)
   13b8c:	0c812703          	lw	a4,200(sp)
   13b90:	0cc12783          	lw	a5,204(sp)
   13b94:	08010513          	addi	a0,sp,128
   13b98:	06012823          	sw	zero,112(sp)
   13b9c:	06012a23          	sw	zero,116(sp)
   13ba0:	06012c23          	sw	zero,120(sp)
   13ba4:	06012e23          	sw	zero,124(sp)
   13ba8:	08e12423          	sw	a4,136(sp)
   13bac:	08f12623          	sw	a5,140(sp)
   13bb0:	73c0a0ef          	jal	ra,1e2ec <__letf2>
   13bb4:	01012883          	lw	a7,16(sp)
   13bb8:	f7fbfb93          	andi	s7,s7,-129
   13bbc:	400546e3          	blt	a0,zero,147c8 <_vfprintf_r+0x2afc>
   13bc0:	04700793          	addi	a5,zero,71
   13bc4:	09314703          	lbu	a4,147(sp)
   13bc8:	5917c863          	blt	a5,a7,14158 <_vfprintf_r+0x248c>
   13bcc:	000217b7          	lui	a5,0x21
   13bd0:	bd078793          	addi	a5,a5,-1072 # 20bd0 <__clzsi2+0x94>
   13bd4:	18071863          	bne	a4,zero,13d64 <_vfprintf_r+0x2098>
   13bd8:	00300c93          	addi	s9,zero,3
   13bdc:	000c8c13          	addi	s8,s9,0
   13be0:	af1fe06f          	jal	zero,126d0 <_vfprintf_r+0xa04>
   13be4:	00c12783          	lw	a5,12(sp)
   13be8:	00812683          	lw	a3,8(sp)
   13bec:	0007a783          	lw	a5,0(a5)
   13bf0:	00d7a023          	sw	a3,0(a5)
   13bf4:	00e12623          	sw	a4,12(sp)
   13bf8:	9e0fe06f          	jal	zero,11dd8 <_vfprintf_r+0x10c>
   13bfc:	000215b7          	lui	a1,0x21
   13c00:	09314e83          	lbu	t4,147(sp)
   13c04:	00f12623          	sw	a5,12(sp)
   13c08:	be058593          	addi	a1,a1,-1056 # 20be0 <__clzsi2+0xa4>
   13c0c:	07800893          	addi	a7,zero,120
   13c10:	00200313          	addi	t1,zero,2
   13c14:	ac5ff06f          	jal	zero,136d8 <_vfprintf_r+0x1a0c>
   13c18:	0bc12783          	lw	a5,188(sp)
   13c1c:	00412483          	lw	s1,4(sp)
   13c20:	c8078c63          	beq	a5,zero,130b8 <_vfprintf_r+0x13ec>
   13c24:	00090513          	addi	a0,s2,0
   13c28:	0b410613          	addi	a2,sp,180
   13c2c:	00048593          	addi	a1,s1,0
   13c30:	1f8010ef          	jal	ra,14e28 <__sprint_r>
   13c34:	c84ff06f          	jal	zero,130b8 <_vfprintf_r+0x13ec>
   13c38:	480d8663          	beq	s11,zero,140c4 <_vfprintf_r+0x23f8>
   13c3c:	0b812583          	lw	a1,184(sp)
   13c40:	00000d93          	addi	s11,zero,0
   13c44:	00098b13          	addi	s6,s3,0
   13c48:	b08fe06f          	jal	zero,11f50 <_vfprintf_r+0x284>
   13c4c:	00048813          	addi	a6,s1,0
   13c50:	01660633          	add	a2,a2,s6
   13c54:	001a8a93          	addi	s5,s5,1
   13c58:	0ac12e23          	sw	a2,188(sp)
   13c5c:	0b512c23          	sw	s5,184(sp)
   13c60:	010da023          	sw	a6,0(s11)
   13c64:	016da223          	sw	s6,4(s11)
   13c68:	00700793          	addi	a5,zero,7
   13c6c:	0157c463          	blt	a5,s5,13c74 <_vfprintf_r+0x1fa8>
   13c70:	99dfe06f          	jal	zero,1260c <_vfprintf_r+0x940>
   13c74:	875ff06f          	jal	zero,134e8 <_vfprintf_r+0x181c>
   13c78:	200bf693          	andi	a3,s7,512
   13c7c:	48068c63          	beq	a3,zero,14114 <_vfprintf_r+0x2448>
   13c80:	0ff77713          	andi	a4,a4,255
   13c84:	00f12623          	sw	a5,12(sp)
   13c88:	000b8693          	addi	a3,s7,0
   13c8c:	00000613          	addi	a2,zero,0
   13c90:	f75fe06f          	jal	zero,12c04 <_vfprintf_r+0xf38>
   13c94:	200bf313          	andi	t1,s7,512
   13c98:	080109a3          	sb	zero,147(sp)
   13c9c:	44031c63          	bne	t1,zero,140f4 <_vfprintf_r+0x2428>
   13ca0:	00000e93          	addi	t4,zero,0
   13ca4:	000ad463          	bge	s5,zero,13cac <_vfprintf_r+0x1fe0>
   13ca8:	dedfe06f          	jal	zero,12a94 <_vfprintf_r+0xdc8>
   13cac:	f7fbfb93          	andi	s7,s7,-129
   13cb0:	000a8463          	beq	s5,zero,13cb8 <_vfprintf_r+0x1fec>
   13cb4:	de1fe06f          	jal	zero,12a94 <_vfprintf_r+0xdc8>
   13cb8:	9a0c0a63          	beq	s8,zero,12e6c <_vfprintf_r+0x11a0>
   13cbc:	dd9fe06f          	jal	zero,12a94 <_vfprintf_r+0xdc8>
   13cc0:	200bf713          	andi	a4,s7,512
   13cc4:	42070063          	beq	a4,zero,140e4 <_vfprintf_r+0x2418>
   13cc8:	018c1c13          	slli	s8,s8,0x18
   13ccc:	418c5c13          	srai	s8,s8,0x18
   13cd0:	41fc5e93          	srai	t4,s8,0x1f
   13cd4:	00f12623          	sw	a5,12(sp)
   13cd8:	000e8713          	addi	a4,t4,0
   13cdc:	cc1fe06f          	jal	zero,1299c <_vfprintf_r+0xcd0>
   13ce0:	00012823          	sw	zero,16(sp)
   13ce4:	00000c93          	addi	s9,zero,0
   13ce8:	02012023          	sw	zero,32(sp)
   13cec:	00012e23          	sw	zero,28(sp)
   13cf0:	00000313          	addi	t1,zero,0
   13cf4:	18010793          	addi	a5,sp,384
   13cf8:	00000c13          	addi	s8,zero,0
   13cfc:	a00fe06f          	jal	zero,11efc <_vfprintf_r+0x230>
   13d00:	100be713          	ori	a4,s7,256
   13d04:	fff00793          	addi	a5,zero,-1
   13d08:	00e12823          	sw	a4,16(sp)
   13d0c:	0c012e83          	lw	t4,192(sp)
   13d10:	0c412f03          	lw	t5,196(sp)
   13d14:	0c812283          	lw	t0,200(sp)
   13d18:	0cc12c83          	lw	s9,204(sp)
   13d1c:	56fa8463          	beq	s5,a5,14284 <_vfprintf_r+0x25b8>
   13d20:	fb9c0793          	addi	a5,s8,-71
   13d24:	00079463          	bne	a5,zero,13d2c <_vfprintf_r+0x2060>
   13d28:	6e0a8263          	beq	s5,zero,1440c <_vfprintf_r+0x2740>
   13d2c:	420ccee3          	blt	s9,zero,14968 <_vfprintf_r+0x2c9c>
   13d30:	02012c23          	sw	zero,56(sp)
   13d34:	55c0006f          	jal	zero,14290 <_vfprintf_r+0x25c4>
   13d38:	0cc12f83          	lw	t6,204(sp)
   13d3c:	800007b7          	lui	a5,0x80000
   13d40:	f7fbfb93          	andi	s7,s7,-129
   13d44:	00fff333          	and	t1,t6,a5
   13d48:	3c030e63          	beq	t1,zero,14124 <_vfprintf_r+0x2458>
   13d4c:	02d00793          	addi	a5,zero,45
   13d50:	08f109a3          	sb	a5,147(sp)
   13d54:	04700793          	addi	a5,zero,71
   13d58:	4f17d6e3          	bge	a5,a7,14a44 <_vfprintf_r+0x2d78>
   13d5c:	000217b7          	lui	a5,0x21
   13d60:	bdc78793          	addi	a5,a5,-1060 # 20bdc <__clzsi2+0xa0>
   13d64:	00012823          	sw	zero,16(sp)
   13d68:	00300c93          	addi	s9,zero,3
   13d6c:	00000a93          	addi	s5,zero,0
   13d70:	02012023          	sw	zero,32(sp)
   13d74:	00012e23          	sw	zero,28(sp)
   13d78:	00000313          	addi	t1,zero,0
   13d7c:	00400c13          	addi	s8,zero,4
   13d80:	97cfe06f          	jal	zero,11efc <_vfprintf_r+0x230>
   13d84:	00f12623          	sw	a5,12(sp)
   13d88:	000e0b93          	addi	s7,t3,0
   13d8c:	d09fe06f          	jal	zero,12a94 <_vfprintf_r+0xdc8>
   13d90:	bffbfe13          	andi	t3,s7,-1025
   13d94:	002e6b93          	ori	s7,t3,2
   13d98:	00200313          	addi	t1,zero,2
   13d9c:	00000e93          	addi	t4,zero,0
   13da0:	939ff06f          	jal	zero,136d8 <_vfprintf_r+0x1a0c>
   13da4:	01c12703          	lw	a4,28(sp)
   13da8:	02012683          	lw	a3,32(sp)
   13dac:	00d76733          	or	a4,a4,a3
   13db0:	72070ee3          	beq	a4,zero,14cec <_vfprintf_r+0x3020>
   13db4:	01812703          	lw	a4,24(sp)
   13db8:	03712e23          	sw	s7,60(sp)
   13dbc:	05812023          	sw	s8,64(sp)
   13dc0:	000d8b93          	addi	s7,s11,0
   13dc4:	05a12423          	sw	s10,72(sp)
   13dc8:	01c12a83          	lw	s5,28(sp)
   13dcc:	02012d83          	lw	s11,32(sp)
   13dd0:	04412c03          	lw	s8,68(sp)
   13dd4:	03012d03          	lw	s10,48(sp)
   13dd8:	000b38b7          	lui	a7,0xb3
   13ddc:	000b0693          	addi	a3,s6,0
   13de0:	64088893          	addi	a7,a7,1600 # b3640 <zeroes.0>
   13de4:	00700813          	addi	a6,zero,7
   13de8:	01000c93          	addi	s9,zero,16
   13dec:	02f12c23          	sw	a5,56(sp)
   13df0:	00e78b33          	add	s6,a5,a4
   13df4:	09b04a63          	blt	zero,s11,13e88 <_vfprintf_r+0x21bc>
   13df8:	fffd0d13          	addi	s10,s10,-1
   13dfc:	fffa8a93          	addi	s5,s5,-1
   13e00:	0b812783          	lw	a5,184(sp)
   13e04:	03412703          	lw	a4,52(sp)
   13e08:	01860633          	add	a2,a2,s8
   13e0c:	00178793          	addi	a5,a5,1
   13e10:	00e6a023          	sw	a4,0(a3)
   13e14:	0186a223          	sw	s8,4(a3)
   13e18:	0ac12e23          	sw	a2,188(sp)
   13e1c:	0af12c23          	sw	a5,184(sp)
   13e20:	00868693          	addi	a3,a3,8
   13e24:	10f84a63          	blt	a6,a5,13f38 <_vfprintf_r+0x226c>
   13e28:	000d4583          	lbu	a1,0(s10)
   13e2c:	417b04b3          	sub	s1,s6,s7
   13e30:	000b0713          	addi	a4,s6,0
   13e34:	0095d463          	bge	a1,s1,13e3c <_vfprintf_r+0x2170>
   13e38:	00058493          	addi	s1,a1,0
   13e3c:	02905663          	bge	zero,s1,13e68 <_vfprintf_r+0x219c>
   13e40:	0b812583          	lw	a1,184(sp)
   13e44:	00960633          	add	a2,a2,s1
   13e48:	0ac12e23          	sw	a2,188(sp)
   13e4c:	00158593          	addi	a1,a1,1
   13e50:	0176a023          	sw	s7,0(a3)
   13e54:	0096a223          	sw	s1,4(a3)
   13e58:	0ab12c23          	sw	a1,184(sp)
   13e5c:	10b84463          	blt	a6,a1,13f64 <_vfprintf_r+0x2298>
   13e60:	000d4583          	lbu	a1,0(s10)
   13e64:	00868693          	addi	a3,a3,8
   13e68:	fff4c513          	xori	a0,s1,-1
   13e6c:	41f55513          	srai	a0,a0,0x1f
   13e70:	00a4f7b3          	and	a5,s1,a0
   13e74:	40f584b3          	sub	s1,a1,a5
   13e78:	00904c63          	blt	zero,s1,13e90 <_vfprintf_r+0x21c4>
   13e7c:	00bb8bb3          	add	s7,s7,a1
   13e80:	f7504ae3          	blt	zero,s5,13df4 <_vfprintf_r+0x2128>
   13e84:	55b05e63          	bge	zero,s11,143e0 <_vfprintf_r+0x2714>
   13e88:	fffd8d93          	addi	s11,s11,-1
   13e8c:	f75ff06f          	jal	zero,13e00 <_vfprintf_r+0x2134>
   13e90:	000b32b7          	lui	t0,0xb3
   13e94:	0b812583          	lw	a1,184(sp)
   13e98:	64028293          	addi	t0,t0,1600 # b3640 <zeroes.0>
   13e9c:	069cda63          	bge	s9,s1,13f10 <_vfprintf_r+0x2244>
   13ea0:	00e12e23          	sw	a4,28(sp)
   13ea4:	03112023          	sw	a7,32(sp)
   13ea8:	00c0006f          	jal	zero,13eb4 <_vfprintf_r+0x21e8>
   13eac:	ff048493          	addi	s1,s1,-16
   13eb0:	049cdc63          	bge	s9,s1,13f08 <_vfprintf_r+0x223c>
   13eb4:	01060613          	addi	a2,a2,16
   13eb8:	00158593          	addi	a1,a1,1
   13ebc:	0116a023          	sw	a7,0(a3)
   13ec0:	0196a223          	sw	s9,4(a3)
   13ec4:	0ac12e23          	sw	a2,188(sp)
   13ec8:	0ab12c23          	sw	a1,184(sp)
   13ecc:	00868693          	addi	a3,a3,8
   13ed0:	fcb85ee3          	bge	a6,a1,13eac <_vfprintf_r+0x21e0>
   13ed4:	00412583          	lw	a1,4(sp)
   13ed8:	0b410613          	addi	a2,sp,180
   13edc:	00090513          	addi	a0,s2,0
   13ee0:	749000ef          	jal	ra,14e28 <__sprint_r>
   13ee4:	9c051063          	bne	a0,zero,130a4 <_vfprintf_r+0x13d8>
   13ee8:	000b37b7          	lui	a5,0xb3
   13eec:	ff048493          	addi	s1,s1,-16
   13ef0:	0bc12603          	lw	a2,188(sp)
   13ef4:	0b812583          	lw	a1,184(sp)
   13ef8:	00098693          	addi	a3,s3,0
   13efc:	64078893          	addi	a7,a5,1600 # b3640 <zeroes.0>
   13f00:	00700813          	addi	a6,zero,7
   13f04:	fa9cc8e3          	blt	s9,s1,13eb4 <_vfprintf_r+0x21e8>
   13f08:	01c12703          	lw	a4,28(sp)
   13f0c:	02012283          	lw	t0,32(sp)
   13f10:	00960633          	add	a2,a2,s1
   13f14:	00158593          	addi	a1,a1,1
   13f18:	0ac12e23          	sw	a2,188(sp)
   13f1c:	0ab12c23          	sw	a1,184(sp)
   13f20:	0056a023          	sw	t0,0(a3)
   13f24:	0096a223          	sw	s1,4(a3)
   13f28:	78b84663          	blt	a6,a1,146b4 <_vfprintf_r+0x29e8>
   13f2c:	000d4583          	lbu	a1,0(s10)
   13f30:	00868693          	addi	a3,a3,8
   13f34:	f49ff06f          	jal	zero,13e7c <_vfprintf_r+0x21b0>
   13f38:	00412583          	lw	a1,4(sp)
   13f3c:	0b410613          	addi	a2,sp,180
   13f40:	00090513          	addi	a0,s2,0
   13f44:	6e5000ef          	jal	ra,14e28 <__sprint_r>
   13f48:	94051e63          	bne	a0,zero,130a4 <_vfprintf_r+0x13d8>
   13f4c:	000b37b7          	lui	a5,0xb3
   13f50:	0bc12603          	lw	a2,188(sp)
   13f54:	00098693          	addi	a3,s3,0
   13f58:	64078893          	addi	a7,a5,1600 # b3640 <zeroes.0>
   13f5c:	00700813          	addi	a6,zero,7
   13f60:	ec9ff06f          	jal	zero,13e28 <_vfprintf_r+0x215c>
   13f64:	00412583          	lw	a1,4(sp)
   13f68:	0b410613          	addi	a2,sp,180
   13f6c:	00090513          	addi	a0,s2,0
   13f70:	00e12e23          	sw	a4,28(sp)
   13f74:	6b5000ef          	jal	ra,14e28 <__sprint_r>
   13f78:	92051663          	bne	a0,zero,130a4 <_vfprintf_r+0x13d8>
   13f7c:	000b37b7          	lui	a5,0xb3
   13f80:	000d4583          	lbu	a1,0(s10)
   13f84:	0bc12603          	lw	a2,188(sp)
   13f88:	01c12703          	lw	a4,28(sp)
   13f8c:	00098693          	addi	a3,s3,0
   13f90:	64078893          	addi	a7,a5,1600 # b3640 <zeroes.0>
   13f94:	00700813          	addi	a6,zero,7
   13f98:	ed1ff06f          	jal	zero,13e68 <_vfprintf_r+0x219c>
   13f9c:	03812303          	lw	t1,56(sp)
   13fa0:	000a8813          	addi	a6,s5,0
   13fa4:	000d8793          	addi	a5,s11,0
   13fa8:	00048a93          	addi	s5,s1,0
   13fac:	01560633          	add	a2,a2,s5
   13fb0:	00170713          	addi	a4,a4,1
   13fb4:	010b2023          	sw	a6,0(s6)
   13fb8:	015b2223          	sw	s5,4(s6)
   13fbc:	0ac12e23          	sw	a2,188(sp)
   13fc0:	0ae12c23          	sw	a4,184(sp)
   13fc4:	00700593          	addi	a1,zero,7
   13fc8:	008b0b13          	addi	s6,s6,8
   13fcc:	b0e5d663          	bge	a1,a4,132d8 <_vfprintf_r+0x160c>
   13fd0:	00412583          	lw	a1,4(sp)
   13fd4:	0b410613          	addi	a2,sp,180
   13fd8:	00090513          	addi	a0,s2,0
   13fdc:	02612e23          	sw	t1,60(sp)
   13fe0:	02f12c23          	sw	a5,56(sp)
   13fe4:	645000ef          	jal	ra,14e28 <__sprint_r>
   13fe8:	8a051e63          	bne	a0,zero,130a4 <_vfprintf_r+0x13d8>
   13fec:	0bc12603          	lw	a2,188(sp)
   13ff0:	03c12303          	lw	t1,60(sp)
   13ff4:	03812783          	lw	a5,56(sp)
   13ff8:	00098b13          	addi	s6,s3,0
   13ffc:	adcff06f          	jal	zero,132d8 <_vfprintf_r+0x160c>
   14000:	00078c13          	addi	s8,a5,0
   14004:	fecff06f          	jal	zero,137f0 <_vfprintf_r+0x1b24>
   14008:	00412583          	lw	a1,4(sp)
   1400c:	0b410613          	addi	a2,sp,180
   14010:	00090513          	addi	a0,s2,0
   14014:	02612e23          	sw	t1,60(sp)
   14018:	02f12c23          	sw	a5,56(sp)
   1401c:	60d000ef          	jal	ra,14e28 <__sprint_r>
   14020:	88051263          	bne	a0,zero,130a4 <_vfprintf_r+0x13d8>
   14024:	0bc12603          	lw	a2,188(sp)
   14028:	03c12303          	lw	t1,60(sp)
   1402c:	03812783          	lw	a5,56(sp)
   14030:	00098b13          	addi	s6,s3,0
   14034:	a90ff06f          	jal	zero,132c4 <_vfprintf_r+0x15f8>
   14038:	001bf713          	andi	a4,s7,1
   1403c:	00071463          	bne	a4,zero,14044 <_vfprintf_r+0x2378>
   14040:	f85fd06f          	jal	zero,11fc4 <_vfprintf_r+0x2f8>
   14044:	02412683          	lw	a3,36(sp)
   14048:	0b812703          	lw	a4,184(sp)
   1404c:	00700593          	addi	a1,zero,7
   14050:	00c68633          	add	a2,a3,a2
   14054:	02812683          	lw	a3,40(sp)
   14058:	00170713          	addi	a4,a4,1
   1405c:	0ac12e23          	sw	a2,188(sp)
   14060:	00db2023          	sw	a3,0(s6)
   14064:	02412683          	lw	a3,36(sp)
   14068:	0ae12c23          	sw	a4,184(sp)
   1406c:	00db2223          	sw	a3,4(s6)
   14070:	74e5d863          	bge	a1,a4,147c0 <_vfprintf_r+0x2af4>
   14074:	00412583          	lw	a1,4(sp)
   14078:	0b410613          	addi	a2,sp,180
   1407c:	00090513          	addi	a0,s2,0
   14080:	00f12e23          	sw	a5,28(sp)
   14084:	5a5000ef          	jal	ra,14e28 <__sprint_r>
   14088:	00050463          	beq	a0,zero,14090 <_vfprintf_r+0x23c4>
   1408c:	818ff06f          	jal	zero,130a4 <_vfprintf_r+0x13d8>
   14090:	09812503          	lw	a0,152(sp)
   14094:	0bc12603          	lw	a2,188(sp)
   14098:	0b812703          	lw	a4,184(sp)
   1409c:	01c12783          	lw	a5,28(sp)
   140a0:	00098b13          	addi	s6,s3,0
   140a4:	9e5ff06f          	jal	zero,13a88 <_vfprintf_r+0x1dbc>
   140a8:	01812703          	lw	a4,24(sp)
   140ac:	00e787b3          	add	a5,a5,a4
   140b0:	41b78cb3          	sub	s9,a5,s11
   140b4:	41570ab3          	sub	s5,a4,s5
   140b8:	ad9ad063          	bge	s5,s9,13378 <_vfprintf_r+0x16ac>
   140bc:	000a8c93          	addi	s9,s5,0
   140c0:	ab8ff06f          	jal	zero,13378 <_vfprintf_r+0x16ac>
   140c4:	00098b13          	addi	s6,s3,0
   140c8:	ec5fd06f          	jal	zero,11f8c <_vfprintf_r+0x2c0>
   140cc:	00c12783          	lw	a5,12(sp)
   140d0:	00812683          	lw	a3,8(sp)
   140d4:	00e12623          	sw	a4,12(sp)
   140d8:	0007a783          	lw	a5,0(a5)
   140dc:	00d79023          	sh	a3,0(a5)
   140e0:	cf9fd06f          	jal	zero,11dd8 <_vfprintf_r+0x10c>
   140e4:	41fc5e93          	srai	t4,s8,0x1f
   140e8:	00f12623          	sw	a5,12(sp)
   140ec:	000e8713          	addi	a4,t4,0
   140f0:	8adfe06f          	jal	zero,1299c <_vfprintf_r+0xcd0>
   140f4:	0ffc7c13          	andi	s8,s8,255
   140f8:	00000e93          	addi	t4,zero,0
   140fc:	000ac463          	blt	s5,zero,14104 <_vfprintf_r+0x2438>
   14100:	bfdfe06f          	jal	zero,12cfc <_vfprintf_r+0x1030>
   14104:	98dfe06f          	jal	zero,12a90 <_vfprintf_r+0xdc4>
   14108:	0ff77713          	andi	a4,a4,255
   1410c:	00000613          	addi	a2,zero,0
   14110:	e98ff06f          	jal	zero,137a8 <_vfprintf_r+0x1adc>
   14114:	00f12623          	sw	a5,12(sp)
   14118:	000b8693          	addi	a3,s7,0
   1411c:	00000613          	addi	a2,zero,0
   14120:	ae5fe06f          	jal	zero,12c04 <_vfprintf_r+0xf38>
   14124:	04700793          	addi	a5,zero,71
   14128:	09314703          	lbu	a4,147(sp)
   1412c:	1117d2e3          	bge	a5,a7,14a30 <_vfprintf_r+0x2d64>
   14130:	000217b7          	lui	a5,0x21
   14134:	bdc78793          	addi	a5,a5,-1060 # 20bdc <__clzsi2+0xa0>
   14138:	3e0712e3          	bne	a4,zero,14d1c <_vfprintf_r+0x3050>
   1413c:	00300c93          	addi	s9,zero,3
   14140:	000c8c13          	addi	s8,s9,0
   14144:	00000a93          	addi	s5,zero,0
   14148:	02012023          	sw	zero,32(sp)
   1414c:	00012e23          	sw	zero,28(sp)
   14150:	00012823          	sw	zero,16(sp)
   14154:	da9fd06f          	jal	zero,11efc <_vfprintf_r+0x230>
   14158:	000217b7          	lui	a5,0x21
   1415c:	bd478793          	addi	a5,a5,-1068 # 20bd4 <__clzsi2+0x98>
   14160:	a75ff06f          	jal	zero,13bd4 <_vfprintf_r+0x1f08>
   14164:	04412703          	lw	a4,68(sp)
   14168:	03412583          	lw	a1,52(sp)
   1416c:	01d12e23          	sw	t4,28(sp)
   14170:	40e786b3          	sub	a3,a5,a4
   14174:	00070613          	addi	a2,a4,0
   14178:	00068513          	addi	a0,a3,0
   1417c:	01012c23          	sw	a6,24(sp)
   14180:	00d12823          	sw	a3,16(sp)
   14184:	00d010ef          	jal	ra,15990 <strncpy>
   14188:	01c12e83          	lw	t4,28(sp)
   1418c:	ccccd637          	lui	a2,0xccccd
   14190:	ccd60613          	addi	a2,a2,-819 # cccccccd <__BSS_END__+0xccc18279>
   14194:	01dc0733          	add	a4,s8,t4
   14198:	018737b3          	sltu	a5,a4,s8
   1419c:	00f70733          	add	a4,a4,a5
   141a0:	02c735b3          	mulhu	a1,a4,a2
   141a4:	ccccd537          	lui	a0,0xccccd
   141a8:	ccc50513          	addi	a0,a0,-820 # cccccccc <__BSS_END__+0xccc18278>
   141ac:	03012783          	lw	a5,48(sp)
   141b0:	03012683          	lw	a3,48(sp)
   141b4:	01812803          	lw	a6,24(sp)
   141b8:	0017c783          	lbu	a5,1(a5)
   141bc:	00f037b3          	sltu	a5,zero,a5
   141c0:	0025d893          	srli	a7,a1,0x2
   141c4:	ffc5f593          	andi	a1,a1,-4
   141c8:	011585b3          	add	a1,a1,a7
   141cc:	40b70733          	sub	a4,a4,a1
   141d0:	40ec0733          	sub	a4,s8,a4
   141d4:	00ec35b3          	sltu	a1,s8,a4
   141d8:	40be85b3          	sub	a1,t4,a1
   141dc:	02a70533          	mul	a0,a4,a0
   141e0:	00f687b3          	add	a5,a3,a5
   141e4:	01012683          	lw	a3,16(sp)
   141e8:	02f12823          	sw	a5,48(sp)
   141ec:	fff68793          	addi	a5,a3,-1
   141f0:	02c585b3          	mul	a1,a1,a2
   141f4:	00a585b3          	add	a1,a1,a0
   141f8:	02c73533          	mulhu	a0,a4,a2
   141fc:	02c70733          	mul	a4,a4,a2
   14200:	00a585b3          	add	a1,a1,a0
   14204:	01f59513          	slli	a0,a1,0x1f
   14208:	0015de93          	srli	t4,a1,0x1
   1420c:	00100593          	addi	a1,zero,1
   14210:	00175713          	srli	a4,a4,0x1
   14214:	00e50c33          	add	s8,a0,a4
   14218:	01dc0733          	add	a4,s8,t4
   1421c:	01873533          	sltu	a0,a4,s8
   14220:	00a70733          	add	a4,a4,a0
   14224:	02c73533          	mulhu	a0,a4,a2
   14228:	00255893          	srli	a7,a0,0x2
   1422c:	ffc57513          	andi	a0,a0,-4
   14230:	01150533          	add	a0,a0,a7
   14234:	40a70733          	sub	a4,a4,a0
   14238:	40ec0733          	sub	a4,s8,a4
   1423c:	00ec3533          	sltu	a0,s8,a4
   14240:	40ae8533          	sub	a0,t4,a0
   14244:	02c738b3          	mulhu	a7,a4,a2
   14248:	02c50533          	mul	a0,a0,a2
   1424c:	02c70733          	mul	a4,a4,a2
   14250:	01150633          	add	a2,a0,a7
   14254:	01f61613          	slli	a2,a2,0x1f
   14258:	00175713          	srli	a4,a4,0x1
   1425c:	00e60733          	add	a4,a2,a4
   14260:	00271613          	slli	a2,a4,0x2
   14264:	00e60733          	add	a4,a2,a4
   14268:	00171713          	slli	a4,a4,0x1
   1426c:	40ec0733          	sub	a4,s8,a4
   14270:	03070713          	addi	a4,a4,48
   14274:	fee68fa3          	sb	a4,-1(a3)
   14278:	ab9fe06f          	jal	zero,12d30 <_vfprintf_r+0x1064>
   1427c:	07800793          	addi	a5,zero,120
   14280:	ed5fd06f          	jal	zero,12154 <_vfprintf_r+0x488>
   14284:	6e0cc063          	blt	s9,zero,14964 <_vfprintf_r+0x2c98>
   14288:	02012c23          	sw	zero,56(sp)
   1428c:	00600a93          	addi	s5,zero,6
   14290:	04600793          	addi	a5,zero,70
   14294:	44fc1e63          	bne	s8,a5,146f0 <_vfprintf_r+0x2a24>
   14298:	09c10793          	addi	a5,sp,156
   1429c:	09810713          	addi	a4,sp,152
   142a0:	000a8693          	addi	a3,s5,0
   142a4:	08010593          	addi	a1,sp,128
   142a8:	0a010813          	addi	a6,sp,160
   142ac:	00300613          	addi	a2,zero,3
   142b0:	00090513          	addi	a0,s2,0
   142b4:	03112e23          	sw	a7,60(sp)
   142b8:	09d12023          	sw	t4,128(sp)
   142bc:	03d12023          	sw	t4,32(sp)
   142c0:	09e12223          	sw	t5,132(sp)
   142c4:	01e12e23          	sw	t5,28(sp)
   142c8:	08512423          	sw	t0,136(sp)
   142cc:	00512c23          	sw	t0,24(sp)
   142d0:	09912623          	sw	s9,140(sp)
   142d4:	525010ef          	jal	ra,15ff8 <_ldtoa_r>
   142d8:	00054683          	lbu	a3,0(a0)
   142dc:	03000713          	addi	a4,zero,48
   142e0:	01812283          	lw	t0,24(sp)
   142e4:	01c12f03          	lw	t5,28(sp)
   142e8:	02012e83          	lw	t4,32(sp)
   142ec:	03c12883          	lw	a7,60(sp)
   142f0:	00050793          	addi	a5,a0,0
   142f4:	015504b3          	add	s1,a0,s5
   142f8:	04e68ae3          	beq	a3,a4,14b4c <_vfprintf_r+0x2e80>
   142fc:	09812d83          	lw	s11,152(sp)
   14300:	08010513          	addi	a0,sp,128
   14304:	07010593          	addi	a1,sp,112
   14308:	00f12e23          	sw	a5,28(sp)
   1430c:	09912623          	sw	s9,140(sp)
   14310:	01112c23          	sw	a7,24(sp)
   14314:	09d12023          	sw	t4,128(sp)
   14318:	09e12223          	sw	t5,132(sp)
   1431c:	08512423          	sw	t0,136(sp)
   14320:	06012823          	sw	zero,112(sp)
   14324:	06012a23          	sw	zero,116(sp)
   14328:	06012c23          	sw	zero,120(sp)
   1432c:	06012e23          	sw	zero,124(sp)
   14330:	599090ef          	jal	ra,1e0c8 <__eqtf2>
   14334:	01c12783          	lw	a5,28(sp)
   14338:	01b48cb3          	add	s9,s1,s11
   1433c:	000d8313          	addi	t1,s11,0
   14340:	7e051a63          	bne	a0,zero,14b34 <_vfprintf_r+0x2e68>
   14344:	40fc8733          	sub	a4,s9,a5
   14348:	00e12c23          	sw	a4,24(sp)
   1434c:	001bf713          	andi	a4,s7,1
   14350:	01576733          	or	a4,a4,s5
   14354:	0e605ae3          	bge	zero,t1,14c48 <_vfprintf_r+0x2f7c>
   14358:	040710e3          	bne	a4,zero,14b98 <_vfprintf_r+0x2ecc>
   1435c:	00030c93          	addi	s9,t1,0
   14360:	06600893          	addi	a7,zero,102
   14364:	400bfe13          	andi	t3,s7,1024
   14368:	6e0e1663          	bne	t3,zero,14a54 <_vfprintf_r+0x2d88>
   1436c:	fffcc693          	xori	a3,s9,-1
   14370:	41f6d693          	srai	a3,a3,0x1f
   14374:	00dcfc33          	and	s8,s9,a3
   14378:	03812703          	lw	a4,56(sp)
   1437c:	4c070a63          	beq	a4,zero,14850 <_vfprintf_r+0x2b84>
   14380:	02d00713          	addi	a4,zero,45
   14384:	08e109a3          	sb	a4,147(sp)
   14388:	001c0c13          	addi	s8,s8,1
   1438c:	01012b83          	lw	s7,16(sp)
   14390:	00000a93          	addi	s5,zero,0
   14394:	00012823          	sw	zero,16(sp)
   14398:	02012023          	sw	zero,32(sp)
   1439c:	00012e23          	sw	zero,28(sp)
   143a0:	b5dfd06f          	jal	zero,11efc <_vfprintf_r+0x230>
   143a4:	001a8593          	addi	a1,s5,1
   143a8:	00090513          	addi	a0,s2,0
   143ac:	01112823          	sw	a7,16(sp)
   143b0:	89cfd0ef          	jal	ra,1144c <_malloc_r>
   143b4:	01012883          	lw	a7,16(sp)
   143b8:	00050793          	addi	a5,a0,0
   143bc:	12050ee3          	beq	a0,zero,14cf8 <_vfprintf_r+0x302c>
   143c0:	0cc12703          	lw	a4,204(sp)
   143c4:	00a12823          	sw	a0,16(sp)
   143c8:	0c012683          	lw	a3,192(sp)
   143cc:	0c412603          	lw	a2,196(sp)
   143d0:	0c812583          	lw	a1,200(sp)
   143d4:	64074463          	blt	a4,zero,14a1c <_vfprintf_r+0x2d50>
   143d8:	02012c23          	sw	zero,56(sp)
   143dc:	dadfd06f          	jal	zero,12188 <_vfprintf_r+0x4bc>
   143e0:	000b8d93          	addi	s11,s7,0
   143e4:	03a12823          	sw	s10,48(sp)
   143e8:	03812783          	lw	a5,56(sp)
   143ec:	03c12b83          	lw	s7,60(sp)
   143f0:	04012c03          	lw	s8,64(sp)
   143f4:	04812d03          	lw	s10,72(sp)
   143f8:	00068b13          	addi	s6,a3,0
   143fc:	01b76463          	bltu	a4,s11,14404 <_vfprintf_r+0x2738>
   14400:	ee5fe06f          	jal	zero,132e4 <_vfprintf_r+0x1618>
   14404:	00070d93          	addi	s11,a4,0
   14408:	eddfe06f          	jal	zero,132e4 <_vfprintf_r+0x1618>
   1440c:	02012c23          	sw	zero,56(sp)
   14410:	000cda63          	bge	s9,zero,14424 <_vfprintf_r+0x2758>
   14414:	800007b7          	lui	a5,0x80000
   14418:	00fcccb3          	xor	s9,s9,a5
   1441c:	02d00793          	addi	a5,zero,45
   14420:	02f12c23          	sw	a5,56(sp)
   14424:	08010d93          	addi	s11,sp,128
   14428:	09c10793          	addi	a5,sp,156
   1442c:	000d8593          	addi	a1,s11,0
   14430:	0a010813          	addi	a6,sp,160
   14434:	09810713          	addi	a4,sp,152
   14438:	00100693          	addi	a3,zero,1
   1443c:	00200613          	addi	a2,zero,2
   14440:	00090513          	addi	a0,s2,0
   14444:	05112023          	sw	a7,64(sp)
   14448:	09d12023          	sw	t4,128(sp)
   1444c:	03d12e23          	sw	t4,60(sp)
   14450:	09e12223          	sw	t5,132(sp)
   14454:	03e12023          	sw	t5,32(sp)
   14458:	08512423          	sw	t0,136(sp)
   1445c:	00512e23          	sw	t0,28(sp)
   14460:	09912623          	sw	s9,140(sp)
   14464:	395010ef          	jal	ra,15ff8 <_ldtoa_r>
   14468:	01c12283          	lw	t0,28(sp)
   1446c:	02012f03          	lw	t5,32(sp)
   14470:	03c12e83          	lw	t4,60(sp)
   14474:	04012883          	lw	a7,64(sp)
   14478:	00100a93          	addi	s5,zero,1
   1447c:	00050793          	addi	a5,a0,0
   14480:	01512c23          	sw	s5,24(sp)
   14484:	001bf713          	andi	a4,s7,1
   14488:	18070e63          	beq	a4,zero,14624 <_vfprintf_r+0x2958>
   1448c:	000d8513          	addi	a0,s11,0
   14490:	07010593          	addi	a1,sp,112
   14494:	02f12023          	sw	a5,32(sp)
   14498:	01112e23          	sw	a7,28(sp)
   1449c:	09d12023          	sw	t4,128(sp)
   144a0:	09e12223          	sw	t5,132(sp)
   144a4:	08512423          	sw	t0,136(sp)
   144a8:	09912623          	sw	s9,140(sp)
   144ac:	06012823          	sw	zero,112(sp)
   144b0:	06012a23          	sw	zero,116(sp)
   144b4:	06012c23          	sw	zero,120(sp)
   144b8:	06012e23          	sw	zero,124(sp)
   144bc:	40d090ef          	jal	ra,1e0c8 <__eqtf2>
   144c0:	01c12883          	lw	a7,28(sp)
   144c4:	02012783          	lw	a5,32(sp)
   144c8:	7e050263          	beq	a0,zero,14cac <_vfprintf_r+0x2fe0>
   144cc:	01812683          	lw	a3,24(sp)
   144d0:	0a012703          	lw	a4,160(sp)
   144d4:	00d78cb3          	add	s9,a5,a3
   144d8:	079770e3          	bgeu	a4,s9,14d38 <_vfprintf_r+0x306c>
   144dc:	03000613          	addi	a2,zero,48
   144e0:	00170693          	addi	a3,a4,1
   144e4:	0ad12023          	sw	a3,160(sp)
   144e8:	00c70023          	sb	a2,0(a4)
   144ec:	0a012703          	lw	a4,160(sp)
   144f0:	ff9768e3          	bltu	a4,s9,144e0 <_vfprintf_r+0x2814>
   144f4:	40f70733          	sub	a4,a4,a5
   144f8:	04700693          	addi	a3,zero,71
   144fc:	00e12c23          	sw	a4,24(sp)
   14500:	09812303          	lw	t1,152(sp)
   14504:	12dc0863          	beq	s8,a3,14634 <_vfprintf_r+0x2968>
   14508:	04600713          	addi	a4,zero,70
   1450c:	e4ec00e3          	beq	s8,a4,1434c <_vfprintf_r+0x2680>
   14510:	fff30713          	addi	a4,t1,-1
   14514:	0b110223          	sb	a7,164(sp)
   14518:	08e12c23          	sw	a4,152(sp)
   1451c:	68074863          	blt	a4,zero,14bac <_vfprintf_r+0x2ee0>
   14520:	02b00693          	addi	a3,zero,43
   14524:	0ad102a3          	sb	a3,165(sp)
   14528:	00900693          	addi	a3,zero,9
   1452c:	68e6dc63          	bge	a3,a4,14bc4 <_vfprintf_r+0x2ef8>
   14530:	01712e23          	sw	s7,28(sp)
   14534:	00012823          	sw	zero,16(sp)
   14538:	0b310e93          	addi	t4,sp,179
   1453c:	ccccde37          	lui	t3,0xccccd
   14540:	000e8513          	addi	a0,t4,0
   14544:	ccde0e13          	addi	t3,t3,-819 # cccccccd <__BSS_END__+0xccc18279>
   14548:	06300f13          	addi	t5,zero,99
   1454c:	03c736b3          	mulhu	a3,a4,t3
   14550:	00070813          	addi	a6,a4,0
   14554:	00050593          	addi	a1,a0,0
   14558:	fff50513          	addi	a0,a0,-1
   1455c:	0036d693          	srli	a3,a3,0x3
   14560:	00269613          	slli	a2,a3,0x2
   14564:	00d60633          	add	a2,a2,a3
   14568:	00161613          	slli	a2,a2,0x1
   1456c:	40c70733          	sub	a4,a4,a2
   14570:	03070713          	addi	a4,a4,48
   14574:	fee58fa3          	sb	a4,-1(a1)
   14578:	00068713          	addi	a4,a3,0
   1457c:	fd0f48e3          	blt	t5,a6,1454c <_vfprintf_r+0x2880>
   14580:	03068713          	addi	a4,a3,48
   14584:	fee50fa3          	sb	a4,-1(a0)
   14588:	ffe58713          	addi	a4,a1,-2
   1458c:	73d77c63          	bgeu	a4,t4,14cc4 <_vfprintf_r+0x2ff8>
   14590:	0a610513          	addi	a0,sp,166
   14594:	00050693          	addi	a3,a0,0
   14598:	00074603          	lbu	a2,0(a4)
   1459c:	00170713          	addi	a4,a4,1
   145a0:	00168693          	addi	a3,a3,1
   145a4:	fec68fa3          	sb	a2,-1(a3)
   145a8:	ffd718e3          	bne	a4,t4,14598 <_vfprintf_r+0x28cc>
   145ac:	00a70733          	add	a4,a4,a0
   145b0:	00270713          	addi	a4,a4,2
   145b4:	40b70733          	sub	a4,a4,a1
   145b8:	0a410693          	addi	a3,sp,164
   145bc:	40d70733          	sub	a4,a4,a3
   145c0:	02e12623          	sw	a4,44(sp)
   145c4:	01812683          	lw	a3,24(sp)
   145c8:	02c12603          	lw	a2,44(sp)
   145cc:	00100713          	addi	a4,zero,1
   145d0:	00c68cb3          	add	s9,a3,a2
   145d4:	42d75263          	bge	a4,a3,149f8 <_vfprintf_r+0x2d2c>
   145d8:	02412703          	lw	a4,36(sp)
   145dc:	00ec8cb3          	add	s9,s9,a4
   145e0:	01c12703          	lw	a4,28(sp)
   145e4:	fffcc693          	xori	a3,s9,-1
   145e8:	41f6d693          	srai	a3,a3,0x1f
   145ec:	bff77e13          	andi	t3,a4,-1025
   145f0:	00277313          	andi	t1,a4,2
   145f4:	03812703          	lw	a4,56(sp)
   145f8:	00dcfc33          	and	s8,s9,a3
   145fc:	100e6b93          	ori	s7,t3,256
   14600:	34070863          	beq	a4,zero,14950 <_vfprintf_r+0x2c84>
   14604:	02d00e93          	addi	t4,zero,45
   14608:	09d109a3          	sb	t4,147(sp)
   1460c:	00000a93          	addi	s5,zero,0
   14610:	001c0c13          	addi	s8,s8,1
   14614:	bc8fe06f          	jal	zero,129dc <_vfprintf_r+0xd10>
   14618:	01812683          	lw	a3,24(sp)
   1461c:	00a6c583          	lbu	a1,10(a3)
   14620:	e65fd06f          	jal	zero,12484 <_vfprintf_r+0x7b8>
   14624:	0a012703          	lw	a4,160(sp)
   14628:	09812303          	lw	t1,152(sp)
   1462c:	40f70733          	sub	a4,a4,a5
   14630:	00e12c23          	sw	a4,24(sp)
   14634:	ffd32713          	slti	a4,t1,-3
   14638:	00071463          	bne	a4,zero,14640 <_vfprintf_r+0x2974>
   1463c:	006ad663          	bge	s5,t1,14648 <_vfprintf_r+0x297c>
   14640:	ffe88893          	addi	a7,a7,-2
   14644:	ecdff06f          	jal	zero,14510 <_vfprintf_r+0x2844>
   14648:	01812703          	lw	a4,24(sp)
   1464c:	2ce34c63          	blt	t1,a4,14924 <_vfprintf_r+0x2c58>
   14650:	001bf713          	andi	a4,s7,1
   14654:	00030c93          	addi	s9,t1,0
   14658:	00070663          	beq	a4,zero,14664 <_vfprintf_r+0x2998>
   1465c:	02412703          	lw	a4,36(sp)
   14660:	00e30cb3          	add	s9,t1,a4
   14664:	400bfe13          	andi	t3,s7,1024
   14668:	000e0463          	beq	t3,zero,14670 <_vfprintf_r+0x29a4>
   1466c:	3e604263          	blt	zero,t1,14a50 <_vfprintf_r+0x2d84>
   14670:	fffcc693          	xori	a3,s9,-1
   14674:	41f6d693          	srai	a3,a3,0x1f
   14678:	00dcfc33          	and	s8,s9,a3
   1467c:	06700893          	addi	a7,zero,103
   14680:	cf9ff06f          	jal	zero,14378 <_vfprintf_r+0x26ac>
   14684:	00412583          	lw	a1,4(sp)
   14688:	0b410613          	addi	a2,sp,180
   1468c:	00090513          	addi	a0,s2,0
   14690:	00f12e23          	sw	a5,28(sp)
   14694:	794000ef          	jal	ra,14e28 <__sprint_r>
   14698:	00050463          	beq	a0,zero,146a0 <_vfprintf_r+0x29d4>
   1469c:	a09fe06f          	jal	zero,130a4 <_vfprintf_r+0x13d8>
   146a0:	09812503          	lw	a0,152(sp)
   146a4:	0bc12603          	lw	a2,188(sp)
   146a8:	01c12783          	lw	a5,28(sp)
   146ac:	00098b13          	addi	s6,s3,0
   146b0:	b98ff06f          	jal	zero,13a48 <_vfprintf_r+0x1d7c>
   146b4:	00412583          	lw	a1,4(sp)
   146b8:	0b410613          	addi	a2,sp,180
   146bc:	00090513          	addi	a0,s2,0
   146c0:	00e12e23          	sw	a4,28(sp)
   146c4:	764000ef          	jal	ra,14e28 <__sprint_r>
   146c8:	00050463          	beq	a0,zero,146d0 <_vfprintf_r+0x2a04>
   146cc:	9d9fe06f          	jal	zero,130a4 <_vfprintf_r+0x13d8>
   146d0:	000b37b7          	lui	a5,0xb3
   146d4:	000d4583          	lbu	a1,0(s10)
   146d8:	0bc12603          	lw	a2,188(sp)
   146dc:	01c12703          	lw	a4,28(sp)
   146e0:	00098693          	addi	a3,s3,0
   146e4:	64078893          	addi	a7,a5,1600 # b3640 <zeroes.0>
   146e8:	00700813          	addi	a6,zero,7
   146ec:	f90ff06f          	jal	zero,13e7c <_vfprintf_r+0x21b0>
   146f0:	fbbc0793          	addi	a5,s8,-69
   146f4:	0017b793          	sltiu	a5,a5,1
   146f8:	015787b3          	add	a5,a5,s5
   146fc:	08010d93          	addi	s11,sp,128
   14700:	00f12c23          	sw	a5,24(sp)
   14704:	00078693          	addi	a3,a5,0
   14708:	09810713          	addi	a4,sp,152
   1470c:	09c10793          	addi	a5,sp,156
   14710:	000d8593          	addi	a1,s11,0
   14714:	0a010813          	addi	a6,sp,160
   14718:	00200613          	addi	a2,zero,2
   1471c:	00090513          	addi	a0,s2,0
   14720:	05112023          	sw	a7,64(sp)
   14724:	09d12023          	sw	t4,128(sp)
   14728:	03d12e23          	sw	t4,60(sp)
   1472c:	09e12223          	sw	t5,132(sp)
   14730:	03e12023          	sw	t5,32(sp)
   14734:	08512423          	sw	t0,136(sp)
   14738:	00512e23          	sw	t0,28(sp)
   1473c:	09912623          	sw	s9,140(sp)
   14740:	0b9010ef          	jal	ra,15ff8 <_ldtoa_r>
   14744:	04700713          	addi	a4,zero,71
   14748:	01c12283          	lw	t0,28(sp)
   1474c:	02012f03          	lw	t5,32(sp)
   14750:	03c12e83          	lw	t4,60(sp)
   14754:	04012883          	lw	a7,64(sp)
   14758:	00050793          	addi	a5,a0,0
   1475c:	d2ec04e3          	beq	s8,a4,14484 <_vfprintf_r+0x27b8>
   14760:	02a12023          	sw	a0,32(sp)
   14764:	07010593          	addi	a1,sp,112
   14768:	000d8513          	addi	a0,s11,0
   1476c:	01112e23          	sw	a7,28(sp)
   14770:	09d12023          	sw	t4,128(sp)
   14774:	09e12223          	sw	t5,132(sp)
   14778:	08512423          	sw	t0,136(sp)
   1477c:	09912623          	sw	s9,140(sp)
   14780:	06012823          	sw	zero,112(sp)
   14784:	06012a23          	sw	zero,116(sp)
   14788:	06012c23          	sw	zero,120(sp)
   1478c:	06012e23          	sw	zero,124(sp)
   14790:	139090ef          	jal	ra,1e0c8 <__eqtf2>
   14794:	01c12883          	lw	a7,28(sp)
   14798:	02012783          	lw	a5,32(sp)
   1479c:	5a050663          	beq	a0,zero,14d48 <_vfprintf_r+0x307c>
   147a0:	01812683          	lw	a3,24(sp)
   147a4:	0a012703          	lw	a4,160(sp)
   147a8:	00d78cb3          	add	s9,a5,a3
   147ac:	d39768e3          	bltu	a4,s9,144dc <_vfprintf_r+0x2810>
   147b0:	40f70733          	sub	a4,a4,a5
   147b4:	09812303          	lw	t1,152(sp)
   147b8:	00e12c23          	sw	a4,24(sp)
   147bc:	d55ff06f          	jal	zero,14510 <_vfprintf_r+0x2844>
   147c0:	008b0b13          	addi	s6,s6,8
   147c4:	ac8ff06f          	jal	zero,13a8c <_vfprintf_r+0x1dc0>
   147c8:	02d00793          	addi	a5,zero,45
   147cc:	08f109a3          	sb	a5,147(sp)
   147d0:	04700793          	addi	a5,zero,71
   147d4:	2317da63          	bge	a5,a7,14a08 <_vfprintf_r+0x2d3c>
   147d8:	000217b7          	lui	a5,0x21
   147dc:	bd478793          	addi	a5,a5,-1068 # 20bd4 <__clzsi2+0x98>
   147e0:	d84ff06f          	jal	zero,13d64 <_vfprintf_r+0x2098>
   147e4:	00412583          	lw	a1,4(sp)
   147e8:	0b410613          	addi	a2,sp,180
   147ec:	00090513          	addi	a0,s2,0
   147f0:	00f12e23          	sw	a5,28(sp)
   147f4:	634000ef          	jal	ra,14e28 <__sprint_r>
   147f8:	00050463          	beq	a0,zero,14800 <_vfprintf_r+0x2b34>
   147fc:	8a9fe06f          	jal	zero,130a4 <_vfprintf_r+0x13d8>
   14800:	09812a83          	lw	s5,152(sp)
   14804:	0bc12603          	lw	a2,188(sp)
   14808:	01c12783          	lw	a5,28(sp)
   1480c:	00098b13          	addi	s6,s3,0
   14810:	b21fe06f          	jal	zero,13330 <_vfprintf_r+0x1664>
   14814:	65080813          	addi	a6,a6,1616
   14818:	c4dfe06f          	jal	zero,13464 <_vfprintf_r+0x1798>
   1481c:	00900713          	addi	a4,zero,9
   14820:	00677463          	bgeu	a4,t1,14828 <_vfprintf_r+0x2b5c>
   14824:	d88fe06f          	jal	zero,12dac <_vfprintf_r+0x10e0>
   14828:	af8ff06f          	jal	zero,13b20 <_vfprintf_r+0x1e54>
   1482c:	00912623          	sw	s1,12(sp)
   14830:	1a070663          	beq	a4,zero,149dc <_vfprintf_r+0x2d10>
   14834:	001a8c13          	addi	s8,s5,1
   14838:	000a8c93          	addi	s9,s5,0
   1483c:	02012023          	sw	zero,32(sp)
   14840:	00000a93          	addi	s5,zero,0
   14844:	00012e23          	sw	zero,28(sp)
   14848:	00000313          	addi	t1,zero,0
   1484c:	eb0fd06f          	jal	zero,11efc <_vfprintf_r+0x230>
   14850:	09314703          	lbu	a4,147(sp)
   14854:	b2070ce3          	beq	a4,zero,1438c <_vfprintf_r+0x26c0>
   14858:	001c0c13          	addi	s8,s8,1
   1485c:	b31ff06f          	jal	zero,1438c <_vfprintf_r+0x26c0>
   14860:	00412583          	lw	a1,4(sp)
   14864:	0b410613          	addi	a2,sp,180
   14868:	00090513          	addi	a0,s2,0
   1486c:	5bc000ef          	jal	ra,14e28 <__sprint_r>
   14870:	00050463          	beq	a0,zero,14878 <_vfprintf_r+0x2bac>
   14874:	831fe06f          	jal	zero,130a4 <_vfprintf_r+0x13d8>
   14878:	09812a83          	lw	s5,152(sp)
   1487c:	01812783          	lw	a5,24(sp)
   14880:	0bc12603          	lw	a2,188(sp)
   14884:	00098b13          	addi	s6,s3,0
   14888:	41578ab3          	sub	s5,a5,s5
   1488c:	aedfe06f          	jal	zero,13378 <_vfprintf_r+0x16ac>
   14890:	ff000593          	addi	a1,zero,-16
   14894:	40a00ab3          	sub	s5,zero,a0
   14898:	000b3837          	lui	a6,0xb3
   1489c:	44b55463          	bge	a0,a1,14ce4 <_vfprintf_r+0x3018>
   148a0:	01000c93          	addi	s9,zero,16
   148a4:	00700d93          	addi	s11,zero,7
   148a8:	00f12e23          	sw	a5,28(sp)
   148ac:	64080493          	addi	s1,a6,1600 # b3640 <zeroes.0>
   148b0:	00c0006f          	jal	zero,148bc <_vfprintf_r+0x2bf0>
   148b4:	ff0a8a93          	addi	s5,s5,-16
   148b8:	0d5cd663          	bge	s9,s5,14984 <_vfprintf_r+0x2cb8>
   148bc:	01060613          	addi	a2,a2,16
   148c0:	00170713          	addi	a4,a4,1
   148c4:	009b2023          	sw	s1,0(s6)
   148c8:	019b2223          	sw	s9,4(s6)
   148cc:	0ac12e23          	sw	a2,188(sp)
   148d0:	0ae12c23          	sw	a4,184(sp)
   148d4:	008b0b13          	addi	s6,s6,8
   148d8:	fceddee3          	bge	s11,a4,148b4 <_vfprintf_r+0x2be8>
   148dc:	00412583          	lw	a1,4(sp)
   148e0:	0b410613          	addi	a2,sp,180
   148e4:	00090513          	addi	a0,s2,0
   148e8:	540000ef          	jal	ra,14e28 <__sprint_r>
   148ec:	00050463          	beq	a0,zero,148f4 <_vfprintf_r+0x2c28>
   148f0:	fb4fe06f          	jal	zero,130a4 <_vfprintf_r+0x13d8>
   148f4:	0bc12603          	lw	a2,188(sp)
   148f8:	0b812703          	lw	a4,184(sp)
   148fc:	00098b13          	addi	s6,s3,0
   14900:	fb5ff06f          	jal	zero,148b4 <_vfprintf_r+0x2be8>
   14904:	000b8693          	addi	a3,s7,0
   14908:	d09fe06f          	jal	zero,13610 <_vfprintf_r+0x1944>
   1490c:	65080813          	addi	a6,a6,1616
   14910:	8d1fe06f          	jal	zero,131e0 <_vfprintf_r+0x1514>
   14914:	000b8e13          	addi	t3,s7,0
   14918:	dc0fe06f          	jal	zero,12ed8 <_vfprintf_r+0x120c>
   1491c:	000b8e13          	addi	t3,s7,0
   14920:	d31fe06f          	jal	zero,13650 <_vfprintf_r+0x1984>
   14924:	01812703          	lw	a4,24(sp)
   14928:	02412683          	lw	a3,36(sp)
   1492c:	06700893          	addi	a7,zero,103
   14930:	00d70cb3          	add	s9,a4,a3
   14934:	a26048e3          	blt	zero,t1,14364 <_vfprintf_r+0x2698>
   14938:	406c8f33          	sub	t5,s9,t1
   1493c:	001f0c93          	addi	s9,t5,1
   14940:	fffcc693          	xori	a3,s9,-1
   14944:	41f6d693          	srai	a3,a3,0x1f
   14948:	00dcfc33          	and	s8,s9,a3
   1494c:	a2dff06f          	jal	zero,14378 <_vfprintf_r+0x26ac>
   14950:	09314e83          	lbu	t4,147(sp)
   14954:	00000a93          	addi	s5,zero,0
   14958:	000e8463          	beq	t4,zero,14960 <_vfprintf_r+0x2c94>
   1495c:	968fe06f          	jal	zero,12ac4 <_vfprintf_r+0xdf8>
   14960:	87cfe06f          	jal	zero,129dc <_vfprintf_r+0xd10>
   14964:	00600a93          	addi	s5,zero,6
   14968:	800007b7          	lui	a5,0x80000
   1496c:	00fcccb3          	xor	s9,s9,a5
   14970:	02d00793          	addi	a5,zero,45
   14974:	02f12c23          	sw	a5,56(sp)
   14978:	919ff06f          	jal	zero,14290 <_vfprintf_r+0x25c4>
   1497c:	64080813          	addi	a6,a6,1600
   14980:	eacfe06f          	jal	zero,1302c <_vfprintf_r+0x1360>
   14984:	01c12783          	lw	a5,28(sp)
   14988:	00048813          	addi	a6,s1,0
   1498c:	01560633          	add	a2,a2,s5
   14990:	00170713          	addi	a4,a4,1
   14994:	0ac12e23          	sw	a2,188(sp)
   14998:	0ae12c23          	sw	a4,184(sp)
   1499c:	010b2023          	sw	a6,0(s6)
   149a0:	015b2223          	sw	s5,4(s6)
   149a4:	00700593          	addi	a1,zero,7
   149a8:	e0e5dce3          	bge	a1,a4,147c0 <_vfprintf_r+0x2af4>
   149ac:	00412583          	lw	a1,4(sp)
   149b0:	0b410613          	addi	a2,sp,180
   149b4:	00090513          	addi	a0,s2,0
   149b8:	00f12e23          	sw	a5,28(sp)
   149bc:	46c000ef          	jal	ra,14e28 <__sprint_r>
   149c0:	00050463          	beq	a0,zero,149c8 <_vfprintf_r+0x2cfc>
   149c4:	ee0fe06f          	jal	zero,130a4 <_vfprintf_r+0x13d8>
   149c8:	0bc12603          	lw	a2,188(sp)
   149cc:	0b812703          	lw	a4,184(sp)
   149d0:	01c12783          	lw	a5,28(sp)
   149d4:	00098b13          	addi	s6,s3,0
   149d8:	8b4ff06f          	jal	zero,13a8c <_vfprintf_r+0x1dc0>
   149dc:	000a8c93          	addi	s9,s5,0
   149e0:	000a8c13          	addi	s8,s5,0
   149e4:	02012023          	sw	zero,32(sp)
   149e8:	00000a93          	addi	s5,zero,0
   149ec:	00012e23          	sw	zero,28(sp)
   149f0:	00000313          	addi	t1,zero,0
   149f4:	d08fd06f          	jal	zero,11efc <_vfprintf_r+0x230>
   149f8:	01c12703          	lw	a4,28(sp)
   149fc:	00177713          	andi	a4,a4,1
   14a00:	be0700e3          	beq	a4,zero,145e0 <_vfprintf_r+0x2914>
   14a04:	bd5ff06f          	jal	zero,145d8 <_vfprintf_r+0x290c>
   14a08:	000217b7          	lui	a5,0x21
   14a0c:	bd078793          	addi	a5,a5,-1072 # 20bd0 <__clzsi2+0x94>
   14a10:	b54ff06f          	jal	zero,13d64 <_vfprintf_r+0x2098>
   14a14:	00012823          	sw	zero,16(sp)
   14a18:	11c10793          	addi	a5,sp,284
   14a1c:	80000537          	lui	a0,0x80000
   14a20:	00a74733          	xor	a4,a4,a0
   14a24:	02d00513          	addi	a0,zero,45
   14a28:	02a12c23          	sw	a0,56(sp)
   14a2c:	f5cfd06f          	jal	zero,12188 <_vfprintf_r+0x4bc>
   14a30:	000217b7          	lui	a5,0x21
   14a34:	bd878793          	addi	a5,a5,-1064 # 20bd8 <__clzsi2+0x9c>
   14a38:	f00ff06f          	jal	zero,14138 <_vfprintf_r+0x246c>
   14a3c:	00412483          	lw	s1,4(sp)
   14a40:	e78fe06f          	jal	zero,130b8 <_vfprintf_r+0x13ec>
   14a44:	000217b7          	lui	a5,0x21
   14a48:	bd878793          	addi	a5,a5,-1064 # 20bd8 <__clzsi2+0x9c>
   14a4c:	b18ff06f          	jal	zero,13d64 <_vfprintf_r+0x2098>
   14a50:	06700893          	addi	a7,zero,103
   14a54:	03012703          	lw	a4,48(sp)
   14a58:	00074703          	lbu	a4,0(a4)
   14a5c:	f0170693          	addi	a3,a4,-255
   14a60:	2a068663          	beq	a3,zero,14d0c <_vfprintf_r+0x3040>
   14a64:	2a675463          	bge	a4,t1,14d0c <_vfprintf_r+0x3040>
   14a68:	03012683          	lw	a3,48(sp)
   14a6c:	00000513          	addi	a0,zero,0
   14a70:	00000593          	addi	a1,zero,0
   14a74:	0180006f          	jal	zero,14a8c <_vfprintf_r+0x2dc0>
   14a78:	00158593          	addi	a1,a1,1
   14a7c:	00168693          	addi	a3,a3,1
   14a80:	f0170613          	addi	a2,a4,-255
   14a84:	02060063          	beq	a2,zero,14aa4 <_vfprintf_r+0x2dd8>
   14a88:	00675e63          	bge	a4,t1,14aa4 <_vfprintf_r+0x2dd8>
   14a8c:	40e30333          	sub	t1,t1,a4
   14a90:	0016c703          	lbu	a4,1(a3)
   14a94:	fe0712e3          	bne	a4,zero,14a78 <_vfprintf_r+0x2dac>
   14a98:	0006c703          	lbu	a4,0(a3)
   14a9c:	00150513          	addi	a0,a0,1 # 80000001 <__BSS_END__+0x7ff4b5ad>
   14aa0:	fe1ff06f          	jal	zero,14a80 <_vfprintf_r+0x2db4>
   14aa4:	02d12823          	sw	a3,48(sp)
   14aa8:	04412683          	lw	a3,68(sp)
   14aac:	00b50733          	add	a4,a0,a1
   14ab0:	00b12e23          	sw	a1,28(sp)
   14ab4:	02d70733          	mul	a4,a4,a3
   14ab8:	02a12023          	sw	a0,32(sp)
   14abc:	00ec8cb3          	add	s9,s9,a4
   14ac0:	03812703          	lw	a4,56(sp)
   14ac4:	fffcc693          	xori	a3,s9,-1
   14ac8:	41f6d693          	srai	a3,a3,0x1f
   14acc:	00dcfc33          	and	s8,s9,a3
   14ad0:	14070e63          	beq	a4,zero,14c2c <_vfprintf_r+0x2f60>
   14ad4:	02d00713          	addi	a4,zero,45
   14ad8:	01012b83          	lw	s7,16(sp)
   14adc:	08e109a3          	sb	a4,147(sp)
   14ae0:	001c0c13          	addi	s8,s8,1
   14ae4:	00012823          	sw	zero,16(sp)
   14ae8:	00000a93          	addi	s5,zero,0
   14aec:	c10fd06f          	jal	zero,11efc <_vfprintf_r+0x230>
   14af0:	fffa8c93          	addi	s9,s5,-1
   14af4:	02012b03          	lw	s6,32(sp)
   14af8:	02c12883          	lw	a7,44(sp)
   14afc:	03c12783          	lw	a5,60(sp)
   14b00:	04012d03          	lw	s10,64(sp)
   14b04:	04812903          	lw	s2,72(sp)
   14b08:	015c0ab3          	add	s5,s8,s5
   14b0c:	000c0713          	addi	a4,s8,0
   14b10:	03000613          	addi	a2,zero,48
   14b14:	000cd463          	bge	s9,zero,14b1c <_vfprintf_r+0x2e50>
   14b18:	971fd06f          	jal	zero,12488 <_vfprintf_r+0x7bc>
   14b1c:	00170713          	addi	a4,a4,1
   14b20:	fec70fa3          	sb	a2,-1(a4)
   14b24:	feea9ce3          	bne	s5,a4,14b1c <_vfprintf_r+0x2e50>
   14b28:	019c0733          	add	a4,s8,s9
   14b2c:	00170c13          	addi	s8,a4,1
   14b30:	959fd06f          	jal	zero,12488 <_vfprintf_r+0x7bc>
   14b34:	0a012703          	lw	a4,160(sp)
   14b38:	01812883          	lw	a7,24(sp)
   14b3c:	9b9760e3          	bltu	a4,s9,144dc <_vfprintf_r+0x2810>
   14b40:	40f70733          	sub	a4,a4,a5
   14b44:	00e12c23          	sw	a4,24(sp)
   14b48:	9c1ff06f          	jal	zero,14508 <_vfprintf_r+0x283c>
   14b4c:	08010513          	addi	a0,sp,128
   14b50:	07010593          	addi	a1,sp,112
   14b54:	00f12e23          	sw	a5,28(sp)
   14b58:	01112c23          	sw	a7,24(sp)
   14b5c:	09d12023          	sw	t4,128(sp)
   14b60:	09e12223          	sw	t5,132(sp)
   14b64:	08512423          	sw	t0,136(sp)
   14b68:	09912623          	sw	s9,140(sp)
   14b6c:	06012823          	sw	zero,112(sp)
   14b70:	06012a23          	sw	zero,116(sp)
   14b74:	06012c23          	sw	zero,120(sp)
   14b78:	06012e23          	sw	zero,124(sp)
   14b7c:	54c090ef          	jal	ra,1e0c8 <__eqtf2>
   14b80:	01812883          	lw	a7,24(sp)
   14b84:	01c12783          	lw	a5,28(sp)
   14b88:	0c051a63          	bne	a0,zero,14c5c <_vfprintf_r+0x2f90>
   14b8c:	09812303          	lw	t1,152(sp)
   14b90:	00648cb3          	add	s9,s1,t1
   14b94:	fb0ff06f          	jal	zero,14344 <_vfprintf_r+0x2678>
   14b98:	02412703          	lw	a4,36(sp)
   14b9c:	006a8f33          	add	t5,s5,t1
   14ba0:	06600893          	addi	a7,zero,102
   14ba4:	00ef0cb3          	add	s9,t5,a4
   14ba8:	fbcff06f          	jal	zero,14364 <_vfprintf_r+0x2698>
   14bac:	02d00713          	addi	a4,zero,45
   14bb0:	0ae102a3          	sb	a4,165(sp)
   14bb4:	ff800693          	addi	a3,zero,-8
   14bb8:	00100713          	addi	a4,zero,1
   14bbc:	40670733          	sub	a4,a4,t1
   14bc0:	96d348e3          	blt	t1,a3,14530 <_vfprintf_r+0x2864>
   14bc4:	03000693          	addi	a3,zero,48
   14bc8:	0ad10323          	sb	a3,166(sp)
   14bcc:	01712e23          	sw	s7,28(sp)
   14bd0:	00012823          	sw	zero,16(sp)
   14bd4:	0a710693          	addi	a3,sp,167
   14bd8:	8edfd06f          	jal	zero,124c4 <_vfprintf_r+0x7f8>
   14bdc:	02d00713          	addi	a4,zero,45
   14be0:	0ae102a3          	sb	a4,165(sp)
   14be4:	ff800693          	addi	a3,zero,-8
   14be8:	00100713          	addi	a4,zero,1
   14bec:	40c70733          	sub	a4,a4,a2
   14bf0:	94d644e3          	blt	a2,a3,14538 <_vfprintf_r+0x286c>
   14bf4:	8cdfd06f          	jal	zero,124c0 <_vfprintf_r+0x7f4>
   14bf8:	000216b7          	lui	a3,0x21
   14bfc:	be068713          	addi	a4,a3,-1056 # 20be0 <__clzsi2+0xa4>
   14c00:	00e12c23          	sw	a4,24(sp)
   14c04:	e6cfd06f          	jal	zero,12270 <_vfprintf_r+0x5a4>
   14c08:	00c12783          	lw	a5,12(sp)
   14c0c:	0007aa83          	lw	s5,0(a5)
   14c10:	00478793          	addi	a5,a5,4
   14c14:	000ad463          	bge	s5,zero,14c1c <_vfprintf_r+0x2f50>
   14c18:	fff00a93          	addi	s5,zero,-1
   14c1c:	001d4883          	lbu	a7,1(s10)
   14c20:	00f12623          	sw	a5,12(sp)
   14c24:	00068d13          	addi	s10,a3,0
   14c28:	a44fd06f          	jal	zero,11e6c <_vfprintf_r+0x1a0>
   14c2c:	09314703          	lbu	a4,147(sp)
   14c30:	08070263          	beq	a4,zero,14cb4 <_vfprintf_r+0x2fe8>
   14c34:	01012b83          	lw	s7,16(sp)
   14c38:	001c0c13          	addi	s8,s8,1
   14c3c:	00012823          	sw	zero,16(sp)
   14c40:	00000a93          	addi	s5,zero,0
   14c44:	ab8fd06f          	jal	zero,11efc <_vfprintf_r+0x230>
   14c48:	02071e63          	bne	a4,zero,14c84 <_vfprintf_r+0x2fb8>
   14c4c:	00100c13          	addi	s8,zero,1
   14c50:	000c0c93          	addi	s9,s8,0
   14c54:	06600893          	addi	a7,zero,102
   14c58:	f20ff06f          	jal	zero,14378 <_vfprintf_r+0x26ac>
   14c5c:	00100f93          	addi	t6,zero,1
   14c60:	0a012703          	lw	a4,160(sp)
   14c64:	415f8fb3          	sub	t6,t6,s5
   14c68:	09f12c23          	sw	t6,152(sp)
   14c6c:	00178c93          	addi	s9,a5,1
   14c70:	879766e3          	bltu	a4,s9,144dc <_vfprintf_r+0x2810>
   14c74:	40f70733          	sub	a4,a4,a5
   14c78:	000f8313          	addi	t1,t6,0
   14c7c:	00e12c23          	sw	a4,24(sp)
   14c80:	eccff06f          	jal	zero,1434c <_vfprintf_r+0x2680>
   14c84:	02412703          	lw	a4,36(sp)
   14c88:	06600893          	addi	a7,zero,102
   14c8c:	00170f13          	addi	t5,a4,1
   14c90:	015f0cb3          	add	s9,t5,s5
   14c94:	fffcc693          	xori	a3,s9,-1
   14c98:	41f6d693          	srai	a3,a3,0x1f
   14c9c:	00dcfc33          	and	s8,s9,a3
   14ca0:	ed8ff06f          	jal	zero,14378 <_vfprintf_r+0x26ac>
   14ca4:	64080813          	addi	a6,a6,1600
   14ca8:	fa9fe06f          	jal	zero,13c50 <_vfprintf_r+0x1f84>
   14cac:	09812303          	lw	t1,152(sp)
   14cb0:	985ff06f          	jal	zero,14634 <_vfprintf_r+0x2968>
   14cb4:	01012b83          	lw	s7,16(sp)
   14cb8:	00000a93          	addi	s5,zero,0
   14cbc:	00012823          	sw	zero,16(sp)
   14cc0:	a3cfd06f          	jal	zero,11efc <_vfprintf_r+0x230>
   14cc4:	00200713          	addi	a4,zero,2
   14cc8:	02e12623          	sw	a4,44(sp)
   14ccc:	8f9ff06f          	jal	zero,145c4 <_vfprintf_r+0x28f8>
   14cd0:	64080813          	addi	a6,a6,1600
   14cd4:	ad8ff06f          	jal	zero,13fac <_vfprintf_r+0x22e0>
   14cd8:	02012023          	sw	zero,32(sp)
   14cdc:	00012e23          	sw	zero,28(sp)
   14ce0:	a1cfd06f          	jal	zero,11efc <_vfprintf_r+0x230>
   14ce4:	64080813          	addi	a6,a6,1600
   14ce8:	ca5ff06f          	jal	zero,1498c <_vfprintf_r+0x2cc0>
   14cec:	01812703          	lw	a4,24(sp)
   14cf0:	00e78733          	add	a4,a5,a4
   14cf4:	f08ff06f          	jal	zero,143fc <_vfprintf_r+0x2730>
   14cf8:	00412483          	lw	s1,4(sp)
   14cfc:	00c4d783          	lhu	a5,12(s1)
   14d00:	0407e793          	ori	a5,a5,64
   14d04:	00f49623          	sh	a5,12(s1)
   14d08:	bb0fe06f          	jal	zero,130b8 <_vfprintf_r+0x13ec>
   14d0c:	00000713          	addi	a4,zero,0
   14d10:	02012023          	sw	zero,32(sp)
   14d14:	00012e23          	sw	zero,28(sp)
   14d18:	da5ff06f          	jal	zero,14abc <_vfprintf_r+0x2df0>
   14d1c:	00000a93          	addi	s5,zero,0
   14d20:	02012023          	sw	zero,32(sp)
   14d24:	00012e23          	sw	zero,28(sp)
   14d28:	00012823          	sw	zero,16(sp)
   14d2c:	00300c93          	addi	s9,zero,3
   14d30:	00400c13          	addi	s8,zero,4
   14d34:	9c8fd06f          	jal	zero,11efc <_vfprintf_r+0x230>
   14d38:	40f70733          	sub	a4,a4,a5
   14d3c:	09812303          	lw	t1,152(sp)
   14d40:	00e12c23          	sw	a4,24(sp)
   14d44:	8f1ff06f          	jal	zero,14634 <_vfprintf_r+0x2968>
   14d48:	09812303          	lw	t1,152(sp)
   14d4c:	fc4ff06f          	jal	zero,14510 <_vfprintf_r+0x2844>

00014d50 <vfprintf>:
   14d50:	00050713          	addi	a4,a0,0
   14d54:	f0c1a503          	lw	a0,-244(gp) # b471c <_impure_ptr>
   14d58:	00060693          	addi	a3,a2,0
   14d5c:	00058613          	addi	a2,a1,0
   14d60:	00070593          	addi	a1,a4,0
   14d64:	f69fc06f          	jal	zero,11ccc <_vfprintf_r>

00014d68 <__sbprintf>:
   14d68:	00c5d783          	lhu	a5,12(a1)
   14d6c:	0645ae83          	lw	t4,100(a1)
   14d70:	00e5de03          	lhu	t3,14(a1)
   14d74:	01c5a303          	lw	t1,28(a1)
   14d78:	0245a883          	lw	a7,36(a1)
   14d7c:	b7010113          	addi	sp,sp,-1168
   14d80:	ffd7f793          	andi	a5,a5,-3
   14d84:	08010813          	addi	a6,sp,128
   14d88:	40000713          	addi	a4,zero,1024
   14d8c:	48812423          	sw	s0,1160(sp)
   14d90:	00058413          	addi	s0,a1,0
   14d94:	01810593          	addi	a1,sp,24
   14d98:	48912223          	sw	s1,1156(sp)
   14d9c:	02f11223          	sh	a5,36(sp)
   14da0:	48112623          	sw	ra,1164(sp)
   14da4:	02012823          	sw	zero,48(sp)
   14da8:	07d12e23          	sw	t4,124(sp)
   14dac:	03c11323          	sh	t3,38(sp)
   14db0:	02612a23          	sw	t1,52(sp)
   14db4:	03112e23          	sw	a7,60(sp)
   14db8:	01012c23          	sw	a6,24(sp)
   14dbc:	03012423          	sw	a6,40(sp)
   14dc0:	02e12023          	sw	a4,32(sp)
   14dc4:	02e12623          	sw	a4,44(sp)
   14dc8:	00050493          	addi	s1,a0,0
   14dcc:	f01fc0ef          	jal	ra,11ccc <_vfprintf_r>
   14dd0:	00050793          	addi	a5,a0,0
   14dd4:	02055a63          	bge	a0,zero,14e08 <__sbprintf+0xa0>
   14dd8:	02415703          	lhu	a4,36(sp)
   14ddc:	04077713          	andi	a4,a4,64
   14de0:	00070863          	beq	a4,zero,14df0 <__sbprintf+0x88>
   14de4:	00c45703          	lhu	a4,12(s0)
   14de8:	04076713          	ori	a4,a4,64
   14dec:	00e41623          	sh	a4,12(s0)
   14df0:	48c12083          	lw	ra,1164(sp)
   14df4:	48812403          	lw	s0,1160(sp)
   14df8:	48412483          	lw	s1,1156(sp)
   14dfc:	00078513          	addi	a0,a5,0
   14e00:	49010113          	addi	sp,sp,1168
   14e04:	00008067          	jalr	zero,0(ra)
   14e08:	00a12623          	sw	a0,12(sp)
   14e0c:	01810593          	addi	a1,sp,24
   14e10:	00048513          	addi	a0,s1,0
   14e14:	3c0000ef          	jal	ra,151d4 <_fflush_r>
   14e18:	00c12783          	lw	a5,12(sp)
   14e1c:	fa050ee3          	beq	a0,zero,14dd8 <__sbprintf+0x70>
   14e20:	fff00793          	addi	a5,zero,-1
   14e24:	fb5ff06f          	jal	zero,14dd8 <__sbprintf+0x70>

00014e28 <__sprint_r>:
   14e28:	00862703          	lw	a4,8(a2)
   14e2c:	00071863          	bne	a4,zero,14e3c <__sprint_r+0x14>
   14e30:	00000513          	addi	a0,zero,0
   14e34:	00062223          	sw	zero,4(a2)
   14e38:	00008067          	jalr	zero,0(ra)
   14e3c:	fe010113          	addi	sp,sp,-32
   14e40:	00112e23          	sw	ra,28(sp)
   14e44:	00c12623          	sw	a2,12(sp)
   14e48:	480000ef          	jal	ra,152c8 <__sfvwrite_r>
   14e4c:	00c12783          	lw	a5,12(sp)
   14e50:	01c12083          	lw	ra,28(sp)
   14e54:	0007a423          	sw	zero,8(a5)
   14e58:	0007a223          	sw	zero,4(a5)
   14e5c:	02010113          	addi	sp,sp,32
   14e60:	00008067          	jalr	zero,0(ra)

00014e64 <_fclose_r>:
   14e64:	ff010113          	addi	sp,sp,-16
   14e68:	00112623          	sw	ra,12(sp)
   14e6c:	01212023          	sw	s2,0(sp)
   14e70:	02058863          	beq	a1,zero,14ea0 <_fclose_r+0x3c>
   14e74:	00812423          	sw	s0,8(sp)
   14e78:	00912223          	sw	s1,4(sp)
   14e7c:	00058413          	addi	s0,a1,0
   14e80:	00050493          	addi	s1,a0,0
   14e84:	00050663          	beq	a0,zero,14e90 <_fclose_r+0x2c>
   14e88:	03452783          	lw	a5,52(a0)
   14e8c:	0c078c63          	beq	a5,zero,14f64 <_fclose_r+0x100>
   14e90:	00c41783          	lh	a5,12(s0)
   14e94:	02079263          	bne	a5,zero,14eb8 <_fclose_r+0x54>
   14e98:	00812403          	lw	s0,8(sp)
   14e9c:	00412483          	lw	s1,4(sp)
   14ea0:	00c12083          	lw	ra,12(sp)
   14ea4:	00000913          	addi	s2,zero,0
   14ea8:	00090513          	addi	a0,s2,0
   14eac:	00012903          	lw	s2,0(sp)
   14eb0:	01010113          	addi	sp,sp,16
   14eb4:	00008067          	jalr	zero,0(ra)
   14eb8:	00040593          	addi	a1,s0,0
   14ebc:	00048513          	addi	a0,s1,0
   14ec0:	0b8000ef          	jal	ra,14f78 <__sflush_r>
   14ec4:	02c42783          	lw	a5,44(s0)
   14ec8:	00050913          	addi	s2,a0,0
   14ecc:	00078a63          	beq	a5,zero,14ee0 <_fclose_r+0x7c>
   14ed0:	01c42583          	lw	a1,28(s0)
   14ed4:	00048513          	addi	a0,s1,0
   14ed8:	000780e7          	jalr	ra,0(a5)
   14edc:	06054463          	blt	a0,zero,14f44 <_fclose_r+0xe0>
   14ee0:	00c45783          	lhu	a5,12(s0)
   14ee4:	0807f793          	andi	a5,a5,128
   14ee8:	06079663          	bne	a5,zero,14f54 <_fclose_r+0xf0>
   14eec:	03042583          	lw	a1,48(s0)
   14ef0:	00058c63          	beq	a1,zero,14f08 <_fclose_r+0xa4>
   14ef4:	04040793          	addi	a5,s0,64
   14ef8:	00f58663          	beq	a1,a5,14f04 <_fclose_r+0xa0>
   14efc:	00048513          	addi	a0,s1,0
   14f00:	a64fc0ef          	jal	ra,11164 <_free_r>
   14f04:	02042823          	sw	zero,48(s0)
   14f08:	04442583          	lw	a1,68(s0)
   14f0c:	00058863          	beq	a1,zero,14f1c <_fclose_r+0xb8>
   14f10:	00048513          	addi	a0,s1,0
   14f14:	a50fc0ef          	jal	ra,11164 <_free_r>
   14f18:	04042223          	sw	zero,68(s0)
   14f1c:	91dfb0ef          	jal	ra,10838 <__sfp_lock_acquire>
   14f20:	00041623          	sh	zero,12(s0)
   14f24:	919fb0ef          	jal	ra,1083c <__sfp_lock_release>
   14f28:	00c12083          	lw	ra,12(sp)
   14f2c:	00812403          	lw	s0,8(sp)
   14f30:	00412483          	lw	s1,4(sp)
   14f34:	00090513          	addi	a0,s2,0
   14f38:	00012903          	lw	s2,0(sp)
   14f3c:	01010113          	addi	sp,sp,16
   14f40:	00008067          	jalr	zero,0(ra)
   14f44:	00c45783          	lhu	a5,12(s0)
   14f48:	fff00913          	addi	s2,zero,-1
   14f4c:	0807f793          	andi	a5,a5,128
   14f50:	f8078ee3          	beq	a5,zero,14eec <_fclose_r+0x88>
   14f54:	01042583          	lw	a1,16(s0)
   14f58:	00048513          	addi	a0,s1,0
   14f5c:	a08fc0ef          	jal	ra,11164 <_free_r>
   14f60:	f8dff06f          	jal	zero,14eec <_fclose_r+0x88>
   14f64:	8b1fb0ef          	jal	ra,10814 <__sinit>
   14f68:	f29ff06f          	jal	zero,14e90 <_fclose_r+0x2c>

00014f6c <fclose>:
   14f6c:	00050593          	addi	a1,a0,0
   14f70:	f0c1a503          	lw	a0,-244(gp) # b471c <_impure_ptr>
   14f74:	ef1ff06f          	jal	zero,14e64 <_fclose_r>

00014f78 <__sflush_r>:
   14f78:	00c59703          	lh	a4,12(a1)
   14f7c:	fe010113          	addi	sp,sp,-32
   14f80:	00812c23          	sw	s0,24(sp)
   14f84:	01312623          	sw	s3,12(sp)
   14f88:	00112e23          	sw	ra,28(sp)
   14f8c:	00877793          	andi	a5,a4,8
   14f90:	00058413          	addi	s0,a1,0
   14f94:	00050993          	addi	s3,a0,0
   14f98:	12079263          	bne	a5,zero,150bc <__sflush_r+0x144>
   14f9c:	000017b7          	lui	a5,0x1
   14fa0:	80078793          	addi	a5,a5,-2048 # 800 <exit-0xf8b4>
   14fa4:	0045a683          	lw	a3,4(a1)
   14fa8:	00f767b3          	or	a5,a4,a5
   14fac:	00f59623          	sh	a5,12(a1)
   14fb0:	18d05c63          	bge	zero,a3,15148 <__sflush_r+0x1d0>
   14fb4:	02842803          	lw	a6,40(s0)
   14fb8:	0e080663          	beq	a6,zero,150a4 <__sflush_r+0x12c>
   14fbc:	00912a23          	sw	s1,20(sp)
   14fc0:	01371693          	slli	a3,a4,0x13
   14fc4:	0009a483          	lw	s1,0(s3)
   14fc8:	0009a023          	sw	zero,0(s3)
   14fcc:	1806ca63          	blt	a3,zero,15160 <__sflush_r+0x1e8>
   14fd0:	01c42583          	lw	a1,28(s0)
   14fd4:	00000613          	addi	a2,zero,0
   14fd8:	00100693          	addi	a3,zero,1
   14fdc:	00098513          	addi	a0,s3,0
   14fe0:	000800e7          	jalr	ra,0(a6)
   14fe4:	fff00793          	addi	a5,zero,-1
   14fe8:	00050613          	addi	a2,a0,0
   14fec:	1af50c63          	beq	a0,a5,151a4 <__sflush_r+0x22c>
   14ff0:	00c41783          	lh	a5,12(s0)
   14ff4:	02842803          	lw	a6,40(s0)
   14ff8:	0047f793          	andi	a5,a5,4
   14ffc:	00078e63          	beq	a5,zero,15018 <__sflush_r+0xa0>
   15000:	00442703          	lw	a4,4(s0)
   15004:	03042783          	lw	a5,48(s0)
   15008:	40e60633          	sub	a2,a2,a4
   1500c:	00078663          	beq	a5,zero,15018 <__sflush_r+0xa0>
   15010:	03c42783          	lw	a5,60(s0)
   15014:	40f60633          	sub	a2,a2,a5
   15018:	01c42583          	lw	a1,28(s0)
   1501c:	00000693          	addi	a3,zero,0
   15020:	00098513          	addi	a0,s3,0
   15024:	000800e7          	jalr	ra,0(a6)
   15028:	fff00713          	addi	a4,zero,-1
   1502c:	00c41783          	lh	a5,12(s0)
   15030:	12e51c63          	bne	a0,a4,15168 <__sflush_r+0x1f0>
   15034:	0009a683          	lw	a3,0(s3)
   15038:	01d00713          	addi	a4,zero,29
   1503c:	18d76263          	bltu	a4,a3,151c0 <__sflush_r+0x248>
   15040:	20400737          	lui	a4,0x20400
   15044:	00170713          	addi	a4,a4,1 # 20400001 <__BSS_END__+0x2034b5ad>
   15048:	00d75733          	srl	a4,a4,a3
   1504c:	00177713          	andi	a4,a4,1
   15050:	16070863          	beq	a4,zero,151c0 <__sflush_r+0x248>
   15054:	01042683          	lw	a3,16(s0)
   15058:	fffff737          	lui	a4,0xfffff
   1505c:	7ff70713          	addi	a4,a4,2047 # fffff7ff <__BSS_END__+0xfff4adab>
   15060:	00e7f733          	and	a4,a5,a4
   15064:	00e41623          	sh	a4,12(s0)
   15068:	00042223          	sw	zero,4(s0)
   1506c:	00d42023          	sw	a3,0(s0)
   15070:	01379713          	slli	a4,a5,0x13
   15074:	00075663          	bge	a4,zero,15080 <__sflush_r+0x108>
   15078:	0009a783          	lw	a5,0(s3)
   1507c:	10078863          	beq	a5,zero,1518c <__sflush_r+0x214>
   15080:	03042583          	lw	a1,48(s0)
   15084:	0099a023          	sw	s1,0(s3)
   15088:	10058a63          	beq	a1,zero,1519c <__sflush_r+0x224>
   1508c:	04040793          	addi	a5,s0,64
   15090:	00f58663          	beq	a1,a5,1509c <__sflush_r+0x124>
   15094:	00098513          	addi	a0,s3,0
   15098:	8ccfc0ef          	jal	ra,11164 <_free_r>
   1509c:	01412483          	lw	s1,20(sp)
   150a0:	02042823          	sw	zero,48(s0)
   150a4:	01c12083          	lw	ra,28(sp)
   150a8:	01812403          	lw	s0,24(sp)
   150ac:	00c12983          	lw	s3,12(sp)
   150b0:	00000513          	addi	a0,zero,0
   150b4:	02010113          	addi	sp,sp,32
   150b8:	00008067          	jalr	zero,0(ra)
   150bc:	01212823          	sw	s2,16(sp)
   150c0:	0105a903          	lw	s2,16(a1)
   150c4:	08090a63          	beq	s2,zero,15158 <__sflush_r+0x1e0>
   150c8:	00912a23          	sw	s1,20(sp)
   150cc:	0005a483          	lw	s1,0(a1)
   150d0:	00377713          	andi	a4,a4,3
   150d4:	0125a023          	sw	s2,0(a1)
   150d8:	412484b3          	sub	s1,s1,s2
   150dc:	00000793          	addi	a5,zero,0
   150e0:	00071463          	bne	a4,zero,150e8 <__sflush_r+0x170>
   150e4:	0145a783          	lw	a5,20(a1)
   150e8:	00f42423          	sw	a5,8(s0)
   150ec:	00904863          	blt	zero,s1,150fc <__sflush_r+0x184>
   150f0:	0640006f          	jal	zero,15154 <__sflush_r+0x1dc>
   150f4:	00a90933          	add	s2,s2,a0
   150f8:	04905e63          	bge	zero,s1,15154 <__sflush_r+0x1dc>
   150fc:	02442783          	lw	a5,36(s0)
   15100:	01c42583          	lw	a1,28(s0)
   15104:	00048693          	addi	a3,s1,0
   15108:	00090613          	addi	a2,s2,0
   1510c:	00098513          	addi	a0,s3,0
   15110:	000780e7          	jalr	ra,0(a5)
   15114:	40a484b3          	sub	s1,s1,a0
   15118:	fca04ee3          	blt	zero,a0,150f4 <__sflush_r+0x17c>
   1511c:	00c45783          	lhu	a5,12(s0)
   15120:	01012903          	lw	s2,16(sp)
   15124:	0407e793          	ori	a5,a5,64
   15128:	01c12083          	lw	ra,28(sp)
   1512c:	00f41623          	sh	a5,12(s0)
   15130:	01812403          	lw	s0,24(sp)
   15134:	01412483          	lw	s1,20(sp)
   15138:	00c12983          	lw	s3,12(sp)
   1513c:	fff00513          	addi	a0,zero,-1
   15140:	02010113          	addi	sp,sp,32
   15144:	00008067          	jalr	zero,0(ra)
   15148:	03c5a683          	lw	a3,60(a1)
   1514c:	e6d044e3          	blt	zero,a3,14fb4 <__sflush_r+0x3c>
   15150:	f55ff06f          	jal	zero,150a4 <__sflush_r+0x12c>
   15154:	01412483          	lw	s1,20(sp)
   15158:	01012903          	lw	s2,16(sp)
   1515c:	f49ff06f          	jal	zero,150a4 <__sflush_r+0x12c>
   15160:	05042603          	lw	a2,80(s0)
   15164:	e95ff06f          	jal	zero,14ff8 <__sflush_r+0x80>
   15168:	01042683          	lw	a3,16(s0)
   1516c:	fffff737          	lui	a4,0xfffff
   15170:	7ff70713          	addi	a4,a4,2047 # fffff7ff <__BSS_END__+0xfff4adab>
   15174:	00e7f733          	and	a4,a5,a4
   15178:	00e41623          	sh	a4,12(s0)
   1517c:	00042223          	sw	zero,4(s0)
   15180:	00d42023          	sw	a3,0(s0)
   15184:	01379713          	slli	a4,a5,0x13
   15188:	ee075ce3          	bge	a4,zero,15080 <__sflush_r+0x108>
   1518c:	03042583          	lw	a1,48(s0)
   15190:	04a42823          	sw	a0,80(s0)
   15194:	0099a023          	sw	s1,0(s3)
   15198:	ee059ae3          	bne	a1,zero,1508c <__sflush_r+0x114>
   1519c:	01412483          	lw	s1,20(sp)
   151a0:	f05ff06f          	jal	zero,150a4 <__sflush_r+0x12c>
   151a4:	0009a783          	lw	a5,0(s3)
   151a8:	e40784e3          	beq	a5,zero,14ff0 <__sflush_r+0x78>
   151ac:	fe378713          	addi	a4,a5,-29
   151b0:	00070c63          	beq	a4,zero,151c8 <__sflush_r+0x250>
   151b4:	fea78793          	addi	a5,a5,-22
   151b8:	00078863          	beq	a5,zero,151c8 <__sflush_r+0x250>
   151bc:	00c45783          	lhu	a5,12(s0)
   151c0:	0407e793          	ori	a5,a5,64
   151c4:	f65ff06f          	jal	zero,15128 <__sflush_r+0x1b0>
   151c8:	0099a023          	sw	s1,0(s3)
   151cc:	01412483          	lw	s1,20(sp)
   151d0:	ed5ff06f          	jal	zero,150a4 <__sflush_r+0x12c>

000151d4 <_fflush_r>:
   151d4:	00050793          	addi	a5,a0,0
   151d8:	00050663          	beq	a0,zero,151e4 <_fflush_r+0x10>
   151dc:	03452703          	lw	a4,52(a0)
   151e0:	00070e63          	beq	a4,zero,151fc <_fflush_r+0x28>
   151e4:	00c59703          	lh	a4,12(a1)
   151e8:	00071663          	bne	a4,zero,151f4 <_fflush_r+0x20>
   151ec:	00000513          	addi	a0,zero,0
   151f0:	00008067          	jalr	zero,0(ra)
   151f4:	00078513          	addi	a0,a5,0
   151f8:	d81ff06f          	jal	zero,14f78 <__sflush_r>
