
./basicmath_small_O3:     file format elf32-littleriscv


Disassembly of section .text:

000100b4 <exit>:
   100b4:	ff010113          	addi	sp,sp,-16
   100b8:	00000593          	addi	a1,zero,0
   100bc:	00812423          	sw	s0,8(sp)
   100c0:	00112623          	sw	ra,12(sp)
   100c4:	00050413          	addi	s0,a0,0
   100c8:	69d080ef          	jal	ra,18f64 <__call_exitprocs>
   100cc:	e781a783          	lw	a5,-392(gp) # 1bc98 <__stdio_exit_handler>
   100d0:	00078463          	beq	a5,zero,100d8 <exit+0x24>
   100d4:	000780e7          	jalr	ra,0(a5)
   100d8:	00040513          	addi	a0,s0,0
   100dc:	24c0a0ef          	jal	ra,1a328 <_exit>

000100e0 <main>:
   100e0:	f4010113          	addi	sp,sp,-192
   100e4:	0b312623          	sw	s3,172(sp)
   100e8:	e101a703          	lw	a4,-496(gp) # 1bc30 <__SDATA_BEGIN__+0xd8>
   100ec:	e181a603          	lw	a2,-488(gp) # 1bc38 <__SDATA_BEGIN__+0xe0>
   100f0:	db81a503          	lw	a0,-584(gp) # 1bbd8 <__SDATA_BEGIN__+0x80>
   100f4:	e081a803          	lw	a6,-504(gp) # 1bc28 <__SDATA_BEGIN__+0xd0>
   100f8:	e0c1a883          	lw	a7,-500(gp) # 1bc2c <__SDATA_BEGIN__+0xd4>
   100fc:	e141a783          	lw	a5,-492(gp) # 1bc34 <__SDATA_BEGIN__+0xdc>
   10100:	e1c1a683          	lw	a3,-484(gp) # 1bc3c <__SDATA_BEGIN__+0xe4>
   10104:	dbc1a583          	lw	a1,-580(gp) # 1bbdc <__SDATA_BEGIN__+0x84>
   10108:	09912a23          	sw	s9,148(sp)
   1010c:	09a12823          	sw	s10,144(sp)
   10110:	06810c93          	addi	s9,sp,104
   10114:	06410d13          	addi	s10,sp,100
   10118:	01912223          	sw	s9,4(sp)
   1011c:	01a12023          	sw	s10,0(sp)
   10120:	0a812c23          	sw	s0,184(sp)
   10124:	0a912a23          	sw	s1,180(sp)
   10128:	0b212823          	sw	s2,176(sp)
   1012c:	0a112e23          	sw	ra,188(sp)
   10130:	0b412423          	sw	s4,168(sp)
   10134:	0b512223          	sw	s5,164(sp)
   10138:	0b612023          	sw	s6,160(sp)
   1013c:	09712e23          	sw	s7,156(sp)
   10140:	09812c23          	sw	s8,152(sp)
   10144:	09b12623          	sw	s11,140(sp)
   10148:	1bd000ef          	jal	ra,10b04 <SolveCubic>
   1014c:	06412903          	lw	s2,100(sp)
   10150:	00000493          	addi	s1,zero,0
   10154:	00000413          	addi	s0,zero,0
   10158:	05205c63          	bge	zero,s2,101b0 <main+0xd0>
   1015c:	06812503          	lw	a0,104(sp)
   10160:	06c12583          	lw	a1,108(sp)
   10164:	00048613          	addi	a2,s1,0
   10168:	00040693          	addi	a3,s0,0
   1016c:	47d010ef          	jal	ra,11de8 <__adddf3>
   10170:	00100793          	addi	a5,zero,1
   10174:	00050493          	addi	s1,a0,0
   10178:	00058413          	addi	s0,a1,0
   1017c:	02f90a63          	beq	s2,a5,101b0 <main+0xd0>
   10180:	07012603          	lw	a2,112(sp)
   10184:	07412683          	lw	a3,116(sp)
   10188:	461010ef          	jal	ra,11de8 <__adddf3>
   1018c:	00200793          	addi	a5,zero,2
   10190:	00050493          	addi	s1,a0,0
   10194:	00058413          	addi	s0,a1,0
   10198:	00f90c63          	beq	s2,a5,101b0 <main+0xd0>
   1019c:	07812603          	lw	a2,120(sp)
   101a0:	07c12683          	lw	a3,124(sp)
   101a4:	445010ef          	jal	ra,11de8 <__adddf3>
   101a8:	00050493          	addi	s1,a0,0
   101ac:	00058413          	addi	s0,a1,0
   101b0:	e201a703          	lw	a4,-480(gp) # 1bc40 <__SDATA_BEGIN__+0xe8>
   101b4:	e281a603          	lw	a2,-472(gp) # 1bc48 <__SDATA_BEGIN__+0xf0>
   101b8:	db81a503          	lw	a0,-584(gp) # 1bbd8 <__SDATA_BEGIN__+0x80>
   101bc:	e241a783          	lw	a5,-476(gp) # 1bc44 <__SDATA_BEGIN__+0xec>
   101c0:	e2c1a683          	lw	a3,-468(gp) # 1bc4c <__SDATA_BEGIN__+0xf4>
   101c4:	e081a803          	lw	a6,-504(gp) # 1bc28 <__SDATA_BEGIN__+0xd0>
   101c8:	e0c1a883          	lw	a7,-500(gp) # 1bc2c <__SDATA_BEGIN__+0xd4>
   101cc:	dbc1a583          	lw	a1,-580(gp) # 1bbdc <__SDATA_BEGIN__+0x84>
   101d0:	01912223          	sw	s9,4(sp)
   101d4:	01a12023          	sw	s10,0(sp)
   101d8:	12d000ef          	jal	ra,10b04 <SolveCubic>
   101dc:	06412903          	lw	s2,100(sp)
   101e0:	05205c63          	bge	zero,s2,10238 <main+0x158>
   101e4:	06812603          	lw	a2,104(sp)
   101e8:	06c12683          	lw	a3,108(sp)
   101ec:	00048513          	addi	a0,s1,0
   101f0:	00040593          	addi	a1,s0,0
   101f4:	3f5010ef          	jal	ra,11de8 <__adddf3>
   101f8:	00100793          	addi	a5,zero,1
   101fc:	00050493          	addi	s1,a0,0
   10200:	00058413          	addi	s0,a1,0
   10204:	02f90a63          	beq	s2,a5,10238 <main+0x158>
   10208:	07012603          	lw	a2,112(sp)
   1020c:	07412683          	lw	a3,116(sp)
   10210:	3d9010ef          	jal	ra,11de8 <__adddf3>
   10214:	00200793          	addi	a5,zero,2
   10218:	00050493          	addi	s1,a0,0
   1021c:	00058413          	addi	s0,a1,0
   10220:	00f90c63          	beq	s2,a5,10238 <main+0x158>
   10224:	07812603          	lw	a2,120(sp)
   10228:	07c12683          	lw	a3,124(sp)
   1022c:	3bd010ef          	jal	ra,11de8 <__adddf3>
   10230:	00050493          	addi	s1,a0,0
   10234:	00058413          	addi	s0,a1,0
   10238:	e301a803          	lw	a6,-464(gp) # 1bc50 <__SDATA_BEGIN__+0xf8>
   1023c:	e341a883          	lw	a7,-460(gp) # 1bc54 <__SDATA_BEGIN__+0xfc>
   10240:	e401a603          	lw	a2,-448(gp) # 1bc60 <__SDATA_BEGIN__+0x108>
   10244:	e381a703          	lw	a4,-456(gp) # 1bc58 <__SDATA_BEGIN__+0x100>
   10248:	db81a503          	lw	a0,-584(gp) # 1bbd8 <__SDATA_BEGIN__+0x80>
   1024c:	e3c1a783          	lw	a5,-452(gp) # 1bc5c <__SDATA_BEGIN__+0x104>
   10250:	e441a683          	lw	a3,-444(gp) # 1bc64 <__SDATA_BEGIN__+0x10c>
   10254:	dbc1a583          	lw	a1,-580(gp) # 1bbdc <__SDATA_BEGIN__+0x84>
   10258:	01912223          	sw	s9,4(sp)
   1025c:	01a12023          	sw	s10,0(sp)
   10260:	0a5000ef          	jal	ra,10b04 <SolveCubic>
   10264:	06412903          	lw	s2,100(sp)
   10268:	05205c63          	bge	zero,s2,102c0 <main+0x1e0>
   1026c:	06812603          	lw	a2,104(sp)
   10270:	06c12683          	lw	a3,108(sp)
   10274:	00048513          	addi	a0,s1,0
   10278:	00040593          	addi	a1,s0,0
   1027c:	36d010ef          	jal	ra,11de8 <__adddf3>
   10280:	00100793          	addi	a5,zero,1
   10284:	00050493          	addi	s1,a0,0
   10288:	00058413          	addi	s0,a1,0
   1028c:	02f90a63          	beq	s2,a5,102c0 <main+0x1e0>
   10290:	07012603          	lw	a2,112(sp)
   10294:	07412683          	lw	a3,116(sp)
   10298:	351010ef          	jal	ra,11de8 <__adddf3>
   1029c:	00200793          	addi	a5,zero,2
   102a0:	00050493          	addi	s1,a0,0
   102a4:	00058413          	addi	s0,a1,0
   102a8:	00f90c63          	beq	s2,a5,102c0 <main+0x1e0>
   102ac:	07812603          	lw	a2,120(sp)
   102b0:	07c12683          	lw	a3,124(sp)
   102b4:	335010ef          	jal	ra,11de8 <__adddf3>
   102b8:	00050493          	addi	s1,a0,0
   102bc:	00058413          	addi	s0,a1,0
   102c0:	db81a703          	lw	a4,-584(gp) # 1bbd8 <__SDATA_BEGIN__+0x80>
   102c4:	dbc1a783          	lw	a5,-580(gp) # 1bbdc <__SDATA_BEGIN__+0x84>
   102c8:	e481a803          	lw	a6,-440(gp) # 1bc68 <__SDATA_BEGIN__+0x110>
   102cc:	e4c1a883          	lw	a7,-436(gp) # 1bc6c <__SDATA_BEGIN__+0x114>
   102d0:	e501a603          	lw	a2,-432(gp) # 1bc70 <__SDATA_BEGIN__+0x118>
   102d4:	e541a683          	lw	a3,-428(gp) # 1bc74 <__SDATA_BEGIN__+0x11c>
   102d8:	00070513          	addi	a0,a4,0
   102dc:	00078593          	addi	a1,a5,0
   102e0:	01912223          	sw	s9,4(sp)
   102e4:	01a12023          	sw	s10,0(sp)
   102e8:	01d000ef          	jal	ra,10b04 <SolveCubic>
   102ec:	06412903          	lw	s2,100(sp)
   102f0:	05205c63          	bge	zero,s2,10348 <main+0x268>
   102f4:	06812603          	lw	a2,104(sp)
   102f8:	06c12683          	lw	a3,108(sp)
   102fc:	00048513          	addi	a0,s1,0
   10300:	00040593          	addi	a1,s0,0
   10304:	2e5010ef          	jal	ra,11de8 <__adddf3>
   10308:	00100793          	addi	a5,zero,1
   1030c:	00050493          	addi	s1,a0,0
   10310:	00058413          	addi	s0,a1,0
   10314:	02f90a63          	beq	s2,a5,10348 <main+0x268>
   10318:	07012603          	lw	a2,112(sp)
   1031c:	07412683          	lw	a3,116(sp)
   10320:	2c9010ef          	jal	ra,11de8 <__adddf3>
   10324:	00200793          	addi	a5,zero,2
   10328:	00050493          	addi	s1,a0,0
   1032c:	00058413          	addi	s0,a1,0
   10330:	00f90c63          	beq	s2,a5,10348 <main+0x268>
   10334:	07812603          	lw	a2,120(sp)
   10338:	07c12683          	lw	a3,124(sp)
   1033c:	2ad010ef          	jal	ra,11de8 <__adddf3>
   10340:	00050493          	addi	s1,a0,0
   10344:	00058413          	addi	s0,a1,0
   10348:	d401a583          	lw	a1,-704(gp) # 1bb60 <__SDATA_BEGIN__+0x8>
   1034c:	d441a603          	lw	a2,-700(gp) # 1bb64 <__SDATA_BEGIN__+0xc>
   10350:	02c12623          	sw	a2,44(sp)
   10354:	dd01a603          	lw	a2,-560(gp) # 1bbf0 <__SDATA_BEGIN__+0x98>
   10358:	dd41a683          	lw	a3,-556(gp) # 1bbf4 <__SDATA_BEGIN__+0x9c>
   1035c:	db81ab03          	lw	s6,-584(gp) # 1bbd8 <__SDATA_BEGIN__+0x80>
   10360:	dbc1aa83          	lw	s5,-580(gp) # 1bbdc <__SDATA_BEGIN__+0x84>
   10364:	02d12a23          	sw	a3,52(sp)
   10368:	df81a683          	lw	a3,-520(gp) # 1bc18 <__SDATA_BEGIN__+0xc0>
   1036c:	dfc1a703          	lw	a4,-516(gp) # 1bc1c <__SDATA_BEGIN__+0xc4>
   10370:	01612e23          	sw	s6,28(sp)
   10374:	05612023          	sw	s6,64(sp)
   10378:	000b0913          	addi	s2,s6,0
   1037c:	000b0a13          	addi	s4,s6,0
   10380:	e041ad83          	lw	s11,-508(gp) # 1bc24 <__SDATA_BEGIN__+0xcc>
   10384:	e001ab03          	lw	s6,-512(gp) # 1bc20 <__SDATA_BEGIN__+0xc8>
   10388:	03512023          	sw	s5,32(sp)
   1038c:	05512223          	sw	s5,68(sp)
   10390:	05512423          	sw	s5,72(sp)
   10394:	02b12423          	sw	a1,40(sp)
   10398:	02c12823          	sw	a2,48(sp)
   1039c:	02d12c23          	sw	a3,56(sp)
   103a0:	02e12e23          	sw	a4,60(sp)
   103a4:	00900b93          	addi	s7,zero,9
   103a8:	01612a23          	sw	s6,20(sp)
   103ac:	01b12c23          	sw	s11,24(sp)
   103b0:	00a00c13          	addi	s8,zero,10
   103b4:	05612623          	sw	s6,76(sp)
   103b8:	05b12823          	sw	s11,80(sp)
   103bc:	05412a23          	sw	s4,84(sp)
   103c0:	01400793          	addi	a5,zero,20
   103c4:	03812a03          	lw	s4,56(sp)
   103c8:	02f12223          	sw	a5,36(sp)
   103cc:	03c12783          	lw	a5,60(sp)
   103d0:	000a0993          	addi	s3,s4,0
   103d4:	05712c23          	sw	s7,88(sp)
   103d8:	05812e23          	sw	s8,92(sp)
   103dc:	00078a13          	addi	s4,a5,0
   103e0:	03012b83          	lw	s7,48(sp)
   103e4:	03412b03          	lw	s6,52(sp)
   103e8:	00a00c13          	addi	s8,zero,10
   103ec:	01412603          	lw	a2,20(sp)
   103f0:	01812683          	lw	a3,24(sp)
   103f4:	00090513          	addi	a0,s2,0
   103f8:	000a8593          	addi	a1,s5,0
   103fc:	000b8813          	addi	a6,s7,0
   10400:	00098713          	addi	a4,s3,0
   10404:	000b0893          	addi	a7,s6,0
   10408:	000a0793          	addi	a5,s4,0
   1040c:	01912223          	sw	s9,4(sp)
   10410:	01a12023          	sw	s10,0(sp)
   10414:	6f0000ef          	jal	ra,10b04 <SolveCubic>
   10418:	06412d83          	lw	s11,100(sp)
   1041c:	00048513          	addi	a0,s1,0
   10420:	00040593          	addi	a1,s0,0
   10424:	05b05863          	bge	zero,s11,10474 <main+0x394>
   10428:	06812603          	lw	a2,104(sp)
   1042c:	06c12683          	lw	a3,108(sp)
   10430:	1b9010ef          	jal	ra,11de8 <__adddf3>
   10434:	00100793          	addi	a5,zero,1
   10438:	00050493          	addi	s1,a0,0
   1043c:	00058413          	addi	s0,a1,0
   10440:	02fd8a63          	beq	s11,a5,10474 <main+0x394>
   10444:	07012603          	lw	a2,112(sp)
   10448:	07412683          	lw	a3,116(sp)
   1044c:	19d010ef          	jal	ra,11de8 <__adddf3>
   10450:	00200793          	addi	a5,zero,2
   10454:	00050493          	addi	s1,a0,0
   10458:	00058413          	addi	s0,a1,0
   1045c:	00fd8c63          	beq	s11,a5,10474 <main+0x394>
   10460:	07812603          	lw	a2,120(sp)
   10464:	07c12683          	lw	a3,124(sp)
   10468:	181010ef          	jal	ra,11de8 <__adddf3>
   1046c:	00050493          	addi	s1,a0,0
   10470:	00058413          	addi	s0,a1,0
   10474:	01c12603          	lw	a2,28(sp)
   10478:	02012683          	lw	a3,32(sp)
   1047c:	000b8513          	addi	a0,s7,0
   10480:	000b0593          	addi	a1,s6,0
   10484:	785020ef          	jal	ra,13408 <__subdf3>
   10488:	fffc0c13          	addi	s8,s8,-1
   1048c:	00050b93          	addi	s7,a0,0
   10490:	00058b13          	addi	s6,a1,0
   10494:	f40c1ce3          	bne	s8,zero,103ec <main+0x30c>
   10498:	02812603          	lw	a2,40(sp)
   1049c:	02c12683          	lw	a3,44(sp)
   104a0:	00098513          	addi	a0,s3,0
   104a4:	000a0593          	addi	a1,s4,0
   104a8:	141010ef          	jal	ra,11de8 <__adddf3>
   104ac:	02412783          	lw	a5,36(sp)
   104b0:	00050993          	addi	s3,a0,0
   104b4:	00058a13          	addi	s4,a1,0
   104b8:	fff78793          	addi	a5,a5,-1
   104bc:	02f12223          	sw	a5,36(sp)
   104c0:	f20790e3          	bne	a5,zero,103e0 <main+0x300>
   104c4:	01412503          	lw	a0,20(sp)
   104c8:	01812583          	lw	a1,24(sp)
   104cc:	04012603          	lw	a2,64(sp)
   104d0:	04412683          	lw	a3,68(sp)
   104d4:	05c12c03          	lw	s8,92(sp)
   104d8:	05812b83          	lw	s7,88(sp)
   104dc:	72d020ef          	jal	ra,13408 <__subdf3>
   104e0:	fffc0c13          	addi	s8,s8,-1
   104e4:	00a12a23          	sw	a0,20(sp)
   104e8:	00b12c23          	sw	a1,24(sp)
   104ec:	ec0c1ae3          	bne	s8,zero,103c0 <main+0x2e0>
   104f0:	05412a03          	lw	s4,84(sp)
   104f4:	04812683          	lw	a3,72(sp)
   104f8:	00090513          	addi	a0,s2,0
   104fc:	000a8593          	addi	a1,s5,0
   10500:	000a0613          	addi	a2,s4,0
   10504:	0e5010ef          	jal	ra,11de8 <__adddf3>
   10508:	fffb8b93          	addi	s7,s7,-1
   1050c:	04c12b03          	lw	s6,76(sp)
   10510:	05012d83          	lw	s11,80(sp)
   10514:	00050913          	addi	s2,a0,0
   10518:	00058a93          	addi	s5,a1,0
   1051c:	e80b96e3          	bne	s7,zero,103a8 <main+0x2c8>
   10520:	00000993          	addi	s3,zero,0
   10524:	3e900a13          	addi	s4,zero,1001
   10528:	00098693          	addi	a3,s3,0
   1052c:	00000513          	addi	a0,zero,0
   10530:	00000793          	addi	a5,zero,0
   10534:	02000913          	addi	s2,zero,32
   10538:	01e6d613          	srli	a2,a3,0x1e
   1053c:	00251713          	slli	a4,a0,0x2
   10540:	00279793          	slli	a5,a5,0x2
   10544:	00f607b3          	add	a5,a2,a5
   10548:	00170713          	addi	a4,a4,1
   1054c:	fff90913          	addi	s2,s2,-1
   10550:	00269693          	slli	a3,a3,0x2
   10554:	00151513          	slli	a0,a0,0x1
   10558:	00e7e663          	bltu	a5,a4,10564 <main+0x484>
   1055c:	40e787b3          	sub	a5,a5,a4
   10560:	00150513          	addi	a0,a0,1
   10564:	fc091ae3          	bne	s2,zero,10538 <main+0x458>
   10568:	01055513          	srli	a0,a0,0x10
   1056c:	718030ef          	jal	ra,13c84 <__floatunsidf>
   10570:	00050613          	addi	a2,a0,0
   10574:	00058693          	addi	a3,a1,0
   10578:	00048513          	addi	a0,s1,0
   1057c:	00040593          	addi	a1,s0,0
   10580:	069010ef          	jal	ra,11de8 <__adddf3>
   10584:	00198993          	addi	s3,s3,1
   10588:	00050493          	addi	s1,a0,0
   1058c:	00058413          	addi	s0,a1,0
   10590:	f9499ce3          	bne	s3,s4,10528 <main+0x448>
   10594:	3fed07b7          	lui	a5,0x3fed0
   10598:	16978793          	addi	a5,a5,361 # 3fed0169 <__BSS_END__+0x3feb41a9>
   1059c:	00000513          	addi	a0,zero,0
   105a0:	02000693          	addi	a3,zero,32
   105a4:	01e7d613          	srli	a2,a5,0x1e
   105a8:	00251713          	slli	a4,a0,0x2
   105ac:	00291913          	slli	s2,s2,0x2
   105b0:	01260933          	add	s2,a2,s2
   105b4:	00170713          	addi	a4,a4,1
   105b8:	fff68693          	addi	a3,a3,-1
   105bc:	00279793          	slli	a5,a5,0x2
   105c0:	00151513          	slli	a0,a0,0x1
   105c4:	00e96663          	bltu	s2,a4,105d0 <main+0x4f0>
   105c8:	40e90933          	sub	s2,s2,a4
   105cc:	00150513          	addi	a0,a0,1
   105d0:	fc069ae3          	bne	a3,zero,105a4 <main+0x4c4>
   105d4:	01055513          	srli	a0,a0,0x10
   105d8:	6ac030ef          	jal	ra,13c84 <__floatunsidf>
   105dc:	00040693          	addi	a3,s0,0
   105e0:	00048613          	addi	a2,s1,0
   105e4:	005010ef          	jal	ra,11de8 <__adddf3>
   105e8:	db81ab03          	lw	s6,-584(gp) # 1bbd8 <__SDATA_BEGIN__+0x80>
   105ec:	dbc1ab83          	lw	s7,-580(gp) # 1bbdc <__SDATA_BEGIN__+0x84>
   105f0:	dc01a903          	lw	s2,-576(gp) # 1bbe0 <__SDATA_BEGIN__+0x88>
   105f4:	dc41a983          	lw	s3,-572(gp) # 1bbe4 <__SDATA_BEGIN__+0x8c>
   105f8:	e581aa03          	lw	s4,-424(gp) # 1bc78 <__SDATA_BEGIN__+0x120>
   105fc:	e5c1aa83          	lw	s5,-420(gp) # 1bc7c <__SDATA_BEGIN__+0x124>
   10600:	00050493          	addi	s1,a0,0
   10604:	00058413          	addi	s0,a1,0
   10608:	16900d13          	addi	s10,zero,361
   1060c:	00000c93          	addi	s9,zero,0
   10610:	00000c13          	addi	s8,zero,0
   10614:	000c8513          	addi	a0,s9,0
   10618:	000c0593          	addi	a1,s8,0
   1061c:	00090613          	addi	a2,s2,0
   10620:	00098693          	addi	a3,s3,0
   10624:	7fc020ef          	jal	ra,12e20 <__muldf3>
   10628:	000a0613          	addi	a2,s4,0
   1062c:	000a8693          	addi	a3,s5,0
   10630:	705010ef          	jal	ra,12534 <__divdf3>
   10634:	00050613          	addi	a2,a0,0
   10638:	00058693          	addi	a3,a1,0
   1063c:	00048513          	addi	a0,s1,0
   10640:	00040593          	addi	a1,s0,0
   10644:	7a4010ef          	jal	ra,11de8 <__adddf3>
   10648:	00050493          	addi	s1,a0,0
   1064c:	00058413          	addi	s0,a1,0
   10650:	000c8513          	addi	a0,s9,0
   10654:	000c0593          	addi	a1,s8,0
   10658:	000b0613          	addi	a2,s6,0
   1065c:	000b8693          	addi	a3,s7,0
   10660:	788010ef          	jal	ra,11de8 <__adddf3>
   10664:	fffd0d13          	addi	s10,s10,-1
   10668:	00050c93          	addi	s9,a0,0
   1066c:	00058c13          	addi	s8,a1,0
   10670:	fa0d12e3          	bne	s10,zero,10614 <main+0x534>
   10674:	e601ab03          	lw	s6,-416(gp) # 1bc80 <__SDATA_BEGIN__+0x128>
   10678:	e641ab83          	lw	s7,-412(gp) # 1bc84 <__SDATA_BEGIN__+0x12c>
   1067c:	16900d13          	addi	s10,zero,361
   10680:	00000c93          	addi	s9,zero,0
   10684:	00000c13          	addi	s8,zero,0
   10688:	000c8513          	addi	a0,s9,0
   1068c:	000c0593          	addi	a1,s8,0
   10690:	000a0613          	addi	a2,s4,0
   10694:	000a8693          	addi	a3,s5,0
   10698:	788020ef          	jal	ra,12e20 <__muldf3>
   1069c:	00090613          	addi	a2,s2,0
   106a0:	00098693          	addi	a3,s3,0
   106a4:	691010ef          	jal	ra,12534 <__divdf3>
   106a8:	00050613          	addi	a2,a0,0
   106ac:	00058693          	addi	a3,a1,0
   106b0:	00048513          	addi	a0,s1,0
   106b4:	00040593          	addi	a1,s0,0
   106b8:	730010ef          	jal	ra,11de8 <__adddf3>
   106bc:	00050493          	addi	s1,a0,0
   106c0:	00058413          	addi	s0,a1,0
   106c4:	000c8513          	addi	a0,s9,0
   106c8:	000c0593          	addi	a1,s8,0
   106cc:	000b0613          	addi	a2,s6,0
   106d0:	000b8693          	addi	a3,s7,0
   106d4:	714010ef          	jal	ra,11de8 <__adddf3>
   106d8:	fffd0d13          	addi	s10,s10,-1
   106dc:	00050c93          	addi	s9,a0,0
   106e0:	00058c13          	addi	s8,a1,0
   106e4:	fa0d12e3          	bne	s10,zero,10688 <main+0x5a8>
   106e8:	00048513          	addi	a0,s1,0
   106ec:	00040593          	addi	a1,s0,0
   106f0:	00000613          	addi	a2,zero,0
   106f4:	00000693          	addi	a3,zero,0
   106f8:	4f4020ef          	jal	ra,12bec <__eqdf2>
   106fc:	0bc12083          	lw	ra,188(sp)
   10700:	0b812403          	lw	s0,184(sp)
   10704:	0b412483          	lw	s1,180(sp)
   10708:	0b012903          	lw	s2,176(sp)
   1070c:	0ac12983          	lw	s3,172(sp)
   10710:	0a812a03          	lw	s4,168(sp)
   10714:	0a412a83          	lw	s5,164(sp)
   10718:	0a012b03          	lw	s6,160(sp)
   1071c:	09c12b83          	lw	s7,156(sp)
   10720:	09812c03          	lw	s8,152(sp)
   10724:	09412c83          	lw	s9,148(sp)
   10728:	09012d03          	lw	s10,144(sp)
   1072c:	08c12d83          	lw	s11,140(sp)
   10730:	00153513          	sltiu	a0,a0,1
   10734:	0c010113          	addi	sp,sp,192
   10738:	00008067          	jalr	zero,0(ra)

0001073c <register_fini>:
   1073c:	00000793          	addi	a5,zero,0
   10740:	00078863          	beq	a5,zero,10750 <register_fini+0x14>
   10744:	0001a537          	lui	a0,0x1a
   10748:	1f850513          	addi	a0,a0,504 # 1a1f8 <__libc_fini_array>
   1074c:	14d0806f          	jal	zero,19098 <atexit>
   10750:	00008067          	jalr	zero,0(ra)

00010754 <_start>:
   10754:	0000b197          	auipc	gp,0xb
   10758:	6cc18193          	addi	gp,gp,1740 # 1be20 <__global_pointer$>
   1075c:	0000b517          	auipc	a0,0xb
   10760:	53c50513          	addi	a0,a0,1340 # 1bc98 <__stdio_exit_handler>
   10764:	0000c617          	auipc	a2,0xc
   10768:	85c60613          	addi	a2,a2,-1956 # 1bfc0 <__BSS_END__>
   1076c:	40a60633          	sub	a2,a2,a0
   10770:	00000593          	addi	a1,zero,0
   10774:	714080ef          	jal	ra,18e88 <memset>
   10778:	00009517          	auipc	a0,0x9
   1077c:	92050513          	addi	a0,a0,-1760 # 19098 <atexit>
   10780:	00050863          	beq	a0,zero,10790 <_start+0x3c>
   10784:	0000a517          	auipc	a0,0xa
   10788:	a7450513          	addi	a0,a0,-1420 # 1a1f8 <__libc_fini_array>
   1078c:	10d080ef          	jal	ra,19098 <atexit>
   10790:	664080ef          	jal	ra,18df4 <__libc_init_array>
   10794:	00012503          	lw	a0,0(sp)
   10798:	00410593          	addi	a1,sp,4
   1079c:	00000613          	addi	a2,zero,0
   107a0:	941ff0ef          	jal	ra,100e0 <main>
   107a4:	911ff06f          	jal	zero,100b4 <exit>

000107a8 <__do_global_dtors_aux>:
   107a8:	ff010113          	addi	sp,sp,-16
   107ac:	00812423          	sw	s0,8(sp)
   107b0:	e941c783          	lbu	a5,-364(gp) # 1bcb4 <completed.1>
   107b4:	00112623          	sw	ra,12(sp)
   107b8:	02079263          	bne	a5,zero,107dc <__do_global_dtors_aux+0x34>
   107bc:	00000793          	addi	a5,zero,0
   107c0:	00078a63          	beq	a5,zero,107d4 <__do_global_dtors_aux+0x2c>
   107c4:	0001a537          	lui	a0,0x1a
   107c8:	61050513          	addi	a0,a0,1552 # 1a610 <__EH_FRAME_BEGIN__>
   107cc:	00000097          	auipc	ra,0x0
   107d0:	000000e7          	jalr	ra,0(zero) # 0 <exit-0x100b4>
   107d4:	00100793          	addi	a5,zero,1
   107d8:	e8f18a23          	sb	a5,-364(gp) # 1bcb4 <completed.1>
   107dc:	00c12083          	lw	ra,12(sp)
   107e0:	00812403          	lw	s0,8(sp)
   107e4:	01010113          	addi	sp,sp,16
   107e8:	00008067          	jalr	zero,0(ra) # 107cc <__do_global_dtors_aux+0x24>

000107ec <frame_dummy>:
   107ec:	00000793          	addi	a5,zero,0
   107f0:	00078c63          	beq	a5,zero,10808 <frame_dummy+0x1c>
   107f4:	0001a537          	lui	a0,0x1a
   107f8:	e9818593          	addi	a1,gp,-360 # 1bcb8 <object.0>
   107fc:	61050513          	addi	a0,a0,1552 # 1a610 <__EH_FRAME_BEGIN__>
   10800:	00000317          	auipc	t1,0x0
   10804:	00000067          	jalr	zero,0(zero) # 0 <exit-0x100b4>
   10808:	00008067          	jalr	zero,0(ra)

0001080c <my_cos>:
   1080c:	d381a603          	lw	a2,-712(gp) # 1bb58 <__SDATA_BEGIN__>
   10810:	d3c1a683          	lw	a3,-708(gp) # 1bb5c <__SDATA_BEGIN__+0x4>
   10814:	fd010113          	addi	sp,sp,-48
   10818:	02112623          	sw	ra,44(sp)
   1081c:	02812423          	sw	s0,40(sp)
   10820:	02912223          	sw	s1,36(sp)
   10824:	03212023          	sw	s2,32(sp)
   10828:	01312e23          	sw	s3,28(sp)
   1082c:	01412c23          	sw	s4,24(sp)
   10830:	01512a23          	sw	s5,20(sp)
   10834:	01612823          	sw	s6,16(sp)
   10838:	01712623          	sw	s7,12(sp)
   1083c:	01812423          	sw	s8,8(sp)
   10840:	00050413          	addi	s0,a0,0
   10844:	00058493          	addi	s1,a1,0
   10848:	5d8020ef          	jal	ra,12e20 <__muldf3>
   1084c:	00000613          	addi	a2,zero,0
   10850:	00000693          	addi	a3,zero,0
   10854:	00050913          	addi	s2,a0,0
   10858:	00058993          	addi	s3,a1,0
   1085c:	414020ef          	jal	ra,12c70 <__gedf2>
   10860:	26054c63          	blt	a0,zero,10ad8 <my_cos+0x2cc>
   10864:	d401a603          	lw	a2,-704(gp) # 1bb60 <__SDATA_BEGIN__+0x8>
   10868:	d441a683          	lw	a3,-700(gp) # 1bb64 <__SDATA_BEGIN__+0xc>
   1086c:	00090513          	addi	a0,s2,0
   10870:	00098593          	addi	a1,s3,0
   10874:	574010ef          	jal	ra,11de8 <__adddf3>
   10878:	00050713          	addi	a4,a0,0
   1087c:	00058793          	addi	a5,a1,0
   10880:	00070513          	addi	a0,a4,0
   10884:	00078593          	addi	a1,a5,0
   10888:	2e0030ef          	jal	ra,13b68 <__fixdfsi>
   1088c:	00050b13          	addi	s6,a0,0
   10890:	354030ef          	jal	ra,13be4 <__floatsidf>
   10894:	d481a603          	lw	a2,-696(gp) # 1bb68 <__SDATA_BEGIN__+0x10>
   10898:	d4c1a683          	lw	a3,-692(gp) # 1bb6c <__SDATA_BEGIN__+0x14>
   1089c:	00050913          	addi	s2,a0,0
   108a0:	00058993          	addi	s3,a1,0
   108a4:	57c020ef          	jal	ra,12e20 <__muldf3>
   108a8:	00050613          	addi	a2,a0,0
   108ac:	00058693          	addi	a3,a1,0
   108b0:	00040513          	addi	a0,s0,0
   108b4:	00048593          	addi	a1,s1,0
   108b8:	351020ef          	jal	ra,13408 <__subdf3>
   108bc:	d501a603          	lw	a2,-688(gp) # 1bb70 <__SDATA_BEGIN__+0x18>
   108c0:	d541a683          	lw	a3,-684(gp) # 1bb74 <__SDATA_BEGIN__+0x1c>
   108c4:	00050413          	addi	s0,a0,0
   108c8:	00058493          	addi	s1,a1,0
   108cc:	00090513          	addi	a0,s2,0
   108d0:	00098593          	addi	a1,s3,0
   108d4:	54c020ef          	jal	ra,12e20 <__muldf3>
   108d8:	00050613          	addi	a2,a0,0
   108dc:	00058693          	addi	a3,a1,0
   108e0:	00040513          	addi	a0,s0,0
   108e4:	00048593          	addi	a1,s1,0
   108e8:	321020ef          	jal	ra,13408 <__subdf3>
   108ec:	00050613          	addi	a2,a0,0
   108f0:	00058693          	addi	a3,a1,0
   108f4:	00050913          	addi	s2,a0,0
   108f8:	00058993          	addi	s3,a1,0
   108fc:	524020ef          	jal	ra,12e20 <__muldf3>
   10900:	d581a603          	lw	a2,-680(gp) # 1bb78 <__SDATA_BEGIN__+0x20>
   10904:	d5c1a683          	lw	a3,-676(gp) # 1bb7c <__SDATA_BEGIN__+0x24>
   10908:	00050413          	addi	s0,a0,0
   1090c:	00058493          	addi	s1,a1,0
   10910:	510020ef          	jal	ra,12e20 <__muldf3>
   10914:	d601a603          	lw	a2,-672(gp) # 1bb80 <__SDATA_BEGIN__+0x28>
   10918:	d641a683          	lw	a3,-668(gp) # 1bb84 <__SDATA_BEGIN__+0x2c>
   1091c:	2ed020ef          	jal	ra,13408 <__subdf3>
   10920:	00040613          	addi	a2,s0,0
   10924:	00048693          	addi	a3,s1,0
   10928:	4f8020ef          	jal	ra,12e20 <__muldf3>
   1092c:	d681a603          	lw	a2,-664(gp) # 1bb88 <__SDATA_BEGIN__+0x30>
   10930:	d6c1a683          	lw	a3,-660(gp) # 1bb8c <__SDATA_BEGIN__+0x34>
   10934:	4b4010ef          	jal	ra,11de8 <__adddf3>
   10938:	00040613          	addi	a2,s0,0
   1093c:	00048693          	addi	a3,s1,0
   10940:	4e0020ef          	jal	ra,12e20 <__muldf3>
   10944:	d701a603          	lw	a2,-656(gp) # 1bb90 <__SDATA_BEGIN__+0x38>
   10948:	d741a683          	lw	a3,-652(gp) # 1bb94 <__SDATA_BEGIN__+0x3c>
   1094c:	2bd020ef          	jal	ra,13408 <__subdf3>
   10950:	00040613          	addi	a2,s0,0
   10954:	00048693          	addi	a3,s1,0
   10958:	4c8020ef          	jal	ra,12e20 <__muldf3>
   1095c:	d781a603          	lw	a2,-648(gp) # 1bb98 <__SDATA_BEGIN__+0x40>
   10960:	d7c1a683          	lw	a3,-644(gp) # 1bb9c <__SDATA_BEGIN__+0x44>
   10964:	484010ef          	jal	ra,11de8 <__adddf3>
   10968:	00040613          	addi	a2,s0,0
   1096c:	00048693          	addi	a3,s1,0
   10970:	4b0020ef          	jal	ra,12e20 <__muldf3>
   10974:	d801a603          	lw	a2,-640(gp) # 1bba0 <__SDATA_BEGIN__+0x48>
   10978:	d841a683          	lw	a3,-636(gp) # 1bba4 <__SDATA_BEGIN__+0x4c>
   1097c:	28d020ef          	jal	ra,13408 <__subdf3>
   10980:	00050b93          	addi	s7,a0,0
   10984:	00058c13          	addi	s8,a1,0
   10988:	00040613          	addi	a2,s0,0
   1098c:	00048693          	addi	a3,s1,0
   10990:	00090513          	addi	a0,s2,0
   10994:	00098593          	addi	a1,s3,0
   10998:	488020ef          	jal	ra,12e20 <__muldf3>
   1099c:	00050613          	addi	a2,a0,0
   109a0:	00058693          	addi	a3,a1,0
   109a4:	000b8513          	addi	a0,s7,0
   109a8:	000c0593          	addi	a1,s8,0
   109ac:	474020ef          	jal	ra,12e20 <__muldf3>
   109b0:	00090613          	addi	a2,s2,0
   109b4:	00098693          	addi	a3,s3,0
   109b8:	430010ef          	jal	ra,11de8 <__adddf3>
   109bc:	003b7913          	andi	s2,s6,3
   109c0:	00100793          	addi	a5,zero,1
   109c4:	00050993          	addi	s3,a0,0
   109c8:	00058a93          	addi	s5,a1,0
   109cc:	12f90663          	beq	s2,a5,10af8 <my_cos+0x2ec>
   109d0:	d881a603          	lw	a2,-632(gp) # 1bba8 <__SDATA_BEGIN__+0x50>
   109d4:	d8c1a683          	lw	a3,-628(gp) # 1bbac <__SDATA_BEGIN__+0x54>
   109d8:	00040513          	addi	a0,s0,0
   109dc:	00048593          	addi	a1,s1,0
   109e0:	440020ef          	jal	ra,12e20 <__muldf3>
   109e4:	d901a603          	lw	a2,-624(gp) # 1bbb0 <__SDATA_BEGIN__+0x58>
   109e8:	d941a683          	lw	a3,-620(gp) # 1bbb4 <__SDATA_BEGIN__+0x5c>
   109ec:	3fc010ef          	jal	ra,11de8 <__adddf3>
   109f0:	00040613          	addi	a2,s0,0
   109f4:	00048693          	addi	a3,s1,0
   109f8:	428020ef          	jal	ra,12e20 <__muldf3>
   109fc:	d981a603          	lw	a2,-616(gp) # 1bbb8 <__SDATA_BEGIN__+0x60>
   10a00:	d9c1a683          	lw	a3,-612(gp) # 1bbbc <__SDATA_BEGIN__+0x64>
   10a04:	205020ef          	jal	ra,13408 <__subdf3>
   10a08:	00040613          	addi	a2,s0,0
   10a0c:	00048693          	addi	a3,s1,0
   10a10:	410020ef          	jal	ra,12e20 <__muldf3>
   10a14:	da01a603          	lw	a2,-608(gp) # 1bbc0 <__SDATA_BEGIN__+0x68>
   10a18:	da41a683          	lw	a3,-604(gp) # 1bbc4 <__SDATA_BEGIN__+0x6c>
   10a1c:	3cc010ef          	jal	ra,11de8 <__adddf3>
   10a20:	00040613          	addi	a2,s0,0
   10a24:	00048693          	addi	a3,s1,0
   10a28:	3f8020ef          	jal	ra,12e20 <__muldf3>
   10a2c:	da81a603          	lw	a2,-600(gp) # 1bbc8 <__SDATA_BEGIN__+0x70>
   10a30:	dac1a683          	lw	a3,-596(gp) # 1bbcc <__SDATA_BEGIN__+0x74>
   10a34:	1d5020ef          	jal	ra,13408 <__subdf3>
   10a38:	00040613          	addi	a2,s0,0
   10a3c:	00048693          	addi	a3,s1,0
   10a40:	3e0020ef          	jal	ra,12e20 <__muldf3>
   10a44:	db01a603          	lw	a2,-592(gp) # 1bbd0 <__SDATA_BEGIN__+0x78>
   10a48:	db41a683          	lw	a3,-588(gp) # 1bbd4 <__SDATA_BEGIN__+0x7c>
   10a4c:	39c010ef          	jal	ra,11de8 <__adddf3>
   10a50:	00040613          	addi	a2,s0,0
   10a54:	00048693          	addi	a3,s1,0
   10a58:	3c8020ef          	jal	ra,12e20 <__muldf3>
   10a5c:	d401a603          	lw	a2,-704(gp) # 1bb60 <__SDATA_BEGIN__+0x8>
   10a60:	d441a683          	lw	a3,-700(gp) # 1bb64 <__SDATA_BEGIN__+0xc>
   10a64:	1a5020ef          	jal	ra,13408 <__subdf3>
   10a68:	00040613          	addi	a2,s0,0
   10a6c:	00048693          	addi	a3,s1,0
   10a70:	3b0020ef          	jal	ra,12e20 <__muldf3>
   10a74:	dbc1a683          	lw	a3,-580(gp) # 1bbdc <__SDATA_BEGIN__+0x84>
   10a78:	db81a603          	lw	a2,-584(gp) # 1bbd8 <__SDATA_BEGIN__+0x80>
   10a7c:	36c010ef          	jal	ra,11de8 <__adddf3>
   10a80:	00200693          	addi	a3,zero,2
   10a84:	00058793          	addi	a5,a1,0
   10a88:	04d90263          	beq	s2,a3,10acc <my_cos+0x2c0>
   10a8c:	00090663          	beq	s2,zero,10a98 <my_cos+0x28c>
   10a90:	00098513          	addi	a0,s3,0
   10a94:	000a8793          	addi	a5,s5,0
   10a98:	02c12083          	lw	ra,44(sp)
   10a9c:	02812403          	lw	s0,40(sp)
   10aa0:	02412483          	lw	s1,36(sp)
   10aa4:	02012903          	lw	s2,32(sp)
   10aa8:	01c12983          	lw	s3,28(sp)
   10aac:	01812a03          	lw	s4,24(sp)
   10ab0:	01412a83          	lw	s5,20(sp)
   10ab4:	01012b03          	lw	s6,16(sp)
   10ab8:	00c12b83          	lw	s7,12(sp)
   10abc:	00812c03          	lw	s8,8(sp)
   10ac0:	00078593          	addi	a1,a5,0
   10ac4:	03010113          	addi	sp,sp,48
   10ac8:	00008067          	jalr	zero,0(ra)
   10acc:	800007b7          	lui	a5,0x80000
   10ad0:	00b7c7b3          	xor	a5,a5,a1
   10ad4:	fc5ff06f          	jal	zero,10a98 <my_cos+0x28c>
   10ad8:	d401a603          	lw	a2,-704(gp) # 1bb60 <__SDATA_BEGIN__+0x8>
   10adc:	d441a683          	lw	a3,-700(gp) # 1bb64 <__SDATA_BEGIN__+0xc>
   10ae0:	00090513          	addi	a0,s2,0
   10ae4:	00098593          	addi	a1,s3,0
   10ae8:	121020ef          	jal	ra,13408 <__subdf3>
   10aec:	00050713          	addi	a4,a0,0
   10af0:	00058793          	addi	a5,a1,0
   10af4:	d8dff06f          	jal	zero,10880 <my_cos+0x74>
   10af8:	800007b7          	lui	a5,0x80000
   10afc:	00b7c7b3          	xor	a5,a5,a1
   10b00:	f99ff06f          	jal	zero,10a98 <my_cos+0x28c>

00010b04 <SolveCubic>:
   10b04:	ee010113          	addi	sp,sp,-288
   10b08:	11212823          	sw	s2,272(sp)
   10b0c:	11312623          	sw	s3,268(sp)
   10b10:	00050913          	addi	s2,a0,0
   10b14:	00058993          	addi	s3,a1,0
   10b18:	00060513          	addi	a0,a2,0
   10b1c:	00068593          	addi	a1,a3,0
   10b20:	00090613          	addi	a2,s2,0
   10b24:	00098693          	addi	a3,s3,0
   10b28:	10112e23          	sw	ra,284(sp)
   10b2c:	01012423          	sw	a6,8(sp)
   10b30:	01112623          	sw	a7,12(sp)
   10b34:	10812c23          	sw	s0,280(sp)
   10b38:	10912a23          	sw	s1,276(sp)
   10b3c:	00070413          	addi	s0,a4,0
   10b40:	00078493          	addi	s1,a5,0 # 80000000 <__BSS_END__+0x7ffe4040>
   10b44:	11412423          	sw	s4,264(sp)
   10b48:	11512223          	sw	s5,260(sp)
   10b4c:	11612023          	sw	s6,256(sp)
   10b50:	0f712e23          	sw	s7,252(sp)
   10b54:	0f812c23          	sw	s8,248(sp)
   10b58:	0f912a23          	sw	s9,244(sp)
   10b5c:	0fa12823          	sw	s10,240(sp)
   10b60:	0fb12623          	sw	s11,236(sp)
   10b64:	1d1010ef          	jal	ra,12534 <__divdf3>
   10b68:	00058613          	addi	a2,a1,0
   10b6c:	00a12823          	sw	a0,16(sp)
   10b70:	00050593          	addi	a1,a0,0
   10b74:	0d010513          	addi	a0,sp,208
   10b78:	00c12a23          	sw	a2,20(sp)
   10b7c:	4fc070ef          	jal	ra,18078 <__extenddftf2>
   10b80:	00098693          	addi	a3,s3,0
   10b84:	00090613          	addi	a2,s2,0
   10b88:	00040513          	addi	a0,s0,0
   10b8c:	00048593          	addi	a1,s1,0
   10b90:	01212023          	sw	s2,0(sp)
   10b94:	01312223          	sw	s3,4(sp)
   10b98:	19d010ef          	jal	ra,12534 <__divdf3>
   10b9c:	0d012c83          	lw	s9,208(sp)
   10ba0:	0d412c03          	lw	s8,212(sp)
   10ba4:	0d812a83          	lw	s5,216(sp)
   10ba8:	0dc12483          	lw	s1,220(sp)
   10bac:	00058613          	addi	a2,a1,0
   10bb0:	00050593          	addi	a1,a0,0
   10bb4:	0d010513          	addi	a0,sp,208
   10bb8:	4c0070ef          	jal	ra,18078 <__extenddftf2>
   10bbc:	0c010593          	addi	a1,sp,192
   10bc0:	0d012d03          	lw	s10,208(sp)
   10bc4:	0d412d83          	lw	s11,212(sp)
   10bc8:	0d812b83          	lw	s7,216(sp)
   10bcc:	0dc12b03          	lw	s6,220(sp)
   10bd0:	0b010613          	addi	a2,sp,176
   10bd4:	0d010513          	addi	a0,sp,208
   10bd8:	0d912023          	sw	s9,192(sp)
   10bdc:	0d812223          	sw	s8,196(sp)
   10be0:	0d512423          	sw	s5,200(sp)
   10be4:	0c912623          	sw	s1,204(sp)
   10be8:	0b912823          	sw	s9,176(sp)
   10bec:	0b812a23          	sw	s8,180(sp)
   10bf0:	0b512c23          	sw	s5,184(sp)
   10bf4:	0a912e23          	sw	s1,188(sp)
   10bf8:	228050ef          	jal	ra,15e20 <__multf3>
   10bfc:	400087b7          	lui	a5,0x40008
   10c00:	0a010613          	addi	a2,sp,160
   10c04:	0b010593          	addi	a1,sp,176
   10c08:	0c010513          	addi	a0,sp,192
   10c0c:	0d012a03          	lw	s4,208(sp)
   10c10:	0d412983          	lw	s3,212(sp)
   10c14:	0d812903          	lw	s2,216(sp)
   10c18:	0dc12403          	lw	s0,220(sp)
   10c1c:	0af12623          	sw	a5,172(sp)
   10c20:	0ba12823          	sw	s10,176(sp)
   10c24:	0bb12a23          	sw	s11,180(sp)
   10c28:	0b712c23          	sw	s7,184(sp)
   10c2c:	0b612e23          	sw	s6,188(sp)
   10c30:	0a012023          	sw	zero,160(sp)
   10c34:	0a012223          	sw	zero,164(sp)
   10c38:	0a012423          	sw	zero,168(sp)
   10c3c:	1e4050ef          	jal	ra,15e20 <__multf3>
   10c40:	0c812783          	lw	a5,200(sp)
   10c44:	0c012683          	lw	a3,192(sp)
   10c48:	0c412703          	lw	a4,196(sp)
   10c4c:	08f12c23          	sw	a5,152(sp)
   10c50:	0cc12783          	lw	a5,204(sp)
   10c54:	09010613          	addi	a2,sp,144
   10c58:	0a010593          	addi	a1,sp,160
   10c5c:	0b010513          	addi	a0,sp,176
   10c60:	0b412023          	sw	s4,160(sp)
   10c64:	0b312223          	sw	s3,164(sp)
   10c68:	0b212423          	sw	s2,168(sp)
   10c6c:	0a812623          	sw	s0,172(sp)
   10c70:	08d12823          	sw	a3,144(sp)
   10c74:	08e12a23          	sw	a4,148(sp)
   10c78:	08f12e23          	sw	a5,156(sp)
   10c7c:	0e4060ef          	jal	ra,16d60 <__subtf3>
   10c80:	0b412703          	lw	a4,180(sp)
   10c84:	0b812783          	lw	a5,184(sp)
   10c88:	0b012683          	lw	a3,176(sp)
   10c8c:	08e12a23          	sw	a4,148(sp)
   10c90:	0bc12703          	lw	a4,188(sp)
   10c94:	08f12c23          	sw	a5,152(sp)
   10c98:	08010613          	addi	a2,sp,128
   10c9c:	400227b7          	lui	a5,0x40022
   10ca0:	09010593          	addi	a1,sp,144
   10ca4:	0a010513          	addi	a0,sp,160
   10ca8:	08f12623          	sw	a5,140(sp)
   10cac:	08d12823          	sw	a3,144(sp)
   10cb0:	08e12e23          	sw	a4,156(sp)
   10cb4:	08012023          	sw	zero,128(sp)
   10cb8:	08012223          	sw	zero,132(sp)
   10cbc:	08012423          	sw	zero,136(sp)
   10cc0:	32c040ef          	jal	ra,14fec <__divtf3>
   10cc4:	0b010613          	addi	a2,sp,176
   10cc8:	0c010593          	addi	a1,sp,192
   10ccc:	0d010513          	addi	a0,sp,208
   10cd0:	0a012a03          	lw	s4,160(sp)
   10cd4:	0a412983          	lw	s3,164(sp)
   10cd8:	0a812903          	lw	s2,168(sp)
   10cdc:	0ac12403          	lw	s0,172(sp)
   10ce0:	0d912023          	sw	s9,192(sp)
   10ce4:	0d812223          	sw	s8,196(sp)
   10ce8:	0d512423          	sw	s5,200(sp)
   10cec:	0c912623          	sw	s1,204(sp)
   10cf0:	0b912823          	sw	s9,176(sp)
   10cf4:	0b812a23          	sw	s8,180(sp)
   10cf8:	0b512c23          	sw	s5,184(sp)
   10cfc:	0a912e23          	sw	s1,188(sp)
   10d00:	000030ef          	jal	ra,13d00 <__addtf3>
   10d04:	0d812703          	lw	a4,216(sp)
   10d08:	0d012603          	lw	a2,208(sp)
   10d0c:	0d412683          	lw	a3,212(sp)
   10d10:	0ae12c23          	sw	a4,184(sp)
   10d14:	0dc12703          	lw	a4,220(sp)
   10d18:	0ac12823          	sw	a2,176(sp)
   10d1c:	0b010593          	addi	a1,sp,176
   10d20:	0a010613          	addi	a2,sp,160
   10d24:	0c010513          	addi	a0,sp,192
   10d28:	0b912023          	sw	s9,160(sp)
   10d2c:	0b812223          	sw	s8,164(sp)
   10d30:	0b512423          	sw	s5,168(sp)
   10d34:	0a912623          	sw	s1,172(sp)
   10d38:	0ad12a23          	sw	a3,180(sp)
   10d3c:	0ae12e23          	sw	a4,188(sp)
   10d40:	0e0050ef          	jal	ra,15e20 <__multf3>
   10d44:	0c812703          	lw	a4,200(sp)
   10d48:	0c012603          	lw	a2,192(sp)
   10d4c:	0c412683          	lw	a3,196(sp)
   10d50:	0ae12423          	sw	a4,168(sp)
   10d54:	0cc12703          	lw	a4,204(sp)
   10d58:	0ac12023          	sw	a2,160(sp)
   10d5c:	0a010593          	addi	a1,sp,160
   10d60:	09010613          	addi	a2,sp,144
   10d64:	0b010513          	addi	a0,sp,176
   10d68:	0ad12223          	sw	a3,164(sp)
   10d6c:	0ae12623          	sw	a4,172(sp)
   10d70:	09912823          	sw	s9,144(sp)
   10d74:	09812a23          	sw	s8,148(sp)
   10d78:	09512c23          	sw	s5,152(sp)
   10d7c:	08912e23          	sw	s1,156(sp)
   10d80:	0a0050ef          	jal	ra,15e20 <__multf3>
   10d84:	400227b7          	lui	a5,0x40022
   10d88:	08010613          	addi	a2,sp,128
   10d8c:	09010593          	addi	a1,sp,144
   10d90:	0a010513          	addi	a0,sp,160
   10d94:	09912823          	sw	s9,144(sp)
   10d98:	09812a23          	sw	s8,148(sp)
   10d9c:	0b012c83          	lw	s9,176(sp)
   10da0:	0b412c03          	lw	s8,180(sp)
   10da4:	09512c23          	sw	s5,152(sp)
   10da8:	08912e23          	sw	s1,156(sp)
   10dac:	0b812a83          	lw	s5,184(sp)
   10db0:	0bc12483          	lw	s1,188(sp)
   10db4:	08f12623          	sw	a5,140(sp)
   10db8:	08012023          	sw	zero,128(sp)
   10dbc:	08012223          	sw	zero,132(sp)
   10dc0:	08012423          	sw	zero,136(sp)
   10dc4:	05c050ef          	jal	ra,15e20 <__multf3>
   10dc8:	0a012603          	lw	a2,160(sp)
   10dcc:	0a412683          	lw	a3,164(sp)
   10dd0:	0a812703          	lw	a4,168(sp)
   10dd4:	0ac12783          	lw	a5,172(sp)
   10dd8:	09010513          	addi	a0,sp,144
   10ddc:	08c12023          	sw	a2,128(sp)
   10de0:	08010593          	addi	a1,sp,128
   10de4:	07010613          	addi	a2,sp,112
   10de8:	07a12823          	sw	s10,112(sp)
   10dec:	07b12a23          	sw	s11,116(sp)
   10df0:	07712c23          	sw	s7,120(sp)
   10df4:	07612e23          	sw	s6,124(sp)
   10df8:	08d12223          	sw	a3,132(sp)
   10dfc:	08e12423          	sw	a4,136(sp)
   10e00:	08f12623          	sw	a5,140(sp)
   10e04:	01c050ef          	jal	ra,15e20 <__multf3>
   10e08:	09812783          	lw	a5,152(sp)
   10e0c:	09412703          	lw	a4,148(sp)
   10e10:	09012683          	lw	a3,144(sp)
   10e14:	06f12423          	sw	a5,104(sp)
   10e18:	09c12783          	lw	a5,156(sp)
   10e1c:	08010513          	addi	a0,sp,128
   10e20:	06010613          	addi	a2,sp,96
   10e24:	07010593          	addi	a1,sp,112
   10e28:	06e12223          	sw	a4,100(sp)
   10e2c:	06f12623          	sw	a5,108(sp)
   10e30:	07912823          	sw	s9,112(sp)
   10e34:	07812a23          	sw	s8,116(sp)
   10e38:	07512c23          	sw	s5,120(sp)
   10e3c:	06912e23          	sw	s1,124(sp)
   10e40:	06d12023          	sw	a3,96(sp)
   10e44:	71d050ef          	jal	ra,16d60 <__subtf3>
   10e48:	00812803          	lw	a6,8(sp)
   10e4c:	00c12883          	lw	a7,12(sp)
   10e50:	00012603          	lw	a2,0(sp)
   10e54:	00412683          	lw	a3,4(sp)
   10e58:	00080513          	addi	a0,a6,0
   10e5c:	00088593          	addi	a1,a7,0
   10e60:	6d4010ef          	jal	ra,12534 <__divdf3>
   10e64:	00058613          	addi	a2,a1,0
   10e68:	00050593          	addi	a1,a0,0
   10e6c:	07010513          	addi	a0,sp,112
   10e70:	08012b83          	lw	s7,128(sp)
   10e74:	08412b03          	lw	s6,132(sp)
   10e78:	08812a83          	lw	s5,136(sp)
   10e7c:	08c12483          	lw	s1,140(sp)
   10e80:	1f8070ef          	jal	ra,18078 <__extenddftf2>
   10e84:	07812783          	lw	a5,120(sp)
   10e88:	07412703          	lw	a4,116(sp)
   10e8c:	07012683          	lw	a3,112(sp)
   10e90:	04f12c23          	sw	a5,88(sp)
   10e94:	07c12783          	lw	a5,124(sp)
   10e98:	04e12a23          	sw	a4,84(sp)
   10e9c:	06010513          	addi	a0,sp,96
   10ea0:	4003b737          	lui	a4,0x4003b
   10ea4:	05010593          	addi	a1,sp,80
   10ea8:	04010613          	addi	a2,sp,64
   10eac:	04d12823          	sw	a3,80(sp)
   10eb0:	04e12623          	sw	a4,76(sp)
   10eb4:	04f12e23          	sw	a5,92(sp)
   10eb8:	04012023          	sw	zero,64(sp)
   10ebc:	04012223          	sw	zero,68(sp)
   10ec0:	04012423          	sw	zero,72(sp)
   10ec4:	75d040ef          	jal	ra,15e20 <__multf3>
   10ec8:	06812783          	lw	a5,104(sp)
   10ecc:	06012683          	lw	a3,96(sp)
   10ed0:	06412703          	lw	a4,100(sp)
   10ed4:	02f12c23          	sw	a5,56(sp)
   10ed8:	06c12783          	lw	a5,108(sp)
   10edc:	05010513          	addi	a0,sp,80
   10ee0:	03010613          	addi	a2,sp,48
   10ee4:	04010593          	addi	a1,sp,64
   10ee8:	05712023          	sw	s7,64(sp)
   10eec:	05612223          	sw	s6,68(sp)
   10ef0:	05512423          	sw	s5,72(sp)
   10ef4:	04912623          	sw	s1,76(sp)
   10ef8:	02d12823          	sw	a3,48(sp)
   10efc:	02e12a23          	sw	a4,52(sp)
   10f00:	02f12e23          	sw	a5,60(sp)
   10f04:	5fd020ef          	jal	ra,13d00 <__addtf3>
   10f08:	05812783          	lw	a5,88(sp)
   10f0c:	05412703          	lw	a4,84(sp)
   10f10:	05012683          	lw	a3,80(sp)
   10f14:	02f12c23          	sw	a5,56(sp)
   10f18:	05c12783          	lw	a5,92(sp)
   10f1c:	02010613          	addi	a2,sp,32
   10f20:	02e12a23          	sw	a4,52(sp)
   10f24:	03010593          	addi	a1,sp,48
   10f28:	4004b737          	lui	a4,0x4004b
   10f2c:	04010513          	addi	a0,sp,64
   10f30:	02d12823          	sw	a3,48(sp)
   10f34:	02e12623          	sw	a4,44(sp)
   10f38:	02f12e23          	sw	a5,60(sp)
   10f3c:	02012023          	sw	zero,32(sp)
   10f40:	02012223          	sw	zero,36(sp)
   10f44:	02012423          	sw	zero,40(sp)
   10f48:	0a4040ef          	jal	ra,14fec <__divtf3>
   10f4c:	04012c03          	lw	s8,64(sp)
   10f50:	04412b83          	lw	s7,68(sp)
   10f54:	04812b03          	lw	s6,72(sp)
   10f58:	04c12483          	lw	s1,76(sp)
   10f5c:	0d010513          	addi	a0,sp,208
   10f60:	0d812823          	sw	s8,208(sp)
   10f64:	0d712a23          	sw	s7,212(sp)
   10f68:	0d612c23          	sw	s6,216(sp)
   10f6c:	0c912e23          	sw	s1,220(sp)
   10f70:	300070ef          	jal	ra,18270 <__trunctfdf2>
   10f74:	00a12023          	sw	a0,0(sp)
   10f78:	0d010513          	addi	a0,sp,208
   10f7c:	0d412823          	sw	s4,208(sp)
   10f80:	0d312a23          	sw	s3,212(sp)
   10f84:	0d212c23          	sw	s2,216(sp)
   10f88:	0c812e23          	sw	s0,220(sp)
   10f8c:	00058a93          	addi	s5,a1,0
   10f90:	00058d93          	addi	s11,a1,0
   10f94:	2dc070ef          	jal	ra,18270 <__trunctfdf2>
   10f98:	00a12423          	sw	a0,8(sp)
   10f9c:	00b12e23          	sw	a1,28(sp)
   10fa0:	0b010613          	addi	a2,sp,176
   10fa4:	0c010593          	addi	a1,sp,192
   10fa8:	0d010513          	addi	a0,sp,208
   10fac:	0d412023          	sw	s4,192(sp)
   10fb0:	0d312223          	sw	s3,196(sp)
   10fb4:	0d212423          	sw	s2,200(sp)
   10fb8:	0c812623          	sw	s0,204(sp)
   10fbc:	0b412823          	sw	s4,176(sp)
   10fc0:	0b312a23          	sw	s3,180(sp)
   10fc4:	0b212c23          	sw	s2,184(sp)
   10fc8:	0a812e23          	sw	s0,188(sp)
   10fcc:	655040ef          	jal	ra,15e20 <__multf3>
   10fd0:	0d812783          	lw	a5,216(sp)
   10fd4:	0d012683          	lw	a3,208(sp)
   10fd8:	0d412703          	lw	a4,212(sp)
   10fdc:	0af12c23          	sw	a5,184(sp)
   10fe0:	0dc12783          	lw	a5,220(sp)
   10fe4:	0a010613          	addi	a2,sp,160
   10fe8:	0b010593          	addi	a1,sp,176
   10fec:	0c010513          	addi	a0,sp,192
   10ff0:	0ad12823          	sw	a3,176(sp)
   10ff4:	0ae12a23          	sw	a4,180(sp)
   10ff8:	0af12e23          	sw	a5,188(sp)
   10ffc:	0b412023          	sw	s4,160(sp)
   11000:	0b312223          	sw	s3,164(sp)
   11004:	0b212423          	sw	s2,168(sp)
   11008:	0a812623          	sw	s0,172(sp)
   1100c:	615040ef          	jal	ra,15e20 <__multf3>
   11010:	0b010613          	addi	a2,sp,176
   11014:	0c010593          	addi	a1,sp,192
   11018:	0d010513          	addi	a0,sp,208
   1101c:	0c412a03          	lw	s4,196(sp)
   11020:	0c812c83          	lw	s9,200(sp)
   11024:	0c012903          	lw	s2,192(sp)
   11028:	0cc12d03          	lw	s10,204(sp)
   1102c:	0b812823          	sw	s8,176(sp)
   11030:	0b712a23          	sw	s7,180(sp)
   11034:	0b612c23          	sw	s6,184(sp)
   11038:	0a912e23          	sw	s1,188(sp)
   1103c:	0d812023          	sw	s8,192(sp)
   11040:	0d712223          	sw	s7,196(sp)
   11044:	0d612423          	sw	s6,200(sp)
   11048:	0c912623          	sw	s1,204(sp)
   1104c:	5d5040ef          	jal	ra,15e20 <__multf3>
   11050:	0d012583          	lw	a1,208(sp)
   11054:	0d412683          	lw	a3,212(sp)
   11058:	0d812703          	lw	a4,216(sp)
   1105c:	0dc12783          	lw	a5,220(sp)
   11060:	0a010613          	addi	a2,sp,160
   11064:	0ab12823          	sw	a1,176(sp)
   11068:	0c010513          	addi	a0,sp,192
   1106c:	0b010593          	addi	a1,sp,176
   11070:	0b412223          	sw	s4,164(sp)
   11074:	0b912423          	sw	s9,168(sp)
   11078:	0ad12a23          	sw	a3,180(sp)
   1107c:	0ae12c23          	sw	a4,184(sp)
   11080:	0af12e23          	sw	a5,188(sp)
   11084:	0b212023          	sw	s2,160(sp)
   11088:	0ba12623          	sw	s10,172(sp)
   1108c:	4d5050ef          	jal	ra,16d60 <__subtf3>
   11090:	0c012603          	lw	a2,192(sp)
   11094:	0c412683          	lw	a3,196(sp)
   11098:	0c812703          	lw	a4,200(sp)
   1109c:	0cc12783          	lw	a5,204(sp)
   110a0:	0b010513          	addi	a0,sp,176
   110a4:	0ac12823          	sw	a2,176(sp)
   110a8:	0ad12a23          	sw	a3,180(sp)
   110ac:	0ae12c23          	sw	a4,184(sp)
   110b0:	0af12e23          	sw	a5,188(sp)
   110b4:	1bc070ef          	jal	ra,18270 <__trunctfdf2>
   110b8:	00050993          	addi	s3,a0,0
   110bc:	0d010513          	addi	a0,sp,208
   110c0:	0d412a23          	sw	s4,212(sp)
   110c4:	0d912c23          	sw	s9,216(sp)
   110c8:	00058413          	addi	s0,a1,0
   110cc:	0d212823          	sw	s2,208(sp)
   110d0:	0da12e23          	sw	s10,220(sp)
   110d4:	19c070ef          	jal	ra,18270 <__trunctfdf2>
   110d8:	00000613          	addi	a2,zero,0
   110dc:	00000693          	addi	a3,zero,0
   110e0:	00050c93          	addi	s9,a0,0
   110e4:	00058a13          	addi	s4,a1,0
   110e8:	389010ef          	jal	ra,12c70 <__gedf2>
   110ec:	38a05ce3          	bge	zero,a0,11c84 <SolveCubic+0x1180>
   110f0:	00098513          	addi	a0,s3,0
   110f4:	00040593          	addi	a1,s0,0
   110f8:	00000613          	addi	a2,zero,0
   110fc:	00000693          	addi	a3,zero,0
   11100:	449010ef          	jal	ra,12d48 <__ledf2>
   11104:	3ea05863          	bge	zero,a0,114f4 <SolveCubic+0x9f0>
   11108:	dbc1aa03          	lw	s4,-580(gp) # 1bbdc <__SDATA_BEGIN__+0x84>
   1110c:	db81ac83          	lw	s9,-584(gp) # 1bbd8 <__SDATA_BEGIN__+0x80>
   11110:	12012703          	lw	a4,288(sp)
   11114:	00100793          	addi	a5,zero,1
   11118:	00098513          	addi	a0,s3,0
   1111c:	000c8613          	addi	a2,s9,0
   11120:	00040593          	addi	a1,s0,0
   11124:	000a0693          	addi	a3,s4,0
   11128:	00f72023          	sw	a5,0(a4) # 4004b000 <__BSS_END__+0x4002f040>
   1112c:	41d010ef          	jal	ra,12d48 <__ledf2>
   11130:	00054663          	blt	a0,zero,1113c <SolveCubic+0x638>
   11134:	00098c93          	addi	s9,s3,0
   11138:	00040a13          	addi	s4,s0,0
   1113c:	000c8613          	addi	a2,s9,0
   11140:	000a0693          	addi	a3,s4,0
   11144:	00098513          	addi	a0,s3,0
   11148:	00040593          	addi	a1,s0,0
   1114c:	3e8010ef          	jal	ra,12534 <__divdf3>
   11150:	000c8613          	addi	a2,s9,0
   11154:	000a0693          	addi	a3,s4,0
   11158:	491000ef          	jal	ra,11de8 <__adddf3>
   1115c:	d401a603          	lw	a2,-704(gp) # 1bb60 <__SDATA_BEGIN__+0x8>
   11160:	d441a683          	lw	a3,-700(gp) # 1bb64 <__SDATA_BEGIN__+0xc>
   11164:	4bd010ef          	jal	ra,12e20 <__muldf3>
   11168:	00050c93          	addi	s9,a0,0
   1116c:	00058d13          	addi	s10,a1,0
   11170:	00050613          	addi	a2,a0,0
   11174:	00058693          	addi	a3,a1,0
   11178:	00098513          	addi	a0,s3,0
   1117c:	00040593          	addi	a1,s0,0
   11180:	3b4010ef          	jal	ra,12534 <__divdf3>
   11184:	000c8613          	addi	a2,s9,0
   11188:	000d0693          	addi	a3,s10,0
   1118c:	45d000ef          	jal	ra,11de8 <__adddf3>
   11190:	d401a603          	lw	a2,-704(gp) # 1bb60 <__SDATA_BEGIN__+0x8>
   11194:	d441a683          	lw	a3,-700(gp) # 1bb64 <__SDATA_BEGIN__+0xc>
   11198:	489010ef          	jal	ra,12e20 <__muldf3>
   1119c:	00050c93          	addi	s9,a0,0
   111a0:	00058d13          	addi	s10,a1,0
   111a4:	00050613          	addi	a2,a0,0
   111a8:	00058693          	addi	a3,a1,0
   111ac:	00098513          	addi	a0,s3,0
   111b0:	00040593          	addi	a1,s0,0
   111b4:	380010ef          	jal	ra,12534 <__divdf3>
   111b8:	000c8613          	addi	a2,s9,0
   111bc:	000d0693          	addi	a3,s10,0
   111c0:	429000ef          	jal	ra,11de8 <__adddf3>
   111c4:	d401a603          	lw	a2,-704(gp) # 1bb60 <__SDATA_BEGIN__+0x8>
   111c8:	d441a683          	lw	a3,-700(gp) # 1bb64 <__SDATA_BEGIN__+0xc>
   111cc:	455010ef          	jal	ra,12e20 <__muldf3>
   111d0:	00050c93          	addi	s9,a0,0
   111d4:	00058d13          	addi	s10,a1,0
   111d8:	00050613          	addi	a2,a0,0
   111dc:	00058693          	addi	a3,a1,0
   111e0:	00098513          	addi	a0,s3,0
   111e4:	00040593          	addi	a1,s0,0
   111e8:	34c010ef          	jal	ra,12534 <__divdf3>
   111ec:	000c8613          	addi	a2,s9,0
   111f0:	000d0693          	addi	a3,s10,0
   111f4:	3f5000ef          	jal	ra,11de8 <__adddf3>
   111f8:	d401a603          	lw	a2,-704(gp) # 1bb60 <__SDATA_BEGIN__+0x8>
   111fc:	d441a683          	lw	a3,-700(gp) # 1bb64 <__SDATA_BEGIN__+0xc>
   11200:	421010ef          	jal	ra,12e20 <__muldf3>
   11204:	00050c93          	addi	s9,a0,0
   11208:	00058d13          	addi	s10,a1,0
   1120c:	00050613          	addi	a2,a0,0
   11210:	00058693          	addi	a3,a1,0
   11214:	00098513          	addi	a0,s3,0
   11218:	00040593          	addi	a1,s0,0
   1121c:	318010ef          	jal	ra,12534 <__divdf3>
   11220:	000c8613          	addi	a2,s9,0
   11224:	000d0693          	addi	a3,s10,0
   11228:	3c1000ef          	jal	ra,11de8 <__adddf3>
   1122c:	d401a603          	lw	a2,-704(gp) # 1bb60 <__SDATA_BEGIN__+0x8>
   11230:	d441a683          	lw	a3,-700(gp) # 1bb64 <__SDATA_BEGIN__+0xc>
   11234:	3ed010ef          	jal	ra,12e20 <__muldf3>
   11238:	00050c93          	addi	s9,a0,0
   1123c:	00058d13          	addi	s10,a1,0
   11240:	00050613          	addi	a2,a0,0
   11244:	00058693          	addi	a3,a1,0
   11248:	00098513          	addi	a0,s3,0
   1124c:	00040593          	addi	a1,s0,0
   11250:	2e4010ef          	jal	ra,12534 <__divdf3>
   11254:	000c8613          	addi	a2,s9,0
   11258:	000d0693          	addi	a3,s10,0
   1125c:	38d000ef          	jal	ra,11de8 <__adddf3>
   11260:	d401a603          	lw	a2,-704(gp) # 1bb60 <__SDATA_BEGIN__+0x8>
   11264:	d441a683          	lw	a3,-700(gp) # 1bb64 <__SDATA_BEGIN__+0xc>
   11268:	3b9010ef          	jal	ra,12e20 <__muldf3>
   1126c:	00050c93          	addi	s9,a0,0
   11270:	00058d13          	addi	s10,a1,0
   11274:	00050613          	addi	a2,a0,0
   11278:	00058693          	addi	a3,a1,0
   1127c:	00098513          	addi	a0,s3,0
   11280:	00040593          	addi	a1,s0,0
   11284:	2b0010ef          	jal	ra,12534 <__divdf3>
   11288:	000c8613          	addi	a2,s9,0
   1128c:	000d0693          	addi	a3,s10,0
   11290:	359000ef          	jal	ra,11de8 <__adddf3>
   11294:	d401a603          	lw	a2,-704(gp) # 1bb60 <__SDATA_BEGIN__+0x8>
   11298:	d441a683          	lw	a3,-700(gp) # 1bb64 <__SDATA_BEGIN__+0xc>
   1129c:	385010ef          	jal	ra,12e20 <__muldf3>
   112a0:	00050c93          	addi	s9,a0,0
   112a4:	00058d13          	addi	s10,a1,0
   112a8:	00050613          	addi	a2,a0,0
   112ac:	00058693          	addi	a3,a1,0
   112b0:	00098513          	addi	a0,s3,0
   112b4:	00040593          	addi	a1,s0,0
   112b8:	27c010ef          	jal	ra,12534 <__divdf3>
   112bc:	000c8613          	addi	a2,s9,0
   112c0:	000d0693          	addi	a3,s10,0
   112c4:	325000ef          	jal	ra,11de8 <__adddf3>
   112c8:	d401a603          	lw	a2,-704(gp) # 1bb60 <__SDATA_BEGIN__+0x8>
   112cc:	d441a683          	lw	a3,-700(gp) # 1bb64 <__SDATA_BEGIN__+0xc>
   112d0:	351010ef          	jal	ra,12e20 <__muldf3>
   112d4:	00050c93          	addi	s9,a0,0
   112d8:	00058d13          	addi	s10,a1,0
   112dc:	00050613          	addi	a2,a0,0
   112e0:	00058693          	addi	a3,a1,0
   112e4:	00098513          	addi	a0,s3,0
   112e8:	00040593          	addi	a1,s0,0
   112ec:	248010ef          	jal	ra,12534 <__divdf3>
   112f0:	000c8613          	addi	a2,s9,0
   112f4:	000d0693          	addi	a3,s10,0
   112f8:	2f1000ef          	jal	ra,11de8 <__adddf3>
   112fc:	d401a603          	lw	a2,-704(gp) # 1bb60 <__SDATA_BEGIN__+0x8>
   11300:	d441a683          	lw	a3,-700(gp) # 1bb64 <__SDATA_BEGIN__+0xc>
   11304:	31d010ef          	jal	ra,12e20 <__muldf3>
   11308:	00050c93          	addi	s9,a0,0
   1130c:	00058d13          	addi	s10,a1,0
   11310:	00050613          	addi	a2,a0,0
   11314:	00058693          	addi	a3,a1,0
   11318:	00098513          	addi	a0,s3,0
   1131c:	00040593          	addi	a1,s0,0
   11320:	214010ef          	jal	ra,12534 <__divdf3>
   11324:	000c8613          	addi	a2,s9,0
   11328:	000d0693          	addi	a3,s10,0
   1132c:	2bd000ef          	jal	ra,11de8 <__adddf3>
   11330:	d401a603          	lw	a2,-704(gp) # 1bb60 <__SDATA_BEGIN__+0x8>
   11334:	d441a683          	lw	a3,-700(gp) # 1bb64 <__SDATA_BEGIN__+0xc>
   11338:	2e9010ef          	jal	ra,12e20 <__muldf3>
   1133c:	00050c93          	addi	s9,a0,0
   11340:	00058d13          	addi	s10,a1,0
   11344:	00050613          	addi	a2,a0,0
   11348:	00058693          	addi	a3,a1,0
   1134c:	00098513          	addi	a0,s3,0
   11350:	00040593          	addi	a1,s0,0
   11354:	1e0010ef          	jal	ra,12534 <__divdf3>
   11358:	000c8613          	addi	a2,s9,0
   1135c:	000d0693          	addi	a3,s10,0
   11360:	289000ef          	jal	ra,11de8 <__adddf3>
   11364:	d401a603          	lw	a2,-704(gp) # 1bb60 <__SDATA_BEGIN__+0x8>
   11368:	d441a683          	lw	a3,-700(gp) # 1bb64 <__SDATA_BEGIN__+0xc>
   1136c:	2b5010ef          	jal	ra,12e20 <__muldf3>
   11370:	00050613          	addi	a2,a0,0
   11374:	00058693          	addi	a3,a1,0
   11378:	00050c93          	addi	s9,a0,0
   1137c:	00058d13          	addi	s10,a1,0
   11380:	00098513          	addi	a0,s3,0
   11384:	00040593          	addi	a1,s0,0
   11388:	1ac010ef          	jal	ra,12534 <__divdf3>
   1138c:	000c8613          	addi	a2,s9,0
   11390:	000d0693          	addi	a3,s10,0
   11394:	255000ef          	jal	ra,11de8 <__adddf3>
   11398:	d401a603          	lw	a2,-704(gp) # 1bb60 <__SDATA_BEGIN__+0x8>
   1139c:	d441a683          	lw	a3,-700(gp) # 1bb64 <__SDATA_BEGIN__+0xc>
   113a0:	281010ef          	jal	ra,12e20 <__muldf3>
   113a4:	00050993          	addi	s3,a0,0
   113a8:	00012503          	lw	a0,0(sp)
   113ac:	00058a13          	addi	s4,a1,0
   113b0:	00000613          	addi	a2,zero,0
   113b4:	000a8593          	addi	a1,s5,0
   113b8:	00000693          	addi	a3,zero,0
   113bc:	18d010ef          	jal	ra,12d48 <__ledf2>
   113c0:	70054263          	blt	a0,zero,11ac4 <SolveCubic+0xfc0>
   113c4:	00012503          	lw	a0,0(sp)
   113c8:	00098613          	addi	a2,s3,0
   113cc:	000a0693          	addi	a3,s4,0
   113d0:	000d8593          	addi	a1,s11,0
   113d4:	215000ef          	jal	ra,11de8 <__adddf3>
   113d8:	00000613          	addi	a2,zero,0
   113dc:	00000693          	addi	a3,zero,0
   113e0:	00050d13          	addi	s10,a0,0
   113e4:	00058c93          	addi	s9,a1,0
   113e8:	005010ef          	jal	ra,12bec <__eqdf2>
   113ec:	6e050263          	beq	a0,zero,11ad0 <SolveCubic+0xfcc>
   113f0:	dbc1aa03          	lw	s4,-580(gp) # 1bbdc <__SDATA_BEGIN__+0x84>
   113f4:	db81aa83          	lw	s5,-584(gp) # 1bbd8 <__SDATA_BEGIN__+0x80>
   113f8:	000d0513          	addi	a0,s10,0
   113fc:	000c8593          	addi	a1,s9,0
   11400:	000a8613          	addi	a2,s5,0
   11404:	000a0693          	addi	a3,s4,0
   11408:	141010ef          	jal	ra,12d48 <__ledf2>
   1140c:	00054663          	blt	a0,zero,11418 <SolveCubic+0x914>
   11410:	000d0a93          	addi	s5,s10,0
   11414:	000c8a13          	addi	s4,s9,0
   11418:	01200413          	addi	s0,zero,18
   1141c:	000a8613          	addi	a2,s5,0
   11420:	000a0693          	addi	a3,s4,0
   11424:	000a8513          	addi	a0,s5,0
   11428:	000a0593          	addi	a1,s4,0
   1142c:	1f5010ef          	jal	ra,12e20 <__muldf3>
   11430:	00000613          	addi	a2,zero,0
   11434:	00000693          	addi	a3,zero,0
   11438:	00a12023          	sw	a0,0(sp)
   1143c:	00b12223          	sw	a1,4(sp)
   11440:	7ac010ef          	jal	ra,12bec <__eqdf2>
   11444:	000a8613          	addi	a2,s5,0
   11448:	06050063          	beq	a0,zero,114a8 <SolveCubic+0x9a4>
   1144c:	000a0693          	addi	a3,s4,0
   11450:	00060513          	addi	a0,a2,0
   11454:	000a0593          	addi	a1,s4,0
   11458:	191000ef          	jal	ra,11de8 <__adddf3>
   1145c:	00012603          	lw	a2,0(sp)
   11460:	00412683          	lw	a3,4(sp)
   11464:	00050a13          	addi	s4,a0,0
   11468:	00058a93          	addi	s5,a1,0
   1146c:	000d0513          	addi	a0,s10,0
   11470:	000c8593          	addi	a1,s9,0
   11474:	0c0010ef          	jal	ra,12534 <__divdf3>
   11478:	00050613          	addi	a2,a0,0
   1147c:	00058693          	addi	a3,a1,0
   11480:	000a0513          	addi	a0,s4,0
   11484:	000a8593          	addi	a1,s5,0
   11488:	161000ef          	jal	ra,11de8 <__adddf3>
   1148c:	de01a603          	lw	a2,-544(gp) # 1bc00 <__SDATA_BEGIN__+0xa8>
   11490:	de41a683          	lw	a3,-540(gp) # 1bc04 <__SDATA_BEGIN__+0xac>
   11494:	fff40413          	addi	s0,s0,-1
   11498:	09c010ef          	jal	ra,12534 <__divdf3>
   1149c:	00050a93          	addi	s5,a0,0
   114a0:	00058a13          	addi	s4,a1,0
   114a4:	f6041ce3          	bne	s0,zero,1141c <SolveCubic+0x918>
   114a8:	000a8513          	addi	a0,s5,0
   114ac:	000a0593          	addi	a1,s4,0
   114b0:	00000613          	addi	a2,zero,0
   114b4:	00000693          	addi	a3,zero,0
   114b8:	734010ef          	jal	ra,12bec <__eqdf2>
   114bc:	60050e63          	beq	a0,zero,11ad8 <SolveCubic+0xfd4>
   114c0:	00812503          	lw	a0,8(sp)
   114c4:	01c12583          	lw	a1,28(sp)
   114c8:	000a8613          	addi	a2,s5,0
   114cc:	000a0693          	addi	a3,s4,0
   114d0:	064010ef          	jal	ra,12534 <__divdf3>
   114d4:	00050613          	addi	a2,a0,0
   114d8:	00058693          	addi	a3,a1,0
   114dc:	000a8513          	addi	a0,s5,0
   114e0:	000a0593          	addi	a1,s4,0
   114e4:	105000ef          	jal	ra,11de8 <__adddf3>
   114e8:	00050a93          	addi	s5,a0,0
   114ec:	00058a13          	addi	s4,a1,0
   114f0:	5e80006f          	jal	zero,11ad8 <SolveCubic+0xfd4>
   114f4:	dbc1a403          	lw	s0,-580(gp) # 1bbdc <__SDATA_BEGIN__+0x84>
   114f8:	db81a483          	lw	s1,-584(gp) # 1bbd8 <__SDATA_BEGIN__+0x80>
   114fc:	000c8513          	addi	a0,s9,0
   11500:	000a0593          	addi	a1,s4,0
   11504:	00048613          	addi	a2,s1,0
   11508:	00040693          	addi	a3,s0,0
   1150c:	03d010ef          	jal	ra,12d48 <__ledf2>
   11510:	00054663          	blt	a0,zero,1151c <SolveCubic+0xa18>
   11514:	000c8493          	addi	s1,s9,0
   11518:	000a0413          	addi	s0,s4,0
   1151c:	00048613          	addi	a2,s1,0
   11520:	00040693          	addi	a3,s0,0
   11524:	000c8513          	addi	a0,s9,0
   11528:	000a0593          	addi	a1,s4,0
   1152c:	008010ef          	jal	ra,12534 <__divdf3>
   11530:	00048613          	addi	a2,s1,0
   11534:	00040693          	addi	a3,s0,0
   11538:	0b1000ef          	jal	ra,11de8 <__adddf3>
   1153c:	d401a603          	lw	a2,-704(gp) # 1bb60 <__SDATA_BEGIN__+0x8>
   11540:	d441a683          	lw	a3,-700(gp) # 1bb64 <__SDATA_BEGIN__+0xc>
   11544:	0dd010ef          	jal	ra,12e20 <__muldf3>
   11548:	00050413          	addi	s0,a0,0
   1154c:	00058493          	addi	s1,a1,0
   11550:	00050613          	addi	a2,a0,0
   11554:	00058693          	addi	a3,a1,0
   11558:	000c8513          	addi	a0,s9,0
   1155c:	000a0593          	addi	a1,s4,0
   11560:	7d5000ef          	jal	ra,12534 <__divdf3>
   11564:	00040613          	addi	a2,s0,0
   11568:	00048693          	addi	a3,s1,0
   1156c:	07d000ef          	jal	ra,11de8 <__adddf3>
   11570:	d401a603          	lw	a2,-704(gp) # 1bb60 <__SDATA_BEGIN__+0x8>
   11574:	d441a683          	lw	a3,-700(gp) # 1bb64 <__SDATA_BEGIN__+0xc>
   11578:	0a9010ef          	jal	ra,12e20 <__muldf3>
   1157c:	00050413          	addi	s0,a0,0
   11580:	00058493          	addi	s1,a1,0
   11584:	00050613          	addi	a2,a0,0
   11588:	00058693          	addi	a3,a1,0
   1158c:	000c8513          	addi	a0,s9,0
   11590:	000a0593          	addi	a1,s4,0
   11594:	7a1000ef          	jal	ra,12534 <__divdf3>
   11598:	00040613          	addi	a2,s0,0
   1159c:	00048693          	addi	a3,s1,0
   115a0:	049000ef          	jal	ra,11de8 <__adddf3>
   115a4:	d401a603          	lw	a2,-704(gp) # 1bb60 <__SDATA_BEGIN__+0x8>
   115a8:	d441a683          	lw	a3,-700(gp) # 1bb64 <__SDATA_BEGIN__+0xc>
   115ac:	075010ef          	jal	ra,12e20 <__muldf3>
   115b0:	00050413          	addi	s0,a0,0
   115b4:	00058493          	addi	s1,a1,0
   115b8:	00050613          	addi	a2,a0,0
   115bc:	00058693          	addi	a3,a1,0
   115c0:	000c8513          	addi	a0,s9,0
   115c4:	000a0593          	addi	a1,s4,0
   115c8:	76d000ef          	jal	ra,12534 <__divdf3>
   115cc:	00040613          	addi	a2,s0,0
   115d0:	00048693          	addi	a3,s1,0
   115d4:	015000ef          	jal	ra,11de8 <__adddf3>
   115d8:	d401a603          	lw	a2,-704(gp) # 1bb60 <__SDATA_BEGIN__+0x8>
   115dc:	d441a683          	lw	a3,-700(gp) # 1bb64 <__SDATA_BEGIN__+0xc>
   115e0:	041010ef          	jal	ra,12e20 <__muldf3>
   115e4:	00050413          	addi	s0,a0,0
   115e8:	00058493          	addi	s1,a1,0
   115ec:	00050613          	addi	a2,a0,0
   115f0:	00058693          	addi	a3,a1,0
   115f4:	000c8513          	addi	a0,s9,0
   115f8:	000a0593          	addi	a1,s4,0
   115fc:	739000ef          	jal	ra,12534 <__divdf3>
   11600:	00040613          	addi	a2,s0,0
   11604:	00048693          	addi	a3,s1,0
   11608:	7e0000ef          	jal	ra,11de8 <__adddf3>
   1160c:	d401a603          	lw	a2,-704(gp) # 1bb60 <__SDATA_BEGIN__+0x8>
   11610:	d441a683          	lw	a3,-700(gp) # 1bb64 <__SDATA_BEGIN__+0xc>
   11614:	00d010ef          	jal	ra,12e20 <__muldf3>
   11618:	00050413          	addi	s0,a0,0
   1161c:	00058493          	addi	s1,a1,0
   11620:	00050613          	addi	a2,a0,0
   11624:	00058693          	addi	a3,a1,0
   11628:	000c8513          	addi	a0,s9,0
   1162c:	000a0593          	addi	a1,s4,0
   11630:	705000ef          	jal	ra,12534 <__divdf3>
   11634:	00040613          	addi	a2,s0,0
   11638:	00048693          	addi	a3,s1,0
   1163c:	7ac000ef          	jal	ra,11de8 <__adddf3>
   11640:	d401a603          	lw	a2,-704(gp) # 1bb60 <__SDATA_BEGIN__+0x8>
   11644:	d441a683          	lw	a3,-700(gp) # 1bb64 <__SDATA_BEGIN__+0xc>
   11648:	7d8010ef          	jal	ra,12e20 <__muldf3>
   1164c:	00050413          	addi	s0,a0,0
   11650:	00058493          	addi	s1,a1,0
   11654:	00050613          	addi	a2,a0,0
   11658:	00058693          	addi	a3,a1,0
   1165c:	000c8513          	addi	a0,s9,0
   11660:	000a0593          	addi	a1,s4,0
   11664:	6d1000ef          	jal	ra,12534 <__divdf3>
   11668:	00040613          	addi	a2,s0,0
   1166c:	00048693          	addi	a3,s1,0
   11670:	778000ef          	jal	ra,11de8 <__adddf3>
   11674:	d401a603          	lw	a2,-704(gp) # 1bb60 <__SDATA_BEGIN__+0x8>
   11678:	d441a683          	lw	a3,-700(gp) # 1bb64 <__SDATA_BEGIN__+0xc>
   1167c:	7a4010ef          	jal	ra,12e20 <__muldf3>
   11680:	00050413          	addi	s0,a0,0
   11684:	00058493          	addi	s1,a1,0
   11688:	00050613          	addi	a2,a0,0
   1168c:	00058693          	addi	a3,a1,0
   11690:	000c8513          	addi	a0,s9,0
   11694:	000a0593          	addi	a1,s4,0
   11698:	69d000ef          	jal	ra,12534 <__divdf3>
   1169c:	00040613          	addi	a2,s0,0
   116a0:	00048693          	addi	a3,s1,0
   116a4:	744000ef          	jal	ra,11de8 <__adddf3>
   116a8:	d401a603          	lw	a2,-704(gp) # 1bb60 <__SDATA_BEGIN__+0x8>
   116ac:	d441a683          	lw	a3,-700(gp) # 1bb64 <__SDATA_BEGIN__+0xc>
   116b0:	770010ef          	jal	ra,12e20 <__muldf3>
   116b4:	00050413          	addi	s0,a0,0
   116b8:	00058493          	addi	s1,a1,0
   116bc:	00050613          	addi	a2,a0,0
   116c0:	00058693          	addi	a3,a1,0
   116c4:	000c8513          	addi	a0,s9,0
   116c8:	000a0593          	addi	a1,s4,0
   116cc:	669000ef          	jal	ra,12534 <__divdf3>
   116d0:	00040613          	addi	a2,s0,0
   116d4:	00048693          	addi	a3,s1,0
   116d8:	710000ef          	jal	ra,11de8 <__adddf3>
   116dc:	d401a603          	lw	a2,-704(gp) # 1bb60 <__SDATA_BEGIN__+0x8>
   116e0:	d441a683          	lw	a3,-700(gp) # 1bb64 <__SDATA_BEGIN__+0xc>
   116e4:	73c010ef          	jal	ra,12e20 <__muldf3>
   116e8:	00050413          	addi	s0,a0,0
   116ec:	00058493          	addi	s1,a1,0
   116f0:	00050613          	addi	a2,a0,0
   116f4:	00058693          	addi	a3,a1,0
   116f8:	000c8513          	addi	a0,s9,0
   116fc:	000a0593          	addi	a1,s4,0
   11700:	635000ef          	jal	ra,12534 <__divdf3>
   11704:	00040613          	addi	a2,s0,0
   11708:	00048693          	addi	a3,s1,0
   1170c:	6dc000ef          	jal	ra,11de8 <__adddf3>
   11710:	d401a603          	lw	a2,-704(gp) # 1bb60 <__SDATA_BEGIN__+0x8>
   11714:	d441a683          	lw	a3,-700(gp) # 1bb64 <__SDATA_BEGIN__+0xc>
   11718:	708010ef          	jal	ra,12e20 <__muldf3>
   1171c:	00050413          	addi	s0,a0,0
   11720:	00058493          	addi	s1,a1,0
   11724:	00050613          	addi	a2,a0,0
   11728:	00058693          	addi	a3,a1,0
   1172c:	000c8513          	addi	a0,s9,0
   11730:	000a0593          	addi	a1,s4,0
   11734:	601000ef          	jal	ra,12534 <__divdf3>
   11738:	00040613          	addi	a2,s0,0
   1173c:	00048693          	addi	a3,s1,0
   11740:	6a8000ef          	jal	ra,11de8 <__adddf3>
   11744:	d401a603          	lw	a2,-704(gp) # 1bb60 <__SDATA_BEGIN__+0x8>
   11748:	d441a683          	lw	a3,-700(gp) # 1bb64 <__SDATA_BEGIN__+0xc>
   1174c:	6d4010ef          	jal	ra,12e20 <__muldf3>
   11750:	00050413          	addi	s0,a0,0
   11754:	00058493          	addi	s1,a1,0
   11758:	00050613          	addi	a2,a0,0
   1175c:	00058693          	addi	a3,a1,0
   11760:	000c8513          	addi	a0,s9,0
   11764:	000a0593          	addi	a1,s4,0
   11768:	5cd000ef          	jal	ra,12534 <__divdf3>
   1176c:	00040613          	addi	a2,s0,0
   11770:	00048693          	addi	a3,s1,0
   11774:	674000ef          	jal	ra,11de8 <__adddf3>
   11778:	d401a603          	lw	a2,-704(gp) # 1bb60 <__SDATA_BEGIN__+0x8>
   1177c:	d441a683          	lw	a3,-700(gp) # 1bb64 <__SDATA_BEGIN__+0xc>
   11780:	6a0010ef          	jal	ra,12e20 <__muldf3>
   11784:	00000613          	addi	a2,zero,0
   11788:	00000693          	addi	a3,zero,0
   1178c:	00050413          	addi	s0,a0,0
   11790:	00058493          	addi	s1,a1,0
   11794:	4dc010ef          	jal	ra,12c70 <__gedf2>
   11798:	50a05263          	bge	zero,a0,11c9c <SolveCubic+0x1198>
   1179c:	00012503          	lw	a0,0(sp)
   117a0:	00040613          	addi	a2,s0,0
   117a4:	00048693          	addi	a3,s1,0
   117a8:	000a8593          	addi	a1,s5,0
   117ac:	589000ef          	jal	ra,12534 <__divdf3>
   117b0:	db81a603          	lw	a2,-584(gp) # 1bbd8 <__SDATA_BEGIN__+0x80>
   117b4:	dbc1a683          	lw	a3,-580(gp) # 1bbdc <__SDATA_BEGIN__+0x84>
   117b8:	00050413          	addi	s0,a0,0
   117bc:	00058493          	addi	s1,a1,0
   117c0:	4b0010ef          	jal	ra,12c70 <__gedf2>
   117c4:	00000a13          	addi	s4,zero,0
   117c8:	00000993          	addi	s3,zero,0
   117cc:	4ea05e63          	bge	zero,a0,11cc8 <SolveCubic+0x11c4>
   117d0:	00812b03          	lw	s6,8(sp)
   117d4:	01c12a83          	lw	s5,28(sp)
   117d8:	12012703          	lw	a4,288(sp)
   117dc:	00300793          	addi	a5,zero,3
   117e0:	000b0513          	addi	a0,s6,0
   117e4:	000a8593          	addi	a1,s5,0
   117e8:	00000613          	addi	a2,zero,0
   117ec:	00000693          	addi	a3,zero,0
   117f0:	00f72023          	sw	a5,0(a4)
   117f4:	47c010ef          	jal	ra,12c70 <__gedf2>
   117f8:	38054463          	blt	a0,zero,11b80 <SolveCubic+0x107c>
   117fc:	000b0513          	addi	a0,s6,0
   11800:	000a8593          	addi	a1,s5,0
   11804:	00000613          	addi	a2,zero,0
   11808:	00000693          	addi	a3,zero,0
   1180c:	3e0010ef          	jal	ra,12bec <__eqdf2>
   11810:	36050863          	beq	a0,zero,11b80 <SolveCubic+0x107c>
   11814:	dbc1a403          	lw	s0,-580(gp) # 1bbdc <__SDATA_BEGIN__+0x84>
   11818:	db81a483          	lw	s1,-584(gp) # 1bbd8 <__SDATA_BEGIN__+0x80>
   1181c:	000b0513          	addi	a0,s6,0
   11820:	000a8593          	addi	a1,s5,0
   11824:	00048613          	addi	a2,s1,0
   11828:	00040693          	addi	a3,s0,0
   1182c:	51c010ef          	jal	ra,12d48 <__ledf2>
   11830:	00054663          	blt	a0,zero,1183c <SolveCubic+0xd38>
   11834:	000b0493          	addi	s1,s6,0
   11838:	000a8413          	addi	s0,s5,0
   1183c:	00812b03          	lw	s6,8(sp)
   11840:	01c12a83          	lw	s5,28(sp)
   11844:	00048613          	addi	a2,s1,0
   11848:	00040693          	addi	a3,s0,0
   1184c:	000b0513          	addi	a0,s6,0
   11850:	000a8593          	addi	a1,s5,0
   11854:	4e1000ef          	jal	ra,12534 <__divdf3>
   11858:	00048613          	addi	a2,s1,0
   1185c:	00040693          	addi	a3,s0,0
   11860:	588000ef          	jal	ra,11de8 <__adddf3>
   11864:	d401a603          	lw	a2,-704(gp) # 1bb60 <__SDATA_BEGIN__+0x8>
   11868:	d441a683          	lw	a3,-700(gp) # 1bb64 <__SDATA_BEGIN__+0xc>
   1186c:	5b4010ef          	jal	ra,12e20 <__muldf3>
   11870:	00050413          	addi	s0,a0,0
   11874:	00058493          	addi	s1,a1,0
   11878:	00050613          	addi	a2,a0,0
   1187c:	00058693          	addi	a3,a1,0
   11880:	000b0513          	addi	a0,s6,0
   11884:	000a8593          	addi	a1,s5,0
   11888:	4ad000ef          	jal	ra,12534 <__divdf3>
   1188c:	00040613          	addi	a2,s0,0
   11890:	00048693          	addi	a3,s1,0
   11894:	554000ef          	jal	ra,11de8 <__adddf3>
   11898:	d401a603          	lw	a2,-704(gp) # 1bb60 <__SDATA_BEGIN__+0x8>
   1189c:	d441a683          	lw	a3,-700(gp) # 1bb64 <__SDATA_BEGIN__+0xc>
   118a0:	580010ef          	jal	ra,12e20 <__muldf3>
   118a4:	00050413          	addi	s0,a0,0
   118a8:	00058493          	addi	s1,a1,0
   118ac:	00050613          	addi	a2,a0,0
   118b0:	00058693          	addi	a3,a1,0
   118b4:	000b0513          	addi	a0,s6,0
   118b8:	000a8593          	addi	a1,s5,0
   118bc:	479000ef          	jal	ra,12534 <__divdf3>
   118c0:	00040613          	addi	a2,s0,0
   118c4:	00048693          	addi	a3,s1,0
   118c8:	520000ef          	jal	ra,11de8 <__adddf3>
   118cc:	d401a603          	lw	a2,-704(gp) # 1bb60 <__SDATA_BEGIN__+0x8>
   118d0:	d441a683          	lw	a3,-700(gp) # 1bb64 <__SDATA_BEGIN__+0xc>
   118d4:	54c010ef          	jal	ra,12e20 <__muldf3>
   118d8:	00050413          	addi	s0,a0,0
   118dc:	00058493          	addi	s1,a1,0
   118e0:	00050613          	addi	a2,a0,0
   118e4:	00058693          	addi	a3,a1,0
   118e8:	000b0513          	addi	a0,s6,0
   118ec:	000a8593          	addi	a1,s5,0
   118f0:	445000ef          	jal	ra,12534 <__divdf3>
   118f4:	00040613          	addi	a2,s0,0
   118f8:	00048693          	addi	a3,s1,0
   118fc:	4ec000ef          	jal	ra,11de8 <__adddf3>
   11900:	d401a603          	lw	a2,-704(gp) # 1bb60 <__SDATA_BEGIN__+0x8>
   11904:	d441a683          	lw	a3,-700(gp) # 1bb64 <__SDATA_BEGIN__+0xc>
   11908:	518010ef          	jal	ra,12e20 <__muldf3>
   1190c:	00050413          	addi	s0,a0,0
   11910:	00058493          	addi	s1,a1,0
   11914:	00050613          	addi	a2,a0,0
   11918:	00058693          	addi	a3,a1,0
   1191c:	000b0513          	addi	a0,s6,0
   11920:	000a8593          	addi	a1,s5,0
   11924:	411000ef          	jal	ra,12534 <__divdf3>
   11928:	00040613          	addi	a2,s0,0
   1192c:	00048693          	addi	a3,s1,0
   11930:	4b8000ef          	jal	ra,11de8 <__adddf3>
   11934:	d401a603          	lw	a2,-704(gp) # 1bb60 <__SDATA_BEGIN__+0x8>
   11938:	d441a683          	lw	a3,-700(gp) # 1bb64 <__SDATA_BEGIN__+0xc>
   1193c:	4e4010ef          	jal	ra,12e20 <__muldf3>
   11940:	00050413          	addi	s0,a0,0
   11944:	00058493          	addi	s1,a1,0
   11948:	00050613          	addi	a2,a0,0
   1194c:	00058693          	addi	a3,a1,0
   11950:	000b0513          	addi	a0,s6,0
   11954:	000a8593          	addi	a1,s5,0
   11958:	3dd000ef          	jal	ra,12534 <__divdf3>
   1195c:	00040613          	addi	a2,s0,0
   11960:	00048693          	addi	a3,s1,0
   11964:	484000ef          	jal	ra,11de8 <__adddf3>
   11968:	d401a603          	lw	a2,-704(gp) # 1bb60 <__SDATA_BEGIN__+0x8>
   1196c:	d441a683          	lw	a3,-700(gp) # 1bb64 <__SDATA_BEGIN__+0xc>
   11970:	4b0010ef          	jal	ra,12e20 <__muldf3>
   11974:	00050413          	addi	s0,a0,0
   11978:	00058493          	addi	s1,a1,0
   1197c:	00050613          	addi	a2,a0,0
   11980:	00058693          	addi	a3,a1,0
   11984:	000b0513          	addi	a0,s6,0
   11988:	000a8593          	addi	a1,s5,0
   1198c:	3a9000ef          	jal	ra,12534 <__divdf3>
   11990:	00040613          	addi	a2,s0,0
   11994:	00048693          	addi	a3,s1,0
   11998:	450000ef          	jal	ra,11de8 <__adddf3>
   1199c:	d401a603          	lw	a2,-704(gp) # 1bb60 <__SDATA_BEGIN__+0x8>
   119a0:	d441a683          	lw	a3,-700(gp) # 1bb64 <__SDATA_BEGIN__+0xc>
   119a4:	47c010ef          	jal	ra,12e20 <__muldf3>
   119a8:	00050413          	addi	s0,a0,0
   119ac:	00058493          	addi	s1,a1,0
   119b0:	00050613          	addi	a2,a0,0
   119b4:	00058693          	addi	a3,a1,0
   119b8:	000b0513          	addi	a0,s6,0
   119bc:	000a8593          	addi	a1,s5,0
   119c0:	375000ef          	jal	ra,12534 <__divdf3>
   119c4:	00040613          	addi	a2,s0,0
   119c8:	00048693          	addi	a3,s1,0
   119cc:	41c000ef          	jal	ra,11de8 <__adddf3>
   119d0:	d401a603          	lw	a2,-704(gp) # 1bb60 <__SDATA_BEGIN__+0x8>
   119d4:	d441a683          	lw	a3,-700(gp) # 1bb64 <__SDATA_BEGIN__+0xc>
   119d8:	448010ef          	jal	ra,12e20 <__muldf3>
   119dc:	00050413          	addi	s0,a0,0
   119e0:	00058493          	addi	s1,a1,0
   119e4:	00050613          	addi	a2,a0,0
   119e8:	00058693          	addi	a3,a1,0
   119ec:	000b0513          	addi	a0,s6,0
   119f0:	000a8593          	addi	a1,s5,0
   119f4:	341000ef          	jal	ra,12534 <__divdf3>
   119f8:	00040613          	addi	a2,s0,0
   119fc:	00048693          	addi	a3,s1,0
   11a00:	3e8000ef          	jal	ra,11de8 <__adddf3>
   11a04:	d401a603          	lw	a2,-704(gp) # 1bb60 <__SDATA_BEGIN__+0x8>
   11a08:	d441a683          	lw	a3,-700(gp) # 1bb64 <__SDATA_BEGIN__+0xc>
   11a0c:	414010ef          	jal	ra,12e20 <__muldf3>
   11a10:	00050413          	addi	s0,a0,0
   11a14:	00058493          	addi	s1,a1,0
   11a18:	00050613          	addi	a2,a0,0
   11a1c:	00058693          	addi	a3,a1,0
   11a20:	000b0513          	addi	a0,s6,0
   11a24:	000a8593          	addi	a1,s5,0
   11a28:	30d000ef          	jal	ra,12534 <__divdf3>
   11a2c:	00040613          	addi	a2,s0,0
   11a30:	00048693          	addi	a3,s1,0
   11a34:	3b4000ef          	jal	ra,11de8 <__adddf3>
   11a38:	d401a603          	lw	a2,-704(gp) # 1bb60 <__SDATA_BEGIN__+0x8>
   11a3c:	d441a683          	lw	a3,-700(gp) # 1bb64 <__SDATA_BEGIN__+0xc>
   11a40:	3e0010ef          	jal	ra,12e20 <__muldf3>
   11a44:	00050413          	addi	s0,a0,0
   11a48:	00058493          	addi	s1,a1,0
   11a4c:	00050613          	addi	a2,a0,0
   11a50:	00058693          	addi	a3,a1,0
   11a54:	000b0513          	addi	a0,s6,0
   11a58:	000a8593          	addi	a1,s5,0
   11a5c:	2d9000ef          	jal	ra,12534 <__divdf3>
   11a60:	00040613          	addi	a2,s0,0
   11a64:	00048693          	addi	a3,s1,0
   11a68:	380000ef          	jal	ra,11de8 <__adddf3>
   11a6c:	d401a603          	lw	a2,-704(gp) # 1bb60 <__SDATA_BEGIN__+0x8>
   11a70:	d441a683          	lw	a3,-700(gp) # 1bb64 <__SDATA_BEGIN__+0xc>
   11a74:	3ac010ef          	jal	ra,12e20 <__muldf3>
   11a78:	00058493          	addi	s1,a1,0
   11a7c:	00050613          	addi	a2,a0,0
   11a80:	00058693          	addi	a3,a1,0
   11a84:	00050413          	addi	s0,a0,0
   11a88:	000a8593          	addi	a1,s5,0
   11a8c:	000b0513          	addi	a0,s6,0
   11a90:	2a5000ef          	jal	ra,12534 <__divdf3>
   11a94:	00048693          	addi	a3,s1,0
   11a98:	00040613          	addi	a2,s0,0
   11a9c:	34c000ef          	jal	ra,11de8 <__adddf3>
   11aa0:	d401a603          	lw	a2,-704(gp) # 1bb60 <__SDATA_BEGIN__+0x8>
   11aa4:	d441a683          	lw	a3,-700(gp) # 1bb64 <__SDATA_BEGIN__+0xc>
   11aa8:	378010ef          	jal	ra,12e20 <__muldf3>
   11aac:	dd81a603          	lw	a2,-552(gp) # 1bbf8 <__SDATA_BEGIN__+0xa0>
   11ab0:	ddc1a683          	lw	a3,-548(gp) # 1bbfc <__SDATA_BEGIN__+0xa4>
   11ab4:	36c010ef          	jal	ra,12e20 <__muldf3>
   11ab8:	00050913          	addi	s2,a0,0
   11abc:	00058493          	addi	s1,a1,0
   11ac0:	0c80006f          	jal	zero,11b88 <SolveCubic+0x1084>
   11ac4:	800007b7          	lui	a5,0x80000
   11ac8:	0157cdb3          	xor	s11,a5,s5
   11acc:	8f9ff06f          	jal	zero,113c4 <SolveCubic+0x8c0>
   11ad0:	00000a93          	addi	s5,zero,0
   11ad4:	00000a13          	addi	s4,zero,0
   11ad8:	0c010593          	addi	a1,sp,192
   11adc:	0d010513          	addi	a0,sp,208
   11ae0:	0d812823          	sw	s8,208(sp)
   11ae4:	0d712a23          	sw	s7,212(sp)
   11ae8:	0d612c23          	sw	s6,216(sp)
   11aec:	0c912e23          	sw	s1,220(sp)
   11af0:	0c012023          	sw	zero,192(sp)
   11af4:	0c012223          	sw	zero,196(sp)
   11af8:	0c012423          	sw	zero,200(sp)
   11afc:	0c012623          	sw	zero,204(sp)
   11b00:	1ec040ef          	jal	ra,15cec <__letf2>
   11b04:	00054663          	blt	a0,zero,11b10 <SolveCubic+0x100c>
   11b08:	800007b7          	lui	a5,0x80000
   11b0c:	00fa4a33          	xor	s4,s4,a5
   11b10:	de01a603          	lw	a2,-544(gp) # 1bc00 <__SDATA_BEGIN__+0xa8>
   11b14:	de41a683          	lw	a3,-540(gp) # 1bc04 <__SDATA_BEGIN__+0xac>
   11b18:	01012503          	lw	a0,16(sp)
   11b1c:	01412583          	lw	a1,20(sp)
   11b20:	215000ef          	jal	ra,12534 <__divdf3>
   11b24:	00050613          	addi	a2,a0,0
   11b28:	00058693          	addi	a3,a1,0
   11b2c:	000a8513          	addi	a0,s5,0
   11b30:	000a0593          	addi	a1,s4,0
   11b34:	0d5010ef          	jal	ra,13408 <__subdf3>
   11b38:	12412783          	lw	a5,292(sp)
   11b3c:	00a7a023          	sw	a0,0(a5) # 80000000 <__BSS_END__+0x7ffe4040>
   11b40:	00b7a223          	sw	a1,4(a5)
   11b44:	11c12083          	lw	ra,284(sp)
   11b48:	11812403          	lw	s0,280(sp)
   11b4c:	11412483          	lw	s1,276(sp)
   11b50:	11012903          	lw	s2,272(sp)
   11b54:	10c12983          	lw	s3,268(sp)
   11b58:	10812a03          	lw	s4,264(sp)
   11b5c:	10412a83          	lw	s5,260(sp)
   11b60:	10012b03          	lw	s6,256(sp)
   11b64:	0fc12b83          	lw	s7,252(sp)
   11b68:	0f812c03          	lw	s8,248(sp)
   11b6c:	0f412c83          	lw	s9,244(sp)
   11b70:	0f012d03          	lw	s10,240(sp)
   11b74:	0ec12d83          	lw	s11,236(sp)
   11b78:	12010113          	addi	sp,sp,288
   11b7c:	00008067          	jalr	zero,0(ra)
   11b80:	dc81a903          	lw	s2,-568(gp) # 1bbe8 <__SDATA_BEGIN__+0x90>
   11b84:	dcc1a483          	lw	s1,-564(gp) # 1bbec <__SDATA_BEGIN__+0x94>
   11b88:	de01a603          	lw	a2,-544(gp) # 1bc00 <__SDATA_BEGIN__+0xa8>
   11b8c:	de41a683          	lw	a3,-540(gp) # 1bc04 <__SDATA_BEGIN__+0xac>
   11b90:	01012503          	lw	a0,16(sp)
   11b94:	01412583          	lw	a1,20(sp)
   11b98:	19d000ef          	jal	ra,12534 <__divdf3>
   11b9c:	de01a603          	lw	a2,-544(gp) # 1bc00 <__SDATA_BEGIN__+0xa8>
   11ba0:	de41a683          	lw	a3,-540(gp) # 1bc04 <__SDATA_BEGIN__+0xac>
   11ba4:	00050b13          	addi	s6,a0,0
   11ba8:	00058b93          	addi	s7,a1,0
   11bac:	000a0513          	addi	a0,s4,0
   11bb0:	00098593          	addi	a1,s3,0
   11bb4:	181000ef          	jal	ra,12534 <__divdf3>
   11bb8:	c55fe0ef          	jal	ra,1080c <my_cos>
   11bbc:	00090613          	addi	a2,s2,0
   11bc0:	00048693          	addi	a3,s1,0
   11bc4:	25c010ef          	jal	ra,12e20 <__muldf3>
   11bc8:	000b0613          	addi	a2,s6,0
   11bcc:	000b8693          	addi	a3,s7,0
   11bd0:	039010ef          	jal	ra,13408 <__subdf3>
   11bd4:	12412803          	lw	a6,292(sp)
   11bd8:	de81a603          	lw	a2,-536(gp) # 1bc08 <__SDATA_BEGIN__+0xb0>
   11bdc:	dec1a683          	lw	a3,-532(gp) # 1bc0c <__SDATA_BEGIN__+0xb4>
   11be0:	00050713          	addi	a4,a0,0
   11be4:	00058793          	addi	a5,a1,0
   11be8:	00e82023          	sw	a4,0(a6)
   11bec:	00f82223          	sw	a5,4(a6)
   11bf0:	000a0513          	addi	a0,s4,0
   11bf4:	00098593          	addi	a1,s3,0
   11bf8:	1f0000ef          	jal	ra,11de8 <__adddf3>
   11bfc:	de01a603          	lw	a2,-544(gp) # 1bc00 <__SDATA_BEGIN__+0xa8>
   11c00:	de41a683          	lw	a3,-540(gp) # 1bc04 <__SDATA_BEGIN__+0xac>
   11c04:	131000ef          	jal	ra,12534 <__divdf3>
   11c08:	c05fe0ef          	jal	ra,1080c <my_cos>
   11c0c:	00090613          	addi	a2,s2,0
   11c10:	00048693          	addi	a3,s1,0
   11c14:	20c010ef          	jal	ra,12e20 <__muldf3>
   11c18:	000b0613          	addi	a2,s6,0
   11c1c:	000b8693          	addi	a3,s7,0
   11c20:	7e8010ef          	jal	ra,13408 <__subdf3>
   11c24:	12412803          	lw	a6,292(sp)
   11c28:	df01a603          	lw	a2,-528(gp) # 1bc10 <__SDATA_BEGIN__+0xb8>
   11c2c:	df41a683          	lw	a3,-524(gp) # 1bc14 <__SDATA_BEGIN__+0xbc>
   11c30:	00058793          	addi	a5,a1,0
   11c34:	00050713          	addi	a4,a0,0
   11c38:	00f82623          	sw	a5,12(a6)
   11c3c:	00e82423          	sw	a4,8(a6)
   11c40:	000a0513          	addi	a0,s4,0
   11c44:	00098593          	addi	a1,s3,0
   11c48:	1a0000ef          	jal	ra,11de8 <__adddf3>
   11c4c:	de01a603          	lw	a2,-544(gp) # 1bc00 <__SDATA_BEGIN__+0xa8>
   11c50:	de41a683          	lw	a3,-540(gp) # 1bc04 <__SDATA_BEGIN__+0xac>
   11c54:	0e1000ef          	jal	ra,12534 <__divdf3>
   11c58:	bb5fe0ef          	jal	ra,1080c <my_cos>
   11c5c:	00090613          	addi	a2,s2,0
   11c60:	00048693          	addi	a3,s1,0
   11c64:	1bc010ef          	jal	ra,12e20 <__muldf3>
   11c68:	000b0613          	addi	a2,s6,0
   11c6c:	000b8693          	addi	a3,s7,0
   11c70:	798010ef          	jal	ra,13408 <__subdf3>
   11c74:	12412783          	lw	a5,292(sp)
   11c78:	00a7a823          	sw	a0,16(a5)
   11c7c:	00b7aa23          	sw	a1,20(a5)
   11c80:	ec5ff06f          	jal	zero,11b44 <SolveCubic+0x1040>
   11c84:	00098513          	addi	a0,s3,0
   11c88:	00040593          	addi	a1,s0,0
   11c8c:	00000613          	addi	a2,zero,0
   11c90:	00000693          	addi	a3,zero,0
   11c94:	0b4010ef          	jal	ra,12d48 <__ledf2>
   11c98:	c6a04863          	blt	zero,a0,11108 <SolveCubic+0x604>
   11c9c:	00012503          	lw	a0,0(sp)
   11ca0:	000a8593          	addi	a1,s5,0
   11ca4:	00000613          	addi	a2,zero,0
   11ca8:	00000693          	addi	a3,zero,0
   11cac:	7c5000ef          	jal	ra,12c70 <__gedf2>
   11cb0:	00000a13          	addi	s4,zero,0
   11cb4:	00000993          	addi	s3,zero,0
   11cb8:	b0055ce3          	bge	a0,zero,117d0 <SolveCubic+0xccc>
   11cbc:	dc01aa03          	lw	s4,-576(gp) # 1bbe0 <__SDATA_BEGIN__+0x88>
   11cc0:	dc41a983          	lw	s3,-572(gp) # 1bbe4 <__SDATA_BEGIN__+0x8c>
   11cc4:	b0dff06f          	jal	zero,117d0 <SolveCubic+0xccc>
   11cc8:	dd41ac83          	lw	s9,-556(gp) # 1bbf4 <__SDATA_BEGIN__+0x9c>
   11ccc:	dd01ac03          	lw	s8,-560(gp) # 1bbf0 <__SDATA_BEGIN__+0x98>
   11cd0:	00040513          	addi	a0,s0,0
   11cd4:	00048593          	addi	a1,s1,0
   11cd8:	000c0613          	addi	a2,s8,0
   11cdc:	000c8693          	addi	a3,s9,0
   11ce0:	068010ef          	jal	ra,12d48 <__ledf2>
   11ce4:	00054663          	blt	a0,zero,11cf0 <SolveCubic+0x11ec>
   11ce8:	00040c13          	addi	s8,s0,0
   11cec:	00048c93          	addi	s9,s1,0
   11cf0:	db81a603          	lw	a2,-584(gp) # 1bbd8 <__SDATA_BEGIN__+0x80>
   11cf4:	dbc1a683          	lw	a3,-580(gp) # 1bbdc <__SDATA_BEGIN__+0x84>
   11cf8:	000c0513          	addi	a0,s8,0
   11cfc:	000c8593          	addi	a1,s9,0
   11d00:	771000ef          	jal	ra,12c70 <__gedf2>
   11d04:	0c055c63          	bge	a0,zero,11ddc <SolveCubic+0x12d8>
   11d08:	dd01a603          	lw	a2,-560(gp) # 1bbf0 <__SDATA_BEGIN__+0x98>
   11d0c:	dd41a683          	lw	a3,-556(gp) # 1bbf4 <__SDATA_BEGIN__+0x9c>
   11d10:	000c0513          	addi	a0,s8,0
   11d14:	000c8593          	addi	a1,s9,0
   11d18:	030010ef          	jal	ra,12d48 <__ledf2>
   11d1c:	0aa05a63          	bge	zero,a0,11dd0 <SolveCubic+0x12cc>
   11d20:	dc01ab03          	lw	s6,-576(gp) # 1bbe0 <__SDATA_BEGIN__+0x88>
   11d24:	dc41a903          	lw	s2,-572(gp) # 1bbe4 <__SDATA_BEGIN__+0x8c>
   11d28:	d401aa03          	lw	s4,-704(gp) # 1bb60 <__SDATA_BEGIN__+0x8>
   11d2c:	d441aa83          	lw	s5,-700(gp) # 1bb64 <__SDATA_BEGIN__+0xc>
   11d30:	03c00d13          	addi	s10,zero,60
   11d34:	00000b93          	addi	s7,zero,0
   11d38:	00000993          	addi	s3,zero,0
   11d3c:	0140006f          	jal	zero,11d50 <SolveCubic+0x124c>
   11d40:	fffd0d13          	addi	s10,s10,-1
   11d44:	00048b93          	addi	s7,s1,0
   11d48:	00040993          	addi	s3,s0,0
   11d4c:	040d0c63          	beq	s10,zero,11da4 <SolveCubic+0x12a0>
   11d50:	000b8613          	addi	a2,s7,0
   11d54:	00098693          	addi	a3,s3,0
   11d58:	000b0513          	addi	a0,s6,0
   11d5c:	00090593          	addi	a1,s2,0
   11d60:	088000ef          	jal	ra,11de8 <__adddf3>
   11d64:	000a0613          	addi	a2,s4,0
   11d68:	000a8693          	addi	a3,s5,0
   11d6c:	0b4010ef          	jal	ra,12e20 <__muldf3>
   11d70:	00050493          	addi	s1,a0,0
   11d74:	00058413          	addi	s0,a1,0
   11d78:	a95fe0ef          	jal	ra,1080c <my_cos>
   11d7c:	00050613          	addi	a2,a0,0
   11d80:	00058693          	addi	a3,a1,0
   11d84:	000c0513          	addi	a0,s8,0
   11d88:	000c8593          	addi	a1,s9,0
   11d8c:	7bd000ef          	jal	ra,12d48 <__ledf2>
   11d90:	fa0548e3          	blt	a0,zero,11d40 <SolveCubic+0x123c>
   11d94:	fffd0d13          	addi	s10,s10,-1
   11d98:	00048b13          	addi	s6,s1,0
   11d9c:	00040913          	addi	s2,s0,0
   11da0:	fa0d18e3          	bne	s10,zero,11d50 <SolveCubic+0x124c>
   11da4:	00098693          	addi	a3,s3,0
   11da8:	000b8613          	addi	a2,s7,0
   11dac:	000b0513          	addi	a0,s6,0
   11db0:	00090593          	addi	a1,s2,0
   11db4:	034000ef          	jal	ra,11de8 <__adddf3>
   11db8:	d401a603          	lw	a2,-704(gp) # 1bb60 <__SDATA_BEGIN__+0x8>
   11dbc:	d441a683          	lw	a3,-700(gp) # 1bb64 <__SDATA_BEGIN__+0xc>
   11dc0:	060010ef          	jal	ra,12e20 <__muldf3>
   11dc4:	00050a13          	addi	s4,a0,0
   11dc8:	00058993          	addi	s3,a1,0
   11dcc:	a05ff06f          	jal	zero,117d0 <SolveCubic+0xccc>
   11dd0:	dc01aa03          	lw	s4,-576(gp) # 1bbe0 <__SDATA_BEGIN__+0x88>
   11dd4:	dc41a983          	lw	s3,-572(gp) # 1bbe4 <__SDATA_BEGIN__+0x8c>
   11dd8:	9f9ff06f          	jal	zero,117d0 <SolveCubic+0xccc>
   11ddc:	00000a13          	addi	s4,zero,0
   11de0:	00000993          	addi	s3,zero,0
   11de4:	9edff06f          	jal	zero,117d0 <SolveCubic+0xccc>

00011de8 <__adddf3>:
   11de8:	00100737          	lui	a4,0x100
   11dec:	fe010113          	addi	sp,sp,-32
   11df0:	fff70713          	addi	a4,a4,-1 # fffff <__BSS_END__+0xe403f>
   11df4:	00b777b3          	and	a5,a4,a1
   11df8:	0146d893          	srli	a7,a3,0x14
   11dfc:	00d77733          	and	a4,a4,a3
   11e00:	00812c23          	sw	s0,24(sp)
   11e04:	0145d413          	srli	s0,a1,0x14
   11e08:	00371713          	slli	a4,a4,0x3
   11e0c:	01d65813          	srli	a6,a2,0x1d
   11e10:	01212823          	sw	s2,16(sp)
   11e14:	7ff47413          	andi	s0,s0,2047
   11e18:	01f5d913          	srli	s2,a1,0x1f
   11e1c:	00379793          	slli	a5,a5,0x3
   11e20:	01d55593          	srli	a1,a0,0x1d
   11e24:	7ff8f893          	andi	a7,a7,2047
   11e28:	00112e23          	sw	ra,28(sp)
   11e2c:	00912a23          	sw	s1,20(sp)
   11e30:	01312623          	sw	s3,12(sp)
   11e34:	01f6d693          	srli	a3,a3,0x1f
   11e38:	00f5e7b3          	or	a5,a1,a5
   11e3c:	00e86833          	or	a6,a6,a4
   11e40:	00351513          	slli	a0,a0,0x3
   11e44:	00361613          	slli	a2,a2,0x3
   11e48:	41140733          	sub	a4,s0,a7
   11e4c:	7ff00593          	addi	a1,zero,2047
   11e50:	30d91463          	bne	s2,a3,12158 <__adddf3+0x370>
   11e54:	10e05263          	bge	zero,a4,11f58 <__adddf3+0x170>
   11e58:	02089c63          	bne	a7,zero,11e90 <__adddf3+0xa8>
   11e5c:	00c86733          	or	a4,a6,a2
   11e60:	02070463          	beq	a4,zero,11e88 <__adddf3+0xa0>
   11e64:	fff40713          	addi	a4,s0,-1
   11e68:	00071e63          	bne	a4,zero,11e84 <__adddf3+0x9c>
   11e6c:	00c50633          	add	a2,a0,a2
   11e70:	010787b3          	add	a5,a5,a6
   11e74:	00a63533          	sltu	a0,a2,a0
   11e78:	00a787b3          	add	a5,a5,a0
   11e7c:	00100413          	addi	s0,zero,1
   11e80:	0600006f          	jal	zero,11ee0 <__adddf3+0xf8>
   11e84:	00b41c63          	bne	s0,a1,11e9c <__adddf3+0xb4>
   11e88:	00050613          	addi	a2,a0,0
   11e8c:	1d80006f          	jal	zero,12064 <__adddf3+0x27c>
   11e90:	feb40ce3          	beq	s0,a1,11e88 <__adddf3+0xa0>
   11e94:	008006b7          	lui	a3,0x800
   11e98:	00d86833          	or	a6,a6,a3
   11e9c:	03800693          	addi	a3,zero,56
   11ea0:	0ae6c663          	blt	a3,a4,11f4c <__adddf3+0x164>
   11ea4:	01f00693          	addi	a3,zero,31
   11ea8:	02000893          	addi	a7,zero,32
   11eac:	06e6c863          	blt	a3,a4,11f1c <__adddf3+0x134>
   11eb0:	40e888b3          	sub	a7,a7,a4
   11eb4:	011816b3          	sll	a3,a6,a7
   11eb8:	00e655b3          	srl	a1,a2,a4
   11ebc:	011618b3          	sll	a7,a2,a7
   11ec0:	00b6e6b3          	or	a3,a3,a1
   11ec4:	011038b3          	sltu	a7,zero,a7
   11ec8:	0116e6b3          	or	a3,a3,a7
   11ecc:	00e85733          	srl	a4,a6,a4
   11ed0:	00a68633          	add	a2,a3,a0
   11ed4:	00f70733          	add	a4,a4,a5
   11ed8:	00d636b3          	sltu	a3,a2,a3
   11edc:	00d707b3          	add	a5,a4,a3
   11ee0:	00879713          	slli	a4,a5,0x8
   11ee4:	22075663          	bge	a4,zero,12110 <__adddf3+0x328>
   11ee8:	00140413          	addi	s0,s0,1
   11eec:	7ff00713          	addi	a4,zero,2047
   11ef0:	60e40863          	beq	s0,a4,12500 <__adddf3+0x718>
   11ef4:	ff800737          	lui	a4,0xff800
   11ef8:	fff70713          	addi	a4,a4,-1 # ff7fffff <__BSS_END__+0xff7e403f>
   11efc:	00e7f7b3          	and	a5,a5,a4
   11f00:	00165713          	srli	a4,a2,0x1
   11f04:	00167613          	andi	a2,a2,1
   11f08:	00c76733          	or	a4,a4,a2
   11f0c:	01f79613          	slli	a2,a5,0x1f
   11f10:	00e66633          	or	a2,a2,a4
   11f14:	0017d793          	srli	a5,a5,0x1
   11f18:	1f80006f          	jal	zero,12110 <__adddf3+0x328>
   11f1c:	fe070693          	addi	a3,a4,-32
   11f20:	00d856b3          	srl	a3,a6,a3
   11f24:	00000593          	addi	a1,zero,0
   11f28:	01170863          	beq	a4,a7,11f38 <__adddf3+0x150>
   11f2c:	04000593          	addi	a1,zero,64
   11f30:	40e585b3          	sub	a1,a1,a4
   11f34:	00b815b3          	sll	a1,a6,a1
   11f38:	00c5e5b3          	or	a1,a1,a2
   11f3c:	00b035b3          	sltu	a1,zero,a1
   11f40:	00b6e6b3          	or	a3,a3,a1
   11f44:	00000713          	addi	a4,zero,0
   11f48:	f89ff06f          	jal	zero,11ed0 <__adddf3+0xe8>
   11f4c:	00c866b3          	or	a3,a6,a2
   11f50:	00d036b3          	sltu	a3,zero,a3
   11f54:	ff1ff06f          	jal	zero,11f44 <__adddf3+0x15c>
   11f58:	0c070263          	beq	a4,zero,1201c <__adddf3+0x234>
   11f5c:	40888733          	sub	a4,a7,s0
   11f60:	02041263          	bne	s0,zero,11f84 <__adddf3+0x19c>
   11f64:	00a7e6b3          	or	a3,a5,a0
   11f68:	00068863          	beq	a3,zero,11f78 <__adddf3+0x190>
   11f6c:	fff70693          	addi	a3,a4,-1
   11f70:	ee068ee3          	beq	a3,zero,11e6c <__adddf3+0x84>
   11f74:	02b71063          	bne	a4,a1,11f94 <__adddf3+0x1ac>
   11f78:	00080793          	addi	a5,a6,0
   11f7c:	00070413          	addi	s0,a4,0
   11f80:	0e40006f          	jal	zero,12064 <__adddf3+0x27c>
   11f84:	58b88663          	beq	a7,a1,12510 <__adddf3+0x728>
   11f88:	008006b7          	lui	a3,0x800
   11f8c:	00d7e7b3          	or	a5,a5,a3
   11f90:	00070693          	addi	a3,a4,0
   11f94:	03800713          	addi	a4,zero,56
   11f98:	06d74c63          	blt	a4,a3,12010 <__adddf3+0x228>
   11f9c:	01f00713          	addi	a4,zero,31
   11fa0:	02000313          	addi	t1,zero,32
   11fa4:	02d74e63          	blt	a4,a3,11fe0 <__adddf3+0x1f8>
   11fa8:	40d30333          	sub	t1,t1,a3
   11fac:	00679733          	sll	a4,a5,t1
   11fb0:	00d555b3          	srl	a1,a0,a3
   11fb4:	00651333          	sll	t1,a0,t1
   11fb8:	00b76733          	or	a4,a4,a1
   11fbc:	00603333          	sltu	t1,zero,t1
   11fc0:	00676733          	or	a4,a4,t1
   11fc4:	00d7d6b3          	srl	a3,a5,a3
   11fc8:	00c70633          	add	a2,a4,a2
   11fcc:	010686b3          	add	a3,a3,a6
   11fd0:	00e63733          	sltu	a4,a2,a4
   11fd4:	00e687b3          	add	a5,a3,a4
   11fd8:	00088413          	addi	s0,a7,0
   11fdc:	f05ff06f          	jal	zero,11ee0 <__adddf3+0xf8>
   11fe0:	fe068713          	addi	a4,a3,-32 # 7fffe0 <__BSS_END__+0x7e4020>
   11fe4:	00e7d733          	srl	a4,a5,a4
   11fe8:	00000593          	addi	a1,zero,0
   11fec:	00668863          	beq	a3,t1,11ffc <__adddf3+0x214>
   11ff0:	04000593          	addi	a1,zero,64
   11ff4:	40d585b3          	sub	a1,a1,a3
   11ff8:	00b795b3          	sll	a1,a5,a1
   11ffc:	00a5e5b3          	or	a1,a1,a0
   12000:	00b035b3          	sltu	a1,zero,a1
   12004:	00b76733          	or	a4,a4,a1
   12008:	00000693          	addi	a3,zero,0
   1200c:	fbdff06f          	jal	zero,11fc8 <__adddf3+0x1e0>
   12010:	00a7e733          	or	a4,a5,a0
   12014:	00e03733          	sltu	a4,zero,a4
   12018:	ff1ff06f          	jal	zero,12008 <__adddf3+0x220>
   1201c:	00140713          	addi	a4,s0,1
   12020:	7fe77693          	andi	a3,a4,2046
   12024:	0c069263          	bne	a3,zero,120e8 <__adddf3+0x300>
   12028:	00a7e733          	or	a4,a5,a0
   1202c:	0a041463          	bne	s0,zero,120d4 <__adddf3+0x2ec>
   12030:	4a070863          	beq	a4,zero,124e0 <__adddf3+0x6f8>
   12034:	00c86733          	or	a4,a6,a2
   12038:	4a070863          	beq	a4,zero,124e8 <__adddf3+0x700>
   1203c:	00c50633          	add	a2,a0,a2
   12040:	010787b3          	add	a5,a5,a6
   12044:	00a63533          	sltu	a0,a2,a0
   12048:	00a787b3          	add	a5,a5,a0
   1204c:	00879713          	slli	a4,a5,0x8
   12050:	32075a63          	bge	a4,zero,12384 <__adddf3+0x59c>
   12054:	ff800737          	lui	a4,0xff800
   12058:	fff70713          	addi	a4,a4,-1 # ff7fffff <__BSS_END__+0xff7e403f>
   1205c:	00e7f7b3          	and	a5,a5,a4
   12060:	00100413          	addi	s0,zero,1
   12064:	01d79713          	slli	a4,a5,0x1d
   12068:	00365613          	srli	a2,a2,0x3
   1206c:	7ff00693          	addi	a3,zero,2047
   12070:	00c76733          	or	a4,a4,a2
   12074:	0037d793          	srli	a5,a5,0x3
   12078:	00d41e63          	bne	s0,a3,12094 <__adddf3+0x2ac>
   1207c:	00f76733          	or	a4,a4,a5
   12080:	00000793          	addi	a5,zero,0
   12084:	00070863          	beq	a4,zero,12094 <__adddf3+0x2ac>
   12088:	000807b7          	lui	a5,0x80
   1208c:	00000713          	addi	a4,zero,0
   12090:	00000913          	addi	s2,zero,0
   12094:	7ff47413          	andi	s0,s0,2047
   12098:	00c79793          	slli	a5,a5,0xc
   1209c:	00c7d793          	srli	a5,a5,0xc
   120a0:	01441413          	slli	s0,s0,0x14
   120a4:	01f91593          	slli	a1,s2,0x1f
   120a8:	00f46433          	or	s0,s0,a5
   120ac:	01c12083          	lw	ra,28(sp)
   120b0:	00b467b3          	or	a5,s0,a1
   120b4:	01812403          	lw	s0,24(sp)
   120b8:	01412483          	lw	s1,20(sp)
   120bc:	01012903          	lw	s2,16(sp)
   120c0:	00c12983          	lw	s3,12(sp)
   120c4:	00070513          	addi	a0,a4,0
   120c8:	00078593          	addi	a1,a5,0 # 80000 <__BSS_END__+0x64040>
   120cc:	02010113          	addi	sp,sp,32
   120d0:	00008067          	jalr	zero,0(ra)
   120d4:	40070e63          	beq	a4,zero,124f0 <__adddf3+0x708>
   120d8:	00c86833          	or	a6,a6,a2
   120dc:	2c081c63          	bne	a6,zero,123b4 <__adddf3+0x5cc>
   120e0:	00050613          	addi	a2,a0,0
   120e4:	4100006f          	jal	zero,124f4 <__adddf3+0x70c>
   120e8:	40b70a63          	beq	a4,a1,124fc <__adddf3+0x714>
   120ec:	00c50633          	add	a2,a0,a2
   120f0:	00a63533          	sltu	a0,a2,a0
   120f4:	010787b3          	add	a5,a5,a6
   120f8:	00a787b3          	add	a5,a5,a0
   120fc:	01f79693          	slli	a3,a5,0x1f
   12100:	00165613          	srli	a2,a2,0x1
   12104:	00c6e633          	or	a2,a3,a2
   12108:	0017d793          	srli	a5,a5,0x1
   1210c:	00070413          	addi	s0,a4,0
   12110:	00767713          	andi	a4,a2,7
   12114:	02070063          	beq	a4,zero,12134 <__adddf3+0x34c>
   12118:	00f67713          	andi	a4,a2,15
   1211c:	00400693          	addi	a3,zero,4
   12120:	00d70a63          	beq	a4,a3,12134 <__adddf3+0x34c>
   12124:	00d60733          	add	a4,a2,a3
   12128:	00c736b3          	sltu	a3,a4,a2
   1212c:	00d787b3          	add	a5,a5,a3
   12130:	00070613          	addi	a2,a4,0
   12134:	00879713          	slli	a4,a5,0x8
   12138:	f20756e3          	bge	a4,zero,12064 <__adddf3+0x27c>
   1213c:	00140413          	addi	s0,s0,1
   12140:	7ff00713          	addi	a4,zero,2047
   12144:	3ae40e63          	beq	s0,a4,12500 <__adddf3+0x718>
   12148:	ff800737          	lui	a4,0xff800
   1214c:	fff70713          	addi	a4,a4,-1 # ff7fffff <__BSS_END__+0xff7e403f>
   12150:	00e7f7b3          	and	a5,a5,a4
   12154:	f11ff06f          	jal	zero,12064 <__adddf3+0x27c>
   12158:	0ee05063          	bge	zero,a4,12238 <__adddf3+0x450>
   1215c:	08089863          	bne	a7,zero,121ec <__adddf3+0x404>
   12160:	00c86733          	or	a4,a6,a2
   12164:	d20702e3          	beq	a4,zero,11e88 <__adddf3+0xa0>
   12168:	fff40713          	addi	a4,s0,-1
   1216c:	00071e63          	bne	a4,zero,12188 <__adddf3+0x3a0>
   12170:	40c50633          	sub	a2,a0,a2
   12174:	410787b3          	sub	a5,a5,a6
   12178:	00c53533          	sltu	a0,a0,a2
   1217c:	40a787b3          	sub	a5,a5,a0
   12180:	00100413          	addi	s0,zero,1
   12184:	04c0006f          	jal	zero,121d0 <__adddf3+0x3e8>
   12188:	d0b400e3          	beq	s0,a1,11e88 <__adddf3+0xa0>
   1218c:	03800693          	addi	a3,zero,56
   12190:	08e6ce63          	blt	a3,a4,1222c <__adddf3+0x444>
   12194:	01f00693          	addi	a3,zero,31
   12198:	02000893          	addi	a7,zero,32
   1219c:	06e6c063          	blt	a3,a4,121fc <__adddf3+0x414>
   121a0:	40e888b3          	sub	a7,a7,a4
   121a4:	011816b3          	sll	a3,a6,a7
   121a8:	00e655b3          	srl	a1,a2,a4
   121ac:	011618b3          	sll	a7,a2,a7
   121b0:	00b6e6b3          	or	a3,a3,a1
   121b4:	011038b3          	sltu	a7,zero,a7
   121b8:	0116e6b3          	or	a3,a3,a7
   121bc:	00e85733          	srl	a4,a6,a4
   121c0:	40d50633          	sub	a2,a0,a3
   121c4:	40e78733          	sub	a4,a5,a4
   121c8:	00c53533          	sltu	a0,a0,a2
   121cc:	40a707b3          	sub	a5,a4,a0
   121d0:	00879713          	slli	a4,a5,0x8
   121d4:	f2075ee3          	bge	a4,zero,12110 <__adddf3+0x328>
   121d8:	008004b7          	lui	s1,0x800
   121dc:	fff48493          	addi	s1,s1,-1 # 7fffff <__BSS_END__+0x7e403f>
   121e0:	0097f4b3          	and	s1,a5,s1
   121e4:	00060993          	addi	s3,a2,0
   121e8:	2140006f          	jal	zero,123fc <__adddf3+0x614>
   121ec:	c8b40ee3          	beq	s0,a1,11e88 <__adddf3+0xa0>
   121f0:	008006b7          	lui	a3,0x800
   121f4:	00d86833          	or	a6,a6,a3
   121f8:	f95ff06f          	jal	zero,1218c <__adddf3+0x3a4>
   121fc:	fe070693          	addi	a3,a4,-32
   12200:	00d856b3          	srl	a3,a6,a3
   12204:	00000593          	addi	a1,zero,0
   12208:	01170863          	beq	a4,a7,12218 <__adddf3+0x430>
   1220c:	04000593          	addi	a1,zero,64
   12210:	40e585b3          	sub	a1,a1,a4
   12214:	00b815b3          	sll	a1,a6,a1
   12218:	00c5e5b3          	or	a1,a1,a2
   1221c:	00b035b3          	sltu	a1,zero,a1
   12220:	00b6e6b3          	or	a3,a3,a1
   12224:	00000713          	addi	a4,zero,0
   12228:	f99ff06f          	jal	zero,121c0 <__adddf3+0x3d8>
   1222c:	00c866b3          	or	a3,a6,a2
   12230:	00d036b3          	sltu	a3,zero,a3
   12234:	ff1ff06f          	jal	zero,12224 <__adddf3+0x43c>
   12238:	0e070663          	beq	a4,zero,12324 <__adddf3+0x53c>
   1223c:	40888333          	sub	t1,a7,s0
   12240:	04041263          	bne	s0,zero,12284 <__adddf3+0x49c>
   12244:	00a7e733          	or	a4,a5,a0
   12248:	02070663          	beq	a4,zero,12274 <__adddf3+0x48c>
   1224c:	fff30713          	addi	a4,t1,-1 # 107ff <frame_dummy+0x13>
   12250:	02071063          	bne	a4,zero,12270 <__adddf3+0x488>
   12254:	40a60533          	sub	a0,a2,a0
   12258:	00a63733          	sltu	a4,a2,a0
   1225c:	40f807b3          	sub	a5,a6,a5
   12260:	00050613          	addi	a2,a0,0
   12264:	40e787b3          	sub	a5,a5,a4
   12268:	00068913          	addi	s2,a3,0 # 800000 <__BSS_END__+0x7e4040>
   1226c:	f15ff06f          	jal	zero,12180 <__adddf3+0x398>
   12270:	02b31263          	bne	t1,a1,12294 <__adddf3+0x4ac>
   12274:	00068913          	addi	s2,a3,0
   12278:	00080793          	addi	a5,a6,0
   1227c:	00030413          	addi	s0,t1,0
   12280:	de5ff06f          	jal	zero,12064 <__adddf3+0x27c>
   12284:	28b88463          	beq	a7,a1,1250c <__adddf3+0x724>
   12288:	00800737          	lui	a4,0x800
   1228c:	00e7e7b3          	or	a5,a5,a4
   12290:	00030713          	addi	a4,t1,0
   12294:	03800593          	addi	a1,zero,56
   12298:	08e5c063          	blt	a1,a4,12318 <__adddf3+0x530>
   1229c:	01f00593          	addi	a1,zero,31
   122a0:	02000e13          	addi	t3,zero,32
   122a4:	04e5c263          	blt	a1,a4,122e8 <__adddf3+0x500>
   122a8:	40ee0e33          	sub	t3,t3,a4
   122ac:	01c795b3          	sll	a1,a5,t3
   122b0:	00e55333          	srl	t1,a0,a4
   122b4:	01c51e33          	sll	t3,a0,t3
   122b8:	0065e5b3          	or	a1,a1,t1
   122bc:	01c03e33          	sltu	t3,zero,t3
   122c0:	01c5e5b3          	or	a1,a1,t3
   122c4:	00e7d733          	srl	a4,a5,a4
   122c8:	40b605b3          	sub	a1,a2,a1
   122cc:	00b637b3          	sltu	a5,a2,a1
   122d0:	40e80733          	sub	a4,a6,a4
   122d4:	00058613          	addi	a2,a1,0
   122d8:	40f707b3          	sub	a5,a4,a5
   122dc:	00088413          	addi	s0,a7,0
   122e0:	00068913          	addi	s2,a3,0
   122e4:	eedff06f          	jal	zero,121d0 <__adddf3+0x3e8>
   122e8:	fe070593          	addi	a1,a4,-32 # 7fffe0 <__BSS_END__+0x7e4020>
   122ec:	00b7d5b3          	srl	a1,a5,a1
   122f0:	00000313          	addi	t1,zero,0
   122f4:	01c70863          	beq	a4,t3,12304 <__adddf3+0x51c>
   122f8:	04000313          	addi	t1,zero,64
   122fc:	40e30333          	sub	t1,t1,a4
   12300:	00679333          	sll	t1,a5,t1
   12304:	00a36333          	or	t1,t1,a0
   12308:	00603333          	sltu	t1,zero,t1
   1230c:	0065e5b3          	or	a1,a1,t1
   12310:	00000713          	addi	a4,zero,0
   12314:	fb5ff06f          	jal	zero,122c8 <__adddf3+0x4e0>
   12318:	00a7e5b3          	or	a1,a5,a0
   1231c:	00b035b3          	sltu	a1,zero,a1
   12320:	ff1ff06f          	jal	zero,12310 <__adddf3+0x528>
   12324:	00140713          	addi	a4,s0,1
   12328:	7fe77713          	andi	a4,a4,2046
   1232c:	0a071063          	bne	a4,zero,123cc <__adddf3+0x5e4>
   12330:	00a7e8b3          	or	a7,a5,a0
   12334:	00c86733          	or	a4,a6,a2
   12338:	06041863          	bne	s0,zero,123a8 <__adddf3+0x5c0>
   1233c:	00089a63          	bne	a7,zero,12350 <__adddf3+0x568>
   12340:	00080793          	addi	a5,a6,0
   12344:	02071e63          	bne	a4,zero,12380 <__adddf3+0x598>
   12348:	00000913          	addi	s2,zero,0
   1234c:	1b40006f          	jal	zero,12500 <__adddf3+0x718>
   12350:	18070c63          	beq	a4,zero,124e8 <__adddf3+0x700>
   12354:	40c505b3          	sub	a1,a0,a2
   12358:	00b538b3          	sltu	a7,a0,a1
   1235c:	41078733          	sub	a4,a5,a6
   12360:	41170733          	sub	a4,a4,a7
   12364:	00871893          	slli	a7,a4,0x8
   12368:	0208d663          	bge	a7,zero,12394 <__adddf3+0x5ac>
   1236c:	40a60533          	sub	a0,a2,a0
   12370:	00a63733          	sltu	a4,a2,a0
   12374:	40f807b3          	sub	a5,a6,a5
   12378:	00050613          	addi	a2,a0,0
   1237c:	40e787b3          	sub	a5,a5,a4
   12380:	00068913          	addi	s2,a3,0
   12384:	00f66733          	or	a4,a2,a5
   12388:	1a070063          	beq	a4,zero,12528 <__adddf3+0x740>
   1238c:	00000413          	addi	s0,zero,0
   12390:	d81ff06f          	jal	zero,12110 <__adddf3+0x328>
   12394:	00e5e633          	or	a2,a1,a4
   12398:	18060263          	beq	a2,zero,1251c <__adddf3+0x734>
   1239c:	00070793          	addi	a5,a4,0
   123a0:	00058613          	addi	a2,a1,0
   123a4:	fe1ff06f          	jal	zero,12384 <__adddf3+0x59c>
   123a8:	00089e63          	bne	a7,zero,123c4 <__adddf3+0x5dc>
   123ac:	00068913          	addi	s2,a3,0
   123b0:	14071063          	bne	a4,zero,124f0 <__adddf3+0x708>
   123b4:	00000913          	addi	s2,zero,0
   123b8:	004007b7          	lui	a5,0x400
   123bc:	00000613          	addi	a2,zero,0
   123c0:	1340006f          	jal	zero,124f4 <__adddf3+0x70c>
   123c4:	d0070ee3          	beq	a4,zero,120e0 <__adddf3+0x2f8>
   123c8:	fedff06f          	jal	zero,123b4 <__adddf3+0x5cc>
   123cc:	40c50733          	sub	a4,a0,a2
   123d0:	00e535b3          	sltu	a1,a0,a4
   123d4:	410784b3          	sub	s1,a5,a6
   123d8:	40b484b3          	sub	s1,s1,a1
   123dc:	00849593          	slli	a1,s1,0x8
   123e0:	00070993          	addi	s3,a4,0
   123e4:	0605de63          	bge	a1,zero,12460 <__adddf3+0x678>
   123e8:	40a609b3          	sub	s3,a2,a0
   123ec:	40f804b3          	sub	s1,a6,a5
   123f0:	01363633          	sltu	a2,a2,s3
   123f4:	40c484b3          	sub	s1,s1,a2
   123f8:	00068913          	addi	s2,a3,0
   123fc:	06048e63          	beq	s1,zero,12478 <__adddf3+0x690>
   12400:	00048513          	addi	a0,s1,0
   12404:	1b4060ef          	jal	ra,185b8 <__clzsi2>
   12408:	ff850713          	addi	a4,a0,-8
   1240c:	02000793          	addi	a5,zero,32
   12410:	40e787b3          	sub	a5,a5,a4
   12414:	00e494b3          	sll	s1,s1,a4
   12418:	00f9d7b3          	srl	a5,s3,a5
   1241c:	0097e7b3          	or	a5,a5,s1
   12420:	00e99633          	sll	a2,s3,a4
   12424:	0a874463          	blt	a4,s0,124cc <__adddf3+0x6e4>
   12428:	40870733          	sub	a4,a4,s0
   1242c:	00170513          	addi	a0,a4,1
   12430:	01f00693          	addi	a3,zero,31
   12434:	02000593          	addi	a1,zero,32
   12438:	06a6c263          	blt	a3,a0,1249c <__adddf3+0x6b4>
   1243c:	40a585b3          	sub	a1,a1,a0
   12440:	00b79733          	sll	a4,a5,a1
   12444:	00a656b3          	srl	a3,a2,a0
   12448:	00b615b3          	sll	a1,a2,a1
   1244c:	00d76733          	or	a4,a4,a3
   12450:	00b035b3          	sltu	a1,zero,a1
   12454:	00b76633          	or	a2,a4,a1
   12458:	00a7d7b3          	srl	a5,a5,a0
   1245c:	f29ff06f          	jal	zero,12384 <__adddf3+0x59c>
   12460:	00976633          	or	a2,a4,s1
   12464:	f8061ce3          	bne	a2,zero,123fc <__adddf3+0x614>
   12468:	00000913          	addi	s2,zero,0
   1246c:	00000793          	addi	a5,zero,0
   12470:	00000413          	addi	s0,zero,0
   12474:	bf1ff06f          	jal	zero,12064 <__adddf3+0x27c>
   12478:	00098513          	addi	a0,s3,0
   1247c:	13c060ef          	jal	ra,185b8 <__clzsi2>
   12480:	01850713          	addi	a4,a0,24
   12484:	01f00793          	addi	a5,zero,31
   12488:	f8e7d2e3          	bge	a5,a4,1240c <__adddf3+0x624>
   1248c:	ff850793          	addi	a5,a0,-8
   12490:	00f997b3          	sll	a5,s3,a5
   12494:	00000613          	addi	a2,zero,0
   12498:	f8dff06f          	jal	zero,12424 <__adddf3+0x63c>
   1249c:	fe170713          	addi	a4,a4,-31
   124a0:	00e7d733          	srl	a4,a5,a4
   124a4:	00000693          	addi	a3,zero,0
   124a8:	00b50863          	beq	a0,a1,124b8 <__adddf3+0x6d0>
   124ac:	04000693          	addi	a3,zero,64
   124b0:	40a686b3          	sub	a3,a3,a0
   124b4:	00d796b3          	sll	a3,a5,a3
   124b8:	00d666b3          	or	a3,a2,a3
   124bc:	00d036b3          	sltu	a3,zero,a3
   124c0:	00d76633          	or	a2,a4,a3
   124c4:	00000793          	addi	a5,zero,0
   124c8:	ebdff06f          	jal	zero,12384 <__adddf3+0x59c>
   124cc:	40e40433          	sub	s0,s0,a4
   124d0:	ff800737          	lui	a4,0xff800
   124d4:	fff70713          	addi	a4,a4,-1 # ff7fffff <__BSS_END__+0xff7e403f>
   124d8:	00e7f7b3          	and	a5,a5,a4
   124dc:	c35ff06f          	jal	zero,12110 <__adddf3+0x328>
   124e0:	00080793          	addi	a5,a6,0
   124e4:	ea1ff06f          	jal	zero,12384 <__adddf3+0x59c>
   124e8:	00050613          	addi	a2,a0,0
   124ec:	e99ff06f          	jal	zero,12384 <__adddf3+0x59c>
   124f0:	00080793          	addi	a5,a6,0
   124f4:	00058413          	addi	s0,a1,0
   124f8:	b6dff06f          	jal	zero,12064 <__adddf3+0x27c>
   124fc:	00070413          	addi	s0,a4,0
   12500:	00000793          	addi	a5,zero,0
   12504:	00000613          	addi	a2,zero,0
   12508:	b5dff06f          	jal	zero,12064 <__adddf3+0x27c>
   1250c:	00068913          	addi	s2,a3,0
   12510:	00080793          	addi	a5,a6,0
   12514:	00088413          	addi	s0,a7,0
   12518:	b4dff06f          	jal	zero,12064 <__adddf3+0x27c>
   1251c:	00000913          	addi	s2,zero,0
   12520:	00000793          	addi	a5,zero,0
   12524:	b41ff06f          	jal	zero,12064 <__adddf3+0x27c>
   12528:	00000793          	addi	a5,zero,0
   1252c:	00000613          	addi	a2,zero,0
   12530:	f41ff06f          	jal	zero,12470 <__adddf3+0x688>

00012534 <__divdf3>:
   12534:	fd010113          	addi	sp,sp,-48
   12538:	0145d713          	srli	a4,a1,0x14
   1253c:	02812423          	sw	s0,40(sp)
   12540:	03212023          	sw	s2,32(sp)
   12544:	01312e23          	sw	s3,28(sp)
   12548:	01512a23          	sw	s5,20(sp)
   1254c:	01712623          	sw	s7,12(sp)
   12550:	00c59413          	slli	s0,a1,0xc
   12554:	02112623          	sw	ra,44(sp)
   12558:	02912223          	sw	s1,36(sp)
   1255c:	01412c23          	sw	s4,24(sp)
   12560:	01612823          	sw	s6,16(sp)
   12564:	7ff77713          	andi	a4,a4,2047
   12568:	00050993          	addi	s3,a0,0
   1256c:	00060b93          	addi	s7,a2,0
   12570:	00068a93          	addi	s5,a3,0
   12574:	00c45413          	srli	s0,s0,0xc
   12578:	01f5d913          	srli	s2,a1,0x1f
   1257c:	0a070063          	beq	a4,zero,1261c <__divdf3+0xe8>
   12580:	7ff00793          	addi	a5,zero,2047
   12584:	10f70063          	beq	a4,a5,12684 <__divdf3+0x150>
   12588:	01d55a13          	srli	s4,a0,0x1d
   1258c:	00341413          	slli	s0,s0,0x3
   12590:	008a6a33          	or	s4,s4,s0
   12594:	008007b7          	lui	a5,0x800
   12598:	00fa6a33          	or	s4,s4,a5
   1259c:	00351493          	slli	s1,a0,0x3
   125a0:	c0170993          	addi	s3,a4,-1023
   125a4:	00000b13          	addi	s6,zero,0
   125a8:	014ad793          	srli	a5,s5,0x14
   125ac:	00ca9413          	slli	s0,s5,0xc
   125b0:	7ff7f793          	andi	a5,a5,2047
   125b4:	00c45413          	srli	s0,s0,0xc
   125b8:	01fada93          	srli	s5,s5,0x1f
   125bc:	10078263          	beq	a5,zero,126c0 <__divdf3+0x18c>
   125c0:	7ff00693          	addi	a3,zero,2047
   125c4:	16d78663          	beq	a5,a3,12730 <__divdf3+0x1fc>
   125c8:	00341413          	slli	s0,s0,0x3
   125cc:	01dbd693          	srli	a3,s7,0x1d
   125d0:	0086e6b3          	or	a3,a3,s0
   125d4:	00800437          	lui	s0,0x800
   125d8:	0086e433          	or	s0,a3,s0
   125dc:	003b9f13          	slli	t5,s7,0x3
   125e0:	c0178793          	addi	a5,a5,-1023 # 7ffc01 <__BSS_END__+0x7e3c41>
   125e4:	00000693          	addi	a3,zero,0
   125e8:	40f98733          	sub	a4,s3,a5
   125ec:	002b1793          	slli	a5,s6,0x2
   125f0:	00d7e7b3          	or	a5,a5,a3
   125f4:	fff78793          	addi	a5,a5,-1
   125f8:	00e00613          	addi	a2,zero,14
   125fc:	01594833          	xor	a6,s2,s5
   12600:	16f66063          	bltu	a2,a5,12760 <__divdf3+0x22c>
   12604:	0001a637          	lui	a2,0x1a
   12608:	00279793          	slli	a5,a5,0x2
   1260c:	49860613          	addi	a2,a2,1176 # 1a498 <__errno+0x8>
   12610:	00c787b3          	add	a5,a5,a2
   12614:	0007a783          	lw	a5,0(a5)
   12618:	00078067          	jalr	zero,0(a5)
   1261c:	00a46a33          	or	s4,s0,a0
   12620:	060a0e63          	beq	s4,zero,1269c <__divdf3+0x168>
   12624:	04040063          	beq	s0,zero,12664 <__divdf3+0x130>
   12628:	00040513          	addi	a0,s0,0 # 800000 <__BSS_END__+0x7e4040>
   1262c:	78d050ef          	jal	ra,185b8 <__clzsi2>
   12630:	00050793          	addi	a5,a0,0
   12634:	ff550713          	addi	a4,a0,-11
   12638:	01d00a13          	addi	s4,zero,29
   1263c:	ff878693          	addi	a3,a5,-8
   12640:	40ea0a33          	sub	s4,s4,a4
   12644:	00d41433          	sll	s0,s0,a3
   12648:	0149da33          	srl	s4,s3,s4
   1264c:	008a6a33          	or	s4,s4,s0
   12650:	00d99433          	sll	s0,s3,a3
   12654:	c0d00713          	addi	a4,zero,-1011
   12658:	40f709b3          	sub	s3,a4,a5
   1265c:	00040493          	addi	s1,s0,0
   12660:	f45ff06f          	jal	zero,125a4 <__divdf3+0x70>
   12664:	755050ef          	jal	ra,185b8 <__clzsi2>
   12668:	01550713          	addi	a4,a0,21
   1266c:	01c00693          	addi	a3,zero,28
   12670:	02050793          	addi	a5,a0,32
   12674:	fce6d2e3          	bge	a3,a4,12638 <__divdf3+0x104>
   12678:	ff850513          	addi	a0,a0,-8
   1267c:	00a99a33          	sll	s4,s3,a0
   12680:	fd5ff06f          	jal	zero,12654 <__divdf3+0x120>
   12684:	00a46a33          	or	s4,s0,a0
   12688:	020a1263          	bne	s4,zero,126ac <__divdf3+0x178>
   1268c:	00000493          	addi	s1,zero,0
   12690:	00070993          	addi	s3,a4,0
   12694:	00200b13          	addi	s6,zero,2
   12698:	f11ff06f          	jal	zero,125a8 <__divdf3+0x74>
   1269c:	00000493          	addi	s1,zero,0
   126a0:	00000993          	addi	s3,zero,0
   126a4:	00100b13          	addi	s6,zero,1
   126a8:	f01ff06f          	jal	zero,125a8 <__divdf3+0x74>
   126ac:	00050493          	addi	s1,a0,0
   126b0:	00040a13          	addi	s4,s0,0
   126b4:	00070993          	addi	s3,a4,0
   126b8:	00300b13          	addi	s6,zero,3
   126bc:	eedff06f          	jal	zero,125a8 <__divdf3+0x74>
   126c0:	01746f33          	or	t5,s0,s7
   126c4:	080f0063          	beq	t5,zero,12744 <__divdf3+0x210>
   126c8:	04040263          	beq	s0,zero,1270c <__divdf3+0x1d8>
   126cc:	00040513          	addi	a0,s0,0
   126d0:	6e9050ef          	jal	ra,185b8 <__clzsi2>
   126d4:	00050693          	addi	a3,a0,0
   126d8:	ff550793          	addi	a5,a0,-11
   126dc:	01d00593          	addi	a1,zero,29
   126e0:	ff868613          	addi	a2,a3,-8
   126e4:	40f585b3          	sub	a1,a1,a5
   126e8:	00c41433          	sll	s0,s0,a2
   126ec:	00bbd5b3          	srl	a1,s7,a1
   126f0:	0085e5b3          	or	a1,a1,s0
   126f4:	00cb9433          	sll	s0,s7,a2
   126f8:	c0d00793          	addi	a5,zero,-1011
   126fc:	00040f13          	addi	t5,s0,0
   12700:	40d787b3          	sub	a5,a5,a3
   12704:	00058413          	addi	s0,a1,0
   12708:	eddff06f          	jal	zero,125e4 <__divdf3+0xb0>
   1270c:	000b8513          	addi	a0,s7,0
   12710:	6a9050ef          	jal	ra,185b8 <__clzsi2>
   12714:	01550793          	addi	a5,a0,21
   12718:	01c00613          	addi	a2,zero,28
   1271c:	02050693          	addi	a3,a0,32
   12720:	faf65ee3          	bge	a2,a5,126dc <__divdf3+0x1a8>
   12724:	ff850593          	addi	a1,a0,-8
   12728:	00bb95b3          	sll	a1,s7,a1
   1272c:	fcdff06f          	jal	zero,126f8 <__divdf3+0x1c4>
   12730:	01746f33          	or	t5,s0,s7
   12734:	020f1063          	bne	t5,zero,12754 <__divdf3+0x220>
   12738:	00000413          	addi	s0,zero,0
   1273c:	00200693          	addi	a3,zero,2
   12740:	ea9ff06f          	jal	zero,125e8 <__divdf3+0xb4>
   12744:	00000413          	addi	s0,zero,0
   12748:	00000793          	addi	a5,zero,0
   1274c:	00100693          	addi	a3,zero,1
   12750:	e99ff06f          	jal	zero,125e8 <__divdf3+0xb4>
   12754:	000b8f13          	addi	t5,s7,0
   12758:	00300693          	addi	a3,zero,3
   1275c:	e8dff06f          	jal	zero,125e8 <__divdf3+0xb4>
   12760:	01446663          	bltu	s0,s4,1276c <__divdf3+0x238>
   12764:	308a1863          	bne	s4,s0,12a74 <__divdf3+0x540>
   12768:	31e4e663          	bltu	s1,t5,12a74 <__divdf3+0x540>
   1276c:	01fa1693          	slli	a3,s4,0x1f
   12770:	0014d793          	srli	a5,s1,0x1
   12774:	01f49613          	slli	a2,s1,0x1f
   12778:	001a5a13          	srli	s4,s4,0x1
   1277c:	00f6e4b3          	or	s1,a3,a5
   12780:	00841893          	slli	a7,s0,0x8
   12784:	018f5693          	srli	a3,t5,0x18
   12788:	0116e6b3          	or	a3,a3,a7
   1278c:	0108d893          	srli	a7,a7,0x10
   12790:	031a55b3          	divu	a1,s4,a7
   12794:	01069e93          	slli	t4,a3,0x10
   12798:	010ede93          	srli	t4,t4,0x10
   1279c:	0104d793          	srli	a5,s1,0x10
   127a0:	008f1513          	slli	a0,t5,0x8
   127a4:	031a7a33          	remu	s4,s4,a7
   127a8:	02be8333          	mul	t1,t4,a1
   127ac:	010a1a13          	slli	s4,s4,0x10
   127b0:	0147e7b3          	or	a5,a5,s4
   127b4:	0067fa63          	bgeu	a5,t1,127c8 <__divdf3+0x294>
   127b8:	00f687b3          	add	a5,a3,a5
   127bc:	00d7e463          	bltu	a5,a3,127c4 <__divdf3+0x290>
   127c0:	2c67e063          	bltu	a5,t1,12a80 <__divdf3+0x54c>
   127c4:	fff58593          	addi	a1,a1,-1
   127c8:	406787b3          	sub	a5,a5,t1
   127cc:	0317d333          	divu	t1,a5,a7
   127d0:	01049493          	slli	s1,s1,0x10
   127d4:	0104d493          	srli	s1,s1,0x10
   127d8:	0317f7b3          	remu	a5,a5,a7
   127dc:	026e8e33          	mul	t3,t4,t1
   127e0:	01079793          	slli	a5,a5,0x10
   127e4:	00f4e4b3          	or	s1,s1,a5
   127e8:	01c4fa63          	bgeu	s1,t3,127fc <__divdf3+0x2c8>
   127ec:	009684b3          	add	s1,a3,s1
   127f0:	01c4f463          	bgeu	s1,t3,127f8 <__divdf3+0x2c4>
   127f4:	28d4fc63          	bgeu	s1,a3,12a8c <__divdf3+0x558>
   127f8:	fff30313          	addi	t1,t1,-1
   127fc:	01059593          	slli	a1,a1,0x10
   12800:	0065e5b3          	or	a1,a1,t1
   12804:	41c484b3          	sub	s1,s1,t3
   12808:	01059793          	slli	a5,a1,0x10
   1280c:	01051e13          	slli	t3,a0,0x10
   12810:	0105df93          	srli	t6,a1,0x10
   12814:	01055313          	srli	t1,a0,0x10
   12818:	0107d793          	srli	a5,a5,0x10
   1281c:	010e5e13          	srli	t3,t3,0x10
   12820:	03c782b3          	mul	t0,a5,t3
   12824:	03cf83b3          	mul	t2,t6,t3
   12828:	02f307b3          	mul	a5,t1,a5
   1282c:	00778f33          	add	t5,a5,t2
   12830:	0102d793          	srli	a5,t0,0x10
   12834:	01e787b3          	add	a5,a5,t5
   12838:	026f8fb3          	mul	t6,t6,t1
   1283c:	0077f663          	bgeu	a5,t2,12848 <__divdf3+0x314>
   12840:	00010f37          	lui	t5,0x10
   12844:	01ef8fb3          	add	t6,t6,t5
   12848:	0107df13          	srli	t5,a5,0x10
   1284c:	01029293          	slli	t0,t0,0x10
   12850:	01079793          	slli	a5,a5,0x10
   12854:	0102d293          	srli	t0,t0,0x10
   12858:	01ff0f33          	add	t5,t5,t6
   1285c:	005787b3          	add	a5,a5,t0
   12860:	01e4e663          	bltu	s1,t5,1286c <__divdf3+0x338>
   12864:	23e49a63          	bne	s1,t5,12a98 <__divdf3+0x564>
   12868:	22f67863          	bgeu	a2,a5,12a98 <__divdf3+0x564>
   1286c:	00a60fb3          	add	t6,a2,a0
   12870:	00cfb2b3          	sltu	t0,t6,a2
   12874:	00d283b3          	add	t2,t0,a3
   12878:	007484b3          	add	s1,s1,t2
   1287c:	fff58413          	addi	s0,a1,-1
   12880:	000f8613          	addi	a2,t6,0
   12884:	0096e663          	bltu	a3,s1,12890 <__divdf3+0x35c>
   12888:	02029463          	bne	t0,zero,128b0 <__divdf3+0x37c>
   1288c:	02969263          	bne	a3,s1,128b0 <__divdf3+0x37c>
   12890:	01e4e663          	bltu	s1,t5,1289c <__divdf3+0x368>
   12894:	009f1e63          	bne	t5,s1,128b0 <__divdf3+0x37c>
   12898:	00fffc63          	bgeu	t6,a5,128b0 <__divdf3+0x37c>
   1289c:	01f50633          	add	a2,a0,t6
   128a0:	ffe58413          	addi	s0,a1,-2
   128a4:	00a635b3          	sltu	a1,a2,a0
   128a8:	00d585b3          	add	a1,a1,a3
   128ac:	00b484b3          	add	s1,s1,a1
   128b0:	40f607b3          	sub	a5,a2,a5
   128b4:	41e484b3          	sub	s1,s1,t5
   128b8:	00f63633          	sltu	a2,a2,a5
   128bc:	40c484b3          	sub	s1,s1,a2
   128c0:	fff00f13          	addi	t5,zero,-1
   128c4:	10968663          	beq	a3,s1,129d0 <__divdf3+0x49c>
   128c8:	0314d5b3          	divu	a1,s1,a7
   128cc:	0107d613          	srli	a2,a5,0x10
   128d0:	0314f4b3          	remu	s1,s1,a7
   128d4:	02be8f33          	mul	t5,t4,a1
   128d8:	01049493          	slli	s1,s1,0x10
   128dc:	00966633          	or	a2,a2,s1
   128e0:	01e67a63          	bgeu	a2,t5,128f4 <__divdf3+0x3c0>
   128e4:	00c68633          	add	a2,a3,a2
   128e8:	00d66463          	bltu	a2,a3,128f0 <__divdf3+0x3bc>
   128ec:	1be66a63          	bltu	a2,t5,12aa0 <__divdf3+0x56c>
   128f0:	fff58593          	addi	a1,a1,-1
   128f4:	41e60633          	sub	a2,a2,t5
   128f8:	03165f33          	divu	t5,a2,a7
   128fc:	01079793          	slli	a5,a5,0x10
   12900:	0107d793          	srli	a5,a5,0x10
   12904:	03167633          	remu	a2,a2,a7
   12908:	03ee8eb3          	mul	t4,t4,t5
   1290c:	01061613          	slli	a2,a2,0x10
   12910:	00c7e7b3          	or	a5,a5,a2
   12914:	01d7fa63          	bgeu	a5,t4,12928 <__divdf3+0x3f4>
   12918:	00f687b3          	add	a5,a3,a5
   1291c:	01d7f463          	bgeu	a5,t4,12924 <__divdf3+0x3f0>
   12920:	18d7f663          	bgeu	a5,a3,12aac <__divdf3+0x578>
   12924:	ffff0f13          	addi	t5,t5,-1 # ffff <exit-0xb5>
   12928:	01059613          	slli	a2,a1,0x10
   1292c:	01e66633          	or	a2,a2,t5
   12930:	01061593          	slli	a1,a2,0x10
   12934:	0105d593          	srli	a1,a1,0x10
   12938:	41d787b3          	sub	a5,a5,t4
   1293c:	01065e93          	srli	t4,a2,0x10
   12940:	02be0f33          	mul	t5,t3,a1
   12944:	03ce8e33          	mul	t3,t4,t3
   12948:	03d30eb3          	mul	t4,t1,t4
   1294c:	02b30333          	mul	t1,t1,a1
   12950:	010f5593          	srli	a1,t5,0x10
   12954:	01c30333          	add	t1,t1,t3
   12958:	006585b3          	add	a1,a1,t1
   1295c:	01c5f663          	bgeu	a1,t3,12968 <__divdf3+0x434>
   12960:	000108b7          	lui	a7,0x10
   12964:	011e8eb3          	add	t4,t4,a7
   12968:	0105d893          	srli	a7,a1,0x10
   1296c:	010f1f13          	slli	t5,t5,0x10
   12970:	01059593          	slli	a1,a1,0x10
   12974:	010f5f13          	srli	t5,t5,0x10
   12978:	01d888b3          	add	a7,a7,t4
   1297c:	01e585b3          	add	a1,a1,t5
   12980:	0117e663          	bltu	a5,a7,1298c <__divdf3+0x458>
   12984:	05179463          	bne	a5,a7,129cc <__divdf3+0x498>
   12988:	12058863          	beq	a1,zero,12ab8 <__divdf3+0x584>
   1298c:	00f68333          	add	t1,a3,a5
   12990:	fff60f13          	addi	t5,a2,-1
   12994:	00030793          	addi	a5,t1,0
   12998:	02d36463          	bltu	t1,a3,129c0 <__divdf3+0x48c>
   1299c:	01136663          	bltu	t1,a7,129a8 <__divdf3+0x474>
   129a0:	03131463          	bne	t1,a7,129c8 <__divdf3+0x494>
   129a4:	00b57e63          	bgeu	a0,a1,129c0 <__divdf3+0x48c>
   129a8:	ffe60f13          	addi	t5,a2,-2
   129ac:	00151613          	slli	a2,a0,0x1
   129b0:	00a637b3          	sltu	a5,a2,a0
   129b4:	00d787b3          	add	a5,a5,a3
   129b8:	00f307b3          	add	a5,t1,a5
   129bc:	00060513          	addi	a0,a2,0
   129c0:	00b51463          	bne	a0,a1,129c8 <__divdf3+0x494>
   129c4:	01178663          	beq	a5,a7,129d0 <__divdf3+0x49c>
   129c8:	000f0613          	addi	a2,t5,0
   129cc:	00166f13          	ori	t5,a2,1
   129d0:	3ff70793          	addi	a5,a4,1023
   129d4:	12f05663          	bge	zero,a5,12b00 <__divdf3+0x5cc>
   129d8:	007f7693          	andi	a3,t5,7
   129dc:	02068063          	beq	a3,zero,129fc <__divdf3+0x4c8>
   129e0:	00ff7693          	andi	a3,t5,15
   129e4:	00400613          	addi	a2,zero,4
   129e8:	00c68a63          	beq	a3,a2,129fc <__divdf3+0x4c8>
   129ec:	00cf06b3          	add	a3,t5,a2
   129f0:	01e6b633          	sltu	a2,a3,t5
   129f4:	00c40433          	add	s0,s0,a2
   129f8:	00068f13          	addi	t5,a3,0
   129fc:	00741693          	slli	a3,s0,0x7
   12a00:	0006da63          	bge	a3,zero,12a14 <__divdf3+0x4e0>
   12a04:	ff0007b7          	lui	a5,0xff000
   12a08:	fff78793          	addi	a5,a5,-1 # feffffff <__BSS_END__+0xfefe403f>
   12a0c:	00f47433          	and	s0,s0,a5
   12a10:	40070793          	addi	a5,a4,1024
   12a14:	7fe00713          	addi	a4,zero,2046
   12a18:	1af74a63          	blt	a4,a5,12bcc <__divdf3+0x698>
   12a1c:	01d41713          	slli	a4,s0,0x1d
   12a20:	003f5f13          	srli	t5,t5,0x3
   12a24:	01e76733          	or	a4,a4,t5
   12a28:	00345413          	srli	s0,s0,0x3
   12a2c:	00c41413          	slli	s0,s0,0xc
   12a30:	00c45413          	srli	s0,s0,0xc
   12a34:	01479793          	slli	a5,a5,0x14
   12a38:	02c12083          	lw	ra,44(sp)
   12a3c:	0087e7b3          	or	a5,a5,s0
   12a40:	02812403          	lw	s0,40(sp)
   12a44:	01f81813          	slli	a6,a6,0x1f
   12a48:	02412483          	lw	s1,36(sp)
   12a4c:	02012903          	lw	s2,32(sp)
   12a50:	01c12983          	lw	s3,28(sp)
   12a54:	01812a03          	lw	s4,24(sp)
   12a58:	01412a83          	lw	s5,20(sp)
   12a5c:	01012b03          	lw	s6,16(sp)
   12a60:	00c12b83          	lw	s7,12(sp)
   12a64:	00070513          	addi	a0,a4,0
   12a68:	0107e5b3          	or	a1,a5,a6
   12a6c:	03010113          	addi	sp,sp,48
   12a70:	00008067          	jalr	zero,0(ra)
   12a74:	fff70713          	addi	a4,a4,-1
   12a78:	00000613          	addi	a2,zero,0
   12a7c:	d05ff06f          	jal	zero,12780 <__divdf3+0x24c>
   12a80:	ffe58593          	addi	a1,a1,-2
   12a84:	00d787b3          	add	a5,a5,a3
   12a88:	d41ff06f          	jal	zero,127c8 <__divdf3+0x294>
   12a8c:	ffe30313          	addi	t1,t1,-2
   12a90:	00d484b3          	add	s1,s1,a3
   12a94:	d69ff06f          	jal	zero,127fc <__divdf3+0x2c8>
   12a98:	00058413          	addi	s0,a1,0
   12a9c:	e15ff06f          	jal	zero,128b0 <__divdf3+0x37c>
   12aa0:	ffe58593          	addi	a1,a1,-2
   12aa4:	00d60633          	add	a2,a2,a3
   12aa8:	e4dff06f          	jal	zero,128f4 <__divdf3+0x3c0>
   12aac:	ffef0f13          	addi	t5,t5,-2
   12ab0:	00d787b3          	add	a5,a5,a3
   12ab4:	e75ff06f          	jal	zero,12928 <__divdf3+0x3f4>
   12ab8:	00000513          	addi	a0,zero,0
   12abc:	00060f13          	addi	t5,a2,0
   12ac0:	f01ff06f          	jal	zero,129c0 <__divdf3+0x48c>
   12ac4:	000a8813          	addi	a6,s5,0
   12ac8:	00068b13          	addi	s6,a3,0
   12acc:	00200793          	addi	a5,zero,2
   12ad0:	0efb0e63          	beq	s6,a5,12bcc <__divdf3+0x698>
   12ad4:	00300793          	addi	a5,zero,3
   12ad8:	0efb0063          	beq	s6,a5,12bb8 <__divdf3+0x684>
   12adc:	00100793          	addi	a5,zero,1
   12ae0:	eefb18e3          	bne	s6,a5,129d0 <__divdf3+0x49c>
   12ae4:	00000413          	addi	s0,zero,0
   12ae8:	00000713          	addi	a4,zero,0
   12aec:	08c0006f          	jal	zero,12b78 <__divdf3+0x644>
   12af0:	00090813          	addi	a6,s2,0
   12af4:	000a0413          	addi	s0,s4,0
   12af8:	00048f13          	addi	t5,s1,0
   12afc:	fd1ff06f          	jal	zero,12acc <__divdf3+0x598>
   12b00:	08078063          	beq	a5,zero,12b80 <__divdf3+0x64c>
   12b04:	fc900693          	addi	a3,zero,-55
   12b08:	fcd7cee3          	blt	a5,a3,12ae4 <__divdf3+0x5b0>
   12b0c:	fe200693          	addi	a3,zero,-30
   12b10:	06d7cc63          	blt	a5,a3,12b88 <__divdf3+0x654>
   12b14:	00100693          	addi	a3,zero,1
   12b18:	40f686b3          	sub	a3,a3,a5
   12b1c:	41e70713          	addi	a4,a4,1054
   12b20:	00df57b3          	srl	a5,t5,a3
   12b24:	00ef1f33          	sll	t5,t5,a4
   12b28:	01e03f33          	sltu	t5,zero,t5
   12b2c:	00e41733          	sll	a4,s0,a4
   12b30:	00ef6f33          	or	t5,t5,a4
   12b34:	01e7e7b3          	or	a5,a5,t5
   12b38:	00d45433          	srl	s0,s0,a3
   12b3c:	0077f713          	andi	a4,a5,7
   12b40:	02070063          	beq	a4,zero,12b60 <__divdf3+0x62c>
   12b44:	00f7f713          	andi	a4,a5,15
   12b48:	00400693          	addi	a3,zero,4
   12b4c:	00d70a63          	beq	a4,a3,12b60 <__divdf3+0x62c>
   12b50:	00d78733          	add	a4,a5,a3
   12b54:	00f736b3          	sltu	a3,a4,a5
   12b58:	00d40433          	add	s0,s0,a3
   12b5c:	00070793          	addi	a5,a4,0
   12b60:	00841713          	slli	a4,s0,0x8
   12b64:	06074c63          	blt	a4,zero,12bdc <__divdf3+0x6a8>
   12b68:	01d41713          	slli	a4,s0,0x1d
   12b6c:	0037d793          	srli	a5,a5,0x3
   12b70:	00f76733          	or	a4,a4,a5
   12b74:	00345413          	srli	s0,s0,0x3
   12b78:	00000793          	addi	a5,zero,0
   12b7c:	eb1ff06f          	jal	zero,12a2c <__divdf3+0x4f8>
   12b80:	00100693          	addi	a3,zero,1
   12b84:	f99ff06f          	jal	zero,12b1c <__divdf3+0x5e8>
   12b88:	fe100593          	addi	a1,zero,-31
   12b8c:	40f586b3          	sub	a3,a1,a5
   12b90:	00d456b3          	srl	a3,s0,a3
   12b94:	00000613          	addi	a2,zero,0
   12b98:	00b78663          	beq	a5,a1,12ba4 <__divdf3+0x670>
   12b9c:	43e70713          	addi	a4,a4,1086
   12ba0:	00e41633          	sll	a2,s0,a4
   12ba4:	01e66633          	or	a2,a2,t5
   12ba8:	00c03633          	sltu	a2,zero,a2
   12bac:	00c6e7b3          	or	a5,a3,a2
   12bb0:	00000413          	addi	s0,zero,0
   12bb4:	f89ff06f          	jal	zero,12b3c <__divdf3+0x608>
   12bb8:	00080437          	lui	s0,0x80
   12bbc:	00000713          	addi	a4,zero,0
   12bc0:	7ff00793          	addi	a5,zero,2047
   12bc4:	00000813          	addi	a6,zero,0
   12bc8:	e65ff06f          	jal	zero,12a2c <__divdf3+0x4f8>
   12bcc:	00000413          	addi	s0,zero,0
   12bd0:	00000713          	addi	a4,zero,0
   12bd4:	7ff00793          	addi	a5,zero,2047
   12bd8:	e55ff06f          	jal	zero,12a2c <__divdf3+0x4f8>
   12bdc:	00000413          	addi	s0,zero,0
   12be0:	00000713          	addi	a4,zero,0
   12be4:	00100793          	addi	a5,zero,1
   12be8:	e45ff06f          	jal	zero,12a2c <__divdf3+0x4f8>

00012bec <__eqdf2>:
   12bec:	001007b7          	lui	a5,0x100
   12bf0:	0145d813          	srli	a6,a1,0x14
   12bf4:	fff78793          	addi	a5,a5,-1 # fffff <__BSS_END__+0xe403f>
   12bf8:	0146d313          	srli	t1,a3,0x14
   12bfc:	7ff87813          	andi	a6,a6,2047
   12c00:	7ff00e93          	addi	t4,zero,2047
   12c04:	00b7f733          	and	a4,a5,a1
   12c08:	00050893          	addi	a7,a0,0
   12c0c:	01f5df93          	srli	t6,a1,0x1f
   12c10:	00d7f7b3          	and	a5,a5,a3
   12c14:	7ff37313          	andi	t1,t1,2047
   12c18:	01f6df13          	srli	t5,a3,0x1f
   12c1c:	01d81863          	bne	a6,t4,12c2c <__eqdf2+0x40>
   12c20:	00a76e33          	or	t3,a4,a0
   12c24:	00100513          	addi	a0,zero,1
   12c28:	040e1263          	bne	t3,zero,12c6c <__eqdf2+0x80>
   12c2c:	01d31863          	bne	t1,t4,12c3c <__eqdf2+0x50>
   12c30:	00c7e7b3          	or	a5,a5,a2
   12c34:	00100513          	addi	a0,zero,1
   12c38:	02079a63          	bne	a5,zero,12c6c <__eqdf2+0x80>
   12c3c:	00b6c6b3          	xor	a3,a3,a1
   12c40:	00169693          	slli	a3,a3,0x1
   12c44:	02069263          	bne	a3,zero,12c68 <__eqdf2+0x7c>
   12c48:	03161063          	bne	a2,a7,12c68 <__eqdf2+0x7c>
   12c4c:	00000513          	addi	a0,zero,0
   12c50:	01ef8e63          	beq	t6,t5,12c6c <__eqdf2+0x80>
   12c54:	00100513          	addi	a0,zero,1
   12c58:	00081a63          	bne	a6,zero,12c6c <__eqdf2+0x80>
   12c5c:	01176733          	or	a4,a4,a7
   12c60:	00e03533          	sltu	a0,zero,a4
   12c64:	00008067          	jalr	zero,0(ra)
   12c68:	00100513          	addi	a0,zero,1
   12c6c:	00008067          	jalr	zero,0(ra)

00012c70 <__gedf2>:
   12c70:	0145d893          	srli	a7,a1,0x14
   12c74:	00100737          	lui	a4,0x100
   12c78:	fff70713          	addi	a4,a4,-1 # fffff <__BSS_END__+0xe403f>
   12c7c:	0146d813          	srli	a6,a3,0x14
   12c80:	7ff8f893          	andi	a7,a7,2047
   12c84:	7ff00793          	addi	a5,zero,2047
   12c88:	00b77333          	and	t1,a4,a1
   12c8c:	7ff87813          	andi	a6,a6,2047
   12c90:	00d77733          	and	a4,a4,a3
   12c94:	01f5d593          	srli	a1,a1,0x1f
   12c98:	01f6d693          	srli	a3,a3,0x1f
   12c9c:	02f88063          	beq	a7,a5,12cbc <__gedf2+0x4c>
   12ca0:	7ff00e13          	addi	t3,zero,2047
   12ca4:	00080793          	addi	a5,a6,0
   12ca8:	03c81463          	bne	a6,t3,12cd0 <__gedf2+0x60>
   12cac:	00c76e33          	or	t3,a4,a2
   12cb0:	020e0063          	beq	t3,zero,12cd0 <__gedf2+0x60>
   12cb4:	ffe00793          	addi	a5,zero,-2
   12cb8:	0100006f          	jal	zero,12cc8 <__gedf2+0x58>
   12cbc:	00a36e33          	or	t3,t1,a0
   12cc0:	ffe00793          	addi	a5,zero,-2
   12cc4:	fc0e0ee3          	beq	t3,zero,12ca0 <__gedf2+0x30>
   12cc8:	00078513          	addi	a0,a5,0
   12ccc:	00008067          	jalr	zero,0(ra)
   12cd0:	00000e13          	addi	t3,zero,0
   12cd4:	00089663          	bne	a7,zero,12ce0 <__gedf2+0x70>
   12cd8:	00a36e33          	or	t3,t1,a0
   12cdc:	001e3e13          	sltiu	t3,t3,1
   12ce0:	04081863          	bne	a6,zero,12d30 <__gedf2+0xc0>
   12ce4:	00c76eb3          	or	t4,a4,a2
   12ce8:	000e0a63          	beq	t3,zero,12cfc <__gedf2+0x8c>
   12cec:	fc0e8ee3          	beq	t4,zero,12cc8 <__gedf2+0x58>
   12cf0:	00169793          	slli	a5,a3,0x1
   12cf4:	fff78793          	addi	a5,a5,-1
   12cf8:	fd1ff06f          	jal	zero,12cc8 <__gedf2+0x58>
   12cfc:	020e9c63          	bne	t4,zero,12d34 <__gedf2+0xc4>
   12d00:	40b005b3          	sub	a1,zero,a1
   12d04:	0015e793          	ori	a5,a1,1
   12d08:	fc1ff06f          	jal	zero,12cc8 <__gedf2+0x58>
   12d0c:	ff08c2e3          	blt	a7,a6,12cf0 <__gedf2+0x80>
   12d10:	fe6768e3          	bltu	a4,t1,12d00 <__gedf2+0x90>
   12d14:	00a67463          	bgeu	a2,a0,12d1c <__gedf2+0xac>
   12d18:	fee304e3          	beq	t1,a4,12d00 <__gedf2+0x90>
   12d1c:	00c56663          	bltu	a0,a2,12d28 <__gedf2+0xb8>
   12d20:	00000793          	addi	a5,zero,0
   12d24:	fae372e3          	bgeu	t1,a4,12cc8 <__gedf2+0x58>
   12d28:	00159793          	slli	a5,a1,0x1
   12d2c:	fc9ff06f          	jal	zero,12cf4 <__gedf2+0x84>
   12d30:	fc0e10e3          	bne	t3,zero,12cf0 <__gedf2+0x80>
   12d34:	fcb696e3          	bne	a3,a1,12d00 <__gedf2+0x90>
   12d38:	fd185ae3          	bge	a6,a7,12d0c <__gedf2+0x9c>
   12d3c:	40d006b3          	sub	a3,zero,a3
   12d40:	0016e793          	ori	a5,a3,1
   12d44:	f85ff06f          	jal	zero,12cc8 <__gedf2+0x58>

00012d48 <__ledf2>:
   12d48:	0145d893          	srli	a7,a1,0x14
   12d4c:	00100737          	lui	a4,0x100
   12d50:	fff70713          	addi	a4,a4,-1 # fffff <__BSS_END__+0xe403f>
   12d54:	0146d813          	srli	a6,a3,0x14
   12d58:	7ff8f893          	andi	a7,a7,2047
   12d5c:	7ff00793          	addi	a5,zero,2047
   12d60:	00b77333          	and	t1,a4,a1
   12d64:	7ff87813          	andi	a6,a6,2047
   12d68:	00d77733          	and	a4,a4,a3
   12d6c:	01f5d593          	srli	a1,a1,0x1f
   12d70:	01f6d693          	srli	a3,a3,0x1f
   12d74:	02f88063          	beq	a7,a5,12d94 <__ledf2+0x4c>
   12d78:	7ff00e13          	addi	t3,zero,2047
   12d7c:	00080793          	addi	a5,a6,0
   12d80:	03c81463          	bne	a6,t3,12da8 <__ledf2+0x60>
   12d84:	00c76e33          	or	t3,a4,a2
   12d88:	020e0063          	beq	t3,zero,12da8 <__ledf2+0x60>
   12d8c:	00200793          	addi	a5,zero,2
   12d90:	0100006f          	jal	zero,12da0 <__ledf2+0x58>
   12d94:	00a36e33          	or	t3,t1,a0
   12d98:	00200793          	addi	a5,zero,2
   12d9c:	fc0e0ee3          	beq	t3,zero,12d78 <__ledf2+0x30>
   12da0:	00078513          	addi	a0,a5,0
   12da4:	00008067          	jalr	zero,0(ra)
   12da8:	00000e13          	addi	t3,zero,0
   12dac:	00089663          	bne	a7,zero,12db8 <__ledf2+0x70>
   12db0:	00a36e33          	or	t3,t1,a0
   12db4:	001e3e13          	sltiu	t3,t3,1
   12db8:	04081863          	bne	a6,zero,12e08 <__ledf2+0xc0>
   12dbc:	00c76eb3          	or	t4,a4,a2
   12dc0:	000e0a63          	beq	t3,zero,12dd4 <__ledf2+0x8c>
   12dc4:	fc0e8ee3          	beq	t4,zero,12da0 <__ledf2+0x58>
   12dc8:	00169793          	slli	a5,a3,0x1
   12dcc:	fff78793          	addi	a5,a5,-1
   12dd0:	fd1ff06f          	jal	zero,12da0 <__ledf2+0x58>
   12dd4:	020e9c63          	bne	t4,zero,12e0c <__ledf2+0xc4>
   12dd8:	40b005b3          	sub	a1,zero,a1
   12ddc:	0015e793          	ori	a5,a1,1
   12de0:	fc1ff06f          	jal	zero,12da0 <__ledf2+0x58>
   12de4:	ff08c2e3          	blt	a7,a6,12dc8 <__ledf2+0x80>
   12de8:	fe6768e3          	bltu	a4,t1,12dd8 <__ledf2+0x90>
   12dec:	00a67463          	bgeu	a2,a0,12df4 <__ledf2+0xac>
   12df0:	fee304e3          	beq	t1,a4,12dd8 <__ledf2+0x90>
   12df4:	00c56663          	bltu	a0,a2,12e00 <__ledf2+0xb8>
   12df8:	00000793          	addi	a5,zero,0
   12dfc:	fae372e3          	bgeu	t1,a4,12da0 <__ledf2+0x58>
   12e00:	00159793          	slli	a5,a1,0x1
   12e04:	fc9ff06f          	jal	zero,12dcc <__ledf2+0x84>
   12e08:	fc0e10e3          	bne	t3,zero,12dc8 <__ledf2+0x80>
   12e0c:	fcb696e3          	bne	a3,a1,12dd8 <__ledf2+0x90>
   12e10:	fd185ae3          	bge	a6,a7,12de4 <__ledf2+0x9c>
   12e14:	40d006b3          	sub	a3,zero,a3
   12e18:	0016e793          	ori	a5,a3,1
   12e1c:	f85ff06f          	jal	zero,12da0 <__ledf2+0x58>

00012e20 <__muldf3>:
   12e20:	fd010113          	addi	sp,sp,-48
   12e24:	01312e23          	sw	s3,28(sp)
   12e28:	0145d993          	srli	s3,a1,0x14
   12e2c:	02812423          	sw	s0,40(sp)
   12e30:	02912223          	sw	s1,36(sp)
   12e34:	01412c23          	sw	s4,24(sp)
   12e38:	01512a23          	sw	s5,20(sp)
   12e3c:	01712623          	sw	s7,12(sp)
   12e40:	00c59493          	slli	s1,a1,0xc
   12e44:	02112623          	sw	ra,44(sp)
   12e48:	03212023          	sw	s2,32(sp)
   12e4c:	01612823          	sw	s6,16(sp)
   12e50:	7ff9f993          	andi	s3,s3,2047
   12e54:	00050413          	addi	s0,a0,0
   12e58:	00060b93          	addi	s7,a2,0
   12e5c:	00068a13          	addi	s4,a3,0
   12e60:	00c4d493          	srli	s1,s1,0xc
   12e64:	01f5da93          	srli	s5,a1,0x1f
   12e68:	0c098263          	beq	s3,zero,12f2c <__muldf3+0x10c>
   12e6c:	7ff00793          	addi	a5,zero,2047
   12e70:	12f98463          	beq	s3,a5,12f98 <__muldf3+0x178>
   12e74:	00349493          	slli	s1,s1,0x3
   12e78:	01d55793          	srli	a5,a0,0x1d
   12e7c:	0097e7b3          	or	a5,a5,s1
   12e80:	008004b7          	lui	s1,0x800
   12e84:	0097e4b3          	or	s1,a5,s1
   12e88:	00351913          	slli	s2,a0,0x3
   12e8c:	c0198993          	addi	s3,s3,-1023
   12e90:	00000b13          	addi	s6,zero,0
   12e94:	014a5713          	srli	a4,s4,0x14
   12e98:	00ca1413          	slli	s0,s4,0xc
   12e9c:	7ff77713          	andi	a4,a4,2047
   12ea0:	00c45413          	srli	s0,s0,0xc
   12ea4:	01fa5a13          	srli	s4,s4,0x1f
   12ea8:	12070063          	beq	a4,zero,12fc8 <__muldf3+0x1a8>
   12eac:	7ff00793          	addi	a5,zero,2047
   12eb0:	18f70463          	beq	a4,a5,13038 <__muldf3+0x218>
   12eb4:	00341413          	slli	s0,s0,0x3
   12eb8:	01dbd793          	srli	a5,s7,0x1d
   12ebc:	0087e7b3          	or	a5,a5,s0
   12ec0:	00800437          	lui	s0,0x800
   12ec4:	0087e433          	or	s0,a5,s0
   12ec8:	c0170713          	addi	a4,a4,-1023
   12ecc:	003b9793          	slli	a5,s7,0x3
   12ed0:	00000813          	addi	a6,zero,0
   12ed4:	00e989b3          	add	s3,s3,a4
   12ed8:	002b1713          	slli	a4,s6,0x2
   12edc:	01076733          	or	a4,a4,a6
   12ee0:	00a00693          	addi	a3,zero,10
   12ee4:	00198513          	addi	a0,s3,1
   12ee8:	1ae6c263          	blt	a3,a4,1308c <__muldf3+0x26c>
   12eec:	00200613          	addi	a2,zero,2
   12ef0:	014ac5b3          	xor	a1,s5,s4
   12ef4:	00100693          	addi	a3,zero,1
   12ef8:	16e64863          	blt	a2,a4,13068 <__muldf3+0x248>
   12efc:	fff70713          	addi	a4,a4,-1
   12f00:	1ae6e663          	bltu	a3,a4,130ac <__muldf3+0x28c>
   12f04:	00080b13          	addi	s6,a6,0
   12f08:	00200713          	addi	a4,zero,2
   12f0c:	4ceb0e63          	beq	s6,a4,133e8 <__muldf3+0x5c8>
   12f10:	00300713          	addi	a4,zero,3
   12f14:	4ceb0463          	beq	s6,a4,133dc <__muldf3+0x5bc>
   12f18:	00100713          	addi	a4,zero,1
   12f1c:	34eb1463          	bne	s6,a4,13264 <__muldf3+0x444>
   12f20:	00000413          	addi	s0,zero,0
   12f24:	00000613          	addi	a2,zero,0
   12f28:	4640006f          	jal	zero,1338c <__muldf3+0x56c>
   12f2c:	00a4e933          	or	s2,s1,a0
   12f30:	06090e63          	beq	s2,zero,12fac <__muldf3+0x18c>
   12f34:	04048263          	beq	s1,zero,12f78 <__muldf3+0x158>
   12f38:	00048513          	addi	a0,s1,0 # 800000 <__BSS_END__+0x7e4040>
   12f3c:	67c050ef          	jal	ra,185b8 <__clzsi2>
   12f40:	00050713          	addi	a4,a0,0
   12f44:	ff550693          	addi	a3,a0,-11
   12f48:	01d00793          	addi	a5,zero,29
   12f4c:	ff870613          	addi	a2,a4,-8
   12f50:	40d787b3          	sub	a5,a5,a3
   12f54:	00c494b3          	sll	s1,s1,a2
   12f58:	00f457b3          	srl	a5,s0,a5
   12f5c:	0097e7b3          	or	a5,a5,s1
   12f60:	00c414b3          	sll	s1,s0,a2
   12f64:	c0d00993          	addi	s3,zero,-1011
   12f68:	00048913          	addi	s2,s1,0
   12f6c:	40e989b3          	sub	s3,s3,a4
   12f70:	00078493          	addi	s1,a5,0
   12f74:	f1dff06f          	jal	zero,12e90 <__muldf3+0x70>
   12f78:	640050ef          	jal	ra,185b8 <__clzsi2>
   12f7c:	01550693          	addi	a3,a0,21
   12f80:	01c00793          	addi	a5,zero,28
   12f84:	02050713          	addi	a4,a0,32
   12f88:	fcd7d0e3          	bge	a5,a3,12f48 <__muldf3+0x128>
   12f8c:	ff850793          	addi	a5,a0,-8
   12f90:	00f417b3          	sll	a5,s0,a5
   12f94:	fd1ff06f          	jal	zero,12f64 <__muldf3+0x144>
   12f98:	00a4e933          	or	s2,s1,a0
   12f9c:	02091063          	bne	s2,zero,12fbc <__muldf3+0x19c>
   12fa0:	00000493          	addi	s1,zero,0
   12fa4:	00200b13          	addi	s6,zero,2
   12fa8:	eedff06f          	jal	zero,12e94 <__muldf3+0x74>
   12fac:	00000493          	addi	s1,zero,0
   12fb0:	00000993          	addi	s3,zero,0
   12fb4:	00100b13          	addi	s6,zero,1
   12fb8:	eddff06f          	jal	zero,12e94 <__muldf3+0x74>
   12fbc:	00050913          	addi	s2,a0,0
   12fc0:	00300b13          	addi	s6,zero,3
   12fc4:	ed1ff06f          	jal	zero,12e94 <__muldf3+0x74>
   12fc8:	017467b3          	or	a5,s0,s7
   12fcc:	08078063          	beq	a5,zero,1304c <__muldf3+0x22c>
   12fd0:	04040263          	beq	s0,zero,13014 <__muldf3+0x1f4>
   12fd4:	00040513          	addi	a0,s0,0 # 800000 <__BSS_END__+0x7e4040>
   12fd8:	5e0050ef          	jal	ra,185b8 <__clzsi2>
   12fdc:	00050793          	addi	a5,a0,0
   12fe0:	ff550713          	addi	a4,a0,-11
   12fe4:	01d00693          	addi	a3,zero,29
   12fe8:	ff878613          	addi	a2,a5,-8
   12fec:	40e686b3          	sub	a3,a3,a4
   12ff0:	00c41433          	sll	s0,s0,a2
   12ff4:	00dbd6b3          	srl	a3,s7,a3
   12ff8:	0086e6b3          	or	a3,a3,s0
   12ffc:	00cb9433          	sll	s0,s7,a2
   13000:	c0d00713          	addi	a4,zero,-1011
   13004:	40f70733          	sub	a4,a4,a5
   13008:	00040793          	addi	a5,s0,0
   1300c:	00068413          	addi	s0,a3,0
   13010:	ec1ff06f          	jal	zero,12ed0 <__muldf3+0xb0>
   13014:	000b8513          	addi	a0,s7,0
   13018:	5a0050ef          	jal	ra,185b8 <__clzsi2>
   1301c:	01550713          	addi	a4,a0,21
   13020:	01c00693          	addi	a3,zero,28
   13024:	02050793          	addi	a5,a0,32
   13028:	fae6dee3          	bge	a3,a4,12fe4 <__muldf3+0x1c4>
   1302c:	ff850693          	addi	a3,a0,-8
   13030:	00db96b3          	sll	a3,s7,a3
   13034:	fcdff06f          	jal	zero,13000 <__muldf3+0x1e0>
   13038:	017467b3          	or	a5,s0,s7
   1303c:	02079063          	bne	a5,zero,1305c <__muldf3+0x23c>
   13040:	00000413          	addi	s0,zero,0
   13044:	00200813          	addi	a6,zero,2
   13048:	e8dff06f          	jal	zero,12ed4 <__muldf3+0xb4>
   1304c:	00000413          	addi	s0,zero,0
   13050:	00000713          	addi	a4,zero,0
   13054:	00100813          	addi	a6,zero,1
   13058:	e7dff06f          	jal	zero,12ed4 <__muldf3+0xb4>
   1305c:	000b8793          	addi	a5,s7,0
   13060:	00300813          	addi	a6,zero,3
   13064:	e71ff06f          	jal	zero,12ed4 <__muldf3+0xb4>
   13068:	00e69733          	sll	a4,a3,a4
   1306c:	53077613          	andi	a2,a4,1328
   13070:	02061863          	bne	a2,zero,130a0 <__muldf3+0x280>
   13074:	24077693          	andi	a3,a4,576
   13078:	34069a63          	bne	a3,zero,133cc <__muldf3+0x5ac>
   1307c:	08877713          	andi	a4,a4,136
   13080:	02070663          	beq	a4,zero,130ac <__muldf3+0x28c>
   13084:	000a0593          	addi	a1,s4,0
   13088:	e7dff06f          	jal	zero,12f04 <__muldf3+0xe4>
   1308c:	00f00693          	addi	a3,zero,15
   13090:	34d70663          	beq	a4,a3,133dc <__muldf3+0x5bc>
   13094:	00b00693          	addi	a3,zero,11
   13098:	000a8593          	addi	a1,s5,0
   1309c:	fed704e3          	beq	a4,a3,13084 <__muldf3+0x264>
   130a0:	00048413          	addi	s0,s1,0
   130a4:	00090793          	addi	a5,s2,0
   130a8:	e61ff06f          	jal	zero,12f08 <__muldf3+0xe8>
   130ac:	01095893          	srli	a7,s2,0x10
   130b0:	01079e13          	slli	t3,a5,0x10
   130b4:	01091913          	slli	s2,s2,0x10
   130b8:	0107d613          	srli	a2,a5,0x10
   130bc:	01095913          	srli	s2,s2,0x10
   130c0:	010e5e13          	srli	t3,t3,0x10
   130c4:	03c907b3          	mul	a5,s2,t3
   130c8:	03c88333          	mul	t1,a7,t3
   130cc:	0107d813          	srli	a6,a5,0x10
   130d0:	03260733          	mul	a4,a2,s2
   130d4:	00670733          	add	a4,a4,t1
   130d8:	00e80833          	add	a6,a6,a4
   130dc:	02c886b3          	mul	a3,a7,a2
   130e0:	00687663          	bgeu	a6,t1,130ec <__muldf3+0x2cc>
   130e4:	00010737          	lui	a4,0x10
   130e8:	00e686b3          	add	a3,a3,a4
   130ec:	01045713          	srli	a4,s0,0x10
   130f0:	01079793          	slli	a5,a5,0x10
   130f4:	01041413          	slli	s0,s0,0x10
   130f8:	0107d793          	srli	a5,a5,0x10
   130fc:	01045413          	srli	s0,s0,0x10
   13100:	01085f93          	srli	t6,a6,0x10
   13104:	01081813          	slli	a6,a6,0x10
   13108:	02890f33          	mul	t5,s2,s0
   1310c:	00f80833          	add	a6,a6,a5
   13110:	03270933          	mul	s2,a4,s2
   13114:	010f5313          	srli	t1,t5,0x10
   13118:	028887b3          	mul	a5,a7,s0
   1311c:	00f90933          	add	s2,s2,a5
   13120:	01230333          	add	t1,t1,s2
   13124:	02e888b3          	mul	a7,a7,a4
   13128:	00f37663          	bgeu	t1,a5,13134 <__muldf3+0x314>
   1312c:	000107b7          	lui	a5,0x10
   13130:	00f888b3          	add	a7,a7,a5
   13134:	010f1f13          	slli	t5,t5,0x10
   13138:	010f5f13          	srli	t5,t5,0x10
   1313c:	01031793          	slli	a5,t1,0x10
   13140:	01e787b3          	add	a5,a5,t5
   13144:	0104df13          	srli	t5,s1,0x10
   13148:	01049493          	slli	s1,s1,0x10
   1314c:	0104d493          	srli	s1,s1,0x10
   13150:	03c482b3          	mul	t0,s1,t3
   13154:	01035e93          	srli	t4,t1,0x10
   13158:	011e8eb3          	add	t4,t4,a7
   1315c:	00ff8fb3          	add	t6,t6,a5
   13160:	03cf0e33          	mul	t3,t5,t3
   13164:	0102d893          	srli	a7,t0,0x10
   13168:	03e603b3          	mul	t2,a2,t5
   1316c:	02960633          	mul	a2,a2,s1
   13170:	01c60633          	add	a2,a2,t3
   13174:	00c888b3          	add	a7,a7,a2
   13178:	01c8f663          	bgeu	a7,t3,13184 <__muldf3+0x364>
   1317c:	00010637          	lui	a2,0x10
   13180:	00c383b3          	add	t2,t2,a2
   13184:	02848633          	mul	a2,s1,s0
   13188:	01029293          	slli	t0,t0,0x10
   1318c:	0108d313          	srli	t1,a7,0x10
   13190:	0102d293          	srli	t0,t0,0x10
   13194:	01089893          	slli	a7,a7,0x10
   13198:	00730333          	add	t1,t1,t2
   1319c:	005888b3          	add	a7,a7,t0
   131a0:	028f0433          	mul	s0,t5,s0
   131a4:	01065e13          	srli	t3,a2,0x10
   131a8:	03e70f33          	mul	t5,a4,t5
   131ac:	02970733          	mul	a4,a4,s1
   131b0:	00870733          	add	a4,a4,s0
   131b4:	00ee0e33          	add	t3,t3,a4
   131b8:	008e7663          	bgeu	t3,s0,131c4 <__muldf3+0x3a4>
   131bc:	00010737          	lui	a4,0x10
   131c0:	00ef0f33          	add	t5,t5,a4
   131c4:	01061613          	slli	a2,a2,0x10
   131c8:	010e1713          	slli	a4,t3,0x10
   131cc:	01065613          	srli	a2,a2,0x10
   131d0:	01f686b3          	add	a3,a3,t6
   131d4:	00c70733          	add	a4,a4,a2
   131d8:	01d70eb3          	add	t4,a4,t4
   131dc:	00f6b7b3          	sltu	a5,a3,a5
   131e0:	00fe87b3          	add	a5,t4,a5
   131e4:	011688b3          	add	a7,a3,a7
   131e8:	00678333          	add	t1,a5,t1
   131ec:	00d8b6b3          	sltu	a3,a7,a3
   131f0:	00eeb633          	sltu	a2,t4,a4
   131f4:	00d306b3          	add	a3,t1,a3
   131f8:	01d7beb3          	sltu	t4,a5,t4
   131fc:	00f33733          	sltu	a4,t1,a5
   13200:	01d66633          	or	a2,a2,t4
   13204:	0066b333          	sltu	t1,a3,t1
   13208:	010e5e13          	srli	t3,t3,0x10
   1320c:	00989793          	slli	a5,a7,0x9
   13210:	01c60633          	add	a2,a2,t3
   13214:	00676733          	or	a4,a4,t1
   13218:	00c70733          	add	a4,a4,a2
   1321c:	0107e7b3          	or	a5,a5,a6
   13220:	01e70733          	add	a4,a4,t5
   13224:	00f037b3          	sltu	a5,zero,a5
   13228:	0178d893          	srli	a7,a7,0x17
   1322c:	00971713          	slli	a4,a4,0x9
   13230:	0176d413          	srli	s0,a3,0x17
   13234:	0117e7b3          	or	a5,a5,a7
   13238:	00969693          	slli	a3,a3,0x9
   1323c:	00d7e7b3          	or	a5,a5,a3
   13240:	00771693          	slli	a3,a4,0x7
   13244:	00876433          	or	s0,a4,s0
   13248:	0c06d263          	bge	a3,zero,1330c <__muldf3+0x4ec>
   1324c:	0017d713          	srli	a4,a5,0x1
   13250:	0017f793          	andi	a5,a5,1
   13254:	00f76733          	or	a4,a4,a5
   13258:	01f41793          	slli	a5,s0,0x1f
   1325c:	00f767b3          	or	a5,a4,a5
   13260:	00145413          	srli	s0,s0,0x1
   13264:	3ff50713          	addi	a4,a0,1023
   13268:	0ae05663          	bge	zero,a4,13314 <__muldf3+0x4f4>
   1326c:	0077f693          	andi	a3,a5,7
   13270:	02068063          	beq	a3,zero,13290 <__muldf3+0x470>
   13274:	00f7f693          	andi	a3,a5,15
   13278:	00400613          	addi	a2,zero,4
   1327c:	00c68a63          	beq	a3,a2,13290 <__muldf3+0x470>
   13280:	00c786b3          	add	a3,a5,a2
   13284:	00f6b633          	sltu	a2,a3,a5
   13288:	00c40433          	add	s0,s0,a2
   1328c:	00068793          	addi	a5,a3,0
   13290:	00741693          	slli	a3,s0,0x7
   13294:	0006da63          	bge	a3,zero,132a8 <__muldf3+0x488>
   13298:	ff000737          	lui	a4,0xff000
   1329c:	fff70713          	addi	a4,a4,-1 # feffffff <__BSS_END__+0xfefe403f>
   132a0:	00e47433          	and	s0,s0,a4
   132a4:	40050713          	addi	a4,a0,1024
   132a8:	7fe00693          	addi	a3,zero,2046
   132ac:	12e6ce63          	blt	a3,a4,133e8 <__muldf3+0x5c8>
   132b0:	01d41613          	slli	a2,s0,0x1d
   132b4:	0037d793          	srli	a5,a5,0x3
   132b8:	00f66633          	or	a2,a2,a5
   132bc:	00345413          	srli	s0,s0,0x3
   132c0:	00c41413          	slli	s0,s0,0xc
   132c4:	00c45413          	srli	s0,s0,0xc
   132c8:	01471713          	slli	a4,a4,0x14
   132cc:	02c12083          	lw	ra,44(sp)
   132d0:	00876733          	or	a4,a4,s0
   132d4:	02812403          	lw	s0,40(sp)
   132d8:	01f59593          	slli	a1,a1,0x1f
   132dc:	00b767b3          	or	a5,a4,a1
   132e0:	02412483          	lw	s1,36(sp)
   132e4:	02012903          	lw	s2,32(sp)
   132e8:	01c12983          	lw	s3,28(sp)
   132ec:	01812a03          	lw	s4,24(sp)
   132f0:	01412a83          	lw	s5,20(sp)
   132f4:	01012b03          	lw	s6,16(sp)
   132f8:	00c12b83          	lw	s7,12(sp)
   132fc:	00060513          	addi	a0,a2,0 # 10000 <exit-0xb4>
   13300:	00078593          	addi	a1,a5,0 # 10000 <exit-0xb4>
   13304:	03010113          	addi	sp,sp,48
   13308:	00008067          	jalr	zero,0(ra)
   1330c:	00098513          	addi	a0,s3,0
   13310:	f55ff06f          	jal	zero,13264 <__muldf3+0x444>
   13314:	08070063          	beq	a4,zero,13394 <__muldf3+0x574>
   13318:	fc900693          	addi	a3,zero,-55
   1331c:	c0d742e3          	blt	a4,a3,12f20 <__muldf3+0x100>
   13320:	fe200693          	addi	a3,zero,-30
   13324:	06d74c63          	blt	a4,a3,1339c <__muldf3+0x57c>
   13328:	00100693          	addi	a3,zero,1
   1332c:	40e68733          	sub	a4,a3,a4
   13330:	41e50513          	addi	a0,a0,1054
   13334:	00e7d6b3          	srl	a3,a5,a4
   13338:	00a797b3          	sll	a5,a5,a0
   1333c:	00f037b3          	sltu	a5,zero,a5
   13340:	00a41533          	sll	a0,s0,a0
   13344:	00a7e7b3          	or	a5,a5,a0
   13348:	00d7e7b3          	or	a5,a5,a3
   1334c:	00e45433          	srl	s0,s0,a4
   13350:	0077f713          	andi	a4,a5,7
   13354:	02070063          	beq	a4,zero,13374 <__muldf3+0x554>
   13358:	00f7f713          	andi	a4,a5,15
   1335c:	00400693          	addi	a3,zero,4
   13360:	00d70a63          	beq	a4,a3,13374 <__muldf3+0x554>
   13364:	00d78733          	add	a4,a5,a3
   13368:	00f736b3          	sltu	a3,a4,a5
   1336c:	00d40433          	add	s0,s0,a3
   13370:	00070793          	addi	a5,a4,0
   13374:	00841713          	slli	a4,s0,0x8
   13378:	08074063          	blt	a4,zero,133f8 <__muldf3+0x5d8>
   1337c:	01d41613          	slli	a2,s0,0x1d
   13380:	0037d793          	srli	a5,a5,0x3
   13384:	00f66633          	or	a2,a2,a5
   13388:	00345413          	srli	s0,s0,0x3
   1338c:	00000713          	addi	a4,zero,0
   13390:	f31ff06f          	jal	zero,132c0 <__muldf3+0x4a0>
   13394:	00100713          	addi	a4,zero,1
   13398:	f99ff06f          	jal	zero,13330 <__muldf3+0x510>
   1339c:	fe100813          	addi	a6,zero,-31
   133a0:	40e806b3          	sub	a3,a6,a4
   133a4:	00d456b3          	srl	a3,s0,a3
   133a8:	00000613          	addi	a2,zero,0
   133ac:	01070663          	beq	a4,a6,133b8 <__muldf3+0x598>
   133b0:	43e50513          	addi	a0,a0,1086
   133b4:	00a41633          	sll	a2,s0,a0
   133b8:	00c7e7b3          	or	a5,a5,a2
   133bc:	00f037b3          	sltu	a5,zero,a5
   133c0:	00f6e7b3          	or	a5,a3,a5
   133c4:	00000413          	addi	s0,zero,0
   133c8:	f89ff06f          	jal	zero,13350 <__muldf3+0x530>
   133cc:	00080437          	lui	s0,0x80
   133d0:	7ff00713          	addi	a4,zero,2047
   133d4:	00000593          	addi	a1,zero,0
   133d8:	ee9ff06f          	jal	zero,132c0 <__muldf3+0x4a0>
   133dc:	00080437          	lui	s0,0x80
   133e0:	00000613          	addi	a2,zero,0
   133e4:	fedff06f          	jal	zero,133d0 <__muldf3+0x5b0>
   133e8:	00000413          	addi	s0,zero,0
   133ec:	00000613          	addi	a2,zero,0
   133f0:	7ff00713          	addi	a4,zero,2047
   133f4:	ecdff06f          	jal	zero,132c0 <__muldf3+0x4a0>
   133f8:	00000413          	addi	s0,zero,0
   133fc:	00000613          	addi	a2,zero,0
   13400:	00100713          	addi	a4,zero,1
   13404:	ebdff06f          	jal	zero,132c0 <__muldf3+0x4a0>

00013408 <__subdf3>:
   13408:	00100837          	lui	a6,0x100
   1340c:	fff80813          	addi	a6,a6,-1 # fffff <__BSS_END__+0xe403f>
   13410:	fe010113          	addi	sp,sp,-32
   13414:	00b877b3          	and	a5,a6,a1
   13418:	0145d713          	srli	a4,a1,0x14
   1341c:	00d87833          	and	a6,a6,a3
   13420:	0146d893          	srli	a7,a3,0x14
   13424:	00912a23          	sw	s1,20(sp)
   13428:	00379793          	slli	a5,a5,0x3
   1342c:	7ff77493          	andi	s1,a4,2047
   13430:	01d55713          	srli	a4,a0,0x1d
   13434:	01212823          	sw	s2,16(sp)
   13438:	00f767b3          	or	a5,a4,a5
   1343c:	01f5d913          	srli	s2,a1,0x1f
   13440:	01d65713          	srli	a4,a2,0x1d
   13444:	00381813          	slli	a6,a6,0x3
   13448:	00112e23          	sw	ra,28(sp)
   1344c:	00812c23          	sw	s0,24(sp)
   13450:	01312623          	sw	s3,12(sp)
   13454:	7ff8f893          	andi	a7,a7,2047
   13458:	7ff00593          	addi	a1,zero,2047
   1345c:	00351513          	slli	a0,a0,0x3
   13460:	01f6d693          	srli	a3,a3,0x1f
   13464:	01076733          	or	a4,a4,a6
   13468:	00361613          	slli	a2,a2,0x3
   1346c:	00b89663          	bne	a7,a1,13478 <__subdf3+0x70>
   13470:	00c765b3          	or	a1,a4,a2
   13474:	00059463          	bne	a1,zero,1347c <__subdf3+0x74>
   13478:	0016c693          	xori	a3,a3,1
   1347c:	41148833          	sub	a6,s1,a7
   13480:	7ff00593          	addi	a1,zero,2047
   13484:	31269463          	bne	a3,s2,1378c <__subdf3+0x384>
   13488:	11005263          	bge	zero,a6,1358c <__subdf3+0x184>
   1348c:	02089c63          	bne	a7,zero,134c4 <__subdf3+0xbc>
   13490:	00c766b3          	or	a3,a4,a2
   13494:	02068463          	beq	a3,zero,134bc <__subdf3+0xb4>
   13498:	fff48813          	addi	a6,s1,-1
   1349c:	00081e63          	bne	a6,zero,134b8 <__subdf3+0xb0>
   134a0:	00c50633          	add	a2,a0,a2
   134a4:	00e787b3          	add	a5,a5,a4
   134a8:	00a63533          	sltu	a0,a2,a0
   134ac:	00a787b3          	add	a5,a5,a0
   134b0:	00100493          	addi	s1,zero,1
   134b4:	0600006f          	jal	zero,13514 <__subdf3+0x10c>
   134b8:	00b49c63          	bne	s1,a1,134d0 <__subdf3+0xc8>
   134bc:	00050613          	addi	a2,a0,0
   134c0:	1d80006f          	jal	zero,13698 <__subdf3+0x290>
   134c4:	feb48ce3          	beq	s1,a1,134bc <__subdf3+0xb4>
   134c8:	008006b7          	lui	a3,0x800
   134cc:	00d76733          	or	a4,a4,a3
   134d0:	03800693          	addi	a3,zero,56
   134d4:	0b06c663          	blt	a3,a6,13580 <__subdf3+0x178>
   134d8:	01f00693          	addi	a3,zero,31
   134dc:	02000893          	addi	a7,zero,32
   134e0:	0706c863          	blt	a3,a6,13550 <__subdf3+0x148>
   134e4:	410888b3          	sub	a7,a7,a6
   134e8:	011716b3          	sll	a3,a4,a7
   134ec:	010655b3          	srl	a1,a2,a6
   134f0:	011618b3          	sll	a7,a2,a7
   134f4:	00b6e6b3          	or	a3,a3,a1
   134f8:	011038b3          	sltu	a7,zero,a7
   134fc:	0116e6b3          	or	a3,a3,a7
   13500:	01075833          	srl	a6,a4,a6
   13504:	00a68633          	add	a2,a3,a0
   13508:	00f80833          	add	a6,a6,a5
   1350c:	00d636b3          	sltu	a3,a2,a3
   13510:	00d807b3          	add	a5,a6,a3
   13514:	00879713          	slli	a4,a5,0x8
   13518:	22075663          	bge	a4,zero,13744 <__subdf3+0x33c>
   1351c:	00148493          	addi	s1,s1,1
   13520:	7ff00713          	addi	a4,zero,2047
   13524:	60e48863          	beq	s1,a4,13b34 <__subdf3+0x72c>
   13528:	ff800737          	lui	a4,0xff800
   1352c:	fff70713          	addi	a4,a4,-1 # ff7fffff <__BSS_END__+0xff7e403f>
   13530:	00e7f7b3          	and	a5,a5,a4
   13534:	00165713          	srli	a4,a2,0x1
   13538:	00167613          	andi	a2,a2,1
   1353c:	00c76733          	or	a4,a4,a2
   13540:	01f79613          	slli	a2,a5,0x1f
   13544:	00e66633          	or	a2,a2,a4
   13548:	0017d793          	srli	a5,a5,0x1
   1354c:	1f80006f          	jal	zero,13744 <__subdf3+0x33c>
   13550:	fe080693          	addi	a3,a6,-32
   13554:	00d756b3          	srl	a3,a4,a3
   13558:	00000593          	addi	a1,zero,0
   1355c:	01180863          	beq	a6,a7,1356c <__subdf3+0x164>
   13560:	04000593          	addi	a1,zero,64
   13564:	410585b3          	sub	a1,a1,a6
   13568:	00b715b3          	sll	a1,a4,a1
   1356c:	00c5e5b3          	or	a1,a1,a2
   13570:	00b035b3          	sltu	a1,zero,a1
   13574:	00b6e6b3          	or	a3,a3,a1
   13578:	00000813          	addi	a6,zero,0
   1357c:	f89ff06f          	jal	zero,13504 <__subdf3+0xfc>
   13580:	00c766b3          	or	a3,a4,a2
   13584:	00d036b3          	sltu	a3,zero,a3
   13588:	ff1ff06f          	jal	zero,13578 <__subdf3+0x170>
   1358c:	0c080263          	beq	a6,zero,13650 <__subdf3+0x248>
   13590:	409886b3          	sub	a3,a7,s1
   13594:	02049263          	bne	s1,zero,135b8 <__subdf3+0x1b0>
   13598:	00a7e833          	or	a6,a5,a0
   1359c:	00080863          	beq	a6,zero,135ac <__subdf3+0x1a4>
   135a0:	fff68813          	addi	a6,a3,-1 # 7fffff <__BSS_END__+0x7e403f>
   135a4:	ee080ee3          	beq	a6,zero,134a0 <__subdf3+0x98>
   135a8:	02b69063          	bne	a3,a1,135c8 <__subdf3+0x1c0>
   135ac:	00070793          	addi	a5,a4,0
   135b0:	00068493          	addi	s1,a3,0
   135b4:	0e40006f          	jal	zero,13698 <__subdf3+0x290>
   135b8:	58b88663          	beq	a7,a1,13b44 <__subdf3+0x73c>
   135bc:	008005b7          	lui	a1,0x800
   135c0:	00b7e7b3          	or	a5,a5,a1
   135c4:	00068813          	addi	a6,a3,0
   135c8:	03800693          	addi	a3,zero,56
   135cc:	0706cc63          	blt	a3,a6,13644 <__subdf3+0x23c>
   135d0:	01f00693          	addi	a3,zero,31
   135d4:	02000313          	addi	t1,zero,32
   135d8:	0306ce63          	blt	a3,a6,13614 <__subdf3+0x20c>
   135dc:	41030333          	sub	t1,t1,a6
   135e0:	006796b3          	sll	a3,a5,t1
   135e4:	010555b3          	srl	a1,a0,a6
   135e8:	00651333          	sll	t1,a0,t1
   135ec:	00b6e6b3          	or	a3,a3,a1
   135f0:	00603333          	sltu	t1,zero,t1
   135f4:	0066e6b3          	or	a3,a3,t1
   135f8:	0107d833          	srl	a6,a5,a6
   135fc:	00c68633          	add	a2,a3,a2
   13600:	00e80833          	add	a6,a6,a4
   13604:	00d636b3          	sltu	a3,a2,a3
   13608:	00d807b3          	add	a5,a6,a3
   1360c:	00088493          	addi	s1,a7,0 # 10000 <exit-0xb4>
   13610:	f05ff06f          	jal	zero,13514 <__subdf3+0x10c>
   13614:	fe080693          	addi	a3,a6,-32
   13618:	00d7d6b3          	srl	a3,a5,a3
   1361c:	00000593          	addi	a1,zero,0
   13620:	00680863          	beq	a6,t1,13630 <__subdf3+0x228>
   13624:	04000593          	addi	a1,zero,64
   13628:	410585b3          	sub	a1,a1,a6
   1362c:	00b795b3          	sll	a1,a5,a1
   13630:	00a5e5b3          	or	a1,a1,a0
   13634:	00b035b3          	sltu	a1,zero,a1
   13638:	00b6e6b3          	or	a3,a3,a1
   1363c:	00000813          	addi	a6,zero,0
   13640:	fbdff06f          	jal	zero,135fc <__subdf3+0x1f4>
   13644:	00a7e6b3          	or	a3,a5,a0
   13648:	00d036b3          	sltu	a3,zero,a3
   1364c:	ff1ff06f          	jal	zero,1363c <__subdf3+0x234>
   13650:	00148693          	addi	a3,s1,1
   13654:	7fe6f813          	andi	a6,a3,2046
   13658:	0c081263          	bne	a6,zero,1371c <__subdf3+0x314>
   1365c:	00a7e6b3          	or	a3,a5,a0
   13660:	0a049463          	bne	s1,zero,13708 <__subdf3+0x300>
   13664:	4a068863          	beq	a3,zero,13b14 <__subdf3+0x70c>
   13668:	00c766b3          	or	a3,a4,a2
   1366c:	4a068863          	beq	a3,zero,13b1c <__subdf3+0x714>
   13670:	00c50633          	add	a2,a0,a2
   13674:	00e787b3          	add	a5,a5,a4
   13678:	00a63533          	sltu	a0,a2,a0
   1367c:	00a787b3          	add	a5,a5,a0
   13680:	00879713          	slli	a4,a5,0x8
   13684:	32075a63          	bge	a4,zero,139b8 <__subdf3+0x5b0>
   13688:	ff800737          	lui	a4,0xff800
   1368c:	fff70713          	addi	a4,a4,-1 # ff7fffff <__BSS_END__+0xff7e403f>
   13690:	00e7f7b3          	and	a5,a5,a4
   13694:	00100493          	addi	s1,zero,1
   13698:	01d79693          	slli	a3,a5,0x1d
   1369c:	00365613          	srli	a2,a2,0x3
   136a0:	7ff00713          	addi	a4,zero,2047
   136a4:	00c6e6b3          	or	a3,a3,a2
   136a8:	0037d793          	srli	a5,a5,0x3
   136ac:	00e49e63          	bne	s1,a4,136c8 <__subdf3+0x2c0>
   136b0:	00f6e6b3          	or	a3,a3,a5
   136b4:	00000793          	addi	a5,zero,0
   136b8:	00068863          	beq	a3,zero,136c8 <__subdf3+0x2c0>
   136bc:	000807b7          	lui	a5,0x80
   136c0:	00000693          	addi	a3,zero,0
   136c4:	00000913          	addi	s2,zero,0
   136c8:	7ff4f713          	andi	a4,s1,2047
   136cc:	00c79793          	slli	a5,a5,0xc
   136d0:	01c12083          	lw	ra,28(sp)
   136d4:	01812403          	lw	s0,24(sp)
   136d8:	00c7d793          	srli	a5,a5,0xc
   136dc:	01471713          	slli	a4,a4,0x14
   136e0:	01f91593          	slli	a1,s2,0x1f
   136e4:	00f76733          	or	a4,a4,a5
   136e8:	00b767b3          	or	a5,a4,a1
   136ec:	01412483          	lw	s1,20(sp)
   136f0:	01012903          	lw	s2,16(sp)
   136f4:	00c12983          	lw	s3,12(sp)
   136f8:	00068513          	addi	a0,a3,0
   136fc:	00078593          	addi	a1,a5,0 # 80000 <__BSS_END__+0x64040>
   13700:	02010113          	addi	sp,sp,32
   13704:	00008067          	jalr	zero,0(ra)
   13708:	40068e63          	beq	a3,zero,13b24 <__subdf3+0x71c>
   1370c:	00c76733          	or	a4,a4,a2
   13710:	2c071c63          	bne	a4,zero,139e8 <__subdf3+0x5e0>
   13714:	00050613          	addi	a2,a0,0
   13718:	4100006f          	jal	zero,13b28 <__subdf3+0x720>
   1371c:	40b68a63          	beq	a3,a1,13b30 <__subdf3+0x728>
   13720:	00c50633          	add	a2,a0,a2
   13724:	00e787b3          	add	a5,a5,a4
   13728:	00a63533          	sltu	a0,a2,a0
   1372c:	00a787b3          	add	a5,a5,a0
   13730:	01f79713          	slli	a4,a5,0x1f
   13734:	00165613          	srli	a2,a2,0x1
   13738:	00c76633          	or	a2,a4,a2
   1373c:	0017d793          	srli	a5,a5,0x1
   13740:	00068493          	addi	s1,a3,0
   13744:	00767713          	andi	a4,a2,7
   13748:	02070063          	beq	a4,zero,13768 <__subdf3+0x360>
   1374c:	00f67713          	andi	a4,a2,15
   13750:	00400693          	addi	a3,zero,4
   13754:	00d70a63          	beq	a4,a3,13768 <__subdf3+0x360>
   13758:	00d60733          	add	a4,a2,a3
   1375c:	00c736b3          	sltu	a3,a4,a2
   13760:	00d787b3          	add	a5,a5,a3
   13764:	00070613          	addi	a2,a4,0
   13768:	00879713          	slli	a4,a5,0x8
   1376c:	f20756e3          	bge	a4,zero,13698 <__subdf3+0x290>
   13770:	00148493          	addi	s1,s1,1
   13774:	7ff00713          	addi	a4,zero,2047
   13778:	3ae48e63          	beq	s1,a4,13b34 <__subdf3+0x72c>
   1377c:	ff800737          	lui	a4,0xff800
   13780:	fff70713          	addi	a4,a4,-1 # ff7fffff <__BSS_END__+0xff7e403f>
   13784:	00e7f7b3          	and	a5,a5,a4
   13788:	f11ff06f          	jal	zero,13698 <__subdf3+0x290>
   1378c:	0f005063          	bge	zero,a6,1386c <__subdf3+0x464>
   13790:	08089863          	bne	a7,zero,13820 <__subdf3+0x418>
   13794:	00c766b3          	or	a3,a4,a2
   13798:	d20682e3          	beq	a3,zero,134bc <__subdf3+0xb4>
   1379c:	fff48813          	addi	a6,s1,-1
   137a0:	00081e63          	bne	a6,zero,137bc <__subdf3+0x3b4>
   137a4:	40c50633          	sub	a2,a0,a2
   137a8:	40e787b3          	sub	a5,a5,a4
   137ac:	00c53533          	sltu	a0,a0,a2
   137b0:	40a787b3          	sub	a5,a5,a0
   137b4:	00100493          	addi	s1,zero,1
   137b8:	04c0006f          	jal	zero,13804 <__subdf3+0x3fc>
   137bc:	d0b480e3          	beq	s1,a1,134bc <__subdf3+0xb4>
   137c0:	03800693          	addi	a3,zero,56
   137c4:	0906ce63          	blt	a3,a6,13860 <__subdf3+0x458>
   137c8:	01f00693          	addi	a3,zero,31
   137cc:	02000893          	addi	a7,zero,32
   137d0:	0706c063          	blt	a3,a6,13830 <__subdf3+0x428>
   137d4:	410888b3          	sub	a7,a7,a6
   137d8:	011716b3          	sll	a3,a4,a7
   137dc:	010655b3          	srl	a1,a2,a6
   137e0:	011618b3          	sll	a7,a2,a7
   137e4:	00b6e6b3          	or	a3,a3,a1
   137e8:	011038b3          	sltu	a7,zero,a7
   137ec:	0116e6b3          	or	a3,a3,a7
   137f0:	01075833          	srl	a6,a4,a6
   137f4:	40d50633          	sub	a2,a0,a3
   137f8:	41078833          	sub	a6,a5,a6
   137fc:	00c53533          	sltu	a0,a0,a2
   13800:	40a807b3          	sub	a5,a6,a0
   13804:	00879713          	slli	a4,a5,0x8
   13808:	f2075ee3          	bge	a4,zero,13744 <__subdf3+0x33c>
   1380c:	00800437          	lui	s0,0x800
   13810:	fff40413          	addi	s0,s0,-1 # 7fffff <__BSS_END__+0x7e403f>
   13814:	0087f433          	and	s0,a5,s0
   13818:	00060993          	addi	s3,a2,0
   1381c:	2140006f          	jal	zero,13a30 <__subdf3+0x628>
   13820:	c8b48ee3          	beq	s1,a1,134bc <__subdf3+0xb4>
   13824:	008006b7          	lui	a3,0x800
   13828:	00d76733          	or	a4,a4,a3
   1382c:	f95ff06f          	jal	zero,137c0 <__subdf3+0x3b8>
   13830:	fe080693          	addi	a3,a6,-32
   13834:	00d756b3          	srl	a3,a4,a3
   13838:	00000593          	addi	a1,zero,0
   1383c:	01180863          	beq	a6,a7,1384c <__subdf3+0x444>
   13840:	04000593          	addi	a1,zero,64
   13844:	410585b3          	sub	a1,a1,a6
   13848:	00b715b3          	sll	a1,a4,a1
   1384c:	00c5e5b3          	or	a1,a1,a2
   13850:	00b035b3          	sltu	a1,zero,a1
   13854:	00b6e6b3          	or	a3,a3,a1
   13858:	00000813          	addi	a6,zero,0
   1385c:	f99ff06f          	jal	zero,137f4 <__subdf3+0x3ec>
   13860:	00c766b3          	or	a3,a4,a2
   13864:	00d036b3          	sltu	a3,zero,a3
   13868:	ff1ff06f          	jal	zero,13858 <__subdf3+0x450>
   1386c:	0e080663          	beq	a6,zero,13958 <__subdf3+0x550>
   13870:	40988333          	sub	t1,a7,s1
   13874:	04049263          	bne	s1,zero,138b8 <__subdf3+0x4b0>
   13878:	00a7e833          	or	a6,a5,a0
   1387c:	02080663          	beq	a6,zero,138a8 <__subdf3+0x4a0>
   13880:	fff30813          	addi	a6,t1,-1
   13884:	02081063          	bne	a6,zero,138a4 <__subdf3+0x49c>
   13888:	40a60533          	sub	a0,a2,a0
   1388c:	00a635b3          	sltu	a1,a2,a0
   13890:	40f707b3          	sub	a5,a4,a5
   13894:	00050613          	addi	a2,a0,0
   13898:	40b787b3          	sub	a5,a5,a1
   1389c:	00068913          	addi	s2,a3,0 # 800000 <__BSS_END__+0x7e4040>
   138a0:	f15ff06f          	jal	zero,137b4 <__subdf3+0x3ac>
   138a4:	02b31263          	bne	t1,a1,138c8 <__subdf3+0x4c0>
   138a8:	00068913          	addi	s2,a3,0
   138ac:	00070793          	addi	a5,a4,0
   138b0:	00030493          	addi	s1,t1,0
   138b4:	de5ff06f          	jal	zero,13698 <__subdf3+0x290>
   138b8:	28b88463          	beq	a7,a1,13b40 <__subdf3+0x738>
   138bc:	008005b7          	lui	a1,0x800
   138c0:	00b7e7b3          	or	a5,a5,a1
   138c4:	00030813          	addi	a6,t1,0
   138c8:	03800593          	addi	a1,zero,56
   138cc:	0905c063          	blt	a1,a6,1394c <__subdf3+0x544>
   138d0:	01f00593          	addi	a1,zero,31
   138d4:	02000e13          	addi	t3,zero,32
   138d8:	0505c263          	blt	a1,a6,1391c <__subdf3+0x514>
   138dc:	410e0e33          	sub	t3,t3,a6
   138e0:	01c795b3          	sll	a1,a5,t3
   138e4:	01055333          	srl	t1,a0,a6
   138e8:	01c51e33          	sll	t3,a0,t3
   138ec:	0065e5b3          	or	a1,a1,t1
   138f0:	01c03e33          	sltu	t3,zero,t3
   138f4:	01c5e5b3          	or	a1,a1,t3
   138f8:	0107d833          	srl	a6,a5,a6
   138fc:	40b605b3          	sub	a1,a2,a1
   13900:	00b637b3          	sltu	a5,a2,a1
   13904:	41070833          	sub	a6,a4,a6
   13908:	00058613          	addi	a2,a1,0 # 800000 <__BSS_END__+0x7e4040>
   1390c:	40f807b3          	sub	a5,a6,a5
   13910:	00088493          	addi	s1,a7,0
   13914:	00068913          	addi	s2,a3,0
   13918:	eedff06f          	jal	zero,13804 <__subdf3+0x3fc>
   1391c:	fe080593          	addi	a1,a6,-32
   13920:	00b7d5b3          	srl	a1,a5,a1
   13924:	00000313          	addi	t1,zero,0
   13928:	01c80863          	beq	a6,t3,13938 <__subdf3+0x530>
   1392c:	04000313          	addi	t1,zero,64
   13930:	41030333          	sub	t1,t1,a6
   13934:	00679333          	sll	t1,a5,t1
   13938:	00a36333          	or	t1,t1,a0
   1393c:	00603333          	sltu	t1,zero,t1
   13940:	0065e5b3          	or	a1,a1,t1
   13944:	00000813          	addi	a6,zero,0
   13948:	fb5ff06f          	jal	zero,138fc <__subdf3+0x4f4>
   1394c:	00a7e5b3          	or	a1,a5,a0
   13950:	00b035b3          	sltu	a1,zero,a1
   13954:	ff1ff06f          	jal	zero,13944 <__subdf3+0x53c>
   13958:	00148813          	addi	a6,s1,1
   1395c:	7fe87813          	andi	a6,a6,2046
   13960:	0a081063          	bne	a6,zero,13a00 <__subdf3+0x5f8>
   13964:	00c76833          	or	a6,a4,a2
   13968:	00a7e8b3          	or	a7,a5,a0
   1396c:	06049863          	bne	s1,zero,139dc <__subdf3+0x5d4>
   13970:	00089a63          	bne	a7,zero,13984 <__subdf3+0x57c>
   13974:	00070793          	addi	a5,a4,0
   13978:	02081e63          	bne	a6,zero,139b4 <__subdf3+0x5ac>
   1397c:	00000913          	addi	s2,zero,0
   13980:	1b40006f          	jal	zero,13b34 <__subdf3+0x72c>
   13984:	18080c63          	beq	a6,zero,13b1c <__subdf3+0x714>
   13988:	40c50833          	sub	a6,a0,a2
   1398c:	010538b3          	sltu	a7,a0,a6
   13990:	40e785b3          	sub	a1,a5,a4
   13994:	411585b3          	sub	a1,a1,a7
   13998:	00859893          	slli	a7,a1,0x8
   1399c:	0208d663          	bge	a7,zero,139c8 <__subdf3+0x5c0>
   139a0:	40a60533          	sub	a0,a2,a0
   139a4:	00a635b3          	sltu	a1,a2,a0
   139a8:	40f707b3          	sub	a5,a4,a5
   139ac:	00050613          	addi	a2,a0,0
   139b0:	40b787b3          	sub	a5,a5,a1
   139b4:	00068913          	addi	s2,a3,0
   139b8:	00f66733          	or	a4,a2,a5
   139bc:	1a070063          	beq	a4,zero,13b5c <__subdf3+0x754>
   139c0:	00000493          	addi	s1,zero,0
   139c4:	d81ff06f          	jal	zero,13744 <__subdf3+0x33c>
   139c8:	00b86633          	or	a2,a6,a1
   139cc:	18060263          	beq	a2,zero,13b50 <__subdf3+0x748>
   139d0:	00058793          	addi	a5,a1,0
   139d4:	00080613          	addi	a2,a6,0
   139d8:	fe1ff06f          	jal	zero,139b8 <__subdf3+0x5b0>
   139dc:	00089e63          	bne	a7,zero,139f8 <__subdf3+0x5f0>
   139e0:	00068913          	addi	s2,a3,0
   139e4:	14081063          	bne	a6,zero,13b24 <__subdf3+0x71c>
   139e8:	00000913          	addi	s2,zero,0
   139ec:	004007b7          	lui	a5,0x400
   139f0:	00000613          	addi	a2,zero,0
   139f4:	1340006f          	jal	zero,13b28 <__subdf3+0x720>
   139f8:	d0080ee3          	beq	a6,zero,13714 <__subdf3+0x30c>
   139fc:	fedff06f          	jal	zero,139e8 <__subdf3+0x5e0>
   13a00:	40c505b3          	sub	a1,a0,a2
   13a04:	00b53833          	sltu	a6,a0,a1
   13a08:	40e78433          	sub	s0,a5,a4
   13a0c:	41040433          	sub	s0,s0,a6
   13a10:	00841813          	slli	a6,s0,0x8
   13a14:	00058993          	addi	s3,a1,0
   13a18:	06085e63          	bge	a6,zero,13a94 <__subdf3+0x68c>
   13a1c:	40a609b3          	sub	s3,a2,a0
   13a20:	40f70433          	sub	s0,a4,a5
   13a24:	01363633          	sltu	a2,a2,s3
   13a28:	40c40433          	sub	s0,s0,a2
   13a2c:	00068913          	addi	s2,a3,0
   13a30:	06040e63          	beq	s0,zero,13aac <__subdf3+0x6a4>
   13a34:	00040513          	addi	a0,s0,0
   13a38:	381040ef          	jal	ra,185b8 <__clzsi2>
   13a3c:	ff850713          	addi	a4,a0,-8
   13a40:	02000793          	addi	a5,zero,32
   13a44:	40e787b3          	sub	a5,a5,a4
   13a48:	00e41433          	sll	s0,s0,a4
   13a4c:	00f9d7b3          	srl	a5,s3,a5
   13a50:	0087e7b3          	or	a5,a5,s0
   13a54:	00e99633          	sll	a2,s3,a4
   13a58:	0a974463          	blt	a4,s1,13b00 <__subdf3+0x6f8>
   13a5c:	40970733          	sub	a4,a4,s1
   13a60:	00170513          	addi	a0,a4,1
   13a64:	01f00693          	addi	a3,zero,31
   13a68:	02000593          	addi	a1,zero,32
   13a6c:	06a6c263          	blt	a3,a0,13ad0 <__subdf3+0x6c8>
   13a70:	40a585b3          	sub	a1,a1,a0
   13a74:	00b79733          	sll	a4,a5,a1
   13a78:	00a656b3          	srl	a3,a2,a0
   13a7c:	00b615b3          	sll	a1,a2,a1
   13a80:	00d76733          	or	a4,a4,a3
   13a84:	00b035b3          	sltu	a1,zero,a1
   13a88:	00b76633          	or	a2,a4,a1
   13a8c:	00a7d7b3          	srl	a5,a5,a0
   13a90:	f29ff06f          	jal	zero,139b8 <__subdf3+0x5b0>
   13a94:	0085e633          	or	a2,a1,s0
   13a98:	f8061ce3          	bne	a2,zero,13a30 <__subdf3+0x628>
   13a9c:	00000913          	addi	s2,zero,0
   13aa0:	00000793          	addi	a5,zero,0
   13aa4:	00000493          	addi	s1,zero,0
   13aa8:	bf1ff06f          	jal	zero,13698 <__subdf3+0x290>
   13aac:	00098513          	addi	a0,s3,0
   13ab0:	309040ef          	jal	ra,185b8 <__clzsi2>
   13ab4:	01850713          	addi	a4,a0,24
   13ab8:	01f00793          	addi	a5,zero,31
   13abc:	f8e7d2e3          	bge	a5,a4,13a40 <__subdf3+0x638>
   13ac0:	ff850793          	addi	a5,a0,-8
   13ac4:	00f997b3          	sll	a5,s3,a5
   13ac8:	00000613          	addi	a2,zero,0
   13acc:	f8dff06f          	jal	zero,13a58 <__subdf3+0x650>
   13ad0:	fe170713          	addi	a4,a4,-31
   13ad4:	00e7d733          	srl	a4,a5,a4
   13ad8:	00000693          	addi	a3,zero,0
   13adc:	00b50863          	beq	a0,a1,13aec <__subdf3+0x6e4>
   13ae0:	04000693          	addi	a3,zero,64
   13ae4:	40a686b3          	sub	a3,a3,a0
   13ae8:	00d796b3          	sll	a3,a5,a3
   13aec:	00d666b3          	or	a3,a2,a3
   13af0:	00d036b3          	sltu	a3,zero,a3
   13af4:	00d76633          	or	a2,a4,a3
   13af8:	00000793          	addi	a5,zero,0
   13afc:	ebdff06f          	jal	zero,139b8 <__subdf3+0x5b0>
   13b00:	40e484b3          	sub	s1,s1,a4
   13b04:	ff800737          	lui	a4,0xff800
   13b08:	fff70713          	addi	a4,a4,-1 # ff7fffff <__BSS_END__+0xff7e403f>
   13b0c:	00e7f7b3          	and	a5,a5,a4
   13b10:	c35ff06f          	jal	zero,13744 <__subdf3+0x33c>
   13b14:	00070793          	addi	a5,a4,0
   13b18:	ea1ff06f          	jal	zero,139b8 <__subdf3+0x5b0>
   13b1c:	00050613          	addi	a2,a0,0
   13b20:	e99ff06f          	jal	zero,139b8 <__subdf3+0x5b0>
   13b24:	00070793          	addi	a5,a4,0
   13b28:	00058493          	addi	s1,a1,0
   13b2c:	b6dff06f          	jal	zero,13698 <__subdf3+0x290>
   13b30:	00068493          	addi	s1,a3,0
   13b34:	00000793          	addi	a5,zero,0
   13b38:	00000613          	addi	a2,zero,0
   13b3c:	b5dff06f          	jal	zero,13698 <__subdf3+0x290>
   13b40:	00068913          	addi	s2,a3,0
   13b44:	00070793          	addi	a5,a4,0
   13b48:	00088493          	addi	s1,a7,0
   13b4c:	b4dff06f          	jal	zero,13698 <__subdf3+0x290>
   13b50:	00000913          	addi	s2,zero,0
   13b54:	00000793          	addi	a5,zero,0
   13b58:	b41ff06f          	jal	zero,13698 <__subdf3+0x290>
   13b5c:	00000793          	addi	a5,zero,0
   13b60:	00000613          	addi	a2,zero,0
   13b64:	f41ff06f          	jal	zero,13aa4 <__subdf3+0x69c>

00013b68 <__fixdfsi>:
   13b68:	0145d713          	srli	a4,a1,0x14
   13b6c:	001006b7          	lui	a3,0x100
   13b70:	fff68793          	addi	a5,a3,-1 # fffff <__BSS_END__+0xe403f>
   13b74:	7ff77713          	andi	a4,a4,2047
   13b78:	3fe00613          	addi	a2,zero,1022
   13b7c:	00b7f7b3          	and	a5,a5,a1
   13b80:	01f5d593          	srli	a1,a1,0x1f
   13b84:	04e65c63          	bge	a2,a4,13bdc <__fixdfsi+0x74>
   13b88:	41d00613          	addi	a2,zero,1053
   13b8c:	00e65a63          	bge	a2,a4,13ba0 <__fixdfsi+0x38>
   13b90:	80000537          	lui	a0,0x80000
   13b94:	fff50513          	addi	a0,a0,-1 # 7fffffff <__BSS_END__+0x7ffe403f>
   13b98:	00a58533          	add	a0,a1,a0
   13b9c:	00008067          	jalr	zero,0(ra)
   13ba0:	00d7e7b3          	or	a5,a5,a3
   13ba4:	41300693          	addi	a3,zero,1043
   13ba8:	02e6d463          	bge	a3,a4,13bd0 <__fixdfsi+0x68>
   13bac:	bed70693          	addi	a3,a4,-1043
   13bb0:	00d797b3          	sll	a5,a5,a3
   13bb4:	43300693          	addi	a3,zero,1075
   13bb8:	40e68733          	sub	a4,a3,a4
   13bbc:	00e55533          	srl	a0,a0,a4
   13bc0:	00a7e533          	or	a0,a5,a0
   13bc4:	00058e63          	beq	a1,zero,13be0 <__fixdfsi+0x78>
   13bc8:	40a00533          	sub	a0,zero,a0
   13bcc:	00008067          	jalr	zero,0(ra)
   13bd0:	40e686b3          	sub	a3,a3,a4
   13bd4:	00d7d533          	srl	a0,a5,a3
   13bd8:	fedff06f          	jal	zero,13bc4 <__fixdfsi+0x5c>
   13bdc:	00000513          	addi	a0,zero,0
   13be0:	00008067          	jalr	zero,0(ra)

00013be4 <__floatsidf>:
   13be4:	ff010113          	addi	sp,sp,-16
   13be8:	00112623          	sw	ra,12(sp)
   13bec:	00812423          	sw	s0,8(sp)
   13bf0:	00912223          	sw	s1,4(sp)
   13bf4:	00050793          	addi	a5,a0,0
   13bf8:	08050063          	beq	a0,zero,13c78 <__floatsidf+0x94>
   13bfc:	41f55713          	srai	a4,a0,0x1f
   13c00:	00a74433          	xor	s0,a4,a0
   13c04:	40e40433          	sub	s0,s0,a4
   13c08:	01f55493          	srli	s1,a0,0x1f
   13c0c:	00040513          	addi	a0,s0,0
   13c10:	1a9040ef          	jal	ra,185b8 <__clzsi2>
   13c14:	41e00793          	addi	a5,zero,1054
   13c18:	00a00713          	addi	a4,zero,10
   13c1c:	40a787b3          	sub	a5,a5,a0
   13c20:	04a74463          	blt	a4,a0,13c68 <__floatsidf+0x84>
   13c24:	00b00713          	addi	a4,zero,11
   13c28:	40a70733          	sub	a4,a4,a0
   13c2c:	01550513          	addi	a0,a0,21
   13c30:	00e45733          	srl	a4,s0,a4
   13c34:	00a41433          	sll	s0,s0,a0
   13c38:	00c12083          	lw	ra,12(sp)
   13c3c:	00040513          	addi	a0,s0,0
   13c40:	00c71713          	slli	a4,a4,0xc
   13c44:	00812403          	lw	s0,8(sp)
   13c48:	01479793          	slli	a5,a5,0x14
   13c4c:	00c75713          	srli	a4,a4,0xc
   13c50:	01f49493          	slli	s1,s1,0x1f
   13c54:	00e7e7b3          	or	a5,a5,a4
   13c58:	0097e5b3          	or	a1,a5,s1
   13c5c:	00412483          	lw	s1,4(sp)
   13c60:	01010113          	addi	sp,sp,16
   13c64:	00008067          	jalr	zero,0(ra)
   13c68:	ff550513          	addi	a0,a0,-11
   13c6c:	00a41733          	sll	a4,s0,a0
   13c70:	00000413          	addi	s0,zero,0
   13c74:	fc5ff06f          	jal	zero,13c38 <__floatsidf+0x54>
   13c78:	00000493          	addi	s1,zero,0
   13c7c:	00000713          	addi	a4,zero,0
   13c80:	ff1ff06f          	jal	zero,13c70 <__floatsidf+0x8c>

00013c84 <__floatunsidf>:
   13c84:	ff010113          	addi	sp,sp,-16
   13c88:	00812423          	sw	s0,8(sp)
   13c8c:	00112623          	sw	ra,12(sp)
   13c90:	00050413          	addi	s0,a0,0
   13c94:	06050063          	beq	a0,zero,13cf4 <__floatunsidf+0x70>
   13c98:	121040ef          	jal	ra,185b8 <__clzsi2>
   13c9c:	41e00713          	addi	a4,zero,1054
   13ca0:	00a00793          	addi	a5,zero,10
   13ca4:	40a70733          	sub	a4,a4,a0
   13ca8:	02a7ce63          	blt	a5,a0,13ce4 <__floatunsidf+0x60>
   13cac:	00b00793          	addi	a5,zero,11
   13cb0:	40a787b3          	sub	a5,a5,a0
   13cb4:	01550513          	addi	a0,a0,21
   13cb8:	00f457b3          	srl	a5,s0,a5
   13cbc:	00a41433          	sll	s0,s0,a0
   13cc0:	00c12083          	lw	ra,12(sp)
   13cc4:	00040513          	addi	a0,s0,0
   13cc8:	00812403          	lw	s0,8(sp)
   13ccc:	00c79793          	slli	a5,a5,0xc
   13cd0:	01471713          	slli	a4,a4,0x14
   13cd4:	00c7d793          	srli	a5,a5,0xc
   13cd8:	00f765b3          	or	a1,a4,a5
   13cdc:	01010113          	addi	sp,sp,16
   13ce0:	00008067          	jalr	zero,0(ra)
   13ce4:	ff550513          	addi	a0,a0,-11
   13ce8:	00a417b3          	sll	a5,s0,a0
   13cec:	00000413          	addi	s0,zero,0
   13cf0:	fd1ff06f          	jal	zero,13cc0 <__floatunsidf+0x3c>
   13cf4:	00000793          	addi	a5,zero,0
   13cf8:	00000713          	addi	a4,zero,0
   13cfc:	fc5ff06f          	jal	zero,13cc0 <__floatunsidf+0x3c>

00013d00 <__addtf3>:
   13d00:	fa010113          	addi	sp,sp,-96
   13d04:	0085a783          	lw	a5,8(a1)
   13d08:	04812c23          	sw	s0,88(sp)
   13d0c:	00050413          	addi	s0,a0,0
   13d10:	00c5a503          	lw	a0,12(a1)
   13d14:	0045a803          	lw	a6,4(a1)
   13d18:	0005a683          	lw	a3,0(a1)
   13d1c:	02f12c23          	sw	a5,56(sp)
   13d20:	00f12c23          	sw	a5,24(sp)
   13d24:	01051793          	slli	a5,a0,0x10
   13d28:	0107d793          	srli	a5,a5,0x10
   13d2c:	00062703          	lw	a4,0(a2)
   13d30:	00462883          	lw	a7,4(a2)
   13d34:	00862583          	lw	a1,8(a2)
   13d38:	00c62f83          	lw	t6,12(a2)
   13d3c:	02a12e23          	sw	a0,60(sp)
   13d40:	00f12e23          	sw	a5,28(sp)
   13d44:	00151793          	slli	a5,a0,0x1
   13d48:	01f55513          	srli	a0,a0,0x1f
   13d4c:	04912a23          	sw	s1,84(sp)
   13d50:	05212823          	sw	s2,80(sp)
   13d54:	03012a23          	sw	a6,52(sp)
   13d58:	01012a23          	sw	a6,20(sp)
   13d5c:	04112e23          	sw	ra,92(sp)
   13d60:	05312623          	sw	s3,76(sp)
   13d64:	05412423          	sw	s4,72(sp)
   13d68:	05512223          	sw	s5,68(sp)
   13d6c:	02d12823          	sw	a3,48(sp)
   13d70:	00d12823          	sw	a3,16(sp)
   13d74:	0117d913          	srli	s2,a5,0x11
   13d78:	00050493          	addi	s1,a0,0
   13d7c:	01010293          	addi	t0,sp,16
   13d80:	01c10813          	addi	a6,sp,28
   13d84:	00082783          	lw	a5,0(a6)
   13d88:	ffc82603          	lw	a2,-4(a6)
   13d8c:	ffc80813          	addi	a6,a6,-4
   13d90:	00379793          	slli	a5,a5,0x3
   13d94:	01d65613          	srli	a2,a2,0x1d
   13d98:	00c7e7b3          	or	a5,a5,a2
   13d9c:	00f82223          	sw	a5,4(a6)
   13da0:	ff0292e3          	bne	t0,a6,13d84 <__addtf3+0x84>
   13da4:	010f9793          	slli	a5,t6,0x10
   13da8:	0107d793          	srli	a5,a5,0x10
   13dac:	00369693          	slli	a3,a3,0x3
   13db0:	02f12623          	sw	a5,44(sp)
   13db4:	001f9793          	slli	a5,t6,0x1
   13db8:	03f12e23          	sw	t6,60(sp)
   13dbc:	00d12823          	sw	a3,16(sp)
   13dc0:	02e12823          	sw	a4,48(sp)
   13dc4:	03112a23          	sw	a7,52(sp)
   13dc8:	02b12c23          	sw	a1,56(sp)
   13dcc:	02e12023          	sw	a4,32(sp)
   13dd0:	03112223          	sw	a7,36(sp)
   13dd4:	02b12423          	sw	a1,40(sp)
   13dd8:	0117de13          	srli	t3,a5,0x11
   13ddc:	01ffdf93          	srli	t6,t6,0x1f
   13de0:	02010f13          	addi	t5,sp,32
   13de4:	02c10313          	addi	t1,sp,44
   13de8:	00032783          	lw	a5,0(t1)
   13dec:	ffc32603          	lw	a2,-4(t1)
   13df0:	ffc30313          	addi	t1,t1,-4
   13df4:	00379793          	slli	a5,a5,0x3
   13df8:	01d65613          	srli	a2,a2,0x1d
   13dfc:	00c7e7b3          	or	a5,a5,a2
   13e00:	00f32223          	sw	a5,4(t1)
   13e04:	fe6f12e3          	bne	t5,t1,13de8 <__addtf3+0xe8>
   13e08:	00371713          	slli	a4,a4,0x3
   13e0c:	02e12023          	sw	a4,32(sp)
   13e10:	41c907b3          	sub	a5,s2,t3
   13e14:	03f518e3          	bne	a0,t6,14644 <__addtf3+0x944>
   13e18:	38f05863          	bge	zero,a5,141a8 <__addtf3+0x4a8>
   13e1c:	01412803          	lw	a6,20(sp)
   13e20:	01812e83          	lw	t4,24(sp)
   13e24:	01c12883          	lw	a7,28(sp)
   13e28:	0a0e1263          	bne	t3,zero,13ecc <__addtf3+0x1cc>
   13e2c:	02412503          	lw	a0,36(sp)
   13e30:	02812583          	lw	a1,40(sp)
   13e34:	02c12e03          	lw	t3,44(sp)
   13e38:	00b56633          	or	a2,a0,a1
   13e3c:	01c66633          	or	a2,a2,t3
   13e40:	00e66633          	or	a2,a2,a4
   13e44:	00061c63          	bne	a2,zero,13e5c <__addtf3+0x15c>
   13e48:	02d12823          	sw	a3,48(sp)
   13e4c:	03012a23          	sw	a6,52(sp)
   13e50:	03d12c23          	sw	t4,56(sp)
   13e54:	03112e23          	sw	a7,60(sp)
   13e58:	0940006f          	jal	zero,13eec <__addtf3+0x1ec>
   13e5c:	fff78613          	addi	a2,a5,-1 # 3fffff <__BSS_END__+0x3e403f>
   13e60:	04061863          	bne	a2,zero,13eb0 <__addtf3+0x1b0>
   13e64:	00e68633          	add	a2,a3,a4
   13e68:	01050833          	add	a6,a0,a6
   13e6c:	00d636b3          	sltu	a3,a2,a3
   13e70:	00d806b3          	add	a3,a6,a3
   13e74:	02d12a23          	sw	a3,52(sp)
   13e78:	00a83533          	sltu	a0,a6,a0
   13e7c:	0106b6b3          	sltu	a3,a3,a6
   13e80:	01d58eb3          	add	t4,a1,t4
   13e84:	00d56533          	or	a0,a0,a3
   13e88:	00ae8533          	add	a0,t4,a0
   13e8c:	02a12c23          	sw	a0,56(sp)
   13e90:	00beb733          	sltu	a4,t4,a1
   13e94:	01d53533          	sltu	a0,a0,t4
   13e98:	00a76733          	or	a4,a4,a0
   13e9c:	011e0e33          	add	t3,t3,a7
   13ea0:	02c12823          	sw	a2,48(sp)
   13ea4:	01c70733          	add	a4,a4,t3
   13ea8:	00100793          	addi	a5,zero,1
   13eac:	2ec0006f          	jal	zero,14198 <__addtf3+0x498>
   13eb0:	00008737          	lui	a4,0x8
   13eb4:	fff70713          	addi	a4,a4,-1 # 7fff <exit-0x80b5>
   13eb8:	00e78463          	beq	a5,a4,13ec0 <__addtf3+0x1c0>
   13ebc:	0dc0106f          	jal	zero,14f98 <__addtf3+0x1298>
   13ec0:	02d12823          	sw	a3,48(sp)
   13ec4:	03012a23          	sw	a6,52(sp)
   13ec8:	3840006f          	jal	zero,1424c <__addtf3+0x54c>
   13ecc:	00008737          	lui	a4,0x8
   13ed0:	fff70713          	addi	a4,a4,-1 # 7fff <exit-0x80b5>
   13ed4:	16e91263          	bne	s2,a4,14038 <__addtf3+0x338>
   13ed8:	02d12823          	sw	a3,48(sp)
   13edc:	03012a23          	sw	a6,52(sp)
   13ee0:	03d12c23          	sw	t4,56(sp)
   13ee4:	03112e23          	sw	a7,60(sp)
   13ee8:	00090793          	addi	a5,s2,0
   13eec:	03012703          	lw	a4,48(sp)
   13ef0:	00777693          	andi	a3,a4,7
   13ef4:	04068663          	beq	a3,zero,13f40 <__addtf3+0x240>
   13ef8:	00f77693          	andi	a3,a4,15
   13efc:	00400613          	addi	a2,zero,4
   13f00:	04c68063          	beq	a3,a2,13f40 <__addtf3+0x240>
   13f04:	00c706b3          	add	a3,a4,a2
   13f08:	02d12823          	sw	a3,48(sp)
   13f0c:	03412683          	lw	a3,52(sp)
   13f10:	ffc73713          	sltiu	a4,a4,-4
   13f14:	00173713          	sltiu	a4,a4,1
   13f18:	00e68733          	add	a4,a3,a4
   13f1c:	02e12a23          	sw	a4,52(sp)
   13f20:	00d73733          	sltu	a4,a4,a3
   13f24:	03812683          	lw	a3,56(sp)
   13f28:	00e68733          	add	a4,a3,a4
   13f2c:	02e12c23          	sw	a4,56(sp)
   13f30:	00d73733          	sltu	a4,a4,a3
   13f34:	03c12683          	lw	a3,60(sp)
   13f38:	00d70733          	add	a4,a4,a3
   13f3c:	02e12e23          	sw	a4,60(sp)
   13f40:	03c12703          	lw	a4,60(sp)
   13f44:	00c71693          	slli	a3,a4,0xc
   13f48:	0206d463          	bge	a3,zero,13f70 <__addtf3+0x270>
   13f4c:	000086b7          	lui	a3,0x8
   13f50:	00178793          	addi	a5,a5,1
   13f54:	fff68693          	addi	a3,a3,-1 # 7fff <exit-0x80b5>
   13f58:	00d79463          	bne	a5,a3,13f60 <__addtf3+0x260>
   13f5c:	0240106f          	jal	zero,14f80 <__addtf3+0x1280>
   13f60:	fff806b7          	lui	a3,0xfff80
   13f64:	fff68693          	addi	a3,a3,-1 # fff7ffff <__BSS_END__+0xfff6403f>
   13f68:	00d77733          	and	a4,a4,a3
   13f6c:	02e12e23          	sw	a4,60(sp)
   13f70:	03010693          	addi	a3,sp,48
   13f74:	03c10513          	addi	a0,sp,60
   13f78:	0006a603          	lw	a2,0(a3)
   13f7c:	0046a583          	lw	a1,4(a3)
   13f80:	00468693          	addi	a3,a3,4
   13f84:	00365613          	srli	a2,a2,0x3
   13f88:	01d59593          	slli	a1,a1,0x1d
   13f8c:	00b66633          	or	a2,a2,a1
   13f90:	fec6ae23          	sw	a2,-4(a3)
   13f94:	fed512e3          	bne	a0,a3,13f78 <__addtf3+0x278>
   13f98:	00008637          	lui	a2,0x8
   13f9c:	fff60693          	addi	a3,a2,-1 # 7fff <exit-0x80b5>
   13fa0:	00375713          	srli	a4,a4,0x3
   13fa4:	02d79a63          	bne	a5,a3,13fd8 <__addtf3+0x2d8>
   13fa8:	03412583          	lw	a1,52(sp)
   13fac:	03012683          	lw	a3,48(sp)
   13fb0:	00b6e6b3          	or	a3,a3,a1
   13fb4:	03812583          	lw	a1,56(sp)
   13fb8:	00b6e6b3          	or	a3,a3,a1
   13fbc:	00d76733          	or	a4,a4,a3
   13fc0:	00070c63          	beq	a4,zero,13fd8 <__addtf3+0x2d8>
   13fc4:	02012c23          	sw	zero,56(sp)
   13fc8:	02012a23          	sw	zero,52(sp)
   13fcc:	02012823          	sw	zero,48(sp)
   13fd0:	00060713          	addi	a4,a2,0
   13fd4:	00000493          	addi	s1,zero,0
   13fd8:	01179793          	slli	a5,a5,0x11
   13fdc:	0117d793          	srli	a5,a5,0x11
   13fe0:	00f49493          	slli	s1,s1,0xf
   13fe4:	00f4e4b3          	or	s1,s1,a5
   13fe8:	03012783          	lw	a5,48(sp)
   13fec:	00911723          	sh	s1,14(sp)
   13ff0:	00e11623          	sh	a4,12(sp)
   13ff4:	00f42023          	sw	a5,0(s0)
   13ff8:	03412783          	lw	a5,52(sp)
   13ffc:	05c12083          	lw	ra,92(sp)
   14000:	00040513          	addi	a0,s0,0
   14004:	00f42223          	sw	a5,4(s0)
   14008:	03812783          	lw	a5,56(sp)
   1400c:	05412483          	lw	s1,84(sp)
   14010:	05012903          	lw	s2,80(sp)
   14014:	00f42423          	sw	a5,8(s0)
   14018:	00c12783          	lw	a5,12(sp)
   1401c:	04c12983          	lw	s3,76(sp)
   14020:	04812a03          	lw	s4,72(sp)
   14024:	00f42623          	sw	a5,12(s0)
   14028:	05812403          	lw	s0,88(sp)
   1402c:	04412a83          	lw	s5,68(sp)
   14030:	06010113          	addi	sp,sp,96
   14034:	00008067          	jalr	zero,0(ra)
   14038:	02c12703          	lw	a4,44(sp)
   1403c:	00080637          	lui	a2,0x80
   14040:	00c76733          	or	a4,a4,a2
   14044:	02e12623          	sw	a4,44(sp)
   14048:	07400713          	addi	a4,zero,116
   1404c:	74f74ae3          	blt	a4,a5,14fa0 <__addtf3+0x12a0>
   14050:	00078613          	addi	a2,a5,0
   14054:	40565793          	srai	a5,a2,0x5
   14058:	01f67e13          	andi	t3,a2,31
   1405c:	00030593          	addi	a1,t1,0
   14060:	00000613          	addi	a2,zero,0
   14064:	00000713          	addi	a4,zero,0
   14068:	02f71c63          	bne	a4,a5,140a0 <__addtf3+0x3a0>
   1406c:	00300713          	addi	a4,zero,3
   14070:	40f70733          	sub	a4,a4,a5
   14074:	00279393          	slli	t2,a5,0x2
   14078:	020e1e63          	bne	t3,zero,140b4 <__addtf3+0x3b4>
   1407c:	007305b3          	add	a1,t1,t2
   14080:	0005a583          	lw	a1,0(a1)
   14084:	001e0e13          	addi	t3,t3,1
   14088:	00430313          	addi	t1,t1,4
   1408c:	feb32e23          	sw	a1,-4(t1)
   14090:	ffc756e3          	bge	a4,t3,1407c <__addtf3+0x37c>
   14094:	00400713          	addi	a4,zero,4
   14098:	40f707b3          	sub	a5,a4,a5
   1409c:	0580006f          	jal	zero,140f4 <__addtf3+0x3f4>
   140a0:	0005a503          	lw	a0,0(a1)
   140a4:	00170713          	addi	a4,a4,1
   140a8:	00458593          	addi	a1,a1,4
   140ac:	00a66633          	or	a2,a2,a0
   140b0:	fb9ff06f          	jal	zero,14068 <__addtf3+0x368>
   140b4:	007f05b3          	add	a1,t5,t2
   140b8:	0005a583          	lw	a1,0(a1)
   140bc:	02000513          	addi	a0,zero,32
   140c0:	41c50533          	sub	a0,a0,t3
   140c4:	00a595b3          	sll	a1,a1,a0
   140c8:	00b66633          	or	a2,a2,a1
   140cc:	00730333          	add	t1,t1,t2
   140d0:	00000f93          	addi	t6,zero,0
   140d4:	02efc463          	blt	t6,a4,140fc <__addtf3+0x3fc>
   140d8:	00400593          	addi	a1,zero,4
   140dc:	40f587b3          	sub	a5,a1,a5
   140e0:	02c12583          	lw	a1,44(sp)
   140e4:	00271713          	slli	a4,a4,0x2
   140e8:	00ef0733          	add	a4,t5,a4
   140ec:	01c5d5b3          	srl	a1,a1,t3
   140f0:	00b72023          	sw	a1,0(a4)
   140f4:	00400593          	addi	a1,zero,4
   140f8:	03c0006f          	jal	zero,14134 <__addtf3+0x434>
   140fc:	00032583          	lw	a1,0(t1)
   14100:	00432283          	lw	t0,4(t1)
   14104:	407309b3          	sub	s3,t1,t2
   14108:	01c5d5b3          	srl	a1,a1,t3
   1410c:	00a292b3          	sll	t0,t0,a0
   14110:	0055e5b3          	or	a1,a1,t0
   14114:	00b9a023          	sw	a1,0(s3)
   14118:	001f8f93          	addi	t6,t6,1
   1411c:	00430313          	addi	t1,t1,4
   14120:	fb5ff06f          	jal	zero,140d4 <__addtf3+0x3d4>
   14124:	00279713          	slli	a4,a5,0x2
   14128:	00ef0733          	add	a4,t5,a4
   1412c:	00072023          	sw	zero,0(a4)
   14130:	00178793          	addi	a5,a5,1
   14134:	feb798e3          	bne	a5,a1,14124 <__addtf3+0x424>
   14138:	02012783          	lw	a5,32(sp)
   1413c:	00c03633          	sltu	a2,zero,a2
   14140:	00f66633          	or	a2,a2,a5
   14144:	02412783          	lw	a5,36(sp)
   14148:	00c68633          	add	a2,a3,a2
   1414c:	02812703          	lw	a4,40(sp)
   14150:	01078833          	add	a6,a5,a6
   14154:	00d636b3          	sltu	a3,a2,a3
   14158:	00d806b3          	add	a3,a6,a3
   1415c:	02d12a23          	sw	a3,52(sp)
   14160:	00f837b3          	sltu	a5,a6,a5
   14164:	0106b6b3          	sltu	a3,a3,a6
   14168:	01d70eb3          	add	t4,a4,t4
   1416c:	00d7e7b3          	or	a5,a5,a3
   14170:	00fe87b3          	add	a5,t4,a5
   14174:	02f12c23          	sw	a5,56(sp)
   14178:	00eeb733          	sltu	a4,t4,a4
   1417c:	01d7b7b3          	sltu	a5,a5,t4
   14180:	00f76733          	or	a4,a4,a5
   14184:	02c12783          	lw	a5,44(sp)
   14188:	02c12823          	sw	a2,48(sp)
   1418c:	00f887b3          	add	a5,a7,a5
   14190:	00f70733          	add	a4,a4,a5
   14194:	00090793          	addi	a5,s2,0
   14198:	00c71693          	slli	a3,a4,0xc
   1419c:	4406c063          	blt	a3,zero,145dc <__addtf3+0x8dc>
   141a0:	02e12e23          	sw	a4,60(sp)
   141a4:	d49ff06f          	jal	zero,13eec <__addtf3+0x1ec>
   141a8:	02412583          	lw	a1,36(sp)
   141ac:	02812e83          	lw	t4,40(sp)
   141b0:	02c12883          	lw	a7,44(sp)
   141b4:	22078e63          	beq	a5,zero,143f0 <__addtf3+0x6f0>
   141b8:	412e07b3          	sub	a5,t3,s2
   141bc:	0a091663          	bne	s2,zero,14268 <__addtf3+0x568>
   141c0:	01412303          	lw	t1,20(sp)
   141c4:	01812503          	lw	a0,24(sp)
   141c8:	01c12f03          	lw	t5,28(sp)
   141cc:	00a36633          	or	a2,t1,a0
   141d0:	01e66633          	or	a2,a2,t5
   141d4:	00d66633          	or	a2,a2,a3
   141d8:	00061863          	bne	a2,zero,141e8 <__addtf3+0x4e8>
   141dc:	02e12823          	sw	a4,48(sp)
   141e0:	02b12a23          	sw	a1,52(sp)
   141e4:	c6dff06f          	jal	zero,13e50 <__addtf3+0x150>
   141e8:	fff78913          	addi	s2,a5,-1
   141ec:	04091663          	bne	s2,zero,14238 <__addtf3+0x538>
   141f0:	00e68633          	add	a2,a3,a4
   141f4:	00b305b3          	add	a1,t1,a1
   141f8:	00d636b3          	sltu	a3,a2,a3
   141fc:	00d586b3          	add	a3,a1,a3
   14200:	02d12a23          	sw	a3,52(sp)
   14204:	0065b333          	sltu	t1,a1,t1
   14208:	00b6b6b3          	sltu	a3,a3,a1
   1420c:	01d50eb3          	add	t4,a0,t4
   14210:	00d36333          	or	t1,t1,a3
   14214:	006e8333          	add	t1,t4,t1
   14218:	02612c23          	sw	t1,56(sp)
   1421c:	00aeb733          	sltu	a4,t4,a0
   14220:	01d33333          	sltu	t1,t1,t4
   14224:	00676733          	or	a4,a4,t1
   14228:	011f07b3          	add	a5,t5,a7
   1422c:	02c12823          	sw	a2,48(sp)
   14230:	00f70733          	add	a4,a4,a5
   14234:	c75ff06f          	jal	zero,13ea8 <__addtf3+0x1a8>
   14238:	000086b7          	lui	a3,0x8
   1423c:	fff68693          	addi	a3,a3,-1 # 7fff <exit-0x80b5>
   14240:	56d79ae3          	bne	a5,a3,14fb4 <__addtf3+0x12b4>
   14244:	02e12823          	sw	a4,48(sp)
   14248:	02b12a23          	sw	a1,52(sp)
   1424c:	03d12c23          	sw	t4,56(sp)
   14250:	03112e23          	sw	a7,60(sp)
   14254:	000087b7          	lui	a5,0x8
   14258:	fff78793          	addi	a5,a5,-1 # 7fff <exit-0x80b5>
   1425c:	c91ff06f          	jal	zero,13eec <__addtf3+0x1ec>
   14260:	00068713          	addi	a4,a3,0
   14264:	fe1ff06f          	jal	zero,14244 <__addtf3+0x544>
   14268:	000086b7          	lui	a3,0x8
   1426c:	fff68693          	addi	a3,a3,-1 # 7fff <exit-0x80b5>
   14270:	fcde0ae3          	beq	t3,a3,14244 <__addtf3+0x544>
   14274:	01c12683          	lw	a3,28(sp)
   14278:	00080637          	lui	a2,0x80
   1427c:	00c6e6b3          	or	a3,a3,a2
   14280:	00d12e23          	sw	a3,28(sp)
   14284:	07400693          	addi	a3,zero,116
   14288:	52f6cae3          	blt	a3,a5,14fbc <__addtf3+0x12bc>
   1428c:	00078913          	addi	s2,a5,0
   14290:	02000793          	addi	a5,zero,32
   14294:	02f947b3          	div	a5,s2,a5
   14298:	00080513          	addi	a0,a6,0
   1429c:	00000613          	addi	a2,zero,0
   142a0:	00000693          	addi	a3,zero,0
   142a4:	02f6ce63          	blt	a3,a5,142e0 <__addtf3+0x5e0>
   142a8:	00300693          	addi	a3,zero,3
   142ac:	01f97f13          	andi	t5,s2,31
   142b0:	40f68333          	sub	t1,a3,a5
   142b4:	00279393          	slli	t2,a5,0x2
   142b8:	020f1e63          	bne	t5,zero,142f4 <__addtf3+0x5f4>
   142bc:	007806b3          	add	a3,a6,t2
   142c0:	0006a683          	lw	a3,0(a3)
   142c4:	001f0f13          	addi	t5,t5,1
   142c8:	00480813          	addi	a6,a6,4
   142cc:	fed82e23          	sw	a3,-4(a6)
   142d0:	ffe356e3          	bge	t1,t5,142bc <__addtf3+0x5bc>
   142d4:	00400693          	addi	a3,zero,4
   142d8:	40f687b3          	sub	a5,a3,a5
   142dc:	06c0006f          	jal	zero,14348 <__addtf3+0x648>
   142e0:	00052303          	lw	t1,0(a0)
   142e4:	00168693          	addi	a3,a3,1
   142e8:	00450513          	addi	a0,a0,4
   142ec:	00666633          	or	a2,a2,t1
   142f0:	fb5ff06f          	jal	zero,142a4 <__addtf3+0x5a4>
   142f4:	02000f93          	addi	t6,zero,32
   142f8:	03f96933          	rem	s2,s2,t6
   142fc:	fff7c693          	xori	a3,a5,-1
   14300:	41f6d693          	srai	a3,a3,0x1f
   14304:	00d7f6b3          	and	a3,a5,a3
   14308:	00269693          	slli	a3,a3,0x2
   1430c:	00d286b3          	add	a3,t0,a3
   14310:	0006a683          	lw	a3,0(a3)
   14314:	00780833          	add	a6,a6,t2
   14318:	412f8fb3          	sub	t6,t6,s2
   1431c:	01f696b3          	sll	a3,a3,t6
   14320:	00d66633          	or	a2,a2,a3
   14324:	00000693          	addi	a3,zero,0
   14328:	0266c463          	blt	a3,t1,14350 <__addtf3+0x650>
   1432c:	01c12503          	lw	a0,28(sp)
   14330:	00400693          	addi	a3,zero,4
   14334:	40f687b3          	sub	a5,a3,a5
   14338:	00231693          	slli	a3,t1,0x2
   1433c:	00d286b3          	add	a3,t0,a3
   14340:	01e55533          	srl	a0,a0,t5
   14344:	00a6a023          	sw	a0,0(a3)
   14348:	00300513          	addi	a0,zero,3
   1434c:	03c0006f          	jal	zero,14388 <__addtf3+0x688>
   14350:	00082503          	lw	a0,0(a6)
   14354:	00482903          	lw	s2,4(a6)
   14358:	407809b3          	sub	s3,a6,t2
   1435c:	01e55533          	srl	a0,a0,t5
   14360:	01f91933          	sll	s2,s2,t6
   14364:	01256533          	or	a0,a0,s2
   14368:	00a9a023          	sw	a0,0(s3)
   1436c:	00168693          	addi	a3,a3,1
   14370:	00480813          	addi	a6,a6,4
   14374:	fb5ff06f          	jal	zero,14328 <__addtf3+0x628>
   14378:	00279693          	slli	a3,a5,0x2
   1437c:	00d286b3          	add	a3,t0,a3
   14380:	0006a023          	sw	zero,0(a3)
   14384:	00178793          	addi	a5,a5,1
   14388:	fef558e3          	bge	a0,a5,14378 <__addtf3+0x678>
   1438c:	01012783          	lw	a5,16(sp)
   14390:	00c03633          	sltu	a2,zero,a2
   14394:	00f66633          	or	a2,a2,a5
   14398:	01412683          	lw	a3,20(sp)
   1439c:	01812783          	lw	a5,24(sp)
   143a0:	00c70633          	add	a2,a4,a2
   143a4:	00b685b3          	add	a1,a3,a1
   143a8:	00e63733          	sltu	a4,a2,a4
   143ac:	00e58733          	add	a4,a1,a4
   143b0:	01d78eb3          	add	t4,a5,t4
   143b4:	02e12a23          	sw	a4,52(sp)
   143b8:	00d5b6b3          	sltu	a3,a1,a3
   143bc:	00b73733          	sltu	a4,a4,a1
   143c0:	00e6e6b3          	or	a3,a3,a4
   143c4:	00feb733          	sltu	a4,t4,a5
   143c8:	01c12783          	lw	a5,28(sp)
   143cc:	00de86b3          	add	a3,t4,a3
   143d0:	02d12c23          	sw	a3,56(sp)
   143d4:	01d6b6b3          	sltu	a3,a3,t4
   143d8:	00f887b3          	add	a5,a7,a5
   143dc:	00d76733          	or	a4,a4,a3
   143e0:	00f70733          	add	a4,a4,a5
   143e4:	02c12823          	sw	a2,48(sp)
   143e8:	000e0793          	addi	a5,t3,0
   143ec:	dadff06f          	jal	zero,14198 <__addtf3+0x498>
   143f0:	00190793          	addi	a5,s2,1
   143f4:	01179513          	slli	a0,a5,0x11
   143f8:	01255513          	srli	a0,a0,0x12
   143fc:	01412603          	lw	a2,20(sp)
   14400:	01812303          	lw	t1,24(sp)
   14404:	01c12803          	lw	a6,28(sp)
   14408:	03010e13          	addi	t3,sp,48
   1440c:	03c10f13          	addi	t5,sp,60
   14410:	12051e63          	bne	a0,zero,1454c <__addtf3+0x84c>
   14414:	006667b3          	or	a5,a2,t1
   14418:	0107e7b3          	or	a5,a5,a6
   1441c:	00d7e7b3          	or	a5,a5,a3
   14420:	0a091463          	bne	s2,zero,144c8 <__addtf3+0x7c8>
   14424:	00079a63          	bne	a5,zero,14438 <__addtf3+0x738>
   14428:	02e12823          	sw	a4,48(sp)
   1442c:	02b12a23          	sw	a1,52(sp)
   14430:	03d12c23          	sw	t4,56(sp)
   14434:	0240006f          	jal	zero,14458 <__addtf3+0x758>
   14438:	01d5e7b3          	or	a5,a1,t4
   1443c:	0117e7b3          	or	a5,a5,a7
   14440:	00e7e7b3          	or	a5,a5,a4
   14444:	02079063          	bne	a5,zero,14464 <__addtf3+0x764>
   14448:	02d12823          	sw	a3,48(sp)
   1444c:	02c12a23          	sw	a2,52(sp)
   14450:	02612c23          	sw	t1,56(sp)
   14454:	00080893          	addi	a7,a6,0
   14458:	03112e23          	sw	a7,60(sp)
   1445c:	00000793          	addi	a5,zero,0
   14460:	a8dff06f          	jal	zero,13eec <__addtf3+0x1ec>
   14464:	00e687b3          	add	a5,a3,a4
   14468:	00b605b3          	add	a1,a2,a1
   1446c:	02f12823          	sw	a5,48(sp)
   14470:	00d7b7b3          	sltu	a5,a5,a3
   14474:	00f587b3          	add	a5,a1,a5
   14478:	00c5b6b3          	sltu	a3,a1,a2
   1447c:	02f12a23          	sw	a5,52(sp)
   14480:	00b7b7b3          	sltu	a5,a5,a1
   14484:	01d30eb3          	add	t4,t1,t4
   14488:	00f6e6b3          	or	a3,a3,a5
   1448c:	00de86b3          	add	a3,t4,a3
   14490:	02d12c23          	sw	a3,56(sp)
   14494:	006eb733          	sltu	a4,t4,t1
   14498:	01d6b6b3          	sltu	a3,a3,t4
   1449c:	00d76733          	or	a4,a4,a3
   144a0:	01180633          	add	a2,a6,a7
   144a4:	00c708b3          	add	a7,a4,a2
   144a8:	00c89793          	slli	a5,a7,0xc
   144ac:	fa07d6e3          	bge	a5,zero,14458 <__addtf3+0x758>
   144b0:	fff807b7          	lui	a5,0xfff80
   144b4:	fff78793          	addi	a5,a5,-1 # fff7ffff <__BSS_END__+0xfff6403f>
   144b8:	00f8f7b3          	and	a5,a7,a5
   144bc:	02f12e23          	sw	a5,60(sp)
   144c0:	00100793          	addi	a5,zero,1
   144c4:	a29ff06f          	jal	zero,13eec <__addtf3+0x1ec>
   144c8:	02078463          	beq	a5,zero,144f0 <__addtf3+0x7f0>
   144cc:	01d5e5b3          	or	a1,a1,t4
   144d0:	0115e5b3          	or	a1,a1,a7
   144d4:	00e5e5b3          	or	a1,a1,a4
   144d8:	02059663          	bne	a1,zero,14504 <__addtf3+0x804>
   144dc:	02d12823          	sw	a3,48(sp)
   144e0:	02c12a23          	sw	a2,52(sp)
   144e4:	02612c23          	sw	t1,56(sp)
   144e8:	03012e23          	sw	a6,60(sp)
   144ec:	d69ff06f          	jal	zero,14254 <__addtf3+0x554>
   144f0:	00070693          	addi	a3,a4,0
   144f4:	00058613          	addi	a2,a1,0
   144f8:	000e8313          	addi	t1,t4,0
   144fc:	00088813          	addi	a6,a7,0
   14500:	fddff06f          	jal	zero,144dc <__addtf3+0x7dc>
   14504:	000087b7          	lui	a5,0x8
   14508:	02f12e23          	sw	a5,60(sp)
   1450c:	02012c23          	sw	zero,56(sp)
   14510:	02012a23          	sw	zero,52(sp)
   14514:	02012823          	sw	zero,48(sp)
   14518:	000f0793          	addi	a5,t5,0
   1451c:	0007a703          	lw	a4,0(a5) # 8000 <exit-0x80b4>
   14520:	ffc7a683          	lw	a3,-4(a5)
   14524:	ffc78793          	addi	a5,a5,-4
   14528:	00371713          	slli	a4,a4,0x3
   1452c:	01d6d693          	srli	a3,a3,0x1d
   14530:	00d76733          	or	a4,a4,a3
   14534:	00e7a223          	sw	a4,4(a5)
   14538:	fefe12e3          	bne	t3,a5,1451c <__addtf3+0x81c>
   1453c:	000087b7          	lui	a5,0x8
   14540:	fff78793          	addi	a5,a5,-1 # 7fff <exit-0x80b5>
   14544:	00000493          	addi	s1,zero,0
   14548:	9a5ff06f          	jal	zero,13eec <__addtf3+0x1ec>
   1454c:	00e68533          	add	a0,a3,a4
   14550:	00b605b3          	add	a1,a2,a1
   14554:	02a12823          	sw	a0,48(sp)
   14558:	00d53533          	sltu	a0,a0,a3
   1455c:	00a58533          	add	a0,a1,a0
   14560:	00c5b6b3          	sltu	a3,a1,a2
   14564:	02a12a23          	sw	a0,52(sp)
   14568:	00b53533          	sltu	a0,a0,a1
   1456c:	01d30eb3          	add	t4,t1,t4
   14570:	00a6e6b3          	or	a3,a3,a0
   14574:	00de86b3          	add	a3,t4,a3
   14578:	02d12c23          	sw	a3,56(sp)
   1457c:	006eb733          	sltu	a4,t4,t1
   14580:	01d6b6b3          	sltu	a3,a3,t4
   14584:	00d76733          	or	a4,a4,a3
   14588:	01180633          	add	a2,a6,a7
   1458c:	00c70733          	add	a4,a4,a2
   14590:	02e12e23          	sw	a4,60(sp)
   14594:	000e0693          	addi	a3,t3,0
   14598:	0006a603          	lw	a2,0(a3)
   1459c:	0046a583          	lw	a1,4(a3)
   145a0:	00468693          	addi	a3,a3,4
   145a4:	00165613          	srli	a2,a2,0x1
   145a8:	01f59593          	slli	a1,a1,0x1f
   145ac:	00b66633          	or	a2,a2,a1
   145b0:	fec6ae23          	sw	a2,-4(a3)
   145b4:	fedf12e3          	bne	t5,a3,14598 <__addtf3+0x898>
   145b8:	000086b7          	lui	a3,0x8
   145bc:	fff68693          	addi	a3,a3,-1 # 7fff <exit-0x80b5>
   145c0:	00175713          	srli	a4,a4,0x1
   145c4:	bcd79ee3          	bne	a5,a3,141a0 <__addtf3+0x4a0>
   145c8:	02012e23          	sw	zero,60(sp)
   145cc:	02012c23          	sw	zero,56(sp)
   145d0:	02012a23          	sw	zero,52(sp)
   145d4:	02012823          	sw	zero,48(sp)
   145d8:	915ff06f          	jal	zero,13eec <__addtf3+0x1ec>
   145dc:	fff806b7          	lui	a3,0xfff80
   145e0:	fff68693          	addi	a3,a3,-1 # fff7ffff <__BSS_END__+0xfff6403f>
   145e4:	00d77733          	and	a4,a4,a3
   145e8:	02e12e23          	sw	a4,60(sp)
   145ec:	00178793          	addi	a5,a5,1
   145f0:	01f61613          	slli	a2,a2,0x1f
   145f4:	03010693          	addi	a3,sp,48
   145f8:	03c10813          	addi	a6,sp,60
   145fc:	0006a583          	lw	a1,0(a3)
   14600:	0046a503          	lw	a0,4(a3)
   14604:	00468693          	addi	a3,a3,4
   14608:	0015d593          	srli	a1,a1,0x1
   1460c:	01f51513          	slli	a0,a0,0x1f
   14610:	00a5e5b3          	or	a1,a1,a0
   14614:	feb6ae23          	sw	a1,-4(a3)
   14618:	fed812e3          	bne	a6,a3,145fc <__addtf3+0x8fc>
   1461c:	00175713          	srli	a4,a4,0x1
   14620:	02e12e23          	sw	a4,60(sp)
   14624:	03012703          	lw	a4,48(sp)
   14628:	01f65613          	srli	a2,a2,0x1f
   1462c:	00c76733          	or	a4,a4,a2
   14630:	02e12823          	sw	a4,48(sp)
   14634:	00008737          	lui	a4,0x8
   14638:	fff70713          	addi	a4,a4,-1 # 7fff <exit-0x80b5>
   1463c:	8ae798e3          	bne	a5,a4,13eec <__addtf3+0x1ec>
   14640:	f89ff06f          	jal	zero,145c8 <__addtf3+0x8c8>
   14644:	24f05c63          	bge	zero,a5,1489c <__addtf3+0xb9c>
   14648:	01412583          	lw	a1,20(sp)
   1464c:	01812e83          	lw	t4,24(sp)
   14650:	01c12883          	lw	a7,28(sp)
   14654:	0a0e1463          	bne	t3,zero,146fc <__addtf3+0x9fc>
   14658:	02412e03          	lw	t3,36(sp)
   1465c:	02812f83          	lw	t6,40(sp)
   14660:	02c12503          	lw	a0,44(sp)
   14664:	01fe6633          	or	a2,t3,t6
   14668:	00a66633          	or	a2,a2,a0
   1466c:	00e66633          	or	a2,a2,a4
   14670:	00061663          	bne	a2,zero,1467c <__addtf3+0x97c>
   14674:	02d12823          	sw	a3,48(sp)
   14678:	b69ff06f          	jal	zero,141e0 <__addtf3+0x4e0>
   1467c:	fff78613          	addi	a2,a5,-1
   14680:	04061a63          	bne	a2,zero,146d4 <__addtf3+0x9d4>
   14684:	41c587b3          	sub	a5,a1,t3
   14688:	40e68633          	sub	a2,a3,a4
   1468c:	40be0e33          	sub	t3,t3,a1
   14690:	00c6b6b3          	sltu	a3,a3,a2
   14694:	001e3e13          	sltiu	t3,t3,1
   14698:	40d78833          	sub	a6,a5,a3
   1469c:	01c6f6b3          	and	a3,a3,t3
   146a0:	00f5b7b3          	sltu	a5,a1,a5
   146a4:	00d7e7b3          	or	a5,a5,a3
   146a8:	41df86b3          	sub	a3,t6,t4
   146ac:	41fe85b3          	sub	a1,t4,t6
   146b0:	0016b693          	sltiu	a3,a3,1
   146b4:	40f58733          	sub	a4,a1,a5
   146b8:	00d7f7b3          	and	a5,a5,a3
   146bc:	00beb5b3          	sltu	a1,t4,a1
   146c0:	40a88533          	sub	a0,a7,a0
   146c4:	00f5e5b3          	or	a1,a1,a5
   146c8:	40b50533          	sub	a0,a0,a1
   146cc:	00100793          	addi	a5,zero,1
   146d0:	19c0006f          	jal	zero,1486c <__addtf3+0xb6c>
   146d4:	00008737          	lui	a4,0x8
   146d8:	fff70713          	addi	a4,a4,-1 # 7fff <exit-0x80b5>
   146dc:	f8e78ce3          	beq	a5,a4,14674 <__addtf3+0x974>
   146e0:	07400793          	addi	a5,zero,116
   146e4:	04c7d063          	bge	a5,a2,14724 <__addtf3+0xa24>
   146e8:	02012623          	sw	zero,44(sp)
   146ec:	02012423          	sw	zero,40(sp)
   146f0:	02012223          	sw	zero,36(sp)
   146f4:	00100613          	addi	a2,zero,1
   146f8:	11c0006f          	jal	zero,14814 <__addtf3+0xb14>
   146fc:	00008737          	lui	a4,0x8
   14700:	fff70713          	addi	a4,a4,-1 # 7fff <exit-0x80b5>
   14704:	b4e90ee3          	beq	s2,a4,14260 <__addtf3+0x560>
   14708:	02c12703          	lw	a4,44(sp)
   1470c:	00080637          	lui	a2,0x80
   14710:	00c76733          	or	a4,a4,a2
   14714:	02e12623          	sw	a4,44(sp)
   14718:	07400713          	addi	a4,zero,116
   1471c:	fcf746e3          	blt	a4,a5,146e8 <__addtf3+0x9e8>
   14720:	00078613          	addi	a2,a5,0
   14724:	40565793          	srai	a5,a2,0x5
   14728:	01f67e13          	andi	t3,a2,31
   1472c:	00030513          	addi	a0,t1,0
   14730:	00000613          	addi	a2,zero,0
   14734:	00000713          	addi	a4,zero,0
   14738:	02f71c63          	bne	a4,a5,14770 <__addtf3+0xa70>
   1473c:	00300713          	addi	a4,zero,3
   14740:	40f70733          	sub	a4,a4,a5
   14744:	00279393          	slli	t2,a5,0x2
   14748:	020e1e63          	bne	t3,zero,14784 <__addtf3+0xa84>
   1474c:	00730533          	add	a0,t1,t2
   14750:	00052503          	lw	a0,0(a0)
   14754:	001e0e13          	addi	t3,t3,1
   14758:	00430313          	addi	t1,t1,4
   1475c:	fea32e23          	sw	a0,-4(t1)
   14760:	ffc756e3          	bge	a4,t3,1474c <__addtf3+0xa4c>
   14764:	00400713          	addi	a4,zero,4
   14768:	40f707b3          	sub	a5,a4,a5
   1476c:	0580006f          	jal	zero,147c4 <__addtf3+0xac4>
   14770:	00052803          	lw	a6,0(a0)
   14774:	00170713          	addi	a4,a4,1
   14778:	00450513          	addi	a0,a0,4
   1477c:	01066633          	or	a2,a2,a6
   14780:	fb9ff06f          	jal	zero,14738 <__addtf3+0xa38>
   14784:	007f0533          	add	a0,t5,t2
   14788:	00052503          	lw	a0,0(a0)
   1478c:	02000813          	addi	a6,zero,32
   14790:	41c80833          	sub	a6,a6,t3
   14794:	01051533          	sll	a0,a0,a6
   14798:	00a66633          	or	a2,a2,a0
   1479c:	00730333          	add	t1,t1,t2
   147a0:	00000f93          	addi	t6,zero,0
   147a4:	02efc463          	blt	t6,a4,147cc <__addtf3+0xacc>
   147a8:	00400513          	addi	a0,zero,4
   147ac:	40f507b3          	sub	a5,a0,a5
   147b0:	02c12503          	lw	a0,44(sp)
   147b4:	00271713          	slli	a4,a4,0x2
   147b8:	00ef0733          	add	a4,t5,a4
   147bc:	01c55533          	srl	a0,a0,t3
   147c0:	00a72023          	sw	a0,0(a4)
   147c4:	00400513          	addi	a0,zero,4
   147c8:	03c0006f          	jal	zero,14804 <__addtf3+0xb04>
   147cc:	00032503          	lw	a0,0(t1)
   147d0:	00432283          	lw	t0,4(t1)
   147d4:	407309b3          	sub	s3,t1,t2
   147d8:	01c55533          	srl	a0,a0,t3
   147dc:	010292b3          	sll	t0,t0,a6
   147e0:	00556533          	or	a0,a0,t0
   147e4:	00a9a023          	sw	a0,0(s3)
   147e8:	001f8f93          	addi	t6,t6,1
   147ec:	00430313          	addi	t1,t1,4
   147f0:	fb5ff06f          	jal	zero,147a4 <__addtf3+0xaa4>
   147f4:	00279713          	slli	a4,a5,0x2
   147f8:	00ef0733          	add	a4,t5,a4
   147fc:	00072023          	sw	zero,0(a4)
   14800:	00178793          	addi	a5,a5,1
   14804:	fea798e3          	bne	a5,a0,147f4 <__addtf3+0xaf4>
   14808:	02012783          	lw	a5,32(sp)
   1480c:	00c03633          	sltu	a2,zero,a2
   14810:	00f66633          	or	a2,a2,a5
   14814:	02412703          	lw	a4,36(sp)
   14818:	40c68633          	sub	a2,a3,a2
   1481c:	00c6b6b3          	sltu	a3,a3,a2
   14820:	40e587b3          	sub	a5,a1,a4
   14824:	40d78833          	sub	a6,a5,a3
   14828:	40b70733          	sub	a4,a4,a1
   1482c:	00f5b7b3          	sltu	a5,a1,a5
   14830:	02812583          	lw	a1,40(sp)
   14834:	00173713          	sltiu	a4,a4,1
   14838:	00e6f6b3          	and	a3,a3,a4
   1483c:	00d7e7b3          	or	a5,a5,a3
   14840:	02c12503          	lw	a0,44(sp)
   14844:	40be86b3          	sub	a3,t4,a1
   14848:	41d585b3          	sub	a1,a1,t4
   1484c:	0015b593          	sltiu	a1,a1,1
   14850:	40f68733          	sub	a4,a3,a5
   14854:	00b7f7b3          	and	a5,a5,a1
   14858:	00deb6b3          	sltu	a3,t4,a3
   1485c:	00f6e6b3          	or	a3,a3,a5
   14860:	40a88533          	sub	a0,a7,a0
   14864:	40d50533          	sub	a0,a0,a3
   14868:	00090793          	addi	a5,s2,0
   1486c:	02e12c23          	sw	a4,56(sp)
   14870:	02a12e23          	sw	a0,60(sp)
   14874:	03012a23          	sw	a6,52(sp)
   14878:	02c12823          	sw	a2,48(sp)
   1487c:	00c51713          	slli	a4,a0,0xc
   14880:	e6075663          	bge	a4,zero,13eec <__addtf3+0x1ec>
   14884:	00080737          	lui	a4,0x80
   14888:	fff70713          	addi	a4,a4,-1 # 7ffff <__BSS_END__+0x6403f>
   1488c:	00e57533          	and	a0,a0,a4
   14890:	02a12e23          	sw	a0,60(sp)
   14894:	00078913          	addi	s2,a5,0
   14898:	4c40006f          	jal	zero,14d5c <__addtf3+0x105c>
   1489c:	02412303          	lw	t1,36(sp)
   148a0:	02812583          	lw	a1,40(sp)
   148a4:	02c12f03          	lw	t5,44(sp)
   148a8:	24078663          	beq	a5,zero,14af4 <__addtf3+0xdf4>
   148ac:	412e07b3          	sub	a5,t3,s2
   148b0:	0a091a63          	bne	s2,zero,14964 <__addtf3+0xc64>
   148b4:	01412883          	lw	a7,20(sp)
   148b8:	01812e83          	lw	t4,24(sp)
   148bc:	01c12503          	lw	a0,28(sp)
   148c0:	01d8e633          	or	a2,a7,t4
   148c4:	00a66633          	or	a2,a2,a0
   148c8:	00d66633          	or	a2,a2,a3
   148cc:	00061e63          	bne	a2,zero,148e8 <__addtf3+0xbe8>
   148d0:	02e12823          	sw	a4,48(sp)
   148d4:	02612a23          	sw	t1,52(sp)
   148d8:	02b12c23          	sw	a1,56(sp)
   148dc:	03e12e23          	sw	t5,60(sp)
   148e0:	000f8493          	addi	s1,t6,0
   148e4:	e08ff06f          	jal	zero,13eec <__addtf3+0x1ec>
   148e8:	fff78913          	addi	s2,a5,-1
   148ec:	04091a63          	bne	s2,zero,14940 <__addtf3+0xc40>
   148f0:	411307b3          	sub	a5,t1,a7
   148f4:	40d70633          	sub	a2,a4,a3
   148f8:	406888b3          	sub	a7,a7,t1
   148fc:	00c73733          	sltu	a4,a4,a2
   14900:	0018b893          	sltiu	a7,a7,1
   14904:	40e78833          	sub	a6,a5,a4
   14908:	40be86b3          	sub	a3,t4,a1
   1490c:	01177733          	and	a4,a4,a7
   14910:	00f337b3          	sltu	a5,t1,a5
   14914:	00e7e7b3          	or	a5,a5,a4
   14918:	41d588b3          	sub	a7,a1,t4
   1491c:	0016b693          	sltiu	a3,a3,1
   14920:	40f88733          	sub	a4,a7,a5
   14924:	00d7f7b3          	and	a5,a5,a3
   14928:	0115b8b3          	sltu	a7,a1,a7
   1492c:	40af0533          	sub	a0,t5,a0
   14930:	00f8e8b3          	or	a7,a7,a5
   14934:	41150533          	sub	a0,a0,a7
   14938:	000f8493          	addi	s1,t6,0
   1493c:	d91ff06f          	jal	zero,146cc <__addtf3+0x9cc>
   14940:	000086b7          	lui	a3,0x8
   14944:	fff68693          	addi	a3,a3,-1 # 7fff <exit-0x80b5>
   14948:	68d79463          	bne	a5,a3,14fd0 <__addtf3+0x12d0>
   1494c:	02e12823          	sw	a4,48(sp)
   14950:	02612a23          	sw	t1,52(sp)
   14954:	02b12c23          	sw	a1,56(sp)
   14958:	03e12e23          	sw	t5,60(sp)
   1495c:	000f8493          	addi	s1,t6,0
   14960:	8f5ff06f          	jal	zero,14254 <__addtf3+0x554>
   14964:	000086b7          	lui	a3,0x8
   14968:	fff68693          	addi	a3,a3,-1 # 7fff <exit-0x80b5>
   1496c:	fede00e3          	beq	t3,a3,1494c <__addtf3+0xc4c>
   14970:	01c12683          	lw	a3,28(sp)
   14974:	00080637          	lui	a2,0x80
   14978:	00c6e6b3          	or	a3,a3,a2
   1497c:	00d12e23          	sw	a3,28(sp)
   14980:	07400693          	addi	a3,zero,116
   14984:	64f6ca63          	blt	a3,a5,14fd8 <__addtf3+0x12d8>
   14988:	00078913          	addi	s2,a5,0
   1498c:	02000793          	addi	a5,zero,32
   14990:	02f947b3          	div	a5,s2,a5
   14994:	00080513          	addi	a0,a6,0
   14998:	00000613          	addi	a2,zero,0
   1499c:	00000693          	addi	a3,zero,0
   149a0:	02f6ce63          	blt	a3,a5,149dc <__addtf3+0xcdc>
   149a4:	00300693          	addi	a3,zero,3
   149a8:	01f97e93          	andi	t4,s2,31
   149ac:	40f688b3          	sub	a7,a3,a5
   149b0:	00279493          	slli	s1,a5,0x2
   149b4:	020e9e63          	bne	t4,zero,149f0 <__addtf3+0xcf0>
   149b8:	009806b3          	add	a3,a6,s1
   149bc:	0006a683          	lw	a3,0(a3)
   149c0:	001e8e93          	addi	t4,t4,1
   149c4:	00480813          	addi	a6,a6,4
   149c8:	fed82e23          	sw	a3,-4(a6)
   149cc:	ffd8d6e3          	bge	a7,t4,149b8 <__addtf3+0xcb8>
   149d0:	00400693          	addi	a3,zero,4
   149d4:	40f687b3          	sub	a5,a3,a5
   149d8:	06c0006f          	jal	zero,14a44 <__addtf3+0xd44>
   149dc:	00052883          	lw	a7,0(a0)
   149e0:	00168693          	addi	a3,a3,1
   149e4:	00450513          	addi	a0,a0,4
   149e8:	01166633          	or	a2,a2,a7
   149ec:	fb5ff06f          	jal	zero,149a0 <__addtf3+0xca0>
   149f0:	02000393          	addi	t2,zero,32
   149f4:	02796933          	rem	s2,s2,t2
   149f8:	fff7c693          	xori	a3,a5,-1
   149fc:	41f6d693          	srai	a3,a3,0x1f
   14a00:	00d7f6b3          	and	a3,a5,a3
   14a04:	00269693          	slli	a3,a3,0x2
   14a08:	00d286b3          	add	a3,t0,a3
   14a0c:	0006a683          	lw	a3,0(a3)
   14a10:	00980833          	add	a6,a6,s1
   14a14:	412383b3          	sub	t2,t2,s2
   14a18:	007696b3          	sll	a3,a3,t2
   14a1c:	00d66633          	or	a2,a2,a3
   14a20:	00000693          	addi	a3,zero,0
   14a24:	0316c463          	blt	a3,a7,14a4c <__addtf3+0xd4c>
   14a28:	01c12503          	lw	a0,28(sp)
   14a2c:	00400693          	addi	a3,zero,4
   14a30:	40f687b3          	sub	a5,a3,a5
   14a34:	00289693          	slli	a3,a7,0x2
   14a38:	00d286b3          	add	a3,t0,a3
   14a3c:	01d55533          	srl	a0,a0,t4
   14a40:	00a6a023          	sw	a0,0(a3)
   14a44:	00300513          	addi	a0,zero,3
   14a48:	03c0006f          	jal	zero,14a84 <__addtf3+0xd84>
   14a4c:	00082503          	lw	a0,0(a6)
   14a50:	00482903          	lw	s2,4(a6)
   14a54:	409809b3          	sub	s3,a6,s1
   14a58:	01d55533          	srl	a0,a0,t4
   14a5c:	00791933          	sll	s2,s2,t2
   14a60:	01256533          	or	a0,a0,s2
   14a64:	00a9a023          	sw	a0,0(s3)
   14a68:	00168693          	addi	a3,a3,1
   14a6c:	00480813          	addi	a6,a6,4
   14a70:	fb5ff06f          	jal	zero,14a24 <__addtf3+0xd24>
   14a74:	00279693          	slli	a3,a5,0x2
   14a78:	00d286b3          	add	a3,t0,a3
   14a7c:	0006a023          	sw	zero,0(a3)
   14a80:	00178793          	addi	a5,a5,1
   14a84:	fef558e3          	bge	a0,a5,14a74 <__addtf3+0xd74>
   14a88:	01012783          	lw	a5,16(sp)
   14a8c:	00c03633          	sltu	a2,zero,a2
   14a90:	00f66633          	or	a2,a2,a5
   14a94:	01412683          	lw	a3,20(sp)
   14a98:	01812883          	lw	a7,24(sp)
   14a9c:	40c70633          	sub	a2,a4,a2
   14aa0:	40d307b3          	sub	a5,t1,a3
   14aa4:	406686b3          	sub	a3,a3,t1
   14aa8:	00c73733          	sltu	a4,a4,a2
   14aac:	0016b693          	sltiu	a3,a3,1
   14ab0:	40e78833          	sub	a6,a5,a4
   14ab4:	01c12503          	lw	a0,28(sp)
   14ab8:	00d77733          	and	a4,a4,a3
   14abc:	00f337b3          	sltu	a5,t1,a5
   14ac0:	411586b3          	sub	a3,a1,a7
   14ac4:	40b888b3          	sub	a7,a7,a1
   14ac8:	00e7e7b3          	or	a5,a5,a4
   14acc:	0018b893          	sltiu	a7,a7,1
   14ad0:	40f68733          	sub	a4,a3,a5
   14ad4:	0117f7b3          	and	a5,a5,a7
   14ad8:	00d5b6b3          	sltu	a3,a1,a3
   14adc:	00f6e6b3          	or	a3,a3,a5
   14ae0:	40af0533          	sub	a0,t5,a0
   14ae4:	40d50533          	sub	a0,a0,a3
   14ae8:	000e0793          	addi	a5,t3,0
   14aec:	000f8493          	addi	s1,t6,0
   14af0:	d7dff06f          	jal	zero,1486c <__addtf3+0xb6c>
   14af4:	00190613          	addi	a2,s2,1
   14af8:	01161e13          	slli	t3,a2,0x11
   14afc:	012e5e13          	srli	t3,t3,0x12
   14b00:	01412803          	lw	a6,20(sp)
   14b04:	01812e83          	lw	t4,24(sp)
   14b08:	01c12883          	lw	a7,28(sp)
   14b0c:	000082b7          	lui	t0,0x8
   14b10:	1a0e1463          	bne	t3,zero,14cb8 <__addtf3+0xfb8>
   14b14:	01d86e33          	or	t3,a6,t4
   14b18:	00b36633          	or	a2,t1,a1
   14b1c:	011e6e33          	or	t3,t3,a7
   14b20:	01e66633          	or	a2,a2,t5
   14b24:	00de6e33          	or	t3,t3,a3
   14b28:	00e66633          	or	a2,a2,a4
   14b2c:	0e091863          	bne	s2,zero,14c1c <__addtf3+0xf1c>
   14b30:	020e1063          	bne	t3,zero,14b50 <__addtf3+0xe50>
   14b34:	00c03633          	sltu	a2,zero,a2
   14b38:	02e12823          	sw	a4,48(sp)
   14b3c:	02612a23          	sw	t1,52(sp)
   14b40:	02b12c23          	sw	a1,56(sp)
   14b44:	03e12e23          	sw	t5,60(sp)
   14b48:	00cff4b3          	and	s1,t6,a2
   14b4c:	ba0ff06f          	jal	zero,13eec <__addtf3+0x1ec>
   14b50:	00061863          	bne	a2,zero,14b60 <__addtf3+0xe60>
   14b54:	02d12823          	sw	a3,48(sp)
   14b58:	03012a23          	sw	a6,52(sp)
   14b5c:	8d5ff06f          	jal	zero,14430 <__addtf3+0x730>
   14b60:	40680633          	sub	a2,a6,t1
   14b64:	40e684b3          	sub	s1,a3,a4
   14b68:	0096be33          	sltu	t3,a3,s1
   14b6c:	00163913          	sltiu	s2,a2,1
   14b70:	41c609b3          	sub	s3,a2,t3
   14b74:	40be82b3          	sub	t0,t4,a1
   14b78:	012e7e33          	and	t3,t3,s2
   14b7c:	00c83633          	sltu	a2,a6,a2
   14b80:	01c66633          	or	a2,a2,t3
   14b84:	0012b393          	sltiu	t2,t0,1
   14b88:	40c28a33          	sub	s4,t0,a2
   14b8c:	00c3f633          	and	a2,t2,a2
   14b90:	005eb2b3          	sltu	t0,t4,t0
   14b94:	00c2e2b3          	or	t0,t0,a2
   14b98:	41e88633          	sub	a2,a7,t5
   14b9c:	40560633          	sub	a2,a2,t0
   14ba0:	02c12e23          	sw	a2,60(sp)
   14ba4:	03412c23          	sw	s4,56(sp)
   14ba8:	03312a23          	sw	s3,52(sp)
   14bac:	02912823          	sw	s1,48(sp)
   14bb0:	00c61e13          	slli	t3,a2,0xc
   14bb4:	040e5863          	bge	t3,zero,14c04 <__addtf3+0xf04>
   14bb8:	40d706b3          	sub	a3,a4,a3
   14bbc:	00d73733          	sltu	a4,a4,a3
   14bc0:	41030833          	sub	a6,t1,a6
   14bc4:	40e80633          	sub	a2,a6,a4
   14bc8:	01033833          	sltu	a6,t1,a6
   14bcc:	01277733          	and	a4,a4,s2
   14bd0:	00e86833          	or	a6,a6,a4
   14bd4:	41d58eb3          	sub	t4,a1,t4
   14bd8:	01d5b5b3          	sltu	a1,a1,t4
   14bdc:	0103f3b3          	and	t2,t2,a6
   14be0:	411f0f33          	sub	t5,t5,a7
   14be4:	0075e5b3          	or	a1,a1,t2
   14be8:	40bf0f33          	sub	t5,t5,a1
   14bec:	410e8eb3          	sub	t4,t4,a6
   14bf0:	03e12e23          	sw	t5,60(sp)
   14bf4:	03d12c23          	sw	t4,56(sp)
   14bf8:	02c12a23          	sw	a2,52(sp)
   14bfc:	02d12823          	sw	a3,48(sp)
   14c00:	ce1ff06f          	jal	zero,148e0 <__addtf3+0xbe0>
   14c04:	0134e4b3          	or	s1,s1,s3
   14c08:	0144e4b3          	or	s1,s1,s4
   14c0c:	00c4e4b3          	or	s1,s1,a2
   14c10:	009034b3          	sltu	s1,zero,s1
   14c14:	009574b3          	and	s1,a0,s1
   14c18:	ad4ff06f          	jal	zero,13eec <__addtf3+0x1ec>
   14c1c:	03010513          	addi	a0,sp,48
   14c20:	040e1e63          	bne	t3,zero,14c7c <__addtf3+0xf7c>
   14c24:	02061e63          	bne	a2,zero,14c60 <__addtf3+0xf60>
   14c28:	02512e23          	sw	t0,60(sp)
   14c2c:	02012c23          	sw	zero,56(sp)
   14c30:	02012a23          	sw	zero,52(sp)
   14c34:	02012823          	sw	zero,48(sp)
   14c38:	03c10793          	addi	a5,sp,60
   14c3c:	0007a703          	lw	a4,0(a5)
   14c40:	ffc7a683          	lw	a3,-4(a5)
   14c44:	ffc78793          	addi	a5,a5,-4
   14c48:	00371713          	slli	a4,a4,0x3
   14c4c:	01d6d693          	srli	a3,a3,0x1d
   14c50:	00d76733          	or	a4,a4,a3
   14c54:	00e7a223          	sw	a4,4(a5)
   14c58:	fef512e3          	bne	a0,a5,14c3c <__addtf3+0xf3c>
   14c5c:	8e1ff06f          	jal	zero,1453c <__addtf3+0x83c>
   14c60:	02e12823          	sw	a4,48(sp)
   14c64:	02612a23          	sw	t1,52(sp)
   14c68:	02b12c23          	sw	a1,56(sp)
   14c6c:	03e12e23          	sw	t5,60(sp)
   14c70:	000f8493          	addi	s1,t6,0
   14c74:	fff28793          	addi	a5,t0,-1 # 7fff <exit-0x80b5>
   14c78:	a74ff06f          	jal	zero,13eec <__addtf3+0x1ec>
   14c7c:	a4060263          	beq	a2,zero,13ec0 <__addtf3+0x1c0>
   14c80:	02512e23          	sw	t0,60(sp)
   14c84:	02012c23          	sw	zero,56(sp)
   14c88:	02012a23          	sw	zero,52(sp)
   14c8c:	02012823          	sw	zero,48(sp)
   14c90:	03c10793          	addi	a5,sp,60
   14c94:	0007a703          	lw	a4,0(a5)
   14c98:	ffc7a683          	lw	a3,-4(a5)
   14c9c:	ffc78793          	addi	a5,a5,-4
   14ca0:	00371713          	slli	a4,a4,0x3
   14ca4:	01d6d693          	srli	a3,a3,0x1d
   14ca8:	00d76733          	or	a4,a4,a3
   14cac:	00e7a223          	sw	a4,4(a5)
   14cb0:	fef512e3          	bne	a0,a5,14c94 <__addtf3+0xf94>
   14cb4:	889ff06f          	jal	zero,1453c <__addtf3+0x83c>
   14cb8:	40680633          	sub	a2,a6,t1
   14cbc:	40e682b3          	sub	t0,a3,a4
   14cc0:	0056b533          	sltu	a0,a3,t0
   14cc4:	00163993          	sltiu	s3,a2,1
   14cc8:	40a60a33          	sub	s4,a2,a0
   14ccc:	40be8e33          	sub	t3,t4,a1
   14cd0:	01357533          	and	a0,a0,s3
   14cd4:	00c83633          	sltu	a2,a6,a2
   14cd8:	00a66633          	or	a2,a2,a0
   14cdc:	001e3393          	sltiu	t2,t3,1
   14ce0:	40ce0ab3          	sub	s5,t3,a2
   14ce4:	00c3f633          	and	a2,t2,a2
   14ce8:	01cebe33          	sltu	t3,t4,t3
   14cec:	00ce6e33          	or	t3,t3,a2
   14cf0:	41e88533          	sub	a0,a7,t5
   14cf4:	41c50533          	sub	a0,a0,t3
   14cf8:	02a12e23          	sw	a0,60(sp)
   14cfc:	03512c23          	sw	s5,56(sp)
   14d00:	03412a23          	sw	s4,52(sp)
   14d04:	02512823          	sw	t0,48(sp)
   14d08:	00c51613          	slli	a2,a0,0xc
   14d0c:	0a065463          	bge	a2,zero,14db4 <__addtf3+0x10b4>
   14d10:	40d706b3          	sub	a3,a4,a3
   14d14:	00d73733          	sltu	a4,a4,a3
   14d18:	41030833          	sub	a6,t1,a6
   14d1c:	40e807b3          	sub	a5,a6,a4
   14d20:	01377733          	and	a4,a4,s3
   14d24:	01033833          	sltu	a6,t1,a6
   14d28:	00e86833          	or	a6,a6,a4
   14d2c:	41d58eb3          	sub	t4,a1,t4
   14d30:	01d5b5b3          	sltu	a1,a1,t4
   14d34:	007873b3          	and	t2,a6,t2
   14d38:	411f0533          	sub	a0,t5,a7
   14d3c:	0075e5b3          	or	a1,a1,t2
   14d40:	40b50533          	sub	a0,a0,a1
   14d44:	410e8eb3          	sub	t4,t4,a6
   14d48:	02a12e23          	sw	a0,60(sp)
   14d4c:	03d12c23          	sw	t4,56(sp)
   14d50:	02f12a23          	sw	a5,52(sp)
   14d54:	02d12823          	sw	a3,48(sp)
   14d58:	000f8493          	addi	s1,t6,0
   14d5c:	06050663          	beq	a0,zero,14dc8 <__addtf3+0x10c8>
   14d60:	059030ef          	jal	ra,185b8 <__clzsi2>
   14d64:	ff450793          	addi	a5,a0,-12
   14d68:	02000613          	addi	a2,zero,32
   14d6c:	01f7f813          	andi	a6,a5,31
   14d70:	02c7c6b3          	div	a3,a5,a2
   14d74:	03c10713          	addi	a4,sp,60
   14d78:	08080463          	beq	a6,zero,14e00 <__addtf3+0x1100>
   14d7c:	00269893          	slli	a7,a3,0x2
   14d80:	03010513          	addi	a0,sp,48
   14d84:	41170733          	sub	a4,a4,a7
   14d88:	02c7e5b3          	rem	a1,a5,a2
   14d8c:	40b60633          	sub	a2,a2,a1
   14d90:	08e51e63          	bne	a0,a4,14e2c <__addtf3+0x112c>
   14d94:	fff68713          	addi	a4,a3,-1
   14d98:	03012683          	lw	a3,48(sp)
   14d9c:	01150533          	add	a0,a0,a7
   14da0:	010696b3          	sll	a3,a3,a6
   14da4:	00d52023          	sw	a3,0(a0)
   14da8:	fff00613          	addi	a2,zero,-1
   14dac:	03010893          	addi	a7,sp,48
   14db0:	0b00006f          	jal	zero,14e60 <__addtf3+0x1160>
   14db4:	0142e733          	or	a4,t0,s4
   14db8:	01576733          	or	a4,a4,s5
   14dbc:	00a76733          	or	a4,a4,a0
   14dc0:	f8070263          	beq	a4,zero,14544 <__addtf3+0x844>
   14dc4:	f99ff06f          	jal	zero,14d5c <__addtf3+0x105c>
   14dc8:	03812503          	lw	a0,56(sp)
   14dcc:	00050863          	beq	a0,zero,14ddc <__addtf3+0x10dc>
   14dd0:	7e8030ef          	jal	ra,185b8 <__clzsi2>
   14dd4:	02050513          	addi	a0,a0,32
   14dd8:	f8dff06f          	jal	zero,14d64 <__addtf3+0x1064>
   14ddc:	03412503          	lw	a0,52(sp)
   14de0:	00050863          	beq	a0,zero,14df0 <__addtf3+0x10f0>
   14de4:	7d4030ef          	jal	ra,185b8 <__clzsi2>
   14de8:	04050513          	addi	a0,a0,64
   14dec:	f79ff06f          	jal	zero,14d64 <__addtf3+0x1064>
   14df0:	03012503          	lw	a0,48(sp)
   14df4:	7c4030ef          	jal	ra,185b8 <__clzsi2>
   14df8:	06050513          	addi	a0,a0,96
   14dfc:	f69ff06f          	jal	zero,14d64 <__addtf3+0x1064>
   14e00:	ffc00593          	addi	a1,zero,-4
   14e04:	02b685b3          	mul	a1,a3,a1
   14e08:	00300613          	addi	a2,zero,3
   14e0c:	00b70533          	add	a0,a4,a1
   14e10:	00052503          	lw	a0,0(a0)
   14e14:	fff60613          	addi	a2,a2,-1 # 7ffff <__BSS_END__+0x6403f>
   14e18:	ffc70713          	addi	a4,a4,-4
   14e1c:	00a72223          	sw	a0,4(a4)
   14e20:	fed656e3          	bge	a2,a3,14e0c <__addtf3+0x110c>
   14e24:	fff68713          	addi	a4,a3,-1
   14e28:	f81ff06f          	jal	zero,14da8 <__addtf3+0x10a8>
   14e2c:	00072583          	lw	a1,0(a4)
   14e30:	ffc72303          	lw	t1,-4(a4)
   14e34:	01170e33          	add	t3,a4,a7
   14e38:	010595b3          	sll	a1,a1,a6
   14e3c:	00c35333          	srl	t1,t1,a2
   14e40:	0065e5b3          	or	a1,a1,t1
   14e44:	00be2023          	sw	a1,0(t3)
   14e48:	ffc70713          	addi	a4,a4,-4
   14e4c:	f45ff06f          	jal	zero,14d90 <__addtf3+0x1090>
   14e50:	00271693          	slli	a3,a4,0x2
   14e54:	00d886b3          	add	a3,a7,a3
   14e58:	0006a023          	sw	zero,0(a3)
   14e5c:	fff70713          	addi	a4,a4,-1
   14e60:	fec718e3          	bne	a4,a2,14e50 <__addtf3+0x1150>
   14e64:	1127c263          	blt	a5,s2,14f68 <__addtf3+0x1268>
   14e68:	412787b3          	sub	a5,a5,s2
   14e6c:	00178793          	addi	a5,a5,1
   14e70:	4057d713          	srai	a4,a5,0x5
   14e74:	00088613          	addi	a2,a7,0
   14e78:	01f7f793          	andi	a5,a5,31
   14e7c:	00088593          	addi	a1,a7,0
   14e80:	00000813          	addi	a6,zero,0
   14e84:	00000693          	addi	a3,zero,0
   14e88:	02e69c63          	bne	a3,a4,14ec0 <__addtf3+0x11c0>
   14e8c:	00300693          	addi	a3,zero,3
   14e90:	40e686b3          	sub	a3,a3,a4
   14e94:	00271e13          	slli	t3,a4,0x2
   14e98:	02079e63          	bne	a5,zero,14ed4 <__addtf3+0x11d4>
   14e9c:	01c605b3          	add	a1,a2,t3
   14ea0:	0005a583          	lw	a1,0(a1)
   14ea4:	00178793          	addi	a5,a5,1
   14ea8:	00460613          	addi	a2,a2,4
   14eac:	feb62e23          	sw	a1,-4(a2)
   14eb0:	fef6d6e3          	bge	a3,a5,14e9c <__addtf3+0x119c>
   14eb4:	00400793          	addi	a5,zero,4
   14eb8:	40e78733          	sub	a4,a5,a4
   14ebc:	0540006f          	jal	zero,14f10 <__addtf3+0x1210>
   14ec0:	0005a503          	lw	a0,0(a1)
   14ec4:	00168693          	addi	a3,a3,1
   14ec8:	00458593          	addi	a1,a1,4
   14ecc:	00a86833          	or	a6,a6,a0
   14ed0:	fb9ff06f          	jal	zero,14e88 <__addtf3+0x1188>
   14ed4:	01c88633          	add	a2,a7,t3
   14ed8:	00062583          	lw	a1,0(a2)
   14edc:	02000513          	addi	a0,zero,32
   14ee0:	40f50533          	sub	a0,a0,a5
   14ee4:	00a595b3          	sll	a1,a1,a0
   14ee8:	00b86833          	or	a6,a6,a1
   14eec:	00000313          	addi	t1,zero,0
   14ef0:	02d34463          	blt	t1,a3,14f18 <__addtf3+0x1218>
   14ef4:	00400613          	addi	a2,zero,4
   14ef8:	40e60733          	sub	a4,a2,a4
   14efc:	03c12603          	lw	a2,60(sp)
   14f00:	00269693          	slli	a3,a3,0x2
   14f04:	00d886b3          	add	a3,a7,a3
   14f08:	00f657b3          	srl	a5,a2,a5
   14f0c:	00f6a023          	sw	a5,0(a3)
   14f10:	00400693          	addi	a3,zero,4
   14f14:	03c0006f          	jal	zero,14f50 <__addtf3+0x1250>
   14f18:	00062583          	lw	a1,0(a2)
   14f1c:	00462e83          	lw	t4,4(a2)
   14f20:	41c60f33          	sub	t5,a2,t3
   14f24:	00f5d5b3          	srl	a1,a1,a5
   14f28:	00ae9eb3          	sll	t4,t4,a0
   14f2c:	01d5e5b3          	or	a1,a1,t4
   14f30:	00bf2023          	sw	a1,0(t5)
   14f34:	00130313          	addi	t1,t1,1
   14f38:	00460613          	addi	a2,a2,4
   14f3c:	fb5ff06f          	jal	zero,14ef0 <__addtf3+0x11f0>
   14f40:	00271793          	slli	a5,a4,0x2
   14f44:	00f887b3          	add	a5,a7,a5
   14f48:	0007a023          	sw	zero,0(a5)
   14f4c:	00170713          	addi	a4,a4,1
   14f50:	fed718e3          	bne	a4,a3,14f40 <__addtf3+0x1240>
   14f54:	03012703          	lw	a4,48(sp)
   14f58:	010037b3          	sltu	a5,zero,a6
   14f5c:	00f767b3          	or	a5,a4,a5
   14f60:	02f12823          	sw	a5,48(sp)
   14f64:	cf8ff06f          	jal	zero,1445c <__addtf3+0x75c>
   14f68:	03c12703          	lw	a4,60(sp)
   14f6c:	fff806b7          	lui	a3,0xfff80
   14f70:	fff68693          	addi	a3,a3,-1 # fff7ffff <__BSS_END__+0xfff6403f>
   14f74:	40f907b3          	sub	a5,s2,a5
   14f78:	00d77733          	and	a4,a4,a3
   14f7c:	a24ff06f          	jal	zero,141a0 <__addtf3+0x4a0>
   14f80:	02012e23          	sw	zero,60(sp)
   14f84:	02012c23          	sw	zero,56(sp)
   14f88:	02012a23          	sw	zero,52(sp)
   14f8c:	02012823          	sw	zero,48(sp)
   14f90:	00000713          	addi	a4,zero,0
   14f94:	fddfe06f          	jal	zero,13f70 <__addtf3+0x270>
   14f98:	07400793          	addi	a5,zero,116
   14f9c:	8ac7dc63          	bge	a5,a2,14054 <__addtf3+0x354>
   14fa0:	02012623          	sw	zero,44(sp)
   14fa4:	02012423          	sw	zero,40(sp)
   14fa8:	02012223          	sw	zero,36(sp)
   14fac:	00100613          	addi	a2,zero,1
   14fb0:	994ff06f          	jal	zero,14144 <__addtf3+0x444>
   14fb4:	07400793          	addi	a5,zero,116
   14fb8:	ad27dc63          	bge	a5,s2,14290 <__addtf3+0x590>
   14fbc:	00012e23          	sw	zero,28(sp)
   14fc0:	00012c23          	sw	zero,24(sp)
   14fc4:	00012a23          	sw	zero,20(sp)
   14fc8:	00100613          	addi	a2,zero,1
   14fcc:	bccff06f          	jal	zero,14398 <__addtf3+0x698>
   14fd0:	07400793          	addi	a5,zero,116
   14fd4:	9b27dce3          	bge	a5,s2,1498c <__addtf3+0xc8c>
   14fd8:	00012e23          	sw	zero,28(sp)
   14fdc:	00012c23          	sw	zero,24(sp)
   14fe0:	00012a23          	sw	zero,20(sp)
   14fe4:	00100613          	addi	a2,zero,1
   14fe8:	aadff06f          	jal	zero,14a94 <__addtf3+0xd94>

00014fec <__divtf3>:
   14fec:	f5010113          	addi	sp,sp,-176
   14ff0:	09312e23          	sw	s3,156(sp)
   14ff4:	00c5a983          	lw	s3,12(a1)
   14ff8:	0005a683          	lw	a3,0(a1)
   14ffc:	0045a783          	lw	a5,4(a1)
   15000:	0a812423          	sw	s0,168(sp)
   15004:	00050413          	addi	s0,a0,0
   15008:	0085a503          	lw	a0,8(a1)
   1500c:	01099713          	slli	a4,s3,0x10
   15010:	0b212023          	sw	s2,160(sp)
   15014:	09512a23          	sw	s5,148(sp)
   15018:	00462903          	lw	s2,4(a2)
   1501c:	00c62a83          	lw	s5,12(a2)
   15020:	09612823          	sw	s6,144(sp)
   15024:	09712623          	sw	s7,140(sp)
   15028:	00062b03          	lw	s6,0(a2)
   1502c:	00862b83          	lw	s7,8(a2)
   15030:	00008637          	lui	a2,0x8
   15034:	0a912223          	sw	s1,164(sp)
   15038:	01075713          	srli	a4,a4,0x10
   1503c:	0109d493          	srli	s1,s3,0x10
   15040:	fff60613          	addi	a2,a2,-1 # 7fff <exit-0x80b5>
   15044:	07312623          	sw	s3,108(sp)
   15048:	0a112623          	sw	ra,172(sp)
   1504c:	09412c23          	sw	s4,152(sp)
   15050:	09812423          	sw	s8,136(sp)
   15054:	09912223          	sw	s9,132(sp)
   15058:	09a12023          	sw	s10,128(sp)
   1505c:	07b12e23          	sw	s11,124(sp)
   15060:	06d12023          	sw	a3,96(sp)
   15064:	06f12223          	sw	a5,100(sp)
   15068:	06a12423          	sw	a0,104(sp)
   1506c:	02d12823          	sw	a3,48(sp)
   15070:	02f12a23          	sw	a5,52(sp)
   15074:	02a12c23          	sw	a0,56(sp)
   15078:	02e12e23          	sw	a4,60(sp)
   1507c:	00c4f4b3          	and	s1,s1,a2
   15080:	01f9d993          	srli	s3,s3,0x1f
   15084:	10048c63          	beq	s1,zero,1519c <__divtf3+0x1b0>
   15088:	22c48263          	beq	s1,a2,152ac <__divtf3+0x2c0>
   1508c:	000107b7          	lui	a5,0x10
   15090:	00f76733          	or	a4,a4,a5
   15094:	02e12e23          	sw	a4,60(sp)
   15098:	03010593          	addi	a1,sp,48
   1509c:	03c10793          	addi	a5,sp,60
   150a0:	0007a703          	lw	a4,0(a5) # 10000 <exit-0xb4>
   150a4:	ffc7a603          	lw	a2,-4(a5)
   150a8:	ffc78793          	addi	a5,a5,-4
   150ac:	00371713          	slli	a4,a4,0x3
   150b0:	01d65613          	srli	a2,a2,0x1d
   150b4:	00c76733          	or	a4,a4,a2
   150b8:	00e7a223          	sw	a4,4(a5)
   150bc:	fef592e3          	bne	a1,a5,150a0 <__divtf3+0xb4>
   150c0:	ffffc7b7          	lui	a5,0xffffc
   150c4:	00369693          	slli	a3,a3,0x3
   150c8:	00178793          	addi	a5,a5,1 # ffffc001 <__BSS_END__+0xfffe0041>
   150cc:	02d12823          	sw	a3,48(sp)
   150d0:	00f484b3          	add	s1,s1,a5
   150d4:	00000a13          	addi	s4,zero,0
   150d8:	010a9513          	slli	a0,s5,0x10
   150dc:	00008737          	lui	a4,0x8
   150e0:	010ad793          	srli	a5,s5,0x10
   150e4:	01055513          	srli	a0,a0,0x10
   150e8:	fff70713          	addi	a4,a4,-1 # 7fff <exit-0x80b5>
   150ec:	07512623          	sw	s5,108(sp)
   150f0:	07612023          	sw	s6,96(sp)
   150f4:	07212223          	sw	s2,100(sp)
   150f8:	07712423          	sw	s7,104(sp)
   150fc:	05612023          	sw	s6,64(sp)
   15100:	05212223          	sw	s2,68(sp)
   15104:	05712423          	sw	s7,72(sp)
   15108:	04a12623          	sw	a0,76(sp)
   1510c:	00e7f7b3          	and	a5,a5,a4
   15110:	01fada93          	srli	s5,s5,0x1f
   15114:	1c078063          	beq	a5,zero,152d4 <__divtf3+0x2e8>
   15118:	2ce78863          	beq	a5,a4,153e8 <__divtf3+0x3fc>
   1511c:	00010737          	lui	a4,0x10
   15120:	00e56533          	or	a0,a0,a4
   15124:	04a12623          	sw	a0,76(sp)
   15128:	04010593          	addi	a1,sp,64
   1512c:	04c10713          	addi	a4,sp,76
   15130:	00072683          	lw	a3,0(a4) # 10000 <exit-0xb4>
   15134:	ffc72603          	lw	a2,-4(a4)
   15138:	ffc70713          	addi	a4,a4,-4
   1513c:	00369693          	slli	a3,a3,0x3
   15140:	01d65613          	srli	a2,a2,0x1d
   15144:	00c6e6b3          	or	a3,a3,a2
   15148:	00d72223          	sw	a3,4(a4)
   1514c:	fee592e3          	bne	a1,a4,15130 <__divtf3+0x144>
   15150:	ffffc737          	lui	a4,0xffffc
   15154:	003b1b13          	slli	s6,s6,0x3
   15158:	00170713          	addi	a4,a4,1 # ffffc001 <__BSS_END__+0xfffe0041>
   1515c:	05612023          	sw	s6,64(sp)
   15160:	00e787b3          	add	a5,a5,a4
   15164:	00000713          	addi	a4,zero,0
   15168:	40f48533          	sub	a0,s1,a5
   1516c:	002a1793          	slli	a5,s4,0x2
   15170:	00e7e7b3          	or	a5,a5,a4
   15174:	fff78793          	addi	a5,a5,-1
   15178:	00e00693          	addi	a3,zero,14
   1517c:	0159c933          	xor	s2,s3,s5
   15180:	28f6e263          	bltu	a3,a5,15404 <__divtf3+0x418>
   15184:	0001a6b7          	lui	a3,0x1a
   15188:	00279793          	slli	a5,a5,0x2
   1518c:	4d468693          	addi	a3,a3,1236 # 1a4d4 <__errno+0x44>
   15190:	00d787b3          	add	a5,a5,a3
   15194:	0007a783          	lw	a5,0(a5)
   15198:	00078067          	jalr	zero,0(a5)
   1519c:	00d7e633          	or	a2,a5,a3
   151a0:	00a66633          	or	a2,a2,a0
   151a4:	00e66633          	or	a2,a2,a4
   151a8:	12060063          	beq	a2,zero,152c8 <__divtf3+0x2dc>
   151ac:	04070c63          	beq	a4,zero,15204 <__divtf3+0x218>
   151b0:	00070513          	addi	a0,a4,0
   151b4:	404030ef          	jal	ra,185b8 <__clzsi2>
   151b8:	ff450693          	addi	a3,a0,-12
   151bc:	4056d713          	srai	a4,a3,0x5
   151c0:	01f6f693          	andi	a3,a3,31
   151c4:	03c10793          	addi	a5,sp,60
   151c8:	06068863          	beq	a3,zero,15238 <__divtf3+0x24c>
   151cc:	02000893          	addi	a7,zero,32
   151d0:	00271813          	slli	a6,a4,0x2
   151d4:	40d888b3          	sub	a7,a7,a3
   151d8:	03010593          	addi	a1,sp,48
   151dc:	410787b3          	sub	a5,a5,a6
   151e0:	08f59263          	bne	a1,a5,15264 <__divtf3+0x278>
   151e4:	fff70793          	addi	a5,a4,-1
   151e8:	03012703          	lw	a4,48(sp)
   151ec:	010585b3          	add	a1,a1,a6
   151f0:	00d71733          	sll	a4,a4,a3
   151f4:	00e5a023          	sw	a4,0(a1)
   151f8:	fff00693          	addi	a3,zero,-1
   151fc:	03010613          	addi	a2,sp,48
   15200:	0980006f          	jal	zero,15298 <__divtf3+0x2ac>
   15204:	00050863          	beq	a0,zero,15214 <__divtf3+0x228>
   15208:	3b0030ef          	jal	ra,185b8 <__clzsi2>
   1520c:	02050513          	addi	a0,a0,32
   15210:	fa9ff06f          	jal	zero,151b8 <__divtf3+0x1cc>
   15214:	00078a63          	beq	a5,zero,15228 <__divtf3+0x23c>
   15218:	00078513          	addi	a0,a5,0
   1521c:	39c030ef          	jal	ra,185b8 <__clzsi2>
   15220:	04050513          	addi	a0,a0,64
   15224:	f95ff06f          	jal	zero,151b8 <__divtf3+0x1cc>
   15228:	00068513          	addi	a0,a3,0
   1522c:	38c030ef          	jal	ra,185b8 <__clzsi2>
   15230:	06050513          	addi	a0,a0,96
   15234:	f85ff06f          	jal	zero,151b8 <__divtf3+0x1cc>
   15238:	ffc00613          	addi	a2,zero,-4
   1523c:	02c70633          	mul	a2,a4,a2
   15240:	00300693          	addi	a3,zero,3
   15244:	00c785b3          	add	a1,a5,a2
   15248:	0005a583          	lw	a1,0(a1)
   1524c:	fff68693          	addi	a3,a3,-1
   15250:	ffc78793          	addi	a5,a5,-4
   15254:	00b7a223          	sw	a1,4(a5)
   15258:	fee6d6e3          	bge	a3,a4,15244 <__divtf3+0x258>
   1525c:	fff70793          	addi	a5,a4,-1
   15260:	f99ff06f          	jal	zero,151f8 <__divtf3+0x20c>
   15264:	0007a603          	lw	a2,0(a5)
   15268:	ffc7a303          	lw	t1,-4(a5)
   1526c:	01078e33          	add	t3,a5,a6
   15270:	00d61633          	sll	a2,a2,a3
   15274:	01135333          	srl	t1,t1,a7
   15278:	00666633          	or	a2,a2,t1
   1527c:	00ce2023          	sw	a2,0(t3)
   15280:	ffc78793          	addi	a5,a5,-4
   15284:	f5dff06f          	jal	zero,151e0 <__divtf3+0x1f4>
   15288:	00279713          	slli	a4,a5,0x2
   1528c:	00e60733          	add	a4,a2,a4
   15290:	00072023          	sw	zero,0(a4)
   15294:	fff78793          	addi	a5,a5,-1
   15298:	fed798e3          	bne	a5,a3,15288 <__divtf3+0x29c>
   1529c:	ffffc4b7          	lui	s1,0xffffc
   152a0:	01148493          	addi	s1,s1,17 # ffffc011 <__BSS_END__+0xfffe0051>
   152a4:	40a484b3          	sub	s1,s1,a0
   152a8:	e2dff06f          	jal	zero,150d4 <__divtf3+0xe8>
   152ac:	00d7e7b3          	or	a5,a5,a3
   152b0:	00a7e7b3          	or	a5,a5,a0
   152b4:	00e7e7b3          	or	a5,a5,a4
   152b8:	00200a13          	addi	s4,zero,2
   152bc:	e0078ee3          	beq	a5,zero,150d8 <__divtf3+0xec>
   152c0:	00300a13          	addi	s4,zero,3
   152c4:	e15ff06f          	jal	zero,150d8 <__divtf3+0xec>
   152c8:	00000493          	addi	s1,zero,0
   152cc:	00100a13          	addi	s4,zero,1
   152d0:	e09ff06f          	jal	zero,150d8 <__divtf3+0xec>
   152d4:	016967b3          	or	a5,s2,s6
   152d8:	0177e7b3          	or	a5,a5,s7
   152dc:	00a7e7b3          	or	a5,a5,a0
   152e0:	00100713          	addi	a4,zero,1
   152e4:	e80782e3          	beq	a5,zero,15168 <__divtf3+0x17c>
   152e8:	04050a63          	beq	a0,zero,1533c <__divtf3+0x350>
   152ec:	2cc030ef          	jal	ra,185b8 <__clzsi2>
   152f0:	ff450693          	addi	a3,a0,-12
   152f4:	4056d713          	srai	a4,a3,0x5
   152f8:	01f6f693          	andi	a3,a3,31
   152fc:	04c10793          	addi	a5,sp,76
   15300:	06068a63          	beq	a3,zero,15374 <__divtf3+0x388>
   15304:	02000893          	addi	a7,zero,32
   15308:	00271813          	slli	a6,a4,0x2
   1530c:	40d888b3          	sub	a7,a7,a3
   15310:	04010593          	addi	a1,sp,64
   15314:	410787b3          	sub	a5,a5,a6
   15318:	08f59463          	bne	a1,a5,153a0 <__divtf3+0x3b4>
   1531c:	fff70793          	addi	a5,a4,-1
   15320:	04012703          	lw	a4,64(sp)
   15324:	010585b3          	add	a1,a1,a6
   15328:	00d71733          	sll	a4,a4,a3
   1532c:	00e5a023          	sw	a4,0(a1)
   15330:	fff00693          	addi	a3,zero,-1
   15334:	04010613          	addi	a2,sp,64
   15338:	09c0006f          	jal	zero,153d4 <__divtf3+0x3e8>
   1533c:	000b8a63          	beq	s7,zero,15350 <__divtf3+0x364>
   15340:	000b8513          	addi	a0,s7,0
   15344:	274030ef          	jal	ra,185b8 <__clzsi2>
   15348:	02050513          	addi	a0,a0,32
   1534c:	fa5ff06f          	jal	zero,152f0 <__divtf3+0x304>
   15350:	00090a63          	beq	s2,zero,15364 <__divtf3+0x378>
   15354:	00090513          	addi	a0,s2,0
   15358:	260030ef          	jal	ra,185b8 <__clzsi2>
   1535c:	04050513          	addi	a0,a0,64
   15360:	f91ff06f          	jal	zero,152f0 <__divtf3+0x304>
   15364:	000b0513          	addi	a0,s6,0
   15368:	250030ef          	jal	ra,185b8 <__clzsi2>
   1536c:	06050513          	addi	a0,a0,96
   15370:	f81ff06f          	jal	zero,152f0 <__divtf3+0x304>
   15374:	ffc00613          	addi	a2,zero,-4
   15378:	02c70633          	mul	a2,a4,a2
   1537c:	00300693          	addi	a3,zero,3
   15380:	00c785b3          	add	a1,a5,a2
   15384:	0005a583          	lw	a1,0(a1)
   15388:	fff68693          	addi	a3,a3,-1
   1538c:	ffc78793          	addi	a5,a5,-4
   15390:	00b7a223          	sw	a1,4(a5)
   15394:	fee6d6e3          	bge	a3,a4,15380 <__divtf3+0x394>
   15398:	fff70793          	addi	a5,a4,-1
   1539c:	f95ff06f          	jal	zero,15330 <__divtf3+0x344>
   153a0:	0007a603          	lw	a2,0(a5)
   153a4:	ffc7a303          	lw	t1,-4(a5)
   153a8:	01078e33          	add	t3,a5,a6
   153ac:	00d61633          	sll	a2,a2,a3
   153b0:	01135333          	srl	t1,t1,a7
   153b4:	00666633          	or	a2,a2,t1
   153b8:	00ce2023          	sw	a2,0(t3)
   153bc:	ffc78793          	addi	a5,a5,-4
   153c0:	f59ff06f          	jal	zero,15318 <__divtf3+0x32c>
   153c4:	00279713          	slli	a4,a5,0x2
   153c8:	00e60733          	add	a4,a2,a4
   153cc:	00072023          	sw	zero,0(a4)
   153d0:	fff78793          	addi	a5,a5,-1
   153d4:	fed798e3          	bne	a5,a3,153c4 <__divtf3+0x3d8>
   153d8:	ffffc7b7          	lui	a5,0xffffc
   153dc:	01178793          	addi	a5,a5,17 # ffffc011 <__BSS_END__+0xfffe0051>
   153e0:	40a787b3          	sub	a5,a5,a0
   153e4:	d81ff06f          	jal	zero,15164 <__divtf3+0x178>
   153e8:	01696933          	or	s2,s2,s6
   153ec:	01796933          	or	s2,s2,s7
   153f0:	00a96933          	or	s2,s2,a0
   153f4:	00200713          	addi	a4,zero,2
   153f8:	d60908e3          	beq	s2,zero,15168 <__divtf3+0x17c>
   153fc:	00300713          	addi	a4,zero,3
   15400:	d69ff06f          	jal	zero,15168 <__divtf3+0x17c>
   15404:	03c12483          	lw	s1,60(sp)
   15408:	04c12703          	lw	a4,76(sp)
   1540c:	06012623          	sw	zero,108(sp)
   15410:	06012423          	sw	zero,104(sp)
   15414:	06012223          	sw	zero,100(sp)
   15418:	06012023          	sw	zero,96(sp)
   1541c:	03012783          	lw	a5,48(sp)
   15420:	04012803          	lw	a6,64(sp)
   15424:	02976663          	bltu	a4,s1,15450 <__divtf3+0x464>
   15428:	20e49863          	bne	s1,a4,15638 <__divtf3+0x64c>
   1542c:	04812703          	lw	a4,72(sp)
   15430:	03812683          	lw	a3,56(sp)
   15434:	00d76e63          	bltu	a4,a3,15450 <__divtf3+0x464>
   15438:	20e69063          	bne	a3,a4,15638 <__divtf3+0x64c>
   1543c:	03412703          	lw	a4,52(sp)
   15440:	04412683          	lw	a3,68(sp)
   15444:	00e6e663          	bltu	a3,a4,15450 <__divtf3+0x464>
   15448:	1ee69863          	bne	a3,a4,15638 <__divtf3+0x64c>
   1544c:	1f07e663          	bltu	a5,a6,15638 <__divtf3+0x64c>
   15450:	01f79793          	slli	a5,a5,0x1f
   15454:	06f12623          	sw	a5,108(sp)
   15458:	03c10613          	addi	a2,sp,60
   1545c:	03010793          	addi	a5,sp,48
   15460:	0007a703          	lw	a4,0(a5)
   15464:	0047a683          	lw	a3,4(a5)
   15468:	00478793          	addi	a5,a5,4
   1546c:	00175713          	srli	a4,a4,0x1
   15470:	01f69693          	slli	a3,a3,0x1f
   15474:	00d76733          	or	a4,a4,a3
   15478:	fee7ae23          	sw	a4,-4(a5)
   1547c:	fef612e3          	bne	a2,a5,15460 <__divtf3+0x474>
   15480:	0014d493          	srli	s1,s1,0x1
   15484:	04010613          	addi	a2,sp,64
   15488:	04c10793          	addi	a5,sp,76
   1548c:	0007a703          	lw	a4,0(a5)
   15490:	ffc7a683          	lw	a3,-4(a5)
   15494:	ffc78793          	addi	a5,a5,-4
   15498:	00c71713          	slli	a4,a4,0xc
   1549c:	0146d693          	srli	a3,a3,0x14
   154a0:	00d76733          	or	a4,a4,a3
   154a4:	00e7a223          	sw	a4,4(a5)
   154a8:	fef612e3          	bne	a2,a5,1548c <__divtf3+0x4a0>
   154ac:	00c81813          	slli	a6,a6,0xc
   154b0:	04412f03          	lw	t5,68(sp)
   154b4:	04812283          	lw	t0,72(sp)
   154b8:	04c12303          	lw	t1,76(sp)
   154bc:	01085613          	srli	a2,a6,0x10
   154c0:	00c12a23          	sw	a2,20(sp)
   154c4:	01081613          	slli	a2,a6,0x10
   154c8:	01065613          	srli	a2,a2,0x10
   154cc:	01031793          	slli	a5,t1,0x10
   154d0:	01029713          	slli	a4,t0,0x10
   154d4:	00c12c23          	sw	a2,24(sp)
   154d8:	010f5613          	srli	a2,t5,0x10
   154dc:	0107d793          	srli	a5,a5,0x10
   154e0:	01075713          	srli	a4,a4,0x10
   154e4:	00c12e23          	sw	a2,28(sp)
   154e8:	0102d613          	srli	a2,t0,0x10
   154ec:	00f12823          	sw	a5,16(sp)
   154f0:	00e12623          	sw	a4,12(sp)
   154f4:	02c12023          	sw	a2,32(sp)
   154f8:	03812783          	lw	a5,56(sp)
   154fc:	410f0633          	sub	a2,t5,a6
   15500:	03412683          	lw	a3,52(sp)
   15504:	03012703          	lw	a4,48(sp)
   15508:	010f1d93          	slli	s11,t5,0x10
   1550c:	02c12223          	sw	a2,36(sp)
   15510:	41e28633          	sub	a2,t0,t5
   15514:	010ddd93          	srli	s11,s11,0x10
   15518:	05010993          	addi	s3,sp,80
   1551c:	06010b93          	addi	s7,sp,96
   15520:	00300c13          	addi	s8,zero,3
   15524:	01035c93          	srli	s9,t1,0x10
   15528:	00010d37          	lui	s10,0x10
   1552c:	02c12423          	sw	a2,40(sp)
   15530:	10931863          	bne	t1,s1,15640 <__divtf3+0x654>
   15534:	fff00613          	addi	a2,zero,-1
   15538:	00c9a623          	sw	a2,12(s3)
   1553c:	3c0c0863          	beq	s8,zero,1590c <__divtf3+0x920>
   15540:	00cbae83          	lw	t4,12(s7)
   15544:	02412583          	lw	a1,36(sp)
   15548:	40e808b3          	sub	a7,a6,a4
   1554c:	01d03fb3          	sltu	t6,zero,t4
   15550:	41f88e33          	sub	t3,a7,t6
   15554:	00e58733          	add	a4,a1,a4
   15558:	01d80eb3          	add	t4,a6,t4
   1555c:	41ee0e33          	sub	t3,t3,t5
   15560:	0018b613          	sltiu	a2,a7,1
   15564:	01d833b3          	sltu	t2,a6,t4
   15568:	01f70733          	add	a4,a4,t6
   1556c:	001e3e13          	sltiu	t3,t3,1
   15570:	00cff633          	and	a2,t6,a2
   15574:	01c3fe33          	and	t3,t2,t3
   15578:	40770fb3          	sub	t6,a4,t2
   1557c:	00ef3733          	sltu	a4,t5,a4
   15580:	01c765b3          	or	a1,a4,t3
   15584:	02812703          	lw	a4,40(sp)
   15588:	011838b3          	sltu	a7,a6,a7
   1558c:	00c8e8b3          	or	a7,a7,a2
   15590:	40df0633          	sub	a2,t5,a3
   15594:	00163493          	sltiu	s1,a2,1
   15598:	00d706b3          	add	a3,a4,a3
   1559c:	00cf3733          	sltu	a4,t5,a2
   155a0:	41160633          	sub	a2,a2,a7
   155a4:	0098f4b3          	and	s1,a7,s1
   155a8:	40560633          	sub	a2,a2,t0
   155ac:	011686b3          	add	a3,a3,a7
   155b0:	009764b3          	or	s1,a4,s1
   155b4:	00163613          	sltiu	a2,a2,1
   155b8:	40530733          	sub	a4,t1,t0
   155bc:	40b68a33          	sub	s4,a3,a1
   155c0:	00f70733          	add	a4,a4,a5
   155c4:	00c5f633          	and	a2,a1,a2
   155c8:	00d2b6b3          	sltu	a3,t0,a3
   155cc:	00e484b3          	add	s1,s1,a4
   155d0:	00c6e6b3          	or	a3,a3,a2
   155d4:	40d484b3          	sub	s1,s1,a3
   155d8:	04937263          	bgeu	t1,s1,1561c <__divtf3+0x630>
   155dc:	01ef86b3          	add	a3,t6,t5
   155e0:	01d80eb3          	add	t4,a6,t4
   155e4:	01f6b733          	sltu	a4,a3,t6
   155e8:	010ebfb3          	sltu	t6,t4,a6
   155ec:	01f68fb3          	add	t6,a3,t6
   155f0:	ffe00793          	addi	a5,zero,-2
   155f4:	00dfb6b3          	sltu	a3,t6,a3
   155f8:	00f9a623          	sw	a5,12(s3)
   155fc:	00d76733          	or	a4,a4,a3
   15600:	005a07b3          	add	a5,s4,t0
   15604:	0147b633          	sltu	a2,a5,s4
   15608:	00e78a33          	add	s4,a5,a4
   1560c:	00fa37b3          	sltu	a5,s4,a5
   15610:	00f667b3          	or	a5,a2,a5
   15614:	006484b3          	add	s1,s1,t1
   15618:	009784b3          	add	s1,a5,s1
   1561c:	fffc0c13          	addi	s8,s8,-1
   15620:	ffc98993          	addi	s3,s3,-4
   15624:	ffcb8b93          	addi	s7,s7,-4
   15628:	000a0793          	addi	a5,s4,0
   1562c:	000f8693          	addi	a3,t6,0
   15630:	000e8713          	addi	a4,t4,0
   15634:	efdff06f          	jal	zero,15530 <__divtf3+0x544>
   15638:	fff50513          	addi	a0,a0,-1
   1563c:	e49ff06f          	jal	zero,15484 <__divtf3+0x498>
   15640:	0394deb3          	divu	t4,s1,s9
   15644:	01012603          	lw	a2,16(sp)
   15648:	0107d593          	srli	a1,a5,0x10
   1564c:	0394f4b3          	remu	s1,s1,s9
   15650:	03d60633          	mul	a2,a2,t4
   15654:	01049493          	slli	s1,s1,0x10
   15658:	0095e4b3          	or	s1,a1,s1
   1565c:	00c4fa63          	bgeu	s1,a2,15670 <__divtf3+0x684>
   15660:	009304b3          	add	s1,t1,s1
   15664:	00c4f463          	bgeu	s1,a2,1566c <__divtf3+0x680>
   15668:	3c64fe63          	bgeu	s1,t1,15a44 <__divtf3+0xa58>
   1566c:	fffe8e93          	addi	t4,t4,-1
   15670:	40c484b3          	sub	s1,s1,a2
   15674:	0394d633          	divu	a2,s1,s9
   15678:	01012583          	lw	a1,16(sp)
   1567c:	01079793          	slli	a5,a5,0x10
   15680:	0107d793          	srli	a5,a5,0x10
   15684:	0394f4b3          	remu	s1,s1,s9
   15688:	02c585b3          	mul	a1,a1,a2
   1568c:	01049493          	slli	s1,s1,0x10
   15690:	0097e7b3          	or	a5,a5,s1
   15694:	00b7fa63          	bgeu	a5,a1,156a8 <__divtf3+0x6bc>
   15698:	00f307b3          	add	a5,t1,a5
   1569c:	0067e463          	bltu	a5,t1,156a4 <__divtf3+0x6b8>
   156a0:	3ab7e863          	bltu	a5,a1,15a50 <__divtf3+0xa64>
   156a4:	fff60613          	addi	a2,a2,-1
   156a8:	010e9e93          	slli	t4,t4,0x10
   156ac:	00ceeeb3          	or	t4,t4,a2
   156b0:	40b787b3          	sub	a5,a5,a1
   156b4:	01812583          	lw	a1,24(sp)
   156b8:	010e9613          	slli	a2,t4,0x10
   156bc:	010edf93          	srli	t6,t4,0x10
   156c0:	01065613          	srli	a2,a2,0x10
   156c4:	02c588b3          	mul	a7,a1,a2
   156c8:	01d9a623          	sw	t4,12(s3)
   156cc:	02bf83b3          	mul	t2,t6,a1
   156d0:	01412583          	lw	a1,20(sp)
   156d4:	0108d493          	srli	s1,a7,0x10
   156d8:	02bf8e33          	mul	t3,t6,a1
   156dc:	02c585b3          	mul	a1,a1,a2
   156e0:	007585b3          	add	a1,a1,t2
   156e4:	00b485b3          	add	a1,s1,a1
   156e8:	0075f463          	bgeu	a1,t2,156f0 <__divtf3+0x704>
   156ec:	01ae0e33          	add	t3,t3,s10
   156f0:	01089893          	slli	a7,a7,0x10
   156f4:	0105d393          	srli	t2,a1,0x10
   156f8:	0108d893          	srli	a7,a7,0x10
   156fc:	01059593          	slli	a1,a1,0x10
   15700:	011585b3          	add	a1,a1,a7
   15704:	01c12883          	lw	a7,28(sp)
   15708:	02cd84b3          	mul	s1,s11,a2
   1570c:	01c383b3          	add	t2,t2,t3
   15710:	031f8a33          	mul	s4,t6,a7
   15714:	0104da93          	srli	s5,s1,0x10
   15718:	03bf8e33          	mul	t3,t6,s11
   1571c:	02c888b3          	mul	a7,a7,a2
   15720:	01c888b3          	add	a7,a7,t3
   15724:	011a88b3          	add	a7,s5,a7
   15728:	01c8f463          	bgeu	a7,t3,15730 <__divtf3+0x744>
   1572c:	01aa0a33          	add	s4,s4,s10
   15730:	01049493          	slli	s1,s1,0x10
   15734:	01089e13          	slli	t3,a7,0x10
   15738:	0104d493          	srli	s1,s1,0x10
   1573c:	009e0e33          	add	t3,t3,s1
   15740:	01c38e33          	add	t3,t2,t3
   15744:	007e33b3          	sltu	t2,t3,t2
   15748:	0108d893          	srli	a7,a7,0x10
   1574c:	007888b3          	add	a7,a7,t2
   15750:	014883b3          	add	t2,a7,s4
   15754:	02012a03          	lw	s4,32(sp)
   15758:	00c12883          	lw	a7,12(sp)
   1575c:	02c884b3          	mul	s1,a7,a2
   15760:	031f88b3          	mul	a7,t6,a7
   15764:	02ca0633          	mul	a2,s4,a2
   15768:	034f8fb3          	mul	t6,t6,s4
   1576c:	01160633          	add	a2,a2,a7
   15770:	0104da13          	srli	s4,s1,0x10
   15774:	00ca0633          	add	a2,s4,a2
   15778:	01167463          	bgeu	a2,a7,15780 <__divtf3+0x794>
   1577c:	01af8fb3          	add	t6,t6,s10
   15780:	01049493          	slli	s1,s1,0x10
   15784:	01061893          	slli	a7,a2,0x10
   15788:	0104d493          	srli	s1,s1,0x10
   1578c:	009888b3          	add	a7,a7,s1
   15790:	011388b3          	add	a7,t2,a7
   15794:	01065613          	srli	a2,a2,0x10
   15798:	0078b3b3          	sltu	t2,a7,t2
   1579c:	00760633          	add	a2,a2,t2
   157a0:	01f60633          	add	a2,a2,t6
   157a4:	00cba483          	lw	s1,12(s7)
   157a8:	00c7ee63          	bltu	a5,a2,157c4 <__divtf3+0x7d8>
   157ac:	0ef61063          	bne	a2,a5,1588c <__divtf3+0x8a0>
   157b0:	0116ea63          	bltu	a3,a7,157c4 <__divtf3+0x7d8>
   157b4:	0cd89c63          	bne	a7,a3,1588c <__divtf3+0x8a0>
   157b8:	01c76663          	bltu	a4,t3,157c4 <__divtf3+0x7d8>
   157bc:	0cee1863          	bne	t3,a4,1588c <__divtf3+0x8a0>
   157c0:	0cb4f663          	bgeu	s1,a1,1588c <__divtf3+0x8a0>
   157c4:	fffe8f93          	addi	t6,t4,-1
   157c8:	00980a33          	add	s4,a6,s1
   157cc:	00ef0ab3          	add	s5,t5,a4
   157d0:	01f9a623          	sw	t6,12(s3)
   157d4:	010a3fb3          	sltu	t6,s4,a6
   157d8:	01fa83b3          	add	t2,s5,t6
   157dc:	03f12623          	sw	t6,44(sp)
   157e0:	01eabfb3          	sltu	t6,s5,t5
   157e4:	0153bab3          	sltu	s5,t2,s5
   157e8:	00d28b33          	add	s6,t0,a3
   157ec:	015fefb3          	or	t6,t6,s5
   157f0:	01fb0fb3          	add	t6,s6,t6
   157f4:	005b3ab3          	sltu	s5,s6,t0
   157f8:	016fbb33          	sltu	s6,t6,s6
   157fc:	016aeab3          	or	s5,s5,s6
   15800:	006a8ab3          	add	s5,s5,t1
   15804:	015787b3          	add	a5,a5,s5
   15808:	000a0493          	addi	s1,s4,0
   1580c:	00038713          	addi	a4,t2,0
   15810:	000f8693          	addi	a3,t6,0
   15814:	00f36e63          	bltu	t1,a5,15830 <__divtf3+0x844>
   15818:	06f31a63          	bne	t1,a5,1588c <__divtf3+0x8a0>
   1581c:	01f2ea63          	bltu	t0,t6,15830 <__divtf3+0x844>
   15820:	07f29663          	bne	t0,t6,1588c <__divtf3+0x8a0>
   15824:	007f6663          	bltu	t5,t2,15830 <__divtf3+0x844>
   15828:	070a6263          	bltu	s4,a6,1588c <__divtf3+0x8a0>
   1582c:	067f1063          	bne	t5,t2,1588c <__divtf3+0x8a0>
   15830:	00c7ee63          	bltu	a5,a2,1584c <__divtf3+0x860>
   15834:	04f61c63          	bne	a2,a5,1588c <__divtf3+0x8a0>
   15838:	011fea63          	bltu	t6,a7,1584c <__divtf3+0x860>
   1583c:	051f9863          	bne	t6,a7,1588c <__divtf3+0x8a0>
   15840:	01c3e663          	bltu	t2,t3,1584c <__divtf3+0x860>
   15844:	05c39463          	bne	t2,t3,1588c <__divtf3+0x8a0>
   15848:	04ba7263          	bgeu	s4,a1,1588c <__divtf3+0x8a0>
   1584c:	014804b3          	add	s1,a6,s4
   15850:	007f03b3          	add	t2,t5,t2
   15854:	0104b733          	sltu	a4,s1,a6
   15858:	00e38733          	add	a4,t2,a4
   1585c:	01e3b6b3          	sltu	a3,t2,t5
   15860:	007733b3          	sltu	t2,a4,t2
   15864:	01f28fb3          	add	t6,t0,t6
   15868:	0076e6b3          	or	a3,a3,t2
   1586c:	ffee8e93          	addi	t4,t4,-2
   15870:	00df86b3          	add	a3,t6,a3
   15874:	01d9a623          	sw	t4,12(s3)
   15878:	005fbeb3          	sltu	t4,t6,t0
   1587c:	01f6bfb3          	sltu	t6,a3,t6
   15880:	01feeeb3          	or	t4,t4,t6
   15884:	006e8eb3          	add	t4,t4,t1
   15888:	01d787b3          	add	a5,a5,t4
   1588c:	40b483b3          	sub	t2,s1,a1
   15890:	40ee0ab3          	sub	s5,t3,a4
   15894:	41c70a33          	sub	s4,a4,t3
   15898:	0074b4b3          	sltu	s1,s1,t2
   1589c:	001aba93          	sltiu	s5,s5,1
   158a0:	409a0fb3          	sub	t6,s4,s1
   158a4:	01473a33          	sltu	s4,a4,s4
   158a8:	0154f4b3          	and	s1,s1,s5
   158ac:	41168733          	sub	a4,a3,a7
   158b0:	009a64b3          	or	s1,s4,s1
   158b4:	00173a93          	sltiu	s5,a4,1
   158b8:	40970a33          	sub	s4,a4,s1
   158bc:	0154f4b3          	and	s1,s1,s5
   158c0:	00e6b733          	sltu	a4,a3,a4
   158c4:	40c787b3          	sub	a5,a5,a2
   158c8:	00976733          	or	a4,a4,s1
   158cc:	00038e93          	addi	t4,t2,0
   158d0:	40e784b3          	sub	s1,a5,a4
   158d4:	d40c14e3          	bne	s8,zero,1561c <__divtf3+0x630>
   158d8:	407585b3          	sub	a1,a1,t2
   158dc:	41cf8e33          	sub	t3,t6,t3
   158e0:	00b035b3          	sltu	a1,zero,a1
   158e4:	01c03e33          	sltu	t3,zero,t3
   158e8:	411a08b3          	sub	a7,s4,a7
   158ec:	01c5e5b3          	or	a1,a1,t3
   158f0:	011038b3          	sltu	a7,zero,a7
   158f4:	00b8e8b3          	or	a7,a7,a1
   158f8:	00089463          	bne	a7,zero,15900 <__divtf3+0x914>
   158fc:	00960863          	beq	a2,s1,1590c <__divtf3+0x920>
   15900:	05012783          	lw	a5,80(sp)
   15904:	0017e793          	ori	a5,a5,1
   15908:	04f12823          	sw	a5,80(sp)
   1590c:	000047b7          	lui	a5,0x4
   15910:	fff78793          	addi	a5,a5,-1 # 3fff <exit-0xc0b5>
   15914:	00f507b3          	add	a5,a0,a5
   15918:	1af05e63          	bge	zero,a5,15ad4 <__divtf3+0xae8>
   1591c:	05012703          	lw	a4,80(sp)
   15920:	00777693          	andi	a3,a4,7
   15924:	04068663          	beq	a3,zero,15970 <__divtf3+0x984>
   15928:	00f77693          	andi	a3,a4,15
   1592c:	00400613          	addi	a2,zero,4
   15930:	04c68063          	beq	a3,a2,15970 <__divtf3+0x984>
   15934:	00c706b3          	add	a3,a4,a2
   15938:	ffc73713          	sltiu	a4,a4,-4
   1593c:	04d12823          	sw	a3,80(sp)
   15940:	00173693          	sltiu	a3,a4,1
   15944:	05412703          	lw	a4,84(sp)
   15948:	00e68733          	add	a4,a3,a4
   1594c:	04e12a23          	sw	a4,84(sp)
   15950:	00d73733          	sltu	a4,a4,a3
   15954:	05812683          	lw	a3,88(sp)
   15958:	00e68733          	add	a4,a3,a4
   1595c:	04e12c23          	sw	a4,88(sp)
   15960:	00d73733          	sltu	a4,a4,a3
   15964:	05c12683          	lw	a3,92(sp)
   15968:	00d70733          	add	a4,a4,a3
   1596c:	04e12e23          	sw	a4,92(sp)
   15970:	05c12703          	lw	a4,92(sp)
   15974:	00b71693          	slli	a3,a4,0xb
   15978:	0006de63          	bge	a3,zero,15994 <__divtf3+0x9a8>
   1597c:	fff007b7          	lui	a5,0xfff00
   15980:	fff78793          	addi	a5,a5,-1 # ffefffff <__BSS_END__+0xffee403f>
   15984:	00f77733          	and	a4,a4,a5
   15988:	000047b7          	lui	a5,0x4
   1598c:	04e12e23          	sw	a4,92(sp)
   15990:	00f507b3          	add	a5,a0,a5
   15994:	05010693          	addi	a3,sp,80
   15998:	05c10513          	addi	a0,sp,92
   1599c:	0006a603          	lw	a2,0(a3)
   159a0:	0046a583          	lw	a1,4(a3)
   159a4:	00468693          	addi	a3,a3,4
   159a8:	00365613          	srli	a2,a2,0x3
   159ac:	01d59593          	slli	a1,a1,0x1d
   159b0:	00b66633          	or	a2,a2,a1
   159b4:	fec6ae23          	sw	a2,-4(a3)
   159b8:	fea692e3          	bne	a3,a0,1599c <__divtf3+0x9b0>
   159bc:	000086b7          	lui	a3,0x8
   159c0:	ffe68693          	addi	a3,a3,-2 # 7ffe <exit-0x80b6>
   159c4:	2ef6c663          	blt	a3,a5,15cb0 <__divtf3+0xcc4>
   159c8:	00375713          	srli	a4,a4,0x3
   159cc:	04e12e23          	sw	a4,92(sp)
   159d0:	00f91913          	slli	s2,s2,0xf
   159d4:	00f96933          	or	s2,s2,a5
   159d8:	05012783          	lw	a5,80(sp)
   159dc:	05c12703          	lw	a4,92(sp)
   159e0:	07211723          	sh	s2,110(sp)
   159e4:	00f42023          	sw	a5,0(s0)
   159e8:	05412783          	lw	a5,84(sp)
   159ec:	06e11623          	sh	a4,108(sp)
   159f0:	0ac12083          	lw	ra,172(sp)
   159f4:	00f42223          	sw	a5,4(s0)
   159f8:	05812783          	lw	a5,88(sp)
   159fc:	00040513          	addi	a0,s0,0
   15a00:	0a412483          	lw	s1,164(sp)
   15a04:	00f42423          	sw	a5,8(s0)
   15a08:	06c12783          	lw	a5,108(sp)
   15a0c:	0a012903          	lw	s2,160(sp)
   15a10:	09c12983          	lw	s3,156(sp)
   15a14:	00f42623          	sw	a5,12(s0)
   15a18:	0a812403          	lw	s0,168(sp)
   15a1c:	09812a03          	lw	s4,152(sp)
   15a20:	09412a83          	lw	s5,148(sp)
   15a24:	09012b03          	lw	s6,144(sp)
   15a28:	08c12b83          	lw	s7,140(sp)
   15a2c:	08812c03          	lw	s8,136(sp)
   15a30:	08412c83          	lw	s9,132(sp)
   15a34:	08012d03          	lw	s10,128(sp)
   15a38:	07c12d83          	lw	s11,124(sp)
   15a3c:	0b010113          	addi	sp,sp,176
   15a40:	00008067          	jalr	zero,0(ra)
   15a44:	ffee8e93          	addi	t4,t4,-2
   15a48:	006484b3          	add	s1,s1,t1
   15a4c:	c25ff06f          	jal	zero,15670 <__divtf3+0x684>
   15a50:	ffe60613          	addi	a2,a2,-2
   15a54:	006787b3          	add	a5,a5,t1
   15a58:	c51ff06f          	jal	zero,156a8 <__divtf3+0x6bc>
   15a5c:	03012783          	lw	a5,48(sp)
   15a60:	00098913          	addi	s2,s3,0
   15a64:	000a0713          	addi	a4,s4,0
   15a68:	04f12823          	sw	a5,80(sp)
   15a6c:	03412783          	lw	a5,52(sp)
   15a70:	04f12a23          	sw	a5,84(sp)
   15a74:	03812783          	lw	a5,56(sp)
   15a78:	04f12c23          	sw	a5,88(sp)
   15a7c:	03c12783          	lw	a5,60(sp)
   15a80:	04f12e23          	sw	a5,92(sp)
   15a84:	00200793          	addi	a5,zero,2
   15a88:	22f70463          	beq	a4,a5,15cb0 <__divtf3+0xcc4>
   15a8c:	00300793          	addi	a5,zero,3
   15a90:	22f70e63          	beq	a4,a5,15ccc <__divtf3+0xce0>
   15a94:	00100793          	addi	a5,zero,1
   15a98:	e6f71ae3          	bne	a4,a5,1590c <__divtf3+0x920>
   15a9c:	04012e23          	sw	zero,92(sp)
   15aa0:	04012c23          	sw	zero,88(sp)
   15aa4:	04012a23          	sw	zero,84(sp)
   15aa8:	04012823          	sw	zero,80(sp)
   15aac:	1d80006f          	jal	zero,15c84 <__divtf3+0xc98>
   15ab0:	04012783          	lw	a5,64(sp)
   15ab4:	000a8913          	addi	s2,s5,0
   15ab8:	04f12823          	sw	a5,80(sp)
   15abc:	04412783          	lw	a5,68(sp)
   15ac0:	04f12a23          	sw	a5,84(sp)
   15ac4:	04812783          	lw	a5,72(sp)
   15ac8:	04f12c23          	sw	a5,88(sp)
   15acc:	04c12783          	lw	a5,76(sp)
   15ad0:	fb1ff06f          	jal	zero,15a80 <__divtf3+0xa94>
   15ad4:	06078463          	beq	a5,zero,15b3c <__divtf3+0xb50>
   15ad8:	f8d00713          	addi	a4,zero,-115
   15adc:	1ae7c863          	blt	a5,a4,15c8c <__divtf3+0xca0>
   15ae0:	00100713          	addi	a4,zero,1
   15ae4:	40f70733          	sub	a4,a4,a5
   15ae8:	05010693          	addi	a3,sp,80
   15aec:	40575613          	srai	a2,a4,0x5
   15af0:	00068513          	addi	a0,a3,0
   15af4:	01f77713          	andi	a4,a4,31
   15af8:	00000793          	addi	a5,zero,0
   15afc:	00000593          	addi	a1,zero,0
   15b00:	04c59263          	bne	a1,a2,15b44 <__divtf3+0xb58>
   15b04:	00300593          	addi	a1,zero,3
   15b08:	40c585b3          	sub	a1,a1,a2
   15b0c:	00261e13          	slli	t3,a2,0x2
   15b10:	04071463          	bne	a4,zero,15b58 <__divtf3+0xb6c>
   15b14:	00068513          	addi	a0,a3,0
   15b18:	01c50833          	add	a6,a0,t3
   15b1c:	00082803          	lw	a6,0(a6)
   15b20:	00170713          	addi	a4,a4,1
   15b24:	00450513          	addi	a0,a0,4
   15b28:	ff052e23          	sw	a6,-4(a0)
   15b2c:	fee5d6e3          	bge	a1,a4,15b18 <__divtf3+0xb2c>
   15b30:	00400713          	addi	a4,zero,4
   15b34:	40c70633          	sub	a2,a4,a2
   15b38:	05c0006f          	jal	zero,15b94 <__divtf3+0xba8>
   15b3c:	00100713          	addi	a4,zero,1
   15b40:	fa9ff06f          	jal	zero,15ae8 <__divtf3+0xafc>
   15b44:	00052803          	lw	a6,0(a0)
   15b48:	00158593          	addi	a1,a1,1
   15b4c:	00450513          	addi	a0,a0,4
   15b50:	0107e7b3          	or	a5,a5,a6
   15b54:	fadff06f          	jal	zero,15b00 <__divtf3+0xb14>
   15b58:	01c68533          	add	a0,a3,t3
   15b5c:	00052803          	lw	a6,0(a0)
   15b60:	02000893          	addi	a7,zero,32
   15b64:	40e888b3          	sub	a7,a7,a4
   15b68:	01181833          	sll	a6,a6,a7
   15b6c:	0107e7b3          	or	a5,a5,a6
   15b70:	00000313          	addi	t1,zero,0
   15b74:	02b34463          	blt	t1,a1,15b9c <__divtf3+0xbb0>
   15b78:	00400513          	addi	a0,zero,4
   15b7c:	40c50633          	sub	a2,a0,a2
   15b80:	05c12503          	lw	a0,92(sp)
   15b84:	00259593          	slli	a1,a1,0x2
   15b88:	00b685b3          	add	a1,a3,a1
   15b8c:	00e55733          	srl	a4,a0,a4
   15b90:	00e5a023          	sw	a4,0(a1)
   15b94:	00400593          	addi	a1,zero,4
   15b98:	03c0006f          	jal	zero,15bd4 <__divtf3+0xbe8>
   15b9c:	00052803          	lw	a6,0(a0)
   15ba0:	00452e83          	lw	t4,4(a0)
   15ba4:	41c50f33          	sub	t5,a0,t3
   15ba8:	00e85833          	srl	a6,a6,a4
   15bac:	011e9eb3          	sll	t4,t4,a7
   15bb0:	01d86833          	or	a6,a6,t4
   15bb4:	010f2023          	sw	a6,0(t5)
   15bb8:	00130313          	addi	t1,t1,1
   15bbc:	00450513          	addi	a0,a0,4
   15bc0:	fb5ff06f          	jal	zero,15b74 <__divtf3+0xb88>
   15bc4:	00261713          	slli	a4,a2,0x2
   15bc8:	00e68733          	add	a4,a3,a4
   15bcc:	00072023          	sw	zero,0(a4)
   15bd0:	00160613          	addi	a2,a2,1
   15bd4:	feb618e3          	bne	a2,a1,15bc4 <__divtf3+0xbd8>
   15bd8:	05012703          	lw	a4,80(sp)
   15bdc:	00f037b3          	sltu	a5,zero,a5
   15be0:	00e7e7b3          	or	a5,a5,a4
   15be4:	04f12823          	sw	a5,80(sp)
   15be8:	0077f713          	andi	a4,a5,7
   15bec:	04070463          	beq	a4,zero,15c34 <__divtf3+0xc48>
   15bf0:	00f7f713          	andi	a4,a5,15
   15bf4:	04c70063          	beq	a4,a2,15c34 <__divtf3+0xc48>
   15bf8:	00478713          	addi	a4,a5,4 # 4004 <exit-0xc0b0>
   15bfc:	04e12823          	sw	a4,80(sp)
   15c00:	05412703          	lw	a4,84(sp)
   15c04:	ffc7b793          	sltiu	a5,a5,-4
   15c08:	0017b793          	sltiu	a5,a5,1
   15c0c:	00f707b3          	add	a5,a4,a5
   15c10:	04f12a23          	sw	a5,84(sp)
   15c14:	00e7b7b3          	sltu	a5,a5,a4
   15c18:	05812703          	lw	a4,88(sp)
   15c1c:	00f707b3          	add	a5,a4,a5
   15c20:	04f12c23          	sw	a5,88(sp)
   15c24:	00e7b7b3          	sltu	a5,a5,a4
   15c28:	05c12703          	lw	a4,92(sp)
   15c2c:	00e787b3          	add	a5,a5,a4
   15c30:	04f12e23          	sw	a5,92(sp)
   15c34:	05c12703          	lw	a4,92(sp)
   15c38:	00c71793          	slli	a5,a4,0xc
   15c3c:	0007de63          	bge	a5,zero,15c58 <__divtf3+0xc6c>
   15c40:	04012e23          	sw	zero,92(sp)
   15c44:	04012c23          	sw	zero,88(sp)
   15c48:	04012a23          	sw	zero,84(sp)
   15c4c:	04012823          	sw	zero,80(sp)
   15c50:	00100793          	addi	a5,zero,1
   15c54:	d7dff06f          	jal	zero,159d0 <__divtf3+0x9e4>
   15c58:	00c68593          	addi	a1,a3,12
   15c5c:	0006a783          	lw	a5,0(a3)
   15c60:	0046a603          	lw	a2,4(a3)
   15c64:	00468693          	addi	a3,a3,4
   15c68:	0037d793          	srli	a5,a5,0x3
   15c6c:	01d61613          	slli	a2,a2,0x1d
   15c70:	00c7e7b3          	or	a5,a5,a2
   15c74:	fef6ae23          	sw	a5,-4(a3)
   15c78:	fed592e3          	bne	a1,a3,15c5c <__divtf3+0xc70>
   15c7c:	00375713          	srli	a4,a4,0x3
   15c80:	04e12e23          	sw	a4,92(sp)
   15c84:	00000793          	addi	a5,zero,0
   15c88:	d49ff06f          	jal	zero,159d0 <__divtf3+0x9e4>
   15c8c:	05412703          	lw	a4,84(sp)
   15c90:	05012783          	lw	a5,80(sp)
   15c94:	00e7e7b3          	or	a5,a5,a4
   15c98:	05812703          	lw	a4,88(sp)
   15c9c:	00e7e7b3          	or	a5,a5,a4
   15ca0:	05c12703          	lw	a4,92(sp)
   15ca4:	00e7e7b3          	or	a5,a5,a4
   15ca8:	fc078ee3          	beq	a5,zero,15c84 <__divtf3+0xc98>
   15cac:	df1ff06f          	jal	zero,15a9c <__divtf3+0xab0>
   15cb0:	000087b7          	lui	a5,0x8
   15cb4:	04012e23          	sw	zero,92(sp)
   15cb8:	04012c23          	sw	zero,88(sp)
   15cbc:	04012a23          	sw	zero,84(sp)
   15cc0:	04012823          	sw	zero,80(sp)
   15cc4:	fff78793          	addi	a5,a5,-1 # 7fff <exit-0x80b5>
   15cc8:	d09ff06f          	jal	zero,159d0 <__divtf3+0x9e4>
   15ccc:	000087b7          	lui	a5,0x8
   15cd0:	04f12e23          	sw	a5,92(sp)
   15cd4:	04012c23          	sw	zero,88(sp)
   15cd8:	04012a23          	sw	zero,84(sp)
   15cdc:	04012823          	sw	zero,80(sp)
   15ce0:	fff78793          	addi	a5,a5,-1 # 7fff <exit-0x80b5>
   15ce4:	00000913          	addi	s2,zero,0
   15ce8:	ce9ff06f          	jal	zero,159d0 <__divtf3+0x9e4>

00015cec <__letf2>:
   15cec:	00c52783          	lw	a5,12(a0)
   15cf0:	00c5a683          	lw	a3,12(a1)
   15cf4:	00008737          	lui	a4,0x8
   15cf8:	fff70713          	addi	a4,a4,-1 # 7fff <exit-0x80b5>
   15cfc:	0005a283          	lw	t0,0(a1)
   15d00:	0045a303          	lw	t1,4(a1)
   15d04:	0085a383          	lw	t2,8(a1)
   15d08:	0107d593          	srli	a1,a5,0x10
   15d0c:	01079e13          	slli	t3,a5,0x10
   15d10:	0106d613          	srli	a2,a3,0x10
   15d14:	00e5f5b3          	and	a1,a1,a4
   15d18:	00052f03          	lw	t5,0(a0)
   15d1c:	00452883          	lw	a7,4(a0)
   15d20:	00852f83          	lw	t6,8(a0)
   15d24:	ff010113          	addi	sp,sp,-16
   15d28:	010e5e13          	srli	t3,t3,0x10
   15d2c:	01f7d793          	srli	a5,a5,0x1f
   15d30:	00e67633          	and	a2,a2,a4
   15d34:	01f6de93          	srli	t4,a3,0x1f
   15d38:	00e59c63          	bne	a1,a4,15d50 <__letf2+0x64>
   15d3c:	01e8e733          	or	a4,a7,t5
   15d40:	01f76733          	or	a4,a4,t6
   15d44:	01c76733          	or	a4,a4,t3
   15d48:	00200513          	addi	a0,zero,2
   15d4c:	06071a63          	bne	a4,zero,15dc0 <__letf2+0xd4>
   15d50:	00008737          	lui	a4,0x8
   15d54:	01069693          	slli	a3,a3,0x10
   15d58:	fff70713          	addi	a4,a4,-1 # 7fff <exit-0x80b5>
   15d5c:	0106d693          	srli	a3,a3,0x10
   15d60:	00060513          	addi	a0,a2,0
   15d64:	00e61a63          	bne	a2,a4,15d78 <__letf2+0x8c>
   15d68:	00536733          	or	a4,t1,t0
   15d6c:	00776733          	or	a4,a4,t2
   15d70:	00d76733          	or	a4,a4,a3
   15d74:	04071a63          	bne	a4,zero,15dc8 <__letf2+0xdc>
   15d78:	00000713          	addi	a4,zero,0
   15d7c:	00059a63          	bne	a1,zero,15d90 <__letf2+0xa4>
   15d80:	01e8e733          	or	a4,a7,t5
   15d84:	01f76733          	or	a4,a4,t6
   15d88:	01c76733          	or	a4,a4,t3
   15d8c:	00173713          	sltiu	a4,a4,1
   15d90:	04061463          	bne	a2,zero,15dd8 <__letf2+0xec>
   15d94:	00536833          	or	a6,t1,t0
   15d98:	00786833          	or	a6,a6,t2
   15d9c:	00d86833          	or	a6,a6,a3
   15da0:	00070a63          	beq	a4,zero,15db4 <__letf2+0xc8>
   15da4:	00080e63          	beq	a6,zero,15dc0 <__letf2+0xd4>
   15da8:	001e9513          	slli	a0,t4,0x1
   15dac:	fff50513          	addi	a0,a0,-1
   15db0:	0100006f          	jal	zero,15dc0 <__letf2+0xd4>
   15db4:	02081463          	bne	a6,zero,15ddc <__letf2+0xf0>
   15db8:	40f00533          	sub	a0,zero,a5
   15dbc:	00156513          	ori	a0,a0,1
   15dc0:	01010113          	addi	sp,sp,16
   15dc4:	00008067          	jalr	zero,0(ra)
   15dc8:	00200513          	addi	a0,zero,2
   15dcc:	ff5ff06f          	jal	zero,15dc0 <__letf2+0xd4>
   15dd0:	00000513          	addi	a0,zero,0
   15dd4:	fedff06f          	jal	zero,15dc0 <__letf2+0xd4>
   15dd8:	fc0718e3          	bne	a4,zero,15da8 <__letf2+0xbc>
   15ddc:	fcfe9ee3          	bne	t4,a5,15db8 <__letf2+0xcc>
   15de0:	41d00533          	sub	a0,zero,t4
   15de4:	fcb64ce3          	blt	a2,a1,15dbc <__letf2+0xd0>
   15de8:	fcc5c0e3          	blt	a1,a2,15da8 <__letf2+0xbc>
   15dec:	fdc6e6e3          	bltu	a3,t3,15db8 <__letf2+0xcc>
   15df0:	02de1463          	bne	t3,a3,15e18 <__letf2+0x12c>
   15df4:	fdf3e2e3          	bltu	t2,t6,15db8 <__letf2+0xcc>
   15df8:	03f39063          	bne	t2,t6,15e18 <__letf2+0x12c>
   15dfc:	fb136ee3          	bltu	t1,a7,15db8 <__letf2+0xcc>
   15e00:	41130733          	sub	a4,t1,a7
   15e04:	01e2f463          	bgeu	t0,t5,15e0c <__letf2+0x120>
   15e08:	fa0708e3          	beq	a4,zero,15db8 <__letf2+0xcc>
   15e0c:	0068e663          	bltu	a7,t1,15e18 <__letf2+0x12c>
   15e10:	fc5f70e3          	bgeu	t5,t0,15dd0 <__letf2+0xe4>
   15e14:	fa071ee3          	bne	a4,zero,15dd0 <__letf2+0xe4>
   15e18:	00179513          	slli	a0,a5,0x1
   15e1c:	f91ff06f          	jal	zero,15dac <__letf2+0xc0>

00015e20 <__multf3>:
   15e20:	f5010113          	addi	sp,sp,-176
   15e24:	09412c23          	sw	s4,152(sp)
   15e28:	00c5aa03          	lw	s4,12(a1)
   15e2c:	0045a783          	lw	a5,4(a1)
   15e30:	0085a683          	lw	a3,8(a1)
   15e34:	00a12423          	sw	a0,8(sp)
   15e38:	0005a503          	lw	a0,0(a1)
   15e3c:	0b212023          	sw	s2,160(sp)
   15e40:	09512a23          	sw	s5,148(sp)
   15e44:	00c62903          	lw	s2,12(a2)
   15e48:	00462a83          	lw	s5,4(a2)
   15e4c:	09612823          	sw	s6,144(sp)
   15e50:	09712623          	sw	s7,140(sp)
   15e54:	00062b03          	lw	s6,0(a2)
   15e58:	00862b83          	lw	s7,8(a2)
   15e5c:	010a1713          	slli	a4,s4,0x10
   15e60:	00008637          	lui	a2,0x8
   15e64:	0a912223          	sw	s1,164(sp)
   15e68:	01075713          	srli	a4,a4,0x10
   15e6c:	010a5493          	srli	s1,s4,0x10
   15e70:	fff60613          	addi	a2,a2,-1 # 7fff <exit-0x80b5>
   15e74:	0a812423          	sw	s0,168(sp)
   15e78:	0a112623          	sw	ra,172(sp)
   15e7c:	09312e23          	sw	s3,156(sp)
   15e80:	09812423          	sw	s8,136(sp)
   15e84:	09912223          	sw	s9,132(sp)
   15e88:	09a12023          	sw	s10,128(sp)
   15e8c:	07b12e23          	sw	s11,124(sp)
   15e90:	04a12823          	sw	a0,80(sp)
   15e94:	04f12a23          	sw	a5,84(sp)
   15e98:	04d12c23          	sw	a3,88(sp)
   15e9c:	05412e23          	sw	s4,92(sp)
   15ea0:	02a12023          	sw	a0,32(sp)
   15ea4:	02f12223          	sw	a5,36(sp)
   15ea8:	02d12423          	sw	a3,40(sp)
   15eac:	02e12623          	sw	a4,44(sp)
   15eb0:	00c4f4b3          	and	s1,s1,a2
   15eb4:	01fa5413          	srli	s0,s4,0x1f
   15eb8:	16048ee3          	beq	s1,zero,16834 <__multf3+0xa14>
   15ebc:	28c484e3          	beq	s1,a2,16944 <__multf3+0xb24>
   15ec0:	000107b7          	lui	a5,0x10
   15ec4:	00f76733          	or	a4,a4,a5
   15ec8:	02e12623          	sw	a4,44(sp)
   15ecc:	02010613          	addi	a2,sp,32
   15ed0:	02c10793          	addi	a5,sp,44
   15ed4:	0007a703          	lw	a4,0(a5) # 10000 <exit-0xb4>
   15ed8:	ffc7a683          	lw	a3,-4(a5)
   15edc:	ffc78793          	addi	a5,a5,-4
   15ee0:	00371713          	slli	a4,a4,0x3
   15ee4:	01d6d693          	srli	a3,a3,0x1d
   15ee8:	00d76733          	or	a4,a4,a3
   15eec:	00e7a223          	sw	a4,4(a5)
   15ef0:	fef612e3          	bne	a2,a5,15ed4 <__multf3+0xb4>
   15ef4:	ffffc7b7          	lui	a5,0xffffc
   15ef8:	00351513          	slli	a0,a0,0x3
   15efc:	00178793          	addi	a5,a5,1 # ffffc001 <__BSS_END__+0xfffe0041>
   15f00:	02a12023          	sw	a0,32(sp)
   15f04:	00f484b3          	add	s1,s1,a5
   15f08:	00000993          	addi	s3,zero,0
   15f0c:	01091513          	slli	a0,s2,0x10
   15f10:	00008737          	lui	a4,0x8
   15f14:	01095793          	srli	a5,s2,0x10
   15f18:	01055513          	srli	a0,a0,0x10
   15f1c:	fff70713          	addi	a4,a4,-1 # 7fff <exit-0x80b5>
   15f20:	05212e23          	sw	s2,92(sp)
   15f24:	05612823          	sw	s6,80(sp)
   15f28:	05512a23          	sw	s5,84(sp)
   15f2c:	05712c23          	sw	s7,88(sp)
   15f30:	03612823          	sw	s6,48(sp)
   15f34:	03512a23          	sw	s5,52(sp)
   15f38:	03712c23          	sw	s7,56(sp)
   15f3c:	02a12e23          	sw	a0,60(sp)
   15f40:	00e7f7b3          	and	a5,a5,a4
   15f44:	01f95913          	srli	s2,s2,0x1f
   15f48:	220782e3          	beq	a5,zero,1696c <__multf3+0xb4c>
   15f4c:	32e78ae3          	beq	a5,a4,16a80 <__multf3+0xc60>
   15f50:	00010737          	lui	a4,0x10
   15f54:	00e56533          	or	a0,a0,a4
   15f58:	02a12e23          	sw	a0,60(sp)
   15f5c:	03010593          	addi	a1,sp,48
   15f60:	03c10713          	addi	a4,sp,60
   15f64:	00072683          	lw	a3,0(a4) # 10000 <exit-0xb4>
   15f68:	ffc72603          	lw	a2,-4(a4)
   15f6c:	ffc70713          	addi	a4,a4,-4
   15f70:	00369693          	slli	a3,a3,0x3
   15f74:	01d65613          	srli	a2,a2,0x1d
   15f78:	00c6e6b3          	or	a3,a3,a2
   15f7c:	00d72223          	sw	a3,4(a4)
   15f80:	fee592e3          	bne	a1,a4,15f64 <__multf3+0x144>
   15f84:	ffffc737          	lui	a4,0xffffc
   15f88:	003b1b13          	slli	s6,s6,0x3
   15f8c:	00170713          	addi	a4,a4,1 # ffffc001 <__BSS_END__+0xfffe0041>
   15f90:	03612823          	sw	s6,48(sp)
   15f94:	00e787b3          	add	a5,a5,a4
   15f98:	00000713          	addi	a4,zero,0
   15f9c:	009787b3          	add	a5,a5,s1
   15fa0:	00f12823          	sw	a5,16(sp)
   15fa4:	00178793          	addi	a5,a5,1
   15fa8:	00f12623          	sw	a5,12(sp)
   15fac:	00299793          	slli	a5,s3,0x2
   15fb0:	00e7e7b3          	or	a5,a5,a4
   15fb4:	00a00693          	addi	a3,zero,10
   15fb8:	32f6c0e3          	blt	a3,a5,16ad8 <__multf3+0xcb8>
   15fbc:	00200613          	addi	a2,zero,2
   15fc0:	01244433          	xor	s0,s0,s2
   15fc4:	00100693          	addi	a3,zero,1
   15fc8:	2cf64ae3          	blt	a2,a5,16a9c <__multf3+0xc7c>
   15fcc:	fff78793          	addi	a5,a5,-1
   15fd0:	30f6fee3          	bgeu	a3,a5,16aec <__multf3+0xccc>
   15fd4:	02012803          	lw	a6,32(sp)
   15fd8:	03012e03          	lw	t3,48(sp)
   15fdc:	01085993          	srli	s3,a6,0x10
   15fe0:	010e5693          	srli	a3,t3,0x10
   15fe4:	01081813          	slli	a6,a6,0x10
   15fe8:	010e1e13          	slli	t3,t3,0x10
   15fec:	01085813          	srli	a6,a6,0x10
   15ff0:	010e5e13          	srli	t3,t3,0x10
   15ff4:	030e0633          	mul	a2,t3,a6
   15ff8:	03c985b3          	mul	a1,s3,t3
   15ffc:	01065793          	srli	a5,a2,0x10
   16000:	03068733          	mul	a4,a3,a6
   16004:	00b70733          	add	a4,a4,a1
   16008:	00e787b3          	add	a5,a5,a4
   1600c:	02d98c33          	mul	s8,s3,a3
   16010:	00b7f663          	bgeu	a5,a1,1601c <__multf3+0x1fc>
   16014:	00010737          	lui	a4,0x10
   16018:	00ec0c33          	add	s8,s8,a4
   1601c:	03412303          	lw	t1,52(sp)
   16020:	01061613          	slli	a2,a2,0x10
   16024:	01065613          	srli	a2,a2,0x10
   16028:	01035493          	srli	s1,t1,0x10
   1602c:	0107d713          	srli	a4,a5,0x10
   16030:	01031313          	slli	t1,t1,0x10
   16034:	01079793          	slli	a5,a5,0x10
   16038:	00c787b3          	add	a5,a5,a2
   1603c:	01035313          	srli	t1,t1,0x10
   16040:	026985b3          	mul	a1,s3,t1
   16044:	00f12a23          	sw	a5,20(sp)
   16048:	04f12823          	sw	a5,80(sp)
   1604c:	03048633          	mul	a2,s1,a6
   16050:	030307b3          	mul	a5,t1,a6
   16054:	00b60633          	add	a2,a2,a1
   16058:	0107df13          	srli	t5,a5,0x10
   1605c:	00cf0f33          	add	t5,t5,a2
   16060:	02998bb3          	mul	s7,s3,s1
   16064:	00bf7663          	bgeu	t5,a1,16070 <__multf3+0x250>
   16068:	00010637          	lui	a2,0x10
   1606c:	00cb8bb3          	add	s7,s7,a2
   16070:	02412503          	lw	a0,36(sp)
   16074:	01079793          	slli	a5,a5,0x10
   16078:	0107d793          	srli	a5,a5,0x10
   1607c:	01055913          	srli	s2,a0,0x10
   16080:	01051513          	slli	a0,a0,0x10
   16084:	01055513          	srli	a0,a0,0x10
   16088:	010f5613          	srli	a2,t5,0x10
   1608c:	010f1f13          	slli	t5,t5,0x10
   16090:	00ff0f33          	add	t5,t5,a5
   16094:	03c90fb3          	mul	t6,s2,t3
   16098:	01e70733          	add	a4,a4,t5
   1609c:	03c507b3          	mul	a5,a0,t3
   160a0:	02a688b3          	mul	a7,a3,a0
   160a4:	0107de93          	srli	t4,a5,0x10
   160a8:	01f888b3          	add	a7,a7,t6
   160ac:	011e8eb3          	add	t4,t4,a7
   160b0:	032685b3          	mul	a1,a3,s2
   160b4:	01fef663          	bgeu	t4,t6,160c0 <__multf3+0x2a0>
   160b8:	000108b7          	lui	a7,0x10
   160bc:	011585b3          	add	a1,a1,a7
   160c0:	010eda93          	srli	s5,t4,0x10
   160c4:	00ba8ab3          	add	s5,s5,a1
   160c8:	01079793          	slli	a5,a5,0x10
   160cc:	0107d793          	srli	a5,a5,0x10
   160d0:	010e9e93          	slli	t4,t4,0x10
   160d4:	00fe8eb3          	add	t4,t4,a5
   160d8:	02a305b3          	mul	a1,t1,a0
   160dc:	026908b3          	mul	a7,s2,t1
   160e0:	0105d793          	srli	a5,a1,0x10
   160e4:	02a482b3          	mul	t0,s1,a0
   160e8:	011282b3          	add	t0,t0,a7
   160ec:	005787b3          	add	a5,a5,t0
   160f0:	03248fb3          	mul	t6,s1,s2
   160f4:	0117f663          	bgeu	a5,a7,16100 <__multf3+0x2e0>
   160f8:	000108b7          	lui	a7,0x10
   160fc:	011f8fb3          	add	t6,t6,a7
   16100:	0107d893          	srli	a7,a5,0x10
   16104:	01f888b3          	add	a7,a7,t6
   16108:	01112c23          	sw	a7,24(sp)
   1610c:	03812883          	lw	a7,56(sp)
   16110:	01059593          	slli	a1,a1,0x10
   16114:	0105d593          	srli	a1,a1,0x10
   16118:	0108d293          	srli	t0,a7,0x10
   1611c:	01079793          	slli	a5,a5,0x10
   16120:	01089893          	slli	a7,a7,0x10
   16124:	00b787b3          	add	a5,a5,a1
   16128:	0108d893          	srli	a7,a7,0x10
   1612c:	030885b3          	mul	a1,a7,a6
   16130:	00f12e23          	sw	a5,28(sp)
   16134:	031983b3          	mul	t2,s3,a7
   16138:	0105da13          	srli	s4,a1,0x10
   1613c:	030287b3          	mul	a5,t0,a6
   16140:	007787b3          	add	a5,a5,t2
   16144:	00fa07b3          	add	a5,s4,a5
   16148:	02598fb3          	mul	t6,s3,t0
   1614c:	0077f663          	bgeu	a5,t2,16158 <__multf3+0x338>
   16150:	000103b7          	lui	t2,0x10
   16154:	007f8fb3          	add	t6,t6,t2
   16158:	01059593          	slli	a1,a1,0x10
   1615c:	0107da13          	srli	s4,a5,0x10
   16160:	0105d593          	srli	a1,a1,0x10
   16164:	01079793          	slli	a5,a5,0x10
   16168:	00b787b3          	add	a5,a5,a1
   1616c:	02812583          	lw	a1,40(sp)
   16170:	01fa0a33          	add	s4,s4,t6
   16174:	0105d393          	srli	t2,a1,0x10
   16178:	01059593          	slli	a1,a1,0x10
   1617c:	0105d593          	srli	a1,a1,0x10
   16180:	03c58fb3          	mul	t6,a1,t3
   16184:	03c38d33          	mul	s10,t2,t3
   16188:	010fdd93          	srli	s11,t6,0x10
   1618c:	02b68b33          	mul	s6,a3,a1
   16190:	01ab0b33          	add	s6,s6,s10
   16194:	016d8b33          	add	s6,s11,s6
   16198:	02768cb3          	mul	s9,a3,t2
   1619c:	01ab7663          	bgeu	s6,s10,161a8 <__multf3+0x388>
   161a0:	00010d37          	lui	s10,0x10
   161a4:	01ac8cb3          	add	s9,s9,s10
   161a8:	00ec0733          	add	a4,s8,a4
   161ac:	01e73f33          	sltu	t5,a4,t5
   161b0:	01e60633          	add	a2,a2,t5
   161b4:	01760633          	add	a2,a2,s7
   161b8:	01d70eb3          	add	t4,a4,t4
   161bc:	01560ab3          	add	s5,a2,s5
   161c0:	010f9f93          	slli	t6,t6,0x10
   161c4:	00eeb733          	sltu	a4,t4,a4
   161c8:	00ea8733          	add	a4,s5,a4
   161cc:	010b5d13          	srli	s10,s6,0x10
   161d0:	010fdf93          	srli	t6,t6,0x10
   161d4:	010b1b13          	slli	s6,s6,0x10
   161d8:	01fb0fb3          	add	t6,s6,t6
   161dc:	00cabb33          	sltu	s6,s5,a2
   161e0:	01573ab3          	sltu	s5,a4,s5
   161e4:	01e63633          	sltu	a2,a2,t5
   161e8:	01c12f03          	lw	t5,28(sp)
   161ec:	015b6b33          	or	s6,s6,s5
   161f0:	01812a83          	lw	s5,24(sp)
   161f4:	00cb0633          	add	a2,s6,a2
   161f8:	01e70f33          	add	t5,a4,t5
   161fc:	01560ab3          	add	s5,a2,s5
   16200:	00ef3733          	sltu	a4,t5,a4
   16204:	00ea8733          	add	a4,s5,a4
   16208:	00ff07b3          	add	a5,t5,a5
   1620c:	01470a33          	add	s4,a4,s4
   16210:	01e7bf33          	sltu	t5,a5,t5
   16214:	01ea0f33          	add	t5,s4,t5
   16218:	00cab633          	sltu	a2,s5,a2
   1621c:	01573ab3          	sltu	s5,a4,s5
   16220:	00ea3733          	sltu	a4,s4,a4
   16224:	014f3a33          	sltu	s4,t5,s4
   16228:	01476733          	or	a4,a4,s4
   1622c:	03c12a03          	lw	s4,60(sp)
   16230:	01566633          	or	a2,a2,s5
   16234:	00e60633          	add	a2,a2,a4
   16238:	010a5a93          	srli	s5,s4,0x10
   1623c:	010a1a13          	slli	s4,s4,0x10
   16240:	010a5a13          	srli	s4,s4,0x10
   16244:	030a0733          	mul	a4,s4,a6
   16248:	01f78fb3          	add	t6,a5,t6
   1624c:	019d0cb3          	add	s9,s10,s9
   16250:	019f0cb3          	add	s9,t5,s9
   16254:	00ffb7b3          	sltu	a5,t6,a5
   16258:	00fc87b3          	add	a5,s9,a5
   1625c:	01ecbf33          	sltu	t5,s9,t5
   16260:	0197bcb3          	sltu	s9,a5,s9
   16264:	019f6f33          	or	t5,t5,s9
   16268:	00cf0f33          	add	t5,t5,a2
   1626c:	03498b33          	mul	s6,s3,s4
   16270:	01075613          	srli	a2,a4,0x10
   16274:	05d12a23          	sw	t4,84(sp)
   16278:	05f12c23          	sw	t6,88(sp)
   1627c:	030a8833          	mul	a6,s5,a6
   16280:	01680833          	add	a6,a6,s6
   16284:	01060633          	add	a2,a2,a6
   16288:	035989b3          	mul	s3,s3,s5
   1628c:	01667663          	bgeu	a2,s6,16298 <__multf3+0x478>
   16290:	00010837          	lui	a6,0x10
   16294:	010989b3          	add	s3,s3,a6
   16298:	02c12b03          	lw	s6,44(sp)
   1629c:	01065813          	srli	a6,a2,0x10
   162a0:	013809b3          	add	s3,a6,s3
   162a4:	01071713          	slli	a4,a4,0x10
   162a8:	010b5813          	srli	a6,s6,0x10
   162ac:	010b1b13          	slli	s6,s6,0x10
   162b0:	01075713          	srli	a4,a4,0x10
   162b4:	010b5b13          	srli	s6,s6,0x10
   162b8:	01061613          	slli	a2,a2,0x10
   162bc:	03068bb3          	mul	s7,a3,a6
   162c0:	00e60633          	add	a2,a2,a4
   162c4:	036686b3          	mul	a3,a3,s6
   162c8:	03cb0733          	mul	a4,s6,t3
   162cc:	03c80e33          	mul	t3,a6,t3
   162d0:	01075c13          	srli	s8,a4,0x10
   162d4:	01c686b3          	add	a3,a3,t3
   162d8:	00dc06b3          	add	a3,s8,a3
   162dc:	01c6f663          	bgeu	a3,t3,162e8 <__multf3+0x4c8>
   162e0:	00010e37          	lui	t3,0x10
   162e4:	01cb8bb3          	add	s7,s7,t3
   162e8:	0106de13          	srli	t3,a3,0x10
   162ec:	01071713          	slli	a4,a4,0x10
   162f0:	017e0e33          	add	t3,t3,s7
   162f4:	01069693          	slli	a3,a3,0x10
   162f8:	01075713          	srli	a4,a4,0x10
   162fc:	00e68db3          	add	s11,a3,a4
   16300:	01c12c23          	sw	t3,24(sp)
   16304:	031506b3          	mul	a3,a0,a7
   16308:	03190e33          	mul	t3,s2,a7
   1630c:	0106dc13          	srli	s8,a3,0x10
   16310:	02a28733          	mul	a4,t0,a0
   16314:	01c70733          	add	a4,a4,t3
   16318:	00ec0733          	add	a4,s8,a4
   1631c:	02590bb3          	mul	s7,s2,t0
   16320:	01c77663          	bgeu	a4,t3,1632c <__multf3+0x50c>
   16324:	00010e37          	lui	t3,0x10
   16328:	01cb8bb3          	add	s7,s7,t3
   1632c:	01069693          	slli	a3,a3,0x10
   16330:	01075e13          	srli	t3,a4,0x10
   16334:	0106d693          	srli	a3,a3,0x10
   16338:	01071713          	slli	a4,a4,0x10
   1633c:	017e0e33          	add	t3,t3,s7
   16340:	00d70733          	add	a4,a4,a3
   16344:	02638c33          	mul	s8,t2,t1
   16348:	02b306b3          	mul	a3,t1,a1
   1634c:	02b48bb3          	mul	s7,s1,a1
   16350:	0106dd13          	srli	s10,a3,0x10
   16354:	018b8bb3          	add	s7,s7,s8
   16358:	017d0bb3          	add	s7,s10,s7
   1635c:	02748cb3          	mul	s9,s1,t2
   16360:	018bf663          	bgeu	s7,s8,1636c <__multf3+0x54c>
   16364:	00010c37          	lui	s8,0x10
   16368:	018c8cb3          	add	s9,s9,s8
   1636c:	010bdc13          	srli	s8,s7,0x10
   16370:	00c78633          	add	a2,a5,a2
   16374:	019c0c33          	add	s8,s8,s9
   16378:	01069693          	slli	a3,a3,0x10
   1637c:	01812c83          	lw	s9,24(sp)
   16380:	013f09b3          	add	s3,t5,s3
   16384:	010b9b93          	slli	s7,s7,0x10
   16388:	00f637b3          	sltu	a5,a2,a5
   1638c:	0106d693          	srli	a3,a3,0x10
   16390:	00f987b3          	add	a5,s3,a5
   16394:	00db86b3          	add	a3,s7,a3
   16398:	01b60bb3          	add	s7,a2,s11
   1639c:	01978cb3          	add	s9,a5,s9
   163a0:	00cbb633          	sltu	a2,s7,a2
   163a4:	00cc8633          	add	a2,s9,a2
   163a8:	00eb8733          	add	a4,s7,a4
   163ac:	01c60e33          	add	t3,a2,t3
   163b0:	01773bb3          	sltu	s7,a4,s7
   163b4:	017e0bb3          	add	s7,t3,s7
   163b8:	00d706b3          	add	a3,a4,a3
   163bc:	018b8c33          	add	s8,s7,s8
   163c0:	01e9bf33          	sltu	t5,s3,t5
   163c4:	00e6b733          	sltu	a4,a3,a4
   163c8:	0137b9b3          	sltu	s3,a5,s3
   163cc:	00fcb7b3          	sltu	a5,s9,a5
   163d0:	01963cb3          	sltu	s9,a2,s9
   163d4:	013f69b3          	or	s3,t5,s3
   163d8:	00ce3633          	sltu	a2,t3,a2
   163dc:	0197e7b3          	or	a5,a5,s9
   163e0:	01cbbe33          	sltu	t3,s7,t3
   163e4:	00ec0733          	add	a4,s8,a4
   163e8:	00f987b3          	add	a5,s3,a5
   163ec:	01c66633          	or	a2,a2,t3
   163f0:	017c3e33          	sltu	t3,s8,s7
   163f4:	01873c33          	sltu	s8,a4,s8
   163f8:	00f60633          	add	a2,a2,a5
   163fc:	018e6e33          	or	t3,t3,s8
   16400:	03138f33          	mul	t5,t2,a7
   16404:	00ce0e33          	add	t3,t3,a2
   16408:	04d12e23          	sw	a3,92(sp)
   1640c:	02b88633          	mul	a2,a7,a1
   16410:	02b28bb3          	mul	s7,t0,a1
   16414:	01065793          	srli	a5,a2,0x10
   16418:	01eb8bb3          	add	s7,s7,t5
   1641c:	017787b3          	add	a5,a5,s7
   16420:	027289b3          	mul	s3,t0,t2
   16424:	01e7f663          	bgeu	a5,t5,16430 <__multf3+0x610>
   16428:	00010f37          	lui	t5,0x10
   1642c:	01e989b3          	add	s3,s3,t5
   16430:	01061613          	slli	a2,a2,0x10
   16434:	0107df13          	srli	t5,a5,0x10
   16438:	01065613          	srli	a2,a2,0x10
   1643c:	01079793          	slli	a5,a5,0x10
   16440:	00c787b3          	add	a5,a5,a2
   16444:	013f0f33          	add	t5,t5,s3
   16448:	02aa0633          	mul	a2,s4,a0
   1644c:	03490bb3          	mul	s7,s2,s4
   16450:	01065993          	srli	s3,a2,0x10
   16454:	02aa8533          	mul	a0,s5,a0
   16458:	01750533          	add	a0,a0,s7
   1645c:	00a989b3          	add	s3,s3,a0
   16460:	03590933          	mul	s2,s2,s5
   16464:	0179f663          	bgeu	s3,s7,16470 <__multf3+0x650>
   16468:	00010537          	lui	a0,0x10
   1646c:	00a90933          	add	s2,s2,a0
   16470:	01061613          	slli	a2,a2,0x10
   16474:	0109d513          	srli	a0,s3,0x10
   16478:	01065613          	srli	a2,a2,0x10
   1647c:	01099993          	slli	s3,s3,0x10
   16480:	00c989b3          	add	s3,s3,a2
   16484:	01250933          	add	s2,a0,s2
   16488:	026b0633          	mul	a2,s6,t1
   1648c:	03048bb3          	mul	s7,s1,a6
   16490:	01065513          	srli	a0,a2,0x10
   16494:	02680333          	mul	t1,a6,t1
   16498:	036484b3          	mul	s1,s1,s6
   1649c:	006484b3          	add	s1,s1,t1
   164a0:	00950533          	add	a0,a0,s1
   164a4:	00657663          	bgeu	a0,t1,164b0 <__multf3+0x690>
   164a8:	00010337          	lui	t1,0x10
   164ac:	006b8bb3          	add	s7,s7,t1
   164b0:	01061613          	slli	a2,a2,0x10
   164b4:	01055313          	srli	t1,a0,0x10
   164b8:	01065613          	srli	a2,a2,0x10
   164bc:	01051513          	slli	a0,a0,0x10
   164c0:	034384b3          	mul	s1,t2,s4
   164c4:	00c50533          	add	a0,a0,a2
   164c8:	01730333          	add	t1,t1,s7
   164cc:	02ba0633          	mul	a2,s4,a1
   164d0:	02ba85b3          	mul	a1,s5,a1
   164d4:	01065b93          	srli	s7,a2,0x10
   164d8:	009585b3          	add	a1,a1,s1
   164dc:	00bb85b3          	add	a1,s7,a1
   164e0:	035383b3          	mul	t2,t2,s5
   164e4:	0095f663          	bgeu	a1,s1,164f0 <__multf3+0x6d0>
   164e8:	000104b7          	lui	s1,0x10
   164ec:	009383b3          	add	t2,t2,s1
   164f0:	0105d493          	srli	s1,a1,0x10
   164f4:	007483b3          	add	t2,s1,t2
   164f8:	01061613          	slli	a2,a2,0x10
   164fc:	01065613          	srli	a2,a2,0x10
   16500:	01059593          	slli	a1,a1,0x10
   16504:	00c585b3          	add	a1,a1,a2
   16508:	031b04b3          	mul	s1,s6,a7
   1650c:	03028bb3          	mul	s7,t0,a6
   16510:	0104d613          	srli	a2,s1,0x10
   16514:	031808b3          	mul	a7,a6,a7
   16518:	036282b3          	mul	t0,t0,s6
   1651c:	011282b3          	add	t0,t0,a7
   16520:	00560633          	add	a2,a2,t0
   16524:	01167663          	bgeu	a2,a7,16530 <__multf3+0x710>
   16528:	000108b7          	lui	a7,0x10
   1652c:	011b8bb3          	add	s7,s7,a7
   16530:	00f707b3          	add	a5,a4,a5
   16534:	01ee0f33          	add	t5,t3,t5
   16538:	00e7b733          	sltu	a4,a5,a4
   1653c:	00ef0733          	add	a4,t5,a4
   16540:	013789b3          	add	s3,a5,s3
   16544:	01270933          	add	s2,a4,s2
   16548:	00f9b7b3          	sltu	a5,s3,a5
   1654c:	00f902b3          	add	t0,s2,a5
   16550:	00a987b3          	add	a5,s3,a0
   16554:	036a0533          	mul	a0,s4,s6
   16558:	00628333          	add	t1,t0,t1
   1655c:	06f12023          	sw	a5,96(sp)
   16560:	0137b7b3          	sltu	a5,a5,s3
   16564:	00f307b3          	add	a5,t1,a5
   16568:	01cf3e33          	sltu	t3,t5,t3
   1656c:	01e73f33          	sltu	t5,a4,t5
   16570:	00e93733          	sltu	a4,s2,a4
   16574:	0122b933          	sltu	s2,t0,s2
   16578:	01276733          	or	a4,a4,s2
   1657c:	03480a33          	mul	s4,a6,s4
   16580:	005332b3          	sltu	t0,t1,t0
   16584:	01ee6e33          	or	t3,t3,t5
   16588:	0067b333          	sltu	t1,a5,t1
   1658c:	00ee0e33          	add	t3,t3,a4
   16590:	01049493          	slli	s1,s1,0x10
   16594:	0062e2b3          	or	t0,t0,t1
   16598:	00b785b3          	add	a1,a5,a1
   1659c:	01065893          	srli	a7,a2,0x10
   165a0:	01c282b3          	add	t0,t0,t3
   165a4:	030a8833          	mul	a6,s5,a6
   165a8:	01061613          	slli	a2,a2,0x10
   165ac:	0104d493          	srli	s1,s1,0x10
   165b0:	007283b3          	add	t2,t0,t2
   165b4:	00960633          	add	a2,a2,s1
   165b8:	00f5b7b3          	sltu	a5,a1,a5
   165bc:	00f387b3          	add	a5,t2,a5
   165c0:	00c58633          	add	a2,a1,a2
   165c4:	017888b3          	add	a7,a7,s7
   165c8:	011788b3          	add	a7,a5,a7
   165cc:	036a8ab3          	mul	s5,s5,s6
   165d0:	06c12223          	sw	a2,100(sp)
   165d4:	00b63633          	sltu	a2,a2,a1
   165d8:	00c88633          	add	a2,a7,a2
   165dc:	01055713          	srli	a4,a0,0x10
   165e0:	0053b2b3          	sltu	t0,t2,t0
   165e4:	0077b3b3          	sltu	t2,a5,t2
   165e8:	00f8b7b3          	sltu	a5,a7,a5
   165ec:	011638b3          	sltu	a7,a2,a7
   165f0:	0072e2b3          	or	t0,t0,t2
   165f4:	014a8ab3          	add	s5,s5,s4
   165f8:	01570733          	add	a4,a4,s5
   165fc:	0117e7b3          	or	a5,a5,a7
   16600:	01477663          	bgeu	a4,s4,1660c <__multf3+0x7ec>
   16604:	000105b7          	lui	a1,0x10
   16608:	00b80833          	add	a6,a6,a1
   1660c:	01051513          	slli	a0,a0,0x10
   16610:	01075593          	srli	a1,a4,0x10
   16614:	01055513          	srli	a0,a0,0x10
   16618:	01071713          	slli	a4,a4,0x10
   1661c:	00a70733          	add	a4,a4,a0
   16620:	005585b3          	add	a1,a1,t0
   16624:	00e60733          	add	a4,a2,a4
   16628:	00f587b3          	add	a5,a1,a5
   1662c:	00c73633          	sltu	a2,a4,a2
   16630:	00f60633          	add	a2,a2,a5
   16634:	01412783          	lw	a5,20(sp)
   16638:	01060633          	add	a2,a2,a6
   1663c:	00d69693          	slli	a3,a3,0xd
   16640:	01d7e7b3          	or	a5,a5,t4
   16644:	00ffefb3          	or	t6,t6,a5
   16648:	06c12623          	sw	a2,108(sp)
   1664c:	06e12423          	sw	a4,104(sp)
   16650:	01f6e6b3          	or	a3,a3,t6
   16654:	05010793          	addi	a5,sp,80
   16658:	06010593          	addi	a1,sp,96
   1665c:	00c7a703          	lw	a4,12(a5)
   16660:	0107a603          	lw	a2,16(a5)
   16664:	00478793          	addi	a5,a5,4
   16668:	01375713          	srli	a4,a4,0x13
   1666c:	00d61613          	slli	a2,a2,0xd
   16670:	00c76733          	or	a4,a4,a2
   16674:	fee7ae23          	sw	a4,-4(a5)
   16678:	fef592e3          	bne	a1,a5,1665c <__multf3+0x83c>
   1667c:	05012783          	lw	a5,80(sp)
   16680:	00d036b3          	sltu	a3,zero,a3
   16684:	05c12703          	lw	a4,92(sp)
   16688:	00f6e6b3          	or	a3,a3,a5
   1668c:	05812783          	lw	a5,88(sp)
   16690:	04e12623          	sw	a4,76(sp)
   16694:	04d12023          	sw	a3,64(sp)
   16698:	04f12423          	sw	a5,72(sp)
   1669c:	05412783          	lw	a5,84(sp)
   166a0:	04f12223          	sw	a5,68(sp)
   166a4:	00b71793          	slli	a5,a4,0xb
   166a8:	4a07da63          	bge	a5,zero,16b5c <__multf3+0xd3c>
   166ac:	01f69693          	slli	a3,a3,0x1f
   166b0:	04010793          	addi	a5,sp,64
   166b4:	04c10513          	addi	a0,sp,76
   166b8:	0007a603          	lw	a2,0(a5)
   166bc:	0047a583          	lw	a1,4(a5)
   166c0:	00478793          	addi	a5,a5,4
   166c4:	00165613          	srli	a2,a2,0x1
   166c8:	01f59593          	slli	a1,a1,0x1f
   166cc:	00b66633          	or	a2,a2,a1
   166d0:	fec7ae23          	sw	a2,-4(a5)
   166d4:	fef512e3          	bne	a0,a5,166b8 <__multf3+0x898>
   166d8:	04012783          	lw	a5,64(sp)
   166dc:	01f6d693          	srli	a3,a3,0x1f
   166e0:	00175713          	srli	a4,a4,0x1
   166e4:	00d7e7b3          	or	a5,a5,a3
   166e8:	04e12623          	sw	a4,76(sp)
   166ec:	04f12023          	sw	a5,64(sp)
   166f0:	00c12703          	lw	a4,12(sp)
   166f4:	000047b7          	lui	a5,0x4
   166f8:	fff78793          	addi	a5,a5,-1 # 3fff <exit-0xc0b5>
   166fc:	00f707b3          	add	a5,a4,a5
   16700:	46f05463          	bge	zero,a5,16b68 <__multf3+0xd48>
   16704:	04012703          	lw	a4,64(sp)
   16708:	00777693          	andi	a3,a4,7
   1670c:	04068663          	beq	a3,zero,16758 <__multf3+0x938>
   16710:	00f77693          	andi	a3,a4,15
   16714:	00400613          	addi	a2,zero,4
   16718:	04c68063          	beq	a3,a2,16758 <__multf3+0x938>
   1671c:	00c706b3          	add	a3,a4,a2
   16720:	ffc73713          	sltiu	a4,a4,-4
   16724:	04d12023          	sw	a3,64(sp)
   16728:	00173693          	sltiu	a3,a4,1
   1672c:	04412703          	lw	a4,68(sp)
   16730:	00e68733          	add	a4,a3,a4
   16734:	04e12223          	sw	a4,68(sp)
   16738:	00d73733          	sltu	a4,a4,a3
   1673c:	04812683          	lw	a3,72(sp)
   16740:	00e68733          	add	a4,a3,a4
   16744:	04e12423          	sw	a4,72(sp)
   16748:	00d73733          	sltu	a4,a4,a3
   1674c:	04c12683          	lw	a3,76(sp)
   16750:	00d70733          	add	a4,a4,a3
   16754:	04e12623          	sw	a4,76(sp)
   16758:	04c12703          	lw	a4,76(sp)
   1675c:	00b71693          	slli	a3,a4,0xb
   16760:	0206d063          	bge	a3,zero,16780 <__multf3+0x960>
   16764:	00c12683          	lw	a3,12(sp)
   16768:	fff007b7          	lui	a5,0xfff00
   1676c:	fff78793          	addi	a5,a5,-1 # ffefffff <__BSS_END__+0xffee403f>
   16770:	00f77733          	and	a4,a4,a5
   16774:	000047b7          	lui	a5,0x4
   16778:	04e12623          	sw	a4,76(sp)
   1677c:	00f687b3          	add	a5,a3,a5
   16780:	04010693          	addi	a3,sp,64
   16784:	04c10513          	addi	a0,sp,76
   16788:	0006a603          	lw	a2,0(a3)
   1678c:	0046a583          	lw	a1,4(a3)
   16790:	00468693          	addi	a3,a3,4
   16794:	00365613          	srli	a2,a2,0x3
   16798:	01d59593          	slli	a1,a1,0x1d
   1679c:	00b66633          	or	a2,a2,a1
   167a0:	fec6ae23          	sw	a2,-4(a3)
   167a4:	fed512e3          	bne	a0,a3,16788 <__multf3+0x968>
   167a8:	000086b7          	lui	a3,0x8
   167ac:	ffe68693          	addi	a3,a3,-2 # 7ffe <exit-0x80b6>
   167b0:	58f6ca63          	blt	a3,a5,16d44 <__multf3+0xf24>
   167b4:	00375713          	srli	a4,a4,0x3
   167b8:	04e12623          	sw	a4,76(sp)
   167bc:	04c12703          	lw	a4,76(sp)
   167c0:	0ac12083          	lw	ra,172(sp)
   167c4:	0a412483          	lw	s1,164(sp)
   167c8:	04e11e23          	sh	a4,92(sp)
   167cc:	00f41713          	slli	a4,s0,0xf
   167d0:	00f767b3          	or	a5,a4,a5
   167d4:	04f11f23          	sh	a5,94(sp)
   167d8:	00812703          	lw	a4,8(sp)
   167dc:	04012783          	lw	a5,64(sp)
   167e0:	0a812403          	lw	s0,168(sp)
   167e4:	0a012903          	lw	s2,160(sp)
   167e8:	00f72023          	sw	a5,0(a4) # 10000 <exit-0xb4>
   167ec:	04412783          	lw	a5,68(sp)
   167f0:	09c12983          	lw	s3,156(sp)
   167f4:	09812a03          	lw	s4,152(sp)
   167f8:	00f72223          	sw	a5,4(a4)
   167fc:	04812783          	lw	a5,72(sp)
   16800:	09412a83          	lw	s5,148(sp)
   16804:	09012b03          	lw	s6,144(sp)
   16808:	00f72423          	sw	a5,8(a4)
   1680c:	05c12783          	lw	a5,92(sp)
   16810:	08c12b83          	lw	s7,140(sp)
   16814:	08812c03          	lw	s8,136(sp)
   16818:	00f72623          	sw	a5,12(a4)
   1681c:	08412c83          	lw	s9,132(sp)
   16820:	08012d03          	lw	s10,128(sp)
   16824:	07c12d83          	lw	s11,124(sp)
   16828:	00070513          	addi	a0,a4,0
   1682c:	0b010113          	addi	sp,sp,176
   16830:	00008067          	jalr	zero,0(ra)
   16834:	00a7e633          	or	a2,a5,a0
   16838:	00d66633          	or	a2,a2,a3
   1683c:	00e66633          	or	a2,a2,a4
   16840:	12060063          	beq	a2,zero,16960 <__multf3+0xb40>
   16844:	04070863          	beq	a4,zero,16894 <__multf3+0xa74>
   16848:	00070513          	addi	a0,a4,0
   1684c:	56d010ef          	jal	ra,185b8 <__clzsi2>
   16850:	ff450693          	addi	a3,a0,-12 # fff4 <exit-0xc0>
   16854:	4056d713          	srai	a4,a3,0x5
   16858:	01f6f693          	andi	a3,a3,31
   1685c:	02c10793          	addi	a5,sp,44
   16860:	06068463          	beq	a3,zero,168c8 <__multf3+0xaa8>
   16864:	02000893          	addi	a7,zero,32
   16868:	00271813          	slli	a6,a4,0x2
   1686c:	40d888b3          	sub	a7,a7,a3
   16870:	02010593          	addi	a1,sp,32
   16874:	410787b3          	sub	a5,a5,a6
   16878:	08f59a63          	bne	a1,a5,1690c <__multf3+0xaec>
   1687c:	fff70793          	addi	a5,a4,-1
   16880:	02012703          	lw	a4,32(sp)
   16884:	010585b3          	add	a1,a1,a6
   16888:	00d71733          	sll	a4,a4,a3
   1688c:	00e5a023          	sw	a4,0(a1) # 10000 <exit-0xb4>
   16890:	0600006f          	jal	zero,168f0 <__multf3+0xad0>
   16894:	00068a63          	beq	a3,zero,168a8 <__multf3+0xa88>
   16898:	00068513          	addi	a0,a3,0
   1689c:	51d010ef          	jal	ra,185b8 <__clzsi2>
   168a0:	02050513          	addi	a0,a0,32
   168a4:	fadff06f          	jal	zero,16850 <__multf3+0xa30>
   168a8:	00078a63          	beq	a5,zero,168bc <__multf3+0xa9c>
   168ac:	00078513          	addi	a0,a5,0 # 4000 <exit-0xc0b4>
   168b0:	509010ef          	jal	ra,185b8 <__clzsi2>
   168b4:	04050513          	addi	a0,a0,64
   168b8:	f99ff06f          	jal	zero,16850 <__multf3+0xa30>
   168bc:	4fd010ef          	jal	ra,185b8 <__clzsi2>
   168c0:	06050513          	addi	a0,a0,96
   168c4:	f8dff06f          	jal	zero,16850 <__multf3+0xa30>
   168c8:	ffc00613          	addi	a2,zero,-4
   168cc:	02c70633          	mul	a2,a4,a2
   168d0:	00300693          	addi	a3,zero,3
   168d4:	00c785b3          	add	a1,a5,a2
   168d8:	0005a583          	lw	a1,0(a1)
   168dc:	fff68693          	addi	a3,a3,-1
   168e0:	ffc78793          	addi	a5,a5,-4
   168e4:	00b7a223          	sw	a1,4(a5)
   168e8:	fee6d6e3          	bge	a3,a4,168d4 <__multf3+0xab4>
   168ec:	fff70793          	addi	a5,a4,-1
   168f0:	fff00693          	addi	a3,zero,-1
   168f4:	02010613          	addi	a2,sp,32
   168f8:	02d79c63          	bne	a5,a3,16930 <__multf3+0xb10>
   168fc:	ffffc4b7          	lui	s1,0xffffc
   16900:	01148493          	addi	s1,s1,17 # ffffc011 <__BSS_END__+0xfffe0051>
   16904:	40a484b3          	sub	s1,s1,a0
   16908:	e00ff06f          	jal	zero,15f08 <__multf3+0xe8>
   1690c:	0007a603          	lw	a2,0(a5)
   16910:	ffc7a303          	lw	t1,-4(a5)
   16914:	01078e33          	add	t3,a5,a6
   16918:	00d61633          	sll	a2,a2,a3
   1691c:	01135333          	srl	t1,t1,a7
   16920:	00666633          	or	a2,a2,t1
   16924:	00ce2023          	sw	a2,0(t3) # 10000 <exit-0xb4>
   16928:	ffc78793          	addi	a5,a5,-4
   1692c:	f4dff06f          	jal	zero,16878 <__multf3+0xa58>
   16930:	00279713          	slli	a4,a5,0x2
   16934:	00e60733          	add	a4,a2,a4
   16938:	00072023          	sw	zero,0(a4)
   1693c:	fff78793          	addi	a5,a5,-1
   16940:	fb9ff06f          	jal	zero,168f8 <__multf3+0xad8>
   16944:	00a7e7b3          	or	a5,a5,a0
   16948:	00d7e7b3          	or	a5,a5,a3
   1694c:	00e7e7b3          	or	a5,a5,a4
   16950:	00200993          	addi	s3,zero,2
   16954:	da078c63          	beq	a5,zero,15f0c <__multf3+0xec>
   16958:	00300993          	addi	s3,zero,3
   1695c:	db0ff06f          	jal	zero,15f0c <__multf3+0xec>
   16960:	00000493          	addi	s1,zero,0
   16964:	00100993          	addi	s3,zero,1
   16968:	da4ff06f          	jal	zero,15f0c <__multf3+0xec>
   1696c:	016ae7b3          	or	a5,s5,s6
   16970:	0177e7b3          	or	a5,a5,s7
   16974:	00a7e7b3          	or	a5,a5,a0
   16978:	00100713          	addi	a4,zero,1
   1697c:	e2078063          	beq	a5,zero,15f9c <__multf3+0x17c>
   16980:	04050663          	beq	a0,zero,169cc <__multf3+0xbac>
   16984:	435010ef          	jal	ra,185b8 <__clzsi2>
   16988:	ff450693          	addi	a3,a0,-12
   1698c:	4056d713          	srai	a4,a3,0x5
   16990:	01f6f693          	andi	a3,a3,31
   16994:	03c10793          	addi	a5,sp,60
   16998:	06068663          	beq	a3,zero,16a04 <__multf3+0xbe4>
   1699c:	02000893          	addi	a7,zero,32
   169a0:	00271813          	slli	a6,a4,0x2
   169a4:	40d888b3          	sub	a7,a7,a3
   169a8:	03010593          	addi	a1,sp,48
   169ac:	410787b3          	sub	a5,a5,a6
   169b0:	08f59c63          	bne	a1,a5,16a48 <__multf3+0xc28>
   169b4:	fff70793          	addi	a5,a4,-1
   169b8:	03012703          	lw	a4,48(sp)
   169bc:	010585b3          	add	a1,a1,a6
   169c0:	00d71733          	sll	a4,a4,a3
   169c4:	00e5a023          	sw	a4,0(a1)
   169c8:	0640006f          	jal	zero,16a2c <__multf3+0xc0c>
   169cc:	000b8a63          	beq	s7,zero,169e0 <__multf3+0xbc0>
   169d0:	000b8513          	addi	a0,s7,0
   169d4:	3e5010ef          	jal	ra,185b8 <__clzsi2>
   169d8:	02050513          	addi	a0,a0,32
   169dc:	fadff06f          	jal	zero,16988 <__multf3+0xb68>
   169e0:	000a8a63          	beq	s5,zero,169f4 <__multf3+0xbd4>
   169e4:	000a8513          	addi	a0,s5,0
   169e8:	3d1010ef          	jal	ra,185b8 <__clzsi2>
   169ec:	04050513          	addi	a0,a0,64
   169f0:	f99ff06f          	jal	zero,16988 <__multf3+0xb68>
   169f4:	000b0513          	addi	a0,s6,0
   169f8:	3c1010ef          	jal	ra,185b8 <__clzsi2>
   169fc:	06050513          	addi	a0,a0,96
   16a00:	f89ff06f          	jal	zero,16988 <__multf3+0xb68>
   16a04:	ffc00613          	addi	a2,zero,-4
   16a08:	02c70633          	mul	a2,a4,a2
   16a0c:	00300693          	addi	a3,zero,3
   16a10:	00c785b3          	add	a1,a5,a2
   16a14:	0005a583          	lw	a1,0(a1)
   16a18:	fff68693          	addi	a3,a3,-1
   16a1c:	ffc78793          	addi	a5,a5,-4
   16a20:	00b7a223          	sw	a1,4(a5)
   16a24:	fee6d6e3          	bge	a3,a4,16a10 <__multf3+0xbf0>
   16a28:	fff70793          	addi	a5,a4,-1
   16a2c:	fff00693          	addi	a3,zero,-1
   16a30:	03010613          	addi	a2,sp,48
   16a34:	02d79c63          	bne	a5,a3,16a6c <__multf3+0xc4c>
   16a38:	ffffc7b7          	lui	a5,0xffffc
   16a3c:	01178793          	addi	a5,a5,17 # ffffc011 <__BSS_END__+0xfffe0051>
   16a40:	40a787b3          	sub	a5,a5,a0
   16a44:	d54ff06f          	jal	zero,15f98 <__multf3+0x178>
   16a48:	0007a603          	lw	a2,0(a5)
   16a4c:	ffc7a303          	lw	t1,-4(a5)
   16a50:	01078e33          	add	t3,a5,a6
   16a54:	00d61633          	sll	a2,a2,a3
   16a58:	01135333          	srl	t1,t1,a7
   16a5c:	00666633          	or	a2,a2,t1
   16a60:	00ce2023          	sw	a2,0(t3)
   16a64:	ffc78793          	addi	a5,a5,-4
   16a68:	f49ff06f          	jal	zero,169b0 <__multf3+0xb90>
   16a6c:	00279713          	slli	a4,a5,0x2
   16a70:	00e60733          	add	a4,a2,a4
   16a74:	00072023          	sw	zero,0(a4)
   16a78:	fff78793          	addi	a5,a5,-1
   16a7c:	fb9ff06f          	jal	zero,16a34 <__multf3+0xc14>
   16a80:	016aeab3          	or	s5,s5,s6
   16a84:	017aeab3          	or	s5,s5,s7
   16a88:	00aaeab3          	or	s5,s5,a0
   16a8c:	00200713          	addi	a4,zero,2
   16a90:	d00a8663          	beq	s5,zero,15f9c <__multf3+0x17c>
   16a94:	00300713          	addi	a4,zero,3
   16a98:	d04ff06f          	jal	zero,15f9c <__multf3+0x17c>
   16a9c:	00f697b3          	sll	a5,a3,a5
   16aa0:	5307f693          	andi	a3,a5,1328
   16aa4:	06069463          	bne	a3,zero,16b0c <__multf3+0xcec>
   16aa8:	0887f693          	andi	a3,a5,136
   16aac:	02069e63          	bne	a3,zero,16ae8 <__multf3+0xcc8>
   16ab0:	2407f793          	andi	a5,a5,576
   16ab4:	d2078063          	beq	a5,zero,15fd4 <__multf3+0x1b4>
   16ab8:	000087b7          	lui	a5,0x8
   16abc:	04f12623          	sw	a5,76(sp)
   16ac0:	04012423          	sw	zero,72(sp)
   16ac4:	04012223          	sw	zero,68(sp)
   16ac8:	04012023          	sw	zero,64(sp)
   16acc:	fff78793          	addi	a5,a5,-1 # 7fff <exit-0x80b5>
   16ad0:	00000413          	addi	s0,zero,0
   16ad4:	ce9ff06f          	jal	zero,167bc <__multf3+0x99c>
   16ad8:	00f00693          	addi	a3,zero,15
   16adc:	fcd78ee3          	beq	a5,a3,16ab8 <__multf3+0xc98>
   16ae0:	00b00693          	addi	a3,zero,11
   16ae4:	02d79463          	bne	a5,a3,16b0c <__multf3+0xcec>
   16ae8:	00090413          	addi	s0,s2,0
   16aec:	03012783          	lw	a5,48(sp)
   16af0:	04f12023          	sw	a5,64(sp)
   16af4:	03412783          	lw	a5,52(sp)
   16af8:	04f12223          	sw	a5,68(sp)
   16afc:	03812783          	lw	a5,56(sp)
   16b00:	04f12423          	sw	a5,72(sp)
   16b04:	03c12783          	lw	a5,60(sp)
   16b08:	0240006f          	jal	zero,16b2c <__multf3+0xd0c>
   16b0c:	02012783          	lw	a5,32(sp)
   16b10:	00098713          	addi	a4,s3,0
   16b14:	04f12023          	sw	a5,64(sp)
   16b18:	02412783          	lw	a5,36(sp)
   16b1c:	04f12223          	sw	a5,68(sp)
   16b20:	02812783          	lw	a5,40(sp)
   16b24:	04f12423          	sw	a5,72(sp)
   16b28:	02c12783          	lw	a5,44(sp)
   16b2c:	04f12623          	sw	a5,76(sp)
   16b30:	00200793          	addi	a5,zero,2
   16b34:	20f70863          	beq	a4,a5,16d44 <__multf3+0xf24>
   16b38:	00300793          	addi	a5,zero,3
   16b3c:	f6f70ee3          	beq	a4,a5,16ab8 <__multf3+0xc98>
   16b40:	00100793          	addi	a5,zero,1
   16b44:	baf716e3          	bne	a4,a5,166f0 <__multf3+0x8d0>
   16b48:	04012623          	sw	zero,76(sp)
   16b4c:	04012423          	sw	zero,72(sp)
   16b50:	04012223          	sw	zero,68(sp)
   16b54:	04012023          	sw	zero,64(sp)
   16b58:	1c00006f          	jal	zero,16d18 <__multf3+0xef8>
   16b5c:	01012783          	lw	a5,16(sp)
   16b60:	00f12623          	sw	a5,12(sp)
   16b64:	b8dff06f          	jal	zero,166f0 <__multf3+0x8d0>
   16b68:	06078463          	beq	a5,zero,16bd0 <__multf3+0xdb0>
   16b6c:	f8d00713          	addi	a4,zero,-115
   16b70:	1ae7c863          	blt	a5,a4,16d20 <__multf3+0xf00>
   16b74:	00100713          	addi	a4,zero,1
   16b78:	40f70733          	sub	a4,a4,a5
   16b7c:	04010513          	addi	a0,sp,64
   16b80:	40575693          	srai	a3,a4,0x5
   16b84:	00050593          	addi	a1,a0,0
   16b88:	01f77713          	andi	a4,a4,31
   16b8c:	00000793          	addi	a5,zero,0
   16b90:	00000613          	addi	a2,zero,0
   16b94:	04d61263          	bne	a2,a3,16bd8 <__multf3+0xdb8>
   16b98:	00300613          	addi	a2,zero,3
   16b9c:	40d60633          	sub	a2,a2,a3
   16ba0:	00269e13          	slli	t3,a3,0x2
   16ba4:	04071463          	bne	a4,zero,16bec <__multf3+0xdcc>
   16ba8:	00050593          	addi	a1,a0,0
   16bac:	01c58833          	add	a6,a1,t3
   16bb0:	00082803          	lw	a6,0(a6) # 10000 <exit-0xb4>
   16bb4:	00170713          	addi	a4,a4,1
   16bb8:	00458593          	addi	a1,a1,4
   16bbc:	ff05ae23          	sw	a6,-4(a1)
   16bc0:	fee656e3          	bge	a2,a4,16bac <__multf3+0xd8c>
   16bc4:	00400713          	addi	a4,zero,4
   16bc8:	40d706b3          	sub	a3,a4,a3
   16bcc:	05c0006f          	jal	zero,16c28 <__multf3+0xe08>
   16bd0:	00100713          	addi	a4,zero,1
   16bd4:	fa9ff06f          	jal	zero,16b7c <__multf3+0xd5c>
   16bd8:	0005a803          	lw	a6,0(a1)
   16bdc:	00160613          	addi	a2,a2,1 # 10001 <exit-0xb3>
   16be0:	00458593          	addi	a1,a1,4
   16be4:	0107e7b3          	or	a5,a5,a6
   16be8:	fadff06f          	jal	zero,16b94 <__multf3+0xd74>
   16bec:	01c505b3          	add	a1,a0,t3
   16bf0:	0005a803          	lw	a6,0(a1)
   16bf4:	02000893          	addi	a7,zero,32
   16bf8:	40e888b3          	sub	a7,a7,a4
   16bfc:	01181833          	sll	a6,a6,a7
   16c00:	0107e7b3          	or	a5,a5,a6
   16c04:	00000313          	addi	t1,zero,0
   16c08:	02c34463          	blt	t1,a2,16c30 <__multf3+0xe10>
   16c0c:	00400593          	addi	a1,zero,4
   16c10:	40d586b3          	sub	a3,a1,a3
   16c14:	04c12583          	lw	a1,76(sp)
   16c18:	00261613          	slli	a2,a2,0x2
   16c1c:	00c50633          	add	a2,a0,a2
   16c20:	00e5d733          	srl	a4,a1,a4
   16c24:	00e62023          	sw	a4,0(a2)
   16c28:	00400613          	addi	a2,zero,4
   16c2c:	03c0006f          	jal	zero,16c68 <__multf3+0xe48>
   16c30:	0005a803          	lw	a6,0(a1)
   16c34:	0045ae83          	lw	t4,4(a1)
   16c38:	41c58f33          	sub	t5,a1,t3
   16c3c:	00e85833          	srl	a6,a6,a4
   16c40:	011e9eb3          	sll	t4,t4,a7
   16c44:	01d86833          	or	a6,a6,t4
   16c48:	010f2023          	sw	a6,0(t5) # 10000 <exit-0xb4>
   16c4c:	00130313          	addi	t1,t1,1 # 10001 <exit-0xb3>
   16c50:	00458593          	addi	a1,a1,4
   16c54:	fb5ff06f          	jal	zero,16c08 <__multf3+0xde8>
   16c58:	00269713          	slli	a4,a3,0x2
   16c5c:	00e50733          	add	a4,a0,a4
   16c60:	00072023          	sw	zero,0(a4)
   16c64:	00168693          	addi	a3,a3,1
   16c68:	fec698e3          	bne	a3,a2,16c58 <__multf3+0xe38>
   16c6c:	04012703          	lw	a4,64(sp)
   16c70:	00f037b3          	sltu	a5,zero,a5
   16c74:	00e7e7b3          	or	a5,a5,a4
   16c78:	04f12023          	sw	a5,64(sp)
   16c7c:	0077f713          	andi	a4,a5,7
   16c80:	04070463          	beq	a4,zero,16cc8 <__multf3+0xea8>
   16c84:	00f7f713          	andi	a4,a5,15
   16c88:	04d70063          	beq	a4,a3,16cc8 <__multf3+0xea8>
   16c8c:	00478713          	addi	a4,a5,4
   16c90:	04e12023          	sw	a4,64(sp)
   16c94:	04412703          	lw	a4,68(sp)
   16c98:	ffc7b793          	sltiu	a5,a5,-4
   16c9c:	0017b793          	sltiu	a5,a5,1
   16ca0:	00f707b3          	add	a5,a4,a5
   16ca4:	04f12223          	sw	a5,68(sp)
   16ca8:	00e7b7b3          	sltu	a5,a5,a4
   16cac:	04812703          	lw	a4,72(sp)
   16cb0:	00f707b3          	add	a5,a4,a5
   16cb4:	04f12423          	sw	a5,72(sp)
   16cb8:	00e7b7b3          	sltu	a5,a5,a4
   16cbc:	04c12703          	lw	a4,76(sp)
   16cc0:	00e787b3          	add	a5,a5,a4
   16cc4:	04f12623          	sw	a5,76(sp)
   16cc8:	04c12703          	lw	a4,76(sp)
   16ccc:	00c71793          	slli	a5,a4,0xc
   16cd0:	0007de63          	bge	a5,zero,16cec <__multf3+0xecc>
   16cd4:	04012623          	sw	zero,76(sp)
   16cd8:	04012423          	sw	zero,72(sp)
   16cdc:	04012223          	sw	zero,68(sp)
   16ce0:	04012023          	sw	zero,64(sp)
   16ce4:	00100793          	addi	a5,zero,1
   16ce8:	ad5ff06f          	jal	zero,167bc <__multf3+0x99c>
   16cec:	00c50613          	addi	a2,a0,12
   16cf0:	00052783          	lw	a5,0(a0)
   16cf4:	00452683          	lw	a3,4(a0)
   16cf8:	00450513          	addi	a0,a0,4
   16cfc:	0037d793          	srli	a5,a5,0x3
   16d00:	01d69693          	slli	a3,a3,0x1d
   16d04:	00d7e7b3          	or	a5,a5,a3
   16d08:	fef52e23          	sw	a5,-4(a0)
   16d0c:	fea612e3          	bne	a2,a0,16cf0 <__multf3+0xed0>
   16d10:	00375713          	srli	a4,a4,0x3
   16d14:	04e12623          	sw	a4,76(sp)
   16d18:	00000793          	addi	a5,zero,0
   16d1c:	aa1ff06f          	jal	zero,167bc <__multf3+0x99c>
   16d20:	04412703          	lw	a4,68(sp)
   16d24:	04012783          	lw	a5,64(sp)
   16d28:	00e7e7b3          	or	a5,a5,a4
   16d2c:	04812703          	lw	a4,72(sp)
   16d30:	00e7e7b3          	or	a5,a5,a4
   16d34:	04c12703          	lw	a4,76(sp)
   16d38:	00e7e7b3          	or	a5,a5,a4
   16d3c:	fc078ee3          	beq	a5,zero,16d18 <__multf3+0xef8>
   16d40:	e09ff06f          	jal	zero,16b48 <__multf3+0xd28>
   16d44:	000087b7          	lui	a5,0x8
   16d48:	04012623          	sw	zero,76(sp)
   16d4c:	04012423          	sw	zero,72(sp)
   16d50:	04012223          	sw	zero,68(sp)
   16d54:	04012023          	sw	zero,64(sp)
   16d58:	fff78793          	addi	a5,a5,-1 # 7fff <exit-0x80b5>
   16d5c:	a61ff06f          	jal	zero,167bc <__multf3+0x99c>

00016d60 <__subtf3>:
   16d60:	fa010113          	addi	sp,sp,-96
   16d64:	0085a783          	lw	a5,8(a1)
   16d68:	04812c23          	sw	s0,88(sp)
   16d6c:	00050413          	addi	s0,a0,0
   16d70:	00c5a503          	lw	a0,12(a1)
   16d74:	0045a803          	lw	a6,4(a1)
   16d78:	0005a683          	lw	a3,0(a1)
   16d7c:	02f12c23          	sw	a5,56(sp)
   16d80:	00f12c23          	sw	a5,24(sp)
   16d84:	01051793          	slli	a5,a0,0x10
   16d88:	0107d793          	srli	a5,a5,0x10
   16d8c:	00062703          	lw	a4,0(a2)
   16d90:	00462883          	lw	a7,4(a2)
   16d94:	00862583          	lw	a1,8(a2)
   16d98:	00c62f03          	lw	t5,12(a2)
   16d9c:	02a12e23          	sw	a0,60(sp)
   16da0:	00f12e23          	sw	a5,28(sp)
   16da4:	00151793          	slli	a5,a0,0x1
   16da8:	01f55513          	srli	a0,a0,0x1f
   16dac:	04912a23          	sw	s1,84(sp)
   16db0:	05212823          	sw	s2,80(sp)
   16db4:	03012a23          	sw	a6,52(sp)
   16db8:	01012a23          	sw	a6,20(sp)
   16dbc:	04112e23          	sw	ra,92(sp)
   16dc0:	05312623          	sw	s3,76(sp)
   16dc4:	05412423          	sw	s4,72(sp)
   16dc8:	05512223          	sw	s5,68(sp)
   16dcc:	02d12823          	sw	a3,48(sp)
   16dd0:	00d12823          	sw	a3,16(sp)
   16dd4:	0117d913          	srli	s2,a5,0x11
   16dd8:	00050493          	addi	s1,a0,0
   16ddc:	01010293          	addi	t0,sp,16
   16de0:	01c10813          	addi	a6,sp,28
   16de4:	00082783          	lw	a5,0(a6)
   16de8:	ffc82603          	lw	a2,-4(a6)
   16dec:	ffc80813          	addi	a6,a6,-4
   16df0:	00379793          	slli	a5,a5,0x3
   16df4:	01d65613          	srli	a2,a2,0x1d
   16df8:	00c7e7b3          	or	a5,a5,a2
   16dfc:	00f82223          	sw	a5,4(a6)
   16e00:	ff0292e3          	bne	t0,a6,16de4 <__subtf3+0x84>
   16e04:	010f1793          	slli	a5,t5,0x10
   16e08:	0107d793          	srli	a5,a5,0x10
   16e0c:	00369693          	slli	a3,a3,0x3
   16e10:	02f12623          	sw	a5,44(sp)
   16e14:	001f1793          	slli	a5,t5,0x1
   16e18:	03e12e23          	sw	t5,60(sp)
   16e1c:	00d12823          	sw	a3,16(sp)
   16e20:	02e12823          	sw	a4,48(sp)
   16e24:	03112a23          	sw	a7,52(sp)
   16e28:	02b12c23          	sw	a1,56(sp)
   16e2c:	02e12023          	sw	a4,32(sp)
   16e30:	03112223          	sw	a7,36(sp)
   16e34:	02b12423          	sw	a1,40(sp)
   16e38:	0117de13          	srli	t3,a5,0x11
   16e3c:	01ff5f13          	srli	t5,t5,0x1f
   16e40:	02010f93          	addi	t6,sp,32
   16e44:	02c10313          	addi	t1,sp,44
   16e48:	00032783          	lw	a5,0(t1)
   16e4c:	ffc32603          	lw	a2,-4(t1)
   16e50:	ffc30313          	addi	t1,t1,-4
   16e54:	00379793          	slli	a5,a5,0x3
   16e58:	01d65613          	srli	a2,a2,0x1d
   16e5c:	00c7e7b3          	or	a5,a5,a2
   16e60:	00f32223          	sw	a5,4(t1)
   16e64:	fe6f92e3          	bne	t6,t1,16e48 <__subtf3+0xe8>
   16e68:	00371713          	slli	a4,a4,0x3
   16e6c:	000087b7          	lui	a5,0x8
   16e70:	02e12023          	sw	a4,32(sp)
   16e74:	fff78793          	addi	a5,a5,-1 # 7fff <exit-0x80b5>
   16e78:	02fe1063          	bne	t3,a5,16e98 <__subtf3+0x138>
   16e7c:	02812603          	lw	a2,40(sp)
   16e80:	02412783          	lw	a5,36(sp)
   16e84:	00c7e7b3          	or	a5,a5,a2
   16e88:	02c12603          	lw	a2,44(sp)
   16e8c:	00c7e7b3          	or	a5,a5,a2
   16e90:	00e7e7b3          	or	a5,a5,a4
   16e94:	00079463          	bne	a5,zero,16e9c <__subtf3+0x13c>
   16e98:	001f4f13          	xori	t5,t5,1
   16e9c:	41c907b3          	sub	a5,s2,t3
   16ea0:	02af18e3          	bne	t5,a0,176d0 <__subtf3+0x970>
   16ea4:	38f05863          	bge	zero,a5,17234 <__subtf3+0x4d4>
   16ea8:	01412803          	lw	a6,20(sp)
   16eac:	01812e83          	lw	t4,24(sp)
   16eb0:	01c12883          	lw	a7,28(sp)
   16eb4:	0a0e1263          	bne	t3,zero,16f58 <__subtf3+0x1f8>
   16eb8:	02412503          	lw	a0,36(sp)
   16ebc:	02812583          	lw	a1,40(sp)
   16ec0:	02c12e03          	lw	t3,44(sp)
   16ec4:	00b56633          	or	a2,a0,a1
   16ec8:	01c66633          	or	a2,a2,t3
   16ecc:	00e66633          	or	a2,a2,a4
   16ed0:	00061c63          	bne	a2,zero,16ee8 <__subtf3+0x188>
   16ed4:	02d12823          	sw	a3,48(sp)
   16ed8:	03012a23          	sw	a6,52(sp)
   16edc:	03d12c23          	sw	t4,56(sp)
   16ee0:	03112e23          	sw	a7,60(sp)
   16ee4:	0940006f          	jal	zero,16f78 <__subtf3+0x218>
   16ee8:	fff78613          	addi	a2,a5,-1
   16eec:	04061863          	bne	a2,zero,16f3c <__subtf3+0x1dc>
   16ef0:	00e68633          	add	a2,a3,a4
   16ef4:	01050833          	add	a6,a0,a6
   16ef8:	00d636b3          	sltu	a3,a2,a3
   16efc:	00d806b3          	add	a3,a6,a3
   16f00:	02d12a23          	sw	a3,52(sp)
   16f04:	00a83533          	sltu	a0,a6,a0
   16f08:	0106b6b3          	sltu	a3,a3,a6
   16f0c:	01d58eb3          	add	t4,a1,t4
   16f10:	00d56533          	or	a0,a0,a3
   16f14:	00ae8533          	add	a0,t4,a0
   16f18:	02a12c23          	sw	a0,56(sp)
   16f1c:	00beb733          	sltu	a4,t4,a1
   16f20:	01d53533          	sltu	a0,a0,t4
   16f24:	00a76733          	or	a4,a4,a0
   16f28:	011e0e33          	add	t3,t3,a7
   16f2c:	02c12823          	sw	a2,48(sp)
   16f30:	01c70733          	add	a4,a4,t3
   16f34:	00100793          	addi	a5,zero,1
   16f38:	2ec0006f          	jal	zero,17224 <__subtf3+0x4c4>
   16f3c:	00008737          	lui	a4,0x8
   16f40:	fff70713          	addi	a4,a4,-1 # 7fff <exit-0x80b5>
   16f44:	00e78463          	beq	a5,a4,16f4c <__subtf3+0x1ec>
   16f48:	0dc0106f          	jal	zero,18024 <__subtf3+0x12c4>
   16f4c:	02d12823          	sw	a3,48(sp)
   16f50:	03012a23          	sw	a6,52(sp)
   16f54:	3840006f          	jal	zero,172d8 <__subtf3+0x578>
   16f58:	00008737          	lui	a4,0x8
   16f5c:	fff70713          	addi	a4,a4,-1 # 7fff <exit-0x80b5>
   16f60:	16e91263          	bne	s2,a4,170c4 <__subtf3+0x364>
   16f64:	02d12823          	sw	a3,48(sp)
   16f68:	03012a23          	sw	a6,52(sp)
   16f6c:	03d12c23          	sw	t4,56(sp)
   16f70:	03112e23          	sw	a7,60(sp)
   16f74:	00090793          	addi	a5,s2,0
   16f78:	03012703          	lw	a4,48(sp)
   16f7c:	00777693          	andi	a3,a4,7
   16f80:	04068663          	beq	a3,zero,16fcc <__subtf3+0x26c>
   16f84:	00f77693          	andi	a3,a4,15
   16f88:	00400613          	addi	a2,zero,4
   16f8c:	04c68063          	beq	a3,a2,16fcc <__subtf3+0x26c>
   16f90:	00c706b3          	add	a3,a4,a2
   16f94:	02d12823          	sw	a3,48(sp)
   16f98:	03412683          	lw	a3,52(sp)
   16f9c:	ffc73713          	sltiu	a4,a4,-4
   16fa0:	00173713          	sltiu	a4,a4,1
   16fa4:	00e68733          	add	a4,a3,a4
   16fa8:	02e12a23          	sw	a4,52(sp)
   16fac:	00d73733          	sltu	a4,a4,a3
   16fb0:	03812683          	lw	a3,56(sp)
   16fb4:	00e68733          	add	a4,a3,a4
   16fb8:	02e12c23          	sw	a4,56(sp)
   16fbc:	00d73733          	sltu	a4,a4,a3
   16fc0:	03c12683          	lw	a3,60(sp)
   16fc4:	00d70733          	add	a4,a4,a3
   16fc8:	02e12e23          	sw	a4,60(sp)
   16fcc:	03c12703          	lw	a4,60(sp)
   16fd0:	00c71693          	slli	a3,a4,0xc
   16fd4:	0206d463          	bge	a3,zero,16ffc <__subtf3+0x29c>
   16fd8:	000086b7          	lui	a3,0x8
   16fdc:	00178793          	addi	a5,a5,1
   16fe0:	fff68693          	addi	a3,a3,-1 # 7fff <exit-0x80b5>
   16fe4:	00d79463          	bne	a5,a3,16fec <__subtf3+0x28c>
   16fe8:	0240106f          	jal	zero,1800c <__subtf3+0x12ac>
   16fec:	fff806b7          	lui	a3,0xfff80
   16ff0:	fff68693          	addi	a3,a3,-1 # fff7ffff <__BSS_END__+0xfff6403f>
   16ff4:	00d77733          	and	a4,a4,a3
   16ff8:	02e12e23          	sw	a4,60(sp)
   16ffc:	03010693          	addi	a3,sp,48
   17000:	03c10513          	addi	a0,sp,60
   17004:	0006a603          	lw	a2,0(a3)
   17008:	0046a583          	lw	a1,4(a3)
   1700c:	00468693          	addi	a3,a3,4
   17010:	00365613          	srli	a2,a2,0x3
   17014:	01d59593          	slli	a1,a1,0x1d
   17018:	00b66633          	or	a2,a2,a1
   1701c:	fec6ae23          	sw	a2,-4(a3)
   17020:	fed512e3          	bne	a0,a3,17004 <__subtf3+0x2a4>
   17024:	00008637          	lui	a2,0x8
   17028:	fff60693          	addi	a3,a2,-1 # 7fff <exit-0x80b5>
   1702c:	00375713          	srli	a4,a4,0x3
   17030:	02d79a63          	bne	a5,a3,17064 <__subtf3+0x304>
   17034:	03412583          	lw	a1,52(sp)
   17038:	03012683          	lw	a3,48(sp)
   1703c:	00b6e6b3          	or	a3,a3,a1
   17040:	03812583          	lw	a1,56(sp)
   17044:	00b6e6b3          	or	a3,a3,a1
   17048:	00d76733          	or	a4,a4,a3
   1704c:	00070c63          	beq	a4,zero,17064 <__subtf3+0x304>
   17050:	02012c23          	sw	zero,56(sp)
   17054:	02012a23          	sw	zero,52(sp)
   17058:	02012823          	sw	zero,48(sp)
   1705c:	00060713          	addi	a4,a2,0
   17060:	00000493          	addi	s1,zero,0
   17064:	01179793          	slli	a5,a5,0x11
   17068:	0117d793          	srli	a5,a5,0x11
   1706c:	00f49493          	slli	s1,s1,0xf
   17070:	00f4e4b3          	or	s1,s1,a5
   17074:	03012783          	lw	a5,48(sp)
   17078:	00911723          	sh	s1,14(sp)
   1707c:	00e11623          	sh	a4,12(sp)
   17080:	00f42023          	sw	a5,0(s0)
   17084:	03412783          	lw	a5,52(sp)
   17088:	05c12083          	lw	ra,92(sp)
   1708c:	00040513          	addi	a0,s0,0
   17090:	00f42223          	sw	a5,4(s0)
   17094:	03812783          	lw	a5,56(sp)
   17098:	05412483          	lw	s1,84(sp)
   1709c:	05012903          	lw	s2,80(sp)
   170a0:	00f42423          	sw	a5,8(s0)
   170a4:	00c12783          	lw	a5,12(sp)
   170a8:	04c12983          	lw	s3,76(sp)
   170ac:	04812a03          	lw	s4,72(sp)
   170b0:	00f42623          	sw	a5,12(s0)
   170b4:	05812403          	lw	s0,88(sp)
   170b8:	04412a83          	lw	s5,68(sp)
   170bc:	06010113          	addi	sp,sp,96
   170c0:	00008067          	jalr	zero,0(ra)
   170c4:	02c12703          	lw	a4,44(sp)
   170c8:	00080637          	lui	a2,0x80
   170cc:	00c76733          	or	a4,a4,a2
   170d0:	02e12623          	sw	a4,44(sp)
   170d4:	07400713          	addi	a4,zero,116
   170d8:	74f74ae3          	blt	a4,a5,1802c <__subtf3+0x12cc>
   170dc:	00078613          	addi	a2,a5,0
   170e0:	40565793          	srai	a5,a2,0x5
   170e4:	01f67e13          	andi	t3,a2,31
   170e8:	00030593          	addi	a1,t1,0
   170ec:	00000613          	addi	a2,zero,0
   170f0:	00000713          	addi	a4,zero,0
   170f4:	02f71c63          	bne	a4,a5,1712c <__subtf3+0x3cc>
   170f8:	00300713          	addi	a4,zero,3
   170fc:	40f70733          	sub	a4,a4,a5
   17100:	00279393          	slli	t2,a5,0x2
   17104:	020e1e63          	bne	t3,zero,17140 <__subtf3+0x3e0>
   17108:	007305b3          	add	a1,t1,t2
   1710c:	0005a583          	lw	a1,0(a1)
   17110:	001e0e13          	addi	t3,t3,1
   17114:	00430313          	addi	t1,t1,4
   17118:	feb32e23          	sw	a1,-4(t1)
   1711c:	ffc756e3          	bge	a4,t3,17108 <__subtf3+0x3a8>
   17120:	00400713          	addi	a4,zero,4
   17124:	40f707b3          	sub	a5,a4,a5
   17128:	0580006f          	jal	zero,17180 <__subtf3+0x420>
   1712c:	0005a503          	lw	a0,0(a1)
   17130:	00170713          	addi	a4,a4,1
   17134:	00458593          	addi	a1,a1,4
   17138:	00a66633          	or	a2,a2,a0
   1713c:	fb9ff06f          	jal	zero,170f4 <__subtf3+0x394>
   17140:	007f85b3          	add	a1,t6,t2
   17144:	0005a583          	lw	a1,0(a1)
   17148:	02000513          	addi	a0,zero,32
   1714c:	41c50533          	sub	a0,a0,t3
   17150:	00a595b3          	sll	a1,a1,a0
   17154:	00b66633          	or	a2,a2,a1
   17158:	00730333          	add	t1,t1,t2
   1715c:	00000f13          	addi	t5,zero,0
   17160:	02ef4463          	blt	t5,a4,17188 <__subtf3+0x428>
   17164:	00400593          	addi	a1,zero,4
   17168:	40f587b3          	sub	a5,a1,a5
   1716c:	02c12583          	lw	a1,44(sp)
   17170:	00271713          	slli	a4,a4,0x2
   17174:	00ef8733          	add	a4,t6,a4
   17178:	01c5d5b3          	srl	a1,a1,t3
   1717c:	00b72023          	sw	a1,0(a4)
   17180:	00400593          	addi	a1,zero,4
   17184:	03c0006f          	jal	zero,171c0 <__subtf3+0x460>
   17188:	00032583          	lw	a1,0(t1)
   1718c:	00432283          	lw	t0,4(t1)
   17190:	407309b3          	sub	s3,t1,t2
   17194:	01c5d5b3          	srl	a1,a1,t3
   17198:	00a292b3          	sll	t0,t0,a0
   1719c:	0055e5b3          	or	a1,a1,t0
   171a0:	00b9a023          	sw	a1,0(s3)
   171a4:	001f0f13          	addi	t5,t5,1
   171a8:	00430313          	addi	t1,t1,4
   171ac:	fb5ff06f          	jal	zero,17160 <__subtf3+0x400>
   171b0:	00279713          	slli	a4,a5,0x2
   171b4:	00ef8733          	add	a4,t6,a4
   171b8:	00072023          	sw	zero,0(a4)
   171bc:	00178793          	addi	a5,a5,1
   171c0:	feb798e3          	bne	a5,a1,171b0 <__subtf3+0x450>
   171c4:	02012783          	lw	a5,32(sp)
   171c8:	00c03633          	sltu	a2,zero,a2
   171cc:	00f66633          	or	a2,a2,a5
   171d0:	02412783          	lw	a5,36(sp)
   171d4:	00c68633          	add	a2,a3,a2
   171d8:	02812703          	lw	a4,40(sp)
   171dc:	01078833          	add	a6,a5,a6
   171e0:	00d636b3          	sltu	a3,a2,a3
   171e4:	00d806b3          	add	a3,a6,a3
   171e8:	02d12a23          	sw	a3,52(sp)
   171ec:	00f837b3          	sltu	a5,a6,a5
   171f0:	0106b6b3          	sltu	a3,a3,a6
   171f4:	01d70eb3          	add	t4,a4,t4
   171f8:	00d7e7b3          	or	a5,a5,a3
   171fc:	00fe87b3          	add	a5,t4,a5
   17200:	02f12c23          	sw	a5,56(sp)
   17204:	00eeb733          	sltu	a4,t4,a4
   17208:	01d7b7b3          	sltu	a5,a5,t4
   1720c:	00f76733          	or	a4,a4,a5
   17210:	02c12783          	lw	a5,44(sp)
   17214:	02c12823          	sw	a2,48(sp)
   17218:	00f887b3          	add	a5,a7,a5
   1721c:	00f70733          	add	a4,a4,a5
   17220:	00090793          	addi	a5,s2,0
   17224:	00c71693          	slli	a3,a4,0xc
   17228:	4406c063          	blt	a3,zero,17668 <__subtf3+0x908>
   1722c:	02e12e23          	sw	a4,60(sp)
   17230:	d49ff06f          	jal	zero,16f78 <__subtf3+0x218>
   17234:	02412583          	lw	a1,36(sp)
   17238:	02812e83          	lw	t4,40(sp)
   1723c:	02c12883          	lw	a7,44(sp)
   17240:	22078e63          	beq	a5,zero,1747c <__subtf3+0x71c>
   17244:	412e07b3          	sub	a5,t3,s2
   17248:	0a091663          	bne	s2,zero,172f4 <__subtf3+0x594>
   1724c:	01412303          	lw	t1,20(sp)
   17250:	01812503          	lw	a0,24(sp)
   17254:	01c12f03          	lw	t5,28(sp)
   17258:	00a36633          	or	a2,t1,a0
   1725c:	01e66633          	or	a2,a2,t5
   17260:	00d66633          	or	a2,a2,a3
   17264:	00061863          	bne	a2,zero,17274 <__subtf3+0x514>
   17268:	02e12823          	sw	a4,48(sp)
   1726c:	02b12a23          	sw	a1,52(sp)
   17270:	c6dff06f          	jal	zero,16edc <__subtf3+0x17c>
   17274:	fff78913          	addi	s2,a5,-1
   17278:	04091663          	bne	s2,zero,172c4 <__subtf3+0x564>
   1727c:	00e68633          	add	a2,a3,a4
   17280:	00b305b3          	add	a1,t1,a1
   17284:	00d636b3          	sltu	a3,a2,a3
   17288:	00d586b3          	add	a3,a1,a3
   1728c:	02d12a23          	sw	a3,52(sp)
   17290:	0065b333          	sltu	t1,a1,t1
   17294:	00b6b6b3          	sltu	a3,a3,a1
   17298:	01d50eb3          	add	t4,a0,t4
   1729c:	00d36333          	or	t1,t1,a3
   172a0:	006e8333          	add	t1,t4,t1
   172a4:	02612c23          	sw	t1,56(sp)
   172a8:	00aeb733          	sltu	a4,t4,a0
   172ac:	01d33333          	sltu	t1,t1,t4
   172b0:	00676733          	or	a4,a4,t1
   172b4:	011f07b3          	add	a5,t5,a7
   172b8:	02c12823          	sw	a2,48(sp)
   172bc:	00f70733          	add	a4,a4,a5
   172c0:	c75ff06f          	jal	zero,16f34 <__subtf3+0x1d4>
   172c4:	000086b7          	lui	a3,0x8
   172c8:	fff68693          	addi	a3,a3,-1 # 7fff <exit-0x80b5>
   172cc:	56d79ae3          	bne	a5,a3,18040 <__subtf3+0x12e0>
   172d0:	02e12823          	sw	a4,48(sp)
   172d4:	02b12a23          	sw	a1,52(sp)
   172d8:	03d12c23          	sw	t4,56(sp)
   172dc:	03112e23          	sw	a7,60(sp)
   172e0:	000087b7          	lui	a5,0x8
   172e4:	fff78793          	addi	a5,a5,-1 # 7fff <exit-0x80b5>
   172e8:	c91ff06f          	jal	zero,16f78 <__subtf3+0x218>
   172ec:	00068713          	addi	a4,a3,0
   172f0:	fe1ff06f          	jal	zero,172d0 <__subtf3+0x570>
   172f4:	000086b7          	lui	a3,0x8
   172f8:	fff68693          	addi	a3,a3,-1 # 7fff <exit-0x80b5>
   172fc:	fcde0ae3          	beq	t3,a3,172d0 <__subtf3+0x570>
   17300:	01c12683          	lw	a3,28(sp)
   17304:	00080637          	lui	a2,0x80
   17308:	00c6e6b3          	or	a3,a3,a2
   1730c:	00d12e23          	sw	a3,28(sp)
   17310:	07400693          	addi	a3,zero,116
   17314:	52f6cae3          	blt	a3,a5,18048 <__subtf3+0x12e8>
   17318:	00078913          	addi	s2,a5,0
   1731c:	02000793          	addi	a5,zero,32
   17320:	02f947b3          	div	a5,s2,a5
   17324:	00080513          	addi	a0,a6,0
   17328:	00000613          	addi	a2,zero,0
   1732c:	00000693          	addi	a3,zero,0
   17330:	02f6ce63          	blt	a3,a5,1736c <__subtf3+0x60c>
   17334:	00300693          	addi	a3,zero,3
   17338:	01f97f13          	andi	t5,s2,31
   1733c:	40f68333          	sub	t1,a3,a5
   17340:	00279393          	slli	t2,a5,0x2
   17344:	020f1e63          	bne	t5,zero,17380 <__subtf3+0x620>
   17348:	007806b3          	add	a3,a6,t2
   1734c:	0006a683          	lw	a3,0(a3)
   17350:	001f0f13          	addi	t5,t5,1
   17354:	00480813          	addi	a6,a6,4
   17358:	fed82e23          	sw	a3,-4(a6)
   1735c:	ffe356e3          	bge	t1,t5,17348 <__subtf3+0x5e8>
   17360:	00400693          	addi	a3,zero,4
   17364:	40f687b3          	sub	a5,a3,a5
   17368:	06c0006f          	jal	zero,173d4 <__subtf3+0x674>
   1736c:	00052303          	lw	t1,0(a0)
   17370:	00168693          	addi	a3,a3,1
   17374:	00450513          	addi	a0,a0,4
   17378:	00666633          	or	a2,a2,t1
   1737c:	fb5ff06f          	jal	zero,17330 <__subtf3+0x5d0>
   17380:	02000f93          	addi	t6,zero,32
   17384:	03f96933          	rem	s2,s2,t6
   17388:	fff7c693          	xori	a3,a5,-1
   1738c:	41f6d693          	srai	a3,a3,0x1f
   17390:	00d7f6b3          	and	a3,a5,a3
   17394:	00269693          	slli	a3,a3,0x2
   17398:	00d286b3          	add	a3,t0,a3
   1739c:	0006a683          	lw	a3,0(a3)
   173a0:	00780833          	add	a6,a6,t2
   173a4:	412f8fb3          	sub	t6,t6,s2
   173a8:	01f696b3          	sll	a3,a3,t6
   173ac:	00d66633          	or	a2,a2,a3
   173b0:	00000693          	addi	a3,zero,0
   173b4:	0266c463          	blt	a3,t1,173dc <__subtf3+0x67c>
   173b8:	01c12503          	lw	a0,28(sp)
   173bc:	00400693          	addi	a3,zero,4
   173c0:	40f687b3          	sub	a5,a3,a5
   173c4:	00231693          	slli	a3,t1,0x2
   173c8:	00d286b3          	add	a3,t0,a3
   173cc:	01e55533          	srl	a0,a0,t5
   173d0:	00a6a023          	sw	a0,0(a3)
   173d4:	00300513          	addi	a0,zero,3
   173d8:	03c0006f          	jal	zero,17414 <__subtf3+0x6b4>
   173dc:	00082503          	lw	a0,0(a6)
   173e0:	00482903          	lw	s2,4(a6)
   173e4:	407809b3          	sub	s3,a6,t2
   173e8:	01e55533          	srl	a0,a0,t5
   173ec:	01f91933          	sll	s2,s2,t6
   173f0:	01256533          	or	a0,a0,s2
   173f4:	00a9a023          	sw	a0,0(s3)
   173f8:	00168693          	addi	a3,a3,1
   173fc:	00480813          	addi	a6,a6,4
   17400:	fb5ff06f          	jal	zero,173b4 <__subtf3+0x654>
   17404:	00279693          	slli	a3,a5,0x2
   17408:	00d286b3          	add	a3,t0,a3
   1740c:	0006a023          	sw	zero,0(a3)
   17410:	00178793          	addi	a5,a5,1
   17414:	fef558e3          	bge	a0,a5,17404 <__subtf3+0x6a4>
   17418:	01012783          	lw	a5,16(sp)
   1741c:	00c03633          	sltu	a2,zero,a2
   17420:	00f66633          	or	a2,a2,a5
   17424:	01412683          	lw	a3,20(sp)
   17428:	01812783          	lw	a5,24(sp)
   1742c:	00c70633          	add	a2,a4,a2
   17430:	00b685b3          	add	a1,a3,a1
   17434:	00e63733          	sltu	a4,a2,a4
   17438:	00e58733          	add	a4,a1,a4
   1743c:	01d78eb3          	add	t4,a5,t4
   17440:	02e12a23          	sw	a4,52(sp)
   17444:	00d5b6b3          	sltu	a3,a1,a3
   17448:	00b73733          	sltu	a4,a4,a1
   1744c:	00e6e6b3          	or	a3,a3,a4
   17450:	00feb733          	sltu	a4,t4,a5
   17454:	01c12783          	lw	a5,28(sp)
   17458:	00de86b3          	add	a3,t4,a3
   1745c:	02d12c23          	sw	a3,56(sp)
   17460:	01d6b6b3          	sltu	a3,a3,t4
   17464:	00f887b3          	add	a5,a7,a5
   17468:	00d76733          	or	a4,a4,a3
   1746c:	00f70733          	add	a4,a4,a5
   17470:	02c12823          	sw	a2,48(sp)
   17474:	000e0793          	addi	a5,t3,0
   17478:	dadff06f          	jal	zero,17224 <__subtf3+0x4c4>
   1747c:	00190793          	addi	a5,s2,1
   17480:	01179513          	slli	a0,a5,0x11
   17484:	01255513          	srli	a0,a0,0x12
   17488:	01412603          	lw	a2,20(sp)
   1748c:	01812303          	lw	t1,24(sp)
   17490:	01c12803          	lw	a6,28(sp)
   17494:	03010e13          	addi	t3,sp,48
   17498:	03c10f13          	addi	t5,sp,60
   1749c:	12051e63          	bne	a0,zero,175d8 <__subtf3+0x878>
   174a0:	006667b3          	or	a5,a2,t1
   174a4:	0107e7b3          	or	a5,a5,a6
   174a8:	00d7e7b3          	or	a5,a5,a3
   174ac:	0a091463          	bne	s2,zero,17554 <__subtf3+0x7f4>
   174b0:	00079a63          	bne	a5,zero,174c4 <__subtf3+0x764>
   174b4:	02e12823          	sw	a4,48(sp)
   174b8:	02b12a23          	sw	a1,52(sp)
   174bc:	03d12c23          	sw	t4,56(sp)
   174c0:	0240006f          	jal	zero,174e4 <__subtf3+0x784>
   174c4:	01d5e7b3          	or	a5,a1,t4
   174c8:	0117e7b3          	or	a5,a5,a7
   174cc:	00e7e7b3          	or	a5,a5,a4
   174d0:	02079063          	bne	a5,zero,174f0 <__subtf3+0x790>
   174d4:	02d12823          	sw	a3,48(sp)
   174d8:	02c12a23          	sw	a2,52(sp)
   174dc:	02612c23          	sw	t1,56(sp)
   174e0:	00080893          	addi	a7,a6,0
   174e4:	03112e23          	sw	a7,60(sp)
   174e8:	00000793          	addi	a5,zero,0
   174ec:	a8dff06f          	jal	zero,16f78 <__subtf3+0x218>
   174f0:	00e687b3          	add	a5,a3,a4
   174f4:	00b605b3          	add	a1,a2,a1
   174f8:	02f12823          	sw	a5,48(sp)
   174fc:	00d7b7b3          	sltu	a5,a5,a3
   17500:	00f587b3          	add	a5,a1,a5
   17504:	00c5b6b3          	sltu	a3,a1,a2
   17508:	02f12a23          	sw	a5,52(sp)
   1750c:	00b7b7b3          	sltu	a5,a5,a1
   17510:	01d30eb3          	add	t4,t1,t4
   17514:	00f6e6b3          	or	a3,a3,a5
   17518:	00de86b3          	add	a3,t4,a3
   1751c:	02d12c23          	sw	a3,56(sp)
   17520:	006eb733          	sltu	a4,t4,t1
   17524:	01d6b6b3          	sltu	a3,a3,t4
   17528:	00d76733          	or	a4,a4,a3
   1752c:	01180633          	add	a2,a6,a7
   17530:	00c708b3          	add	a7,a4,a2
   17534:	00c89793          	slli	a5,a7,0xc
   17538:	fa07d6e3          	bge	a5,zero,174e4 <__subtf3+0x784>
   1753c:	fff807b7          	lui	a5,0xfff80
   17540:	fff78793          	addi	a5,a5,-1 # fff7ffff <__BSS_END__+0xfff6403f>
   17544:	00f8f7b3          	and	a5,a7,a5
   17548:	02f12e23          	sw	a5,60(sp)
   1754c:	00100793          	addi	a5,zero,1
   17550:	a29ff06f          	jal	zero,16f78 <__subtf3+0x218>
   17554:	02078463          	beq	a5,zero,1757c <__subtf3+0x81c>
   17558:	01d5e5b3          	or	a1,a1,t4
   1755c:	0115e5b3          	or	a1,a1,a7
   17560:	00e5e5b3          	or	a1,a1,a4
   17564:	02059663          	bne	a1,zero,17590 <__subtf3+0x830>
   17568:	02d12823          	sw	a3,48(sp)
   1756c:	02c12a23          	sw	a2,52(sp)
   17570:	02612c23          	sw	t1,56(sp)
   17574:	03012e23          	sw	a6,60(sp)
   17578:	d69ff06f          	jal	zero,172e0 <__subtf3+0x580>
   1757c:	00070693          	addi	a3,a4,0
   17580:	00058613          	addi	a2,a1,0
   17584:	000e8313          	addi	t1,t4,0
   17588:	00088813          	addi	a6,a7,0 # 10000 <exit-0xb4>
   1758c:	fddff06f          	jal	zero,17568 <__subtf3+0x808>
   17590:	000087b7          	lui	a5,0x8
   17594:	02f12e23          	sw	a5,60(sp)
   17598:	02012c23          	sw	zero,56(sp)
   1759c:	02012a23          	sw	zero,52(sp)
   175a0:	02012823          	sw	zero,48(sp)
   175a4:	000f0793          	addi	a5,t5,0
   175a8:	0007a703          	lw	a4,0(a5) # 8000 <exit-0x80b4>
   175ac:	ffc7a683          	lw	a3,-4(a5)
   175b0:	ffc78793          	addi	a5,a5,-4
   175b4:	00371713          	slli	a4,a4,0x3
   175b8:	01d6d693          	srli	a3,a3,0x1d
   175bc:	00d76733          	or	a4,a4,a3
   175c0:	00e7a223          	sw	a4,4(a5)
   175c4:	fefe12e3          	bne	t3,a5,175a8 <__subtf3+0x848>
   175c8:	000087b7          	lui	a5,0x8
   175cc:	fff78793          	addi	a5,a5,-1 # 7fff <exit-0x80b5>
   175d0:	00000493          	addi	s1,zero,0
   175d4:	9a5ff06f          	jal	zero,16f78 <__subtf3+0x218>
   175d8:	00e68533          	add	a0,a3,a4
   175dc:	00b605b3          	add	a1,a2,a1
   175e0:	02a12823          	sw	a0,48(sp)
   175e4:	00d53533          	sltu	a0,a0,a3
   175e8:	00a58533          	add	a0,a1,a0
   175ec:	00c5b6b3          	sltu	a3,a1,a2
   175f0:	02a12a23          	sw	a0,52(sp)
   175f4:	00b53533          	sltu	a0,a0,a1
   175f8:	01d30eb3          	add	t4,t1,t4
   175fc:	00a6e6b3          	or	a3,a3,a0
   17600:	00de86b3          	add	a3,t4,a3
   17604:	02d12c23          	sw	a3,56(sp)
   17608:	006eb733          	sltu	a4,t4,t1
   1760c:	01d6b6b3          	sltu	a3,a3,t4
   17610:	00d76733          	or	a4,a4,a3
   17614:	01180633          	add	a2,a6,a7
   17618:	00c70733          	add	a4,a4,a2
   1761c:	02e12e23          	sw	a4,60(sp)
   17620:	000e0693          	addi	a3,t3,0
   17624:	0006a603          	lw	a2,0(a3)
   17628:	0046a583          	lw	a1,4(a3)
   1762c:	00468693          	addi	a3,a3,4
   17630:	00165613          	srli	a2,a2,0x1
   17634:	01f59593          	slli	a1,a1,0x1f
   17638:	00b66633          	or	a2,a2,a1
   1763c:	fec6ae23          	sw	a2,-4(a3)
   17640:	fedf12e3          	bne	t5,a3,17624 <__subtf3+0x8c4>
   17644:	000086b7          	lui	a3,0x8
   17648:	fff68693          	addi	a3,a3,-1 # 7fff <exit-0x80b5>
   1764c:	00175713          	srli	a4,a4,0x1
   17650:	bcd79ee3          	bne	a5,a3,1722c <__subtf3+0x4cc>
   17654:	02012e23          	sw	zero,60(sp)
   17658:	02012c23          	sw	zero,56(sp)
   1765c:	02012a23          	sw	zero,52(sp)
   17660:	02012823          	sw	zero,48(sp)
   17664:	915ff06f          	jal	zero,16f78 <__subtf3+0x218>
   17668:	fff806b7          	lui	a3,0xfff80
   1766c:	fff68693          	addi	a3,a3,-1 # fff7ffff <__BSS_END__+0xfff6403f>
   17670:	00d77733          	and	a4,a4,a3
   17674:	02e12e23          	sw	a4,60(sp)
   17678:	00178793          	addi	a5,a5,1
   1767c:	01f61613          	slli	a2,a2,0x1f
   17680:	03010693          	addi	a3,sp,48
   17684:	03c10813          	addi	a6,sp,60
   17688:	0006a583          	lw	a1,0(a3)
   1768c:	0046a503          	lw	a0,4(a3)
   17690:	00468693          	addi	a3,a3,4
   17694:	0015d593          	srli	a1,a1,0x1
   17698:	01f51513          	slli	a0,a0,0x1f
   1769c:	00a5e5b3          	or	a1,a1,a0
   176a0:	feb6ae23          	sw	a1,-4(a3)
   176a4:	fed812e3          	bne	a6,a3,17688 <__subtf3+0x928>
   176a8:	00175713          	srli	a4,a4,0x1
   176ac:	02e12e23          	sw	a4,60(sp)
   176b0:	03012703          	lw	a4,48(sp)
   176b4:	01f65613          	srli	a2,a2,0x1f
   176b8:	00c76733          	or	a4,a4,a2
   176bc:	02e12823          	sw	a4,48(sp)
   176c0:	00008737          	lui	a4,0x8
   176c4:	fff70713          	addi	a4,a4,-1 # 7fff <exit-0x80b5>
   176c8:	8ae798e3          	bne	a5,a4,16f78 <__subtf3+0x218>
   176cc:	f89ff06f          	jal	zero,17654 <__subtf3+0x8f4>
   176d0:	24f05c63          	bge	zero,a5,17928 <__subtf3+0xbc8>
   176d4:	01412583          	lw	a1,20(sp)
   176d8:	01812e83          	lw	t4,24(sp)
   176dc:	01c12883          	lw	a7,28(sp)
   176e0:	0a0e1463          	bne	t3,zero,17788 <__subtf3+0xa28>
   176e4:	02412e03          	lw	t3,36(sp)
   176e8:	02812f03          	lw	t5,40(sp)
   176ec:	02c12503          	lw	a0,44(sp)
   176f0:	01ee6633          	or	a2,t3,t5
   176f4:	00a66633          	or	a2,a2,a0
   176f8:	00e66633          	or	a2,a2,a4
   176fc:	00061663          	bne	a2,zero,17708 <__subtf3+0x9a8>
   17700:	02d12823          	sw	a3,48(sp)
   17704:	b69ff06f          	jal	zero,1726c <__subtf3+0x50c>
   17708:	fff78613          	addi	a2,a5,-1
   1770c:	04061a63          	bne	a2,zero,17760 <__subtf3+0xa00>
   17710:	41c587b3          	sub	a5,a1,t3
   17714:	40e68633          	sub	a2,a3,a4
   17718:	40be0e33          	sub	t3,t3,a1
   1771c:	00c6b6b3          	sltu	a3,a3,a2
   17720:	001e3e13          	sltiu	t3,t3,1
   17724:	40d78833          	sub	a6,a5,a3
   17728:	01c6f6b3          	and	a3,a3,t3
   1772c:	00f5b7b3          	sltu	a5,a1,a5
   17730:	00d7e7b3          	or	a5,a5,a3
   17734:	41df06b3          	sub	a3,t5,t4
   17738:	41ee85b3          	sub	a1,t4,t5
   1773c:	0016b693          	sltiu	a3,a3,1
   17740:	40f58733          	sub	a4,a1,a5
   17744:	00d7f7b3          	and	a5,a5,a3
   17748:	00beb5b3          	sltu	a1,t4,a1
   1774c:	40a88533          	sub	a0,a7,a0
   17750:	00f5e5b3          	or	a1,a1,a5
   17754:	40b50533          	sub	a0,a0,a1
   17758:	00100793          	addi	a5,zero,1
   1775c:	19c0006f          	jal	zero,178f8 <__subtf3+0xb98>
   17760:	00008737          	lui	a4,0x8
   17764:	fff70713          	addi	a4,a4,-1 # 7fff <exit-0x80b5>
   17768:	f8e78ce3          	beq	a5,a4,17700 <__subtf3+0x9a0>
   1776c:	07400793          	addi	a5,zero,116
   17770:	04c7d063          	bge	a5,a2,177b0 <__subtf3+0xa50>
   17774:	02012623          	sw	zero,44(sp)
   17778:	02012423          	sw	zero,40(sp)
   1777c:	02012223          	sw	zero,36(sp)
   17780:	00100613          	addi	a2,zero,1
   17784:	11c0006f          	jal	zero,178a0 <__subtf3+0xb40>
   17788:	00008737          	lui	a4,0x8
   1778c:	fff70713          	addi	a4,a4,-1 # 7fff <exit-0x80b5>
   17790:	b4e90ee3          	beq	s2,a4,172ec <__subtf3+0x58c>
   17794:	02c12703          	lw	a4,44(sp)
   17798:	00080637          	lui	a2,0x80
   1779c:	00c76733          	or	a4,a4,a2
   177a0:	02e12623          	sw	a4,44(sp)
   177a4:	07400713          	addi	a4,zero,116
   177a8:	fcf746e3          	blt	a4,a5,17774 <__subtf3+0xa14>
   177ac:	00078613          	addi	a2,a5,0
   177b0:	40565793          	srai	a5,a2,0x5
   177b4:	01f67e13          	andi	t3,a2,31
   177b8:	00030513          	addi	a0,t1,0
   177bc:	00000613          	addi	a2,zero,0
   177c0:	00000713          	addi	a4,zero,0
   177c4:	02f71c63          	bne	a4,a5,177fc <__subtf3+0xa9c>
   177c8:	00300713          	addi	a4,zero,3
   177cc:	40f70733          	sub	a4,a4,a5
   177d0:	00279393          	slli	t2,a5,0x2
   177d4:	020e1e63          	bne	t3,zero,17810 <__subtf3+0xab0>
   177d8:	00730533          	add	a0,t1,t2
   177dc:	00052503          	lw	a0,0(a0)
   177e0:	001e0e13          	addi	t3,t3,1
   177e4:	00430313          	addi	t1,t1,4
   177e8:	fea32e23          	sw	a0,-4(t1)
   177ec:	ffc756e3          	bge	a4,t3,177d8 <__subtf3+0xa78>
   177f0:	00400713          	addi	a4,zero,4
   177f4:	40f707b3          	sub	a5,a4,a5
   177f8:	0580006f          	jal	zero,17850 <__subtf3+0xaf0>
   177fc:	00052803          	lw	a6,0(a0)
   17800:	00170713          	addi	a4,a4,1
   17804:	00450513          	addi	a0,a0,4
   17808:	01066633          	or	a2,a2,a6
   1780c:	fb9ff06f          	jal	zero,177c4 <__subtf3+0xa64>
   17810:	007f8533          	add	a0,t6,t2
   17814:	00052503          	lw	a0,0(a0)
   17818:	02000813          	addi	a6,zero,32
   1781c:	41c80833          	sub	a6,a6,t3
   17820:	01051533          	sll	a0,a0,a6
   17824:	00a66633          	or	a2,a2,a0
   17828:	00730333          	add	t1,t1,t2
   1782c:	00000f13          	addi	t5,zero,0
   17830:	02ef4463          	blt	t5,a4,17858 <__subtf3+0xaf8>
   17834:	00400513          	addi	a0,zero,4
   17838:	40f507b3          	sub	a5,a0,a5
   1783c:	02c12503          	lw	a0,44(sp)
   17840:	00271713          	slli	a4,a4,0x2
   17844:	00ef8733          	add	a4,t6,a4
   17848:	01c55533          	srl	a0,a0,t3
   1784c:	00a72023          	sw	a0,0(a4)
   17850:	00400513          	addi	a0,zero,4
   17854:	03c0006f          	jal	zero,17890 <__subtf3+0xb30>
   17858:	00032503          	lw	a0,0(t1)
   1785c:	00432283          	lw	t0,4(t1)
   17860:	407309b3          	sub	s3,t1,t2
   17864:	01c55533          	srl	a0,a0,t3
   17868:	010292b3          	sll	t0,t0,a6
   1786c:	00556533          	or	a0,a0,t0
   17870:	00a9a023          	sw	a0,0(s3)
   17874:	001f0f13          	addi	t5,t5,1
   17878:	00430313          	addi	t1,t1,4
   1787c:	fb5ff06f          	jal	zero,17830 <__subtf3+0xad0>
   17880:	00279713          	slli	a4,a5,0x2
   17884:	00ef8733          	add	a4,t6,a4
   17888:	00072023          	sw	zero,0(a4)
   1788c:	00178793          	addi	a5,a5,1
   17890:	fea798e3          	bne	a5,a0,17880 <__subtf3+0xb20>
   17894:	02012783          	lw	a5,32(sp)
   17898:	00c03633          	sltu	a2,zero,a2
   1789c:	00f66633          	or	a2,a2,a5
   178a0:	02412703          	lw	a4,36(sp)
   178a4:	40c68633          	sub	a2,a3,a2
   178a8:	00c6b6b3          	sltu	a3,a3,a2
   178ac:	40e587b3          	sub	a5,a1,a4
   178b0:	40d78833          	sub	a6,a5,a3
   178b4:	40b70733          	sub	a4,a4,a1
   178b8:	00f5b7b3          	sltu	a5,a1,a5
   178bc:	02812583          	lw	a1,40(sp)
   178c0:	00173713          	sltiu	a4,a4,1
   178c4:	00e6f6b3          	and	a3,a3,a4
   178c8:	00d7e7b3          	or	a5,a5,a3
   178cc:	02c12503          	lw	a0,44(sp)
   178d0:	40be86b3          	sub	a3,t4,a1
   178d4:	41d585b3          	sub	a1,a1,t4
   178d8:	0015b593          	sltiu	a1,a1,1
   178dc:	40f68733          	sub	a4,a3,a5
   178e0:	00b7f7b3          	and	a5,a5,a1
   178e4:	00deb6b3          	sltu	a3,t4,a3
   178e8:	00f6e6b3          	or	a3,a3,a5
   178ec:	40a88533          	sub	a0,a7,a0
   178f0:	40d50533          	sub	a0,a0,a3
   178f4:	00090793          	addi	a5,s2,0
   178f8:	02e12c23          	sw	a4,56(sp)
   178fc:	02a12e23          	sw	a0,60(sp)
   17900:	03012a23          	sw	a6,52(sp)
   17904:	02c12823          	sw	a2,48(sp)
   17908:	00c51713          	slli	a4,a0,0xc
   1790c:	e6075663          	bge	a4,zero,16f78 <__subtf3+0x218>
   17910:	00080737          	lui	a4,0x80
   17914:	fff70713          	addi	a4,a4,-1 # 7ffff <__BSS_END__+0x6403f>
   17918:	00e57533          	and	a0,a0,a4
   1791c:	02a12e23          	sw	a0,60(sp)
   17920:	00078913          	addi	s2,a5,0
   17924:	4c40006f          	jal	zero,17de8 <__subtf3+0x1088>
   17928:	02412303          	lw	t1,36(sp)
   1792c:	02812583          	lw	a1,40(sp)
   17930:	02c12f83          	lw	t6,44(sp)
   17934:	24078663          	beq	a5,zero,17b80 <__subtf3+0xe20>
   17938:	412e07b3          	sub	a5,t3,s2
   1793c:	0a091a63          	bne	s2,zero,179f0 <__subtf3+0xc90>
   17940:	01412883          	lw	a7,20(sp)
   17944:	01812e83          	lw	t4,24(sp)
   17948:	01c12503          	lw	a0,28(sp)
   1794c:	01d8e633          	or	a2,a7,t4
   17950:	00a66633          	or	a2,a2,a0
   17954:	00d66633          	or	a2,a2,a3
   17958:	00061e63          	bne	a2,zero,17974 <__subtf3+0xc14>
   1795c:	02e12823          	sw	a4,48(sp)
   17960:	02612a23          	sw	t1,52(sp)
   17964:	02b12c23          	sw	a1,56(sp)
   17968:	03f12e23          	sw	t6,60(sp)
   1796c:	000f0493          	addi	s1,t5,0
   17970:	e08ff06f          	jal	zero,16f78 <__subtf3+0x218>
   17974:	fff78913          	addi	s2,a5,-1
   17978:	04091a63          	bne	s2,zero,179cc <__subtf3+0xc6c>
   1797c:	411307b3          	sub	a5,t1,a7
   17980:	40d70633          	sub	a2,a4,a3
   17984:	406888b3          	sub	a7,a7,t1
   17988:	00c73733          	sltu	a4,a4,a2
   1798c:	0018b893          	sltiu	a7,a7,1
   17990:	40e78833          	sub	a6,a5,a4
   17994:	40be86b3          	sub	a3,t4,a1
   17998:	01177733          	and	a4,a4,a7
   1799c:	00f337b3          	sltu	a5,t1,a5
   179a0:	00e7e7b3          	or	a5,a5,a4
   179a4:	41d588b3          	sub	a7,a1,t4
   179a8:	0016b693          	sltiu	a3,a3,1
   179ac:	40f88733          	sub	a4,a7,a5
   179b0:	00d7f7b3          	and	a5,a5,a3
   179b4:	0115b8b3          	sltu	a7,a1,a7
   179b8:	40af8533          	sub	a0,t6,a0
   179bc:	00f8e8b3          	or	a7,a7,a5
   179c0:	41150533          	sub	a0,a0,a7
   179c4:	000f0493          	addi	s1,t5,0
   179c8:	d91ff06f          	jal	zero,17758 <__subtf3+0x9f8>
   179cc:	000086b7          	lui	a3,0x8
   179d0:	fff68693          	addi	a3,a3,-1 # 7fff <exit-0x80b5>
   179d4:	68d79463          	bne	a5,a3,1805c <__subtf3+0x12fc>
   179d8:	02e12823          	sw	a4,48(sp)
   179dc:	02612a23          	sw	t1,52(sp)
   179e0:	02b12c23          	sw	a1,56(sp)
   179e4:	03f12e23          	sw	t6,60(sp)
   179e8:	000f0493          	addi	s1,t5,0
   179ec:	8f5ff06f          	jal	zero,172e0 <__subtf3+0x580>
   179f0:	000086b7          	lui	a3,0x8
   179f4:	fff68693          	addi	a3,a3,-1 # 7fff <exit-0x80b5>
   179f8:	fede00e3          	beq	t3,a3,179d8 <__subtf3+0xc78>
   179fc:	01c12683          	lw	a3,28(sp)
   17a00:	00080637          	lui	a2,0x80
   17a04:	00c6e6b3          	or	a3,a3,a2
   17a08:	00d12e23          	sw	a3,28(sp)
   17a0c:	07400693          	addi	a3,zero,116
   17a10:	64f6ca63          	blt	a3,a5,18064 <__subtf3+0x1304>
   17a14:	00078913          	addi	s2,a5,0
   17a18:	02000793          	addi	a5,zero,32
   17a1c:	02f947b3          	div	a5,s2,a5
   17a20:	00080513          	addi	a0,a6,0
   17a24:	00000613          	addi	a2,zero,0
   17a28:	00000693          	addi	a3,zero,0
   17a2c:	02f6ce63          	blt	a3,a5,17a68 <__subtf3+0xd08>
   17a30:	00300693          	addi	a3,zero,3
   17a34:	01f97e93          	andi	t4,s2,31
   17a38:	40f688b3          	sub	a7,a3,a5
   17a3c:	00279493          	slli	s1,a5,0x2
   17a40:	020e9e63          	bne	t4,zero,17a7c <__subtf3+0xd1c>
   17a44:	009806b3          	add	a3,a6,s1
   17a48:	0006a683          	lw	a3,0(a3)
   17a4c:	001e8e93          	addi	t4,t4,1
   17a50:	00480813          	addi	a6,a6,4
   17a54:	fed82e23          	sw	a3,-4(a6)
   17a58:	ffd8d6e3          	bge	a7,t4,17a44 <__subtf3+0xce4>
   17a5c:	00400693          	addi	a3,zero,4
   17a60:	40f687b3          	sub	a5,a3,a5
   17a64:	06c0006f          	jal	zero,17ad0 <__subtf3+0xd70>
   17a68:	00052883          	lw	a7,0(a0)
   17a6c:	00168693          	addi	a3,a3,1
   17a70:	00450513          	addi	a0,a0,4
   17a74:	01166633          	or	a2,a2,a7
   17a78:	fb5ff06f          	jal	zero,17a2c <__subtf3+0xccc>
   17a7c:	02000393          	addi	t2,zero,32
   17a80:	02796933          	rem	s2,s2,t2
   17a84:	fff7c693          	xori	a3,a5,-1
   17a88:	41f6d693          	srai	a3,a3,0x1f
   17a8c:	00d7f6b3          	and	a3,a5,a3
   17a90:	00269693          	slli	a3,a3,0x2
   17a94:	00d286b3          	add	a3,t0,a3
   17a98:	0006a683          	lw	a3,0(a3)
   17a9c:	00980833          	add	a6,a6,s1
   17aa0:	412383b3          	sub	t2,t2,s2
   17aa4:	007696b3          	sll	a3,a3,t2
   17aa8:	00d66633          	or	a2,a2,a3
   17aac:	00000693          	addi	a3,zero,0
   17ab0:	0316c463          	blt	a3,a7,17ad8 <__subtf3+0xd78>
   17ab4:	01c12503          	lw	a0,28(sp)
   17ab8:	00400693          	addi	a3,zero,4
   17abc:	40f687b3          	sub	a5,a3,a5
   17ac0:	00289693          	slli	a3,a7,0x2
   17ac4:	00d286b3          	add	a3,t0,a3
   17ac8:	01d55533          	srl	a0,a0,t4
   17acc:	00a6a023          	sw	a0,0(a3)
   17ad0:	00300513          	addi	a0,zero,3
   17ad4:	03c0006f          	jal	zero,17b10 <__subtf3+0xdb0>
   17ad8:	00082503          	lw	a0,0(a6)
   17adc:	00482903          	lw	s2,4(a6)
   17ae0:	409809b3          	sub	s3,a6,s1
   17ae4:	01d55533          	srl	a0,a0,t4
   17ae8:	00791933          	sll	s2,s2,t2
   17aec:	01256533          	or	a0,a0,s2
   17af0:	00a9a023          	sw	a0,0(s3)
   17af4:	00168693          	addi	a3,a3,1
   17af8:	00480813          	addi	a6,a6,4
   17afc:	fb5ff06f          	jal	zero,17ab0 <__subtf3+0xd50>
   17b00:	00279693          	slli	a3,a5,0x2
   17b04:	00d286b3          	add	a3,t0,a3
   17b08:	0006a023          	sw	zero,0(a3)
   17b0c:	00178793          	addi	a5,a5,1
   17b10:	fef558e3          	bge	a0,a5,17b00 <__subtf3+0xda0>
   17b14:	01012783          	lw	a5,16(sp)
   17b18:	00c03633          	sltu	a2,zero,a2
   17b1c:	00f66633          	or	a2,a2,a5
   17b20:	01412683          	lw	a3,20(sp)
   17b24:	01812883          	lw	a7,24(sp)
   17b28:	40c70633          	sub	a2,a4,a2
   17b2c:	40d307b3          	sub	a5,t1,a3
   17b30:	406686b3          	sub	a3,a3,t1
   17b34:	00c73733          	sltu	a4,a4,a2
   17b38:	0016b693          	sltiu	a3,a3,1
   17b3c:	40e78833          	sub	a6,a5,a4
   17b40:	01c12503          	lw	a0,28(sp)
   17b44:	00d77733          	and	a4,a4,a3
   17b48:	00f337b3          	sltu	a5,t1,a5
   17b4c:	411586b3          	sub	a3,a1,a7
   17b50:	40b888b3          	sub	a7,a7,a1
   17b54:	00e7e7b3          	or	a5,a5,a4
   17b58:	0018b893          	sltiu	a7,a7,1
   17b5c:	40f68733          	sub	a4,a3,a5
   17b60:	0117f7b3          	and	a5,a5,a7
   17b64:	00d5b6b3          	sltu	a3,a1,a3
   17b68:	00f6e6b3          	or	a3,a3,a5
   17b6c:	40af8533          	sub	a0,t6,a0
   17b70:	40d50533          	sub	a0,a0,a3
   17b74:	000e0793          	addi	a5,t3,0
   17b78:	000f0493          	addi	s1,t5,0
   17b7c:	d7dff06f          	jal	zero,178f8 <__subtf3+0xb98>
   17b80:	00190613          	addi	a2,s2,1
   17b84:	01161e13          	slli	t3,a2,0x11
   17b88:	012e5e13          	srli	t3,t3,0x12
   17b8c:	01412803          	lw	a6,20(sp)
   17b90:	01812e83          	lw	t4,24(sp)
   17b94:	01c12883          	lw	a7,28(sp)
   17b98:	000082b7          	lui	t0,0x8
   17b9c:	1a0e1463          	bne	t3,zero,17d44 <__subtf3+0xfe4>
   17ba0:	00b36633          	or	a2,t1,a1
   17ba4:	01d86e33          	or	t3,a6,t4
   17ba8:	01f66633          	or	a2,a2,t6
   17bac:	011e6e33          	or	t3,t3,a7
   17bb0:	00e66633          	or	a2,a2,a4
   17bb4:	00de6e33          	or	t3,t3,a3
   17bb8:	0e091863          	bne	s2,zero,17ca8 <__subtf3+0xf48>
   17bbc:	020e1063          	bne	t3,zero,17bdc <__subtf3+0xe7c>
   17bc0:	00c03633          	sltu	a2,zero,a2
   17bc4:	02e12823          	sw	a4,48(sp)
   17bc8:	02612a23          	sw	t1,52(sp)
   17bcc:	02b12c23          	sw	a1,56(sp)
   17bd0:	03f12e23          	sw	t6,60(sp)
   17bd4:	01e674b3          	and	s1,a2,t5
   17bd8:	ba0ff06f          	jal	zero,16f78 <__subtf3+0x218>
   17bdc:	00061863          	bne	a2,zero,17bec <__subtf3+0xe8c>
   17be0:	02d12823          	sw	a3,48(sp)
   17be4:	03012a23          	sw	a6,52(sp)
   17be8:	8d5ff06f          	jal	zero,174bc <__subtf3+0x75c>
   17bec:	40680633          	sub	a2,a6,t1
   17bf0:	40e684b3          	sub	s1,a3,a4
   17bf4:	0096be33          	sltu	t3,a3,s1
   17bf8:	00163913          	sltiu	s2,a2,1
   17bfc:	41c609b3          	sub	s3,a2,t3
   17c00:	40be82b3          	sub	t0,t4,a1
   17c04:	012e7e33          	and	t3,t3,s2
   17c08:	00c83633          	sltu	a2,a6,a2
   17c0c:	01c66633          	or	a2,a2,t3
   17c10:	0012b393          	sltiu	t2,t0,1
   17c14:	40c28a33          	sub	s4,t0,a2
   17c18:	00c3f633          	and	a2,t2,a2
   17c1c:	005eb2b3          	sltu	t0,t4,t0
   17c20:	00c2e2b3          	or	t0,t0,a2
   17c24:	41f88633          	sub	a2,a7,t6
   17c28:	40560633          	sub	a2,a2,t0
   17c2c:	02c12e23          	sw	a2,60(sp)
   17c30:	03412c23          	sw	s4,56(sp)
   17c34:	03312a23          	sw	s3,52(sp)
   17c38:	02912823          	sw	s1,48(sp)
   17c3c:	00c61e13          	slli	t3,a2,0xc
   17c40:	040e5863          	bge	t3,zero,17c90 <__subtf3+0xf30>
   17c44:	40d706b3          	sub	a3,a4,a3
   17c48:	00d73733          	sltu	a4,a4,a3
   17c4c:	41030833          	sub	a6,t1,a6
   17c50:	40e80633          	sub	a2,a6,a4
   17c54:	01033833          	sltu	a6,t1,a6
   17c58:	01277733          	and	a4,a4,s2
   17c5c:	00e86833          	or	a6,a6,a4
   17c60:	41d58eb3          	sub	t4,a1,t4
   17c64:	01d5b5b3          	sltu	a1,a1,t4
   17c68:	0103f3b3          	and	t2,t2,a6
   17c6c:	411f8fb3          	sub	t6,t6,a7
   17c70:	0075e5b3          	or	a1,a1,t2
   17c74:	40bf8fb3          	sub	t6,t6,a1
   17c78:	410e8eb3          	sub	t4,t4,a6
   17c7c:	03f12e23          	sw	t6,60(sp)
   17c80:	03d12c23          	sw	t4,56(sp)
   17c84:	02c12a23          	sw	a2,52(sp)
   17c88:	02d12823          	sw	a3,48(sp)
   17c8c:	ce1ff06f          	jal	zero,1796c <__subtf3+0xc0c>
   17c90:	0134e4b3          	or	s1,s1,s3
   17c94:	0144e4b3          	or	s1,s1,s4
   17c98:	00c4e4b3          	or	s1,s1,a2
   17c9c:	009034b3          	sltu	s1,zero,s1
   17ca0:	009574b3          	and	s1,a0,s1
   17ca4:	ad4ff06f          	jal	zero,16f78 <__subtf3+0x218>
   17ca8:	03010513          	addi	a0,sp,48
   17cac:	040e1e63          	bne	t3,zero,17d08 <__subtf3+0xfa8>
   17cb0:	02061e63          	bne	a2,zero,17cec <__subtf3+0xf8c>
   17cb4:	02512e23          	sw	t0,60(sp)
   17cb8:	02012c23          	sw	zero,56(sp)
   17cbc:	02012a23          	sw	zero,52(sp)
   17cc0:	02012823          	sw	zero,48(sp)
   17cc4:	03c10793          	addi	a5,sp,60
   17cc8:	0007a703          	lw	a4,0(a5)
   17ccc:	ffc7a683          	lw	a3,-4(a5)
   17cd0:	ffc78793          	addi	a5,a5,-4
   17cd4:	00371713          	slli	a4,a4,0x3
   17cd8:	01d6d693          	srli	a3,a3,0x1d
   17cdc:	00d76733          	or	a4,a4,a3
   17ce0:	00e7a223          	sw	a4,4(a5)
   17ce4:	fef512e3          	bne	a0,a5,17cc8 <__subtf3+0xf68>
   17ce8:	8e1ff06f          	jal	zero,175c8 <__subtf3+0x868>
   17cec:	02e12823          	sw	a4,48(sp)
   17cf0:	02612a23          	sw	t1,52(sp)
   17cf4:	02b12c23          	sw	a1,56(sp)
   17cf8:	03f12e23          	sw	t6,60(sp)
   17cfc:	000f0493          	addi	s1,t5,0
   17d00:	fff28793          	addi	a5,t0,-1 # 7fff <exit-0x80b5>
   17d04:	a74ff06f          	jal	zero,16f78 <__subtf3+0x218>
   17d08:	a4060263          	beq	a2,zero,16f4c <__subtf3+0x1ec>
   17d0c:	02512e23          	sw	t0,60(sp)
   17d10:	02012c23          	sw	zero,56(sp)
   17d14:	02012a23          	sw	zero,52(sp)
   17d18:	02012823          	sw	zero,48(sp)
   17d1c:	03c10793          	addi	a5,sp,60
   17d20:	0007a703          	lw	a4,0(a5)
   17d24:	ffc7a683          	lw	a3,-4(a5)
   17d28:	ffc78793          	addi	a5,a5,-4
   17d2c:	00371713          	slli	a4,a4,0x3
   17d30:	01d6d693          	srli	a3,a3,0x1d
   17d34:	00d76733          	or	a4,a4,a3
   17d38:	00e7a223          	sw	a4,4(a5)
   17d3c:	fef512e3          	bne	a0,a5,17d20 <__subtf3+0xfc0>
   17d40:	889ff06f          	jal	zero,175c8 <__subtf3+0x868>
   17d44:	40680633          	sub	a2,a6,t1
   17d48:	40e682b3          	sub	t0,a3,a4
   17d4c:	0056b533          	sltu	a0,a3,t0
   17d50:	00163993          	sltiu	s3,a2,1
   17d54:	40a60a33          	sub	s4,a2,a0
   17d58:	40be8e33          	sub	t3,t4,a1
   17d5c:	01357533          	and	a0,a0,s3
   17d60:	00c83633          	sltu	a2,a6,a2
   17d64:	00a66633          	or	a2,a2,a0
   17d68:	001e3393          	sltiu	t2,t3,1
   17d6c:	40ce0ab3          	sub	s5,t3,a2
   17d70:	00c3f633          	and	a2,t2,a2
   17d74:	01cebe33          	sltu	t3,t4,t3
   17d78:	00ce6e33          	or	t3,t3,a2
   17d7c:	41f88533          	sub	a0,a7,t6
   17d80:	41c50533          	sub	a0,a0,t3
   17d84:	02a12e23          	sw	a0,60(sp)
   17d88:	03512c23          	sw	s5,56(sp)
   17d8c:	03412a23          	sw	s4,52(sp)
   17d90:	02512823          	sw	t0,48(sp)
   17d94:	00c51613          	slli	a2,a0,0xc
   17d98:	0a065463          	bge	a2,zero,17e40 <__subtf3+0x10e0>
   17d9c:	40d706b3          	sub	a3,a4,a3
   17da0:	00d73733          	sltu	a4,a4,a3
   17da4:	41030833          	sub	a6,t1,a6
   17da8:	40e807b3          	sub	a5,a6,a4
   17dac:	01377733          	and	a4,a4,s3
   17db0:	01033833          	sltu	a6,t1,a6
   17db4:	00e86833          	or	a6,a6,a4
   17db8:	41d58eb3          	sub	t4,a1,t4
   17dbc:	01d5b5b3          	sltu	a1,a1,t4
   17dc0:	007873b3          	and	t2,a6,t2
   17dc4:	411f8533          	sub	a0,t6,a7
   17dc8:	0075e5b3          	or	a1,a1,t2
   17dcc:	40b50533          	sub	a0,a0,a1
   17dd0:	410e8eb3          	sub	t4,t4,a6
   17dd4:	02a12e23          	sw	a0,60(sp)
   17dd8:	03d12c23          	sw	t4,56(sp)
   17ddc:	02f12a23          	sw	a5,52(sp)
   17de0:	02d12823          	sw	a3,48(sp)
   17de4:	000f0493          	addi	s1,t5,0
   17de8:	06050663          	beq	a0,zero,17e54 <__subtf3+0x10f4>
   17dec:	7cc000ef          	jal	ra,185b8 <__clzsi2>
   17df0:	ff450793          	addi	a5,a0,-12
   17df4:	02000613          	addi	a2,zero,32
   17df8:	01f7f813          	andi	a6,a5,31
   17dfc:	02c7c6b3          	div	a3,a5,a2
   17e00:	03c10713          	addi	a4,sp,60
   17e04:	08080463          	beq	a6,zero,17e8c <__subtf3+0x112c>
   17e08:	00269893          	slli	a7,a3,0x2
   17e0c:	03010513          	addi	a0,sp,48
   17e10:	41170733          	sub	a4,a4,a7
   17e14:	02c7e5b3          	rem	a1,a5,a2
   17e18:	40b60633          	sub	a2,a2,a1
   17e1c:	08e51e63          	bne	a0,a4,17eb8 <__subtf3+0x1158>
   17e20:	fff68713          	addi	a4,a3,-1
   17e24:	03012683          	lw	a3,48(sp)
   17e28:	01150533          	add	a0,a0,a7
   17e2c:	010696b3          	sll	a3,a3,a6
   17e30:	00d52023          	sw	a3,0(a0)
   17e34:	fff00613          	addi	a2,zero,-1
   17e38:	03010893          	addi	a7,sp,48
   17e3c:	0b00006f          	jal	zero,17eec <__subtf3+0x118c>
   17e40:	0142e733          	or	a4,t0,s4
   17e44:	01576733          	or	a4,a4,s5
   17e48:	00a76733          	or	a4,a4,a0
   17e4c:	f8070263          	beq	a4,zero,175d0 <__subtf3+0x870>
   17e50:	f99ff06f          	jal	zero,17de8 <__subtf3+0x1088>
   17e54:	03812503          	lw	a0,56(sp)
   17e58:	00050863          	beq	a0,zero,17e68 <__subtf3+0x1108>
   17e5c:	75c000ef          	jal	ra,185b8 <__clzsi2>
   17e60:	02050513          	addi	a0,a0,32
   17e64:	f8dff06f          	jal	zero,17df0 <__subtf3+0x1090>
   17e68:	03412503          	lw	a0,52(sp)
   17e6c:	00050863          	beq	a0,zero,17e7c <__subtf3+0x111c>
   17e70:	748000ef          	jal	ra,185b8 <__clzsi2>
   17e74:	04050513          	addi	a0,a0,64
   17e78:	f79ff06f          	jal	zero,17df0 <__subtf3+0x1090>
   17e7c:	03012503          	lw	a0,48(sp)
   17e80:	738000ef          	jal	ra,185b8 <__clzsi2>
   17e84:	06050513          	addi	a0,a0,96
   17e88:	f69ff06f          	jal	zero,17df0 <__subtf3+0x1090>
   17e8c:	ffc00593          	addi	a1,zero,-4
   17e90:	02b685b3          	mul	a1,a3,a1
   17e94:	00300613          	addi	a2,zero,3
   17e98:	00b70533          	add	a0,a4,a1
   17e9c:	00052503          	lw	a0,0(a0)
   17ea0:	fff60613          	addi	a2,a2,-1 # 7ffff <__BSS_END__+0x6403f>
   17ea4:	ffc70713          	addi	a4,a4,-4
   17ea8:	00a72223          	sw	a0,4(a4)
   17eac:	fed656e3          	bge	a2,a3,17e98 <__subtf3+0x1138>
   17eb0:	fff68713          	addi	a4,a3,-1
   17eb4:	f81ff06f          	jal	zero,17e34 <__subtf3+0x10d4>
   17eb8:	00072583          	lw	a1,0(a4)
   17ebc:	ffc72303          	lw	t1,-4(a4)
   17ec0:	01170e33          	add	t3,a4,a7
   17ec4:	010595b3          	sll	a1,a1,a6
   17ec8:	00c35333          	srl	t1,t1,a2
   17ecc:	0065e5b3          	or	a1,a1,t1
   17ed0:	00be2023          	sw	a1,0(t3)
   17ed4:	ffc70713          	addi	a4,a4,-4
   17ed8:	f45ff06f          	jal	zero,17e1c <__subtf3+0x10bc>
   17edc:	00271693          	slli	a3,a4,0x2
   17ee0:	00d886b3          	add	a3,a7,a3
   17ee4:	0006a023          	sw	zero,0(a3)
   17ee8:	fff70713          	addi	a4,a4,-1
   17eec:	fec718e3          	bne	a4,a2,17edc <__subtf3+0x117c>
   17ef0:	1127c263          	blt	a5,s2,17ff4 <__subtf3+0x1294>
   17ef4:	412787b3          	sub	a5,a5,s2
   17ef8:	00178793          	addi	a5,a5,1
   17efc:	4057d713          	srai	a4,a5,0x5
   17f00:	00088613          	addi	a2,a7,0
   17f04:	01f7f793          	andi	a5,a5,31
   17f08:	00088593          	addi	a1,a7,0
   17f0c:	00000813          	addi	a6,zero,0
   17f10:	00000693          	addi	a3,zero,0
   17f14:	02e69c63          	bne	a3,a4,17f4c <__subtf3+0x11ec>
   17f18:	00300693          	addi	a3,zero,3
   17f1c:	40e686b3          	sub	a3,a3,a4
   17f20:	00271e13          	slli	t3,a4,0x2
   17f24:	02079e63          	bne	a5,zero,17f60 <__subtf3+0x1200>
   17f28:	01c605b3          	add	a1,a2,t3
   17f2c:	0005a583          	lw	a1,0(a1)
   17f30:	00178793          	addi	a5,a5,1
   17f34:	00460613          	addi	a2,a2,4
   17f38:	feb62e23          	sw	a1,-4(a2)
   17f3c:	fef6d6e3          	bge	a3,a5,17f28 <__subtf3+0x11c8>
   17f40:	00400793          	addi	a5,zero,4
   17f44:	40e78733          	sub	a4,a5,a4
   17f48:	0540006f          	jal	zero,17f9c <__subtf3+0x123c>
   17f4c:	0005a503          	lw	a0,0(a1)
   17f50:	00168693          	addi	a3,a3,1
   17f54:	00458593          	addi	a1,a1,4
   17f58:	00a86833          	or	a6,a6,a0
   17f5c:	fb9ff06f          	jal	zero,17f14 <__subtf3+0x11b4>
   17f60:	01c88633          	add	a2,a7,t3
   17f64:	00062583          	lw	a1,0(a2)
   17f68:	02000513          	addi	a0,zero,32
   17f6c:	40f50533          	sub	a0,a0,a5
   17f70:	00a595b3          	sll	a1,a1,a0
   17f74:	00b86833          	or	a6,a6,a1
   17f78:	00000313          	addi	t1,zero,0
   17f7c:	02d34463          	blt	t1,a3,17fa4 <__subtf3+0x1244>
   17f80:	00400613          	addi	a2,zero,4
   17f84:	40e60733          	sub	a4,a2,a4
   17f88:	03c12603          	lw	a2,60(sp)
   17f8c:	00269693          	slli	a3,a3,0x2
   17f90:	00d886b3          	add	a3,a7,a3
   17f94:	00f657b3          	srl	a5,a2,a5
   17f98:	00f6a023          	sw	a5,0(a3)
   17f9c:	00400693          	addi	a3,zero,4
   17fa0:	03c0006f          	jal	zero,17fdc <__subtf3+0x127c>
   17fa4:	00062583          	lw	a1,0(a2)
   17fa8:	00462e83          	lw	t4,4(a2)
   17fac:	41c60f33          	sub	t5,a2,t3
   17fb0:	00f5d5b3          	srl	a1,a1,a5
   17fb4:	00ae9eb3          	sll	t4,t4,a0
   17fb8:	01d5e5b3          	or	a1,a1,t4
   17fbc:	00bf2023          	sw	a1,0(t5)
   17fc0:	00130313          	addi	t1,t1,1
   17fc4:	00460613          	addi	a2,a2,4
   17fc8:	fb5ff06f          	jal	zero,17f7c <__subtf3+0x121c>
   17fcc:	00271793          	slli	a5,a4,0x2
   17fd0:	00f887b3          	add	a5,a7,a5
   17fd4:	0007a023          	sw	zero,0(a5)
   17fd8:	00170713          	addi	a4,a4,1
   17fdc:	fed718e3          	bne	a4,a3,17fcc <__subtf3+0x126c>
   17fe0:	03012703          	lw	a4,48(sp)
   17fe4:	010037b3          	sltu	a5,zero,a6
   17fe8:	00f767b3          	or	a5,a4,a5
   17fec:	02f12823          	sw	a5,48(sp)
   17ff0:	cf8ff06f          	jal	zero,174e8 <__subtf3+0x788>
   17ff4:	03c12703          	lw	a4,60(sp)
   17ff8:	fff806b7          	lui	a3,0xfff80
   17ffc:	fff68693          	addi	a3,a3,-1 # fff7ffff <__BSS_END__+0xfff6403f>
   18000:	40f907b3          	sub	a5,s2,a5
   18004:	00d77733          	and	a4,a4,a3
   18008:	a24ff06f          	jal	zero,1722c <__subtf3+0x4cc>
   1800c:	02012e23          	sw	zero,60(sp)
   18010:	02012c23          	sw	zero,56(sp)
   18014:	02012a23          	sw	zero,52(sp)
   18018:	02012823          	sw	zero,48(sp)
   1801c:	00000713          	addi	a4,zero,0
   18020:	fddfe06f          	jal	zero,16ffc <__subtf3+0x29c>
   18024:	07400793          	addi	a5,zero,116
   18028:	8ac7dc63          	bge	a5,a2,170e0 <__subtf3+0x380>
   1802c:	02012623          	sw	zero,44(sp)
   18030:	02012423          	sw	zero,40(sp)
   18034:	02012223          	sw	zero,36(sp)
   18038:	00100613          	addi	a2,zero,1
   1803c:	994ff06f          	jal	zero,171d0 <__subtf3+0x470>
   18040:	07400793          	addi	a5,zero,116
   18044:	ad27dc63          	bge	a5,s2,1731c <__subtf3+0x5bc>
   18048:	00012e23          	sw	zero,28(sp)
   1804c:	00012c23          	sw	zero,24(sp)
   18050:	00012a23          	sw	zero,20(sp)
   18054:	00100613          	addi	a2,zero,1
   18058:	bccff06f          	jal	zero,17424 <__subtf3+0x6c4>
   1805c:	07400793          	addi	a5,zero,116
   18060:	9b27dce3          	bge	a5,s2,17a18 <__subtf3+0xcb8>
   18064:	00012e23          	sw	zero,28(sp)
   18068:	00012c23          	sw	zero,24(sp)
   1806c:	00012a23          	sw	zero,20(sp)
   18070:	00100613          	addi	a2,zero,1
   18074:	aadff06f          	jal	zero,17b20 <__subtf3+0xdc0>

00018078 <__extenddftf2>:
   18078:	01465713          	srli	a4,a2,0x14
   1807c:	00c61793          	slli	a5,a2,0xc
   18080:	7ff77713          	andi	a4,a4,2047
   18084:	fd010113          	addi	sp,sp,-48
   18088:	00c7d793          	srli	a5,a5,0xc
   1808c:	00170693          	addi	a3,a4,1
   18090:	02812423          	sw	s0,40(sp)
   18094:	02912223          	sw	s1,36(sp)
   18098:	03212023          	sw	s2,32(sp)
   1809c:	02112623          	sw	ra,44(sp)
   180a0:	00b12823          	sw	a1,16(sp)
   180a4:	00f12a23          	sw	a5,20(sp)
   180a8:	00012e23          	sw	zero,28(sp)
   180ac:	00012c23          	sw	zero,24(sp)
   180b0:	7fe6f693          	andi	a3,a3,2046
   180b4:	00050913          	addi	s2,a0,0
   180b8:	00058493          	addi	s1,a1,0
   180bc:	01f65413          	srli	s0,a2,0x1f
   180c0:	08068263          	beq	a3,zero,18144 <__extenddftf2+0xcc>
   180c4:	000046b7          	lui	a3,0x4
   180c8:	c0068693          	addi	a3,a3,-1024 # 3c00 <exit-0xc4b4>
   180cc:	00d70733          	add	a4,a4,a3
   180d0:	0047d693          	srli	a3,a5,0x4
   180d4:	00d12e23          	sw	a3,28(sp)
   180d8:	01c79793          	slli	a5,a5,0x1c
   180dc:	0045d693          	srli	a3,a1,0x4
   180e0:	00d7e7b3          	or	a5,a5,a3
   180e4:	01c59493          	slli	s1,a1,0x1c
   180e8:	00f12c23          	sw	a5,24(sp)
   180ec:	00912a23          	sw	s1,20(sp)
   180f0:	00012823          	sw	zero,16(sp)
   180f4:	01c12783          	lw	a5,28(sp)
   180f8:	00f41413          	slli	s0,s0,0xf
   180fc:	00e46433          	or	s0,s0,a4
   18100:	00f11623          	sh	a5,12(sp)
   18104:	01012783          	lw	a5,16(sp)
   18108:	00811723          	sh	s0,14(sp)
   1810c:	02c12083          	lw	ra,44(sp)
   18110:	00f92023          	sw	a5,0(s2)
   18114:	01412783          	lw	a5,20(sp)
   18118:	02812403          	lw	s0,40(sp)
   1811c:	02412483          	lw	s1,36(sp)
   18120:	00f92223          	sw	a5,4(s2)
   18124:	01812783          	lw	a5,24(sp)
   18128:	00090513          	addi	a0,s2,0
   1812c:	00f92423          	sw	a5,8(s2)
   18130:	00c12783          	lw	a5,12(sp)
   18134:	00f92623          	sw	a5,12(s2)
   18138:	02012903          	lw	s2,32(sp)
   1813c:	03010113          	addi	sp,sp,48
   18140:	00008067          	jalr	zero,0(ra)
   18144:	00b7e533          	or	a0,a5,a1
   18148:	0e071663          	bne	a4,zero,18234 <__extenddftf2+0x1bc>
   1814c:	fa0504e3          	beq	a0,zero,180f4 <__extenddftf2+0x7c>
   18150:	04078663          	beq	a5,zero,1819c <__extenddftf2+0x124>
   18154:	00078513          	addi	a0,a5,0
   18158:	460000ef          	jal	ra,185b8 <__clzsi2>
   1815c:	03150693          	addi	a3,a0,49
   18160:	4056d713          	srai	a4,a3,0x5
   18164:	01f6f693          	andi	a3,a3,31
   18168:	01c10793          	addi	a5,sp,28
   1816c:	02068e63          	beq	a3,zero,181a8 <__extenddftf2+0x130>
   18170:	02000813          	addi	a6,zero,32
   18174:	00271593          	slli	a1,a4,0x2
   18178:	40d80833          	sub	a6,a6,a3
   1817c:	01010313          	addi	t1,sp,16
   18180:	40b787b3          	sub	a5,a5,a1
   18184:	08679663          	bne	a5,t1,18210 <__extenddftf2+0x198>
   18188:	00b787b3          	add	a5,a5,a1
   1818c:	00d496b3          	sll	a3,s1,a3
   18190:	fff70713          	addi	a4,a4,-1
   18194:	00d7a023          	sw	a3,0(a5)
   18198:	0380006f          	jal	zero,181d0 <__extenddftf2+0x158>
   1819c:	41c000ef          	jal	ra,185b8 <__clzsi2>
   181a0:	02050513          	addi	a0,a0,32
   181a4:	fb9ff06f          	jal	zero,1815c <__extenddftf2+0xe4>
   181a8:	ffc00613          	addi	a2,zero,-4
   181ac:	02c70633          	mul	a2,a4,a2
   181b0:	00300693          	addi	a3,zero,3
   181b4:	00c785b3          	add	a1,a5,a2
   181b8:	0005a583          	lw	a1,0(a1)
   181bc:	fff68693          	addi	a3,a3,-1
   181c0:	ffc78793          	addi	a5,a5,-4
   181c4:	00b7a223          	sw	a1,4(a5)
   181c8:	fee6d6e3          	bge	a3,a4,181b4 <__extenddftf2+0x13c>
   181cc:	fff70713          	addi	a4,a4,-1
   181d0:	00170713          	addi	a4,a4,1
   181d4:	00271713          	slli	a4,a4,0x2
   181d8:	00800693          	addi	a3,zero,8
   181dc:	01010793          	addi	a5,sp,16
   181e0:	00d76a63          	bltu	a4,a3,181f4 <__extenddftf2+0x17c>
   181e4:	00012823          	sw	zero,16(sp)
   181e8:	0007a223          	sw	zero,4(a5)
   181ec:	ff870713          	addi	a4,a4,-8
   181f0:	01810793          	addi	a5,sp,24
   181f4:	00400693          	addi	a3,zero,4
   181f8:	00d76463          	bltu	a4,a3,18200 <__extenddftf2+0x188>
   181fc:	0007a023          	sw	zero,0(a5)
   18200:	00004737          	lui	a4,0x4
   18204:	c0c70713          	addi	a4,a4,-1012 # 3c0c <exit-0xc4a8>
   18208:	40a70733          	sub	a4,a4,a0
   1820c:	ee9ff06f          	jal	zero,180f4 <__extenddftf2+0x7c>
   18210:	0007a603          	lw	a2,0(a5)
   18214:	ffc7a883          	lw	a7,-4(a5)
   18218:	00b78e33          	add	t3,a5,a1
   1821c:	00d61633          	sll	a2,a2,a3
   18220:	0108d8b3          	srl	a7,a7,a6
   18224:	01166633          	or	a2,a2,a7
   18228:	00ce2023          	sw	a2,0(t3)
   1822c:	ffc78793          	addi	a5,a5,-4
   18230:	f55ff06f          	jal	zero,18184 <__extenddftf2+0x10c>
   18234:	02050863          	beq	a0,zero,18264 <__extenddftf2+0x1ec>
   18238:	01c79713          	slli	a4,a5,0x1c
   1823c:	0045d693          	srli	a3,a1,0x4
   18240:	00d76733          	or	a4,a4,a3
   18244:	00e12c23          	sw	a4,24(sp)
   18248:	0047d793          	srli	a5,a5,0x4
   1824c:	00008737          	lui	a4,0x8
   18250:	01c59493          	slli	s1,a1,0x1c
   18254:	00e7e7b3          	or	a5,a5,a4
   18258:	00912a23          	sw	s1,20(sp)
   1825c:	00012823          	sw	zero,16(sp)
   18260:	00f12e23          	sw	a5,28(sp)
   18264:	00008737          	lui	a4,0x8
   18268:	fff70713          	addi	a4,a4,-1 # 7fff <exit-0x80b5>
   1826c:	e89ff06f          	jal	zero,180f4 <__extenddftf2+0x7c>

00018270 <__trunctfdf2>:
   18270:	00c52583          	lw	a1,12(a0)
   18274:	00852703          	lw	a4,8(a0)
   18278:	fe010113          	addi	sp,sp,-32
   1827c:	00452683          	lw	a3,4(a0)
   18280:	00052783          	lw	a5,0(a0)
   18284:	00e12423          	sw	a4,8(sp)
   18288:	00e12c23          	sw	a4,24(sp)
   1828c:	01059713          	slli	a4,a1,0x10
   18290:	01075713          	srli	a4,a4,0x10
   18294:	00e12e23          	sw	a4,28(sp)
   18298:	01010613          	addi	a2,sp,16
   1829c:	00159713          	slli	a4,a1,0x1
   182a0:	00d12223          	sw	a3,4(sp)
   182a4:	00b12623          	sw	a1,12(sp)
   182a8:	00d12a23          	sw	a3,20(sp)
   182ac:	00f12023          	sw	a5,0(sp)
   182b0:	01175693          	srli	a3,a4,0x11
   182b4:	00f12823          	sw	a5,16(sp)
   182b8:	01f5d593          	srli	a1,a1,0x1f
   182bc:	01c10713          	addi	a4,sp,28
   182c0:	00060813          	addi	a6,a2,0
   182c4:	00072503          	lw	a0,0(a4)
   182c8:	ffc72883          	lw	a7,-4(a4)
   182cc:	ffc70713          	addi	a4,a4,-4
   182d0:	00351513          	slli	a0,a0,0x3
   182d4:	01d8d893          	srli	a7,a7,0x1d
   182d8:	01156533          	or	a0,a0,a7
   182dc:	00a72223          	sw	a0,4(a4)
   182e0:	fec712e3          	bne	a4,a2,182c4 <__trunctfdf2+0x54>
   182e4:	00379513          	slli	a0,a5,0x3
   182e8:	00168793          	addi	a5,a3,1
   182ec:	01179713          	slli	a4,a5,0x11
   182f0:	00a12823          	sw	a0,16(sp)
   182f4:	01275713          	srli	a4,a4,0x12
   182f8:	1a070663          	beq	a4,zero,184a4 <__trunctfdf2+0x234>
   182fc:	ffffc7b7          	lui	a5,0xffffc
   18300:	40078793          	addi	a5,a5,1024 # ffffc400 <__BSS_END__+0xfffe0440>
   18304:	00f686b3          	add	a3,a3,a5
   18308:	7fe00793          	addi	a5,zero,2046
   1830c:	28d7c463          	blt	a5,a3,18594 <__trunctfdf2+0x324>
   18310:	06d05063          	bge	zero,a3,18370 <__trunctfdf2+0x100>
   18314:	01812803          	lw	a6,24(sp)
   18318:	01c12783          	lw	a5,28(sp)
   1831c:	01412603          	lw	a2,20(sp)
   18320:	01c85713          	srli	a4,a6,0x1c
   18324:	00479793          	slli	a5,a5,0x4
   18328:	00e7e7b3          	or	a5,a5,a4
   1832c:	00461713          	slli	a4,a2,0x4
   18330:	00a76733          	or	a4,a4,a0
   18334:	01c65613          	srli	a2,a2,0x1c
   18338:	00481813          	slli	a6,a6,0x4
   1833c:	00e03733          	sltu	a4,zero,a4
   18340:	01066633          	or	a2,a2,a6
   18344:	00c76733          	or	a4,a4,a2
   18348:	00777613          	andi	a2,a4,7
   1834c:	20060663          	beq	a2,zero,18558 <__trunctfdf2+0x2e8>
   18350:	00f77613          	andi	a2,a4,15
   18354:	00400513          	addi	a0,zero,4
   18358:	20a60063          	beq	a2,a0,18558 <__trunctfdf2+0x2e8>
   1835c:	00470613          	addi	a2,a4,4
   18360:	00e63533          	sltu	a0,a2,a4
   18364:	00a787b3          	add	a5,a5,a0
   18368:	00060713          	addi	a4,a2,0
   1836c:	1ec0006f          	jal	zero,18558 <__trunctfdf2+0x2e8>
   18370:	fcc00793          	addi	a5,zero,-52
   18374:	20f6c463          	blt	a3,a5,1857c <__trunctfdf2+0x30c>
   18378:	01c12783          	lw	a5,28(sp)
   1837c:	00080737          	lui	a4,0x80
   18380:	00060893          	addi	a7,a2,0
   18384:	00e7eeb3          	or	t4,a5,a4
   18388:	03d00793          	addi	a5,zero,61
   1838c:	40d787b3          	sub	a5,a5,a3
   18390:	4057d693          	srai	a3,a5,0x5
   18394:	01d12e23          	sw	t4,28(sp)
   18398:	01f7f793          	andi	a5,a5,31
   1839c:	00000513          	addi	a0,zero,0
   183a0:	00000713          	addi	a4,zero,0
   183a4:	0008a303          	lw	t1,0(a7)
   183a8:	00150513          	addi	a0,a0,1
   183ac:	00488893          	addi	a7,a7,4
   183b0:	00676733          	or	a4,a4,t1
   183b4:	fea698e3          	bne	a3,a0,183a4 <__trunctfdf2+0x134>
   183b8:	00300893          	addi	a7,zero,3
   183bc:	40d888b3          	sub	a7,a7,a3
   183c0:	00269f93          	slli	t6,a3,0x2
   183c4:	02079463          	bne	a5,zero,183ec <__trunctfdf2+0x17c>
   183c8:	01f60533          	add	a0,a2,t6
   183cc:	00052503          	lw	a0,0(a0)
   183d0:	00178793          	addi	a5,a5,1
   183d4:	00460613          	addi	a2,a2,4
   183d8:	fea62e23          	sw	a0,-4(a2)
   183dc:	fef8d6e3          	bge	a7,a5,183c8 <__trunctfdf2+0x158>
   183e0:	00400793          	addi	a5,zero,4
   183e4:	40d786b3          	sub	a3,a5,a3
   183e8:	03c0006f          	jal	zero,18424 <__trunctfdf2+0x1b4>
   183ec:	01f60533          	add	a0,a2,t6
   183f0:	00052303          	lw	t1,0(a0)
   183f4:	02000e13          	addi	t3,zero,32
   183f8:	40fe0e33          	sub	t3,t3,a5
   183fc:	01c31333          	sll	t1,t1,t3
   18400:	00676733          	or	a4,a4,t1
   18404:	00000f13          	addi	t5,zero,0
   18408:	071f4a63          	blt	t5,a7,1847c <__trunctfdf2+0x20c>
   1840c:	00289893          	slli	a7,a7,0x2
   18410:	00400513          	addi	a0,zero,4
   18414:	01160633          	add	a2,a2,a7
   18418:	00fed7b3          	srl	a5,t4,a5
   1841c:	40d506b3          	sub	a3,a0,a3
   18420:	00f62023          	sw	a5,0(a2)
   18424:	00400793          	addi	a5,zero,4
   18428:	40d787b3          	sub	a5,a5,a3
   1842c:	00279793          	slli	a5,a5,0x2
   18430:	00269693          	slli	a3,a3,0x2
   18434:	00800613          	addi	a2,zero,8
   18438:	00d806b3          	add	a3,a6,a3
   1843c:	00c7ea63          	bltu	a5,a2,18450 <__trunctfdf2+0x1e0>
   18440:	0006a023          	sw	zero,0(a3)
   18444:	0006a223          	sw	zero,4(a3)
   18448:	ff878793          	addi	a5,a5,-8
   1844c:	00c686b3          	add	a3,a3,a2
   18450:	00400613          	addi	a2,zero,4
   18454:	00c7e463          	bltu	a5,a2,1845c <__trunctfdf2+0x1ec>
   18458:	0006a023          	sw	zero,0(a3)
   1845c:	01012783          	lw	a5,16(sp)
   18460:	00e03733          	sltu	a4,zero,a4
   18464:	00f76733          	or	a4,a4,a5
   18468:	01412783          	lw	a5,20(sp)
   1846c:	00f766b3          	or	a3,a4,a5
   18470:	04068a63          	beq	a3,zero,184c4 <__trunctfdf2+0x254>
   18474:	00000693          	addi	a3,zero,0
   18478:	ed1ff06f          	jal	zero,18348 <__trunctfdf2+0xd8>
   1847c:	00052303          	lw	t1,0(a0)
   18480:	00452283          	lw	t0,4(a0)
   18484:	41f503b3          	sub	t2,a0,t6
   18488:	00f35333          	srl	t1,t1,a5
   1848c:	01c292b3          	sll	t0,t0,t3
   18490:	00536333          	or	t1,t1,t0
   18494:	0063a023          	sw	t1,0(t2) # 10000 <exit-0xb4>
   18498:	001f0f13          	addi	t5,t5,1
   1849c:	00450513          	addi	a0,a0,4
   184a0:	f69ff06f          	jal	zero,18408 <__trunctfdf2+0x198>
   184a4:	01412603          	lw	a2,20(sp)
   184a8:	01812783          	lw	a5,24(sp)
   184ac:	01c12803          	lw	a6,28(sp)
   184b0:	00c7e733          	or	a4,a5,a2
   184b4:	01076733          	or	a4,a4,a6
   184b8:	00a76733          	or	a4,a4,a0
   184bc:	06069863          	bne	a3,zero,1852c <__trunctfdf2+0x2bc>
   184c0:	0c071463          	bne	a4,zero,18588 <__trunctfdf2+0x318>
   184c4:	00000793          	addi	a5,zero,0
   184c8:	00000713          	addi	a4,zero,0
   184cc:	00000693          	addi	a3,zero,0
   184d0:	01d79613          	slli	a2,a5,0x1d
   184d4:	00375713          	srli	a4,a4,0x3
   184d8:	00e66733          	or	a4,a2,a4
   184dc:	7ff00613          	addi	a2,zero,2047
   184e0:	0037d793          	srli	a5,a5,0x3
   184e4:	00c69e63          	bne	a3,a2,18500 <__trunctfdf2+0x290>
   184e8:	00f76733          	or	a4,a4,a5
   184ec:	00000793          	addi	a5,zero,0
   184f0:	00070863          	beq	a4,zero,18500 <__trunctfdf2+0x290>
   184f4:	00000593          	addi	a1,zero,0
   184f8:	000807b7          	lui	a5,0x80
   184fc:	00000713          	addi	a4,zero,0
   18500:	7ff6f693          	andi	a3,a3,2047
   18504:	00c79793          	slli	a5,a5,0xc
   18508:	00c7d793          	srli	a5,a5,0xc
   1850c:	01469693          	slli	a3,a3,0x14
   18510:	01f59593          	slli	a1,a1,0x1f
   18514:	00f6e6b3          	or	a3,a3,a5
   18518:	00b6e7b3          	or	a5,a3,a1
   1851c:	00070513          	addi	a0,a4,0 # 80000 <__BSS_END__+0x64040>
   18520:	00078593          	addi	a1,a5,0 # 80000 <__BSS_END__+0x64040>
   18524:	02010113          	addi	sp,sp,32
   18528:	00008067          	jalr	zero,0(ra)
   1852c:	06070c63          	beq	a4,zero,185a4 <__trunctfdf2+0x334>
   18530:	00479713          	slli	a4,a5,0x4
   18534:	01c65613          	srli	a2,a2,0x1c
   18538:	01c7d793          	srli	a5,a5,0x1c
   1853c:	00481813          	slli	a6,a6,0x4
   18540:	004006b7          	lui	a3,0x400
   18544:	00e66633          	or	a2,a2,a4
   18548:	0107e7b3          	or	a5,a5,a6
   1854c:	00d7e7b3          	or	a5,a5,a3
   18550:	ff867713          	andi	a4,a2,-8
   18554:	7ff00693          	addi	a3,zero,2047
   18558:	00879613          	slli	a2,a5,0x8
   1855c:	f6065ae3          	bge	a2,zero,184d0 <__trunctfdf2+0x260>
   18560:	00168693          	addi	a3,a3,1 # 400001 <__BSS_END__+0x3e4041>
   18564:	7ff00613          	addi	a2,zero,2047
   18568:	04c68263          	beq	a3,a2,185ac <__trunctfdf2+0x33c>
   1856c:	ff800637          	lui	a2,0xff800
   18570:	fff60613          	addi	a2,a2,-1 # ff7fffff <__BSS_END__+0xff7e403f>
   18574:	00c7f7b3          	and	a5,a5,a2
   18578:	f59ff06f          	jal	zero,184d0 <__trunctfdf2+0x260>
   1857c:	00100713          	addi	a4,zero,1
   18580:	00000793          	addi	a5,zero,0
   18584:	ef1ff06f          	jal	zero,18474 <__trunctfdf2+0x204>
   18588:	00100713          	addi	a4,zero,1
   1858c:	00000793          	addi	a5,zero,0
   18590:	dcdff06f          	jal	zero,1835c <__trunctfdf2+0xec>
   18594:	00000793          	addi	a5,zero,0
   18598:	00000713          	addi	a4,zero,0
   1859c:	7ff00693          	addi	a3,zero,2047
   185a0:	f31ff06f          	jal	zero,184d0 <__trunctfdf2+0x260>
   185a4:	00000793          	addi	a5,zero,0
   185a8:	ff5ff06f          	jal	zero,1859c <__trunctfdf2+0x32c>
   185ac:	00000793          	addi	a5,zero,0
   185b0:	00000713          	addi	a4,zero,0
   185b4:	f1dff06f          	jal	zero,184d0 <__trunctfdf2+0x260>

000185b8 <__clzsi2>:
   185b8:	000107b7          	lui	a5,0x10
   185bc:	02f57a63          	bgeu	a0,a5,185f0 <__clzsi2+0x38>
   185c0:	10053793          	sltiu	a5,a0,256
   185c4:	0017b793          	sltiu	a5,a5,1
   185c8:	00379793          	slli	a5,a5,0x3
   185cc:	0001a737          	lui	a4,0x1a
   185d0:	00f55533          	srl	a0,a0,a5
   185d4:	51070713          	addi	a4,a4,1296 # 1a510 <__clz_tab>
   185d8:	00a70733          	add	a4,a4,a0
   185dc:	00074503          	lbu	a0,0(a4)
   185e0:	02000693          	addi	a3,zero,32
   185e4:	40f686b3          	sub	a3,a3,a5
   185e8:	40a68533          	sub	a0,a3,a0
   185ec:	00008067          	jalr	zero,0(ra)
   185f0:	01000737          	lui	a4,0x1000
   185f4:	01800793          	addi	a5,zero,24
   185f8:	fce57ae3          	bgeu	a0,a4,185cc <__clzsi2+0x14>
   185fc:	01000793          	addi	a5,zero,16
   18600:	fcdff06f          	jal	zero,185cc <__clzsi2+0x14>

00018604 <__fp_lock>:
   18604:	00000513          	addi	a0,zero,0
   18608:	00008067          	jalr	zero,0(ra)

0001860c <stdio_exit_handler>:
   1860c:	0001b637          	lui	a2,0x1b
   18610:	0001a5b7          	lui	a1,0x1a
   18614:	0001b537          	lui	a0,0x1b
   18618:	62060613          	addi	a2,a2,1568 # 1b620 <__sglue>
   1861c:	d3858593          	addi	a1,a1,-712 # 19d38 <_fclose_r>
   18620:	63050513          	addi	a0,a0,1584 # 1b630 <_impure_data>
   18624:	34c0006f          	jal	zero,18970 <_fwalk_sglue>

00018628 <cleanup_stdio>:
   18628:	00452583          	lw	a1,4(a0)
   1862c:	ff010113          	addi	sp,sp,-16
   18630:	00812423          	sw	s0,8(sp)
   18634:	00112623          	sw	ra,12(sp)
   18638:	eb018793          	addi	a5,gp,-336 # 1bcd0 <__sf>
   1863c:	00050413          	addi	s0,a0,0
   18640:	00f58463          	beq	a1,a5,18648 <cleanup_stdio+0x20>
   18644:	6f4010ef          	jal	ra,19d38 <_fclose_r>
   18648:	00842583          	lw	a1,8(s0)
   1864c:	f1818793          	addi	a5,gp,-232 # 1bd38 <__sf+0x68>
   18650:	00f58663          	beq	a1,a5,1865c <cleanup_stdio+0x34>
   18654:	00040513          	addi	a0,s0,0
   18658:	6e0010ef          	jal	ra,19d38 <_fclose_r>
   1865c:	00c42583          	lw	a1,12(s0)
   18660:	f8018793          	addi	a5,gp,-128 # 1bda0 <__sf+0xd0>
   18664:	00f58c63          	beq	a1,a5,1867c <cleanup_stdio+0x54>
   18668:	00040513          	addi	a0,s0,0
   1866c:	00812403          	lw	s0,8(sp)
   18670:	00c12083          	lw	ra,12(sp)
   18674:	01010113          	addi	sp,sp,16
   18678:	6c00106f          	jal	zero,19d38 <_fclose_r>
   1867c:	00c12083          	lw	ra,12(sp)
   18680:	00812403          	lw	s0,8(sp)
   18684:	01010113          	addi	sp,sp,16
   18688:	00008067          	jalr	zero,0(ra)

0001868c <__fp_unlock>:
   1868c:	00000513          	addi	a0,zero,0
   18690:	00008067          	jalr	zero,0(ra)

00018694 <global_stdio_init.part.0>:
   18694:	fe010113          	addi	sp,sp,-32
   18698:	000187b7          	lui	a5,0x18
   1869c:	00812c23          	sw	s0,24(sp)
   186a0:	60c78793          	addi	a5,a5,1548 # 1860c <stdio_exit_handler>
   186a4:	eb018413          	addi	s0,gp,-336 # 1bcd0 <__sf>
   186a8:	00112e23          	sw	ra,28(sp)
   186ac:	00912a23          	sw	s1,20(sp)
   186b0:	01212823          	sw	s2,16(sp)
   186b4:	01312623          	sw	s3,12(sp)
   186b8:	01412423          	sw	s4,8(sp)
   186bc:	e6f1ac23          	sw	a5,-392(gp) # 1bc98 <__stdio_exit_handler>
   186c0:	00800613          	addi	a2,zero,8
   186c4:	00400793          	addi	a5,zero,4
   186c8:	00000593          	addi	a1,zero,0
   186cc:	f0c18513          	addi	a0,gp,-244 # 1bd2c <__sf+0x5c>
   186d0:	00f42623          	sw	a5,12(s0)
   186d4:	00042023          	sw	zero,0(s0)
   186d8:	00042223          	sw	zero,4(s0)
   186dc:	00042423          	sw	zero,8(s0)
   186e0:	06042223          	sw	zero,100(s0)
   186e4:	00042823          	sw	zero,16(s0)
   186e8:	00042a23          	sw	zero,20(s0)
   186ec:	00042c23          	sw	zero,24(s0)
   186f0:	798000ef          	jal	ra,18e88 <memset>
   186f4:	00019a37          	lui	s4,0x19
   186f8:	000199b7          	lui	s3,0x19
   186fc:	00019937          	lui	s2,0x19
   18700:	000194b7          	lui	s1,0x19
   18704:	000107b7          	lui	a5,0x10
   18708:	a24a0a13          	addi	s4,s4,-1500 # 18a24 <__sread>
   1870c:	a8898993          	addi	s3,s3,-1400 # 18a88 <__swrite>
   18710:	b1090913          	addi	s2,s2,-1264 # 18b10 <__sseek>
   18714:	b7448493          	addi	s1,s1,-1164 # 18b74 <__sclose>
   18718:	00978793          	addi	a5,a5,9 # 10009 <exit-0xab>
   1871c:	00800613          	addi	a2,zero,8
   18720:	00000593          	addi	a1,zero,0
   18724:	f7418513          	addi	a0,gp,-140 # 1bd94 <__sf+0xc4>
   18728:	06f42a23          	sw	a5,116(s0)
   1872c:	03442023          	sw	s4,32(s0)
   18730:	03342223          	sw	s3,36(s0)
   18734:	03242423          	sw	s2,40(s0)
   18738:	02942623          	sw	s1,44(s0)
   1873c:	00842e23          	sw	s0,28(s0)
   18740:	06042423          	sw	zero,104(s0)
   18744:	06042623          	sw	zero,108(s0)
   18748:	06042823          	sw	zero,112(s0)
   1874c:	0c042623          	sw	zero,204(s0)
   18750:	06042c23          	sw	zero,120(s0)
   18754:	06042e23          	sw	zero,124(s0)
   18758:	08042023          	sw	zero,128(s0)
   1875c:	72c000ef          	jal	ra,18e88 <memset>
   18760:	000207b7          	lui	a5,0x20
   18764:	01278793          	addi	a5,a5,18 # 20012 <__BSS_END__+0x4052>
   18768:	f1818713          	addi	a4,gp,-232 # 1bd38 <__sf+0x68>
   1876c:	fdc18513          	addi	a0,gp,-36 # 1bdfc <__sf+0x12c>
   18770:	00800613          	addi	a2,zero,8
   18774:	00000593          	addi	a1,zero,0
   18778:	09442423          	sw	s4,136(s0)
   1877c:	09342623          	sw	s3,140(s0)
   18780:	09242823          	sw	s2,144(s0)
   18784:	08942a23          	sw	s1,148(s0)
   18788:	0cf42e23          	sw	a5,220(s0)
   1878c:	0c042823          	sw	zero,208(s0)
   18790:	0c042a23          	sw	zero,212(s0)
   18794:	0c042c23          	sw	zero,216(s0)
   18798:	12042a23          	sw	zero,308(s0)
   1879c:	0e042023          	sw	zero,224(s0)
   187a0:	0e042223          	sw	zero,228(s0)
   187a4:	0e042423          	sw	zero,232(s0)
   187a8:	08e42223          	sw	a4,132(s0)
   187ac:	6dc000ef          	jal	ra,18e88 <memset>
   187b0:	f8018793          	addi	a5,gp,-128 # 1bda0 <__sf+0xd0>
   187b4:	0f442823          	sw	s4,240(s0)
   187b8:	0f342a23          	sw	s3,244(s0)
   187bc:	0f242c23          	sw	s2,248(s0)
   187c0:	0e942e23          	sw	s1,252(s0)
   187c4:	01c12083          	lw	ra,28(sp)
   187c8:	0ef42623          	sw	a5,236(s0)
   187cc:	01812403          	lw	s0,24(sp)
   187d0:	01412483          	lw	s1,20(sp)
   187d4:	01012903          	lw	s2,16(sp)
   187d8:	00c12983          	lw	s3,12(sp)
   187dc:	00812a03          	lw	s4,8(sp)
   187e0:	02010113          	addi	sp,sp,32
   187e4:	00008067          	jalr	zero,0(ra)

000187e8 <__sfp>:
   187e8:	e781a783          	lw	a5,-392(gp) # 1bc98 <__stdio_exit_handler>
   187ec:	fe010113          	addi	sp,sp,-32
   187f0:	00912a23          	sw	s1,20(sp)
   187f4:	00112e23          	sw	ra,28(sp)
   187f8:	00812c23          	sw	s0,24(sp)
   187fc:	00050493          	addi	s1,a0,0
   18800:	0e078e63          	beq	a5,zero,188fc <__sfp+0x114>
   18804:	0001b837          	lui	a6,0x1b
   18808:	62080813          	addi	a6,a6,1568 # 1b620 <__sglue>
   1880c:	fff00693          	addi	a3,zero,-1
   18810:	00482783          	lw	a5,4(a6)
   18814:	fff78793          	addi	a5,a5,-1
   18818:	0807c063          	blt	a5,zero,18898 <__sfp+0xb0>
   1881c:	00882403          	lw	s0,8(a6)
   18820:	00c0006f          	jal	zero,1882c <__sfp+0x44>
   18824:	06840413          	addi	s0,s0,104
   18828:	06d78863          	beq	a5,a3,18898 <__sfp+0xb0>
   1882c:	00c41703          	lh	a4,12(s0)
   18830:	fff78793          	addi	a5,a5,-1
   18834:	fe0718e3          	bne	a4,zero,18824 <__sfp+0x3c>
   18838:	ffff07b7          	lui	a5,0xffff0
   1883c:	00178793          	addi	a5,a5,1 # ffff0001 <__BSS_END__+0xfffd4041>
   18840:	00f42623          	sw	a5,12(s0)
   18844:	06042223          	sw	zero,100(s0)
   18848:	00042023          	sw	zero,0(s0)
   1884c:	00042423          	sw	zero,8(s0)
   18850:	00042223          	sw	zero,4(s0)
   18854:	00042823          	sw	zero,16(s0)
   18858:	00042a23          	sw	zero,20(s0)
   1885c:	00042c23          	sw	zero,24(s0)
   18860:	00800613          	addi	a2,zero,8
   18864:	00000593          	addi	a1,zero,0
   18868:	05c40513          	addi	a0,s0,92
   1886c:	61c000ef          	jal	ra,18e88 <memset>
   18870:	02042823          	sw	zero,48(s0)
   18874:	02042a23          	sw	zero,52(s0)
   18878:	04042223          	sw	zero,68(s0)
   1887c:	04042423          	sw	zero,72(s0)
   18880:	01c12083          	lw	ra,28(sp)
   18884:	00040513          	addi	a0,s0,0
   18888:	01812403          	lw	s0,24(sp)
   1888c:	01412483          	lw	s1,20(sp)
   18890:	02010113          	addi	sp,sp,32
   18894:	00008067          	jalr	zero,0(ra)
   18898:	00082403          	lw	s0,0(a6)
   1889c:	00040663          	beq	s0,zero,188a8 <__sfp+0xc0>
   188a0:	00040813          	addi	a6,s0,0
   188a4:	f6dff06f          	jal	zero,18810 <__sfp+0x28>
   188a8:	1ac00593          	addi	a1,zero,428
   188ac:	00048513          	addi	a0,s1,0
   188b0:	01012623          	sw	a6,12(sp)
   188b4:	405000ef          	jal	ra,194b8 <_malloc_r>
   188b8:	00c12803          	lw	a6,12(sp)
   188bc:	00050413          	addi	s0,a0,0
   188c0:	04050263          	beq	a0,zero,18904 <__sfp+0x11c>
   188c4:	00400793          	addi	a5,zero,4
   188c8:	00f52223          	sw	a5,4(a0)
   188cc:	00c50513          	addi	a0,a0,12
   188d0:	00042023          	sw	zero,0(s0)
   188d4:	00a42423          	sw	a0,8(s0)
   188d8:	1a000613          	addi	a2,zero,416
   188dc:	00000593          	addi	a1,zero,0
   188e0:	01012623          	sw	a6,12(sp)
   188e4:	5a4000ef          	jal	ra,18e88 <memset>
   188e8:	00c12803          	lw	a6,12(sp)
   188ec:	fff00693          	addi	a3,zero,-1
   188f0:	00882023          	sw	s0,0(a6)
   188f4:	00040813          	addi	a6,s0,0
   188f8:	f19ff06f          	jal	zero,18810 <__sfp+0x28>
   188fc:	d99ff0ef          	jal	ra,18694 <global_stdio_init.part.0>
   18900:	f05ff06f          	jal	zero,18804 <__sfp+0x1c>
   18904:	00082023          	sw	zero,0(a6)
   18908:	00c00793          	addi	a5,zero,12
   1890c:	00f4a023          	sw	a5,0(s1)
   18910:	f71ff06f          	jal	zero,18880 <__sfp+0x98>

00018914 <__sinit>:
   18914:	03452783          	lw	a5,52(a0)
   18918:	00078463          	beq	a5,zero,18920 <__sinit+0xc>
   1891c:	00008067          	jalr	zero,0(ra)
   18920:	000187b7          	lui	a5,0x18
   18924:	e781a703          	lw	a4,-392(gp) # 1bc98 <__stdio_exit_handler>
   18928:	62878793          	addi	a5,a5,1576 # 18628 <cleanup_stdio>
   1892c:	02f52a23          	sw	a5,52(a0)
   18930:	fe0716e3          	bne	a4,zero,1891c <__sinit+0x8>
   18934:	d61ff06f          	jal	zero,18694 <global_stdio_init.part.0>

00018938 <__sfp_lock_acquire>:
   18938:	00008067          	jalr	zero,0(ra)

0001893c <__sfp_lock_release>:
   1893c:	00008067          	jalr	zero,0(ra)

00018940 <__fp_lock_all>:
   18940:	0001b637          	lui	a2,0x1b
   18944:	000185b7          	lui	a1,0x18
   18948:	62060613          	addi	a2,a2,1568 # 1b620 <__sglue>
   1894c:	60458593          	addi	a1,a1,1540 # 18604 <__fp_lock>
   18950:	00000513          	addi	a0,zero,0
   18954:	01c0006f          	jal	zero,18970 <_fwalk_sglue>

00018958 <__fp_unlock_all>:
   18958:	0001b637          	lui	a2,0x1b
   1895c:	000185b7          	lui	a1,0x18
   18960:	62060613          	addi	a2,a2,1568 # 1b620 <__sglue>
   18964:	68c58593          	addi	a1,a1,1676 # 1868c <__fp_unlock>
   18968:	00000513          	addi	a0,zero,0
   1896c:	0040006f          	jal	zero,18970 <_fwalk_sglue>

00018970 <_fwalk_sglue>:
   18970:	fd010113          	addi	sp,sp,-48
   18974:	03212023          	sw	s2,32(sp)
   18978:	01312e23          	sw	s3,28(sp)
   1897c:	01412c23          	sw	s4,24(sp)
   18980:	01512a23          	sw	s5,20(sp)
   18984:	01612823          	sw	s6,16(sp)
   18988:	01712623          	sw	s7,12(sp)
   1898c:	02112623          	sw	ra,44(sp)
   18990:	02812423          	sw	s0,40(sp)
   18994:	02912223          	sw	s1,36(sp)
   18998:	00060a93          	addi	s5,a2,0
   1899c:	00050b13          	addi	s6,a0,0
   189a0:	00058b93          	addi	s7,a1,0
   189a4:	00000a13          	addi	s4,zero,0
   189a8:	00100993          	addi	s3,zero,1
   189ac:	fff00913          	addi	s2,zero,-1
   189b0:	004aa483          	lw	s1,4(s5)
   189b4:	fff48493          	addi	s1,s1,-1
   189b8:	0204ca63          	blt	s1,zero,189ec <_fwalk_sglue+0x7c>
   189bc:	008aa403          	lw	s0,8(s5)
   189c0:	00c45783          	lhu	a5,12(s0)
   189c4:	00f9fe63          	bgeu	s3,a5,189e0 <_fwalk_sglue+0x70>
   189c8:	00e41783          	lh	a5,14(s0)
   189cc:	00040593          	addi	a1,s0,0
   189d0:	000b0513          	addi	a0,s6,0
   189d4:	01278663          	beq	a5,s2,189e0 <_fwalk_sglue+0x70>
   189d8:	000b80e7          	jalr	ra,0(s7)
   189dc:	00aa6a33          	or	s4,s4,a0
   189e0:	fff48493          	addi	s1,s1,-1
   189e4:	06840413          	addi	s0,s0,104
   189e8:	fd249ce3          	bne	s1,s2,189c0 <_fwalk_sglue+0x50>
   189ec:	000aaa83          	lw	s5,0(s5)
   189f0:	fc0a90e3          	bne	s5,zero,189b0 <_fwalk_sglue+0x40>
   189f4:	02c12083          	lw	ra,44(sp)
   189f8:	02812403          	lw	s0,40(sp)
   189fc:	02412483          	lw	s1,36(sp)
   18a00:	02012903          	lw	s2,32(sp)
   18a04:	01c12983          	lw	s3,28(sp)
   18a08:	01412a83          	lw	s5,20(sp)
   18a0c:	01012b03          	lw	s6,16(sp)
   18a10:	00c12b83          	lw	s7,12(sp)
   18a14:	000a0513          	addi	a0,s4,0
   18a18:	01812a03          	lw	s4,24(sp)
   18a1c:	03010113          	addi	sp,sp,48
   18a20:	00008067          	jalr	zero,0(ra)

00018a24 <__sread>:
   18a24:	ff010113          	addi	sp,sp,-16
   18a28:	00812423          	sw	s0,8(sp)
   18a2c:	00058413          	addi	s0,a1,0
   18a30:	00e59583          	lh	a1,14(a1)
   18a34:	00112623          	sw	ra,12(sp)
   18a38:	2ec000ef          	jal	ra,18d24 <_read_r>
   18a3c:	02054063          	blt	a0,zero,18a5c <__sread+0x38>
   18a40:	05042783          	lw	a5,80(s0)
   18a44:	00c12083          	lw	ra,12(sp)
   18a48:	00a787b3          	add	a5,a5,a0
   18a4c:	04f42823          	sw	a5,80(s0)
   18a50:	00812403          	lw	s0,8(sp)
   18a54:	01010113          	addi	sp,sp,16
   18a58:	00008067          	jalr	zero,0(ra)
   18a5c:	00c45783          	lhu	a5,12(s0)
   18a60:	fffff737          	lui	a4,0xfffff
   18a64:	fff70713          	addi	a4,a4,-1 # ffffefff <__BSS_END__+0xfffe303f>
   18a68:	00e7f7b3          	and	a5,a5,a4
   18a6c:	00c12083          	lw	ra,12(sp)
   18a70:	00f41623          	sh	a5,12(s0)
   18a74:	00812403          	lw	s0,8(sp)
   18a78:	01010113          	addi	sp,sp,16
   18a7c:	00008067          	jalr	zero,0(ra)

00018a80 <__seofread>:
   18a80:	00000513          	addi	a0,zero,0
   18a84:	00008067          	jalr	zero,0(ra)

00018a88 <__swrite>:
   18a88:	00c59783          	lh	a5,12(a1)
   18a8c:	fe010113          	addi	sp,sp,-32
   18a90:	00068313          	addi	t1,a3,0
   18a94:	00112e23          	sw	ra,28(sp)
   18a98:	1007f693          	andi	a3,a5,256
   18a9c:	00058713          	addi	a4,a1,0
   18aa0:	00060893          	addi	a7,a2,0
   18aa4:	00050813          	addi	a6,a0,0
   18aa8:	02069863          	bne	a3,zero,18ad8 <__swrite+0x50>
   18aac:	fffff6b7          	lui	a3,0xfffff
   18ab0:	fff68693          	addi	a3,a3,-1 # ffffefff <__BSS_END__+0xfffe303f>
   18ab4:	01c12083          	lw	ra,28(sp)
   18ab8:	00d7f7b3          	and	a5,a5,a3
   18abc:	00e71583          	lh	a1,14(a4)
   18ac0:	00f71623          	sh	a5,12(a4)
   18ac4:	00030693          	addi	a3,t1,0
   18ac8:	00088613          	addi	a2,a7,0
   18acc:	00080513          	addi	a0,a6,0
   18ad0:	02010113          	addi	sp,sp,32
   18ad4:	2b80006f          	jal	zero,18d8c <_write_r>
   18ad8:	00e59583          	lh	a1,14(a1)
   18adc:	00c12423          	sw	a2,8(sp)
   18ae0:	00200693          	addi	a3,zero,2
   18ae4:	00000613          	addi	a2,zero,0
   18ae8:	00612623          	sw	t1,12(sp)
   18aec:	00e12023          	sw	a4,0(sp)
   18af0:	00a12223          	sw	a0,4(sp)
   18af4:	1c8000ef          	jal	ra,18cbc <_lseek_r>
   18af8:	00012703          	lw	a4,0(sp)
   18afc:	00c12303          	lw	t1,12(sp)
   18b00:	00812883          	lw	a7,8(sp)
   18b04:	00c71783          	lh	a5,12(a4)
   18b08:	00412803          	lw	a6,4(sp)
   18b0c:	fa1ff06f          	jal	zero,18aac <__swrite+0x24>

00018b10 <__sseek>:
   18b10:	ff010113          	addi	sp,sp,-16
   18b14:	00812423          	sw	s0,8(sp)
   18b18:	00058413          	addi	s0,a1,0
   18b1c:	00e59583          	lh	a1,14(a1)
   18b20:	00112623          	sw	ra,12(sp)
   18b24:	198000ef          	jal	ra,18cbc <_lseek_r>
   18b28:	fff00713          	addi	a4,zero,-1
   18b2c:	00c41783          	lh	a5,12(s0)
   18b30:	02e50263          	beq	a0,a4,18b54 <__sseek+0x44>
   18b34:	00001737          	lui	a4,0x1
   18b38:	00e7e7b3          	or	a5,a5,a4
   18b3c:	00c12083          	lw	ra,12(sp)
   18b40:	04a42823          	sw	a0,80(s0)
   18b44:	00f41623          	sh	a5,12(s0)
   18b48:	00812403          	lw	s0,8(sp)
   18b4c:	01010113          	addi	sp,sp,16
   18b50:	00008067          	jalr	zero,0(ra)
   18b54:	80050713          	addi	a4,a0,-2048
   18b58:	80070713          	addi	a4,a4,-2048 # 800 <exit-0xf8b4>
   18b5c:	00e7f7b3          	and	a5,a5,a4
   18b60:	00c12083          	lw	ra,12(sp)
   18b64:	00f41623          	sh	a5,12(s0)
   18b68:	00812403          	lw	s0,8(sp)
   18b6c:	01010113          	addi	sp,sp,16
   18b70:	00008067          	jalr	zero,0(ra)

00018b74 <__sclose>:
   18b74:	00e59583          	lh	a1,14(a1)
   18b78:	0040006f          	jal	zero,18b7c <_close_r>

00018b7c <_close_r>:
   18b7c:	ff010113          	addi	sp,sp,-16
   18b80:	00812423          	sw	s0,8(sp)
   18b84:	00912223          	sw	s1,4(sp)
   18b88:	00050493          	addi	s1,a0,0
   18b8c:	00058513          	addi	a0,a1,0
   18b90:	00112623          	sw	ra,12(sp)
   18b94:	e601ae23          	sw	zero,-388(gp) # 1bc9c <errno>
   18b98:	750010ef          	jal	ra,1a2e8 <_close>
   18b9c:	fff00793          	addi	a5,zero,-1
   18ba0:	00f50c63          	beq	a0,a5,18bb8 <_close_r+0x3c>
   18ba4:	00c12083          	lw	ra,12(sp)
   18ba8:	00812403          	lw	s0,8(sp)
   18bac:	00412483          	lw	s1,4(sp)
   18bb0:	01010113          	addi	sp,sp,16
   18bb4:	00008067          	jalr	zero,0(ra)
   18bb8:	e7c1a783          	lw	a5,-388(gp) # 1bc9c <errno>
   18bbc:	fe0784e3          	beq	a5,zero,18ba4 <_close_r+0x28>
   18bc0:	00c12083          	lw	ra,12(sp)
   18bc4:	00812403          	lw	s0,8(sp)
   18bc8:	00f4a023          	sw	a5,0(s1)
   18bcc:	00412483          	lw	s1,4(sp)
   18bd0:	01010113          	addi	sp,sp,16
   18bd4:	00008067          	jalr	zero,0(ra)

00018bd8 <_reclaim_reent>:
   18bd8:	e6c1a783          	lw	a5,-404(gp) # 1bc8c <_impure_ptr>
   18bdc:	0ca78e63          	beq	a5,a0,18cb8 <_reclaim_reent+0xe0>
   18be0:	04452583          	lw	a1,68(a0)
   18be4:	fe010113          	addi	sp,sp,-32
   18be8:	00912a23          	sw	s1,20(sp)
   18bec:	00112e23          	sw	ra,28(sp)
   18bf0:	00812c23          	sw	s0,24(sp)
   18bf4:	00050493          	addi	s1,a0,0
   18bf8:	04058863          	beq	a1,zero,18c48 <_reclaim_reent+0x70>
   18bfc:	01212823          	sw	s2,16(sp)
   18c00:	01312623          	sw	s3,12(sp)
   18c04:	00000913          	addi	s2,zero,0
   18c08:	08000993          	addi	s3,zero,128
   18c0c:	012587b3          	add	a5,a1,s2
   18c10:	0007a403          	lw	s0,0(a5)
   18c14:	00040e63          	beq	s0,zero,18c30 <_reclaim_reent+0x58>
   18c18:	00040593          	addi	a1,s0,0
   18c1c:	00042403          	lw	s0,0(s0)
   18c20:	00048513          	addi	a0,s1,0
   18c24:	5ac000ef          	jal	ra,191d0 <_free_r>
   18c28:	fe0418e3          	bne	s0,zero,18c18 <_reclaim_reent+0x40>
   18c2c:	0444a583          	lw	a1,68(s1)
   18c30:	00490913          	addi	s2,s2,4
   18c34:	fd391ce3          	bne	s2,s3,18c0c <_reclaim_reent+0x34>
   18c38:	00048513          	addi	a0,s1,0
   18c3c:	594000ef          	jal	ra,191d0 <_free_r>
   18c40:	01012903          	lw	s2,16(sp)
   18c44:	00c12983          	lw	s3,12(sp)
   18c48:	0384a583          	lw	a1,56(s1)
   18c4c:	00058663          	beq	a1,zero,18c58 <_reclaim_reent+0x80>
   18c50:	00048513          	addi	a0,s1,0
   18c54:	57c000ef          	jal	ra,191d0 <_free_r>
   18c58:	0404a403          	lw	s0,64(s1)
   18c5c:	00040c63          	beq	s0,zero,18c74 <_reclaim_reent+0x9c>
   18c60:	00040593          	addi	a1,s0,0
   18c64:	00042403          	lw	s0,0(s0)
   18c68:	00048513          	addi	a0,s1,0
   18c6c:	564000ef          	jal	ra,191d0 <_free_r>
   18c70:	fe0418e3          	bne	s0,zero,18c60 <_reclaim_reent+0x88>
   18c74:	04c4a583          	lw	a1,76(s1)
   18c78:	00058663          	beq	a1,zero,18c84 <_reclaim_reent+0xac>
   18c7c:	00048513          	addi	a0,s1,0
   18c80:	550000ef          	jal	ra,191d0 <_free_r>
   18c84:	0344a783          	lw	a5,52(s1)
   18c88:	00078e63          	beq	a5,zero,18ca4 <_reclaim_reent+0xcc>
   18c8c:	01812403          	lw	s0,24(sp)
   18c90:	01c12083          	lw	ra,28(sp)
   18c94:	00048513          	addi	a0,s1,0
   18c98:	01412483          	lw	s1,20(sp)
   18c9c:	02010113          	addi	sp,sp,32
   18ca0:	00078067          	jalr	zero,0(a5)
   18ca4:	01c12083          	lw	ra,28(sp)
   18ca8:	01812403          	lw	s0,24(sp)
   18cac:	01412483          	lw	s1,20(sp)
   18cb0:	02010113          	addi	sp,sp,32
   18cb4:	00008067          	jalr	zero,0(ra)
   18cb8:	00008067          	jalr	zero,0(ra)

00018cbc <_lseek_r>:
   18cbc:	ff010113          	addi	sp,sp,-16
   18cc0:	00058793          	addi	a5,a1,0
   18cc4:	00812423          	sw	s0,8(sp)
   18cc8:	00912223          	sw	s1,4(sp)
   18ccc:	00060593          	addi	a1,a2,0
   18cd0:	00050493          	addi	s1,a0,0
   18cd4:	00068613          	addi	a2,a3,0
   18cd8:	00078513          	addi	a0,a5,0
   18cdc:	00112623          	sw	ra,12(sp)
   18ce0:	e601ae23          	sw	zero,-388(gp) # 1bc9c <errno>
   18ce4:	674010ef          	jal	ra,1a358 <_lseek>
   18ce8:	fff00793          	addi	a5,zero,-1
   18cec:	00f50c63          	beq	a0,a5,18d04 <_lseek_r+0x48>
   18cf0:	00c12083          	lw	ra,12(sp)
   18cf4:	00812403          	lw	s0,8(sp)
   18cf8:	00412483          	lw	s1,4(sp)
   18cfc:	01010113          	addi	sp,sp,16
   18d00:	00008067          	jalr	zero,0(ra)
   18d04:	e7c1a783          	lw	a5,-388(gp) # 1bc9c <errno>
   18d08:	fe0784e3          	beq	a5,zero,18cf0 <_lseek_r+0x34>
   18d0c:	00c12083          	lw	ra,12(sp)
   18d10:	00812403          	lw	s0,8(sp)
   18d14:	00f4a023          	sw	a5,0(s1)
   18d18:	00412483          	lw	s1,4(sp)
   18d1c:	01010113          	addi	sp,sp,16
   18d20:	00008067          	jalr	zero,0(ra)

00018d24 <_read_r>:
   18d24:	ff010113          	addi	sp,sp,-16
   18d28:	00058793          	addi	a5,a1,0
   18d2c:	00812423          	sw	s0,8(sp)
   18d30:	00912223          	sw	s1,4(sp)
   18d34:	00060593          	addi	a1,a2,0
   18d38:	00050493          	addi	s1,a0,0
   18d3c:	00068613          	addi	a2,a3,0
   18d40:	00078513          	addi	a0,a5,0
   18d44:	00112623          	sw	ra,12(sp)
   18d48:	e601ae23          	sw	zero,-388(gp) # 1bc9c <errno>
   18d4c:	64c010ef          	jal	ra,1a398 <_read>
   18d50:	fff00793          	addi	a5,zero,-1
   18d54:	00f50c63          	beq	a0,a5,18d6c <_read_r+0x48>
   18d58:	00c12083          	lw	ra,12(sp)
   18d5c:	00812403          	lw	s0,8(sp)
   18d60:	00412483          	lw	s1,4(sp)
   18d64:	01010113          	addi	sp,sp,16
   18d68:	00008067          	jalr	zero,0(ra)
   18d6c:	e7c1a783          	lw	a5,-388(gp) # 1bc9c <errno>
   18d70:	fe0784e3          	beq	a5,zero,18d58 <_read_r+0x34>
   18d74:	00c12083          	lw	ra,12(sp)
   18d78:	00812403          	lw	s0,8(sp)
   18d7c:	00f4a023          	sw	a5,0(s1)
   18d80:	00412483          	lw	s1,4(sp)
   18d84:	01010113          	addi	sp,sp,16
   18d88:	00008067          	jalr	zero,0(ra)

00018d8c <_write_r>:
   18d8c:	ff010113          	addi	sp,sp,-16
   18d90:	00058793          	addi	a5,a1,0
   18d94:	00812423          	sw	s0,8(sp)
   18d98:	00912223          	sw	s1,4(sp)
   18d9c:	00060593          	addi	a1,a2,0
   18da0:	00050493          	addi	s1,a0,0
   18da4:	00068613          	addi	a2,a3,0
   18da8:	00078513          	addi	a0,a5,0
   18dac:	00112623          	sw	ra,12(sp)
   18db0:	e601ae23          	sw	zero,-388(gp) # 1bc9c <errno>
   18db4:	69c010ef          	jal	ra,1a450 <_write>
   18db8:	fff00793          	addi	a5,zero,-1
   18dbc:	00f50c63          	beq	a0,a5,18dd4 <_write_r+0x48>
   18dc0:	00c12083          	lw	ra,12(sp)
   18dc4:	00812403          	lw	s0,8(sp)
   18dc8:	00412483          	lw	s1,4(sp)
   18dcc:	01010113          	addi	sp,sp,16
   18dd0:	00008067          	jalr	zero,0(ra)
   18dd4:	e7c1a783          	lw	a5,-388(gp) # 1bc9c <errno>
   18dd8:	fe0784e3          	beq	a5,zero,18dc0 <_write_r+0x34>
   18ddc:	00c12083          	lw	ra,12(sp)
   18de0:	00812403          	lw	s0,8(sp)
   18de4:	00f4a023          	sw	a5,0(s1)
   18de8:	00412483          	lw	s1,4(sp)
   18dec:	01010113          	addi	sp,sp,16
   18df0:	00008067          	jalr	zero,0(ra)

00018df4 <__libc_init_array>:
   18df4:	ff010113          	addi	sp,sp,-16
   18df8:	00812423          	sw	s0,8(sp)
   18dfc:	01212023          	sw	s2,0(sp)
   18e00:	0001b437          	lui	s0,0x1b
   18e04:	0001b937          	lui	s2,0x1b
   18e08:	00112623          	sw	ra,12(sp)
   18e0c:	00912223          	sw	s1,4(sp)
   18e10:	61490913          	addi	s2,s2,1556 # 1b614 <__init_array_start>
   18e14:	61440413          	addi	s0,s0,1556 # 1b614 <__init_array_start>
   18e18:	02890263          	beq	s2,s0,18e3c <__libc_init_array+0x48>
   18e1c:	40890933          	sub	s2,s2,s0
   18e20:	40295913          	srai	s2,s2,0x2
   18e24:	00000493          	addi	s1,zero,0
   18e28:	00042783          	lw	a5,0(s0)
   18e2c:	00148493          	addi	s1,s1,1
   18e30:	00440413          	addi	s0,s0,4
   18e34:	000780e7          	jalr	ra,0(a5)
   18e38:	ff24e8e3          	bltu	s1,s2,18e28 <__libc_init_array+0x34>
   18e3c:	0001b937          	lui	s2,0x1b
   18e40:	0001b437          	lui	s0,0x1b
   18e44:	61c90913          	addi	s2,s2,1564 # 1b61c <__do_global_dtors_aux_fini_array_entry>
   18e48:	61440413          	addi	s0,s0,1556 # 1b614 <__init_array_start>
   18e4c:	02890263          	beq	s2,s0,18e70 <__libc_init_array+0x7c>
   18e50:	40890933          	sub	s2,s2,s0
   18e54:	40295913          	srai	s2,s2,0x2
   18e58:	00000493          	addi	s1,zero,0
   18e5c:	00042783          	lw	a5,0(s0)
   18e60:	00148493          	addi	s1,s1,1
   18e64:	00440413          	addi	s0,s0,4
   18e68:	000780e7          	jalr	ra,0(a5)
   18e6c:	ff24e8e3          	bltu	s1,s2,18e5c <__libc_init_array+0x68>
   18e70:	00c12083          	lw	ra,12(sp)
   18e74:	00812403          	lw	s0,8(sp)
   18e78:	00412483          	lw	s1,4(sp)
   18e7c:	00012903          	lw	s2,0(sp)
   18e80:	01010113          	addi	sp,sp,16
   18e84:	00008067          	jalr	zero,0(ra)

00018e88 <memset>:
   18e88:	00f00313          	addi	t1,zero,15
   18e8c:	00050713          	addi	a4,a0,0
   18e90:	02c37e63          	bgeu	t1,a2,18ecc <memset+0x44>
   18e94:	00f77793          	andi	a5,a4,15
   18e98:	0a079063          	bne	a5,zero,18f38 <memset+0xb0>
   18e9c:	08059263          	bne	a1,zero,18f20 <memset+0x98>
   18ea0:	ff067693          	andi	a3,a2,-16
   18ea4:	00f67613          	andi	a2,a2,15
   18ea8:	00e686b3          	add	a3,a3,a4
   18eac:	00b72023          	sw	a1,0(a4)
   18eb0:	00b72223          	sw	a1,4(a4)
   18eb4:	00b72423          	sw	a1,8(a4)
   18eb8:	00b72623          	sw	a1,12(a4)
   18ebc:	01070713          	addi	a4,a4,16
   18ec0:	fed766e3          	bltu	a4,a3,18eac <memset+0x24>
   18ec4:	00061463          	bne	a2,zero,18ecc <memset+0x44>
   18ec8:	00008067          	jalr	zero,0(ra)
   18ecc:	40c306b3          	sub	a3,t1,a2
   18ed0:	00269693          	slli	a3,a3,0x2
   18ed4:	00000297          	auipc	t0,0x0
   18ed8:	005686b3          	add	a3,a3,t0
   18edc:	00c68067          	jalr	zero,12(a3)
   18ee0:	00b70723          	sb	a1,14(a4)
   18ee4:	00b706a3          	sb	a1,13(a4)
   18ee8:	00b70623          	sb	a1,12(a4)
   18eec:	00b705a3          	sb	a1,11(a4)
   18ef0:	00b70523          	sb	a1,10(a4)
   18ef4:	00b704a3          	sb	a1,9(a4)
   18ef8:	00b70423          	sb	a1,8(a4)
   18efc:	00b703a3          	sb	a1,7(a4)
   18f00:	00b70323          	sb	a1,6(a4)
   18f04:	00b702a3          	sb	a1,5(a4)
   18f08:	00b70223          	sb	a1,4(a4)
   18f0c:	00b701a3          	sb	a1,3(a4)
   18f10:	00b70123          	sb	a1,2(a4)
   18f14:	00b700a3          	sb	a1,1(a4)
   18f18:	00b70023          	sb	a1,0(a4)
   18f1c:	00008067          	jalr	zero,0(ra)
   18f20:	0ff5f593          	andi	a1,a1,255
   18f24:	00859693          	slli	a3,a1,0x8
   18f28:	00d5e5b3          	or	a1,a1,a3
   18f2c:	01059693          	slli	a3,a1,0x10
   18f30:	00d5e5b3          	or	a1,a1,a3
   18f34:	f6dff06f          	jal	zero,18ea0 <memset+0x18>
   18f38:	00279693          	slli	a3,a5,0x2
   18f3c:	00000297          	auipc	t0,0x0
   18f40:	005686b3          	add	a3,a3,t0
   18f44:	00008293          	addi	t0,ra,0
   18f48:	fa0680e7          	jalr	ra,-96(a3)
   18f4c:	00028093          	addi	ra,t0,0 # 18f3c <memset+0xb4>
   18f50:	ff078793          	addi	a5,a5,-16
   18f54:	40f70733          	sub	a4,a4,a5
   18f58:	00f60633          	add	a2,a2,a5
   18f5c:	f6c378e3          	bgeu	t1,a2,18ecc <memset+0x44>
   18f60:	f3dff06f          	jal	zero,18e9c <memset+0x14>

00018f64 <__call_exitprocs>:
   18f64:	fd010113          	addi	sp,sp,-48
   18f68:	01412c23          	sw	s4,24(sp)
   18f6c:	03212023          	sw	s2,32(sp)
   18f70:	e801a903          	lw	s2,-384(gp) # 1bca0 <__atexit>
   18f74:	02112623          	sw	ra,44(sp)
   18f78:	06090c63          	beq	s2,zero,18ff0 <__call_exitprocs+0x8c>
   18f7c:	01312e23          	sw	s3,28(sp)
   18f80:	01512a23          	sw	s5,20(sp)
   18f84:	01612823          	sw	s6,16(sp)
   18f88:	01712623          	sw	s7,12(sp)
   18f8c:	02812423          	sw	s0,40(sp)
   18f90:	02912223          	sw	s1,36(sp)
   18f94:	01812423          	sw	s8,8(sp)
   18f98:	00050b13          	addi	s6,a0,0
   18f9c:	00058b93          	addi	s7,a1,0
   18fa0:	fff00993          	addi	s3,zero,-1
   18fa4:	00100a93          	addi	s5,zero,1
   18fa8:	00492483          	lw	s1,4(s2)
   18fac:	fff48413          	addi	s0,s1,-1
   18fb0:	02044263          	blt	s0,zero,18fd4 <__call_exitprocs+0x70>
   18fb4:	00249493          	slli	s1,s1,0x2
   18fb8:	009904b3          	add	s1,s2,s1
   18fbc:	040b8463          	beq	s7,zero,19004 <__call_exitprocs+0xa0>
   18fc0:	1044a783          	lw	a5,260(s1)
   18fc4:	05778063          	beq	a5,s7,19004 <__call_exitprocs+0xa0>
   18fc8:	fff40413          	addi	s0,s0,-1
   18fcc:	ffc48493          	addi	s1,s1,-4
   18fd0:	ff3418e3          	bne	s0,s3,18fc0 <__call_exitprocs+0x5c>
   18fd4:	02812403          	lw	s0,40(sp)
   18fd8:	02412483          	lw	s1,36(sp)
   18fdc:	01c12983          	lw	s3,28(sp)
   18fe0:	01412a83          	lw	s5,20(sp)
   18fe4:	01012b03          	lw	s6,16(sp)
   18fe8:	00c12b83          	lw	s7,12(sp)
   18fec:	00812c03          	lw	s8,8(sp)
   18ff0:	02c12083          	lw	ra,44(sp)
   18ff4:	02012903          	lw	s2,32(sp)
   18ff8:	01812a03          	lw	s4,24(sp)
   18ffc:	03010113          	addi	sp,sp,48
   19000:	00008067          	jalr	zero,0(ra)
   19004:	00492783          	lw	a5,4(s2)
   19008:	0044a683          	lw	a3,4(s1)
   1900c:	fff78793          	addi	a5,a5,-1
   19010:	06878a63          	beq	a5,s0,19084 <__call_exitprocs+0x120>
   19014:	0004a223          	sw	zero,4(s1)
   19018:	02068663          	beq	a3,zero,19044 <__call_exitprocs+0xe0>
   1901c:	18892783          	lw	a5,392(s2)
   19020:	008a9733          	sll	a4,s5,s0
   19024:	00492c03          	lw	s8,4(s2)
   19028:	00f777b3          	and	a5,a4,a5
   1902c:	02079463          	bne	a5,zero,19054 <__call_exitprocs+0xf0>
   19030:	000680e7          	jalr	ra,0(a3)
   19034:	00492703          	lw	a4,4(s2)
   19038:	e801a783          	lw	a5,-384(gp) # 1bca0 <__atexit>
   1903c:	03871e63          	bne	a4,s8,19078 <__call_exitprocs+0x114>
   19040:	03279c63          	bne	a5,s2,19078 <__call_exitprocs+0x114>
   19044:	fff40413          	addi	s0,s0,-1
   19048:	ffc48493          	addi	s1,s1,-4
   1904c:	f73418e3          	bne	s0,s3,18fbc <__call_exitprocs+0x58>
   19050:	f85ff06f          	jal	zero,18fd4 <__call_exitprocs+0x70>
   19054:	18c92783          	lw	a5,396(s2)
   19058:	0844a583          	lw	a1,132(s1)
   1905c:	00f77733          	and	a4,a4,a5
   19060:	02071663          	bne	a4,zero,1908c <__call_exitprocs+0x128>
   19064:	000b0513          	addi	a0,s6,0
   19068:	000680e7          	jalr	ra,0(a3)
   1906c:	00492703          	lw	a4,4(s2)
   19070:	e801a783          	lw	a5,-384(gp) # 1bca0 <__atexit>
   19074:	fd8706e3          	beq	a4,s8,19040 <__call_exitprocs+0xdc>
   19078:	f4078ee3          	beq	a5,zero,18fd4 <__call_exitprocs+0x70>
   1907c:	00078913          	addi	s2,a5,0
   19080:	f29ff06f          	jal	zero,18fa8 <__call_exitprocs+0x44>
   19084:	00892223          	sw	s0,4(s2)
   19088:	f91ff06f          	jal	zero,19018 <__call_exitprocs+0xb4>
   1908c:	00058513          	addi	a0,a1,0
   19090:	000680e7          	jalr	ra,0(a3)
   19094:	fa1ff06f          	jal	zero,19034 <__call_exitprocs+0xd0>

00019098 <atexit>:
   19098:	00050593          	addi	a1,a0,0
   1909c:	00000693          	addi	a3,zero,0
   190a0:	00000613          	addi	a2,zero,0
   190a4:	00000513          	addi	a0,zero,0
   190a8:	1ac0106f          	jal	zero,1a254 <__register_exitproc>

000190ac <_malloc_trim_r>:
   190ac:	fe010113          	addi	sp,sp,-32
   190b0:	01212823          	sw	s2,16(sp)
   190b4:	0001b937          	lui	s2,0x1b
   190b8:	00812c23          	sw	s0,24(sp)
   190bc:	00912a23          	sw	s1,20(sp)
   190c0:	01312623          	sw	s3,12(sp)
   190c4:	00058413          	addi	s0,a1,0
   190c8:	00112e23          	sw	ra,28(sp)
   190cc:	00050993          	addi	s3,a0,0
   190d0:	75090913          	addi	s2,s2,1872 # 1b750 <__malloc_av_>
   190d4:	45d000ef          	jal	ra,19d30 <__malloc_lock>
   190d8:	00892783          	lw	a5,8(s2)
   190dc:	00001737          	lui	a4,0x1
   190e0:	0047a483          	lw	s1,4(a5)
   190e4:	ffc4f493          	andi	s1,s1,-4
   190e8:	7ff48793          	addi	a5,s1,2047
   190ec:	7f078793          	addi	a5,a5,2032
   190f0:	40878433          	sub	s0,a5,s0
   190f4:	00c45413          	srli	s0,s0,0xc
   190f8:	fff40413          	addi	s0,s0,-1
   190fc:	00c41413          	slli	s0,s0,0xc
   19100:	00e44e63          	blt	s0,a4,1911c <_malloc_trim_r+0x70>
   19104:	00000593          	addi	a1,zero,0
   19108:	00098513          	addi	a0,s3,0
   1910c:	090010ef          	jal	ra,1a19c <_sbrk_r>
   19110:	00892783          	lw	a5,8(s2)
   19114:	009787b3          	add	a5,a5,s1
   19118:	02f50663          	beq	a0,a5,19144 <_malloc_trim_r+0x98>
   1911c:	00098513          	addi	a0,s3,0
   19120:	415000ef          	jal	ra,19d34 <__malloc_unlock>
   19124:	01c12083          	lw	ra,28(sp)
   19128:	01812403          	lw	s0,24(sp)
   1912c:	01412483          	lw	s1,20(sp)
   19130:	01012903          	lw	s2,16(sp)
   19134:	00c12983          	lw	s3,12(sp)
   19138:	00000513          	addi	a0,zero,0
   1913c:	02010113          	addi	sp,sp,32
   19140:	00008067          	jalr	zero,0(ra)
   19144:	408005b3          	sub	a1,zero,s0
   19148:	00098513          	addi	a0,s3,0
   1914c:	050010ef          	jal	ra,1a19c <_sbrk_r>
   19150:	fff00793          	addi	a5,zero,-1
   19154:	04f50463          	beq	a0,a5,1919c <_malloc_trim_r+0xf0>
   19158:	00892683          	lw	a3,8(s2)
   1915c:	fe81a783          	lw	a5,-24(gp) # 1be08 <__malloc_current_mallinfo>
   19160:	408484b3          	sub	s1,s1,s0
   19164:	0014e493          	ori	s1,s1,1
   19168:	00098513          	addi	a0,s3,0
   1916c:	408787b3          	sub	a5,a5,s0
   19170:	0096a223          	sw	s1,4(a3)
   19174:	fef1a423          	sw	a5,-24(gp) # 1be08 <__malloc_current_mallinfo>
   19178:	3bd000ef          	jal	ra,19d34 <__malloc_unlock>
   1917c:	01c12083          	lw	ra,28(sp)
   19180:	01812403          	lw	s0,24(sp)
   19184:	01412483          	lw	s1,20(sp)
   19188:	01012903          	lw	s2,16(sp)
   1918c:	00c12983          	lw	s3,12(sp)
   19190:	00100513          	addi	a0,zero,1
   19194:	02010113          	addi	sp,sp,32
   19198:	00008067          	jalr	zero,0(ra)
   1919c:	00000593          	addi	a1,zero,0
   191a0:	00098513          	addi	a0,s3,0
   191a4:	7f9000ef          	jal	ra,1a19c <_sbrk_r>
   191a8:	00892703          	lw	a4,8(s2)
   191ac:	00f00693          	addi	a3,zero,15
   191b0:	40e507b3          	sub	a5,a0,a4
   191b4:	f6f6d4e3          	bge	a3,a5,1911c <_malloc_trim_r+0x70>
   191b8:	e701a603          	lw	a2,-400(gp) # 1bc90 <__malloc_sbrk_base>
   191bc:	0017e793          	ori	a5,a5,1
   191c0:	40c50533          	sub	a0,a0,a2
   191c4:	00f72223          	sw	a5,4(a4) # 1004 <exit-0xf0b0>
   191c8:	fea1a423          	sw	a0,-24(gp) # 1be08 <__malloc_current_mallinfo>
   191cc:	f51ff06f          	jal	zero,1911c <_malloc_trim_r+0x70>

000191d0 <_free_r>:
   191d0:	12058463          	beq	a1,zero,192f8 <_free_r+0x128>
   191d4:	fe010113          	addi	sp,sp,-32
   191d8:	00812c23          	sw	s0,24(sp)
   191dc:	00b12623          	sw	a1,12(sp)
   191e0:	00050413          	addi	s0,a0,0
   191e4:	00112e23          	sw	ra,28(sp)
   191e8:	349000ef          	jal	ra,19d30 <__malloc_lock>
   191ec:	00c12583          	lw	a1,12(sp)
   191f0:	0001b837          	lui	a6,0x1b
   191f4:	75080813          	addi	a6,a6,1872 # 1b750 <__malloc_av_>
   191f8:	ffc5a503          	lw	a0,-4(a1)
   191fc:	ff858713          	addi	a4,a1,-8
   19200:	00882883          	lw	a7,8(a6)
   19204:	ffe57793          	andi	a5,a0,-2
   19208:	00f70633          	add	a2,a4,a5
   1920c:	00462683          	lw	a3,4(a2)
   19210:	00157313          	andi	t1,a0,1
   19214:	ffc6f693          	andi	a3,a3,-4
   19218:	18c88863          	beq	a7,a2,193a8 <_free_r+0x1d8>
   1921c:	00d62223          	sw	a3,4(a2)
   19220:	00d608b3          	add	a7,a2,a3
   19224:	0048a883          	lw	a7,4(a7)
   19228:	0018f893          	andi	a7,a7,1
   1922c:	08031a63          	bne	t1,zero,192c0 <_free_r+0xf0>
   19230:	ff85a303          	lw	t1,-8(a1)
   19234:	0001b5b7          	lui	a1,0x1b
   19238:	75858593          	addi	a1,a1,1880 # 1b758 <__malloc_av_+0x8>
   1923c:	40670733          	sub	a4,a4,t1
   19240:	00872503          	lw	a0,8(a4)
   19244:	006787b3          	add	a5,a5,t1
   19248:	12b50a63          	beq	a0,a1,1937c <_free_r+0x1ac>
   1924c:	00c72303          	lw	t1,12(a4)
   19250:	00652623          	sw	t1,12(a0)
   19254:	00a32423          	sw	a0,8(t1)
   19258:	18088c63          	beq	a7,zero,193f0 <_free_r+0x220>
   1925c:	0017e693          	ori	a3,a5,1
   19260:	00d72223          	sw	a3,4(a4)
   19264:	00f62023          	sw	a5,0(a2)
   19268:	1ff00693          	addi	a3,zero,511
   1926c:	0af6e263          	bltu	a3,a5,19310 <_free_r+0x140>
   19270:	ff87f693          	andi	a3,a5,-8
   19274:	00868693          	addi	a3,a3,8
   19278:	00482583          	lw	a1,4(a6)
   1927c:	00d806b3          	add	a3,a6,a3
   19280:	0006a603          	lw	a2,0(a3)
   19284:	0057d513          	srli	a0,a5,0x5
   19288:	00100793          	addi	a5,zero,1
   1928c:	00a797b3          	sll	a5,a5,a0
   19290:	00b7e7b3          	or	a5,a5,a1
   19294:	ff868593          	addi	a1,a3,-8
   19298:	00c72423          	sw	a2,8(a4)
   1929c:	00b72623          	sw	a1,12(a4)
   192a0:	00f82223          	sw	a5,4(a6)
   192a4:	00e6a023          	sw	a4,0(a3)
   192a8:	00e62623          	sw	a4,12(a2)
   192ac:	00040513          	addi	a0,s0,0
   192b0:	01812403          	lw	s0,24(sp)
   192b4:	01c12083          	lw	ra,28(sp)
   192b8:	02010113          	addi	sp,sp,32
   192bc:	2790006f          	jal	zero,19d34 <__malloc_unlock>
   192c0:	02089e63          	bne	a7,zero,192fc <_free_r+0x12c>
   192c4:	0001b5b7          	lui	a1,0x1b
   192c8:	00d787b3          	add	a5,a5,a3
   192cc:	75858593          	addi	a1,a1,1880 # 1b758 <__malloc_av_+0x8>
   192d0:	00862683          	lw	a3,8(a2)
   192d4:	0017e893          	ori	a7,a5,1
   192d8:	00f70533          	add	a0,a4,a5
   192dc:	16b68063          	beq	a3,a1,1943c <_free_r+0x26c>
   192e0:	00c62603          	lw	a2,12(a2)
   192e4:	00c6a623          	sw	a2,12(a3)
   192e8:	00d62423          	sw	a3,8(a2)
   192ec:	01172223          	sw	a7,4(a4)
   192f0:	00f52023          	sw	a5,0(a0)
   192f4:	f75ff06f          	jal	zero,19268 <_free_r+0x98>
   192f8:	00008067          	jalr	zero,0(ra)
   192fc:	00156513          	ori	a0,a0,1
   19300:	fea5ae23          	sw	a0,-4(a1)
   19304:	00f62023          	sw	a5,0(a2)
   19308:	1ff00693          	addi	a3,zero,511
   1930c:	f6f6f2e3          	bgeu	a3,a5,19270 <_free_r+0xa0>
   19310:	0097d693          	srli	a3,a5,0x9
   19314:	00400613          	addi	a2,zero,4
   19318:	0ed66063          	bltu	a2,a3,193f8 <_free_r+0x228>
   1931c:	0067d693          	srli	a3,a5,0x6
   19320:	03968593          	addi	a1,a3,57
   19324:	00359593          	slli	a1,a1,0x3
   19328:	03868613          	addi	a2,a3,56
   1932c:	00b805b3          	add	a1,a6,a1
   19330:	0005a683          	lw	a3,0(a1)
   19334:	ff858593          	addi	a1,a1,-8
   19338:	00d59863          	bne	a1,a3,19348 <_free_r+0x178>
   1933c:	11c0006f          	jal	zero,19458 <_free_r+0x288>
   19340:	0086a683          	lw	a3,8(a3)
   19344:	00d58863          	beq	a1,a3,19354 <_free_r+0x184>
   19348:	0046a603          	lw	a2,4(a3)
   1934c:	ffc67613          	andi	a2,a2,-4
   19350:	fec7e8e3          	bltu	a5,a2,19340 <_free_r+0x170>
   19354:	00c6a583          	lw	a1,12(a3)
   19358:	00b72623          	sw	a1,12(a4)
   1935c:	00d72423          	sw	a3,8(a4)
   19360:	00040513          	addi	a0,s0,0
   19364:	01812403          	lw	s0,24(sp)
   19368:	01c12083          	lw	ra,28(sp)
   1936c:	00e5a423          	sw	a4,8(a1)
   19370:	00e6a623          	sw	a4,12(a3)
   19374:	02010113          	addi	sp,sp,32
   19378:	1bd0006f          	jal	zero,19d34 <__malloc_unlock>
   1937c:	0a089063          	bne	a7,zero,1941c <_free_r+0x24c>
   19380:	00c62583          	lw	a1,12(a2)
   19384:	00862603          	lw	a2,8(a2)
   19388:	00f686b3          	add	a3,a3,a5
   1938c:	0016e793          	ori	a5,a3,1
   19390:	00b62623          	sw	a1,12(a2)
   19394:	00c5a423          	sw	a2,8(a1)
   19398:	00f72223          	sw	a5,4(a4)
   1939c:	00d70733          	add	a4,a4,a3
   193a0:	00d72023          	sw	a3,0(a4)
   193a4:	f09ff06f          	jal	zero,192ac <_free_r+0xdc>
   193a8:	00d786b3          	add	a3,a5,a3
   193ac:	02031063          	bne	t1,zero,193cc <_free_r+0x1fc>
   193b0:	ff85a783          	lw	a5,-8(a1)
   193b4:	40f70733          	sub	a4,a4,a5
   193b8:	00872603          	lw	a2,8(a4)
   193bc:	00f686b3          	add	a3,a3,a5
   193c0:	00c72783          	lw	a5,12(a4)
   193c4:	00f62623          	sw	a5,12(a2)
   193c8:	00c7a423          	sw	a2,8(a5)
   193cc:	0016e613          	ori	a2,a3,1
   193d0:	e741a783          	lw	a5,-396(gp) # 1bc94 <__malloc_trim_threshold>
   193d4:	00c72223          	sw	a2,4(a4)
   193d8:	00e82423          	sw	a4,8(a6)
   193dc:	ecf6e8e3          	bltu	a3,a5,192ac <_free_r+0xdc>
   193e0:	e8c1a583          	lw	a1,-372(gp) # 1bcac <__malloc_top_pad>
   193e4:	00040513          	addi	a0,s0,0
   193e8:	cc5ff0ef          	jal	ra,190ac <_malloc_trim_r>
   193ec:	ec1ff06f          	jal	zero,192ac <_free_r+0xdc>
   193f0:	00d787b3          	add	a5,a5,a3
   193f4:	eddff06f          	jal	zero,192d0 <_free_r+0x100>
   193f8:	01400613          	addi	a2,zero,20
   193fc:	02d67863          	bgeu	a2,a3,1942c <_free_r+0x25c>
   19400:	05400613          	addi	a2,zero,84
   19404:	06d66863          	bltu	a2,a3,19474 <_free_r+0x2a4>
   19408:	00c7d693          	srli	a3,a5,0xc
   1940c:	06f68593          	addi	a1,a3,111
   19410:	00359593          	slli	a1,a1,0x3
   19414:	06e68613          	addi	a2,a3,110
   19418:	f15ff06f          	jal	zero,1932c <_free_r+0x15c>
   1941c:	0017e693          	ori	a3,a5,1
   19420:	00d72223          	sw	a3,4(a4)
   19424:	00f62023          	sw	a5,0(a2)
   19428:	e85ff06f          	jal	zero,192ac <_free_r+0xdc>
   1942c:	05c68593          	addi	a1,a3,92
   19430:	00359593          	slli	a1,a1,0x3
   19434:	05b68613          	addi	a2,a3,91
   19438:	ef5ff06f          	jal	zero,1932c <_free_r+0x15c>
   1943c:	00e82a23          	sw	a4,20(a6)
   19440:	00e82823          	sw	a4,16(a6)
   19444:	00b72623          	sw	a1,12(a4)
   19448:	00b72423          	sw	a1,8(a4)
   1944c:	01172223          	sw	a7,4(a4)
   19450:	00f52023          	sw	a5,0(a0)
   19454:	e59ff06f          	jal	zero,192ac <_free_r+0xdc>
   19458:	00482503          	lw	a0,4(a6)
   1945c:	40265613          	srai	a2,a2,0x2
   19460:	00100793          	addi	a5,zero,1
   19464:	00c797b3          	sll	a5,a5,a2
   19468:	00a7e7b3          	or	a5,a5,a0
   1946c:	00f82223          	sw	a5,4(a6)
   19470:	ee9ff06f          	jal	zero,19358 <_free_r+0x188>
   19474:	15400613          	addi	a2,zero,340
   19478:	00d66c63          	bltu	a2,a3,19490 <_free_r+0x2c0>
   1947c:	00f7d693          	srli	a3,a5,0xf
   19480:	07868593          	addi	a1,a3,120
   19484:	00359593          	slli	a1,a1,0x3
   19488:	07768613          	addi	a2,a3,119
   1948c:	ea1ff06f          	jal	zero,1932c <_free_r+0x15c>
   19490:	55400613          	addi	a2,zero,1364
   19494:	00d66c63          	bltu	a2,a3,194ac <_free_r+0x2dc>
   19498:	0127d693          	srli	a3,a5,0x12
   1949c:	07d68593          	addi	a1,a3,125
   194a0:	00359593          	slli	a1,a1,0x3
   194a4:	07c68613          	addi	a2,a3,124
   194a8:	e85ff06f          	jal	zero,1932c <_free_r+0x15c>
   194ac:	3f800593          	addi	a1,zero,1016
   194b0:	07e00613          	addi	a2,zero,126
   194b4:	e79ff06f          	jal	zero,1932c <_free_r+0x15c>

000194b8 <_malloc_r>:
   194b8:	fc010113          	addi	sp,sp,-64
   194bc:	02812c23          	sw	s0,56(sp)
   194c0:	02112e23          	sw	ra,60(sp)
   194c4:	00b58793          	addi	a5,a1,11
   194c8:	01600713          	addi	a4,zero,22
   194cc:	00050413          	addi	s0,a0,0
   194d0:	08f76e63          	bltu	a4,a5,1956c <_malloc_r+0xb4>
   194d4:	01000693          	addi	a3,zero,16
   194d8:	06b6ec63          	bltu	a3,a1,19550 <_malloc_r+0x98>
   194dc:	055000ef          	jal	ra,19d30 <__malloc_lock>
   194e0:	01000693          	addi	a3,zero,16
   194e4:	01800713          	addi	a4,zero,24
   194e8:	00200893          	addi	a7,zero,2
   194ec:	0001b837          	lui	a6,0x1b
   194f0:	75080813          	addi	a6,a6,1872 # 1b750 <__malloc_av_>
   194f4:	00e80733          	add	a4,a6,a4
   194f8:	00472783          	lw	a5,4(a4)
   194fc:	ff870613          	addi	a2,a4,-8
   19500:	44c78c63          	beq	a5,a2,19958 <_malloc_r+0x4a0>
   19504:	0047a703          	lw	a4,4(a5)
   19508:	00c7a603          	lw	a2,12(a5)
   1950c:	0087a583          	lw	a1,8(a5)
   19510:	ffc77713          	andi	a4,a4,-4
   19514:	00e78733          	add	a4,a5,a4
   19518:	00472683          	lw	a3,4(a4)
   1951c:	00c5a623          	sw	a2,12(a1)
   19520:	00f12623          	sw	a5,12(sp)
   19524:	00b62423          	sw	a1,8(a2)
   19528:	0016e693          	ori	a3,a3,1
   1952c:	00040513          	addi	a0,s0,0
   19530:	00d72223          	sw	a3,4(a4)
   19534:	001000ef          	jal	ra,19d34 <__malloc_unlock>
   19538:	00c12783          	lw	a5,12(sp)
   1953c:	03c12083          	lw	ra,60(sp)
   19540:	03812403          	lw	s0,56(sp)
   19544:	00878513          	addi	a0,a5,8
   19548:	04010113          	addi	sp,sp,64
   1954c:	00008067          	jalr	zero,0(ra)
   19550:	00c00793          	addi	a5,zero,12
   19554:	00f42023          	sw	a5,0(s0)
   19558:	00000513          	addi	a0,zero,0
   1955c:	03c12083          	lw	ra,60(sp)
   19560:	03812403          	lw	s0,56(sp)
   19564:	04010113          	addi	sp,sp,64
   19568:	00008067          	jalr	zero,0(ra)
   1956c:	ff87f693          	andi	a3,a5,-8
   19570:	fe07c0e3          	blt	a5,zero,19550 <_malloc_r+0x98>
   19574:	fcb6eee3          	bltu	a3,a1,19550 <_malloc_r+0x98>
   19578:	00d12623          	sw	a3,12(sp)
   1957c:	7b4000ef          	jal	ra,19d30 <__malloc_lock>
   19580:	00c12683          	lw	a3,12(sp)
   19584:	1f700793          	addi	a5,zero,503
   19588:	4cd7f663          	bgeu	a5,a3,19a54 <_malloc_r+0x59c>
   1958c:	0096d793          	srli	a5,a3,0x9
   19590:	16078e63          	beq	a5,zero,1970c <_malloc_r+0x254>
   19594:	00400713          	addi	a4,zero,4
   19598:	42f76863          	bltu	a4,a5,199c8 <_malloc_r+0x510>
   1959c:	0066d793          	srli	a5,a3,0x6
   195a0:	03978893          	addi	a7,a5,57
   195a4:	03878e13          	addi	t3,a5,56
   195a8:	00389513          	slli	a0,a7,0x3
   195ac:	0001b837          	lui	a6,0x1b
   195b0:	75080813          	addi	a6,a6,1872 # 1b750 <__malloc_av_>
   195b4:	00a80533          	add	a0,a6,a0
   195b8:	00452783          	lw	a5,4(a0)
   195bc:	ff850513          	addi	a0,a0,-8
   195c0:	02f50863          	beq	a0,a5,195f0 <_malloc_r+0x138>
   195c4:	00f00313          	addi	t1,zero,15
   195c8:	0140006f          	jal	zero,195dc <_malloc_r+0x124>
   195cc:	00c7a583          	lw	a1,12(a5)
   195d0:	34065463          	bge	a2,zero,19918 <_malloc_r+0x460>
   195d4:	00b50e63          	beq	a0,a1,195f0 <_malloc_r+0x138>
   195d8:	00058793          	addi	a5,a1,0
   195dc:	0047a703          	lw	a4,4(a5)
   195e0:	ffc77713          	andi	a4,a4,-4
   195e4:	40d70633          	sub	a2,a4,a3
   195e8:	fec352e3          	bge	t1,a2,195cc <_malloc_r+0x114>
   195ec:	000e0893          	addi	a7,t3,0
   195f0:	01082783          	lw	a5,16(a6)
   195f4:	0001be37          	lui	t3,0x1b
   195f8:	758e0e13          	addi	t3,t3,1880 # 1b758 <__malloc_av_+0x8>
   195fc:	2dc78c63          	beq	a5,t3,198d4 <_malloc_r+0x41c>
   19600:	0047a703          	lw	a4,4(a5)
   19604:	00f00593          	addi	a1,zero,15
   19608:	ffc77713          	andi	a4,a4,-4
   1960c:	40d70633          	sub	a2,a4,a3
   19610:	46c5cc63          	blt	a1,a2,19a88 <_malloc_r+0x5d0>
   19614:	01c82a23          	sw	t3,20(a6)
   19618:	01c82823          	sw	t3,16(a6)
   1961c:	44065263          	bge	a2,zero,19a60 <_malloc_r+0x5a8>
   19620:	1ff00613          	addi	a2,zero,511
   19624:	00482303          	lw	t1,4(a6)
   19628:	34e66063          	bltu	a2,a4,19968 <_malloc_r+0x4b0>
   1962c:	ff877613          	andi	a2,a4,-8
   19630:	00860613          	addi	a2,a2,8
   19634:	00c80633          	add	a2,a6,a2
   19638:	00062583          	lw	a1,0(a2)
   1963c:	00575513          	srli	a0,a4,0x5
   19640:	00100713          	addi	a4,zero,1
   19644:	00a71733          	sll	a4,a4,a0
   19648:	00e36333          	or	t1,t1,a4
   1964c:	ff860713          	addi	a4,a2,-8
   19650:	00b7a423          	sw	a1,8(a5)
   19654:	00e7a623          	sw	a4,12(a5)
   19658:	00682223          	sw	t1,4(a6)
   1965c:	00f62023          	sw	a5,0(a2)
   19660:	00f5a623          	sw	a5,12(a1)
   19664:	4028d793          	srai	a5,a7,0x2
   19668:	00100513          	addi	a0,zero,1
   1966c:	00f51533          	sll	a0,a0,a5
   19670:	0aa36663          	bltu	t1,a0,1971c <_malloc_r+0x264>
   19674:	006577b3          	and	a5,a0,t1
   19678:	02079463          	bne	a5,zero,196a0 <_malloc_r+0x1e8>
   1967c:	00151513          	slli	a0,a0,0x1
   19680:	ffc8f893          	andi	a7,a7,-4
   19684:	006577b3          	and	a5,a0,t1
   19688:	00488893          	addi	a7,a7,4
   1968c:	00079a63          	bne	a5,zero,196a0 <_malloc_r+0x1e8>
   19690:	00151513          	slli	a0,a0,0x1
   19694:	006577b3          	and	a5,a0,t1
   19698:	00488893          	addi	a7,a7,4
   1969c:	fe078ae3          	beq	a5,zero,19690 <_malloc_r+0x1d8>
   196a0:	00f00e93          	addi	t4,zero,15
   196a4:	00389f13          	slli	t5,a7,0x3
   196a8:	01e80f33          	add	t5,a6,t5
   196ac:	000f0313          	addi	t1,t5,0
   196b0:	00c32703          	lw	a4,12(t1)
   196b4:	00088f93          	addi	t6,a7,0
   196b8:	32e30a63          	beq	t1,a4,199ec <_malloc_r+0x534>
   196bc:	00472603          	lw	a2,4(a4)
   196c0:	00070793          	addi	a5,a4,0
   196c4:	00c72703          	lw	a4,12(a4)
   196c8:	ffc67613          	andi	a2,a2,-4
   196cc:	40d605b3          	sub	a1,a2,a3
   196d0:	32beca63          	blt	t4,a1,19a04 <_malloc_r+0x54c>
   196d4:	fe05c2e3          	blt	a1,zero,196b8 <_malloc_r+0x200>
   196d8:	00c78633          	add	a2,a5,a2
   196dc:	00462683          	lw	a3,4(a2)
   196e0:	0087a583          	lw	a1,8(a5)
   196e4:	00040513          	addi	a0,s0,0
   196e8:	0016e693          	ori	a3,a3,1
   196ec:	00d62223          	sw	a3,4(a2)
   196f0:	00e5a623          	sw	a4,12(a1)
   196f4:	00b72423          	sw	a1,8(a4)
   196f8:	00f12623          	sw	a5,12(sp)
   196fc:	638000ef          	jal	ra,19d34 <__malloc_unlock>
   19700:	00c12783          	lw	a5,12(sp)
   19704:	00878513          	addi	a0,a5,8
   19708:	e55ff06f          	jal	zero,1955c <_malloc_r+0xa4>
   1970c:	20000513          	addi	a0,zero,512
   19710:	04000893          	addi	a7,zero,64
   19714:	03f00e13          	addi	t3,zero,63
   19718:	e95ff06f          	jal	zero,195ac <_malloc_r+0xf4>
   1971c:	00882783          	lw	a5,8(a6)
   19720:	0047a703          	lw	a4,4(a5)
   19724:	ffc77713          	andi	a4,a4,-4
   19728:	40d70633          	sub	a2,a4,a3
   1972c:	00d76663          	bltu	a4,a3,19738 <_malloc_r+0x280>
   19730:	01062593          	slti	a1,a2,16
   19734:	1a058463          	beq	a1,zero,198dc <_malloc_r+0x424>
   19738:	e8c1a583          	lw	a1,-372(gp) # 1bcac <__malloc_top_pad>
   1973c:	e701a503          	lw	a0,-400(gp) # 1bc90 <__malloc_sbrk_base>
   19740:	fff00613          	addi	a2,zero,-1
   19744:	00b685b3          	add	a1,a3,a1
   19748:	42c50463          	beq	a0,a2,19b70 <_malloc_r+0x6b8>
   1974c:	00001637          	lui	a2,0x1
   19750:	00f60613          	addi	a2,a2,15 # 100f <exit-0xf0a5>
   19754:	00c585b3          	add	a1,a1,a2
   19758:	fffff637          	lui	a2,0xfffff
   1975c:	00c5f5b3          	and	a1,a1,a2
   19760:	00040513          	addi	a0,s0,0
   19764:	01012e23          	sw	a6,28(sp)
   19768:	00f12c23          	sw	a5,24(sp)
   1976c:	00d12a23          	sw	a3,20(sp)
   19770:	00e12823          	sw	a4,16(sp)
   19774:	00b12623          	sw	a1,12(sp)
   19778:	225000ef          	jal	ra,1a19c <_sbrk_r>
   1977c:	fff00613          	addi	a2,zero,-1
   19780:	00c12583          	lw	a1,12(sp)
   19784:	01012703          	lw	a4,16(sp)
   19788:	01412683          	lw	a3,20(sp)
   1978c:	01812783          	lw	a5,24(sp)
   19790:	01c12803          	lw	a6,28(sp)
   19794:	00050893          	addi	a7,a0,0
   19798:	34c50663          	beq	a0,a2,19ae4 <_malloc_r+0x62c>
   1979c:	00e78533          	add	a0,a5,a4
   197a0:	34a8e063          	bltu	a7,a0,19ae0 <_malloc_r+0x628>
   197a4:	fe818e13          	addi	t3,gp,-24 # 1be08 <__malloc_current_mallinfo>
   197a8:	000e2603          	lw	a2,0(t3)
   197ac:	00c58633          	add	a2,a1,a2
   197b0:	00ce2023          	sw	a2,0(t3)
   197b4:	00060e93          	addi	t4,a2,0 # fffff000 <__BSS_END__+0xfffe3040>
   197b8:	49150663          	beq	a0,a7,19c44 <_malloc_r+0x78c>
   197bc:	e701af03          	lw	t5,-400(gp) # 1bc90 <__malloc_sbrk_base>
   197c0:	fff00613          	addi	a2,zero,-1
   197c4:	48cf0e63          	beq	t5,a2,19c60 <_malloc_r+0x7a8>
   197c8:	40a88633          	sub	a2,a7,a0
   197cc:	01d60633          	add	a2,a2,t4
   197d0:	00ce2023          	sw	a2,0(t3)
   197d4:	0078fe93          	andi	t4,a7,7
   197d8:	3a0e8c63          	beq	t4,zero,19b90 <_malloc_r+0x6d8>
   197dc:	ff88f893          	andi	a7,a7,-8
   197e0:	00001637          	lui	a2,0x1
   197e4:	00888893          	addi	a7,a7,8
   197e8:	00860613          	addi	a2,a2,8 # 1008 <exit-0xf0ac>
   197ec:	00b88333          	add	t1,a7,a1
   197f0:	41d60633          	sub	a2,a2,t4
   197f4:	40660633          	sub	a2,a2,t1
   197f8:	01461613          	slli	a2,a2,0x14
   197fc:	01465593          	srli	a1,a2,0x14
   19800:	00040513          	addi	a0,s0,0
   19804:	03012623          	sw	a6,44(sp)
   19808:	03c12423          	sw	t3,40(sp)
   1980c:	02f12223          	sw	a5,36(sp)
   19810:	02d12023          	sw	a3,32(sp)
   19814:	00e12e23          	sw	a4,28(sp)
   19818:	01112c23          	sw	a7,24(sp)
   1981c:	01d12a23          	sw	t4,20(sp)
   19820:	00612823          	sw	t1,16(sp)
   19824:	00b12623          	sw	a1,12(sp)
   19828:	175000ef          	jal	ra,1a19c <_sbrk_r>
   1982c:	fff00613          	addi	a2,zero,-1
   19830:	00c12583          	lw	a1,12(sp)
   19834:	01012303          	lw	t1,16(sp)
   19838:	01412e83          	lw	t4,20(sp)
   1983c:	01812883          	lw	a7,24(sp)
   19840:	01c12703          	lw	a4,28(sp)
   19844:	02012683          	lw	a3,32(sp)
   19848:	02412783          	lw	a5,36(sp)
   1984c:	02812e03          	lw	t3,40(sp)
   19850:	02c12803          	lw	a6,44(sp)
   19854:	44c50c63          	beq	a0,a2,19cac <_malloc_r+0x7f4>
   19858:	000e2603          	lw	a2,0(t3)
   1985c:	41150533          	sub	a0,a0,a7
   19860:	00b50533          	add	a0,a0,a1
   19864:	00156513          	ori	a0,a0,1
   19868:	01182423          	sw	a7,8(a6)
   1986c:	00c58633          	add	a2,a1,a2
   19870:	00a8a223          	sw	a0,4(a7)
   19874:	00ce2023          	sw	a2,0(t3)
   19878:	03078e63          	beq	a5,a6,198b4 <_malloc_r+0x3fc>
   1987c:	00f00513          	addi	a0,zero,15
   19880:	3ee57463          	bgeu	a0,a4,19c68 <_malloc_r+0x7b0>
   19884:	0047a583          	lw	a1,4(a5)
   19888:	ff470713          	addi	a4,a4,-12
   1988c:	ff877713          	andi	a4,a4,-8
   19890:	0015f593          	andi	a1,a1,1
   19894:	00e5e5b3          	or	a1,a1,a4
   19898:	00b7a223          	sw	a1,4(a5)
   1989c:	00500313          	addi	t1,zero,5
   198a0:	00e785b3          	add	a1,a5,a4
   198a4:	0065a223          	sw	t1,4(a1)
   198a8:	0065a423          	sw	t1,8(a1)
   198ac:	40e56863          	bltu	a0,a4,19cbc <_malloc_r+0x804>
   198b0:	0048a503          	lw	a0,4(a7)
   198b4:	e881a703          	lw	a4,-376(gp) # 1bca8 <__malloc_max_sbrked_mem>
   198b8:	00c77463          	bgeu	a4,a2,198c0 <_malloc_r+0x408>
   198bc:	e8c1a423          	sw	a2,-376(gp) # 1bca8 <__malloc_max_sbrked_mem>
   198c0:	e841a703          	lw	a4,-380(gp) # 1bca4 <__malloc_max_total_mem>
   198c4:	00c77463          	bgeu	a4,a2,198cc <_malloc_r+0x414>
   198c8:	e8c1a223          	sw	a2,-380(gp) # 1bca4 <__malloc_max_total_mem>
   198cc:	00088793          	addi	a5,a7,0
   198d0:	21c0006f          	jal	zero,19aec <_malloc_r+0x634>
   198d4:	00482303          	lw	t1,4(a6)
   198d8:	d8dff06f          	jal	zero,19664 <_malloc_r+0x1ac>
   198dc:	0016e713          	ori	a4,a3,1
   198e0:	00e7a223          	sw	a4,4(a5)
   198e4:	00d786b3          	add	a3,a5,a3
   198e8:	00166613          	ori	a2,a2,1
   198ec:	00d82423          	sw	a3,8(a6)
   198f0:	00040513          	addi	a0,s0,0
   198f4:	00c6a223          	sw	a2,4(a3)
   198f8:	00f12623          	sw	a5,12(sp)
   198fc:	438000ef          	jal	ra,19d34 <__malloc_unlock>
   19900:	00c12783          	lw	a5,12(sp)
   19904:	03c12083          	lw	ra,60(sp)
   19908:	03812403          	lw	s0,56(sp)
   1990c:	00878513          	addi	a0,a5,8
   19910:	04010113          	addi	sp,sp,64
   19914:	00008067          	jalr	zero,0(ra)
   19918:	0087a603          	lw	a2,8(a5)
   1991c:	00e78733          	add	a4,a5,a4
   19920:	00472683          	lw	a3,4(a4)
   19924:	00b62623          	sw	a1,12(a2)
   19928:	00f12623          	sw	a5,12(sp)
   1992c:	0016e693          	ori	a3,a3,1
   19930:	00c5a423          	sw	a2,8(a1)
   19934:	00040513          	addi	a0,s0,0
   19938:	00d72223          	sw	a3,4(a4)
   1993c:	3f8000ef          	jal	ra,19d34 <__malloc_unlock>
   19940:	00c12783          	lw	a5,12(sp)
   19944:	03c12083          	lw	ra,60(sp)
   19948:	03812403          	lw	s0,56(sp)
   1994c:	00878513          	addi	a0,a5,8
   19950:	04010113          	addi	sp,sp,64
   19954:	00008067          	jalr	zero,0(ra)
   19958:	00c72783          	lw	a5,12(a4)
   1995c:	00288893          	addi	a7,a7,2
   19960:	c8f708e3          	beq	a4,a5,195f0 <_malloc_r+0x138>
   19964:	ba1ff06f          	jal	zero,19504 <_malloc_r+0x4c>
   19968:	00975613          	srli	a2,a4,0x9
   1996c:	00400593          	addi	a1,zero,4
   19970:	14c5fe63          	bgeu	a1,a2,19acc <_malloc_r+0x614>
   19974:	01400593          	addi	a1,zero,20
   19978:	28c5e063          	bltu	a1,a2,19bf8 <_malloc_r+0x740>
   1997c:	05c60513          	addi	a0,a2,92
   19980:	00351513          	slli	a0,a0,0x3
   19984:	05b60593          	addi	a1,a2,91
   19988:	00a80533          	add	a0,a6,a0
   1998c:	00052603          	lw	a2,0(a0)
   19990:	ff850513          	addi	a0,a0,-8
   19994:	00c51863          	bne	a0,a2,199a4 <_malloc_r+0x4ec>
   19998:	1e00006f          	jal	zero,19b78 <_malloc_r+0x6c0>
   1999c:	00862603          	lw	a2,8(a2)
   199a0:	00c50863          	beq	a0,a2,199b0 <_malloc_r+0x4f8>
   199a4:	00462583          	lw	a1,4(a2)
   199a8:	ffc5f593          	andi	a1,a1,-4
   199ac:	feb768e3          	bltu	a4,a1,1999c <_malloc_r+0x4e4>
   199b0:	00c62503          	lw	a0,12(a2)
   199b4:	00a7a623          	sw	a0,12(a5)
   199b8:	00c7a423          	sw	a2,8(a5)
   199bc:	00f52423          	sw	a5,8(a0)
   199c0:	00f62623          	sw	a5,12(a2)
   199c4:	ca1ff06f          	jal	zero,19664 <_malloc_r+0x1ac>
   199c8:	01400713          	addi	a4,zero,20
   199cc:	14f77063          	bgeu	a4,a5,19b0c <_malloc_r+0x654>
   199d0:	05400713          	addi	a4,zero,84
   199d4:	24f76063          	bltu	a4,a5,19c14 <_malloc_r+0x75c>
   199d8:	00c6d793          	srli	a5,a3,0xc
   199dc:	06f78893          	addi	a7,a5,111
   199e0:	06e78e13          	addi	t3,a5,110
   199e4:	00389513          	slli	a0,a7,0x3
   199e8:	bc5ff06f          	jal	zero,195ac <_malloc_r+0xf4>
   199ec:	001f8f93          	addi	t6,t6,1
   199f0:	003ff793          	andi	a5,t6,3
   199f4:	00830313          	addi	t1,t1,8
   199f8:	12078863          	beq	a5,zero,19b28 <_malloc_r+0x670>
   199fc:	00c32703          	lw	a4,12(t1)
   19a00:	cb9ff06f          	jal	zero,196b8 <_malloc_r+0x200>
   19a04:	0087a503          	lw	a0,8(a5)
   19a08:	0016e893          	ori	a7,a3,1
   19a0c:	0117a223          	sw	a7,4(a5)
   19a10:	00e52623          	sw	a4,12(a0)
   19a14:	00a72423          	sw	a0,8(a4)
   19a18:	00d786b3          	add	a3,a5,a3
   19a1c:	00d82a23          	sw	a3,20(a6)
   19a20:	00d82823          	sw	a3,16(a6)
   19a24:	0015e713          	ori	a4,a1,1
   19a28:	00c78633          	add	a2,a5,a2
   19a2c:	01c6a623          	sw	t3,12(a3)
   19a30:	01c6a423          	sw	t3,8(a3)
   19a34:	00e6a223          	sw	a4,4(a3)
   19a38:	00040513          	addi	a0,s0,0
   19a3c:	00b62023          	sw	a1,0(a2)
   19a40:	00f12623          	sw	a5,12(sp)
   19a44:	2f0000ef          	jal	ra,19d34 <__malloc_unlock>
   19a48:	00c12783          	lw	a5,12(sp)
   19a4c:	00878513          	addi	a0,a5,8
   19a50:	b0dff06f          	jal	zero,1955c <_malloc_r+0xa4>
   19a54:	0036d893          	srli	a7,a3,0x3
   19a58:	00868713          	addi	a4,a3,8
   19a5c:	a91ff06f          	jal	zero,194ec <_malloc_r+0x34>
   19a60:	00e78733          	add	a4,a5,a4
   19a64:	00472683          	lw	a3,4(a4)
   19a68:	00f12623          	sw	a5,12(sp)
   19a6c:	00040513          	addi	a0,s0,0
   19a70:	0016e693          	ori	a3,a3,1
   19a74:	00d72223          	sw	a3,4(a4)
   19a78:	2bc000ef          	jal	ra,19d34 <__malloc_unlock>
   19a7c:	00c12783          	lw	a5,12(sp)
   19a80:	00878513          	addi	a0,a5,8
   19a84:	ad9ff06f          	jal	zero,1955c <_malloc_r+0xa4>
   19a88:	0016e593          	ori	a1,a3,1
   19a8c:	00b7a223          	sw	a1,4(a5)
   19a90:	00d786b3          	add	a3,a5,a3
   19a94:	00d82a23          	sw	a3,20(a6)
   19a98:	00d82823          	sw	a3,16(a6)
   19a9c:	00166593          	ori	a1,a2,1
   19aa0:	00e78733          	add	a4,a5,a4
   19aa4:	01c6a623          	sw	t3,12(a3)
   19aa8:	01c6a423          	sw	t3,8(a3)
   19aac:	00b6a223          	sw	a1,4(a3)
   19ab0:	00040513          	addi	a0,s0,0
   19ab4:	00c72023          	sw	a2,0(a4)
   19ab8:	00f12623          	sw	a5,12(sp)
   19abc:	278000ef          	jal	ra,19d34 <__malloc_unlock>
   19ac0:	00c12783          	lw	a5,12(sp)
   19ac4:	00878513          	addi	a0,a5,8
   19ac8:	a95ff06f          	jal	zero,1955c <_malloc_r+0xa4>
   19acc:	00675613          	srli	a2,a4,0x6
   19ad0:	03960513          	addi	a0,a2,57
   19ad4:	00351513          	slli	a0,a0,0x3
   19ad8:	03860593          	addi	a1,a2,56
   19adc:	eadff06f          	jal	zero,19988 <_malloc_r+0x4d0>
   19ae0:	15078863          	beq	a5,a6,19c30 <_malloc_r+0x778>
   19ae4:	00882783          	lw	a5,8(a6)
   19ae8:	0047a503          	lw	a0,4(a5)
   19aec:	ffc57513          	andi	a0,a0,-4
   19af0:	40d50633          	sub	a2,a0,a3
   19af4:	00d56663          	bltu	a0,a3,19b00 <_malloc_r+0x648>
   19af8:	01062713          	slti	a4,a2,16
   19afc:	de0700e3          	beq	a4,zero,198dc <_malloc_r+0x424>
   19b00:	00040513          	addi	a0,s0,0
   19b04:	230000ef          	jal	ra,19d34 <__malloc_unlock>
   19b08:	a51ff06f          	jal	zero,19558 <_malloc_r+0xa0>
   19b0c:	05c78893          	addi	a7,a5,92
   19b10:	05b78e13          	addi	t3,a5,91
   19b14:	00389513          	slli	a0,a7,0x3
   19b18:	a95ff06f          	jal	zero,195ac <_malloc_r+0xf4>
   19b1c:	008f2783          	lw	a5,8(t5)
   19b20:	fff88893          	addi	a7,a7,-1
   19b24:	21e79263          	bne	a5,t5,19d28 <_malloc_r+0x870>
   19b28:	0038f793          	andi	a5,a7,3
   19b2c:	ff8f0f13          	addi	t5,t5,-8
   19b30:	fe0796e3          	bne	a5,zero,19b1c <_malloc_r+0x664>
   19b34:	00482703          	lw	a4,4(a6)
   19b38:	fff54793          	xori	a5,a0,-1
   19b3c:	00e7f7b3          	and	a5,a5,a4
   19b40:	00f82223          	sw	a5,4(a6)
   19b44:	00151513          	slli	a0,a0,0x1
   19b48:	fff50713          	addi	a4,a0,-1
   19b4c:	bcf778e3          	bgeu	a4,a5,1971c <_malloc_r+0x264>
   19b50:	00f57733          	and	a4,a0,a5
   19b54:	00071a63          	bne	a4,zero,19b68 <_malloc_r+0x6b0>
   19b58:	00151513          	slli	a0,a0,0x1
   19b5c:	00f57733          	and	a4,a0,a5
   19b60:	004f8f93          	addi	t6,t6,4
   19b64:	fe070ae3          	beq	a4,zero,19b58 <_malloc_r+0x6a0>
   19b68:	000f8893          	addi	a7,t6,0
   19b6c:	b39ff06f          	jal	zero,196a4 <_malloc_r+0x1ec>
   19b70:	01058593          	addi	a1,a1,16
   19b74:	bedff06f          	jal	zero,19760 <_malloc_r+0x2a8>
   19b78:	4025d593          	srai	a1,a1,0x2
   19b7c:	00100713          	addi	a4,zero,1
   19b80:	00b71733          	sll	a4,a4,a1
   19b84:	00e36333          	or	t1,t1,a4
   19b88:	00682223          	sw	t1,4(a6)
   19b8c:	e29ff06f          	jal	zero,199b4 <_malloc_r+0x4fc>
   19b90:	00b88333          	add	t1,a7,a1
   19b94:	40600633          	sub	a2,zero,t1
   19b98:	01461613          	slli	a2,a2,0x14
   19b9c:	01465593          	srli	a1,a2,0x14
   19ba0:	00040513          	addi	a0,s0,0
   19ba4:	03012423          	sw	a6,40(sp)
   19ba8:	03c12223          	sw	t3,36(sp)
   19bac:	02f12023          	sw	a5,32(sp)
   19bb0:	00d12e23          	sw	a3,28(sp)
   19bb4:	00e12c23          	sw	a4,24(sp)
   19bb8:	01112a23          	sw	a7,20(sp)
   19bbc:	00b12623          	sw	a1,12(sp)
   19bc0:	00612823          	sw	t1,16(sp)
   19bc4:	5d8000ef          	jal	ra,1a19c <_sbrk_r>
   19bc8:	fff00613          	addi	a2,zero,-1
   19bcc:	00c12583          	lw	a1,12(sp)
   19bd0:	01412883          	lw	a7,20(sp)
   19bd4:	01812703          	lw	a4,24(sp)
   19bd8:	01c12683          	lw	a3,28(sp)
   19bdc:	02012783          	lw	a5,32(sp)
   19be0:	02412e03          	lw	t3,36(sp)
   19be4:	02812803          	lw	a6,40(sp)
   19be8:	c6c518e3          	bne	a0,a2,19858 <_malloc_r+0x3a0>
   19bec:	01012503          	lw	a0,16(sp)
   19bf0:	00000593          	addi	a1,zero,0
   19bf4:	c65ff06f          	jal	zero,19858 <_malloc_r+0x3a0>
   19bf8:	05400593          	addi	a1,zero,84
   19bfc:	06c5ec63          	bltu	a1,a2,19c74 <_malloc_r+0x7bc>
   19c00:	00c75613          	srli	a2,a4,0xc
   19c04:	06f60513          	addi	a0,a2,111
   19c08:	00351513          	slli	a0,a0,0x3
   19c0c:	06e60593          	addi	a1,a2,110
   19c10:	d79ff06f          	jal	zero,19988 <_malloc_r+0x4d0>
   19c14:	15400713          	addi	a4,zero,340
   19c18:	06f76c63          	bltu	a4,a5,19c90 <_malloc_r+0x7d8>
   19c1c:	00f6d793          	srli	a5,a3,0xf
   19c20:	07878893          	addi	a7,a5,120
   19c24:	07778e13          	addi	t3,a5,119
   19c28:	00389513          	slli	a0,a7,0x3
   19c2c:	981ff06f          	jal	zero,195ac <_malloc_r+0xf4>
   19c30:	fe818e13          	addi	t3,gp,-24 # 1be08 <__malloc_current_mallinfo>
   19c34:	000e2e83          	lw	t4,0(t3)
   19c38:	01d58eb3          	add	t4,a1,t4
   19c3c:	01de2023          	sw	t4,0(t3)
   19c40:	b7dff06f          	jal	zero,197bc <_malloc_r+0x304>
   19c44:	01489f13          	slli	t5,a7,0x14
   19c48:	b60f1ae3          	bne	t5,zero,197bc <_malloc_r+0x304>
   19c4c:	00882883          	lw	a7,8(a6)
   19c50:	00b705b3          	add	a1,a4,a1
   19c54:	0015e513          	ori	a0,a1,1
   19c58:	00a8a223          	sw	a0,4(a7)
   19c5c:	c59ff06f          	jal	zero,198b4 <_malloc_r+0x3fc>
   19c60:	e711a823          	sw	a7,-400(gp) # 1bc90 <__malloc_sbrk_base>
   19c64:	b71ff06f          	jal	zero,197d4 <_malloc_r+0x31c>
   19c68:	00100793          	addi	a5,zero,1
   19c6c:	00f8a223          	sw	a5,4(a7)
   19c70:	e91ff06f          	jal	zero,19b00 <_malloc_r+0x648>
   19c74:	15400593          	addi	a1,zero,340
   19c78:	06c5ec63          	bltu	a1,a2,19cf0 <_malloc_r+0x838>
   19c7c:	00f75613          	srli	a2,a4,0xf
   19c80:	07860513          	addi	a0,a2,120
   19c84:	00351513          	slli	a0,a0,0x3
   19c88:	07760593          	addi	a1,a2,119
   19c8c:	cfdff06f          	jal	zero,19988 <_malloc_r+0x4d0>
   19c90:	55400713          	addi	a4,zero,1364
   19c94:	06f76c63          	bltu	a4,a5,19d0c <_malloc_r+0x854>
   19c98:	0126d793          	srli	a5,a3,0x12
   19c9c:	07d78893          	addi	a7,a5,125
   19ca0:	07c78e13          	addi	t3,a5,124
   19ca4:	00389513          	slli	a0,a7,0x3
   19ca8:	905ff06f          	jal	zero,195ac <_malloc_r+0xf4>
   19cac:	ff8e8e93          	addi	t4,t4,-8
   19cb0:	01d30533          	add	a0,t1,t4
   19cb4:	00000593          	addi	a1,zero,0
   19cb8:	ba1ff06f          	jal	zero,19858 <_malloc_r+0x3a0>
   19cbc:	00040513          	addi	a0,s0,0
   19cc0:	00878593          	addi	a1,a5,8
   19cc4:	01012a23          	sw	a6,20(sp)
   19cc8:	01c12823          	sw	t3,16(sp)
   19ccc:	00d12623          	sw	a3,12(sp)
   19cd0:	d00ff0ef          	jal	ra,191d0 <_free_r>
   19cd4:	01412803          	lw	a6,20(sp)
   19cd8:	01012e03          	lw	t3,16(sp)
   19cdc:	00c12683          	lw	a3,12(sp)
   19ce0:	00882883          	lw	a7,8(a6)
   19ce4:	000e2603          	lw	a2,0(t3)
   19ce8:	0048a503          	lw	a0,4(a7)
   19cec:	bc9ff06f          	jal	zero,198b4 <_malloc_r+0x3fc>
   19cf0:	55400593          	addi	a1,zero,1364
   19cf4:	02c5e463          	bltu	a1,a2,19d1c <_malloc_r+0x864>
   19cf8:	01275613          	srli	a2,a4,0x12
   19cfc:	07d60513          	addi	a0,a2,125
   19d00:	00351513          	slli	a0,a0,0x3
   19d04:	07c60593          	addi	a1,a2,124
   19d08:	c81ff06f          	jal	zero,19988 <_malloc_r+0x4d0>
   19d0c:	3f800513          	addi	a0,zero,1016
   19d10:	07f00893          	addi	a7,zero,127
   19d14:	07e00e13          	addi	t3,zero,126
   19d18:	895ff06f          	jal	zero,195ac <_malloc_r+0xf4>
   19d1c:	3f800513          	addi	a0,zero,1016
   19d20:	07e00593          	addi	a1,zero,126
   19d24:	c65ff06f          	jal	zero,19988 <_malloc_r+0x4d0>
   19d28:	00482783          	lw	a5,4(a6)
   19d2c:	e19ff06f          	jal	zero,19b44 <_malloc_r+0x68c>

00019d30 <__malloc_lock>:
   19d30:	00008067          	jalr	zero,0(ra)

00019d34 <__malloc_unlock>:
   19d34:	00008067          	jalr	zero,0(ra)

00019d38 <_fclose_r>:
   19d38:	ff010113          	addi	sp,sp,-16
   19d3c:	00112623          	sw	ra,12(sp)
   19d40:	01212023          	sw	s2,0(sp)
   19d44:	02058863          	beq	a1,zero,19d74 <_fclose_r+0x3c>
   19d48:	00812423          	sw	s0,8(sp)
   19d4c:	00912223          	sw	s1,4(sp)
   19d50:	00058413          	addi	s0,a1,0
   19d54:	00050493          	addi	s1,a0,0
   19d58:	00050663          	beq	a0,zero,19d64 <_fclose_r+0x2c>
   19d5c:	03452783          	lw	a5,52(a0)
   19d60:	0c078c63          	beq	a5,zero,19e38 <_fclose_r+0x100>
   19d64:	00c41783          	lh	a5,12(s0)
   19d68:	02079263          	bne	a5,zero,19d8c <_fclose_r+0x54>
   19d6c:	00812403          	lw	s0,8(sp)
   19d70:	00412483          	lw	s1,4(sp)
   19d74:	00c12083          	lw	ra,12(sp)
   19d78:	00000913          	addi	s2,zero,0
   19d7c:	00090513          	addi	a0,s2,0
   19d80:	00012903          	lw	s2,0(sp)
   19d84:	01010113          	addi	sp,sp,16
   19d88:	00008067          	jalr	zero,0(ra)
   19d8c:	00040593          	addi	a1,s0,0
   19d90:	00048513          	addi	a0,s1,0
   19d94:	0b8000ef          	jal	ra,19e4c <__sflush_r>
   19d98:	02c42783          	lw	a5,44(s0)
   19d9c:	00050913          	addi	s2,a0,0
   19da0:	00078a63          	beq	a5,zero,19db4 <_fclose_r+0x7c>
   19da4:	01c42583          	lw	a1,28(s0)
   19da8:	00048513          	addi	a0,s1,0
   19dac:	000780e7          	jalr	ra,0(a5)
   19db0:	06054463          	blt	a0,zero,19e18 <_fclose_r+0xe0>
   19db4:	00c45783          	lhu	a5,12(s0)
   19db8:	0807f793          	andi	a5,a5,128
   19dbc:	06079663          	bne	a5,zero,19e28 <_fclose_r+0xf0>
   19dc0:	03042583          	lw	a1,48(s0)
   19dc4:	00058c63          	beq	a1,zero,19ddc <_fclose_r+0xa4>
   19dc8:	04040793          	addi	a5,s0,64
   19dcc:	00f58663          	beq	a1,a5,19dd8 <_fclose_r+0xa0>
   19dd0:	00048513          	addi	a0,s1,0
   19dd4:	bfcff0ef          	jal	ra,191d0 <_free_r>
   19dd8:	02042823          	sw	zero,48(s0)
   19ddc:	04442583          	lw	a1,68(s0)
   19de0:	00058863          	beq	a1,zero,19df0 <_fclose_r+0xb8>
   19de4:	00048513          	addi	a0,s1,0
   19de8:	be8ff0ef          	jal	ra,191d0 <_free_r>
   19dec:	04042223          	sw	zero,68(s0)
   19df0:	b49fe0ef          	jal	ra,18938 <__sfp_lock_acquire>
   19df4:	00041623          	sh	zero,12(s0)
   19df8:	b45fe0ef          	jal	ra,1893c <__sfp_lock_release>
   19dfc:	00c12083          	lw	ra,12(sp)
   19e00:	00812403          	lw	s0,8(sp)
   19e04:	00412483          	lw	s1,4(sp)
   19e08:	00090513          	addi	a0,s2,0
   19e0c:	00012903          	lw	s2,0(sp)
   19e10:	01010113          	addi	sp,sp,16
   19e14:	00008067          	jalr	zero,0(ra)
   19e18:	00c45783          	lhu	a5,12(s0)
   19e1c:	fff00913          	addi	s2,zero,-1
   19e20:	0807f793          	andi	a5,a5,128
   19e24:	f8078ee3          	beq	a5,zero,19dc0 <_fclose_r+0x88>
   19e28:	01042583          	lw	a1,16(s0)
   19e2c:	00048513          	addi	a0,s1,0
   19e30:	ba0ff0ef          	jal	ra,191d0 <_free_r>
   19e34:	f8dff06f          	jal	zero,19dc0 <_fclose_r+0x88>
   19e38:	addfe0ef          	jal	ra,18914 <__sinit>
   19e3c:	f29ff06f          	jal	zero,19d64 <_fclose_r+0x2c>

00019e40 <fclose>:
   19e40:	00050593          	addi	a1,a0,0
   19e44:	e6c1a503          	lw	a0,-404(gp) # 1bc8c <_impure_ptr>
   19e48:	ef1ff06f          	jal	zero,19d38 <_fclose_r>

00019e4c <__sflush_r>:
   19e4c:	00c59703          	lh	a4,12(a1)
   19e50:	fe010113          	addi	sp,sp,-32
   19e54:	00812c23          	sw	s0,24(sp)
   19e58:	01312623          	sw	s3,12(sp)
   19e5c:	00112e23          	sw	ra,28(sp)
   19e60:	00877793          	andi	a5,a4,8
   19e64:	00058413          	addi	s0,a1,0
   19e68:	00050993          	addi	s3,a0,0
   19e6c:	12079263          	bne	a5,zero,19f90 <__sflush_r+0x144>
   19e70:	000017b7          	lui	a5,0x1
   19e74:	80078793          	addi	a5,a5,-2048 # 800 <exit-0xf8b4>
   19e78:	0045a683          	lw	a3,4(a1)
   19e7c:	00f767b3          	or	a5,a4,a5
   19e80:	00f59623          	sh	a5,12(a1)
   19e84:	18d05c63          	bge	zero,a3,1a01c <__sflush_r+0x1d0>
   19e88:	02842803          	lw	a6,40(s0)
   19e8c:	0e080663          	beq	a6,zero,19f78 <__sflush_r+0x12c>
   19e90:	00912a23          	sw	s1,20(sp)
   19e94:	01371693          	slli	a3,a4,0x13
   19e98:	0009a483          	lw	s1,0(s3)
   19e9c:	0009a023          	sw	zero,0(s3)
   19ea0:	1806ca63          	blt	a3,zero,1a034 <__sflush_r+0x1e8>
   19ea4:	01c42583          	lw	a1,28(s0)
   19ea8:	00000613          	addi	a2,zero,0
   19eac:	00100693          	addi	a3,zero,1
   19eb0:	00098513          	addi	a0,s3,0
   19eb4:	000800e7          	jalr	ra,0(a6)
   19eb8:	fff00793          	addi	a5,zero,-1
   19ebc:	00050613          	addi	a2,a0,0
   19ec0:	1af50c63          	beq	a0,a5,1a078 <__sflush_r+0x22c>
   19ec4:	00c41783          	lh	a5,12(s0)
   19ec8:	02842803          	lw	a6,40(s0)
   19ecc:	0047f793          	andi	a5,a5,4
   19ed0:	00078e63          	beq	a5,zero,19eec <__sflush_r+0xa0>
   19ed4:	00442703          	lw	a4,4(s0)
   19ed8:	03042783          	lw	a5,48(s0)
   19edc:	40e60633          	sub	a2,a2,a4
   19ee0:	00078663          	beq	a5,zero,19eec <__sflush_r+0xa0>
   19ee4:	03c42783          	lw	a5,60(s0)
   19ee8:	40f60633          	sub	a2,a2,a5
   19eec:	01c42583          	lw	a1,28(s0)
   19ef0:	00000693          	addi	a3,zero,0
   19ef4:	00098513          	addi	a0,s3,0
   19ef8:	000800e7          	jalr	ra,0(a6)
   19efc:	fff00713          	addi	a4,zero,-1
   19f00:	00c41783          	lh	a5,12(s0)
   19f04:	12e51c63          	bne	a0,a4,1a03c <__sflush_r+0x1f0>
   19f08:	0009a683          	lw	a3,0(s3)
   19f0c:	01d00713          	addi	a4,zero,29
   19f10:	18d76263          	bltu	a4,a3,1a094 <__sflush_r+0x248>
   19f14:	20400737          	lui	a4,0x20400
   19f18:	00170713          	addi	a4,a4,1 # 20400001 <__BSS_END__+0x203e4041>
   19f1c:	00d75733          	srl	a4,a4,a3
   19f20:	00177713          	andi	a4,a4,1
   19f24:	16070863          	beq	a4,zero,1a094 <__sflush_r+0x248>
   19f28:	01042683          	lw	a3,16(s0)
   19f2c:	fffff737          	lui	a4,0xfffff
   19f30:	7ff70713          	addi	a4,a4,2047 # fffff7ff <__BSS_END__+0xfffe383f>
   19f34:	00e7f733          	and	a4,a5,a4
   19f38:	00e41623          	sh	a4,12(s0)
   19f3c:	00042223          	sw	zero,4(s0)
   19f40:	00d42023          	sw	a3,0(s0)
   19f44:	01379713          	slli	a4,a5,0x13
   19f48:	00075663          	bge	a4,zero,19f54 <__sflush_r+0x108>
   19f4c:	0009a783          	lw	a5,0(s3)
   19f50:	10078863          	beq	a5,zero,1a060 <__sflush_r+0x214>
   19f54:	03042583          	lw	a1,48(s0)
   19f58:	0099a023          	sw	s1,0(s3)
   19f5c:	10058a63          	beq	a1,zero,1a070 <__sflush_r+0x224>
   19f60:	04040793          	addi	a5,s0,64
   19f64:	00f58663          	beq	a1,a5,19f70 <__sflush_r+0x124>
   19f68:	00098513          	addi	a0,s3,0
   19f6c:	a64ff0ef          	jal	ra,191d0 <_free_r>
   19f70:	01412483          	lw	s1,20(sp)
   19f74:	02042823          	sw	zero,48(s0)
   19f78:	01c12083          	lw	ra,28(sp)
   19f7c:	01812403          	lw	s0,24(sp)
   19f80:	00c12983          	lw	s3,12(sp)
   19f84:	00000513          	addi	a0,zero,0
   19f88:	02010113          	addi	sp,sp,32
   19f8c:	00008067          	jalr	zero,0(ra)
   19f90:	01212823          	sw	s2,16(sp)
   19f94:	0105a903          	lw	s2,16(a1)
   19f98:	08090a63          	beq	s2,zero,1a02c <__sflush_r+0x1e0>
   19f9c:	00912a23          	sw	s1,20(sp)
   19fa0:	0005a483          	lw	s1,0(a1)
   19fa4:	00377713          	andi	a4,a4,3
   19fa8:	0125a023          	sw	s2,0(a1)
   19fac:	412484b3          	sub	s1,s1,s2
   19fb0:	00000793          	addi	a5,zero,0
   19fb4:	00071463          	bne	a4,zero,19fbc <__sflush_r+0x170>
   19fb8:	0145a783          	lw	a5,20(a1)
   19fbc:	00f42423          	sw	a5,8(s0)
   19fc0:	00904863          	blt	zero,s1,19fd0 <__sflush_r+0x184>
   19fc4:	0640006f          	jal	zero,1a028 <__sflush_r+0x1dc>
   19fc8:	00a90933          	add	s2,s2,a0
   19fcc:	04905e63          	bge	zero,s1,1a028 <__sflush_r+0x1dc>
   19fd0:	02442783          	lw	a5,36(s0)
   19fd4:	01c42583          	lw	a1,28(s0)
   19fd8:	00048693          	addi	a3,s1,0
   19fdc:	00090613          	addi	a2,s2,0
   19fe0:	00098513          	addi	a0,s3,0
   19fe4:	000780e7          	jalr	ra,0(a5)
   19fe8:	40a484b3          	sub	s1,s1,a0
   19fec:	fca04ee3          	blt	zero,a0,19fc8 <__sflush_r+0x17c>
   19ff0:	00c45783          	lhu	a5,12(s0)
   19ff4:	01012903          	lw	s2,16(sp)
   19ff8:	0407e793          	ori	a5,a5,64
   19ffc:	01c12083          	lw	ra,28(sp)
   1a000:	00f41623          	sh	a5,12(s0)
   1a004:	01812403          	lw	s0,24(sp)
   1a008:	01412483          	lw	s1,20(sp)
   1a00c:	00c12983          	lw	s3,12(sp)
   1a010:	fff00513          	addi	a0,zero,-1
   1a014:	02010113          	addi	sp,sp,32
   1a018:	00008067          	jalr	zero,0(ra)
   1a01c:	03c5a683          	lw	a3,60(a1)
   1a020:	e6d044e3          	blt	zero,a3,19e88 <__sflush_r+0x3c>
   1a024:	f55ff06f          	jal	zero,19f78 <__sflush_r+0x12c>
   1a028:	01412483          	lw	s1,20(sp)
   1a02c:	01012903          	lw	s2,16(sp)
   1a030:	f49ff06f          	jal	zero,19f78 <__sflush_r+0x12c>
   1a034:	05042603          	lw	a2,80(s0)
   1a038:	e95ff06f          	jal	zero,19ecc <__sflush_r+0x80>
   1a03c:	01042683          	lw	a3,16(s0)
   1a040:	fffff737          	lui	a4,0xfffff
   1a044:	7ff70713          	addi	a4,a4,2047 # fffff7ff <__BSS_END__+0xfffe383f>
   1a048:	00e7f733          	and	a4,a5,a4
   1a04c:	00e41623          	sh	a4,12(s0)
   1a050:	00042223          	sw	zero,4(s0)
   1a054:	00d42023          	sw	a3,0(s0)
   1a058:	01379713          	slli	a4,a5,0x13
   1a05c:	ee075ce3          	bge	a4,zero,19f54 <__sflush_r+0x108>
   1a060:	03042583          	lw	a1,48(s0)
   1a064:	04a42823          	sw	a0,80(s0)
   1a068:	0099a023          	sw	s1,0(s3)
   1a06c:	ee059ae3          	bne	a1,zero,19f60 <__sflush_r+0x114>
   1a070:	01412483          	lw	s1,20(sp)
   1a074:	f05ff06f          	jal	zero,19f78 <__sflush_r+0x12c>
   1a078:	0009a783          	lw	a5,0(s3)
   1a07c:	e40784e3          	beq	a5,zero,19ec4 <__sflush_r+0x78>
   1a080:	fe378713          	addi	a4,a5,-29
   1a084:	00070c63          	beq	a4,zero,1a09c <__sflush_r+0x250>
   1a088:	fea78793          	addi	a5,a5,-22
   1a08c:	00078863          	beq	a5,zero,1a09c <__sflush_r+0x250>
   1a090:	00c45783          	lhu	a5,12(s0)
   1a094:	0407e793          	ori	a5,a5,64
   1a098:	f65ff06f          	jal	zero,19ffc <__sflush_r+0x1b0>
   1a09c:	0099a023          	sw	s1,0(s3)
   1a0a0:	01412483          	lw	s1,20(sp)
   1a0a4:	ed5ff06f          	jal	zero,19f78 <__sflush_r+0x12c>

0001a0a8 <_fflush_r>:
   1a0a8:	00050793          	addi	a5,a0,0
   1a0ac:	00050663          	beq	a0,zero,1a0b8 <_fflush_r+0x10>
   1a0b0:	03452703          	lw	a4,52(a0)
   1a0b4:	00070e63          	beq	a4,zero,1a0d0 <_fflush_r+0x28>
   1a0b8:	00c59703          	lh	a4,12(a1)
   1a0bc:	00071663          	bne	a4,zero,1a0c8 <_fflush_r+0x20>
   1a0c0:	00000513          	addi	a0,zero,0
   1a0c4:	00008067          	jalr	zero,0(ra)
   1a0c8:	00078513          	addi	a0,a5,0
   1a0cc:	d81ff06f          	jal	zero,19e4c <__sflush_r>
   1a0d0:	fe010113          	addi	sp,sp,-32
   1a0d4:	00b12623          	sw	a1,12(sp)
   1a0d8:	00112e23          	sw	ra,28(sp)
   1a0dc:	00a12423          	sw	a0,8(sp)
   1a0e0:	835fe0ef          	jal	ra,18914 <__sinit>
   1a0e4:	00c12583          	lw	a1,12(sp)
   1a0e8:	00812783          	lw	a5,8(sp)
   1a0ec:	00c59703          	lh	a4,12(a1)
   1a0f0:	00070a63          	beq	a4,zero,1a104 <_fflush_r+0x5c>
   1a0f4:	01c12083          	lw	ra,28(sp)
   1a0f8:	00078513          	addi	a0,a5,0
   1a0fc:	02010113          	addi	sp,sp,32
   1a100:	d4dff06f          	jal	zero,19e4c <__sflush_r>
   1a104:	01c12083          	lw	ra,28(sp)
   1a108:	00000513          	addi	a0,zero,0
   1a10c:	02010113          	addi	sp,sp,32
   1a110:	00008067          	jalr	zero,0(ra)

0001a114 <fflush>:
   1a114:	06050063          	beq	a0,zero,1a174 <fflush+0x60>
   1a118:	00050593          	addi	a1,a0,0
   1a11c:	e6c1a503          	lw	a0,-404(gp) # 1bc8c <_impure_ptr>
   1a120:	00050663          	beq	a0,zero,1a12c <fflush+0x18>
   1a124:	03452783          	lw	a5,52(a0)
   1a128:	00078c63          	beq	a5,zero,1a140 <fflush+0x2c>
   1a12c:	00c59783          	lh	a5,12(a1)
   1a130:	00079663          	bne	a5,zero,1a13c <fflush+0x28>
   1a134:	00000513          	addi	a0,zero,0
   1a138:	00008067          	jalr	zero,0(ra)
   1a13c:	d11ff06f          	jal	zero,19e4c <__sflush_r>
   1a140:	fe010113          	addi	sp,sp,-32
   1a144:	00b12623          	sw	a1,12(sp)
   1a148:	00a12423          	sw	a0,8(sp)
   1a14c:	00112e23          	sw	ra,28(sp)
   1a150:	fc4fe0ef          	jal	ra,18914 <__sinit>
   1a154:	00c12583          	lw	a1,12(sp)
   1a158:	00812503          	lw	a0,8(sp)
   1a15c:	00c59783          	lh	a5,12(a1)
   1a160:	02079863          	bne	a5,zero,1a190 <fflush+0x7c>
   1a164:	01c12083          	lw	ra,28(sp)
   1a168:	00000513          	addi	a0,zero,0
   1a16c:	02010113          	addi	sp,sp,32
   1a170:	00008067          	jalr	zero,0(ra)
   1a174:	0001b637          	lui	a2,0x1b
   1a178:	0001a5b7          	lui	a1,0x1a
   1a17c:	0001b537          	lui	a0,0x1b
   1a180:	62060613          	addi	a2,a2,1568 # 1b620 <__sglue>
   1a184:	0a858593          	addi	a1,a1,168 # 1a0a8 <_fflush_r>
   1a188:	63050513          	addi	a0,a0,1584 # 1b630 <_impure_data>
   1a18c:	fe4fe06f          	jal	zero,18970 <_fwalk_sglue>
   1a190:	01c12083          	lw	ra,28(sp)
   1a194:	02010113          	addi	sp,sp,32
   1a198:	cb5ff06f          	jal	zero,19e4c <__sflush_r>

0001a19c <_sbrk_r>:
   1a19c:	ff010113          	addi	sp,sp,-16
   1a1a0:	00812423          	sw	s0,8(sp)
   1a1a4:	00912223          	sw	s1,4(sp)
   1a1a8:	00050493          	addi	s1,a0,0
   1a1ac:	00058513          	addi	a0,a1,0
   1a1b0:	00112623          	sw	ra,12(sp)
   1a1b4:	e601ae23          	sw	zero,-388(gp) # 1bc9c <errno>
   1a1b8:	220000ef          	jal	ra,1a3d8 <_sbrk>
   1a1bc:	fff00793          	addi	a5,zero,-1
   1a1c0:	00f50c63          	beq	a0,a5,1a1d8 <_sbrk_r+0x3c>
   1a1c4:	00c12083          	lw	ra,12(sp)
   1a1c8:	00812403          	lw	s0,8(sp)
   1a1cc:	00412483          	lw	s1,4(sp)
   1a1d0:	01010113          	addi	sp,sp,16
   1a1d4:	00008067          	jalr	zero,0(ra)
   1a1d8:	e7c1a783          	lw	a5,-388(gp) # 1bc9c <errno>
   1a1dc:	fe0784e3          	beq	a5,zero,1a1c4 <_sbrk_r+0x28>
   1a1e0:	00c12083          	lw	ra,12(sp)
   1a1e4:	00812403          	lw	s0,8(sp)
   1a1e8:	00f4a023          	sw	a5,0(s1)
   1a1ec:	00412483          	lw	s1,4(sp)
   1a1f0:	01010113          	addi	sp,sp,16
   1a1f4:	00008067          	jalr	zero,0(ra)

0001a1f8 <__libc_fini_array>:
   1a1f8:	ff010113          	addi	sp,sp,-16
   1a1fc:	00812423          	sw	s0,8(sp)
   1a200:	0001b7b7          	lui	a5,0x1b
   1a204:	0001b437          	lui	s0,0x1b
   1a208:	62078793          	addi	a5,a5,1568 # 1b620 <__sglue>
   1a20c:	61c40413          	addi	s0,s0,1564 # 1b61c <__do_global_dtors_aux_fini_array_entry>
   1a210:	408787b3          	sub	a5,a5,s0
   1a214:	00912223          	sw	s1,4(sp)
   1a218:	00112623          	sw	ra,12(sp)
   1a21c:	4027d493          	srai	s1,a5,0x2
   1a220:	02048063          	beq	s1,zero,1a240 <__libc_fini_array+0x48>
   1a224:	ffc40413          	addi	s0,s0,-4
   1a228:	00f40433          	add	s0,s0,a5
   1a22c:	00042783          	lw	a5,0(s0)
   1a230:	fff48493          	addi	s1,s1,-1
   1a234:	ffc40413          	addi	s0,s0,-4
   1a238:	000780e7          	jalr	ra,0(a5)
   1a23c:	fe0498e3          	bne	s1,zero,1a22c <__libc_fini_array+0x34>
   1a240:	00c12083          	lw	ra,12(sp)
   1a244:	00812403          	lw	s0,8(sp)
   1a248:	00412483          	lw	s1,4(sp)
   1a24c:	01010113          	addi	sp,sp,16
   1a250:	00008067          	jalr	zero,0(ra)

0001a254 <__register_exitproc>:
   1a254:	e801a783          	lw	a5,-384(gp) # 1bca0 <__atexit>
   1a258:	04078c63          	beq	a5,zero,1a2b0 <__register_exitproc+0x5c>
   1a25c:	0047a703          	lw	a4,4(a5)
   1a260:	01f00813          	addi	a6,zero,31
   1a264:	06e84e63          	blt	a6,a4,1a2e0 <__register_exitproc+0x8c>
   1a268:	00271813          	slli	a6,a4,0x2
   1a26c:	02050663          	beq	a0,zero,1a298 <__register_exitproc+0x44>
   1a270:	01078333          	add	t1,a5,a6
   1a274:	08c32423          	sw	a2,136(t1)
   1a278:	1887a883          	lw	a7,392(a5)
   1a27c:	00100613          	addi	a2,zero,1
   1a280:	00e61633          	sll	a2,a2,a4
   1a284:	00c8e8b3          	or	a7,a7,a2
   1a288:	1917a423          	sw	a7,392(a5)
   1a28c:	10d32423          	sw	a3,264(t1)
   1a290:	00200693          	addi	a3,zero,2
   1a294:	02d50463          	beq	a0,a3,1a2bc <__register_exitproc+0x68>
   1a298:	00170713          	addi	a4,a4,1
   1a29c:	00e7a223          	sw	a4,4(a5)
   1a2a0:	010787b3          	add	a5,a5,a6
   1a2a4:	00b7a423          	sw	a1,8(a5)
   1a2a8:	00000513          	addi	a0,zero,0
   1a2ac:	00008067          	jalr	zero,0(ra)
   1a2b0:	01018793          	addi	a5,gp,16 # 1be30 <__atexit0>
   1a2b4:	e8f1a023          	sw	a5,-384(gp) # 1bca0 <__atexit>
   1a2b8:	fa5ff06f          	jal	zero,1a25c <__register_exitproc+0x8>
   1a2bc:	18c7a683          	lw	a3,396(a5)
   1a2c0:	00170713          	addi	a4,a4,1
   1a2c4:	00e7a223          	sw	a4,4(a5)
   1a2c8:	00c6e6b3          	or	a3,a3,a2
   1a2cc:	18d7a623          	sw	a3,396(a5)
   1a2d0:	010787b3          	add	a5,a5,a6
   1a2d4:	00b7a423          	sw	a1,8(a5)
   1a2d8:	00000513          	addi	a0,zero,0
   1a2dc:	00008067          	jalr	zero,0(ra)
   1a2e0:	fff00513          	addi	a0,zero,-1
   1a2e4:	00008067          	jalr	zero,0(ra)

0001a2e8 <_close>:
   1a2e8:	03900893          	addi	a7,zero,57
   1a2ec:	00000073          	ecall
   1a2f0:	00054463          	blt	a0,zero,1a2f8 <_close+0x10>
   1a2f4:	00008067          	jalr	zero,0(ra)
   1a2f8:	fe010113          	addi	sp,sp,-32
   1a2fc:	00112e23          	sw	ra,28(sp)
   1a300:	00a12623          	sw	a0,12(sp)
   1a304:	18c000ef          	jal	ra,1a490 <__errno>
   1a308:	00c12783          	lw	a5,12(sp)
   1a30c:	01c12083          	lw	ra,28(sp)
   1a310:	40f007b3          	sub	a5,zero,a5
   1a314:	00f52023          	sw	a5,0(a0)
   1a318:	fff00793          	addi	a5,zero,-1
   1a31c:	00078513          	addi	a0,a5,0
   1a320:	02010113          	addi	sp,sp,32
   1a324:	00008067          	jalr	zero,0(ra)

0001a328 <_exit>:
   1a328:	05d00893          	addi	a7,zero,93
   1a32c:	00000073          	ecall
   1a330:	00054463          	blt	a0,zero,1a338 <_exit+0x10>
   1a334:	0000006f          	jal	zero,1a334 <_exit+0xc>
   1a338:	fe010113          	addi	sp,sp,-32
   1a33c:	00112e23          	sw	ra,28(sp)
   1a340:	00a12623          	sw	a0,12(sp)
   1a344:	14c000ef          	jal	ra,1a490 <__errno>
   1a348:	00c12783          	lw	a5,12(sp)
   1a34c:	40f007b3          	sub	a5,zero,a5
   1a350:	00f52023          	sw	a5,0(a0)
   1a354:	0000006f          	jal	zero,1a354 <_exit+0x2c>

0001a358 <_lseek>:
   1a358:	03e00893          	addi	a7,zero,62
   1a35c:	00000073          	ecall
   1a360:	00054463          	blt	a0,zero,1a368 <_lseek+0x10>
   1a364:	00008067          	jalr	zero,0(ra)
   1a368:	fe010113          	addi	sp,sp,-32
   1a36c:	00112e23          	sw	ra,28(sp)
   1a370:	00a12623          	sw	a0,12(sp)
   1a374:	11c000ef          	jal	ra,1a490 <__errno>
   1a378:	00c12783          	lw	a5,12(sp)
   1a37c:	01c12083          	lw	ra,28(sp)
   1a380:	40f007b3          	sub	a5,zero,a5
   1a384:	00f52023          	sw	a5,0(a0)
   1a388:	fff00793          	addi	a5,zero,-1
   1a38c:	00078513          	addi	a0,a5,0
   1a390:	02010113          	addi	sp,sp,32
   1a394:	00008067          	jalr	zero,0(ra)

0001a398 <_read>:
   1a398:	03f00893          	addi	a7,zero,63
   1a39c:	00000073          	ecall
   1a3a0:	00054463          	blt	a0,zero,1a3a8 <_read+0x10>
   1a3a4:	00008067          	jalr	zero,0(ra)
   1a3a8:	fe010113          	addi	sp,sp,-32
   1a3ac:	00112e23          	sw	ra,28(sp)
   1a3b0:	00a12623          	sw	a0,12(sp)
   1a3b4:	0dc000ef          	jal	ra,1a490 <__errno>
   1a3b8:	00c12783          	lw	a5,12(sp)
   1a3bc:	01c12083          	lw	ra,28(sp)
   1a3c0:	40f007b3          	sub	a5,zero,a5
   1a3c4:	00f52023          	sw	a5,0(a0)
   1a3c8:	fff00793          	addi	a5,zero,-1
   1a3cc:	00078513          	addi	a0,a5,0
   1a3d0:	02010113          	addi	sp,sp,32
   1a3d4:	00008067          	jalr	zero,0(ra)

0001a3d8 <_sbrk>:
   1a3d8:	e901a783          	lw	a5,-368(gp) # 1bcb0 <heap_end.0>
   1a3dc:	ff010113          	addi	sp,sp,-16
   1a3e0:	00112623          	sw	ra,12(sp)
   1a3e4:	00050713          	addi	a4,a0,0
   1a3e8:	02079063          	bne	a5,zero,1a408 <_sbrk+0x30>
   1a3ec:	0d600893          	addi	a7,zero,214
   1a3f0:	00000513          	addi	a0,zero,0
   1a3f4:	00000073          	ecall
   1a3f8:	fff00793          	addi	a5,zero,-1
   1a3fc:	02f50c63          	beq	a0,a5,1a434 <_sbrk+0x5c>
   1a400:	00050793          	addi	a5,a0,0
   1a404:	e8a1a823          	sw	a0,-368(gp) # 1bcb0 <heap_end.0>
   1a408:	00f70533          	add	a0,a4,a5
   1a40c:	0d600893          	addi	a7,zero,214
   1a410:	00000073          	ecall
   1a414:	e901a783          	lw	a5,-368(gp) # 1bcb0 <heap_end.0>
   1a418:	00f70733          	add	a4,a4,a5
   1a41c:	00e51c63          	bne	a0,a4,1a434 <_sbrk+0x5c>
   1a420:	00c12083          	lw	ra,12(sp)
   1a424:	e8a1a823          	sw	a0,-368(gp) # 1bcb0 <heap_end.0>
   1a428:	00078513          	addi	a0,a5,0
   1a42c:	01010113          	addi	sp,sp,16
   1a430:	00008067          	jalr	zero,0(ra)
   1a434:	05c000ef          	jal	ra,1a490 <__errno>
   1a438:	00c12083          	lw	ra,12(sp)
   1a43c:	00c00793          	addi	a5,zero,12
   1a440:	00f52023          	sw	a5,0(a0)
   1a444:	fff00513          	addi	a0,zero,-1
   1a448:	01010113          	addi	sp,sp,16
   1a44c:	00008067          	jalr	zero,0(ra)

0001a450 <_write>:
   1a450:	04000893          	addi	a7,zero,64
   1a454:	00000073          	ecall
   1a458:	00054463          	blt	a0,zero,1a460 <_write+0x10>
   1a45c:	00008067          	jalr	zero,0(ra)
   1a460:	fe010113          	addi	sp,sp,-32
   1a464:	00112e23          	sw	ra,28(sp)
   1a468:	00a12623          	sw	a0,12(sp)
   1a46c:	024000ef          	jal	ra,1a490 <__errno>
   1a470:	00c12783          	lw	a5,12(sp)
   1a474:	01c12083          	lw	ra,28(sp)
   1a478:	40f007b3          	sub	a5,zero,a5
   1a47c:	00f52023          	sw	a5,0(a0)
   1a480:	fff00793          	addi	a5,zero,-1
   1a484:	00078513          	addi	a0,a5,0
   1a488:	02010113          	addi	sp,sp,32
   1a48c:	00008067          	jalr	zero,0(ra)

0001a490 <__errno>:
   1a490:	e6c1a503          	lw	a0,-404(gp) # 1bc8c <_impure_ptr>
   1a494:	00008067          	jalr	zero,0(ra)
