
./basicmath_large_O3:     file format elf32-littleriscv


Disassembly of section .text:

000100b4 <exit>:
   100b4:	ff010113          	addi	sp,sp,-16
   100b8:	00000593          	addi	a1,zero,0
   100bc:	00812423          	sw	s0,8(sp)
   100c0:	00112623          	sw	ra,12(sp)
   100c4:	00050413          	addi	s0,a0,0
   100c8:	0750c0ef          	jal	ra,1c93c <__call_exitprocs>
   100cc:	2a81a783          	lw	a5,680(gp) # 29ab8 <__stdio_exit_handler>
   100d0:	00078463          	beq	a5,zero,100d8 <exit+0x24>
   100d4:	000780e7          	jalr	ra,0(a5)
   100d8:	00040513          	addi	a0,s0,0
   100dc:	371170ef          	jal	ra,27c4c <_exit>

000100e0 <main>:
   100e0:	00028537          	lui	a0,0x28
   100e4:	f3010113          	addi	sp,sp,-208
   100e8:	3f850513          	addi	a0,a0,1016 # 283f8 <__floatsitf+0x150>
   100ec:	0c112623          	sw	ra,204(sp)
   100f0:	0d212023          	sw	s2,192(sp)
   100f4:	0b412c23          	sw	s4,184(sp)
   100f8:	0b512a23          	sw	s5,180(sp)
   100fc:	0b612823          	sw	s6,176(sp)
   10100:	0c812423          	sw	s0,200(sp)
   10104:	0c912223          	sw	s1,196(sp)
   10108:	0b312e23          	sw	s3,188(sp)
   1010c:	0b712623          	sw	s7,172(sp)
   10110:	0b812423          	sw	s8,168(sp)
   10114:	0b912223          	sw	s9,164(sp)
   10118:	0ba12023          	sw	s10,160(sp)
   1011c:	09b12e23          	sw	s11,156(sp)
   10120:	23c0c0ef          	jal	ra,1c35c <puts>
   10124:	ed01a703          	lw	a4,-304(gp) # 296e0 <__SDATA_BEGIN__+0x28>
   10128:	ed81a603          	lw	a2,-296(gp) # 296e8 <__SDATA_BEGIN__+0x30>
   1012c:	ec81a803          	lw	a6,-312(gp) # 296d8 <__SDATA_BEGIN__+0x20>
   10130:	ecc1a883          	lw	a7,-308(gp) # 296dc <__SDATA_BEGIN__+0x24>
   10134:	ed41a783          	lw	a5,-300(gp) # 296e4 <__SDATA_BEGIN__+0x2c>
   10138:	edc1a683          	lw	a3,-292(gp) # 296ec <__SDATA_BEGIN__+0x34>
   1013c:	ec01a503          	lw	a0,-320(gp) # 296d0 <__SDATA_BEGIN__+0x18>
   10140:	ec41a583          	lw	a1,-316(gp) # 296d4 <__SDATA_BEGIN__+0x1c>
   10144:	07810a13          	addi	s4,sp,120
   10148:	06c10a93          	addi	s5,sp,108
   1014c:	01412223          	sw	s4,4(sp)
   10150:	01512023          	sw	s5,0(sp)
   10154:	089000ef          	jal	ra,109dc <SolveCubic>
   10158:	000287b7          	lui	a5,0x28
   1015c:	42078513          	addi	a0,a5,1056 # 28420 <__floatsitf+0x178>
   10160:	0c00c0ef          	jal	ra,1c220 <printf>
   10164:	06c12783          	lw	a5,108(sp)
   10168:	02f05a63          	bge	zero,a5,1019c <main+0xbc>
   1016c:	000287b7          	lui	a5,0x28
   10170:	42c78413          	addi	s0,a5,1068 # 2842c <__floatsitf+0x184>
   10174:	000a0993          	addi	s3,s4,0
   10178:	00000493          	addi	s1,zero,0
   1017c:	0009a603          	lw	a2,0(s3)
   10180:	0049a683          	lw	a3,4(s3)
   10184:	00040513          	addi	a0,s0,0
   10188:	00148493          	addi	s1,s1,1
   1018c:	0940c0ef          	jal	ra,1c220 <printf>
   10190:	06c12783          	lw	a5,108(sp)
   10194:	00898993          	addi	s3,s3,8
   10198:	fef4c2e3          	blt	s1,a5,1017c <main+0x9c>
   1019c:	00a00513          	addi	a0,zero,10
   101a0:	0d40c0ef          	jal	ra,1c274 <putchar>
   101a4:	ee01a703          	lw	a4,-288(gp) # 296f0 <__SDATA_BEGIN__+0x38>
   101a8:	ee81a603          	lw	a2,-280(gp) # 296f8 <__SDATA_BEGIN__+0x40>
   101ac:	ec81a803          	lw	a6,-312(gp) # 296d8 <__SDATA_BEGIN__+0x20>
   101b0:	ecc1a883          	lw	a7,-308(gp) # 296dc <__SDATA_BEGIN__+0x24>
   101b4:	ec01a503          	lw	a0,-320(gp) # 296d0 <__SDATA_BEGIN__+0x18>
   101b8:	ec41a583          	lw	a1,-316(gp) # 296d4 <__SDATA_BEGIN__+0x1c>
   101bc:	ee41a783          	lw	a5,-284(gp) # 296f4 <__SDATA_BEGIN__+0x3c>
   101c0:	eec1a683          	lw	a3,-276(gp) # 296fc <__SDATA_BEGIN__+0x44>
   101c4:	01412223          	sw	s4,4(sp)
   101c8:	01512023          	sw	s5,0(sp)
   101cc:	011000ef          	jal	ra,109dc <SolveCubic>
   101d0:	000287b7          	lui	a5,0x28
   101d4:	42078513          	addi	a0,a5,1056 # 28420 <__floatsitf+0x178>
   101d8:	0480c0ef          	jal	ra,1c220 <printf>
   101dc:	06c12783          	lw	a5,108(sp)
   101e0:	02f05a63          	bge	zero,a5,10214 <main+0x134>
   101e4:	000287b7          	lui	a5,0x28
   101e8:	42c78413          	addi	s0,a5,1068 # 2842c <__floatsitf+0x184>
   101ec:	000a0993          	addi	s3,s4,0
   101f0:	00000493          	addi	s1,zero,0
   101f4:	0009a603          	lw	a2,0(s3)
   101f8:	0049a683          	lw	a3,4(s3)
   101fc:	00040513          	addi	a0,s0,0
   10200:	00148493          	addi	s1,s1,1
   10204:	01c0c0ef          	jal	ra,1c220 <printf>
   10208:	06c12783          	lw	a5,108(sp)
   1020c:	00898993          	addi	s3,s3,8
   10210:	fef4c2e3          	blt	s1,a5,101f4 <main+0x114>
   10214:	00a00513          	addi	a0,zero,10
   10218:	05c0c0ef          	jal	ra,1c274 <putchar>
   1021c:	ef01a803          	lw	a6,-272(gp) # 29700 <__SDATA_BEGIN__+0x48>
   10220:	ef41a883          	lw	a7,-268(gp) # 29704 <__SDATA_BEGIN__+0x4c>
   10224:	f001a603          	lw	a2,-256(gp) # 29710 <__SDATA_BEGIN__+0x58>
   10228:	ef81a703          	lw	a4,-264(gp) # 29708 <__SDATA_BEGIN__+0x50>
   1022c:	ec01a503          	lw	a0,-320(gp) # 296d0 <__SDATA_BEGIN__+0x18>
   10230:	ec41a583          	lw	a1,-316(gp) # 296d4 <__SDATA_BEGIN__+0x1c>
   10234:	efc1a783          	lw	a5,-260(gp) # 2970c <__SDATA_BEGIN__+0x54>
   10238:	f041a683          	lw	a3,-252(gp) # 29714 <__SDATA_BEGIN__+0x5c>
   1023c:	01412223          	sw	s4,4(sp)
   10240:	01512023          	sw	s5,0(sp)
   10244:	798000ef          	jal	ra,109dc <SolveCubic>
   10248:	000287b7          	lui	a5,0x28
   1024c:	42078513          	addi	a0,a5,1056 # 28420 <__floatsitf+0x178>
   10250:	7d10b0ef          	jal	ra,1c220 <printf>
   10254:	06c12783          	lw	a5,108(sp)
   10258:	02f05a63          	bge	zero,a5,1028c <main+0x1ac>
   1025c:	000287b7          	lui	a5,0x28
   10260:	42c78413          	addi	s0,a5,1068 # 2842c <__floatsitf+0x184>
   10264:	000a0993          	addi	s3,s4,0
   10268:	00000493          	addi	s1,zero,0
   1026c:	0009a603          	lw	a2,0(s3)
   10270:	0049a683          	lw	a3,4(s3)
   10274:	00040513          	addi	a0,s0,0
   10278:	00148493          	addi	s1,s1,1
   1027c:	7a50b0ef          	jal	ra,1c220 <printf>
   10280:	06c12783          	lw	a5,108(sp)
   10284:	00898993          	addi	s3,s3,8
   10288:	fef4c2e3          	blt	s1,a5,1026c <main+0x18c>
   1028c:	00a00513          	addi	a0,zero,10
   10290:	7e50b0ef          	jal	ra,1c274 <putchar>
   10294:	ec01a703          	lw	a4,-320(gp) # 296d0 <__SDATA_BEGIN__+0x18>
   10298:	ec41a783          	lw	a5,-316(gp) # 296d4 <__SDATA_BEGIN__+0x1c>
   1029c:	f081a803          	lw	a6,-248(gp) # 29718 <__SDATA_BEGIN__+0x60>
   102a0:	f0c1a883          	lw	a7,-244(gp) # 2971c <__SDATA_BEGIN__+0x64>
   102a4:	f101a603          	lw	a2,-240(gp) # 29720 <__SDATA_BEGIN__+0x68>
   102a8:	f141a683          	lw	a3,-236(gp) # 29724 <__SDATA_BEGIN__+0x6c>
   102ac:	00070513          	addi	a0,a4,0
   102b0:	00078593          	addi	a1,a5,0
   102b4:	01412223          	sw	s4,4(sp)
   102b8:	01512023          	sw	s5,0(sp)
   102bc:	720000ef          	jal	ra,109dc <SolveCubic>
   102c0:	000287b7          	lui	a5,0x28
   102c4:	42078513          	addi	a0,a5,1056 # 28420 <__floatsitf+0x178>
   102c8:	7590b0ef          	jal	ra,1c220 <printf>
   102cc:	06c12783          	lw	a5,108(sp)
   102d0:	02f05a63          	bge	zero,a5,10304 <main+0x224>
   102d4:	000287b7          	lui	a5,0x28
   102d8:	42c78413          	addi	s0,a5,1068 # 2842c <__floatsitf+0x184>
   102dc:	000a0993          	addi	s3,s4,0
   102e0:	00000493          	addi	s1,zero,0
   102e4:	0009a603          	lw	a2,0(s3)
   102e8:	0049a683          	lw	a3,4(s3)
   102ec:	00040513          	addi	a0,s0,0
   102f0:	00148493          	addi	s1,s1,1
   102f4:	72d0b0ef          	jal	ra,1c220 <printf>
   102f8:	06c12783          	lw	a5,108(sp)
   102fc:	00898993          	addi	s3,s3,8
   10300:	fef4c2e3          	blt	s1,a5,102e4 <main+0x204>
   10304:	00a00513          	addi	a0,zero,10
   10308:	76d0b0ef          	jal	ra,1c274 <putchar>
   1030c:	f181a803          	lw	a6,-232(gp) # 29728 <__SDATA_BEGIN__+0x70>
   10310:	f1c1a883          	lw	a7,-228(gp) # 2972c <__SDATA_BEGIN__+0x74>
   10314:	f201a603          	lw	a2,-224(gp) # 29730 <__SDATA_BEGIN__+0x78>
   10318:	f281a503          	lw	a0,-216(gp) # 29738 <__SDATA_BEGIN__+0x80>
   1031c:	eb01a703          	lw	a4,-336(gp) # 296c0 <__SDATA_BEGIN__+0x8>
   10320:	eb41a783          	lw	a5,-332(gp) # 296c4 <__SDATA_BEGIN__+0xc>
   10324:	f241a683          	lw	a3,-220(gp) # 29734 <__SDATA_BEGIN__+0x7c>
   10328:	f2c1a583          	lw	a1,-212(gp) # 2973c <__SDATA_BEGIN__+0x84>
   1032c:	01412223          	sw	s4,4(sp)
   10330:	01512023          	sw	s5,0(sp)
   10334:	6a8000ef          	jal	ra,109dc <SolveCubic>
   10338:	000287b7          	lui	a5,0x28
   1033c:	42078513          	addi	a0,a5,1056 # 28420 <__floatsitf+0x178>
   10340:	6e10b0ef          	jal	ra,1c220 <printf>
   10344:	06c12783          	lw	a5,108(sp)
   10348:	02f05a63          	bge	zero,a5,1037c <main+0x29c>
   1034c:	000287b7          	lui	a5,0x28
   10350:	42c78413          	addi	s0,a5,1068 # 2842c <__floatsitf+0x184>
   10354:	000a0b13          	addi	s6,s4,0
   10358:	00000993          	addi	s3,zero,0
   1035c:	000b2603          	lw	a2,0(s6)
   10360:	004b2683          	lw	a3,4(s6)
   10364:	00040513          	addi	a0,s0,0
   10368:	00198993          	addi	s3,s3,1
   1036c:	6b50b0ef          	jal	ra,1c220 <printf>
   10370:	06c12783          	lw	a5,108(sp)
   10374:	008b0b13          	addi	s6,s6,8
   10378:	fef9c2e3          	blt	s3,a5,1035c <main+0x27c>
   1037c:	00a00513          	addi	a0,zero,10
   10380:	6f50b0ef          	jal	ra,1c274 <putchar>
   10384:	f301a803          	lw	a6,-208(gp) # 29740 <__SDATA_BEGIN__+0x88>
   10388:	f341a883          	lw	a7,-204(gp) # 29744 <__SDATA_BEGIN__+0x8c>
   1038c:	f401a603          	lw	a2,-192(gp) # 29750 <__SDATA_BEGIN__+0x98>
   10390:	f381a703          	lw	a4,-200(gp) # 29748 <__SDATA_BEGIN__+0x90>
   10394:	f481a503          	lw	a0,-184(gp) # 29758 <__SDATA_BEGIN__+0xa0>
   10398:	f3c1a783          	lw	a5,-196(gp) # 2974c <__SDATA_BEGIN__+0x94>
   1039c:	f441a683          	lw	a3,-188(gp) # 29754 <__SDATA_BEGIN__+0x9c>
   103a0:	f4c1a583          	lw	a1,-180(gp) # 2975c <__SDATA_BEGIN__+0xa4>
   103a4:	01412223          	sw	s4,4(sp)
   103a8:	01512023          	sw	s5,0(sp)
   103ac:	630000ef          	jal	ra,109dc <SolveCubic>
   103b0:	000287b7          	lui	a5,0x28
   103b4:	42078513          	addi	a0,a5,1056 # 28420 <__floatsitf+0x178>
   103b8:	6690b0ef          	jal	ra,1c220 <printf>
   103bc:	06c12783          	lw	a5,108(sp)
   103c0:	02f05a63          	bge	zero,a5,103f4 <main+0x314>
   103c4:	000287b7          	lui	a5,0x28
   103c8:	42c78413          	addi	s0,a5,1068 # 2842c <__floatsitf+0x184>
   103cc:	000a0b13          	addi	s6,s4,0
   103d0:	00000993          	addi	s3,zero,0
   103d4:	000b2603          	lw	a2,0(s6)
   103d8:	004b2683          	lw	a3,4(s6)
   103dc:	00040513          	addi	a0,s0,0
   103e0:	00198993          	addi	s3,s3,1
   103e4:	63d0b0ef          	jal	ra,1c220 <printf>
   103e8:	06c12783          	lw	a5,108(sp)
   103ec:	008b0b13          	addi	s6,s6,8
   103f0:	fef9c2e3          	blt	s3,a5,103d4 <main+0x2f4>
   103f4:	00a00513          	addi	a0,zero,10
   103f8:	67d0b0ef          	jal	ra,1c274 <putchar>
   103fc:	f501a803          	lw	a6,-176(gp) # 29760 <__SDATA_BEGIN__+0xa8>
   10400:	f541a883          	lw	a7,-172(gp) # 29764 <__SDATA_BEGIN__+0xac>
   10404:	f601a603          	lw	a2,-160(gp) # 29770 <__SDATA_BEGIN__+0xb8>
   10408:	f581a703          	lw	a4,-168(gp) # 29768 <__SDATA_BEGIN__+0xb0>
   1040c:	f681a503          	lw	a0,-152(gp) # 29778 <__SDATA_BEGIN__+0xc0>
   10410:	f5c1a783          	lw	a5,-164(gp) # 2976c <__SDATA_BEGIN__+0xb4>
   10414:	f641a683          	lw	a3,-156(gp) # 29774 <__SDATA_BEGIN__+0xbc>
   10418:	f6c1a583          	lw	a1,-148(gp) # 2977c <__SDATA_BEGIN__+0xc4>
   1041c:	01412223          	sw	s4,4(sp)
   10420:	01512023          	sw	s5,0(sp)
   10424:	5b8000ef          	jal	ra,109dc <SolveCubic>
   10428:	000287b7          	lui	a5,0x28
   1042c:	42078513          	addi	a0,a5,1056 # 28420 <__floatsitf+0x178>
   10430:	5f10b0ef          	jal	ra,1c220 <printf>
   10434:	06c12783          	lw	a5,108(sp)
   10438:	02f05a63          	bge	zero,a5,1046c <main+0x38c>
   1043c:	000287b7          	lui	a5,0x28
   10440:	42c78413          	addi	s0,a5,1068 # 2842c <__floatsitf+0x184>
   10444:	000a0b13          	addi	s6,s4,0
   10448:	00000993          	addi	s3,zero,0
   1044c:	000b2603          	lw	a2,0(s6)
   10450:	004b2683          	lw	a3,4(s6)
   10454:	00040513          	addi	a0,s0,0
   10458:	00198993          	addi	s3,s3,1
   1045c:	5c50b0ef          	jal	ra,1c220 <printf>
   10460:	06c12783          	lw	a5,108(sp)
   10464:	008b0b13          	addi	s6,s6,8
   10468:	fef9c2e3          	blt	s3,a5,1044c <main+0x36c>
   1046c:	00a00513          	addi	a0,zero,10
   10470:	6050b0ef          	jal	ra,1c274 <putchar>
   10474:	f701a803          	lw	a6,-144(gp) # 29780 <__SDATA_BEGIN__+0xc8>
   10478:	f741a883          	lw	a7,-140(gp) # 29784 <__SDATA_BEGIN__+0xcc>
   1047c:	f801a603          	lw	a2,-128(gp) # 29790 <__SDATA_BEGIN__+0xd8>
   10480:	f781a703          	lw	a4,-136(gp) # 29788 <__SDATA_BEGIN__+0xd0>
   10484:	f881a503          	lw	a0,-120(gp) # 29798 <__SDATA_BEGIN__+0xe0>
   10488:	f7c1a783          	lw	a5,-132(gp) # 2978c <__SDATA_BEGIN__+0xd4>
   1048c:	f841a683          	lw	a3,-124(gp) # 29794 <__SDATA_BEGIN__+0xdc>
   10490:	f8c1a583          	lw	a1,-116(gp) # 2979c <__SDATA_BEGIN__+0xe4>
   10494:	01412223          	sw	s4,4(sp)
   10498:	01512023          	sw	s5,0(sp)
   1049c:	540000ef          	jal	ra,109dc <SolveCubic>
   104a0:	000287b7          	lui	a5,0x28
   104a4:	42078513          	addi	a0,a5,1056 # 28420 <__floatsitf+0x178>
   104a8:	5790b0ef          	jal	ra,1c220 <printf>
   104ac:	06c12783          	lw	a5,108(sp)
   104b0:	02f05a63          	bge	zero,a5,104e4 <main+0x404>
   104b4:	000287b7          	lui	a5,0x28
   104b8:	42c78413          	addi	s0,a5,1068 # 2842c <__floatsitf+0x184>
   104bc:	000a0b13          	addi	s6,s4,0
   104c0:	00000993          	addi	s3,zero,0
   104c4:	000b2603          	lw	a2,0(s6)
   104c8:	004b2683          	lw	a3,4(s6)
   104cc:	00040513          	addi	a0,s0,0
   104d0:	00198993          	addi	s3,s3,1
   104d4:	54d0b0ef          	jal	ra,1c220 <printf>
   104d8:	06c12783          	lw	a5,108(sp)
   104dc:	008b0b13          	addi	s6,s6,8
   104e0:	fef9c2e3          	blt	s3,a5,104c4 <main+0x3e4>
   104e4:	00a00513          	addi	a0,zero,10
   104e8:	58d0b0ef          	jal	ra,1c274 <putchar>
   104ec:	eb01a503          	lw	a0,-336(gp) # 296c0 <__SDATA_BEGIN__+0x8>
   104f0:	04a12023          	sw	a0,64(sp)
   104f4:	eb41a503          	lw	a0,-332(gp) # 296c4 <__SDATA_BEGIN__+0xc>
   104f8:	04a12223          	sw	a0,68(sp)
   104fc:	f901a503          	lw	a0,-112(gp) # 297a0 <__SDATA_BEGIN__+0xe8>
   10500:	f941a583          	lw	a1,-108(gp) # 297a4 <__SDATA_BEGIN__+0xec>
   10504:	ec41ab03          	lw	s6,-316(gp) # 296d4 <__SDATA_BEGIN__+0x1c>
   10508:	00b12e23          	sw	a1,28(sp)
   1050c:	f981a583          	lw	a1,-104(gp) # 297a8 <__SDATA_BEGIN__+0xf0>
   10510:	f9c1a603          	lw	a2,-100(gp) # 297ac <__SDATA_BEGIN__+0xf4>
   10514:	ec01ab83          	lw	s7,-320(gp) # 296d0 <__SDATA_BEGIN__+0x18>
   10518:	eb81a403          	lw	s0,-328(gp) # 296c8 <__SDATA_BEGIN__+0x10>
   1051c:	02c12623          	sw	a2,44(sp)
   10520:	ea81a603          	lw	a2,-344(gp) # 296b8 <__SDATA_BEGIN__>
   10524:	eac1a703          	lw	a4,-340(gp) # 296bc <__SDATA_BEGIN__+0x4>
   10528:	ebc1ad83          	lw	s11,-324(gp) # 296cc <__SDATA_BEGIN__+0x14>
   1052c:	05612423          	sw	s6,72(sp)
   10530:	02e12a23          	sw	a4,52(sp)
   10534:	fa41a703          	lw	a4,-92(gp) # 297b4 <__SDATA_BEGIN__+0xfc>
   10538:	fa01a683          	lw	a3,-96(gp) # 297b0 <__SDATA_BEGIN__+0xf8>
   1053c:	00a12c23          	sw	a0,24(sp)
   10540:	02b12423          	sw	a1,40(sp)
   10544:	02c12823          	sw	a2,48(sp)
   10548:	02d12c23          	sw	a3,56(sp)
   1054c:	02e12e23          	sw	a4,60(sp)
   10550:	000b8913          	addi	s2,s7,0
   10554:	00900c93          	addi	s9,zero,9
   10558:	000289b7          	lui	s3,0x28
   1055c:	42c98993          	addi	s3,s3,1068 # 2842c <__floatsitf+0x184>
   10560:	00812a23          	sw	s0,20(sp)
   10564:	03b12023          	sw	s11,32(sp)
   10568:	02800d13          	addi	s10,zero,40
   1056c:	04812623          	sw	s0,76(sp)
   10570:	05b12823          	sw	s11,80(sp)
   10574:	04412403          	lw	s0,68(sp)
   10578:	04012483          	lw	s1,64(sp)
   1057c:	01100c13          	addi	s8,zero,17
   10580:	00040d93          	addi	s11,s0,0
   10584:	05912a23          	sw	s9,84(sp)
   10588:	05a12c23          	sw	s10,88(sp)
   1058c:	00048413          	addi	s0,s1,0
   10590:	05212e23          	sw	s2,92(sp)
   10594:	03012c83          	lw	s9,48(sp)
   10598:	03412903          	lw	s2,52(sp)
   1059c:	00900d13          	addi	s10,zero,9
   105a0:	03812223          	sw	s8,36(sp)
   105a4:	01412603          	lw	a2,20(sp)
   105a8:	02012683          	lw	a3,32(sp)
   105ac:	000c8813          	addi	a6,s9,0
   105b0:	00040713          	addi	a4,s0,0
   105b4:	000b8513          	addi	a0,s7,0
   105b8:	00090893          	addi	a7,s2,0
   105bc:	000d8793          	addi	a5,s11,0
   105c0:	000b0593          	addi	a1,s6,0
   105c4:	01412223          	sw	s4,4(sp)
   105c8:	01512023          	sw	s5,0(sp)
   105cc:	410000ef          	jal	ra,109dc <SolveCubic>
   105d0:	000287b7          	lui	a5,0x28
   105d4:	42078513          	addi	a0,a5,1056 # 28420 <__floatsitf+0x178>
   105d8:	4490b0ef          	jal	ra,1c220 <printf>
   105dc:	06c12783          	lw	a5,108(sp)
   105e0:	02f05663          	bge	zero,a5,1060c <main+0x52c>
   105e4:	000a0c13          	addi	s8,s4,0
   105e8:	00000493          	addi	s1,zero,0
   105ec:	000c2603          	lw	a2,0(s8)
   105f0:	004c2683          	lw	a3,4(s8)
   105f4:	00098513          	addi	a0,s3,0
   105f8:	00148493          	addi	s1,s1,1
   105fc:	4250b0ef          	jal	ra,1c220 <printf>
   10600:	06c12783          	lw	a5,108(sp)
   10604:	008c0c13          	addi	s8,s8,8
   10608:	fef4c2e3          	blt	s1,a5,105ec <main+0x50c>
   1060c:	00a00513          	addi	a0,zero,10
   10610:	4650b0ef          	jal	ra,1c274 <putchar>
   10614:	01812603          	lw	a2,24(sp)
   10618:	01c12683          	lw	a3,28(sp)
   1061c:	000c8513          	addi	a0,s9,0
   10620:	00090593          	addi	a1,s2,0
   10624:	5cc060ef          	jal	ra,16bf0 <__subdf3>
   10628:	fffd0d13          	addi	s10,s10,-1
   1062c:	00050c93          	addi	s9,a0,0
   10630:	00058913          	addi	s2,a1,0
   10634:	f60d18e3          	bne	s10,zero,105a4 <main+0x4c4>
   10638:	02412c03          	lw	s8,36(sp)
   1063c:	02812603          	lw	a2,40(sp)
   10640:	02c12683          	lw	a3,44(sp)
   10644:	00040513          	addi	a0,s0,0
   10648:	000d8593          	addi	a1,s11,0
   1064c:	785040ef          	jal	ra,155d0 <__adddf3>
   10650:	fffc0c13          	addi	s8,s8,-1
   10654:	00050413          	addi	s0,a0,0
   10658:	00058d93          	addi	s11,a1,0
   1065c:	f20c1ce3          	bne	s8,zero,10594 <main+0x4b4>
   10660:	01412503          	lw	a0,20(sp)
   10664:	02012583          	lw	a1,32(sp)
   10668:	03812603          	lw	a2,56(sp)
   1066c:	03c12683          	lw	a3,60(sp)
   10670:	05812d03          	lw	s10,88(sp)
   10674:	05412c83          	lw	s9,84(sp)
   10678:	578060ef          	jal	ra,16bf0 <__subdf3>
   1067c:	fffd0d13          	addi	s10,s10,-1
   10680:	00a12a23          	sw	a0,20(sp)
   10684:	02b12023          	sw	a1,32(sp)
   10688:	05c12903          	lw	s2,92(sp)
   1068c:	ee0d14e3          	bne	s10,zero,10574 <main+0x494>
   10690:	04812683          	lw	a3,72(sp)
   10694:	000b8513          	addi	a0,s7,0
   10698:	000b0593          	addi	a1,s6,0
   1069c:	00090613          	addi	a2,s2,0
   106a0:	731040ef          	jal	ra,155d0 <__adddf3>
   106a4:	fffc8c93          	addi	s9,s9,-1
   106a8:	04c12403          	lw	s0,76(sp)
   106ac:	05012d83          	lw	s11,80(sp)
   106b0:	00050b93          	addi	s7,a0,0
   106b4:	00058b13          	addi	s6,a1,0
   106b8:	ea0c90e3          	bne	s9,zero,10558 <main+0x478>
   106bc:	00028537          	lui	a0,0x28
   106c0:	43050513          	addi	a0,a0,1072 # 28430 <__floatsitf+0x188>
   106c4:	00028937          	lui	s2,0x28
   106c8:	000184b7          	lui	s1,0x18
   106cc:	4910b0ef          	jal	ra,1c35c <puts>
   106d0:	45890913          	addi	s2,s2,1112 # 28458 <__floatsitf+0x1b0>
   106d4:	6a048493          	addi	s1,s1,1696 # 186a0 <__addtf3+0x11ec>
   106d8:	00000413          	addi	s0,zero,0
   106dc:	00040513          	addi	a0,s0,0
   106e0:	07010593          	addi	a1,sp,112
   106e4:	6f1000ef          	jal	ra,115d4 <usqrt>
   106e8:	07012603          	lw	a2,112(sp)
   106ec:	00040593          	addi	a1,s0,0
   106f0:	00090513          	addi	a0,s2,0
   106f4:	00240413          	addi	s0,s0,2
   106f8:	3290b0ef          	jal	ra,1c220 <printf>
   106fc:	fe9410e3          	bne	s0,s1,106dc <main+0x5fc>
   10700:	00a00513          	addi	a0,zero,10
   10704:	3fed0437          	lui	s0,0x3fed0
   10708:	00028937          	lui	s2,0x28
   1070c:	3fed44b7          	lui	s1,0x3fed4
   10710:	3650b0ef          	jal	ra,1c274 <putchar>
   10714:	16940413          	addi	s0,s0,361 # 3fed0169 <__BSS_END__+0x3fea6385>
   10718:	46c90913          	addi	s2,s2,1132 # 2846c <__floatsitf+0x1c4>
   1071c:	16948493          	addi	s1,s1,361 # 3fed4169 <__BSS_END__+0x3feaa385>
   10720:	00040513          	addi	a0,s0,0
   10724:	07010593          	addi	a1,sp,112
   10728:	6ad000ef          	jal	ra,115d4 <usqrt>
   1072c:	07012603          	lw	a2,112(sp)
   10730:	00040593          	addi	a1,s0,0
   10734:	00090513          	addi	a0,s2,0
   10738:	00140413          	addi	s0,s0,1
   1073c:	2e50b0ef          	jal	ra,1c220 <printf>
   10740:	fe9410e3          	bne	s0,s1,10720 <main+0x640>
   10744:	00028537          	lui	a0,0x28
   10748:	47c50513          	addi	a0,a0,1148 # 2847c <__floatsitf+0x1d4>
   1074c:	4110b0ef          	jal	ra,1c35c <puts>
   10750:	fa81a403          	lw	s0,-88(gp) # 297b8 <__SDATA_BEGIN__+0x100>
   10754:	fac1a483          	lw	s1,-84(gp) # 297bc <__SDATA_BEGIN__+0x104>
   10758:	fb01a903          	lw	s2,-80(gp) # 297c0 <__SDATA_BEGIN__+0x108>
   1075c:	fb41a983          	lw	s3,-76(gp) # 297c4 <__SDATA_BEGIN__+0x10c>
   10760:	fb81ab03          	lw	s6,-72(gp) # 297c8 <__SDATA_BEGIN__+0x110>
   10764:	fbc1ab83          	lw	s7,-68(gp) # 297cc <__SDATA_BEGIN__+0x114>
   10768:	fc01aa03          	lw	s4,-64(gp) # 297d0 <__SDATA_BEGIN__+0x118>
   1076c:	fc41aa83          	lw	s5,-60(gp) # 297d4 <__SDATA_BEGIN__+0x11c>
   10770:	00028d37          	lui	s10,0x28
   10774:	4a4d0d13          	addi	s10,s10,1188 # 284a4 <__floatsitf+0x1fc>
   10778:	00000c93          	addi	s9,zero,0
   1077c:	00000c13          	addi	s8,zero,0
   10780:	000c8513          	addi	a0,s9,0
   10784:	000c0593          	addi	a1,s8,0
   10788:	00040613          	addi	a2,s0,0
   1078c:	00048693          	addi	a3,s1,0
   10790:	679050ef          	jal	ra,16608 <__muldf3>
   10794:	00090613          	addi	a2,s2,0
   10798:	00098693          	addi	a3,s3,0
   1079c:	580050ef          	jal	ra,15d1c <__divdf3>
   107a0:	00050713          	addi	a4,a0,0
   107a4:	00058793          	addi	a5,a1,0
   107a8:	000c8613          	addi	a2,s9,0
   107ac:	000c0693          	addi	a3,s8,0
   107b0:	000d0513          	addi	a0,s10,0
   107b4:	26d0b0ef          	jal	ra,1c220 <printf>
   107b8:	000b0613          	addi	a2,s6,0
   107bc:	000b8693          	addi	a3,s7,0
   107c0:	000c8513          	addi	a0,s9,0
   107c4:	000c0593          	addi	a1,s8,0
   107c8:	609040ef          	jal	ra,155d0 <__adddf3>
   107cc:	000a0613          	addi	a2,s4,0
   107d0:	000a8693          	addi	a3,s5,0
   107d4:	00050c93          	addi	s9,a0,0
   107d8:	00058c13          	addi	s8,a1,0
   107dc:	555050ef          	jal	ra,16530 <__ledf2>
   107e0:	faa050e3          	bge	zero,a0,10780 <main+0x6a0>
   107e4:	00028537          	lui	a0,0x28
   107e8:	46850513          	addi	a0,a0,1128 # 28468 <__floatsitf+0x1c0>
   107ec:	3710b0ef          	jal	ra,1c35c <puts>
   107f0:	fc81ab03          	lw	s6,-56(gp) # 297d8 <__SDATA_BEGIN__+0x120>
   107f4:	fcc1ab83          	lw	s7,-52(gp) # 297dc <__SDATA_BEGIN__+0x124>
   107f8:	fd01aa03          	lw	s4,-48(gp) # 297e0 <__SDATA_BEGIN__+0x128>
   107fc:	fd41aa83          	lw	s5,-44(gp) # 297e4 <__SDATA_BEGIN__+0x12c>
   10800:	00028d37          	lui	s10,0x28
   10804:	4c4d0d13          	addi	s10,s10,1220 # 284c4 <__floatsitf+0x21c>
   10808:	00000c93          	addi	s9,zero,0
   1080c:	00000c13          	addi	s8,zero,0
   10810:	000c8513          	addi	a0,s9,0
   10814:	000c0593          	addi	a1,s8,0
   10818:	00090613          	addi	a2,s2,0
   1081c:	00098693          	addi	a3,s3,0
   10820:	5e9050ef          	jal	ra,16608 <__muldf3>
   10824:	00040613          	addi	a2,s0,0
   10828:	00048693          	addi	a3,s1,0
   1082c:	4f0050ef          	jal	ra,15d1c <__divdf3>
   10830:	00050713          	addi	a4,a0,0
   10834:	00058793          	addi	a5,a1,0
   10838:	000c8613          	addi	a2,s9,0
   1083c:	000c0693          	addi	a3,s8,0
   10840:	000d0513          	addi	a0,s10,0
   10844:	1dd0b0ef          	jal	ra,1c220 <printf>
   10848:	000b0613          	addi	a2,s6,0
   1084c:	000b8693          	addi	a3,s7,0
   10850:	000c8513          	addi	a0,s9,0
   10854:	000c0593          	addi	a1,s8,0
   10858:	579040ef          	jal	ra,155d0 <__adddf3>
   1085c:	000a0613          	addi	a2,s4,0
   10860:	000a8693          	addi	a3,s5,0
   10864:	00050c93          	addi	s9,a0,0
   10868:	00058c13          	addi	s8,a1,0
   1086c:	4c5050ef          	jal	ra,16530 <__ledf2>
   10870:	faa050e3          	bge	zero,a0,10810 <main+0x730>
   10874:	0cc12083          	lw	ra,204(sp)
   10878:	0c812403          	lw	s0,200(sp)
   1087c:	0c412483          	lw	s1,196(sp)
   10880:	0c012903          	lw	s2,192(sp)
   10884:	0bc12983          	lw	s3,188(sp)
   10888:	0b812a03          	lw	s4,184(sp)
   1088c:	0b412a83          	lw	s5,180(sp)
   10890:	0b012b03          	lw	s6,176(sp)
   10894:	0ac12b83          	lw	s7,172(sp)
   10898:	0a812c03          	lw	s8,168(sp)
   1089c:	0a412c83          	lw	s9,164(sp)
   108a0:	0a012d03          	lw	s10,160(sp)
   108a4:	09c12d83          	lw	s11,156(sp)
   108a8:	00000513          	addi	a0,zero,0
   108ac:	0d010113          	addi	sp,sp,208
   108b0:	00008067          	jalr	zero,0(ra)

000108b4 <register_fini>:
   108b4:	00000793          	addi	a5,zero,0
   108b8:	00078863          	beq	a5,zero,108c8 <register_fini+0x14>
   108bc:	00022537          	lui	a0,0x22
   108c0:	81850513          	addi	a0,a0,-2024 # 21818 <__libc_fini_array>
   108c4:	1ac0c06f          	jal	zero,1ca70 <atexit>
   108c8:	00008067          	jalr	zero,0(ra)

000108cc <_start>:
   108cc:	00019197          	auipc	gp,0x19
   108d0:	f4418193          	addi	gp,gp,-188 # 29810 <__global_pointer$>
   108d4:	00019517          	auipc	a0,0x19
   108d8:	1e450513          	addi	a0,a0,484 # 29ab8 <__stdio_exit_handler>
   108dc:	00019617          	auipc	a2,0x19
   108e0:	50860613          	addi	a2,a2,1288 # 29de4 <__BSS_END__>
   108e4:	40a60633          	sub	a2,a2,a0
   108e8:	00000593          	addi	a1,zero,0
   108ec:	6e90b0ef          	jal	ra,1c7d4 <memset>
   108f0:	0000c517          	auipc	a0,0xc
   108f4:	18050513          	addi	a0,a0,384 # 1ca70 <atexit>
   108f8:	00050863          	beq	a0,zero,10908 <_start+0x3c>
   108fc:	00011517          	auipc	a0,0x11
   10900:	f1c50513          	addi	a0,a0,-228 # 21818 <__libc_fini_array>
   10904:	16c0c0ef          	jal	ra,1ca70 <atexit>
   10908:	6390b0ef          	jal	ra,1c740 <__libc_init_array>
   1090c:	00012503          	lw	a0,0(sp)
   10910:	00410593          	addi	a1,sp,4
   10914:	00000613          	addi	a2,zero,0
   10918:	fc8ff0ef          	jal	ra,100e0 <main>
   1091c:	f98ff06f          	jal	zero,100b4 <exit>

00010920 <__do_global_dtors_aux>:
   10920:	ff010113          	addi	sp,sp,-16
   10924:	00812423          	sw	s0,8(sp)
   10928:	2c81c783          	lbu	a5,712(gp) # 29ad8 <completed.1>
   1092c:	00112623          	sw	ra,12(sp)
   10930:	02079263          	bne	a5,zero,10954 <__do_global_dtors_aux+0x34>
   10934:	00000793          	addi	a5,zero,0
   10938:	00078a63          	beq	a5,zero,1094c <__do_global_dtors_aux+0x2c>
   1093c:	00029537          	lui	a0,0x29
   10940:	ed850513          	addi	a0,a0,-296 # 28ed8 <__EH_FRAME_BEGIN__>
   10944:	00000097          	auipc	ra,0x0
   10948:	000000e7          	jalr	ra,0(zero) # 0 <exit-0x100b4>
   1094c:	00100793          	addi	a5,zero,1
   10950:	2cf18423          	sb	a5,712(gp) # 29ad8 <completed.1>
   10954:	00c12083          	lw	ra,12(sp)
   10958:	00812403          	lw	s0,8(sp)
   1095c:	01010113          	addi	sp,sp,16
   10960:	00008067          	jalr	zero,0(ra) # 10944 <__do_global_dtors_aux+0x24>

00010964 <frame_dummy>:
   10964:	00000793          	addi	a5,zero,0
   10968:	00078c63          	beq	a5,zero,10980 <frame_dummy+0x1c>
   1096c:	00029537          	lui	a0,0x29
   10970:	2cc18593          	addi	a1,gp,716 # 29adc <object.0>
   10974:	ed850513          	addi	a0,a0,-296 # 28ed8 <__EH_FRAME_BEGIN__>
   10978:	00000317          	auipc	t1,0x0
   1097c:	00000067          	jalr	zero,0(zero) # 0 <exit-0x100b4>
   10980:	00008067          	jalr	zero,0(ra)

00010984 <rad2deg>:
   10984:	fb01a603          	lw	a2,-80(gp) # 297c0 <__SDATA_BEGIN__+0x108>
   10988:	fb41a683          	lw	a3,-76(gp) # 297c4 <__SDATA_BEGIN__+0x10c>
   1098c:	ff010113          	addi	sp,sp,-16
   10990:	00112623          	sw	ra,12(sp)
   10994:	475050ef          	jal	ra,16608 <__muldf3>
   10998:	fa81a603          	lw	a2,-88(gp) # 297b8 <__SDATA_BEGIN__+0x100>
   1099c:	fac1a683          	lw	a3,-84(gp) # 297bc <__SDATA_BEGIN__+0x104>
   109a0:	37c050ef          	jal	ra,15d1c <__divdf3>
   109a4:	00c12083          	lw	ra,12(sp)
   109a8:	01010113          	addi	sp,sp,16
   109ac:	00008067          	jalr	zero,0(ra)

000109b0 <deg2rad>:
   109b0:	fa81a603          	lw	a2,-88(gp) # 297b8 <__SDATA_BEGIN__+0x100>
   109b4:	fac1a683          	lw	a3,-84(gp) # 297bc <__SDATA_BEGIN__+0x104>
   109b8:	ff010113          	addi	sp,sp,-16
   109bc:	00112623          	sw	ra,12(sp)
   109c0:	449050ef          	jal	ra,16608 <__muldf3>
   109c4:	fb01a603          	lw	a2,-80(gp) # 297c0 <__SDATA_BEGIN__+0x108>
   109c8:	fb41a683          	lw	a3,-76(gp) # 297c4 <__SDATA_BEGIN__+0x10c>
   109cc:	350050ef          	jal	ra,15d1c <__divdf3>
   109d0:	00c12083          	lw	ra,12(sp)
   109d4:	01010113          	addi	sp,sp,16
   109d8:	00008067          	jalr	zero,0(ra)

000109dc <SolveCubic>:
   109dc:	ed010113          	addi	sp,sp,-304
   109e0:	13212023          	sw	s2,288(sp)
   109e4:	11312e23          	sw	s3,284(sp)
   109e8:	00050913          	addi	s2,a0,0
   109ec:	00058993          	addi	s3,a1,0
   109f0:	00060513          	addi	a0,a2,0
   109f4:	00068593          	addi	a1,a3,0
   109f8:	00090613          	addi	a2,s2,0
   109fc:	00098693          	addi	a3,s3,0
   10a00:	12112623          	sw	ra,300(sp)
   10a04:	03012423          	sw	a6,40(sp)
   10a08:	03112623          	sw	a7,44(sp)
   10a0c:	12812423          	sw	s0,296(sp)
   10a10:	12912223          	sw	s1,292(sp)
   10a14:	00070413          	addi	s0,a4,0
   10a18:	00078493          	addi	s1,a5,0
   10a1c:	11412c23          	sw	s4,280(sp)
   10a20:	11512a23          	sw	s5,276(sp)
   10a24:	11612823          	sw	s6,272(sp)
   10a28:	11712623          	sw	s7,268(sp)
   10a2c:	11812423          	sw	s8,264(sp)
   10a30:	11912223          	sw	s9,260(sp)
   10a34:	11a12023          	sw	s10,256(sp)
   10a38:	0fb12e23          	sw	s11,252(sp)
   10a3c:	2e0050ef          	jal	ra,15d1c <__divdf3>
   10a40:	00058613          	addi	a2,a1,0
   10a44:	00050593          	addi	a1,a0,0
   10a48:	0e010513          	addi	a0,sp,224
   10a4c:	5e10a0ef          	jal	ra,1b82c <__extenddftf2>
   10a50:	00098693          	addi	a3,s3,0
   10a54:	00090613          	addi	a2,s2,0
   10a58:	00040513          	addi	a0,s0,0
   10a5c:	00048593          	addi	a1,s1,0
   10a60:	01212423          	sw	s2,8(sp)
   10a64:	01312623          	sw	s3,12(sp)
   10a68:	2b4050ef          	jal	ra,15d1c <__divdf3>
   10a6c:	0e012983          	lw	s3,224(sp)
   10a70:	0e412903          	lw	s2,228(sp)
   10a74:	0e812483          	lw	s1,232(sp)
   10a78:	0ec12403          	lw	s0,236(sp)
   10a7c:	00058613          	addi	a2,a1,0
   10a80:	00050593          	addi	a1,a0,0
   10a84:	0e010513          	addi	a0,sp,224
   10a88:	5a50a0ef          	jal	ra,1b82c <__extenddftf2>
   10a8c:	0d010593          	addi	a1,sp,208
   10a90:	0e012d83          	lw	s11,224(sp)
   10a94:	0e412d03          	lw	s10,228(sp)
   10a98:	0e812b83          	lw	s7,232(sp)
   10a9c:	0ec12b03          	lw	s6,236(sp)
   10aa0:	0c010613          	addi	a2,sp,192
   10aa4:	0e010513          	addi	a0,sp,224
   10aa8:	0d312823          	sw	s3,208(sp)
   10aac:	0d212a23          	sw	s2,212(sp)
   10ab0:	0c912c23          	sw	s1,216(sp)
   10ab4:	0c812e23          	sw	s0,220(sp)
   10ab8:	0d312023          	sw	s3,192(sp)
   10abc:	0d212223          	sw	s2,196(sp)
   10ac0:	0c912423          	sw	s1,200(sp)
   10ac4:	0c812623          	sw	s0,204(sp)
   10ac8:	30d080ef          	jal	ra,195d4 <__multf3>
   10acc:	400087b7          	lui	a5,0x40008
   10ad0:	0b010613          	addi	a2,sp,176
   10ad4:	0c010593          	addi	a1,sp,192
   10ad8:	0d010513          	addi	a0,sp,208
   10adc:	0e012c83          	lw	s9,224(sp)
   10ae0:	0e412c03          	lw	s8,228(sp)
   10ae4:	0e812a83          	lw	s5,232(sp)
   10ae8:	0ec12a03          	lw	s4,236(sp)
   10aec:	0db12023          	sw	s11,192(sp)
   10af0:	0da12223          	sw	s10,196(sp)
   10af4:	0d712423          	sw	s7,200(sp)
   10af8:	0d612623          	sw	s6,204(sp)
   10afc:	0af12e23          	sw	a5,188(sp)
   10b00:	0a012823          	sw	zero,176(sp)
   10b04:	0a012a23          	sw	zero,180(sp)
   10b08:	0a012c23          	sw	zero,184(sp)
   10b0c:	2c9080ef          	jal	ra,195d4 <__multf3>
   10b10:	0d812783          	lw	a5,216(sp)
   10b14:	0d012683          	lw	a3,208(sp)
   10b18:	0d412703          	lw	a4,212(sp)
   10b1c:	0af12423          	sw	a5,168(sp)
   10b20:	0dc12783          	lw	a5,220(sp)
   10b24:	0a010613          	addi	a2,sp,160
   10b28:	0b010593          	addi	a1,sp,176
   10b2c:	0c010513          	addi	a0,sp,192
   10b30:	0b912823          	sw	s9,176(sp)
   10b34:	0b812a23          	sw	s8,180(sp)
   10b38:	0b512c23          	sw	s5,184(sp)
   10b3c:	0b412e23          	sw	s4,188(sp)
   10b40:	0ad12023          	sw	a3,160(sp)
   10b44:	0ae12223          	sw	a4,164(sp)
   10b48:	0af12623          	sw	a5,172(sp)
   10b4c:	1c9090ef          	jal	ra,1a514 <__subtf3>
   10b50:	0c412703          	lw	a4,196(sp)
   10b54:	0c812783          	lw	a5,200(sp)
   10b58:	0c012683          	lw	a3,192(sp)
   10b5c:	0ae12223          	sw	a4,164(sp)
   10b60:	0cc12703          	lw	a4,204(sp)
   10b64:	0af12423          	sw	a5,168(sp)
   10b68:	09010613          	addi	a2,sp,144
   10b6c:	400227b7          	lui	a5,0x40022
   10b70:	0a010593          	addi	a1,sp,160
   10b74:	0b010513          	addi	a0,sp,176
   10b78:	08f12e23          	sw	a5,156(sp)
   10b7c:	0ad12023          	sw	a3,160(sp)
   10b80:	0ae12623          	sw	a4,172(sp)
   10b84:	08012823          	sw	zero,144(sp)
   10b88:	08012a23          	sw	zero,148(sp)
   10b8c:	08012c23          	sw	zero,152(sp)
   10b90:	411070ef          	jal	ra,187a0 <__divtf3>
   10b94:	0c010613          	addi	a2,sp,192
   10b98:	0d010593          	addi	a1,sp,208
   10b9c:	0e010513          	addi	a0,sp,224
   10ba0:	0b012c83          	lw	s9,176(sp)
   10ba4:	0b412c03          	lw	s8,180(sp)
   10ba8:	0b812a83          	lw	s5,184(sp)
   10bac:	0bc12a03          	lw	s4,188(sp)
   10bb0:	0d312823          	sw	s3,208(sp)
   10bb4:	0d212a23          	sw	s2,212(sp)
   10bb8:	0c912c23          	sw	s1,216(sp)
   10bbc:	0c812e23          	sw	s0,220(sp)
   10bc0:	0d312023          	sw	s3,192(sp)
   10bc4:	0d212223          	sw	s2,196(sp)
   10bc8:	0c912423          	sw	s1,200(sp)
   10bcc:	0c812623          	sw	s0,204(sp)
   10bd0:	0e5060ef          	jal	ra,174b4 <__addtf3>
   10bd4:	0e812703          	lw	a4,232(sp)
   10bd8:	0e012603          	lw	a2,224(sp)
   10bdc:	0e412683          	lw	a3,228(sp)
   10be0:	0ce12423          	sw	a4,200(sp)
   10be4:	0ec12703          	lw	a4,236(sp)
   10be8:	0cc12023          	sw	a2,192(sp)
   10bec:	0c010593          	addi	a1,sp,192
   10bf0:	0b010613          	addi	a2,sp,176
   10bf4:	0d010513          	addi	a0,sp,208
   10bf8:	0cd12223          	sw	a3,196(sp)
   10bfc:	0ce12623          	sw	a4,204(sp)
   10c00:	0b312823          	sw	s3,176(sp)
   10c04:	0b212a23          	sw	s2,180(sp)
   10c08:	0a912c23          	sw	s1,184(sp)
   10c0c:	0a812e23          	sw	s0,188(sp)
   10c10:	1c5080ef          	jal	ra,195d4 <__multf3>
   10c14:	0d812703          	lw	a4,216(sp)
   10c18:	0d012603          	lw	a2,208(sp)
   10c1c:	0d412683          	lw	a3,212(sp)
   10c20:	0ae12c23          	sw	a4,184(sp)
   10c24:	0dc12703          	lw	a4,220(sp)
   10c28:	0ac12823          	sw	a2,176(sp)
   10c2c:	0b010593          	addi	a1,sp,176
   10c30:	0a010613          	addi	a2,sp,160
   10c34:	0c010513          	addi	a0,sp,192
   10c38:	0ad12a23          	sw	a3,180(sp)
   10c3c:	0ae12e23          	sw	a4,188(sp)
   10c40:	0b312023          	sw	s3,160(sp)
   10c44:	0b212223          	sw	s2,164(sp)
   10c48:	0a912423          	sw	s1,168(sp)
   10c4c:	0a812623          	sw	s0,172(sp)
   10c50:	185080ef          	jal	ra,195d4 <__multf3>
   10c54:	400227b7          	lui	a5,0x40022
   10c58:	0c012303          	lw	t1,192(sp)
   10c5c:	0c412683          	lw	a3,196(sp)
   10c60:	0c812703          	lw	a4,200(sp)
   10c64:	08f12e23          	sw	a5,156(sp)
   10c68:	0cc12783          	lw	a5,204(sp)
   10c6c:	09010613          	addi	a2,sp,144
   10c70:	0a010593          	addi	a1,sp,160
   10c74:	0b010513          	addi	a0,sp,176
   10c78:	02612023          	sw	t1,32(sp)
   10c7c:	00d12e23          	sw	a3,28(sp)
   10c80:	00e12c23          	sw	a4,24(sp)
   10c84:	00f12823          	sw	a5,16(sp)
   10c88:	0b312023          	sw	s3,160(sp)
   10c8c:	0b212223          	sw	s2,164(sp)
   10c90:	0a912423          	sw	s1,168(sp)
   10c94:	0a812623          	sw	s0,172(sp)
   10c98:	08012823          	sw	zero,144(sp)
   10c9c:	08012a23          	sw	zero,148(sp)
   10ca0:	08012c23          	sw	zero,152(sp)
   10ca4:	131080ef          	jal	ra,195d4 <__multf3>
   10ca8:	0b412583          	lw	a1,180(sp)
   10cac:	0b012503          	lw	a0,176(sp)
   10cb0:	0b812603          	lw	a2,184(sp)
   10cb4:	08b12a23          	sw	a1,148(sp)
   10cb8:	0bc12583          	lw	a1,188(sp)
   10cbc:	08a12823          	sw	a0,144(sp)
   10cc0:	08c12c23          	sw	a2,152(sp)
   10cc4:	08b12e23          	sw	a1,156(sp)
   10cc8:	08010613          	addi	a2,sp,128
   10ccc:	09010593          	addi	a1,sp,144
   10cd0:	0a010513          	addi	a0,sp,160
   10cd4:	09b12023          	sw	s11,128(sp)
   10cd8:	09a12223          	sw	s10,132(sp)
   10cdc:	09712423          	sw	s7,136(sp)
   10ce0:	09612623          	sw	s6,140(sp)
   10ce4:	0f1080ef          	jal	ra,195d4 <__multf3>
   10ce8:	01012783          	lw	a5,16(sp)
   10cec:	01c12683          	lw	a3,28(sp)
   10cf0:	01812703          	lw	a4,24(sp)
   10cf4:	08f12623          	sw	a5,140(sp)
   10cf8:	0a812783          	lw	a5,168(sp)
   10cfc:	02012303          	lw	t1,32(sp)
   10d00:	08d12223          	sw	a3,132(sp)
   10d04:	08e12423          	sw	a4,136(sp)
   10d08:	0a012683          	lw	a3,160(sp)
   10d0c:	0a412703          	lw	a4,164(sp)
   10d10:	06f12c23          	sw	a5,120(sp)
   10d14:	0ac12783          	lw	a5,172(sp)
   10d18:	09010513          	addi	a0,sp,144
   10d1c:	07010613          	addi	a2,sp,112
   10d20:	08010593          	addi	a1,sp,128
   10d24:	08612023          	sw	t1,128(sp)
   10d28:	06e12a23          	sw	a4,116(sp)
   10d2c:	06f12e23          	sw	a5,124(sp)
   10d30:	06d12823          	sw	a3,112(sp)
   10d34:	7e0090ef          	jal	ra,1a514 <__subtf3>
   10d38:	02812803          	lw	a6,40(sp)
   10d3c:	02c12883          	lw	a7,44(sp)
   10d40:	00812603          	lw	a2,8(sp)
   10d44:	00c12683          	lw	a3,12(sp)
   10d48:	00080513          	addi	a0,a6,0
   10d4c:	00088593          	addi	a1,a7,0
   10d50:	7cd040ef          	jal	ra,15d1c <__divdf3>
   10d54:	00058613          	addi	a2,a1,0
   10d58:	00050593          	addi	a1,a0,0
   10d5c:	08010513          	addi	a0,sp,128
   10d60:	09012d83          	lw	s11,144(sp)
   10d64:	09412d03          	lw	s10,148(sp)
   10d68:	09812b83          	lw	s7,152(sp)
   10d6c:	09c12b03          	lw	s6,156(sp)
   10d70:	2bd0a0ef          	jal	ra,1b82c <__extenddftf2>
   10d74:	08812783          	lw	a5,136(sp)
   10d78:	08412703          	lw	a4,132(sp)
   10d7c:	08012683          	lw	a3,128(sp)
   10d80:	06f12423          	sw	a5,104(sp)
   10d84:	08c12783          	lw	a5,140(sp)
   10d88:	06e12223          	sw	a4,100(sp)
   10d8c:	07010513          	addi	a0,sp,112
   10d90:	4003b737          	lui	a4,0x4003b
   10d94:	06010593          	addi	a1,sp,96
   10d98:	05010613          	addi	a2,sp,80
   10d9c:	06d12023          	sw	a3,96(sp)
   10da0:	04e12e23          	sw	a4,92(sp)
   10da4:	06f12623          	sw	a5,108(sp)
   10da8:	04012823          	sw	zero,80(sp)
   10dac:	04012a23          	sw	zero,84(sp)
   10db0:	04012c23          	sw	zero,88(sp)
   10db4:	021080ef          	jal	ra,195d4 <__multf3>
   10db8:	07812783          	lw	a5,120(sp)
   10dbc:	07012683          	lw	a3,112(sp)
   10dc0:	07412703          	lw	a4,116(sp)
   10dc4:	04f12423          	sw	a5,72(sp)
   10dc8:	07c12783          	lw	a5,124(sp)
   10dcc:	06010513          	addi	a0,sp,96
   10dd0:	04010613          	addi	a2,sp,64
   10dd4:	05010593          	addi	a1,sp,80
   10dd8:	05b12823          	sw	s11,80(sp)
   10ddc:	05a12a23          	sw	s10,84(sp)
   10de0:	05712c23          	sw	s7,88(sp)
   10de4:	05612e23          	sw	s6,92(sp)
   10de8:	04d12023          	sw	a3,64(sp)
   10dec:	04e12223          	sw	a4,68(sp)
   10df0:	04f12623          	sw	a5,76(sp)
   10df4:	6c0060ef          	jal	ra,174b4 <__addtf3>
   10df8:	06812783          	lw	a5,104(sp)
   10dfc:	06412703          	lw	a4,100(sp)
   10e00:	06012683          	lw	a3,96(sp)
   10e04:	04f12423          	sw	a5,72(sp)
   10e08:	06c12783          	lw	a5,108(sp)
   10e0c:	04e12223          	sw	a4,68(sp)
   10e10:	04010593          	addi	a1,sp,64
   10e14:	4004b737          	lui	a4,0x4004b
   10e18:	05010513          	addi	a0,sp,80
   10e1c:	03010613          	addi	a2,sp,48
   10e20:	04d12023          	sw	a3,64(sp)
   10e24:	02e12e23          	sw	a4,60(sp)
   10e28:	04f12623          	sw	a5,76(sp)
   10e2c:	02012823          	sw	zero,48(sp)
   10e30:	02012a23          	sw	zero,52(sp)
   10e34:	02012c23          	sw	zero,56(sp)
   10e38:	169070ef          	jal	ra,187a0 <__divtf3>
   10e3c:	0c010613          	addi	a2,sp,192
   10e40:	0d010593          	addi	a1,sp,208
   10e44:	0e010513          	addi	a0,sp,224
   10e48:	05012d83          	lw	s11,80(sp)
   10e4c:	05412d03          	lw	s10,84(sp)
   10e50:	05812b83          	lw	s7,88(sp)
   10e54:	05c12b03          	lw	s6,92(sp)
   10e58:	0d912823          	sw	s9,208(sp)
   10e5c:	0d812a23          	sw	s8,212(sp)
   10e60:	0d512c23          	sw	s5,216(sp)
   10e64:	0d412e23          	sw	s4,220(sp)
   10e68:	0d912023          	sw	s9,192(sp)
   10e6c:	0d812223          	sw	s8,196(sp)
   10e70:	0d512423          	sw	s5,200(sp)
   10e74:	0d412623          	sw	s4,204(sp)
   10e78:	75c080ef          	jal	ra,195d4 <__multf3>
   10e7c:	0e812783          	lw	a5,232(sp)
   10e80:	0e012683          	lw	a3,224(sp)
   10e84:	0e412703          	lw	a4,228(sp)
   10e88:	0cf12423          	sw	a5,200(sp)
   10e8c:	0ec12783          	lw	a5,236(sp)
   10e90:	0b010613          	addi	a2,sp,176
   10e94:	0c010593          	addi	a1,sp,192
   10e98:	0d010513          	addi	a0,sp,208
   10e9c:	0cd12023          	sw	a3,192(sp)
   10ea0:	0cf12623          	sw	a5,204(sp)
   10ea4:	0ce12223          	sw	a4,196(sp)
   10ea8:	0b912823          	sw	s9,176(sp)
   10eac:	0b812a23          	sw	s8,180(sp)
   10eb0:	0b512c23          	sw	s5,184(sp)
   10eb4:	0b412e23          	sw	s4,188(sp)
   10eb8:	71c080ef          	jal	ra,195d4 <__multf3>
   10ebc:	0d012703          	lw	a4,208(sp)
   10ec0:	0c010613          	addi	a2,sp,192
   10ec4:	0d010593          	addi	a1,sp,208
   10ec8:	00e12423          	sw	a4,8(sp)
   10ecc:	0d412703          	lw	a4,212(sp)
   10ed0:	0e010513          	addi	a0,sp,224
   10ed4:	0db12023          	sw	s11,192(sp)
   10ed8:	00e12823          	sw	a4,16(sp)
   10edc:	0d812703          	lw	a4,216(sp)
   10ee0:	0da12223          	sw	s10,196(sp)
   10ee4:	0d712423          	sw	s7,200(sp)
   10ee8:	00e12c23          	sw	a4,24(sp)
   10eec:	0dc12703          	lw	a4,220(sp)
   10ef0:	0d612623          	sw	s6,204(sp)
   10ef4:	0db12823          	sw	s11,208(sp)
   10ef8:	00e12e23          	sw	a4,28(sp)
   10efc:	0da12a23          	sw	s10,212(sp)
   10f00:	0d712c23          	sw	s7,216(sp)
   10f04:	0d612e23          	sw	s6,220(sp)
   10f08:	6cc080ef          	jal	ra,195d4 <__multf3>
   10f0c:	0e412703          	lw	a4,228(sp)
   10f10:	0e812783          	lw	a5,232(sp)
   10f14:	0e012683          	lw	a3,224(sp)
   10f18:	0ce12223          	sw	a4,196(sp)
   10f1c:	00812703          	lw	a4,8(sp)
   10f20:	0cf12423          	sw	a5,200(sp)
   10f24:	0ec12783          	lw	a5,236(sp)
   10f28:	0ae12823          	sw	a4,176(sp)
   10f2c:	01012703          	lw	a4,16(sp)
   10f30:	0b010613          	addi	a2,sp,176
   10f34:	0c010593          	addi	a1,sp,192
   10f38:	0ae12a23          	sw	a4,180(sp)
   10f3c:	01812703          	lw	a4,24(sp)
   10f40:	0d010513          	addi	a0,sp,208
   10f44:	0cd12023          	sw	a3,192(sp)
   10f48:	0ae12c23          	sw	a4,184(sp)
   10f4c:	01c12703          	lw	a4,28(sp)
   10f50:	0cf12623          	sw	a5,204(sp)
   10f54:	0ae12e23          	sw	a4,188(sp)
   10f58:	5bc090ef          	jal	ra,1a514 <__subtf3>
   10f5c:	0d812783          	lw	a5,216(sp)
   10f60:	0d012683          	lw	a3,208(sp)
   10f64:	0d412703          	lw	a4,212(sp)
   10f68:	0cf12423          	sw	a5,200(sp)
   10f6c:	0dc12783          	lw	a5,220(sp)
   10f70:	0c010513          	addi	a0,sp,192
   10f74:	0cd12023          	sw	a3,192(sp)
   10f78:	0ce12223          	sw	a4,196(sp)
   10f7c:	0cf12623          	sw	a5,204(sp)
   10f80:	2a50a0ef          	jal	ra,1ba24 <__trunctfdf2>
   10f84:	00000613          	addi	a2,zero,0
   10f88:	00000693          	addi	a3,zero,0
   10f8c:	02a12023          	sw	a0,32(sp)
   10f90:	02b12223          	sw	a1,36(sp)
   10f94:	59c050ef          	jal	ra,16530 <__ledf2>
   10f98:	26a05863          	bge	zero,a0,11208 <SolveCubic+0x82c>
   10f9c:	13012703          	lw	a4,304(sp)
   10fa0:	02012503          	lw	a0,32(sp)
   10fa4:	02412583          	lw	a1,36(sp)
   10fa8:	00100793          	addi	a5,zero,1
   10fac:	00f72023          	sw	a5,0(a4) # 4004b000 <__BSS_END__+0x4002121c>
   10fb0:	0c5000ef          	jal	ra,11874 <sqrt>
   10fb4:	ff41a803          	lw	a6,-12(gp) # 29804 <__SDATA_BEGIN__+0x14c>
   10fb8:	ff01a783          	lw	a5,-16(gp) # 29800 <__SDATA_BEGIN__+0x148>
   10fbc:	00a12823          	sw	a0,16(sp)
   10fc0:	0e010513          	addi	a0,sp,224
   10fc4:	01012623          	sw	a6,12(sp)
   10fc8:	00f12423          	sw	a5,8(sp)
   10fcc:	00b12a23          	sw	a1,20(sp)
   10fd0:	0fb12023          	sw	s11,224(sp)
   10fd4:	0fa12223          	sw	s10,228(sp)
   10fd8:	0f712423          	sw	s7,232(sp)
   10fdc:	0f612623          	sw	s6,236(sp)
   10fe0:	2450a0ef          	jal	ra,1ba24 <__trunctfdf2>
   10fe4:	80000737          	lui	a4,0x80000
   10fe8:	fff70793          	addi	a5,a4,-1 # 7fffffff <__BSS_END__+0x7ffd621b>
   10fec:	01012603          	lw	a2,16(sp)
   10ff0:	01412683          	lw	a3,20(sp)
   10ff4:	00f5f7b3          	and	a5,a1,a5
   10ff8:	00078593          	addi	a1,a5,0 # 40022000 <__BSS_END__+0x3fff821c>
   10ffc:	5d4040ef          	jal	ra,155d0 <__adddf3>
   11000:	00c12683          	lw	a3,12(sp)
   11004:	00812603          	lw	a2,8(sp)
   11008:	6e4000ef          	jal	ra,116ec <pow>
   1100c:	00058613          	addi	a2,a1,0
   11010:	00050593          	addi	a1,a0,0
   11014:	0e010513          	addi	a0,sp,224
   11018:	0150a0ef          	jal	ra,1b82c <__extenddftf2>
   1101c:	0d912823          	sw	s9,208(sp)
   11020:	0d812a23          	sw	s8,212(sp)
   11024:	0e012c83          	lw	s9,224(sp)
   11028:	0e412c03          	lw	s8,228(sp)
   1102c:	0d512c23          	sw	s5,216(sp)
   11030:	0d412e23          	sw	s4,220(sp)
   11034:	0e812a83          	lw	s5,232(sp)
   11038:	0ec12a03          	lw	s4,236(sp)
   1103c:	0c010613          	addi	a2,sp,192
   11040:	0d010593          	addi	a1,sp,208
   11044:	0e010513          	addi	a0,sp,224
   11048:	0d512423          	sw	s5,200(sp)
   1104c:	0d412623          	sw	s4,204(sp)
   11050:	0d912023          	sw	s9,192(sp)
   11054:	0d812223          	sw	s8,196(sp)
   11058:	748070ef          	jal	ra,187a0 <__divtf3>
   1105c:	0e012583          	lw	a1,224(sp)
   11060:	0e412603          	lw	a2,228(sp)
   11064:	0e812683          	lw	a3,232(sp)
   11068:	0ec12783          	lw	a5,236(sp)
   1106c:	0cb12023          	sw	a1,192(sp)
   11070:	0cc12223          	sw	a2,196(sp)
   11074:	0c010593          	addi	a1,sp,192
   11078:	0b010613          	addi	a2,sp,176
   1107c:	0d010513          	addi	a0,sp,208
   11080:	0b512c23          	sw	s5,184(sp)
   11084:	0b412e23          	sw	s4,188(sp)
   11088:	0cd12423          	sw	a3,200(sp)
   1108c:	0cf12623          	sw	a5,204(sp)
   11090:	0b912823          	sw	s9,176(sp)
   11094:	0b812a23          	sw	s8,180(sp)
   11098:	41c060ef          	jal	ra,174b4 <__addtf3>
   1109c:	0d012583          	lw	a1,208(sp)
   110a0:	0d412603          	lw	a2,212(sp)
   110a4:	0d812683          	lw	a3,216(sp)
   110a8:	0dc12783          	lw	a5,220(sp)
   110ac:	0c010513          	addi	a0,sp,192
   110b0:	0cb12023          	sw	a1,192(sp)
   110b4:	0cc12223          	sw	a2,196(sp)
   110b8:	0cd12423          	sw	a3,200(sp)
   110bc:	0cf12623          	sw	a5,204(sp)
   110c0:	1650a0ef          	jal	ra,1ba24 <__trunctfdf2>
   110c4:	00050a93          	addi	s5,a0,0
   110c8:	00058a13          	addi	s4,a1,0
   110cc:	0e010513          	addi	a0,sp,224
   110d0:	0d010593          	addi	a1,sp,208
   110d4:	0fb12023          	sw	s11,224(sp)
   110d8:	0fa12223          	sw	s10,228(sp)
   110dc:	0f712423          	sw	s7,232(sp)
   110e0:	0f612623          	sw	s6,236(sp)
   110e4:	0c012823          	sw	zero,208(sp)
   110e8:	0c012a23          	sw	zero,212(sp)
   110ec:	0c012c23          	sw	zero,216(sp)
   110f0:	0c012e23          	sw	zero,220(sp)
   110f4:	3ac080ef          	jal	ra,194a0 <__letf2>
   110f8:	00054663          	blt	a0,zero,11104 <SolveCubic+0x728>
   110fc:	80000737          	lui	a4,0x80000
   11100:	00ea4a33          	xor	s4,s4,a4
   11104:	000a8593          	addi	a1,s5,0
   11108:	000a0613          	addi	a2,s4,0
   1110c:	0e010513          	addi	a0,sp,224
   11110:	71c0a0ef          	jal	ra,1b82c <__extenddftf2>
   11114:	400087b7          	lui	a5,0x40008
   11118:	0d010513          	addi	a0,sp,208
   1111c:	0b010613          	addi	a2,sp,176
   11120:	0c010593          	addi	a1,sp,192
   11124:	0d312023          	sw	s3,192(sp)
   11128:	0d212223          	sw	s2,196(sp)
   1112c:	0e012983          	lw	s3,224(sp)
   11130:	0e412903          	lw	s2,228(sp)
   11134:	0c912423          	sw	s1,200(sp)
   11138:	0c812623          	sw	s0,204(sp)
   1113c:	0e812483          	lw	s1,232(sp)
   11140:	0ec12403          	lw	s0,236(sp)
   11144:	0af12e23          	sw	a5,188(sp)
   11148:	0a012823          	sw	zero,176(sp)
   1114c:	0a012a23          	sw	zero,180(sp)
   11150:	0a012c23          	sw	zero,184(sp)
   11154:	64c070ef          	jal	ra,187a0 <__divtf3>
   11158:	0d012583          	lw	a1,208(sp)
   1115c:	0d412683          	lw	a3,212(sp)
   11160:	0d812703          	lw	a4,216(sp)
   11164:	0dc12783          	lw	a5,220(sp)
   11168:	0a010613          	addi	a2,sp,160
   1116c:	0c010513          	addi	a0,sp,192
   11170:	0ab12023          	sw	a1,160(sp)
   11174:	0b010593          	addi	a1,sp,176
   11178:	0ad12223          	sw	a3,164(sp)
   1117c:	0ae12423          	sw	a4,168(sp)
   11180:	0af12623          	sw	a5,172(sp)
   11184:	0b312823          	sw	s3,176(sp)
   11188:	0b212a23          	sw	s2,180(sp)
   1118c:	0a912c23          	sw	s1,184(sp)
   11190:	0a812e23          	sw	s0,188(sp)
   11194:	380090ef          	jal	ra,1a514 <__subtf3>
   11198:	0cc12783          	lw	a5,204(sp)
   1119c:	0c012603          	lw	a2,192(sp)
   111a0:	0c412683          	lw	a3,196(sp)
   111a4:	0c812703          	lw	a4,200(sp)
   111a8:	0b010513          	addi	a0,sp,176
   111ac:	0af12e23          	sw	a5,188(sp)
   111b0:	0ac12823          	sw	a2,176(sp)
   111b4:	0ad12a23          	sw	a3,180(sp)
   111b8:	0ae12c23          	sw	a4,184(sp)
   111bc:	0690a0ef          	jal	ra,1ba24 <__trunctfdf2>
   111c0:	13412783          	lw	a5,308(sp)
   111c4:	00a7a023          	sw	a0,0(a5) # 40008000 <__BSS_END__+0x3ffde21c>
   111c8:	00b7a223          	sw	a1,4(a5)
   111cc:	12c12083          	lw	ra,300(sp)
   111d0:	12812403          	lw	s0,296(sp)
   111d4:	12412483          	lw	s1,292(sp)
   111d8:	12012903          	lw	s2,288(sp)
   111dc:	11c12983          	lw	s3,284(sp)
   111e0:	11812a03          	lw	s4,280(sp)
   111e4:	11412a83          	lw	s5,276(sp)
   111e8:	11012b03          	lw	s6,272(sp)
   111ec:	10c12b83          	lw	s7,268(sp)
   111f0:	10812c03          	lw	s8,264(sp)
   111f4:	10412c83          	lw	s9,260(sp)
   111f8:	10012d03          	lw	s10,256(sp)
   111fc:	0fc12d83          	lw	s11,252(sp)
   11200:	13010113          	addi	sp,sp,304
   11204:	00008067          	jalr	zero,0(ra)
   11208:	00812703          	lw	a4,8(sp)
   1120c:	00300793          	addi	a5,zero,3
   11210:	0e010513          	addi	a0,sp,224
   11214:	0ee12023          	sw	a4,224(sp)
   11218:	01012703          	lw	a4,16(sp)
   1121c:	0ee12223          	sw	a4,228(sp)
   11220:	01812703          	lw	a4,24(sp)
   11224:	0ee12423          	sw	a4,232(sp)
   11228:	01c12703          	lw	a4,28(sp)
   1122c:	0ee12623          	sw	a4,236(sp)
   11230:	13012703          	lw	a4,304(sp)
   11234:	00f72023          	sw	a5,0(a4) # 80000000 <__BSS_END__+0x7ffd621c>
   11238:	7ec0a0ef          	jal	ra,1ba24 <__trunctfdf2>
   1123c:	638000ef          	jal	ra,11874 <sqrt>
   11240:	00058613          	addi	a2,a1,0
   11244:	00050593          	addi	a1,a0,0
   11248:	0e010513          	addi	a0,sp,224
   1124c:	5e00a0ef          	jal	ra,1b82c <__extenddftf2>
   11250:	0e812783          	lw	a5,232(sp)
   11254:	0e012683          	lw	a3,224(sp)
   11258:	0e412703          	lw	a4,228(sp)
   1125c:	0af12c23          	sw	a5,184(sp)
   11260:	0ec12783          	lw	a5,236(sp)
   11264:	0b010613          	addi	a2,sp,176
   11268:	0c010593          	addi	a1,sp,192
   1126c:	0d010513          	addi	a0,sp,208
   11270:	0db12023          	sw	s11,192(sp)
   11274:	0da12223          	sw	s10,196(sp)
   11278:	0d712423          	sw	s7,200(sp)
   1127c:	0d612623          	sw	s6,204(sp)
   11280:	0ad12823          	sw	a3,176(sp)
   11284:	0ae12a23          	sw	a4,180(sp)
   11288:	0af12e23          	sw	a5,188(sp)
   1128c:	514070ef          	jal	ra,187a0 <__divtf3>
   11290:	0d812783          	lw	a5,216(sp)
   11294:	0d412703          	lw	a4,212(sp)
   11298:	0d012683          	lw	a3,208(sp)
   1129c:	0cf12423          	sw	a5,200(sp)
   112a0:	0dc12783          	lw	a5,220(sp)
   112a4:	0c010513          	addi	a0,sp,192
   112a8:	0ce12223          	sw	a4,196(sp)
   112ac:	0cf12623          	sw	a5,204(sp)
   112b0:	0cd12023          	sw	a3,192(sp)
   112b4:	7700a0ef          	jal	ra,1ba24 <__trunctfdf2>
   112b8:	380000ef          	jal	ra,11638 <acos>
   112bc:	00050b13          	addi	s6,a0,0
   112c0:	0e010513          	addi	a0,sp,224
   112c4:	00058b93          	addi	s7,a1,0
   112c8:	0f912023          	sw	s9,224(sp)
   112cc:	0f812223          	sw	s8,228(sp)
   112d0:	0f512423          	sw	s5,232(sp)
   112d4:	0f412623          	sw	s4,236(sp)
   112d8:	74c0a0ef          	jal	ra,1ba24 <__trunctfdf2>
   112dc:	00a12423          	sw	a0,8(sp)
   112e0:	00b12623          	sw	a1,12(sp)
   112e4:	590000ef          	jal	ra,11874 <sqrt>
   112e8:	f281a603          	lw	a2,-216(gp) # 29738 <__SDATA_BEGIN__+0x80>
   112ec:	f2c1a683          	lw	a3,-212(gp) # 2973c <__SDATA_BEGIN__+0x84>
   112f0:	00050c13          	addi	s8,a0,0
   112f4:	00058c93          	addi	s9,a1,0
   112f8:	000b0513          	addi	a0,s6,0
   112fc:	000b8593          	addi	a1,s7,0
   11300:	21d040ef          	jal	ra,15d1c <__divdf3>
   11304:	61c000ef          	jal	ra,11920 <cos>
   11308:	400087b7          	lui	a5,0x40008
   1130c:	00050d13          	addi	s10,a0,0
   11310:	00058d93          	addi	s11,a1,0
   11314:	0c010613          	addi	a2,sp,192
   11318:	0d010593          	addi	a1,sp,208
   1131c:	0e010513          	addi	a0,sp,224
   11320:	0cf12623          	sw	a5,204(sp)
   11324:	0d212a23          	sw	s2,212(sp)
   11328:	0c912c23          	sw	s1,216(sp)
   1132c:	0c812e23          	sw	s0,220(sp)
   11330:	0d312823          	sw	s3,208(sp)
   11334:	0c012023          	sw	zero,192(sp)
   11338:	0c012223          	sw	zero,196(sp)
   1133c:	0c012423          	sw	zero,200(sp)
   11340:	460070ef          	jal	ra,187a0 <__divtf3>
   11344:	fd81a603          	lw	a2,-40(gp) # 297e8 <__SDATA_BEGIN__+0x130>
   11348:	fdc1a683          	lw	a3,-36(gp) # 297ec <__SDATA_BEGIN__+0x134>
   1134c:	000c0513          	addi	a0,s8,0
   11350:	000c8593          	addi	a1,s9,0
   11354:	2b4050ef          	jal	ra,16608 <__muldf3>
   11358:	000d8693          	addi	a3,s11,0
   1135c:	000d0613          	addi	a2,s10,0
   11360:	2a8050ef          	jal	ra,16608 <__muldf3>
   11364:	00058613          	addi	a2,a1,0
   11368:	00050593          	addi	a1,a0,0
   1136c:	0e010513          	addi	a0,sp,224
   11370:	0e012c83          	lw	s9,224(sp)
   11374:	0e412c03          	lw	s8,228(sp)
   11378:	0e812483          	lw	s1,232(sp)
   1137c:	0ec12403          	lw	s0,236(sp)
   11380:	4ac0a0ef          	jal	ra,1b82c <__extenddftf2>
   11384:	0e812683          	lw	a3,232(sp)
   11388:	0e012583          	lw	a1,224(sp)
   1138c:	0e412603          	lw	a2,228(sp)
   11390:	0cd12423          	sw	a3,200(sp)
   11394:	0ec12683          	lw	a3,236(sp)
   11398:	0cb12023          	sw	a1,192(sp)
   1139c:	0cc12223          	sw	a2,196(sp)
   113a0:	0c010593          	addi	a1,sp,192
   113a4:	0b010613          	addi	a2,sp,176
   113a8:	0d010513          	addi	a0,sp,208
   113ac:	0cd12623          	sw	a3,204(sp)
   113b0:	0b912823          	sw	s9,176(sp)
   113b4:	0b812a23          	sw	s8,180(sp)
   113b8:	0a912c23          	sw	s1,184(sp)
   113bc:	0a812e23          	sw	s0,188(sp)
   113c0:	154090ef          	jal	ra,1a514 <__subtf3>
   113c4:	0d812683          	lw	a3,216(sp)
   113c8:	0d412603          	lw	a2,212(sp)
   113cc:	0d012583          	lw	a1,208(sp)
   113d0:	0cd12423          	sw	a3,200(sp)
   113d4:	0dc12683          	lw	a3,220(sp)
   113d8:	0c010513          	addi	a0,sp,192
   113dc:	0cc12223          	sw	a2,196(sp)
   113e0:	0cd12623          	sw	a3,204(sp)
   113e4:	0cb12023          	sw	a1,192(sp)
   113e8:	63c0a0ef          	jal	ra,1ba24 <__trunctfdf2>
   113ec:	13412783          	lw	a5,308(sp)
   113f0:	00050613          	addi	a2,a0,0
   113f4:	00058693          	addi	a3,a1,0
   113f8:	00812503          	lw	a0,8(sp)
   113fc:	00c12583          	lw	a1,12(sp)
   11400:	00c7a023          	sw	a2,0(a5) # 40008000 <__BSS_END__+0x3ffde21c>
   11404:	00d7a223          	sw	a3,4(a5)
   11408:	46c000ef          	jal	ra,11874 <sqrt>
   1140c:	fe01a603          	lw	a2,-32(gp) # 297f0 <__SDATA_BEGIN__+0x138>
   11410:	fe41a683          	lw	a3,-28(gp) # 297f4 <__SDATA_BEGIN__+0x13c>
   11414:	00a12823          	sw	a0,16(sp)
   11418:	00b12a23          	sw	a1,20(sp)
   1141c:	000b0513          	addi	a0,s6,0
   11420:	000b8593          	addi	a1,s7,0
   11424:	1ac040ef          	jal	ra,155d0 <__adddf3>
   11428:	f281a603          	lw	a2,-216(gp) # 29738 <__SDATA_BEGIN__+0x80>
   1142c:	f2c1a683          	lw	a3,-212(gp) # 2973c <__SDATA_BEGIN__+0x84>
   11430:	0ed040ef          	jal	ra,15d1c <__divdf3>
   11434:	4ec000ef          	jal	ra,11920 <cos>
   11438:	fd81a603          	lw	a2,-40(gp) # 297e8 <__SDATA_BEGIN__+0x130>
   1143c:	fdc1a683          	lw	a3,-36(gp) # 297ec <__SDATA_BEGIN__+0x134>
   11440:	00050d13          	addi	s10,a0,0
   11444:	00058d93          	addi	s11,a1,0
   11448:	01012503          	lw	a0,16(sp)
   1144c:	01412583          	lw	a1,20(sp)
   11450:	1b8050ef          	jal	ra,16608 <__muldf3>
   11454:	000d8693          	addi	a3,s11,0
   11458:	000d0613          	addi	a2,s10,0
   1145c:	1ac050ef          	jal	ra,16608 <__muldf3>
   11460:	00058613          	addi	a2,a1,0
   11464:	00050593          	addi	a1,a0,0
   11468:	0e010513          	addi	a0,sp,224
   1146c:	3c00a0ef          	jal	ra,1b82c <__extenddftf2>
   11470:	0e012503          	lw	a0,224(sp)
   11474:	0e412583          	lw	a1,228(sp)
   11478:	0e812603          	lw	a2,232(sp)
   1147c:	0ec12683          	lw	a3,236(sp)
   11480:	0ca12023          	sw	a0,192(sp)
   11484:	0cb12223          	sw	a1,196(sp)
   11488:	0cc12423          	sw	a2,200(sp)
   1148c:	0c010593          	addi	a1,sp,192
   11490:	0b010613          	addi	a2,sp,176
   11494:	0d010513          	addi	a0,sp,208
   11498:	0cd12623          	sw	a3,204(sp)
   1149c:	0b912823          	sw	s9,176(sp)
   114a0:	0b812a23          	sw	s8,180(sp)
   114a4:	0a912c23          	sw	s1,184(sp)
   114a8:	0a812e23          	sw	s0,188(sp)
   114ac:	068090ef          	jal	ra,1a514 <__subtf3>
   114b0:	0d012503          	lw	a0,208(sp)
   114b4:	0d812603          	lw	a2,216(sp)
   114b8:	0dc12683          	lw	a3,220(sp)
   114bc:	0d412583          	lw	a1,212(sp)
   114c0:	0ca12023          	sw	a0,192(sp)
   114c4:	0c010513          	addi	a0,sp,192
   114c8:	0cc12423          	sw	a2,200(sp)
   114cc:	0cd12623          	sw	a3,204(sp)
   114d0:	0cb12223          	sw	a1,196(sp)
   114d4:	5500a0ef          	jal	ra,1ba24 <__trunctfdf2>
   114d8:	13412783          	lw	a5,308(sp)
   114dc:	00050613          	addi	a2,a0,0
   114e0:	00058693          	addi	a3,a1,0
   114e4:	00812503          	lw	a0,8(sp)
   114e8:	00c12583          	lw	a1,12(sp)
   114ec:	00c7a423          	sw	a2,8(a5)
   114f0:	00d7a623          	sw	a3,12(a5)
   114f4:	380000ef          	jal	ra,11874 <sqrt>
   114f8:	fe81a603          	lw	a2,-24(gp) # 297f8 <__SDATA_BEGIN__+0x140>
   114fc:	fec1a683          	lw	a3,-20(gp) # 297fc <__SDATA_BEGIN__+0x144>
   11500:	00050d13          	addi	s10,a0,0
   11504:	00058d93          	addi	s11,a1,0
   11508:	000b0513          	addi	a0,s6,0
   1150c:	000b8593          	addi	a1,s7,0
   11510:	0c0040ef          	jal	ra,155d0 <__adddf3>
   11514:	f281a603          	lw	a2,-216(gp) # 29738 <__SDATA_BEGIN__+0x80>
   11518:	f2c1a683          	lw	a3,-212(gp) # 2973c <__SDATA_BEGIN__+0x84>
   1151c:	001040ef          	jal	ra,15d1c <__divdf3>
   11520:	400000ef          	jal	ra,11920 <cos>
   11524:	fd81a603          	lw	a2,-40(gp) # 297e8 <__SDATA_BEGIN__+0x130>
   11528:	fdc1a683          	lw	a3,-36(gp) # 297ec <__SDATA_BEGIN__+0x134>
   1152c:	00050a13          	addi	s4,a0,0
   11530:	00058a93          	addi	s5,a1,0
   11534:	000d0513          	addi	a0,s10,0
   11538:	000d8593          	addi	a1,s11,0
   1153c:	0cc050ef          	jal	ra,16608 <__muldf3>
   11540:	000a8693          	addi	a3,s5,0
   11544:	000a0613          	addi	a2,s4,0
   11548:	0c0050ef          	jal	ra,16608 <__muldf3>
   1154c:	00058613          	addi	a2,a1,0
   11550:	00050593          	addi	a1,a0,0
   11554:	0e010513          	addi	a0,sp,224
   11558:	2d40a0ef          	jal	ra,1b82c <__extenddftf2>
   1155c:	0e012583          	lw	a1,224(sp)
   11560:	0e412683          	lw	a3,228(sp)
   11564:	0e812703          	lw	a4,232(sp)
   11568:	0ec12783          	lw	a5,236(sp)
   1156c:	0b010613          	addi	a2,sp,176
   11570:	0d010513          	addi	a0,sp,208
   11574:	0cb12023          	sw	a1,192(sp)
   11578:	0c010593          	addi	a1,sp,192
   1157c:	0cd12223          	sw	a3,196(sp)
   11580:	0ce12423          	sw	a4,200(sp)
   11584:	0cf12623          	sw	a5,204(sp)
   11588:	0b912823          	sw	s9,176(sp)
   1158c:	0b812a23          	sw	s8,180(sp)
   11590:	0a912c23          	sw	s1,184(sp)
   11594:	0a812e23          	sw	s0,188(sp)
   11598:	77d080ef          	jal	ra,1a514 <__subtf3>
   1159c:	0dc12783          	lw	a5,220(sp)
   115a0:	0d012603          	lw	a2,208(sp)
   115a4:	0d412683          	lw	a3,212(sp)
   115a8:	0d812703          	lw	a4,216(sp)
   115ac:	0c010513          	addi	a0,sp,192
   115b0:	0cf12623          	sw	a5,204(sp)
   115b4:	0cc12023          	sw	a2,192(sp)
   115b8:	0cd12223          	sw	a3,196(sp)
   115bc:	0ce12423          	sw	a4,200(sp)
   115c0:	4640a0ef          	jal	ra,1ba24 <__trunctfdf2>
   115c4:	13412783          	lw	a5,308(sp)
   115c8:	00a7a823          	sw	a0,16(a5)
   115cc:	00b7aa23          	sw	a1,20(a5)
   115d0:	bfdff06f          	jal	zero,111cc <SolveCubic+0x7f0>

000115d4 <usqrt>:
   115d4:	ff010113          	addi	sp,sp,-16
   115d8:	02000613          	addi	a2,zero,32
   115dc:	00000693          	addi	a3,zero,0
   115e0:	00000793          	addi	a5,zero,0
   115e4:	01e55813          	srli	a6,a0,0x1e
   115e8:	00269713          	slli	a4,a3,0x2
   115ec:	00279793          	slli	a5,a5,0x2
   115f0:	00f807b3          	add	a5,a6,a5
   115f4:	00170713          	addi	a4,a4,1
   115f8:	fff60613          	addi	a2,a2,-1
   115fc:	00251513          	slli	a0,a0,0x2
   11600:	00169693          	slli	a3,a3,0x1
   11604:	00e7e663          	bltu	a5,a4,11610 <usqrt+0x3c>
   11608:	40e787b3          	sub	a5,a5,a4
   1160c:	00168693          	addi	a3,a3,1
   11610:	fc061ae3          	bne	a2,zero,115e4 <usqrt+0x10>
   11614:	0086d613          	srli	a2,a3,0x8
   11618:	0106d713          	srli	a4,a3,0x10
   1161c:	0186d793          	srli	a5,a3,0x18
   11620:	00d58023          	sb	a3,0(a1)
   11624:	00c580a3          	sb	a2,1(a1)
   11628:	00e58123          	sb	a4,2(a1)
   1162c:	00f581a3          	sb	a5,3(a1)
   11630:	01010113          	addi	sp,sp,16
   11634:	00008067          	jalr	zero,0(ra)

00011638 <acos>:
   11638:	fe010113          	addi	sp,sp,-32
   1163c:	00812c23          	sw	s0,24(sp)
   11640:	00912a23          	sw	s1,20(sp)
   11644:	01212823          	sw	s2,16(sp)
   11648:	01312623          	sw	s3,12(sp)
   1164c:	00050413          	addi	s0,a0,0
   11650:	00058493          	addi	s1,a1,0
   11654:	00112e23          	sw	ra,28(sp)
   11658:	50d000ef          	jal	ra,12364 <__ieee754_acos>
   1165c:	00050913          	addi	s2,a0,0
   11660:	00058993          	addi	s3,a1,0
   11664:	00040613          	addi	a2,s0,0
   11668:	00048693          	addi	a3,s1,0
   1166c:	00040513          	addi	a0,s0,0
   11670:	00048593          	addi	a1,s1,0
   11674:	4dd050ef          	jal	ra,17350 <__unorddf2>
   11678:	02051063          	bne	a0,zero,11698 <acos+0x60>
   1167c:	00040513          	addi	a0,s0,0
   11680:	00048593          	addi	a1,s1,0
   11684:	6c0000ef          	jal	ra,11d44 <fabs>
   11688:	ec01a603          	lw	a2,-320(gp) # 296d0 <__SDATA_BEGIN__+0x18>
   1168c:	ec41a683          	lw	a3,-316(gp) # 296d4 <__SDATA_BEGIN__+0x1c>
   11690:	5c9040ef          	jal	ra,16458 <__gedf2>
   11694:	02a04463          	blt	zero,a0,116bc <acos+0x84>
   11698:	01c12083          	lw	ra,28(sp)
   1169c:	01812403          	lw	s0,24(sp)
   116a0:	01412483          	lw	s1,20(sp)
   116a4:	00090513          	addi	a0,s2,0
   116a8:	00098593          	addi	a1,s3,0
   116ac:	01012903          	lw	s2,16(sp)
   116b0:	00c12983          	lw	s3,12(sp)
   116b4:	02010113          	addi	sp,sp,32
   116b8:	00008067          	jalr	zero,0(ra)
   116bc:	07c0b0ef          	jal	ra,1c738 <__errno>
   116c0:	01812403          	lw	s0,24(sp)
   116c4:	01c12083          	lw	ra,28(sp)
   116c8:	01412483          	lw	s1,20(sp)
   116cc:	01012903          	lw	s2,16(sp)
   116d0:	00c12983          	lw	s3,12(sp)
   116d4:	02100713          	addi	a4,zero,33
   116d8:	00e52023          	sw	a4,0(a0)
   116dc:	000287b7          	lui	a5,0x28
   116e0:	46878513          	addi	a0,a5,1128 # 28468 <__floatsitf+0x1c0>
   116e4:	02010113          	addi	sp,sp,32
   116e8:	2e80006f          	jal	zero,119d0 <nan>

000116ec <pow>:
   116ec:	fe010113          	addi	sp,sp,-32
   116f0:	00812c23          	sw	s0,24(sp)
   116f4:	00912a23          	sw	s1,20(sp)
   116f8:	01212823          	sw	s2,16(sp)
   116fc:	01312623          	sw	s3,12(sp)
   11700:	01412423          	sw	s4,8(sp)
   11704:	01512223          	sw	s5,4(sp)
   11708:	00060913          	addi	s2,a2,0
   1170c:	00068993          	addi	s3,a3,0
   11710:	00112e23          	sw	ra,28(sp)
   11714:	00050a13          	addi	s4,a0,0
   11718:	00058a93          	addi	s5,a1,0
   1171c:	260010ef          	jal	ra,1297c <__ieee754_pow>
   11720:	00050493          	addi	s1,a0,0
   11724:	00058413          	addi	s0,a1,0
   11728:	00090613          	addi	a2,s2,0
   1172c:	00098693          	addi	a3,s3,0
   11730:	00090513          	addi	a0,s2,0
   11734:	00098593          	addi	a1,s3,0
   11738:	419050ef          	jal	ra,17350 <__unorddf2>
   1173c:	02051e63          	bne	a0,zero,11778 <pow+0x8c>
   11740:	00000613          	addi	a2,zero,0
   11744:	00000693          	addi	a3,zero,0
   11748:	000a0513          	addi	a0,s4,0
   1174c:	000a8593          	addi	a1,s5,0
   11750:	485040ef          	jal	ra,163d4 <__eqdf2>
   11754:	06051e63          	bne	a0,zero,117d0 <pow+0xe4>
   11758:	00000613          	addi	a2,zero,0
   1175c:	00000693          	addi	a3,zero,0
   11760:	00090513          	addi	a0,s2,0
   11764:	00098593          	addi	a1,s3,0
   11768:	46d040ef          	jal	ra,163d4 <__eqdf2>
   1176c:	02051c63          	bne	a0,zero,117a4 <pow+0xb8>
   11770:	ec01a483          	lw	s1,-320(gp) # 296d0 <__SDATA_BEGIN__+0x18>
   11774:	ec41a403          	lw	s0,-316(gp) # 296d4 <__SDATA_BEGIN__+0x1c>
   11778:	01c12083          	lw	ra,28(sp)
   1177c:	00040593          	addi	a1,s0,0
   11780:	01812403          	lw	s0,24(sp)
   11784:	01012903          	lw	s2,16(sp)
   11788:	00c12983          	lw	s3,12(sp)
   1178c:	00812a03          	lw	s4,8(sp)
   11790:	00412a83          	lw	s5,4(sp)
   11794:	00048513          	addi	a0,s1,0
   11798:	01412483          	lw	s1,20(sp)
   1179c:	02010113          	addi	sp,sp,32
   117a0:	00008067          	jalr	zero,0(ra)
   117a4:	00090513          	addi	a0,s2,0
   117a8:	00098593          	addi	a1,s3,0
   117ac:	5a8000ef          	jal	ra,11d54 <finite>
   117b0:	fc0504e3          	beq	a0,zero,11778 <pow+0x8c>
   117b4:	00090513          	addi	a0,s2,0
   117b8:	00098593          	addi	a1,s3,0
   117bc:	00000613          	addi	a2,zero,0
   117c0:	00000693          	addi	a3,zero,0
   117c4:	56d040ef          	jal	ra,16530 <__ledf2>
   117c8:	fa0558e3          	bge	a0,zero,11778 <pow+0x8c>
   117cc:	0880006f          	jal	zero,11854 <pow+0x168>
   117d0:	00048513          	addi	a0,s1,0
   117d4:	00040593          	addi	a1,s0,0
   117d8:	57c000ef          	jal	ra,11d54 <finite>
   117dc:	04050063          	beq	a0,zero,1181c <pow+0x130>
   117e0:	00048513          	addi	a0,s1,0
   117e4:	00040593          	addi	a1,s0,0
   117e8:	00000613          	addi	a2,zero,0
   117ec:	00000693          	addi	a3,zero,0
   117f0:	3e5040ef          	jal	ra,163d4 <__eqdf2>
   117f4:	f80512e3          	bne	a0,zero,11778 <pow+0x8c>
   117f8:	000a0513          	addi	a0,s4,0
   117fc:	000a8593          	addi	a1,s5,0
   11800:	554000ef          	jal	ra,11d54 <finite>
   11804:	f6050ae3          	beq	a0,zero,11778 <pow+0x8c>
   11808:	00090513          	addi	a0,s2,0
   1180c:	00098593          	addi	a1,s3,0
   11810:	544000ef          	jal	ra,11d54 <finite>
   11814:	f60502e3          	beq	a0,zero,11778 <pow+0x8c>
   11818:	03c0006f          	jal	zero,11854 <pow+0x168>
   1181c:	000a0513          	addi	a0,s4,0
   11820:	000a8593          	addi	a1,s5,0
   11824:	530000ef          	jal	ra,11d54 <finite>
   11828:	fa050ce3          	beq	a0,zero,117e0 <pow+0xf4>
   1182c:	00090513          	addi	a0,s2,0
   11830:	00098593          	addi	a1,s3,0
   11834:	520000ef          	jal	ra,11d54 <finite>
   11838:	fa0504e3          	beq	a0,zero,117e0 <pow+0xf4>
   1183c:	00048613          	addi	a2,s1,0
   11840:	00048513          	addi	a0,s1,0
   11844:	00040693          	addi	a3,s0,0
   11848:	00040593          	addi	a1,s0,0
   1184c:	305050ef          	jal	ra,17350 <__unorddf2>
   11850:	00051a63          	bne	a0,zero,11864 <pow+0x178>
   11854:	6e50a0ef          	jal	ra,1c738 <__errno>
   11858:	02200793          	addi	a5,zero,34
   1185c:	00f52023          	sw	a5,0(a0)
   11860:	f19ff06f          	jal	zero,11778 <pow+0x8c>
   11864:	6d50a0ef          	jal	ra,1c738 <__errno>
   11868:	02100793          	addi	a5,zero,33
   1186c:	00f52023          	sw	a5,0(a0)
   11870:	f09ff06f          	jal	zero,11778 <pow+0x8c>

00011874 <sqrt>:
   11874:	fe010113          	addi	sp,sp,-32
   11878:	00812c23          	sw	s0,24(sp)
   1187c:	00912a23          	sw	s1,20(sp)
   11880:	01212823          	sw	s2,16(sp)
   11884:	01312623          	sw	s3,12(sp)
   11888:	00050913          	addi	s2,a0,0
   1188c:	00058993          	addi	s3,a1,0
   11890:	00112e23          	sw	ra,28(sp)
   11894:	148000ef          	jal	ra,119dc <__ieee754_sqrt>
   11898:	00050493          	addi	s1,a0,0
   1189c:	00058413          	addi	s0,a1,0
   118a0:	00090613          	addi	a2,s2,0
   118a4:	00098693          	addi	a3,s3,0
   118a8:	00090513          	addi	a0,s2,0
   118ac:	00098593          	addi	a1,s3,0
   118b0:	2a1050ef          	jal	ra,17350 <__unorddf2>
   118b4:	00051e63          	bne	a0,zero,118d0 <sqrt+0x5c>
   118b8:	00090513          	addi	a0,s2,0
   118bc:	00098593          	addi	a1,s3,0
   118c0:	00000613          	addi	a2,zero,0
   118c4:	00000693          	addi	a3,zero,0
   118c8:	469040ef          	jal	ra,16530 <__ledf2>
   118cc:	02054463          	blt	a0,zero,118f4 <sqrt+0x80>
   118d0:	01c12083          	lw	ra,28(sp)
   118d4:	00040593          	addi	a1,s0,0
   118d8:	01812403          	lw	s0,24(sp)
   118dc:	01012903          	lw	s2,16(sp)
   118e0:	00c12983          	lw	s3,12(sp)
   118e4:	00048513          	addi	a0,s1,0
   118e8:	01412483          	lw	s1,20(sp)
   118ec:	02010113          	addi	sp,sp,32
   118f0:	00008067          	jalr	zero,0(ra)
   118f4:	6450a0ef          	jal	ra,1c738 <__errno>
   118f8:	00000613          	addi	a2,zero,0
   118fc:	00000693          	addi	a3,zero,0
   11900:	02100793          	addi	a5,zero,33
   11904:	00f52023          	sw	a5,0(a0)
   11908:	00068593          	addi	a1,a3,0
   1190c:	00060513          	addi	a0,a2,0
   11910:	40c040ef          	jal	ra,15d1c <__divdf3>
   11914:	00050493          	addi	s1,a0,0
   11918:	00058413          	addi	s0,a1,0
   1191c:	fb5ff06f          	jal	zero,118d0 <sqrt+0x5c>

00011920 <cos>:
   11920:	800007b7          	lui	a5,0x80000
   11924:	fff78713          	addi	a4,a5,-1 # 7fffffff <__BSS_END__+0x7ffd621b>
   11928:	3fe92637          	lui	a2,0x3fe92
   1192c:	00b77733          	and	a4,a4,a1
   11930:	1fb60613          	addi	a2,a2,507 # 3fe921fb <__BSS_END__+0x3fe68417>
   11934:	06e67263          	bgeu	a2,a4,11998 <cos+0x78>
   11938:	fe010113          	addi	sp,sp,-32
   1193c:	00112e23          	sw	ra,28(sp)
   11940:	7ff00637          	lui	a2,0x7ff00
   11944:	00c76e63          	bltu	a4,a2,11960 <cos+0x40>
   11948:	00050613          	addi	a2,a0,0
   1194c:	00058693          	addi	a3,a1,0
   11950:	2a0050ef          	jal	ra,16bf0 <__subdf3>
   11954:	01c12083          	lw	ra,28(sp)
   11958:	02010113          	addi	sp,sp,32
   1195c:	00008067          	jalr	zero,0(ra)
   11960:	00010613          	addi	a2,sp,0
   11964:	1c4020ef          	jal	ra,13b28 <__ieee754_rem_pio2>
   11968:	00357713          	andi	a4,a0,3
   1196c:	00100813          	addi	a6,zero,1
   11970:	00012503          	lw	a0,0(sp)
   11974:	00412583          	lw	a1,4(sp)
   11978:	00812603          	lw	a2,8(sp)
   1197c:	00c12683          	lw	a3,12(sp)
   11980:	03070a63          	beq	a4,a6,119b4 <cos+0x94>
   11984:	00200893          	addi	a7,zero,2
   11988:	01170e63          	beq	a4,a7,119a4 <cos+0x84>
   1198c:	02071c63          	bne	a4,zero,119c4 <cos+0xa4>
   11990:	3dc000ef          	jal	ra,11d6c <__kernel_cos>
   11994:	fc1ff06f          	jal	zero,11954 <cos+0x34>
   11998:	00000613          	addi	a2,zero,0
   1199c:	00000693          	addi	a3,zero,0
   119a0:	3cc0006f          	jal	zero,11d6c <__kernel_cos>
   119a4:	3c8000ef          	jal	ra,11d6c <__kernel_cos>
   119a8:	800007b7          	lui	a5,0x80000
   119ac:	00f5c5b3          	xor	a1,a1,a5
   119b0:	fa5ff06f          	jal	zero,11954 <cos+0x34>
   119b4:	758000ef          	jal	ra,1210c <__kernel_sin>
   119b8:	800007b7          	lui	a5,0x80000
   119bc:	00f5c5b3          	xor	a1,a1,a5
   119c0:	f95ff06f          	jal	zero,11954 <cos+0x34>
   119c4:	00080713          	addi	a4,a6,0
   119c8:	744000ef          	jal	ra,1210c <__kernel_sin>
   119cc:	f89ff06f          	jal	zero,11954 <cos+0x34>

000119d0 <nan>:
   119d0:	ff81a503          	lw	a0,-8(gp) # 29808 <__SDATA_BEGIN__+0x150>
   119d4:	ffc1a583          	lw	a1,-4(gp) # 2980c <__SDATA_BEGIN__+0x154>
   119d8:	00008067          	jalr	zero,0(ra)

000119dc <__ieee754_sqrt>:
   119dc:	fe010113          	addi	sp,sp,-32
   119e0:	7ff00737          	lui	a4,0x7ff00
   119e4:	00112e23          	sw	ra,28(sp)
   119e8:	00b776b3          	and	a3,a4,a1
   119ec:	00058813          	addi	a6,a1,0
   119f0:	00050793          	addi	a5,a0,0
   119f4:	2ce68a63          	beq	a3,a4,11cc8 <__ieee754_sqrt+0x2ec>
   119f8:	00058693          	addi	a3,a1,0
   119fc:	00050713          	addi	a4,a0,0
   11a00:	10b05a63          	bge	zero,a1,11b14 <__ieee754_sqrt+0x138>
   11a04:	4145d813          	srai	a6,a1,0x14
   11a08:	14080063          	beq	a6,zero,11b48 <__ieee754_sqrt+0x16c>
   11a0c:	001007b7          	lui	a5,0x100
   11a10:	fff78613          	addi	a2,a5,-1 # fffff <__BSS_END__+0xd621b>
   11a14:	c0180813          	addi	a6,a6,-1023
   11a18:	00c6f6b3          	and	a3,a3,a2
   11a1c:	00187613          	andi	a2,a6,1
   11a20:	00f6e6b3          	or	a3,a3,a5
   11a24:	00060a63          	beq	a2,zero,11a38 <__ieee754_sqrt+0x5c>
   11a28:	01f75793          	srli	a5,a4,0x1f
   11a2c:	00169693          	slli	a3,a3,0x1
   11a30:	00d786b3          	add	a3,a5,a3
   11a34:	00171713          	slli	a4,a4,0x1
   11a38:	00169693          	slli	a3,a3,0x1
   11a3c:	01f75793          	srli	a5,a4,0x1f
   11a40:	00d787b3          	add	a5,a5,a3
   11a44:	40185313          	srai	t1,a6,0x1
   11a48:	00171713          	slli	a4,a4,0x1
   11a4c:	01600593          	addi	a1,zero,22
   11a50:	00000e13          	addi	t3,zero,0
   11a54:	00000693          	addi	a3,zero,0
   11a58:	00200637          	lui	a2,0x200
   11a5c:	00c68533          	add	a0,a3,a2
   11a60:	01f75813          	srli	a6,a4,0x1f
   11a64:	fff58593          	addi	a1,a1,-1
   11a68:	00a7c863          	blt	a5,a0,11a78 <__ieee754_sqrt+0x9c>
   11a6c:	40a787b3          	sub	a5,a5,a0
   11a70:	00c506b3          	add	a3,a0,a2
   11a74:	00ce0e33          	add	t3,t3,a2
   11a78:	00179793          	slli	a5,a5,0x1
   11a7c:	010787b3          	add	a5,a5,a6
   11a80:	00171713          	slli	a4,a4,0x1
   11a84:	00165613          	srli	a2,a2,0x1
   11a88:	fc059ae3          	bne	a1,zero,11a5c <__ieee754_sqrt+0x80>
   11a8c:	00000e93          	addi	t4,zero,0
   11a90:	00000893          	addi	a7,zero,0
   11a94:	02000813          	addi	a6,zero,32
   11a98:	80000637          	lui	a2,0x80000
   11a9c:	0480006f          	jal	zero,11ae4 <__ieee754_sqrt+0x108>
   11aa0:	0cd79e63          	bne	a5,a3,11b7c <__ieee754_sqrt+0x1a0>
   11aa4:	0cb76c63          	bltu	a4,a1,11b7c <__ieee754_sqrt+0x1a0>
   11aa8:	00c588b3          	add	a7,a1,a2
   11aac:	00000793          	addi	a5,zero,0
   11ab0:	0005d863          	bge	a1,zero,11ac0 <__ieee754_sqrt+0xe4>
   11ab4:	fff8c513          	xori	a0,a7,-1
   11ab8:	01f55513          	srli	a0,a0,0x1f
   11abc:	00a686b3          	add	a3,a3,a0
   11ac0:	40b70733          	sub	a4,a4,a1
   11ac4:	01f75593          	srli	a1,a4,0x1f
   11ac8:	00f585b3          	add	a1,a1,a5
   11acc:	fff80813          	addi	a6,a6,-1
   11ad0:	00ce8eb3          	add	t4,t4,a2
   11ad4:	00171713          	slli	a4,a4,0x1
   11ad8:	00165613          	srli	a2,a2,0x1
   11adc:	00058793          	addi	a5,a1,0
   11ae0:	0a080e63          	beq	a6,zero,11b9c <__ieee754_sqrt+0x1c0>
   11ae4:	011605b3          	add	a1,a2,a7
   11ae8:	faf6dce3          	bge	a3,a5,11aa0 <__ieee754_sqrt+0xc4>
   11aec:	00c588b3          	add	a7,a1,a2
   11af0:	fff8c513          	xori	a0,a7,-1
   11af4:	00b57533          	and	a0,a0,a1
   11af8:	01f55513          	srli	a0,a0,0x1f
   11afc:	40d787b3          	sub	a5,a5,a3
   11b00:	00d506b3          	add	a3,a0,a3
   11b04:	00b77463          	bgeu	a4,a1,11b0c <__ieee754_sqrt+0x130>
   11b08:	fff78793          	addi	a5,a5,-1
   11b0c:	00179793          	slli	a5,a5,0x1
   11b10:	fb1ff06f          	jal	zero,11ac0 <__ieee754_sqrt+0xe4>
   11b14:	00159893          	slli	a7,a1,0x1
   11b18:	0018d893          	srli	a7,a7,0x1
   11b1c:	00a8e8b3          	or	a7,a7,a0
   11b20:	0a088263          	beq	a7,zero,11bc4 <__ieee754_sqrt+0x1e8>
   11b24:	1e059063          	bne	a1,zero,11d04 <__ieee754_sqrt+0x328>
   11b28:	00b75793          	srli	a5,a4,0xb
   11b2c:	feb68693          	addi	a3,a3,-21
   11b30:	01571713          	slli	a4,a4,0x15
   11b34:	fe078ae3          	beq	a5,zero,11b28 <__ieee754_sqrt+0x14c>
   11b38:	0147d613          	srli	a2,a5,0x14
   11b3c:	00068813          	addi	a6,a3,0
   11b40:	1e061a63          	bne	a2,zero,11d34 <__ieee754_sqrt+0x358>
   11b44:	00078693          	addi	a3,a5,0
   11b48:	00000793          	addi	a5,zero,0
   11b4c:	00169693          	slli	a3,a3,0x1
   11b50:	00b69593          	slli	a1,a3,0xb
   11b54:	00078613          	addi	a2,a5,0
   11b58:	00178793          	addi	a5,a5,1
   11b5c:	fe05d8e3          	bge	a1,zero,11b4c <__ieee754_sqrt+0x170>
   11b60:	02000593          	addi	a1,zero,32
   11b64:	40f585b3          	sub	a1,a1,a5
   11b68:	00b755b3          	srl	a1,a4,a1
   11b6c:	00b6e6b3          	or	a3,a3,a1
   11b70:	00f71733          	sll	a4,a4,a5
   11b74:	40c80833          	sub	a6,a6,a2
   11b78:	e95ff06f          	jal	zero,11a0c <__ieee754_sqrt+0x30>
   11b7c:	00179793          	slli	a5,a5,0x1
   11b80:	01f75593          	srli	a1,a4,0x1f
   11b84:	00f585b3          	add	a1,a1,a5
   11b88:	fff80813          	addi	a6,a6,-1
   11b8c:	00165613          	srli	a2,a2,0x1
   11b90:	00171713          	slli	a4,a4,0x1
   11b94:	00058793          	addi	a5,a1,0
   11b98:	f40816e3          	bne	a6,zero,11ae4 <__ieee754_sqrt+0x108>
   11b9c:	00e5e5b3          	or	a1,a1,a4
   11ba0:	02059c63          	bne	a1,zero,11bd8 <__ieee754_sqrt+0x1fc>
   11ba4:	001ed813          	srli	a6,t4,0x1
   11ba8:	401e5713          	srai	a4,t3,0x1
   11bac:	3fe006b7          	lui	a3,0x3fe00
   11bb0:	01431313          	slli	t1,t1,0x14
   11bb4:	01fe1793          	slli	a5,t3,0x1f
   11bb8:	00d70733          	add	a4,a4,a3
   11bbc:	0107e7b3          	or	a5,a5,a6
   11bc0:	00e30833          	add	a6,t1,a4
   11bc4:	01c12083          	lw	ra,28(sp)
   11bc8:	00078513          	addi	a0,a5,0
   11bcc:	00080593          	addi	a1,a6,0
   11bd0:	02010113          	addi	sp,sp,32
   11bd4:	00008067          	jalr	zero,0(ra)
   11bd8:	2901a503          	lw	a0,656(gp) # 29aa0 <one>
   11bdc:	01012623          	sw	a6,12(sp)
   11be0:	2941a583          	lw	a1,660(gp) # 29aa4 <one+0x4>
   11be4:	2881a603          	lw	a2,648(gp) # 29a98 <tiny>
   11be8:	28c1a683          	lw	a3,652(gp) # 29a9c <tiny+0x4>
   11bec:	2901a803          	lw	a6,656(gp) # 29aa0 <one>
   11bf0:	2941a883          	lw	a7,660(gp) # 29aa4 <one+0x4>
   11bf4:	01c12423          	sw	t3,8(sp)
   11bf8:	00612223          	sw	t1,4(sp)
   11bfc:	01d12023          	sw	t4,0(sp)
   11c00:	00812c23          	sw	s0,24(sp)
   11c04:	00912a23          	sw	s1,20(sp)
   11c08:	00080413          	addi	s0,a6,0
   11c0c:	00088493          	addi	s1,a7,0
   11c10:	7e1040ef          	jal	ra,16bf0 <__subdf3>
   11c14:	00050613          	addi	a2,a0,0
   11c18:	00058693          	addi	a3,a1,0
   11c1c:	00040513          	addi	a0,s0,0
   11c20:	00048593          	addi	a1,s1,0
   11c24:	10d040ef          	jal	ra,16530 <__ledf2>
   11c28:	00012e83          	lw	t4,0(sp)
   11c2c:	00412303          	lw	t1,4(sp)
   11c30:	00812e03          	lw	t3,8(sp)
   11c34:	00c12803          	lw	a6,12(sp)
   11c38:	08a04063          	blt	zero,a0,11cb8 <__ieee754_sqrt+0x2dc>
   11c3c:	2901a503          	lw	a0,656(gp) # 29aa0 <one>
   11c40:	2941a583          	lw	a1,660(gp) # 29aa4 <one+0x4>
   11c44:	2881a603          	lw	a2,648(gp) # 29a98 <tiny>
   11c48:	28c1a683          	lw	a3,652(gp) # 29a9c <tiny+0x4>
   11c4c:	fff00713          	addi	a4,zero,-1
   11c50:	0cee8a63          	beq	t4,a4,11d24 <__ieee754_sqrt+0x348>
   11c54:	2941a803          	lw	a6,660(gp) # 29aa4 <one+0x4>
   11c58:	2901a783          	lw	a5,656(gp) # 29aa0 <one>
   11c5c:	01c12423          	sw	t3,8(sp)
   11c60:	00612223          	sw	t1,4(sp)
   11c64:	01d12023          	sw	t4,0(sp)
   11c68:	00078413          	addi	s0,a5,0
   11c6c:	00080493          	addi	s1,a6,0
   11c70:	161030ef          	jal	ra,155d0 <__adddf3>
   11c74:	00050613          	addi	a2,a0,0
   11c78:	00058693          	addi	a3,a1,0
   11c7c:	00040513          	addi	a0,s0,0
   11c80:	00048593          	addi	a1,s1,0
   11c84:	0ad040ef          	jal	ra,16530 <__ledf2>
   11c88:	00012e83          	lw	t4,0(sp)
   11c8c:	00412303          	lw	t1,4(sp)
   11c90:	00812e03          	lw	t3,8(sp)
   11c94:	02055063          	bge	a0,zero,11cb4 <__ieee754_sqrt+0x2d8>
   11c98:	002e8e93          	addi	t4,t4,2
   11c9c:	001eb793          	sltiu	a5,t4,1
   11ca0:	01812403          	lw	s0,24(sp)
   11ca4:	01412483          	lw	s1,20(sp)
   11ca8:	00fe0e33          	add	t3,t3,a5
   11cac:	001ed813          	srli	a6,t4,0x1
   11cb0:	ef9ff06f          	jal	zero,11ba8 <__ieee754_sqrt+0x1cc>
   11cb4:	001e8e93          	addi	t4,t4,1
   11cb8:	01812403          	lw	s0,24(sp)
   11cbc:	01412483          	lw	s1,20(sp)
   11cc0:	001ed813          	srli	a6,t4,0x1
   11cc4:	ee5ff06f          	jal	zero,11ba8 <__ieee754_sqrt+0x1cc>
   11cc8:	00050613          	addi	a2,a0,0
   11ccc:	00058693          	addi	a3,a1,0
   11cd0:	00a12223          	sw	a0,4(sp)
   11cd4:	00b12023          	sw	a1,0(sp)
   11cd8:	131040ef          	jal	ra,16608 <__muldf3>
   11cdc:	00412603          	lw	a2,4(sp)
   11ce0:	00012683          	lw	a3,0(sp)
   11ce4:	0ed030ef          	jal	ra,155d0 <__adddf3>
   11ce8:	01c12083          	lw	ra,28(sp)
   11cec:	00050793          	addi	a5,a0,0
   11cf0:	00058813          	addi	a6,a1,0
   11cf4:	00078513          	addi	a0,a5,0
   11cf8:	00080593          	addi	a1,a6,0
   11cfc:	02010113          	addi	sp,sp,32
   11d00:	00008067          	jalr	zero,0(ra)
   11d04:	00050613          	addi	a2,a0,0
   11d08:	6e9040ef          	jal	ra,16bf0 <__subdf3>
   11d0c:	00050613          	addi	a2,a0,0
   11d10:	00058693          	addi	a3,a1,0
   11d14:	008040ef          	jal	ra,15d1c <__divdf3>
   11d18:	00050793          	addi	a5,a0,0
   11d1c:	00058813          	addi	a6,a1,0
   11d20:	ea5ff06f          	jal	zero,11bc4 <__ieee754_sqrt+0x1e8>
   11d24:	01812403          	lw	s0,24(sp)
   11d28:	01412483          	lw	s1,20(sp)
   11d2c:	001e0e13          	addi	t3,t3,1
   11d30:	e79ff06f          	jal	zero,11ba8 <__ieee754_sqrt+0x1cc>
   11d34:	fff00613          	addi	a2,zero,-1
   11d38:	00078693          	addi	a3,a5,0
   11d3c:	40c80833          	sub	a6,a6,a2
   11d40:	ccdff06f          	jal	zero,11a0c <__ieee754_sqrt+0x30>

00011d44 <fabs>:
   11d44:	00159593          	slli	a1,a1,0x1
   11d48:	0015d793          	srli	a5,a1,0x1
   11d4c:	00078593          	addi	a1,a5,0
   11d50:	00008067          	jalr	zero,0(ra)

00011d54 <finite>:
   11d54:	800007b7          	lui	a5,0x80000
   11d58:	00f5e533          	or	a0,a1,a5
   11d5c:	fff007b7          	lui	a5,0xfff00
   11d60:	40f50533          	sub	a0,a0,a5
   11d64:	01f55513          	srli	a0,a0,0x1f
   11d68:	00008067          	jalr	zero,0(ra)

00011d6c <__kernel_cos>:
   11d6c:	fb010113          	addi	sp,sp,-80
   11d70:	00159793          	slli	a5,a1,0x1
   11d74:	05212023          	sw	s2,64(sp)
   11d78:	03312e23          	sw	s3,60(sp)
   11d7c:	03612823          	sw	s6,48(sp)
   11d80:	03712623          	sw	s7,44(sp)
   11d84:	04112623          	sw	ra,76(sp)
   11d88:	04812423          	sw	s0,72(sp)
   11d8c:	04912223          	sw	s1,68(sp)
   11d90:	03812423          	sw	s8,40(sp)
   11d94:	03912223          	sw	s9,36(sp)
   11d98:	0017d793          	srli	a5,a5,0x1
   11d9c:	3e400737          	lui	a4,0x3e400
   11da0:	00058913          	addi	s2,a1,0
   11da4:	00060b13          	addi	s6,a2,0 # 80000000 <__BSS_END__+0x7ffd621c>
   11da8:	00068b93          	addi	s7,a3,0 # 3fe00000 <__BSS_END__+0x3fdd621c>
   11dac:	00050993          	addi	s3,a0,0
   11db0:	14e7fc63          	bgeu	a5,a4,11f08 <__kernel_cos+0x19c>
   11db4:	5e4050ef          	jal	ra,17398 <__fixdfsi>
   11db8:	34050463          	beq	a0,zero,12100 <__kernel_cos+0x394>
   11dbc:	00098613          	addi	a2,s3,0
   11dc0:	00090693          	addi	a3,s2,0
   11dc4:	00098513          	addi	a0,s3,0
   11dc8:	00090593          	addi	a1,s2,0
   11dcc:	03412c23          	sw	s4,56(sp)
   11dd0:	03512a23          	sw	s5,52(sp)
   11dd4:	035040ef          	jal	ra,16608 <__muldf3>
   11dd8:	0101a603          	lw	a2,16(gp) # 29820 <__global_pointer$+0x10>
   11ddc:	0141a683          	lw	a3,20(gp) # 29824 <__global_pointer$+0x14>
   11de0:	00050493          	addi	s1,a0,0
   11de4:	00058413          	addi	s0,a1,0
   11de8:	021040ef          	jal	ra,16608 <__muldf3>
   11dec:	0181a603          	lw	a2,24(gp) # 29828 <__global_pointer$+0x18>
   11df0:	01c1a683          	lw	a3,28(gp) # 2982c <__global_pointer$+0x1c>
   11df4:	7dc030ef          	jal	ra,155d0 <__adddf3>
   11df8:	00048613          	addi	a2,s1,0
   11dfc:	00040693          	addi	a3,s0,0
   11e00:	009040ef          	jal	ra,16608 <__muldf3>
   11e04:	0201a603          	lw	a2,32(gp) # 29830 <__global_pointer$+0x20>
   11e08:	0241a683          	lw	a3,36(gp) # 29834 <__global_pointer$+0x24>
   11e0c:	5e5040ef          	jal	ra,16bf0 <__subdf3>
   11e10:	00048613          	addi	a2,s1,0
   11e14:	00040693          	addi	a3,s0,0
   11e18:	7f0040ef          	jal	ra,16608 <__muldf3>
   11e1c:	0281a603          	lw	a2,40(gp) # 29838 <__global_pointer$+0x28>
   11e20:	02c1a683          	lw	a3,44(gp) # 2983c <__global_pointer$+0x2c>
   11e24:	7ac030ef          	jal	ra,155d0 <__adddf3>
   11e28:	00048613          	addi	a2,s1,0
   11e2c:	00040693          	addi	a3,s0,0
   11e30:	7d8040ef          	jal	ra,16608 <__muldf3>
   11e34:	0301a603          	lw	a2,48(gp) # 29840 <__global_pointer$+0x30>
   11e38:	0341a683          	lw	a3,52(gp) # 29844 <__global_pointer$+0x34>
   11e3c:	5b5040ef          	jal	ra,16bf0 <__subdf3>
   11e40:	00048613          	addi	a2,s1,0
   11e44:	00040693          	addi	a3,s0,0
   11e48:	7c0040ef          	jal	ra,16608 <__muldf3>
   11e4c:	0381a603          	lw	a2,56(gp) # 29848 <__global_pointer$+0x38>
   11e50:	03c1a683          	lw	a3,60(gp) # 2984c <__global_pointer$+0x3c>
   11e54:	77c030ef          	jal	ra,155d0 <__adddf3>
   11e58:	00048613          	addi	a2,s1,0
   11e5c:	00040693          	addi	a3,s0,0
   11e60:	7a8040ef          	jal	ra,16608 <__muldf3>
   11e64:	00050c13          	addi	s8,a0,0
   11e68:	00058c93          	addi	s9,a1,0
   11e6c:	0401a603          	lw	a2,64(gp) # 29850 <__global_pointer$+0x40>
   11e70:	0441a683          	lw	a3,68(gp) # 29854 <__global_pointer$+0x44>
   11e74:	00048513          	addi	a0,s1,0
   11e78:	00040593          	addi	a1,s0,0
   11e7c:	78c040ef          	jal	ra,16608 <__muldf3>
   11e80:	00050a13          	addi	s4,a0,0
   11e84:	00058a93          	addi	s5,a1,0
   11e88:	000c0613          	addi	a2,s8,0
   11e8c:	00048513          	addi	a0,s1,0
   11e90:	000c8693          	addi	a3,s9,0
   11e94:	00040593          	addi	a1,s0,0
   11e98:	770040ef          	jal	ra,16608 <__muldf3>
   11e9c:	00050413          	addi	s0,a0,0
   11ea0:	00058493          	addi	s1,a1,0
   11ea4:	000b0613          	addi	a2,s6,0
   11ea8:	000b8693          	addi	a3,s7,0
   11eac:	00098513          	addi	a0,s3,0
   11eb0:	00090593          	addi	a1,s2,0
   11eb4:	754040ef          	jal	ra,16608 <__muldf3>
   11eb8:	00050613          	addi	a2,a0,0
   11ebc:	00058693          	addi	a3,a1,0
   11ec0:	00040513          	addi	a0,s0,0
   11ec4:	00048593          	addi	a1,s1,0
   11ec8:	529040ef          	jal	ra,16bf0 <__subdf3>
   11ecc:	00050613          	addi	a2,a0,0
   11ed0:	00058693          	addi	a3,a1,0
   11ed4:	000a0513          	addi	a0,s4,0
   11ed8:	000a8593          	addi	a1,s5,0
   11edc:	515040ef          	jal	ra,16bf0 <__subdf3>
   11ee0:	00050613          	addi	a2,a0,0
   11ee4:	00058693          	addi	a3,a1,0
   11ee8:	ec01a503          	lw	a0,-320(gp) # 296d0 <__SDATA_BEGIN__+0x18>
   11eec:	ec41a583          	lw	a1,-316(gp) # 296d4 <__SDATA_BEGIN__+0x1c>
   11ef0:	501040ef          	jal	ra,16bf0 <__subdf3>
   11ef4:	00050713          	addi	a4,a0,0
   11ef8:	03812a03          	lw	s4,56(sp)
   11efc:	03412a83          	lw	s5,52(sp)
   11f00:	00058793          	addi	a5,a1,0
   11f04:	1ac0006f          	jal	zero,120b0 <__kernel_cos+0x344>
   11f08:	00050613          	addi	a2,a0,0
   11f0c:	00058693          	addi	a3,a1,0
   11f10:	00f12623          	sw	a5,12(sp)
   11f14:	03412c23          	sw	s4,56(sp)
   11f18:	03512a23          	sw	s5,52(sp)
   11f1c:	6ec040ef          	jal	ra,16608 <__muldf3>
   11f20:	0101a603          	lw	a2,16(gp) # 29820 <__global_pointer$+0x10>
   11f24:	0141a683          	lw	a3,20(gp) # 29824 <__global_pointer$+0x14>
   11f28:	00050493          	addi	s1,a0,0
   11f2c:	00058413          	addi	s0,a1,0
   11f30:	6d8040ef          	jal	ra,16608 <__muldf3>
   11f34:	0181a603          	lw	a2,24(gp) # 29828 <__global_pointer$+0x18>
   11f38:	01c1a683          	lw	a3,28(gp) # 2982c <__global_pointer$+0x1c>
   11f3c:	694030ef          	jal	ra,155d0 <__adddf3>
   11f40:	00048613          	addi	a2,s1,0
   11f44:	00040693          	addi	a3,s0,0
   11f48:	6c0040ef          	jal	ra,16608 <__muldf3>
   11f4c:	0201a603          	lw	a2,32(gp) # 29830 <__global_pointer$+0x20>
   11f50:	0241a683          	lw	a3,36(gp) # 29834 <__global_pointer$+0x24>
   11f54:	49d040ef          	jal	ra,16bf0 <__subdf3>
   11f58:	00048613          	addi	a2,s1,0
   11f5c:	00040693          	addi	a3,s0,0
   11f60:	6a8040ef          	jal	ra,16608 <__muldf3>
   11f64:	0281a603          	lw	a2,40(gp) # 29838 <__global_pointer$+0x28>
   11f68:	02c1a683          	lw	a3,44(gp) # 2983c <__global_pointer$+0x2c>
   11f6c:	664030ef          	jal	ra,155d0 <__adddf3>
   11f70:	00048613          	addi	a2,s1,0
   11f74:	00040693          	addi	a3,s0,0
   11f78:	690040ef          	jal	ra,16608 <__muldf3>
   11f7c:	0301a603          	lw	a2,48(gp) # 29840 <__global_pointer$+0x30>
   11f80:	0341a683          	lw	a3,52(gp) # 29844 <__global_pointer$+0x34>
   11f84:	46d040ef          	jal	ra,16bf0 <__subdf3>
   11f88:	00048613          	addi	a2,s1,0
   11f8c:	00040693          	addi	a3,s0,0
   11f90:	678040ef          	jal	ra,16608 <__muldf3>
   11f94:	0381a603          	lw	a2,56(gp) # 29848 <__global_pointer$+0x38>
   11f98:	03c1a683          	lw	a3,60(gp) # 2984c <__global_pointer$+0x3c>
   11f9c:	634030ef          	jal	ra,155d0 <__adddf3>
   11fa0:	00048613          	addi	a2,s1,0
   11fa4:	00040693          	addi	a3,s0,0
   11fa8:	660040ef          	jal	ra,16608 <__muldf3>
   11fac:	00c12783          	lw	a5,12(sp)
   11fb0:	3fd33737          	lui	a4,0x3fd33
   11fb4:	33270713          	addi	a4,a4,818 # 3fd33332 <__BSS_END__+0x3fd0954e>
   11fb8:	00050c13          	addi	s8,a0,0
   11fbc:	00058c93          	addi	s9,a1,0
   11fc0:	eaf776e3          	bgeu	a4,a5,11e6c <__kernel_cos+0x100>
   11fc4:	03a12023          	sw	s10,32(sp)
   11fc8:	01b12e23          	sw	s11,28(sp)
   11fcc:	3fe90737          	lui	a4,0x3fe90
   11fd0:	10f76a63          	bltu	a4,a5,120e4 <__kernel_cos+0x378>
   11fd4:	ec01a503          	lw	a0,-320(gp) # 296d0 <__SDATA_BEGIN__+0x18>
   11fd8:	ffe006b7          	lui	a3,0xffe00
   11fdc:	ec41a583          	lw	a1,-316(gp) # 296d4 <__SDATA_BEGIN__+0x1c>
   11fe0:	00d787b3          	add	a5,a5,a3
   11fe4:	00000813          	addi	a6,zero,0
   11fe8:	00000613          	addi	a2,zero,0
   11fec:	00078693          	addi	a3,a5,0 # fff00000 <__BSS_END__+0xffed621c>
   11ff0:	00080a13          	addi	s4,a6,0
   11ff4:	00078a93          	addi	s5,a5,0
   11ff8:	3f9040ef          	jal	ra,16bf0 <__subdf3>
   11ffc:	00050d13          	addi	s10,a0,0
   12000:	00058d93          	addi	s11,a1,0
   12004:	0401a603          	lw	a2,64(gp) # 29850 <__global_pointer$+0x40>
   12008:	0441a683          	lw	a3,68(gp) # 29854 <__global_pointer$+0x44>
   1200c:	00048513          	addi	a0,s1,0
   12010:	00040593          	addi	a1,s0,0
   12014:	5f4040ef          	jal	ra,16608 <__muldf3>
   12018:	000a0613          	addi	a2,s4,0
   1201c:	000a8693          	addi	a3,s5,0
   12020:	3d1040ef          	jal	ra,16bf0 <__subdf3>
   12024:	00050a13          	addi	s4,a0,0
   12028:	00058a93          	addi	s5,a1,0
   1202c:	000c0613          	addi	a2,s8,0
   12030:	00048513          	addi	a0,s1,0
   12034:	000c8693          	addi	a3,s9,0
   12038:	00040593          	addi	a1,s0,0
   1203c:	5cc040ef          	jal	ra,16608 <__muldf3>
   12040:	00050413          	addi	s0,a0,0
   12044:	00058493          	addi	s1,a1,0
   12048:	000b0613          	addi	a2,s6,0
   1204c:	000b8693          	addi	a3,s7,0
   12050:	00098513          	addi	a0,s3,0
   12054:	00090593          	addi	a1,s2,0
   12058:	5b0040ef          	jal	ra,16608 <__muldf3>
   1205c:	00050613          	addi	a2,a0,0
   12060:	00058693          	addi	a3,a1,0
   12064:	00040513          	addi	a0,s0,0
   12068:	00048593          	addi	a1,s1,0
   1206c:	385040ef          	jal	ra,16bf0 <__subdf3>
   12070:	00050613          	addi	a2,a0,0
   12074:	00058693          	addi	a3,a1,0
   12078:	000a0513          	addi	a0,s4,0
   1207c:	000a8593          	addi	a1,s5,0
   12080:	371040ef          	jal	ra,16bf0 <__subdf3>
   12084:	00050613          	addi	a2,a0,0
   12088:	00058693          	addi	a3,a1,0
   1208c:	000d0513          	addi	a0,s10,0
   12090:	000d8593          	addi	a1,s11,0
   12094:	35d040ef          	jal	ra,16bf0 <__subdf3>
   12098:	03812a03          	lw	s4,56(sp)
   1209c:	03412a83          	lw	s5,52(sp)
   120a0:	02012d03          	lw	s10,32(sp)
   120a4:	01c12d83          	lw	s11,28(sp)
   120a8:	00050713          	addi	a4,a0,0
   120ac:	00058793          	addi	a5,a1,0
   120b0:	04c12083          	lw	ra,76(sp)
   120b4:	04812403          	lw	s0,72(sp)
   120b8:	04412483          	lw	s1,68(sp)
   120bc:	04012903          	lw	s2,64(sp)
   120c0:	03c12983          	lw	s3,60(sp)
   120c4:	03012b03          	lw	s6,48(sp)
   120c8:	02c12b83          	lw	s7,44(sp)
   120cc:	02812c03          	lw	s8,40(sp)
   120d0:	02412c83          	lw	s9,36(sp)
   120d4:	00070513          	addi	a0,a4,0 # 3fe90000 <__BSS_END__+0x3fe6621c>
   120d8:	00078593          	addi	a1,a5,0
   120dc:	05010113          	addi	sp,sp,80
   120e0:	00008067          	jalr	zero,0(ra)
   120e4:	0001ad03          	lw	s10,0(gp) # 29810 <__global_pointer$>
   120e8:	0041ad83          	lw	s11,4(gp) # 29814 <__global_pointer$+0x4>
   120ec:	00c1a803          	lw	a6,12(gp) # 2981c <__global_pointer$+0xc>
   120f0:	0081a783          	lw	a5,8(gp) # 29818 <__global_pointer$+0x8>
   120f4:	00080a93          	addi	s5,a6,0
   120f8:	00078a13          	addi	s4,a5,0
   120fc:	f09ff06f          	jal	zero,12004 <__kernel_cos+0x298>
   12100:	ec01a703          	lw	a4,-320(gp) # 296d0 <__SDATA_BEGIN__+0x18>
   12104:	ec41a783          	lw	a5,-316(gp) # 296d4 <__SDATA_BEGIN__+0x1c>
   12108:	fa9ff06f          	jal	zero,120b0 <__kernel_cos+0x344>

0001210c <__kernel_sin>:
   1210c:	fc010113          	addi	sp,sp,-64
   12110:	00159793          	slli	a5,a1,0x1
   12114:	03212823          	sw	s2,48(sp)
   12118:	03312623          	sw	s3,44(sp)
   1211c:	03612023          	sw	s6,32(sp)
   12120:	01712e23          	sw	s7,28(sp)
   12124:	01812c23          	sw	s8,24(sp)
   12128:	02112e23          	sw	ra,60(sp)
   1212c:	0017d793          	srli	a5,a5,0x1
   12130:	3e400837          	lui	a6,0x3e400
   12134:	00058913          	addi	s2,a1,0
   12138:	00060b93          	addi	s7,a2,0
   1213c:	00068c13          	addi	s8,a3,0 # ffe00000 <__BSS_END__+0xffdd621c>
   12140:	00070b13          	addi	s6,a4,0
   12144:	00050993          	addi	s3,a0,0
   12148:	0107fa63          	bgeu	a5,a6,1215c <__kernel_sin+0x50>
   1214c:	24c050ef          	jal	ra,17398 <__fixdfsi>
   12150:	00098713          	addi	a4,s3,0
   12154:	00090793          	addi	a5,s2,0
   12158:	10050463          	beq	a0,zero,12260 <__kernel_sin+0x154>
   1215c:	00098613          	addi	a2,s3,0
   12160:	00090693          	addi	a3,s2,0
   12164:	00098513          	addi	a0,s3,0
   12168:	00090593          	addi	a1,s2,0
   1216c:	02812c23          	sw	s0,56(sp)
   12170:	02912a23          	sw	s1,52(sp)
   12174:	03412423          	sw	s4,40(sp)
   12178:	03512223          	sw	s5,36(sp)
   1217c:	48c040ef          	jal	ra,16608 <__muldf3>
   12180:	00050413          	addi	s0,a0,0
   12184:	00058493          	addi	s1,a1,0
   12188:	00050613          	addi	a2,a0,0
   1218c:	00058693          	addi	a3,a1,0
   12190:	00098513          	addi	a0,s3,0
   12194:	00090593          	addi	a1,s2,0
   12198:	470040ef          	jal	ra,16608 <__muldf3>
   1219c:	0481a603          	lw	a2,72(gp) # 29858 <__global_pointer$+0x48>
   121a0:	04c1a683          	lw	a3,76(gp) # 2985c <__global_pointer$+0x4c>
   121a4:	00050a13          	addi	s4,a0,0
   121a8:	00058a93          	addi	s5,a1,0
   121ac:	00040513          	addi	a0,s0,0
   121b0:	00048593          	addi	a1,s1,0
   121b4:	454040ef          	jal	ra,16608 <__muldf3>
   121b8:	0501a603          	lw	a2,80(gp) # 29860 <__global_pointer$+0x50>
   121bc:	0541a683          	lw	a3,84(gp) # 29864 <__global_pointer$+0x54>
   121c0:	231040ef          	jal	ra,16bf0 <__subdf3>
   121c4:	00040613          	addi	a2,s0,0
   121c8:	00048693          	addi	a3,s1,0
   121cc:	43c040ef          	jal	ra,16608 <__muldf3>
   121d0:	0581a603          	lw	a2,88(gp) # 29868 <__global_pointer$+0x58>
   121d4:	05c1a683          	lw	a3,92(gp) # 2986c <__global_pointer$+0x5c>
   121d8:	3f8030ef          	jal	ra,155d0 <__adddf3>
   121dc:	00040613          	addi	a2,s0,0
   121e0:	00048693          	addi	a3,s1,0
   121e4:	424040ef          	jal	ra,16608 <__muldf3>
   121e8:	0601a603          	lw	a2,96(gp) # 29870 <__global_pointer$+0x60>
   121ec:	0641a683          	lw	a3,100(gp) # 29874 <__global_pointer$+0x64>
   121f0:	201040ef          	jal	ra,16bf0 <__subdf3>
   121f4:	00040613          	addi	a2,s0,0
   121f8:	00048693          	addi	a3,s1,0
   121fc:	40c040ef          	jal	ra,16608 <__muldf3>
   12200:	0681a603          	lw	a2,104(gp) # 29878 <__global_pointer$+0x68>
   12204:	06c1a683          	lw	a3,108(gp) # 2987c <__global_pointer$+0x6c>
   12208:	3c8030ef          	jal	ra,155d0 <__adddf3>
   1220c:	060b1e63          	bne	s6,zero,12288 <__kernel_sin+0x17c>
   12210:	00050613          	addi	a2,a0,0
   12214:	00058693          	addi	a3,a1,0
   12218:	00040513          	addi	a0,s0,0
   1221c:	00048593          	addi	a1,s1,0
   12220:	3e8040ef          	jal	ra,16608 <__muldf3>
   12224:	0701a603          	lw	a2,112(gp) # 29880 <__global_pointer$+0x70>
   12228:	0741a683          	lw	a3,116(gp) # 29884 <__global_pointer$+0x74>
   1222c:	1c5040ef          	jal	ra,16bf0 <__subdf3>
   12230:	000a0613          	addi	a2,s4,0
   12234:	000a8693          	addi	a3,s5,0
   12238:	3d0040ef          	jal	ra,16608 <__muldf3>
   1223c:	00098613          	addi	a2,s3,0
   12240:	00090693          	addi	a3,s2,0
   12244:	38c030ef          	jal	ra,155d0 <__adddf3>
   12248:	03812403          	lw	s0,56(sp)
   1224c:	03412483          	lw	s1,52(sp)
   12250:	02812a03          	lw	s4,40(sp)
   12254:	02412a83          	lw	s5,36(sp)
   12258:	00050713          	addi	a4,a0,0
   1225c:	00058793          	addi	a5,a1,0
   12260:	03c12083          	lw	ra,60(sp)
   12264:	03012903          	lw	s2,48(sp)
   12268:	02c12983          	lw	s3,44(sp)
   1226c:	02012b03          	lw	s6,32(sp)
   12270:	01c12b83          	lw	s7,28(sp)
   12274:	01812c03          	lw	s8,24(sp)
   12278:	00070513          	addi	a0,a4,0
   1227c:	00078593          	addi	a1,a5,0
   12280:	04010113          	addi	sp,sp,64
   12284:	00008067          	jalr	zero,0(ra)
   12288:	0401a603          	lw	a2,64(gp) # 29850 <__global_pointer$+0x40>
   1228c:	0441a683          	lw	a3,68(gp) # 29854 <__global_pointer$+0x44>
   12290:	000b8b13          	addi	s6,s7,0
   12294:	00a12423          	sw	a0,8(sp)
   12298:	00b12623          	sw	a1,12(sp)
   1229c:	000b0513          	addi	a0,s6,0
   122a0:	000c0593          	addi	a1,s8,0
   122a4:	01912a23          	sw	s9,20(sp)
   122a8:	360040ef          	jal	ra,16608 <__muldf3>
   122ac:	00812703          	lw	a4,8(sp)
   122b0:	00c12783          	lw	a5,12(sp)
   122b4:	00058c93          	addi	s9,a1,0
   122b8:	00070613          	addi	a2,a4,0
   122bc:	00078693          	addi	a3,a5,0
   122c0:	000c0b93          	addi	s7,s8,0
   122c4:	000a8593          	addi	a1,s5,0
   122c8:	00050c13          	addi	s8,a0,0
   122cc:	000a0513          	addi	a0,s4,0
   122d0:	338040ef          	jal	ra,16608 <__muldf3>
   122d4:	00050613          	addi	a2,a0,0
   122d8:	00058693          	addi	a3,a1,0
   122dc:	000c0513          	addi	a0,s8,0
   122e0:	000c8593          	addi	a1,s9,0
   122e4:	10d040ef          	jal	ra,16bf0 <__subdf3>
   122e8:	00040613          	addi	a2,s0,0
   122ec:	00048693          	addi	a3,s1,0
   122f0:	318040ef          	jal	ra,16608 <__muldf3>
   122f4:	000b0613          	addi	a2,s6,0
   122f8:	000b8693          	addi	a3,s7,0
   122fc:	0f5040ef          	jal	ra,16bf0 <__subdf3>
   12300:	0701a603          	lw	a2,112(gp) # 29880 <__global_pointer$+0x70>
   12304:	0741a683          	lw	a3,116(gp) # 29884 <__global_pointer$+0x74>
   12308:	00050413          	addi	s0,a0,0
   1230c:	00058493          	addi	s1,a1,0
   12310:	000a0513          	addi	a0,s4,0
   12314:	000a8593          	addi	a1,s5,0
   12318:	2f0040ef          	jal	ra,16608 <__muldf3>
   1231c:	00050613          	addi	a2,a0,0
   12320:	00058693          	addi	a3,a1,0
   12324:	00040513          	addi	a0,s0,0
   12328:	00048593          	addi	a1,s1,0
   1232c:	2a4030ef          	jal	ra,155d0 <__adddf3>
   12330:	00050613          	addi	a2,a0,0
   12334:	00058693          	addi	a3,a1,0
   12338:	00098513          	addi	a0,s3,0
   1233c:	00090593          	addi	a1,s2,0
   12340:	0b1040ef          	jal	ra,16bf0 <__subdf3>
   12344:	00050713          	addi	a4,a0,0
   12348:	03812403          	lw	s0,56(sp)
   1234c:	03412483          	lw	s1,52(sp)
   12350:	02812a03          	lw	s4,40(sp)
   12354:	02412a83          	lw	s5,36(sp)
   12358:	01412c83          	lw	s9,20(sp)
   1235c:	00058793          	addi	a5,a1,0
   12360:	f01ff06f          	jal	zero,12260 <__kernel_sin+0x154>

00012364 <__ieee754_acos>:
   12364:	fd010113          	addi	sp,sp,-48
   12368:	00159793          	slli	a5,a1,0x1
   1236c:	02112623          	sw	ra,44(sp)
   12370:	0017d793          	srli	a5,a5,0x1
   12374:	3ff006b7          	lui	a3,0x3ff00
   12378:	02d7e663          	bltu	a5,a3,123a4 <__ieee754_acos+0x40>
   1237c:	40d787b3          	sub	a5,a5,a3
   12380:	00a7e7b3          	or	a5,a5,a0
   12384:	40079263          	bne	a5,zero,12788 <__ieee754_acos+0x424>
   12388:	00000713          	addi	a4,zero,0
   1238c:	42b05863          	bge	zero,a1,127bc <__ieee754_acos+0x458>
   12390:	02c12083          	lw	ra,44(sp)
   12394:	00070513          	addi	a0,a4,0
   12398:	00078593          	addi	a1,a5,0
   1239c:	03010113          	addi	sp,sp,48
   123a0:	00008067          	jalr	zero,0(ra)
   123a4:	3fe006b7          	lui	a3,0x3fe00
   123a8:	1ad7fa63          	bgeu	a5,a3,1255c <__ieee754_acos+0x1f8>
   123ac:	3c6006b7          	lui	a3,0x3c600
   123b0:	42f6f463          	bgeu	a3,a5,127d8 <__ieee754_acos+0x474>
   123b4:	00050613          	addi	a2,a0,0
   123b8:	00058693          	addi	a3,a1,0
   123bc:	02812423          	sw	s0,40(sp)
   123c0:	02912223          	sw	s1,36(sp)
   123c4:	03212023          	sw	s2,32(sp)
   123c8:	01312e23          	sw	s3,28(sp)
   123cc:	00a12623          	sw	a0,12(sp)
   123d0:	00b12023          	sw	a1,0(sp)
   123d4:	234040ef          	jal	ra,16608 <__muldf3>
   123d8:	0801a603          	lw	a2,128(gp) # 29890 <__global_pointer$+0x80>
   123dc:	0841a683          	lw	a3,132(gp) # 29894 <__global_pointer$+0x84>
   123e0:	00050413          	addi	s0,a0,0
   123e4:	00058493          	addi	s1,a1,0
   123e8:	220040ef          	jal	ra,16608 <__muldf3>
   123ec:	0881a603          	lw	a2,136(gp) # 29898 <__global_pointer$+0x88>
   123f0:	08c1a683          	lw	a3,140(gp) # 2989c <__global_pointer$+0x8c>
   123f4:	1dc030ef          	jal	ra,155d0 <__adddf3>
   123f8:	00040613          	addi	a2,s0,0
   123fc:	00048693          	addi	a3,s1,0
   12400:	208040ef          	jal	ra,16608 <__muldf3>
   12404:	0901a603          	lw	a2,144(gp) # 298a0 <__global_pointer$+0x90>
   12408:	0941a683          	lw	a3,148(gp) # 298a4 <__global_pointer$+0x94>
   1240c:	7e4040ef          	jal	ra,16bf0 <__subdf3>
   12410:	00040613          	addi	a2,s0,0
   12414:	00048693          	addi	a3,s1,0
   12418:	1f0040ef          	jal	ra,16608 <__muldf3>
   1241c:	0981a603          	lw	a2,152(gp) # 298a8 <__global_pointer$+0x98>
   12420:	09c1a683          	lw	a3,156(gp) # 298ac <__global_pointer$+0x9c>
   12424:	1ac030ef          	jal	ra,155d0 <__adddf3>
   12428:	00040613          	addi	a2,s0,0
   1242c:	00048693          	addi	a3,s1,0
   12430:	1d8040ef          	jal	ra,16608 <__muldf3>
   12434:	0a01a603          	lw	a2,160(gp) # 298b0 <__global_pointer$+0xa0>
   12438:	0a41a683          	lw	a3,164(gp) # 298b4 <__global_pointer$+0xa4>
   1243c:	7b4040ef          	jal	ra,16bf0 <__subdf3>
   12440:	00040613          	addi	a2,s0,0
   12444:	00048693          	addi	a3,s1,0
   12448:	1c0040ef          	jal	ra,16608 <__muldf3>
   1244c:	0a81a603          	lw	a2,168(gp) # 298b8 <__global_pointer$+0xa8>
   12450:	0ac1a683          	lw	a3,172(gp) # 298bc <__global_pointer$+0xac>
   12454:	17c030ef          	jal	ra,155d0 <__adddf3>
   12458:	00040613          	addi	a2,s0,0
   1245c:	00048693          	addi	a3,s1,0
   12460:	1a8040ef          	jal	ra,16608 <__muldf3>
   12464:	0b01a603          	lw	a2,176(gp) # 298c0 <__global_pointer$+0xb0>
   12468:	0b41a683          	lw	a3,180(gp) # 298c4 <__global_pointer$+0xb4>
   1246c:	00050913          	addi	s2,a0,0
   12470:	00058993          	addi	s3,a1,0
   12474:	00040513          	addi	a0,s0,0
   12478:	00048593          	addi	a1,s1,0
   1247c:	18c040ef          	jal	ra,16608 <__muldf3>
   12480:	0b81a603          	lw	a2,184(gp) # 298c8 <__global_pointer$+0xb8>
   12484:	0bc1a683          	lw	a3,188(gp) # 298cc <__global_pointer$+0xbc>
   12488:	768040ef          	jal	ra,16bf0 <__subdf3>
   1248c:	00040613          	addi	a2,s0,0
   12490:	00048693          	addi	a3,s1,0
   12494:	174040ef          	jal	ra,16608 <__muldf3>
   12498:	0c01a603          	lw	a2,192(gp) # 298d0 <__global_pointer$+0xc0>
   1249c:	0c41a683          	lw	a3,196(gp) # 298d4 <__global_pointer$+0xc4>
   124a0:	130030ef          	jal	ra,155d0 <__adddf3>
   124a4:	00040613          	addi	a2,s0,0
   124a8:	00048693          	addi	a3,s1,0
   124ac:	15c040ef          	jal	ra,16608 <__muldf3>
   124b0:	0c81a603          	lw	a2,200(gp) # 298d8 <__global_pointer$+0xc8>
   124b4:	0cc1a683          	lw	a3,204(gp) # 298dc <__global_pointer$+0xcc>
   124b8:	738040ef          	jal	ra,16bf0 <__subdf3>
   124bc:	00040613          	addi	a2,s0,0
   124c0:	00048693          	addi	a3,s1,0
   124c4:	144040ef          	jal	ra,16608 <__muldf3>
   124c8:	ec01a603          	lw	a2,-320(gp) # 296d0 <__SDATA_BEGIN__+0x18>
   124cc:	ec41a683          	lw	a3,-316(gp) # 296d4 <__SDATA_BEGIN__+0x1c>
   124d0:	100030ef          	jal	ra,155d0 <__adddf3>
   124d4:	00050613          	addi	a2,a0,0
   124d8:	00058693          	addi	a3,a1,0
   124dc:	00090513          	addi	a0,s2,0
   124e0:	00098593          	addi	a1,s3,0
   124e4:	039030ef          	jal	ra,15d1c <__divdf3>
   124e8:	00c12603          	lw	a2,12(sp)
   124ec:	00012683          	lw	a3,0(sp)
   124f0:	118040ef          	jal	ra,16608 <__muldf3>
   124f4:	00050613          	addi	a2,a0,0
   124f8:	00058693          	addi	a3,a1,0
   124fc:	0d01a503          	lw	a0,208(gp) # 298e0 <__global_pointer$+0xd0>
   12500:	0d41a583          	lw	a1,212(gp) # 298e4 <__global_pointer$+0xd4>
   12504:	6ec040ef          	jal	ra,16bf0 <__subdf3>
   12508:	00050613          	addi	a2,a0,0
   1250c:	00058693          	addi	a3,a1,0
   12510:	00c12503          	lw	a0,12(sp)
   12514:	00012583          	lw	a1,0(sp)
   12518:	6d8040ef          	jal	ra,16bf0 <__subdf3>
   1251c:	00050613          	addi	a2,a0,0
   12520:	00058693          	addi	a3,a1,0
   12524:	0781a503          	lw	a0,120(gp) # 29888 <__global_pointer$+0x78>
   12528:	07c1a583          	lw	a1,124(gp) # 2988c <__global_pointer$+0x7c>
   1252c:	6c4040ef          	jal	ra,16bf0 <__subdf3>
   12530:	02c12083          	lw	ra,44(sp)
   12534:	02812403          	lw	s0,40(sp)
   12538:	00050713          	addi	a4,a0,0
   1253c:	00058793          	addi	a5,a1,0
   12540:	02412483          	lw	s1,36(sp)
   12544:	02012903          	lw	s2,32(sp)
   12548:	01c12983          	lw	s3,28(sp)
   1254c:	00070513          	addi	a0,a4,0
   12550:	00078593          	addi	a1,a5,0
   12554:	03010113          	addi	sp,sp,48
   12558:	00008067          	jalr	zero,0(ra)
   1255c:	02812423          	sw	s0,40(sp)
   12560:	02912223          	sw	s1,36(sp)
   12564:	03212023          	sw	s2,32(sp)
   12568:	01312e23          	sw	s3,28(sp)
   1256c:	2805c463          	blt	a1,zero,127f4 <__ieee754_acos+0x490>
   12570:	00050613          	addi	a2,a0,0
   12574:	00058693          	addi	a3,a1,0
   12578:	ec01a503          	lw	a0,-320(gp) # 296d0 <__SDATA_BEGIN__+0x18>
   1257c:	ec41a583          	lw	a1,-316(gp) # 296d4 <__SDATA_BEGIN__+0x1c>
   12580:	01412c23          	sw	s4,24(sp)
   12584:	01512a23          	sw	s5,20(sp)
   12588:	668040ef          	jal	ra,16bf0 <__subdf3>
   1258c:	0401a603          	lw	a2,64(gp) # 29850 <__global_pointer$+0x40>
   12590:	0441a683          	lw	a3,68(gp) # 29854 <__global_pointer$+0x44>
   12594:	074040ef          	jal	ra,16608 <__muldf3>
   12598:	00050413          	addi	s0,a0,0
   1259c:	00058493          	addi	s1,a1,0
   125a0:	c3cff0ef          	jal	ra,119dc <__ieee754_sqrt>
   125a4:	0801a603          	lw	a2,128(gp) # 29890 <__global_pointer$+0x80>
   125a8:	0841a683          	lw	a3,132(gp) # 29894 <__global_pointer$+0x84>
   125ac:	00058913          	addi	s2,a1,0
   125b0:	00050993          	addi	s3,a0,0
   125b4:	00048593          	addi	a1,s1,0
   125b8:	00040513          	addi	a0,s0,0
   125bc:	04c040ef          	jal	ra,16608 <__muldf3>
   125c0:	0881a603          	lw	a2,136(gp) # 29898 <__global_pointer$+0x88>
   125c4:	08c1a683          	lw	a3,140(gp) # 2989c <__global_pointer$+0x8c>
   125c8:	008030ef          	jal	ra,155d0 <__adddf3>
   125cc:	00040613          	addi	a2,s0,0
   125d0:	00048693          	addi	a3,s1,0
   125d4:	034040ef          	jal	ra,16608 <__muldf3>
   125d8:	0901a603          	lw	a2,144(gp) # 298a0 <__global_pointer$+0x90>
   125dc:	0941a683          	lw	a3,148(gp) # 298a4 <__global_pointer$+0x94>
   125e0:	610040ef          	jal	ra,16bf0 <__subdf3>
   125e4:	00040613          	addi	a2,s0,0
   125e8:	00048693          	addi	a3,s1,0
   125ec:	01c040ef          	jal	ra,16608 <__muldf3>
   125f0:	0981a603          	lw	a2,152(gp) # 298a8 <__global_pointer$+0x98>
   125f4:	09c1a683          	lw	a3,156(gp) # 298ac <__global_pointer$+0x9c>
   125f8:	7d9020ef          	jal	ra,155d0 <__adddf3>
   125fc:	00040613          	addi	a2,s0,0
   12600:	00048693          	addi	a3,s1,0
   12604:	004040ef          	jal	ra,16608 <__muldf3>
   12608:	0a01a603          	lw	a2,160(gp) # 298b0 <__global_pointer$+0xa0>
   1260c:	0a41a683          	lw	a3,164(gp) # 298b4 <__global_pointer$+0xa4>
   12610:	5e0040ef          	jal	ra,16bf0 <__subdf3>
   12614:	00040613          	addi	a2,s0,0
   12618:	00048693          	addi	a3,s1,0
   1261c:	7ed030ef          	jal	ra,16608 <__muldf3>
   12620:	0a81a603          	lw	a2,168(gp) # 298b8 <__global_pointer$+0xa8>
   12624:	0ac1a683          	lw	a3,172(gp) # 298bc <__global_pointer$+0xac>
   12628:	7a9020ef          	jal	ra,155d0 <__adddf3>
   1262c:	00040613          	addi	a2,s0,0
   12630:	00048693          	addi	a3,s1,0
   12634:	7d5030ef          	jal	ra,16608 <__muldf3>
   12638:	0b01a603          	lw	a2,176(gp) # 298c0 <__global_pointer$+0xb0>
   1263c:	0b41a683          	lw	a3,180(gp) # 298c4 <__global_pointer$+0xb4>
   12640:	00050a13          	addi	s4,a0,0
   12644:	00058a93          	addi	s5,a1,0
   12648:	00040513          	addi	a0,s0,0
   1264c:	00048593          	addi	a1,s1,0
   12650:	7b9030ef          	jal	ra,16608 <__muldf3>
   12654:	0b81a603          	lw	a2,184(gp) # 298c8 <__global_pointer$+0xb8>
   12658:	0bc1a683          	lw	a3,188(gp) # 298cc <__global_pointer$+0xbc>
   1265c:	594040ef          	jal	ra,16bf0 <__subdf3>
   12660:	00040613          	addi	a2,s0,0
   12664:	00048693          	addi	a3,s1,0
   12668:	7a1030ef          	jal	ra,16608 <__muldf3>
   1266c:	0c01a603          	lw	a2,192(gp) # 298d0 <__global_pointer$+0xc0>
   12670:	0c41a683          	lw	a3,196(gp) # 298d4 <__global_pointer$+0xc4>
   12674:	75d020ef          	jal	ra,155d0 <__adddf3>
   12678:	00040613          	addi	a2,s0,0
   1267c:	00048693          	addi	a3,s1,0
   12680:	789030ef          	jal	ra,16608 <__muldf3>
   12684:	0c81a603          	lw	a2,200(gp) # 298d8 <__global_pointer$+0xc8>
   12688:	0cc1a683          	lw	a3,204(gp) # 298dc <__global_pointer$+0xcc>
   1268c:	564040ef          	jal	ra,16bf0 <__subdf3>
   12690:	00040613          	addi	a2,s0,0
   12694:	00048693          	addi	a3,s1,0
   12698:	771030ef          	jal	ra,16608 <__muldf3>
   1269c:	ec01a603          	lw	a2,-320(gp) # 296d0 <__SDATA_BEGIN__+0x18>
   126a0:	ec41a683          	lw	a3,-316(gp) # 296d4 <__SDATA_BEGIN__+0x1c>
   126a4:	72d020ef          	jal	ra,155d0 <__adddf3>
   126a8:	00050613          	addi	a2,a0,0
   126ac:	00058693          	addi	a3,a1,0
   126b0:	000a0513          	addi	a0,s4,0
   126b4:	000a8593          	addi	a1,s5,0
   126b8:	664030ef          	jal	ra,15d1c <__divdf3>
   126bc:	00098613          	addi	a2,s3,0
   126c0:	00090693          	addi	a3,s2,0
   126c4:	745030ef          	jal	ra,16608 <__muldf3>
   126c8:	00050a13          	addi	s4,a0,0
   126cc:	00058a93          	addi	s5,a1,0
   126d0:	00090693          	addi	a3,s2,0
   126d4:	00000613          	addi	a2,zero,0
   126d8:	00090593          	addi	a1,s2,0
   126dc:	00000513          	addi	a0,zero,0
   126e0:	729030ef          	jal	ra,16608 <__muldf3>
   126e4:	00050613          	addi	a2,a0,0
   126e8:	00058693          	addi	a3,a1,0
   126ec:	00040513          	addi	a0,s0,0
   126f0:	00048593          	addi	a1,s1,0
   126f4:	4fc040ef          	jal	ra,16bf0 <__subdf3>
   126f8:	00050413          	addi	s0,a0,0
   126fc:	00058493          	addi	s1,a1,0
   12700:	00090693          	addi	a3,s2,0
   12704:	00098513          	addi	a0,s3,0
   12708:	00000613          	addi	a2,zero,0
   1270c:	00090593          	addi	a1,s2,0
   12710:	6c1020ef          	jal	ra,155d0 <__adddf3>
   12714:	00050613          	addi	a2,a0,0
   12718:	00058693          	addi	a3,a1,0
   1271c:	00040513          	addi	a0,s0,0
   12720:	00048593          	addi	a1,s1,0
   12724:	5f8030ef          	jal	ra,15d1c <__divdf3>
   12728:	00050613          	addi	a2,a0,0
   1272c:	00058693          	addi	a3,a1,0
   12730:	000a0513          	addi	a0,s4,0
   12734:	000a8593          	addi	a1,s5,0
   12738:	699020ef          	jal	ra,155d0 <__adddf3>
   1273c:	00090693          	addi	a3,s2,0
   12740:	00000613          	addi	a2,zero,0
   12744:	68d020ef          	jal	ra,155d0 <__adddf3>
   12748:	00050613          	addi	a2,a0,0
   1274c:	00058693          	addi	a3,a1,0
   12750:	681020ef          	jal	ra,155d0 <__adddf3>
   12754:	02c12083          	lw	ra,44(sp)
   12758:	02812403          	lw	s0,40(sp)
   1275c:	00050713          	addi	a4,a0,0
   12760:	00058793          	addi	a5,a1,0
   12764:	02412483          	lw	s1,36(sp)
   12768:	02012903          	lw	s2,32(sp)
   1276c:	01c12983          	lw	s3,28(sp)
   12770:	01812a03          	lw	s4,24(sp)
   12774:	01412a83          	lw	s5,20(sp)
   12778:	00070513          	addi	a0,a4,0
   1277c:	00078593          	addi	a1,a5,0
   12780:	03010113          	addi	sp,sp,48
   12784:	00008067          	jalr	zero,0(ra)
   12788:	00050613          	addi	a2,a0,0
   1278c:	00058693          	addi	a3,a1,0
   12790:	460040ef          	jal	ra,16bf0 <__subdf3>
   12794:	00050613          	addi	a2,a0,0
   12798:	00058693          	addi	a3,a1,0
   1279c:	580030ef          	jal	ra,15d1c <__divdf3>
   127a0:	02c12083          	lw	ra,44(sp)
   127a4:	00050713          	addi	a4,a0,0
   127a8:	00058793          	addi	a5,a1,0
   127ac:	00070513          	addi	a0,a4,0
   127b0:	00078593          	addi	a1,a5,0
   127b4:	03010113          	addi	sp,sp,48
   127b8:	00008067          	jalr	zero,0(ra)
   127bc:	fa81a703          	lw	a4,-88(gp) # 297b8 <__SDATA_BEGIN__+0x100>
   127c0:	02c12083          	lw	ra,44(sp)
   127c4:	fac1a783          	lw	a5,-84(gp) # 297bc <__SDATA_BEGIN__+0x104>
   127c8:	00070513          	addi	a0,a4,0
   127cc:	00078593          	addi	a1,a5,0
   127d0:	03010113          	addi	sp,sp,48
   127d4:	00008067          	jalr	zero,0(ra)
   127d8:	0781a703          	lw	a4,120(gp) # 29888 <__global_pointer$+0x78>
   127dc:	02c12083          	lw	ra,44(sp)
   127e0:	07c1a783          	lw	a5,124(gp) # 2988c <__global_pointer$+0x7c>
   127e4:	00070513          	addi	a0,a4,0
   127e8:	00078593          	addi	a1,a5,0
   127ec:	03010113          	addi	sp,sp,48
   127f0:	00008067          	jalr	zero,0(ra)
   127f4:	ec01a603          	lw	a2,-320(gp) # 296d0 <__SDATA_BEGIN__+0x18>
   127f8:	ec41a683          	lw	a3,-316(gp) # 296d4 <__SDATA_BEGIN__+0x1c>
   127fc:	5d5020ef          	jal	ra,155d0 <__adddf3>
   12800:	0401a603          	lw	a2,64(gp) # 29850 <__global_pointer$+0x40>
   12804:	0441a683          	lw	a3,68(gp) # 29854 <__global_pointer$+0x44>
   12808:	601030ef          	jal	ra,16608 <__muldf3>
   1280c:	0801a603          	lw	a2,128(gp) # 29890 <__global_pointer$+0x80>
   12810:	0841a683          	lw	a3,132(gp) # 29894 <__global_pointer$+0x84>
   12814:	00050413          	addi	s0,a0,0
   12818:	00058493          	addi	s1,a1,0
   1281c:	5ed030ef          	jal	ra,16608 <__muldf3>
   12820:	0881a603          	lw	a2,136(gp) # 29898 <__global_pointer$+0x88>
   12824:	08c1a683          	lw	a3,140(gp) # 2989c <__global_pointer$+0x8c>
   12828:	5a9020ef          	jal	ra,155d0 <__adddf3>
   1282c:	00040613          	addi	a2,s0,0
   12830:	00048693          	addi	a3,s1,0
   12834:	5d5030ef          	jal	ra,16608 <__muldf3>
   12838:	0901a603          	lw	a2,144(gp) # 298a0 <__global_pointer$+0x90>
   1283c:	0941a683          	lw	a3,148(gp) # 298a4 <__global_pointer$+0x94>
   12840:	3b0040ef          	jal	ra,16bf0 <__subdf3>
   12844:	00040613          	addi	a2,s0,0
   12848:	00048693          	addi	a3,s1,0
   1284c:	5bd030ef          	jal	ra,16608 <__muldf3>
   12850:	0981a603          	lw	a2,152(gp) # 298a8 <__global_pointer$+0x98>
   12854:	09c1a683          	lw	a3,156(gp) # 298ac <__global_pointer$+0x9c>
   12858:	579020ef          	jal	ra,155d0 <__adddf3>
   1285c:	00040613          	addi	a2,s0,0
   12860:	00048693          	addi	a3,s1,0
   12864:	5a5030ef          	jal	ra,16608 <__muldf3>
   12868:	0a01a603          	lw	a2,160(gp) # 298b0 <__global_pointer$+0xa0>
   1286c:	0a41a683          	lw	a3,164(gp) # 298b4 <__global_pointer$+0xa4>
   12870:	380040ef          	jal	ra,16bf0 <__subdf3>
   12874:	00040613          	addi	a2,s0,0
   12878:	00048693          	addi	a3,s1,0
   1287c:	58d030ef          	jal	ra,16608 <__muldf3>
   12880:	0a81a603          	lw	a2,168(gp) # 298b8 <__global_pointer$+0xa8>
   12884:	0ac1a683          	lw	a3,172(gp) # 298bc <__global_pointer$+0xac>
   12888:	549020ef          	jal	ra,155d0 <__adddf3>
   1288c:	00040613          	addi	a2,s0,0
   12890:	00048693          	addi	a3,s1,0
   12894:	575030ef          	jal	ra,16608 <__muldf3>
   12898:	0b41a683          	lw	a3,180(gp) # 298c4 <__global_pointer$+0xb4>
   1289c:	0b01a603          	lw	a2,176(gp) # 298c0 <__global_pointer$+0xb0>
   128a0:	00050913          	addi	s2,a0,0
   128a4:	00058993          	addi	s3,a1,0
   128a8:	00040513          	addi	a0,s0,0
   128ac:	00048593          	addi	a1,s1,0
   128b0:	559030ef          	jal	ra,16608 <__muldf3>
   128b4:	0b81a603          	lw	a2,184(gp) # 298c8 <__global_pointer$+0xb8>
   128b8:	0bc1a683          	lw	a3,188(gp) # 298cc <__global_pointer$+0xbc>
   128bc:	334040ef          	jal	ra,16bf0 <__subdf3>
   128c0:	00040613          	addi	a2,s0,0
   128c4:	00048693          	addi	a3,s1,0
   128c8:	541030ef          	jal	ra,16608 <__muldf3>
   128cc:	0c01a603          	lw	a2,192(gp) # 298d0 <__global_pointer$+0xc0>
   128d0:	0c41a683          	lw	a3,196(gp) # 298d4 <__global_pointer$+0xc4>
   128d4:	4fd020ef          	jal	ra,155d0 <__adddf3>
   128d8:	00040613          	addi	a2,s0,0
   128dc:	00048693          	addi	a3,s1,0
   128e0:	529030ef          	jal	ra,16608 <__muldf3>
   128e4:	0c81a603          	lw	a2,200(gp) # 298d8 <__global_pointer$+0xc8>
   128e8:	0cc1a683          	lw	a3,204(gp) # 298dc <__global_pointer$+0xcc>
   128ec:	304040ef          	jal	ra,16bf0 <__subdf3>
   128f0:	00040613          	addi	a2,s0,0
   128f4:	00048693          	addi	a3,s1,0
   128f8:	511030ef          	jal	ra,16608 <__muldf3>
   128fc:	ec01a603          	lw	a2,-320(gp) # 296d0 <__SDATA_BEGIN__+0x18>
   12900:	ec41a683          	lw	a3,-316(gp) # 296d4 <__SDATA_BEGIN__+0x1c>
   12904:	4cd020ef          	jal	ra,155d0 <__adddf3>
   12908:	00a12023          	sw	a0,0(sp)
   1290c:	00b12223          	sw	a1,4(sp)
   12910:	00040513          	addi	a0,s0,0
   12914:	00048593          	addi	a1,s1,0
   12918:	8c4ff0ef          	jal	ra,119dc <__ieee754_sqrt>
   1291c:	00012603          	lw	a2,0(sp)
   12920:	00412683          	lw	a3,4(sp)
   12924:	00050413          	addi	s0,a0,0
   12928:	00058493          	addi	s1,a1,0
   1292c:	00090513          	addi	a0,s2,0
   12930:	00098593          	addi	a1,s3,0
   12934:	3e8030ef          	jal	ra,15d1c <__divdf3>
   12938:	00040613          	addi	a2,s0,0
   1293c:	00048693          	addi	a3,s1,0
   12940:	4c9030ef          	jal	ra,16608 <__muldf3>
   12944:	0d01a603          	lw	a2,208(gp) # 298e0 <__global_pointer$+0xd0>
   12948:	0d41a683          	lw	a3,212(gp) # 298e4 <__global_pointer$+0xd4>
   1294c:	2a4040ef          	jal	ra,16bf0 <__subdf3>
   12950:	00040613          	addi	a2,s0,0
   12954:	00048693          	addi	a3,s1,0
   12958:	479020ef          	jal	ra,155d0 <__adddf3>
   1295c:	00050613          	addi	a2,a0,0
   12960:	00058693          	addi	a3,a1,0
   12964:	46d020ef          	jal	ra,155d0 <__adddf3>
   12968:	00050613          	addi	a2,a0,0
   1296c:	00058693          	addi	a3,a1,0
   12970:	fa81a503          	lw	a0,-88(gp) # 297b8 <__SDATA_BEGIN__+0x100>
   12974:	fac1a583          	lw	a1,-84(gp) # 297bc <__SDATA_BEGIN__+0x104>
   12978:	bb5ff06f          	jal	zero,1252c <__ieee754_acos+0x1c8>

0001297c <__ieee754_pow>:
   1297c:	800007b7          	lui	a5,0x80000
   12980:	00068713          	addi	a4,a3,0 # 3c600000 <__BSS_END__+0x3c5d621c>
   12984:	fff78693          	addi	a3,a5,-1 # 7fffffff <__BSS_END__+0x7ffd621b>
   12988:	f9010113          	addi	sp,sp,-112
   1298c:	00d77eb3          	and	t4,a4,a3
   12990:	00060793          	addi	a5,a2,0
   12994:	06112623          	sw	ra,108(sp)
   12998:	01d66633          	or	a2,a2,t4
   1299c:	00050e13          	addi	t3,a0,0
   129a0:	00058893          	addi	a7,a1,0
   129a4:	04061263          	bne	a2,zero,129e8 <__ieee754_pow+0x6c>
   129a8:	000806b7          	lui	a3,0x80
   129ac:	00d5c6b3          	xor	a3,a1,a3
   129b0:	01f55613          	srli	a2,a0,0x1f
   129b4:	00169693          	slli	a3,a3,0x1
   129b8:	00d606b3          	add	a3,a2,a3
   129bc:	fff00637          	lui	a2,0xfff00
   129c0:	00151593          	slli	a1,a0,0x1
   129c4:	06d67063          	bgeu	a2,a3,12a24 <__ieee754_pow+0xa8>
   129c8:	00078613          	addi	a2,a5,0
   129cc:	000e0513          	addi	a0,t3,0
   129d0:	00070693          	addi	a3,a4,0
   129d4:	00088593          	addi	a1,a7,0
   129d8:	3f9020ef          	jal	ra,155d0 <__adddf3>
   129dc:	06c12083          	lw	ra,108(sp)
   129e0:	07010113          	addi	sp,sp,112
   129e4:	00008067          	jalr	zero,0(ra)
   129e8:	00d5f833          	and	a6,a1,a3
   129ec:	7ff006b7          	lui	a3,0x7ff00
   129f0:	0506f863          	bgeu	a3,a6,12a40 <__ieee754_pow+0xc4>
   129f4:	c01006b7          	lui	a3,0xc0100
   129f8:	00d886b3          	add	a3,a7,a3
   129fc:	01c6e6b3          	or	a3,a3,t3
   12a00:	fc0694e3          	bne	a3,zero,129c8 <__ieee754_pow+0x4c>
   12a04:	000806b7          	lui	a3,0x80
   12a08:	00d746b3          	xor	a3,a4,a3
   12a0c:	01f7d613          	srli	a2,a5,0x1f
   12a10:	00169693          	slli	a3,a3,0x1
   12a14:	00d606b3          	add	a3,a2,a3
   12a18:	fff00637          	lui	a2,0xfff00
   12a1c:	00179593          	slli	a1,a5,0x1
   12a20:	fad664e3          	bltu	a2,a3,129c8 <__ieee754_pow+0x4c>
   12a24:	00c69463          	bne	a3,a2,12a2c <__ieee754_pow+0xb0>
   12a28:	fa0590e3          	bne	a1,zero,129c8 <__ieee754_pow+0x4c>
   12a2c:	06c12083          	lw	ra,108(sp)
   12a30:	00000513          	addi	a0,zero,0
   12a34:	3ff005b7          	lui	a1,0x3ff00
   12a38:	07010113          	addi	sp,sp,112
   12a3c:	00008067          	jalr	zero,0(ra)
   12a40:	00d81463          	bne	a6,a3,12a48 <__ieee754_pow+0xcc>
   12a44:	f80512e3          	bne	a0,zero,129c8 <__ieee754_pow+0x4c>
   12a48:	7ff006b7          	lui	a3,0x7ff00
   12a4c:	fbd6e4e3          	bltu	a3,t4,129f4 <__ieee754_pow+0x78>
   12a50:	00de9463          	bne	t4,a3,12a58 <__ieee754_pow+0xdc>
   12a54:	fa0790e3          	bne	a5,zero,129f4 <__ieee754_pow+0x78>
   12a58:	00080f13          	addi	t5,a6,0 # 3e400000 <__BSS_END__+0x3e3d621c>
   12a5c:	0408c063          	blt	a7,zero,12a9c <__ieee754_pow+0x120>
   12a60:	1c079263          	bne	a5,zero,12c24 <__ieee754_pow+0x2a8>
   12a64:	7ff006b7          	lui	a3,0x7ff00
   12a68:	14de8663          	beq	t4,a3,12bb4 <__ieee754_pow+0x238>
   12a6c:	3ff006b7          	lui	a3,0x3ff00
   12a70:	00de8463          	beq	t4,a3,12a78 <__ieee754_pow+0xfc>
   12a74:	6cd0006f          	jal	zero,13940 <__ieee754_pow+0xfc4>
   12a78:	000e0513          	addi	a0,t3,0
   12a7c:	00088593          	addi	a1,a7,0
   12a80:	f4075ee3          	bge	a4,zero,129dc <__ieee754_pow+0x60>
   12a84:	ec01a503          	lw	a0,-320(gp) # 296d0 <__SDATA_BEGIN__+0x18>
   12a88:	ec41a583          	lw	a1,-316(gp) # 296d4 <__SDATA_BEGIN__+0x1c>
   12a8c:	000e0613          	addi	a2,t3,0
   12a90:	00088693          	addi	a3,a7,0
   12a94:	288030ef          	jal	ra,15d1c <__divdf3>
   12a98:	f45ff06f          	jal	zero,129dc <__ieee754_pow+0x60>
   12a9c:	434006b7          	lui	a3,0x43400
   12aa0:	20dee863          	bltu	t4,a3,12cb0 <__ieee754_pow+0x334>
   12aa4:	4a079ae3          	bne	a5,zero,13758 <__ieee754_pow+0xddc>
   12aa8:	7ff006b7          	lui	a3,0x7ff00
   12aac:	10de8463          	beq	t4,a3,12bb4 <__ieee754_pow+0x238>
   12ab0:	00200f93          	addi	t6,zero,2
   12ab4:	000e0513          	addi	a0,t3,0
   12ab8:	00088593          	addi	a1,a7,0
   12abc:	02e12223          	sw	a4,36(sp)
   12ac0:	02f12023          	sw	a5,32(sp)
   12ac4:	01f12e23          	sw	t6,28(sp)
   12ac8:	01012c23          	sw	a6,24(sp)
   12acc:	01d12a23          	sw	t4,20(sp)
   12ad0:	01e12823          	sw	t5,16(sp)
   12ad4:	01c12623          	sw	t3,12(sp)
   12ad8:	01112023          	sw	a7,0(sp)
   12adc:	a68ff0ef          	jal	ra,11d44 <fabs>
   12ae0:	00c12e03          	lw	t3,12(sp)
   12ae4:	00012883          	lw	a7,0(sp)
   12ae8:	01012f03          	lw	t5,16(sp)
   12aec:	01412e83          	lw	t4,20(sp)
   12af0:	01812803          	lw	a6,24(sp)
   12af4:	01c12f83          	lw	t6,28(sp)
   12af8:	02012783          	lw	a5,32(sp)
   12afc:	02412703          	lw	a4,36(sp)
   12b00:	220e0a63          	beq	t3,zero,12d34 <__ieee754_pow+0x3b8>
   12b04:	01f8d693          	srli	a3,a7,0x1f
   12b08:	fff68693          	addi	a3,a3,-1 # 7fefffff <__BSS_END__+0x7fed621b>
   12b0c:	01f6e633          	or	a2,a3,t6
   12b10:	2a060e63          	beq	a2,zero,12dcc <__ieee754_pow+0x450>
   12b14:	06812423          	sw	s0,104(sp)
   12b18:	06912223          	sw	s1,100(sp)
   12b1c:	07212023          	sw	s2,96(sp)
   12b20:	05312e23          	sw	s3,92(sp)
   12b24:	05412c23          	sw	s4,88(sp)
   12b28:	05512a23          	sw	s5,84(sp)
   12b2c:	05612823          	sw	s6,80(sp)
   12b30:	05712623          	sw	s7,76(sp)
   12b34:	05812423          	sw	s8,72(sp)
   12b38:	05912223          	sw	s9,68(sp)
   12b3c:	03b12e23          	sw	s11,60(sp)
   12b40:	ffff8613          	addi	a2,t6,-1
   12b44:	00d666b3          	or	a3,a2,a3
   12b48:	38068ae3          	beq	a3,zero,136dc <__ieee754_pow+0xd60>
   12b4c:	ec01a603          	lw	a2,-320(gp) # 296d0 <__SDATA_BEGIN__+0x18>
   12b50:	ec41a683          	lw	a3,-316(gp) # 296d4 <__SDATA_BEGIN__+0x1c>
   12b54:	00c12023          	sw	a2,0(sp)
   12b58:	00d12223          	sw	a3,4(sp)
   12b5c:	420006b7          	lui	a3,0x42000
   12b60:	27d6fe63          	bgeu	a3,t4,12ddc <__ieee754_pow+0x460>
   12b64:	43f006b7          	lui	a3,0x43f00
   12b68:	47d6fee3          	bgeu	a3,t4,137e4 <__ieee754_pow+0xe68>
   12b6c:	3ff007b7          	lui	a5,0x3ff00
   12b70:	06f87a63          	bgeu	a6,a5,12be4 <__ieee754_pow+0x268>
   12b74:	06074a63          	blt	a4,zero,12be8 <__ieee754_pow+0x26c>
   12b78:	00000513          	addi	a0,zero,0
   12b7c:	06812403          	lw	s0,104(sp)
   12b80:	06412483          	lw	s1,100(sp)
   12b84:	06012903          	lw	s2,96(sp)
   12b88:	05c12983          	lw	s3,92(sp)
   12b8c:	05812a03          	lw	s4,88(sp)
   12b90:	05412a83          	lw	s5,84(sp)
   12b94:	05012b03          	lw	s6,80(sp)
   12b98:	04c12b83          	lw	s7,76(sp)
   12b9c:	04812c03          	lw	s8,72(sp)
   12ba0:	04412c83          	lw	s9,68(sp)
   12ba4:	03c12d83          	lw	s11,60(sp)
   12ba8:	06c12083          	lw	ra,108(sp)
   12bac:	07010113          	addi	sp,sp,112
   12bb0:	0e90106f          	jal	zero,14498 <__math_uflow>
   12bb4:	c01007b7          	lui	a5,0xc0100
   12bb8:	00f807b3          	add	a5,a6,a5
   12bbc:	01c7e7b3          	or	a5,a5,t3
   12bc0:	e60786e3          	beq	a5,zero,12a2c <__ieee754_pow+0xb0>
   12bc4:	3ff007b7          	lui	a5,0x3ff00
   12bc8:	00f87463          	bgeu	a6,a5,12bd0 <__ieee754_pow+0x254>
   12bcc:	5a10006f          	jal	zero,1396c <__ieee754_pow+0xff0>
   12bd0:	fff74793          	xori	a5,a4,-1
   12bd4:	41f7d793          	srai	a5,a5,0x1f
   12bd8:	00f775b3          	and	a1,a4,a5
   12bdc:	00000513          	addi	a0,zero,0
   12be0:	dfdff06f          	jal	zero,129dc <__ieee754_pow+0x60>
   12be4:	f8e05ae3          	bge	zero,a4,12b78 <__ieee754_pow+0x1fc>
   12be8:	00000513          	addi	a0,zero,0
   12bec:	06812403          	lw	s0,104(sp)
   12bf0:	06412483          	lw	s1,100(sp)
   12bf4:	06012903          	lw	s2,96(sp)
   12bf8:	05c12983          	lw	s3,92(sp)
   12bfc:	05812a03          	lw	s4,88(sp)
   12c00:	05412a83          	lw	s5,84(sp)
   12c04:	05012b03          	lw	s6,80(sp)
   12c08:	04c12b83          	lw	s7,76(sp)
   12c0c:	04812c03          	lw	s8,72(sp)
   12c10:	04412c83          	lw	s9,68(sp)
   12c14:	03c12d83          	lw	s11,60(sp)
   12c18:	06c12083          	lw	ra,108(sp)
   12c1c:	07010113          	addi	sp,sp,112
   12c20:	0910106f          	jal	zero,144b0 <__math_oflow>
   12c24:	00000f93          	addi	t6,zero,0
   12c28:	000e0513          	addi	a0,t3,0
   12c2c:	00088593          	addi	a1,a7,0
   12c30:	02e12223          	sw	a4,36(sp)
   12c34:	02f12023          	sw	a5,32(sp)
   12c38:	01f12e23          	sw	t6,28(sp)
   12c3c:	01012c23          	sw	a6,24(sp)
   12c40:	01d12a23          	sw	t4,20(sp)
   12c44:	01e12823          	sw	t5,16(sp)
   12c48:	01c12623          	sw	t3,12(sp)
   12c4c:	01112023          	sw	a7,0(sp)
   12c50:	8f4ff0ef          	jal	ra,11d44 <fabs>
   12c54:	00c12e03          	lw	t3,12(sp)
   12c58:	00012883          	lw	a7,0(sp)
   12c5c:	01012f03          	lw	t5,16(sp)
   12c60:	01412e83          	lw	t4,20(sp)
   12c64:	01812803          	lw	a6,24(sp)
   12c68:	01c12f83          	lw	t6,28(sp)
   12c6c:	02012783          	lw	a5,32(sp)
   12c70:	02412703          	lw	a4,36(sp)
   12c74:	0c0e0063          	beq	t3,zero,12d34 <__ieee754_pow+0x3b8>
   12c78:	01f8d693          	srli	a3,a7,0x1f
   12c7c:	06812423          	sw	s0,104(sp)
   12c80:	06912223          	sw	s1,100(sp)
   12c84:	07212023          	sw	s2,96(sp)
   12c88:	05312e23          	sw	s3,92(sp)
   12c8c:	05412c23          	sw	s4,88(sp)
   12c90:	05512a23          	sw	s5,84(sp)
   12c94:	05612823          	sw	s6,80(sp)
   12c98:	05712623          	sw	s7,76(sp)
   12c9c:	05812423          	sw	s8,72(sp)
   12ca0:	05912223          	sw	s9,68(sp)
   12ca4:	03b12e23          	sw	s11,60(sp)
   12ca8:	fff68693          	addi	a3,a3,-1 # 43efffff <__BSS_END__+0x43ed621b>
   12cac:	e95ff06f          	jal	zero,12b40 <__ieee754_pow+0x1c4>
   12cb0:	3ff006b7          	lui	a3,0x3ff00
   12cb4:	02dee463          	bltu	t4,a3,12cdc <__ieee754_pow+0x360>
   12cb8:	414ed613          	srai	a2,t4,0x14
   12cbc:	c0160613          	addi	a2,a2,-1023 # ffeffc01 <__BSS_END__+0xffed5e1d>
   12cc0:	01400593          	addi	a1,zero,20
   12cc4:	4cc5d2e3          	bge	a1,a2,13988 <__ieee754_pow+0x100c>
   12cc8:	03400693          	addi	a3,zero,52
   12ccc:	40c686b3          	sub	a3,a3,a2
   12cd0:	00d7d633          	srl	a2,a5,a3
   12cd4:	00d616b3          	sll	a3,a2,a3
   12cd8:	0ef68063          	beq	a3,a5,12db8 <__ieee754_pow+0x43c>
   12cdc:	280792e3          	bne	a5,zero,13760 <__ieee754_pow+0xde4>
   12ce0:	400006b7          	lui	a3,0x40000
   12ce4:	50d700e3          	beq	a4,a3,139e4 <__ieee754_pow+0x1068>
   12ce8:	000e0513          	addi	a0,t3,0
   12cec:	00088593          	addi	a1,a7,0
   12cf0:	02e12023          	sw	a4,32(sp)
   12cf4:	00f12e23          	sw	a5,28(sp)
   12cf8:	01012c23          	sw	a6,24(sp)
   12cfc:	01d12a23          	sw	t4,20(sp)
   12d00:	01e12823          	sw	t5,16(sp)
   12d04:	01c12623          	sw	t3,12(sp)
   12d08:	01112023          	sw	a7,0(sp)
   12d0c:	838ff0ef          	jal	ra,11d44 <fabs>
   12d10:	00c12e03          	lw	t3,12(sp)
   12d14:	00012883          	lw	a7,0(sp)
   12d18:	01012f03          	lw	t5,16(sp)
   12d1c:	01412e83          	lw	t4,20(sp)
   12d20:	01812803          	lw	a6,24(sp)
   12d24:	01c12783          	lw	a5,28(sp)
   12d28:	02012703          	lw	a4,32(sp)
   12d2c:	0a0e1063          	bne	t3,zero,12dcc <__ieee754_pow+0x450>
   12d30:	00000f93          	addi	t6,zero,0
   12d34:	c0000637          	lui	a2,0xc0000
   12d38:	00c8e6b3          	or	a3,a7,a2
   12d3c:	fff00637          	lui	a2,0xfff00
   12d40:	40c686b3          	sub	a3,a3,a2
   12d44:	00068463          	beq	a3,zero,12d4c <__ieee754_pow+0x3d0>
   12d48:	da081ee3          	bne	a6,zero,12b04 <__ieee754_pow+0x188>
   12d4c:	02074e63          	blt	a4,zero,12d88 <__ieee754_pow+0x40c>
   12d50:	c808d6e3          	bge	a7,zero,129dc <__ieee754_pow+0x60>
   12d54:	c01007b7          	lui	a5,0xc0100
   12d58:	00f807b3          	add	a5,a6,a5
   12d5c:	01f7e7b3          	or	a5,a5,t6
   12d60:	4e0790e3          	bne	a5,zero,13a40 <__ieee754_pow+0x10c4>
   12d64:	00050613          	addi	a2,a0,0
   12d68:	00058693          	addi	a3,a1,0 # 3ff00000 <__BSS_END__+0x3fed621c>
   12d6c:	00058893          	addi	a7,a1,0
   12d70:	00088593          	addi	a1,a7,0
   12d74:	67d030ef          	jal	ra,16bf0 <__subdf3>
   12d78:	00050613          	addi	a2,a0,0
   12d7c:	00058693          	addi	a3,a1,0
   12d80:	79d020ef          	jal	ra,15d1c <__divdf3>
   12d84:	c59ff06f          	jal	zero,129dc <__ieee754_pow+0x60>
   12d88:	00050613          	addi	a2,a0,0
   12d8c:	00058693          	addi	a3,a1,0
   12d90:	ec01a503          	lw	a0,-320(gp) # 296d0 <__SDATA_BEGIN__+0x18>
   12d94:	ec41a583          	lw	a1,-316(gp) # 296d4 <__SDATA_BEGIN__+0x1c>
   12d98:	01112823          	sw	a7,16(sp)
   12d9c:	01f12623          	sw	t6,12(sp)
   12da0:	01012023          	sw	a6,0(sp)
   12da4:	779020ef          	jal	ra,15d1c <__divdf3>
   12da8:	01012883          	lw	a7,16(sp)
   12dac:	00c12f83          	lw	t6,12(sp)
   12db0:	00012803          	lw	a6,0(sp)
   12db4:	f9dff06f          	jal	zero,12d50 <__ieee754_pow+0x3d4>
   12db8:	420780e3          	beq	a5,zero,139d8 <__ieee754_pow+0x105c>
   12dbc:	00167693          	andi	a3,a2,1
   12dc0:	00200613          	addi	a2,zero,2
   12dc4:	40d60fb3          	sub	t6,a2,a3
   12dc8:	e61ff06f          	jal	zero,12c28 <__ieee754_pow+0x2ac>
   12dcc:	000e0613          	addi	a2,t3,0
   12dd0:	000e0513          	addi	a0,t3,0
   12dd4:	00088693          	addi	a3,a7,0
   12dd8:	f99ff06f          	jal	zero,12d70 <__ieee754_pow+0x3f4>
   12ddc:	0148d693          	srli	a3,a7,0x14
   12de0:	05a12023          	sw	s10,64(sp)
   12de4:	7ff6f693          	andi	a3,a3,2047
   12de8:	00000313          	addi	t1,zero,0
   12dec:	02069463          	bne	a3,zero,12e14 <__ieee754_pow+0x498>
   12df0:	1081a603          	lw	a2,264(gp) # 29918 <__global_pointer$+0x108>
   12df4:	10c1a683          	lw	a3,268(gp) # 2991c <__global_pointer$+0x10c>
   12df8:	00e12823          	sw	a4,16(sp)
   12dfc:	00f12623          	sw	a5,12(sp)
   12e00:	009030ef          	jal	ra,16608 <__muldf3>
   12e04:	00c12783          	lw	a5,12(sp)
   12e08:	01012703          	lw	a4,16(sp)
   12e0c:	00058f13          	addi	t5,a1,0
   12e10:	fcb00313          	addi	t1,zero,-53
   12e14:	001008b7          	lui	a7,0x100
   12e18:	414f5813          	srai	a6,t5,0x14
   12e1c:	fff88693          	addi	a3,a7,-1 # fffff <__BSS_END__+0xd621b>
   12e20:	0003a5b7          	lui	a1,0x3a
   12e24:	00df76b3          	and	a3,t5,a3
   12e28:	c0180813          	addi	a6,a6,-1023
   12e2c:	3ff00637          	lui	a2,0x3ff00
   12e30:	88e58593          	addi	a1,a1,-1906 # 3988e <__BSS_END__+0xfaaa>
   12e34:	00680f33          	add	t5,a6,t1
   12e38:	00c6e633          	or	a2,a3,a2
   12e3c:	18d5dee3          	bge	a1,a3,137d8 <__ieee754_pow+0xe5c>
   12e40:	000bb5b7          	lui	a1,0xbb
   12e44:	67958593          	addi	a1,a1,1657 # bb679 <__BSS_END__+0x91895>
   12e48:	3ad5dae3          	bge	a1,a3,139fc <__ieee754_pow+0x1080>
   12e4c:	41160633          	sub	a2,a2,a7
   12e50:	02012423          	sw	zero,40(sp)
   12e54:	02012623          	sw	zero,44(sp)
   12e58:	001f0f13          	addi	t5,t5,1
   12e5c:	ec01a803          	lw	a6,-320(gp) # 296d0 <__SDATA_BEGIN__+0x18>
   12e60:	ec41a883          	lw	a7,-316(gp) # 296d4 <__SDATA_BEGIN__+0x1c>
   12e64:	02012023          	sw	zero,32(sp)
   12e68:	02012223          	sw	zero,36(sp)
   12e6c:	00000c93          	addi	s9,zero,0
   12e70:	00088693          	addi	a3,a7,0
   12e74:	00060413          	addi	s0,a2,0 # 3ff00000 <__BSS_END__+0x3fed621c>
   12e78:	00060913          	addi	s2,a2,0
   12e7c:	00060593          	addi	a1,a2,0
   12e80:	00080613          	addi	a2,a6,0
   12e84:	00088a13          	addi	s4,a7,0
   12e88:	00e12e23          	sw	a4,28(sp)
   12e8c:	00f12c23          	sw	a5,24(sp)
   12e90:	01e12a23          	sw	t5,20(sp)
   12e94:	00080993          	addi	s3,a6,0
   12e98:	00a12623          	sw	a0,12(sp)
   12e9c:	555030ef          	jal	ra,16bf0 <__subdf3>
   12ea0:	00c12303          	lw	t1,12(sp)
   12ea4:	00050a93          	addi	s5,a0,0
   12ea8:	00058b13          	addi	s6,a1,0
   12eac:	00030513          	addi	a0,t1,0 # 10978 <frame_dummy+0x14>
   12eb0:	00098613          	addi	a2,s3,0
   12eb4:	000a0693          	addi	a3,s4,0
   12eb8:	00040593          	addi	a1,s0,0
   12ebc:	00612823          	sw	t1,16(sp)
   12ec0:	710020ef          	jal	ra,155d0 <__adddf3>
   12ec4:	00050613          	addi	a2,a0,0
   12ec8:	00058693          	addi	a3,a1,0
   12ecc:	ec01a503          	lw	a0,-320(gp) # 296d0 <__SDATA_BEGIN__+0x18>
   12ed0:	ec41a583          	lw	a1,-316(gp) # 296d4 <__SDATA_BEGIN__+0x1c>
   12ed4:	649020ef          	jal	ra,15d1c <__divdf3>
   12ed8:	00050b93          	addi	s7,a0,0
   12edc:	00058c13          	addi	s8,a1,0
   12ee0:	00050613          	addi	a2,a0,0
   12ee4:	00058693          	addi	a3,a1,0
   12ee8:	000a8513          	addi	a0,s5,0
   12eec:	000b0593          	addi	a1,s6,0
   12ef0:	718030ef          	jal	ra,16608 <__muldf3>
   12ef4:	40145e13          	srai	t3,s0,0x1
   12ef8:	200006b7          	lui	a3,0x20000
   12efc:	00de6e33          	or	t3,t3,a3
   12f00:	000806b7          	lui	a3,0x80
   12f04:	00de0e33          	add	t3,t3,a3
   12f08:	019e0e33          	add	t3,t3,s9
   12f0c:	00000813          	addi	a6,zero,0
   12f10:	000e0693          	addi	a3,t3,0
   12f14:	00050493          	addi	s1,a0,0
   12f18:	00000613          	addi	a2,zero,0
   12f1c:	00080513          	addi	a0,a6,0
   12f20:	01c12623          	sw	t3,12(sp)
   12f24:	00058413          	addi	s0,a1,0
   12f28:	6e0030ef          	jal	ra,16608 <__muldf3>
   12f2c:	00050613          	addi	a2,a0,0
   12f30:	00058693          	addi	a3,a1,0
   12f34:	000a8513          	addi	a0,s5,0
   12f38:	000b0593          	addi	a1,s6,0
   12f3c:	4b5030ef          	jal	ra,16bf0 <__subdf3>
   12f40:	00058b13          	addi	s6,a1,0
   12f44:	00c12583          	lw	a1,12(sp)
   12f48:	00050a93          	addi	s5,a0,0
   12f4c:	00098613          	addi	a2,s3,0
   12f50:	000a0693          	addi	a3,s4,0
   12f54:	00000513          	addi	a0,zero,0
   12f58:	499030ef          	jal	ra,16bf0 <__subdf3>
   12f5c:	00050613          	addi	a2,a0,0
   12f60:	01012503          	lw	a0,16(sp)
   12f64:	00058693          	addi	a3,a1,0
   12f68:	00090593          	addi	a1,s2,0
   12f6c:	485030ef          	jal	ra,16bf0 <__subdf3>
   12f70:	00040693          	addi	a3,s0,0
   12f74:	00000613          	addi	a2,zero,0
   12f78:	690030ef          	jal	ra,16608 <__muldf3>
   12f7c:	00050613          	addi	a2,a0,0
   12f80:	00058693          	addi	a3,a1,0
   12f84:	000a8513          	addi	a0,s5,0
   12f88:	000b0593          	addi	a1,s6,0
   12f8c:	465030ef          	jal	ra,16bf0 <__subdf3>
   12f90:	000b8613          	addi	a2,s7,0
   12f94:	000c0693          	addi	a3,s8,0
   12f98:	670030ef          	jal	ra,16608 <__muldf3>
   12f9c:	00050b93          	addi	s7,a0,0
   12fa0:	00058c13          	addi	s8,a1,0
   12fa4:	00048613          	addi	a2,s1,0
   12fa8:	00040693          	addi	a3,s0,0
   12fac:	00048513          	addi	a0,s1,0
   12fb0:	00040593          	addi	a1,s0,0
   12fb4:	654030ef          	jal	ra,16608 <__muldf3>
   12fb8:	1101a603          	lw	a2,272(gp) # 29920 <__global_pointer$+0x110>
   12fbc:	1141a683          	lw	a3,276(gp) # 29924 <__global_pointer$+0x114>
   12fc0:	00050913          	addi	s2,a0,0
   12fc4:	00058993          	addi	s3,a1,0
   12fc8:	640030ef          	jal	ra,16608 <__muldf3>
   12fcc:	1181a603          	lw	a2,280(gp) # 29928 <__global_pointer$+0x118>
   12fd0:	11c1a683          	lw	a3,284(gp) # 2992c <__global_pointer$+0x11c>
   12fd4:	5fc020ef          	jal	ra,155d0 <__adddf3>
   12fd8:	00090613          	addi	a2,s2,0
   12fdc:	00098693          	addi	a3,s3,0
   12fe0:	628030ef          	jal	ra,16608 <__muldf3>
   12fe4:	1201a603          	lw	a2,288(gp) # 29930 <__global_pointer$+0x120>
   12fe8:	1241a683          	lw	a3,292(gp) # 29934 <__global_pointer$+0x124>
   12fec:	5e4020ef          	jal	ra,155d0 <__adddf3>
   12ff0:	00090613          	addi	a2,s2,0
   12ff4:	00098693          	addi	a3,s3,0
   12ff8:	610030ef          	jal	ra,16608 <__muldf3>
   12ffc:	1281a603          	lw	a2,296(gp) # 29938 <__global_pointer$+0x128>
   13000:	12c1a683          	lw	a3,300(gp) # 2993c <__global_pointer$+0x12c>
   13004:	5cc020ef          	jal	ra,155d0 <__adddf3>
   13008:	00090613          	addi	a2,s2,0
   1300c:	00098693          	addi	a3,s3,0
   13010:	5f8030ef          	jal	ra,16608 <__muldf3>
   13014:	1301a603          	lw	a2,304(gp) # 29940 <__global_pointer$+0x130>
   13018:	1341a683          	lw	a3,308(gp) # 29944 <__global_pointer$+0x134>
   1301c:	5b4020ef          	jal	ra,155d0 <__adddf3>
   13020:	00090613          	addi	a2,s2,0
   13024:	00098693          	addi	a3,s3,0
   13028:	5e0030ef          	jal	ra,16608 <__muldf3>
   1302c:	1381a603          	lw	a2,312(gp) # 29948 <__global_pointer$+0x138>
   13030:	13c1a683          	lw	a3,316(gp) # 2994c <__global_pointer$+0x13c>
   13034:	59c020ef          	jal	ra,155d0 <__adddf3>
   13038:	00050a13          	addi	s4,a0,0
   1303c:	00058a93          	addi	s5,a1,0
   13040:	00090613          	addi	a2,s2,0
   13044:	00098693          	addi	a3,s3,0
   13048:	00090513          	addi	a0,s2,0
   1304c:	00098593          	addi	a1,s3,0
   13050:	5b8030ef          	jal	ra,16608 <__muldf3>
   13054:	00050613          	addi	a2,a0,0
   13058:	00058693          	addi	a3,a1,0
   1305c:	000a0513          	addi	a0,s4,0
   13060:	000a8593          	addi	a1,s5,0
   13064:	5a4030ef          	jal	ra,16608 <__muldf3>
   13068:	00050993          	addi	s3,a0,0
   1306c:	00058a13          	addi	s4,a1,0
   13070:	00040693          	addi	a3,s0,0
   13074:	00000613          	addi	a2,zero,0
   13078:	00048513          	addi	a0,s1,0
   1307c:	00040593          	addi	a1,s0,0
   13080:	550020ef          	jal	ra,155d0 <__adddf3>
   13084:	000b8613          	addi	a2,s7,0
   13088:	000c0693          	addi	a3,s8,0
   1308c:	57c030ef          	jal	ra,16608 <__muldf3>
   13090:	00098613          	addi	a2,s3,0
   13094:	000a0693          	addi	a3,s4,0
   13098:	538020ef          	jal	ra,155d0 <__adddf3>
   1309c:	00050a93          	addi	s5,a0,0
   130a0:	00058b13          	addi	s6,a1,0
   130a4:	00040693          	addi	a3,s0,0
   130a8:	00000613          	addi	a2,zero,0
   130ac:	00040593          	addi	a1,s0,0
   130b0:	00000513          	addi	a0,zero,0
   130b4:	554030ef          	jal	ra,16608 <__muldf3>
   130b8:	f281a603          	lw	a2,-216(gp) # 29738 <__SDATA_BEGIN__+0x80>
   130bc:	f2c1a683          	lw	a3,-212(gp) # 2973c <__SDATA_BEGIN__+0x84>
   130c0:	00050c93          	addi	s9,a0,0
   130c4:	00058d13          	addi	s10,a1,0
   130c8:	508020ef          	jal	ra,155d0 <__adddf3>
   130cc:	000a8613          	addi	a2,s5,0
   130d0:	000b0693          	addi	a3,s6,0
   130d4:	4fc020ef          	jal	ra,155d0 <__adddf3>
   130d8:	00058813          	addi	a6,a1,0
   130dc:	00080693          	addi	a3,a6,0
   130e0:	00040593          	addi	a1,s0,0
   130e4:	00000613          	addi	a2,zero,0
   130e8:	00000513          	addi	a0,zero,0
   130ec:	01012623          	sw	a6,12(sp)
   130f0:	518030ef          	jal	ra,16608 <__muldf3>
   130f4:	f281a603          	lw	a2,-216(gp) # 29738 <__SDATA_BEGIN__+0x80>
   130f8:	f2c1a683          	lw	a3,-212(gp) # 2973c <__SDATA_BEGIN__+0x84>
   130fc:	00058a13          	addi	s4,a1,0
   13100:	00c12583          	lw	a1,12(sp)
   13104:	00050993          	addi	s3,a0,0
   13108:	00000513          	addi	a0,zero,0
   1310c:	2e5030ef          	jal	ra,16bf0 <__subdf3>
   13110:	000c8613          	addi	a2,s9,0
   13114:	000d0693          	addi	a3,s10,0
   13118:	2d9030ef          	jal	ra,16bf0 <__subdf3>
   1311c:	00050613          	addi	a2,a0,0
   13120:	00058693          	addi	a3,a1,0
   13124:	000a8513          	addi	a0,s5,0
   13128:	000b0593          	addi	a1,s6,0
   1312c:	2c5030ef          	jal	ra,16bf0 <__subdf3>
   13130:	00048613          	addi	a2,s1,0
   13134:	00040693          	addi	a3,s0,0
   13138:	4d0030ef          	jal	ra,16608 <__muldf3>
   1313c:	00c12683          	lw	a3,12(sp)
   13140:	00050413          	addi	s0,a0,0
   13144:	00058493          	addi	s1,a1,0
   13148:	00000613          	addi	a2,zero,0
   1314c:	000b8513          	addi	a0,s7,0
   13150:	000c0593          	addi	a1,s8,0
   13154:	4b4030ef          	jal	ra,16608 <__muldf3>
   13158:	00050613          	addi	a2,a0,0
   1315c:	00058693          	addi	a3,a1,0
   13160:	00040513          	addi	a0,s0,0
   13164:	00048593          	addi	a1,s1,0
   13168:	468020ef          	jal	ra,155d0 <__adddf3>
   1316c:	00050a93          	addi	s5,a0,0
   13170:	00058b13          	addi	s6,a1,0
   13174:	00050613          	addi	a2,a0,0
   13178:	00058693          	addi	a3,a1,0
   1317c:	00098513          	addi	a0,s3,0
   13180:	000a0593          	addi	a1,s4,0
   13184:	44c020ef          	jal	ra,155d0 <__adddf3>
   13188:	1401a603          	lw	a2,320(gp) # 29950 <__global_pointer$+0x140>
   1318c:	1441a683          	lw	a3,324(gp) # 29954 <__global_pointer$+0x144>
   13190:	00000513          	addi	a0,zero,0
   13194:	00b12623          	sw	a1,12(sp)
   13198:	470030ef          	jal	ra,16608 <__muldf3>
   1319c:	00098413          	addi	s0,s3,0
   131a0:	00058993          	addi	s3,a1,0
   131a4:	00c12583          	lw	a1,12(sp)
   131a8:	00050913          	addi	s2,a0,0
   131ac:	00040613          	addi	a2,s0,0
   131b0:	000a0693          	addi	a3,s4,0
   131b4:	00000513          	addi	a0,zero,0
   131b8:	239030ef          	jal	ra,16bf0 <__subdf3>
   131bc:	00050613          	addi	a2,a0,0
   131c0:	00058693          	addi	a3,a1,0
   131c4:	000a8513          	addi	a0,s5,0
   131c8:	000b0593          	addi	a1,s6,0
   131cc:	225030ef          	jal	ra,16bf0 <__subdf3>
   131d0:	1481a603          	lw	a2,328(gp) # 29958 <__global_pointer$+0x148>
   131d4:	14c1a683          	lw	a3,332(gp) # 2995c <__global_pointer$+0x14c>
   131d8:	00090a13          	addi	s4,s2,0
   131dc:	00098a93          	addi	s5,s3,0
   131e0:	428030ef          	jal	ra,16608 <__muldf3>
   131e4:	1501a603          	lw	a2,336(gp) # 29960 <__global_pointer$+0x150>
   131e8:	00058493          	addi	s1,a1,0
   131ec:	1541a683          	lw	a3,340(gp) # 29964 <__global_pointer$+0x154>
   131f0:	00c12583          	lw	a1,12(sp)
   131f4:	00050413          	addi	s0,a0,0
   131f8:	00000513          	addi	a0,zero,0
   131fc:	40c030ef          	jal	ra,16608 <__muldf3>
   13200:	00050613          	addi	a2,a0,0
   13204:	00058693          	addi	a3,a1,0
   13208:	00040513          	addi	a0,s0,0
   1320c:	00048593          	addi	a1,s1,0
   13210:	3c0020ef          	jal	ra,155d0 <__adddf3>
   13214:	02012603          	lw	a2,32(sp)
   13218:	02412683          	lw	a3,36(sp)
   1321c:	3b4020ef          	jal	ra,155d0 <__adddf3>
   13220:	00050b13          	addi	s6,a0,0
   13224:	01412503          	lw	a0,20(sp)
   13228:	00058b93          	addi	s7,a1,0
   1322c:	1e8040ef          	jal	ra,17414 <__floatsidf>
   13230:	00050413          	addi	s0,a0,0
   13234:	00058493          	addi	s1,a1,0
   13238:	000b0613          	addi	a2,s6,0
   1323c:	000b8693          	addi	a3,s7,0
   13240:	00090513          	addi	a0,s2,0
   13244:	00098593          	addi	a1,s3,0
   13248:	388020ef          	jal	ra,155d0 <__adddf3>
   1324c:	02812983          	lw	s3,40(sp)
   13250:	02c12903          	lw	s2,44(sp)
   13254:	00098613          	addi	a2,s3,0
   13258:	00090693          	addi	a3,s2,0
   1325c:	374020ef          	jal	ra,155d0 <__adddf3>
   13260:	00040613          	addi	a2,s0,0
   13264:	00048693          	addi	a3,s1,0
   13268:	368020ef          	jal	ra,155d0 <__adddf3>
   1326c:	00000313          	addi	t1,zero,0
   13270:	00040613          	addi	a2,s0,0
   13274:	00048693          	addi	a3,s1,0
   13278:	00000513          	addi	a0,zero,0
   1327c:	00030c13          	addi	s8,t1,0
   13280:	00058c93          	addi	s9,a1,0
   13284:	16d030ef          	jal	ra,16bf0 <__subdf3>
   13288:	00098613          	addi	a2,s3,0
   1328c:	00090693          	addi	a3,s2,0
   13290:	161030ef          	jal	ra,16bf0 <__subdf3>
   13294:	000a0613          	addi	a2,s4,0
   13298:	000a8693          	addi	a3,s5,0
   1329c:	155030ef          	jal	ra,16bf0 <__subdf3>
   132a0:	00050613          	addi	a2,a0,0
   132a4:	00058693          	addi	a3,a1,0
   132a8:	000b0513          	addi	a0,s6,0
   132ac:	000b8593          	addi	a1,s7,0
   132b0:	141030ef          	jal	ra,16bf0 <__subdf3>
   132b4:	01c12703          	lw	a4,28(sp)
   132b8:	01812783          	lw	a5,24(sp)
   132bc:	04012d03          	lw	s10,64(sp)
   132c0:	00050313          	addi	t1,a0,0
   132c4:	00058893          	addi	a7,a1,0
   132c8:	00070693          	addi	a3,a4,0
   132cc:	00070593          	addi	a1,a4,0
   132d0:	00078513          	addi	a0,a5,0 # c0100000 <__BSS_END__+0xc00d621c>
   132d4:	00000613          	addi	a2,zero,0
   132d8:	01112c23          	sw	a7,24(sp)
   132dc:	00e12623          	sw	a4,12(sp)
   132e0:	00612a23          	sw	t1,20(sp)
   132e4:	00f12823          	sw	a5,16(sp)
   132e8:	109030ef          	jal	ra,16bf0 <__subdf3>
   132ec:	000c0613          	addi	a2,s8,0
   132f0:	000c8693          	addi	a3,s9,0
   132f4:	314030ef          	jal	ra,16608 <__muldf3>
   132f8:	00050413          	addi	s0,a0,0
   132fc:	00058493          	addi	s1,a1,0
   13300:	01012603          	lw	a2,16(sp)
   13304:	00c12683          	lw	a3,12(sp)
   13308:	01412503          	lw	a0,20(sp)
   1330c:	01812583          	lw	a1,24(sp)
   13310:	2f8030ef          	jal	ra,16608 <__muldf3>
   13314:	00050613          	addi	a2,a0,0
   13318:	00058693          	addi	a3,a1,0
   1331c:	00040513          	addi	a0,s0,0
   13320:	00048593          	addi	a1,s1,0
   13324:	2ac020ef          	jal	ra,155d0 <__adddf3>
   13328:	00c12683          	lw	a3,12(sp)
   1332c:	00050413          	addi	s0,a0,0
   13330:	00058493          	addi	s1,a1,0
   13334:	00000613          	addi	a2,zero,0
   13338:	00050a13          	addi	s4,a0,0
   1333c:	00058a93          	addi	s5,a1,0
   13340:	000c0513          	addi	a0,s8,0
   13344:	000c8593          	addi	a1,s9,0
   13348:	2c0030ef          	jal	ra,16608 <__muldf3>
   1334c:	00050613          	addi	a2,a0,0
   13350:	00058693          	addi	a3,a1,0
   13354:	00050913          	addi	s2,a0,0
   13358:	00058993          	addi	s3,a1,0
   1335c:	00040513          	addi	a0,s0,0
   13360:	00048593          	addi	a1,s1,0
   13364:	26c020ef          	jal	ra,155d0 <__adddf3>
   13368:	40900737          	lui	a4,0x40900
   1336c:	00058813          	addi	a6,a1,0
   13370:	00058893          	addi	a7,a1,0
   13374:	36e5ce63          	blt	a1,a4,136f0 <__ieee754_pow+0xd74>
   13378:	40e58733          	sub	a4,a1,a4
   1337c:	00a76733          	or	a4,a4,a0
   13380:	34071063          	bne	a4,zero,136c0 <__ieee754_pow+0xd44>
   13384:	1581a603          	lw	a2,344(gp) # 29968 <__global_pointer$+0x158>
   13388:	15c1a683          	lw	a3,348(gp) # 2996c <__global_pointer$+0x15c>
   1338c:	00b12a23          	sw	a1,20(sp)
   13390:	00a12823          	sw	a0,16(sp)
   13394:	00b12623          	sw	a1,12(sp)
   13398:	00040513          	addi	a0,s0,0
   1339c:	00048593          	addi	a1,s1,0
   133a0:	230020ef          	jal	ra,155d0 <__adddf3>
   133a4:	00050413          	addi	s0,a0,0
   133a8:	00058493          	addi	s1,a1,0
   133ac:	01012503          	lw	a0,16(sp)
   133b0:	01412583          	lw	a1,20(sp)
   133b4:	00090613          	addi	a2,s2,0
   133b8:	00098693          	addi	a3,s3,0
   133bc:	035030ef          	jal	ra,16bf0 <__subdf3>
   133c0:	00050613          	addi	a2,a0,0
   133c4:	00058693          	addi	a3,a1,0
   133c8:	00040513          	addi	a0,s0,0
   133cc:	00048593          	addi	a1,s1,0
   133d0:	088030ef          	jal	ra,16458 <__gedf2>
   133d4:	00c12883          	lw	a7,12(sp)
   133d8:	2ea04463          	blt	zero,a0,136c0 <__ieee754_pow+0xd44>
   133dc:	20000793          	addi	a5,zero,512
   133e0:	00f887b3          	add	a5,a7,a5
   133e4:	4147d713          	srai	a4,a5,0x14
   133e8:	7ff77713          	andi	a4,a4,2047
   133ec:	c0170713          	addi	a4,a4,-1023 # 408ffc01 <__BSS_END__+0x408d5e1d>
   133f0:	fff005b7          	lui	a1,0xfff00
   133f4:	40e5d5b3          	sra	a1,a1,a4
   133f8:	00100537          	lui	a0,0x100
   133fc:	00f5f6b3          	and	a3,a1,a5
   13400:	01400593          	addi	a1,zero,20
   13404:	40e58733          	sub	a4,a1,a4
   13408:	fff50593          	addi	a1,a0,-1 # fffff <__BSS_END__+0xd621b>
   1340c:	00b7f7b3          	and	a5,a5,a1
   13410:	00a7e7b3          	or	a5,a5,a0
   13414:	40e7d7b3          	sra	a5,a5,a4
   13418:	00000613          	addi	a2,zero,0
   1341c:	00078c13          	addi	s8,a5,0
   13420:	0008d463          	bge	a7,zero,13428 <__ieee754_pow+0xaac>
   13424:	40f00c33          	sub	s8,zero,a5
   13428:	00090513          	addi	a0,s2,0
   1342c:	00098593          	addi	a1,s3,0
   13430:	7c0030ef          	jal	ra,16bf0 <__subdf3>
   13434:	00050613          	addi	a2,a0,0
   13438:	00058693          	addi	a3,a1,0 # fff00000 <__BSS_END__+0xffed621c>
   1343c:	00050913          	addi	s2,a0,0
   13440:	00058993          	addi	s3,a1,0
   13444:	000a0513          	addi	a0,s4,0
   13448:	000a8593          	addi	a1,s5,0
   1344c:	184020ef          	jal	ra,155d0 <__adddf3>
   13450:	014c1c93          	slli	s9,s8,0x14
   13454:	00058813          	addi	a6,a1,0
   13458:	1601a603          	lw	a2,352(gp) # 29970 <__global_pointer$+0x160>
   1345c:	1641a683          	lw	a3,356(gp) # 29974 <__global_pointer$+0x164>
   13460:	00080593          	addi	a1,a6,0
   13464:	00000513          	addi	a0,zero,0
   13468:	01012623          	sw	a6,12(sp)
   1346c:	19c030ef          	jal	ra,16608 <__muldf3>
   13470:	00058493          	addi	s1,a1,0
   13474:	00c12583          	lw	a1,12(sp)
   13478:	00050413          	addi	s0,a0,0
   1347c:	00090613          	addi	a2,s2,0
   13480:	00098693          	addi	a3,s3,0
   13484:	00000513          	addi	a0,zero,0
   13488:	768030ef          	jal	ra,16bf0 <__subdf3>
   1348c:	00050613          	addi	a2,a0,0
   13490:	00058693          	addi	a3,a1,0
   13494:	000a0513          	addi	a0,s4,0
   13498:	000a8593          	addi	a1,s5,0
   1349c:	754030ef          	jal	ra,16bf0 <__subdf3>
   134a0:	1681a603          	lw	a2,360(gp) # 29978 <__global_pointer$+0x168>
   134a4:	16c1a683          	lw	a3,364(gp) # 2997c <__global_pointer$+0x16c>
   134a8:	160030ef          	jal	ra,16608 <__muldf3>
   134ac:	1701a603          	lw	a2,368(gp) # 29980 <__global_pointer$+0x170>
   134b0:	1741a683          	lw	a3,372(gp) # 29984 <__global_pointer$+0x174>
   134b4:	00058993          	addi	s3,a1,0
   134b8:	00c12583          	lw	a1,12(sp)
   134bc:	00050913          	addi	s2,a0,0
   134c0:	00000513          	addi	a0,zero,0
   134c4:	144030ef          	jal	ra,16608 <__muldf3>
   134c8:	00050613          	addi	a2,a0,0
   134cc:	00058693          	addi	a3,a1,0
   134d0:	00090513          	addi	a0,s2,0
   134d4:	00098593          	addi	a1,s3,0
   134d8:	0f8020ef          	jal	ra,155d0 <__adddf3>
   134dc:	00050a13          	addi	s4,a0,0
   134e0:	00058a93          	addi	s5,a1,0
   134e4:	00050613          	addi	a2,a0,0
   134e8:	00058693          	addi	a3,a1,0
   134ec:	00040513          	addi	a0,s0,0
   134f0:	00048593          	addi	a1,s1,0
   134f4:	0dc020ef          	jal	ra,155d0 <__adddf3>
   134f8:	00040613          	addi	a2,s0,0
   134fc:	00048693          	addi	a3,s1,0
   13500:	00050913          	addi	s2,a0,0
   13504:	00058993          	addi	s3,a1,0
   13508:	6e8030ef          	jal	ra,16bf0 <__subdf3>
   1350c:	00050613          	addi	a2,a0,0
   13510:	00058693          	addi	a3,a1,0
   13514:	000a0513          	addi	a0,s4,0
   13518:	000a8593          	addi	a1,s5,0
   1351c:	6d4030ef          	jal	ra,16bf0 <__subdf3>
   13520:	00050a13          	addi	s4,a0,0
   13524:	00058a93          	addi	s5,a1,0
   13528:	00090613          	addi	a2,s2,0
   1352c:	00098693          	addi	a3,s3,0
   13530:	00090513          	addi	a0,s2,0
   13534:	00098593          	addi	a1,s3,0
   13538:	0d0030ef          	jal	ra,16608 <__muldf3>
   1353c:	1781a603          	lw	a2,376(gp) # 29988 <__global_pointer$+0x178>
   13540:	17c1a683          	lw	a3,380(gp) # 2998c <__global_pointer$+0x17c>
   13544:	00050413          	addi	s0,a0,0
   13548:	00058493          	addi	s1,a1,0
   1354c:	0bc030ef          	jal	ra,16608 <__muldf3>
   13550:	1801a603          	lw	a2,384(gp) # 29990 <__global_pointer$+0x180>
   13554:	1841a683          	lw	a3,388(gp) # 29994 <__global_pointer$+0x184>
   13558:	698030ef          	jal	ra,16bf0 <__subdf3>
   1355c:	00040613          	addi	a2,s0,0
   13560:	00048693          	addi	a3,s1,0
   13564:	0a4030ef          	jal	ra,16608 <__muldf3>
   13568:	1881a603          	lw	a2,392(gp) # 29998 <__global_pointer$+0x188>
   1356c:	18c1a683          	lw	a3,396(gp) # 2999c <__global_pointer$+0x18c>
   13570:	060020ef          	jal	ra,155d0 <__adddf3>
   13574:	00040613          	addi	a2,s0,0
   13578:	00048693          	addi	a3,s1,0
   1357c:	08c030ef          	jal	ra,16608 <__muldf3>
   13580:	1901a603          	lw	a2,400(gp) # 299a0 <__global_pointer$+0x190>
   13584:	1941a683          	lw	a3,404(gp) # 299a4 <__global_pointer$+0x194>
   13588:	668030ef          	jal	ra,16bf0 <__subdf3>
   1358c:	00040613          	addi	a2,s0,0
   13590:	00048693          	addi	a3,s1,0
   13594:	074030ef          	jal	ra,16608 <__muldf3>
   13598:	1981a603          	lw	a2,408(gp) # 299a8 <__global_pointer$+0x198>
   1359c:	19c1a683          	lw	a3,412(gp) # 299ac <__global_pointer$+0x19c>
   135a0:	030020ef          	jal	ra,155d0 <__adddf3>
   135a4:	00040613          	addi	a2,s0,0
   135a8:	00048693          	addi	a3,s1,0
   135ac:	05c030ef          	jal	ra,16608 <__muldf3>
   135b0:	00050613          	addi	a2,a0,0
   135b4:	00058693          	addi	a3,a1,0
   135b8:	00090513          	addi	a0,s2,0
   135bc:	00098593          	addi	a1,s3,0
   135c0:	630030ef          	jal	ra,16bf0 <__subdf3>
   135c4:	00050413          	addi	s0,a0,0
   135c8:	00058493          	addi	s1,a1,0
   135cc:	00050613          	addi	a2,a0,0
   135d0:	00058693          	addi	a3,a1,0
   135d4:	00090513          	addi	a0,s2,0
   135d8:	00098593          	addi	a1,s3,0
   135dc:	02c030ef          	jal	ra,16608 <__muldf3>
   135e0:	1a01a603          	lw	a2,416(gp) # 299b0 <__global_pointer$+0x1a0>
   135e4:	1a41a683          	lw	a3,420(gp) # 299b4 <__global_pointer$+0x1a4>
   135e8:	00050b13          	addi	s6,a0,0
   135ec:	00058b93          	addi	s7,a1,0
   135f0:	00040513          	addi	a0,s0,0
   135f4:	00048593          	addi	a1,s1,0
   135f8:	5f8030ef          	jal	ra,16bf0 <__subdf3>
   135fc:	00050613          	addi	a2,a0,0
   13600:	00058693          	addi	a3,a1,0
   13604:	000b0513          	addi	a0,s6,0
   13608:	000b8593          	addi	a1,s7,0
   1360c:	710020ef          	jal	ra,15d1c <__divdf3>
   13610:	00050413          	addi	s0,a0,0
   13614:	00058493          	addi	s1,a1,0
   13618:	000a0613          	addi	a2,s4,0
   1361c:	000a8693          	addi	a3,s5,0
   13620:	00090513          	addi	a0,s2,0
   13624:	00098593          	addi	a1,s3,0
   13628:	7e1020ef          	jal	ra,16608 <__muldf3>
   1362c:	000a0613          	addi	a2,s4,0
   13630:	000a8693          	addi	a3,s5,0
   13634:	79d010ef          	jal	ra,155d0 <__adddf3>
   13638:	00050613          	addi	a2,a0,0
   1363c:	00058693          	addi	a3,a1,0
   13640:	00040513          	addi	a0,s0,0
   13644:	00048593          	addi	a1,s1,0
   13648:	5a8030ef          	jal	ra,16bf0 <__subdf3>
   1364c:	00090613          	addi	a2,s2,0
   13650:	00098693          	addi	a3,s3,0
   13654:	59c030ef          	jal	ra,16bf0 <__subdf3>
   13658:	00050613          	addi	a2,a0,0
   1365c:	00058693          	addi	a3,a1,0
   13660:	ec01a503          	lw	a0,-320(gp) # 296d0 <__SDATA_BEGIN__+0x18>
   13664:	ec41a583          	lw	a1,-316(gp) # 296d4 <__SDATA_BEGIN__+0x1c>
   13668:	588030ef          	jal	ra,16bf0 <__subdf3>
   1366c:	00bc87b3          	add	a5,s9,a1
   13670:	4147d713          	srai	a4,a5,0x14
   13674:	3ae05c63          	bge	zero,a4,13a2c <__ieee754_pow+0x10b0>
   13678:	00050713          	addi	a4,a0,0
   1367c:	00012603          	lw	a2,0(sp)
   13680:	00412683          	lw	a3,4(sp)
   13684:	00070513          	addi	a0,a4,0
   13688:	00078593          	addi	a1,a5,0
   1368c:	77d020ef          	jal	ra,16608 <__muldf3>
   13690:	06812403          	lw	s0,104(sp)
   13694:	06412483          	lw	s1,100(sp)
   13698:	06012903          	lw	s2,96(sp)
   1369c:	05c12983          	lw	s3,92(sp)
   136a0:	05812a03          	lw	s4,88(sp)
   136a4:	05412a83          	lw	s5,84(sp)
   136a8:	05012b03          	lw	s6,80(sp)
   136ac:	04c12b83          	lw	s7,76(sp)
   136b0:	04812c03          	lw	s8,72(sp)
   136b4:	04412c83          	lw	s9,68(sp)
   136b8:	03c12d83          	lw	s11,60(sp)
   136bc:	b20ff06f          	jal	zero,129dc <__ieee754_pow+0x60>
   136c0:	00012503          	lw	a0,0(sp)
   136c4:	00412583          	lw	a1,4(sp)
   136c8:	00000613          	addi	a2,zero,0
   136cc:	00000693          	addi	a3,zero,0
   136d0:	661020ef          	jal	ra,16530 <__ledf2>
   136d4:	00052513          	slti	a0,a0,0
   136d8:	d14ff06f          	jal	zero,12bec <__ieee754_pow+0x270>
   136dc:	ea81a603          	lw	a2,-344(gp) # 296b8 <__SDATA_BEGIN__>
   136e0:	eac1a683          	lw	a3,-340(gp) # 296bc <__SDATA_BEGIN__+0x4>
   136e4:	00c12023          	sw	a2,0(sp)
   136e8:	00d12223          	sw	a3,4(sp)
   136ec:	c70ff06f          	jal	zero,12b5c <__ieee754_pow+0x1e0>
   136f0:	00159793          	slli	a5,a1,0x1
   136f4:	4090d737          	lui	a4,0x4090d
   136f8:	0017d793          	srli	a5,a5,0x1
   136fc:	bff70713          	addi	a4,a4,-1025 # 4090cbff <__BSS_END__+0x408e2e1b>
   13700:	2af77a63          	bgeu	a4,a5,139b4 <__ieee754_pow+0x1038>
   13704:	3f6f37b7          	lui	a5,0x3f6f3
   13708:	40078793          	addi	a5,a5,1024 # 3f6f3400 <__BSS_END__+0x3f6c961c>
   1370c:	00f587b3          	add	a5,a1,a5
   13710:	00a7e7b3          	or	a5,a5,a0
   13714:	02079463          	bne	a5,zero,1373c <__ieee754_pow+0xdc0>
   13718:	00090613          	addi	a2,s2,0
   1371c:	00098693          	addi	a3,s3,0
   13720:	00b12623          	sw	a1,12(sp)
   13724:	4cc030ef          	jal	ra,16bf0 <__subdf3>
   13728:	00040613          	addi	a2,s0,0
   1372c:	00048693          	addi	a3,s1,0
   13730:	529020ef          	jal	ra,16458 <__gedf2>
   13734:	00c12883          	lw	a7,12(sp)
   13738:	ca0542e3          	blt	a0,zero,133dc <__ieee754_pow+0xa60>
   1373c:	00012503          	lw	a0,0(sp)
   13740:	00412583          	lw	a1,4(sp)
   13744:	00000613          	addi	a2,zero,0
   13748:	00000693          	addi	a3,zero,0
   1374c:	5e5020ef          	jal	ra,16530 <__ledf2>
   13750:	00052513          	slti	a0,a0,0
   13754:	c28ff06f          	jal	zero,12b7c <__ieee754_pow+0x200>
   13758:	00200f93          	addi	t6,zero,2
   1375c:	cccff06f          	jal	zero,12c28 <__ieee754_pow+0x2ac>
   13760:	000e0513          	addi	a0,t3,0
   13764:	00088593          	addi	a1,a7,0
   13768:	00e12a23          	sw	a4,20(sp)
   1376c:	01012823          	sw	a6,16(sp)
   13770:	01c12623          	sw	t3,12(sp)
   13774:	01112023          	sw	a7,0(sp)
   13778:	dccfe0ef          	jal	ra,11d44 <fabs>
   1377c:	00c12e03          	lw	t3,12(sp)
   13780:	00012883          	lw	a7,0(sp)
   13784:	01012803          	lw	a6,16(sp)
   13788:	01412703          	lw	a4,20(sp)
   1378c:	e40e1063          	bne	t3,zero,12dcc <__ieee754_pow+0x450>
   13790:	c00006b7          	lui	a3,0xc0000
   13794:	00d8e7b3          	or	a5,a7,a3
   13798:	fff006b7          	lui	a3,0xfff00
   1379c:	40d787b3          	sub	a5,a5,a3
   137a0:	00078463          	beq	a5,zero,137a8 <__ieee754_pow+0xe2c>
   137a4:	e2081463          	bne	a6,zero,12dcc <__ieee754_pow+0x450>
   137a8:	00000f93          	addi	t6,zero,0
   137ac:	da075463          	bge	a4,zero,12d54 <__ieee754_pow+0x3d8>
   137b0:	00050613          	addi	a2,a0,0
   137b4:	00058693          	addi	a3,a1,0
   137b8:	ec01a503          	lw	a0,-320(gp) # 296d0 <__SDATA_BEGIN__+0x18>
   137bc:	ec41a583          	lw	a1,-316(gp) # 296d4 <__SDATA_BEGIN__+0x1c>
   137c0:	01f12623          	sw	t6,12(sp)
   137c4:	01012023          	sw	a6,0(sp)
   137c8:	554020ef          	jal	ra,15d1c <__divdf3>
   137cc:	00012803          	lw	a6,0(sp)
   137d0:	00000f93          	addi	t6,zero,0
   137d4:	d80ff06f          	jal	zero,12d54 <__ieee754_pow+0x3d8>
   137d8:	02012423          	sw	zero,40(sp)
   137dc:	02012623          	sw	zero,44(sp)
   137e0:	e7cff06f          	jal	zero,12e5c <__ieee754_pow+0x4e0>
   137e4:	3ff006b7          	lui	a3,0x3ff00
   137e8:	ffe68693          	addi	a3,a3,-2 # 3feffffe <__BSS_END__+0x3fed621a>
   137ec:	3ff00637          	lui	a2,0x3ff00
   137f0:	2706f463          	bgeu	a3,a6,13a58 <__ieee754_pow+0x10dc>
   137f4:	2b066e63          	bltu	a2,a6,13ab0 <__ieee754_pow+0x1134>
   137f8:	00f12623          	sw	a5,12(sp)
   137fc:	ec01a603          	lw	a2,-320(gp) # 296d0 <__SDATA_BEGIN__+0x18>
   13800:	ec41a683          	lw	a3,-316(gp) # 296d4 <__SDATA_BEGIN__+0x1c>
   13804:	00e12823          	sw	a4,16(sp)
   13808:	00078d93          	addi	s11,a5,0
   1380c:	3e4030ef          	jal	ra,16bf0 <__subdf3>
   13810:	0f01a603          	lw	a2,240(gp) # 29900 <__global_pointer$+0xf0>
   13814:	0f41a683          	lw	a3,244(gp) # 29904 <__global_pointer$+0xf4>
   13818:	00050413          	addi	s0,a0,0
   1381c:	00058493          	addi	s1,a1,0
   13820:	5e9020ef          	jal	ra,16608 <__muldf3>
   13824:	0f81a603          	lw	a2,248(gp) # 29908 <__global_pointer$+0xf8>
   13828:	0fc1a683          	lw	a3,252(gp) # 2990c <__global_pointer$+0xfc>
   1382c:	00050913          	addi	s2,a0,0
   13830:	00058993          	addi	s3,a1,0
   13834:	00040513          	addi	a0,s0,0
   13838:	00048593          	addi	a1,s1,0
   1383c:	5cd020ef          	jal	ra,16608 <__muldf3>
   13840:	fa01a603          	lw	a2,-96(gp) # 297b0 <__SDATA_BEGIN__+0xf8>
   13844:	fa41a683          	lw	a3,-92(gp) # 297b4 <__SDATA_BEGIN__+0xfc>
   13848:	00050b13          	addi	s6,a0,0
   1384c:	00058b93          	addi	s7,a1,0
   13850:	00040513          	addi	a0,s0,0
   13854:	00048593          	addi	a1,s1,0
   13858:	5b1020ef          	jal	ra,16608 <__muldf3>
   1385c:	00058693          	addi	a3,a1,0
   13860:	00050613          	addi	a2,a0,0
   13864:	ff01a503          	lw	a0,-16(gp) # 29800 <__SDATA_BEGIN__+0x148>
   13868:	ff41a583          	lw	a1,-12(gp) # 29804 <__SDATA_BEGIN__+0x14c>
   1386c:	384030ef          	jal	ra,16bf0 <__subdf3>
   13870:	00040613          	addi	a2,s0,0
   13874:	00048693          	addi	a3,s1,0
   13878:	591020ef          	jal	ra,16608 <__muldf3>
   1387c:	00058693          	addi	a3,a1,0
   13880:	00050613          	addi	a2,a0,0
   13884:	0401a503          	lw	a0,64(gp) # 29850 <__global_pointer$+0x40>
   13888:	0441a583          	lw	a1,68(gp) # 29854 <__global_pointer$+0x44>
   1388c:	364030ef          	jal	ra,16bf0 <__subdf3>
   13890:	00040613          	addi	a2,s0,0
   13894:	00048693          	addi	a3,s1,0
   13898:	00050a13          	addi	s4,a0,0
   1389c:	00058a93          	addi	s5,a1,0
   138a0:	00040513          	addi	a0,s0,0
   138a4:	00048593          	addi	a1,s1,0
   138a8:	561020ef          	jal	ra,16608 <__muldf3>
   138ac:	00050613          	addi	a2,a0,0
   138b0:	00058693          	addi	a3,a1,0
   138b4:	000a0513          	addi	a0,s4,0
   138b8:	000a8593          	addi	a1,s5,0
   138bc:	54d020ef          	jal	ra,16608 <__muldf3>
   138c0:	1001a603          	lw	a2,256(gp) # 29910 <__global_pointer$+0x100>
   138c4:	1041a683          	lw	a3,260(gp) # 29914 <__global_pointer$+0x104>
   138c8:	541020ef          	jal	ra,16608 <__muldf3>
   138cc:	00050613          	addi	a2,a0,0
   138d0:	00058693          	addi	a3,a1,0
   138d4:	000b0513          	addi	a0,s6,0
   138d8:	000b8593          	addi	a1,s7,0
   138dc:	314030ef          	jal	ra,16bf0 <__subdf3>
   138e0:	00050613          	addi	a2,a0,0
   138e4:	00058693          	addi	a3,a1,0
   138e8:	00050413          	addi	s0,a0,0
   138ec:	00058493          	addi	s1,a1,0
   138f0:	00090513          	addi	a0,s2,0
   138f4:	00098593          	addi	a1,s3,0
   138f8:	4d9010ef          	jal	ra,155d0 <__adddf3>
   138fc:	00000313          	addi	t1,zero,0
   13900:	00090613          	addi	a2,s2,0
   13904:	00098693          	addi	a3,s3,0
   13908:	00000513          	addi	a0,zero,0
   1390c:	00030c13          	addi	s8,t1,0
   13910:	00058c93          	addi	s9,a1,0
   13914:	2dc030ef          	jal	ra,16bf0 <__subdf3>
   13918:	00050613          	addi	a2,a0,0
   1391c:	00058693          	addi	a3,a1,0
   13920:	00040513          	addi	a0,s0,0
   13924:	00048593          	addi	a1,s1,0
   13928:	2c8030ef          	jal	ra,16bf0 <__subdf3>
   1392c:	00c12783          	lw	a5,12(sp)
   13930:	01012703          	lw	a4,16(sp)
   13934:	00050313          	addi	t1,a0,0
   13938:	00058893          	addi	a7,a1,0
   1393c:	98dff06f          	jal	zero,132c8 <__ieee754_pow+0x94c>
   13940:	400006b7          	lui	a3,0x40000
   13944:	0ad70063          	beq	a4,a3,139e4 <__ieee754_pow+0x1068>
   13948:	3fe006b7          	lui	a3,0x3fe00
   1394c:	00000f93          	addi	t6,zero,0
   13950:	00d70463          	beq	a4,a3,13958 <__ieee754_pow+0xfdc>
   13954:	960ff06f          	jal	zero,12ab4 <__ieee754_pow+0x138>
   13958:	06c12083          	lw	ra,108(sp)
   1395c:	000e0513          	addi	a0,t3,0
   13960:	00088593          	addi	a1,a7,0
   13964:	07010113          	addi	sp,sp,112
   13968:	874fe06f          	jal	zero,119dc <__ieee754_sqrt>
   1396c:	00000513          	addi	a0,zero,0
   13970:	00000593          	addi	a1,zero,0
   13974:	00074463          	blt	a4,zero,1397c <__ieee754_pow+0x1000>
   13978:	864ff06f          	jal	zero,129dc <__ieee754_pow+0x60>
   1397c:	800005b7          	lui	a1,0x80000
   13980:	00b745b3          	xor	a1,a4,a1
   13984:	858ff06f          	jal	zero,129dc <__ieee754_pow+0x60>
   13988:	dc079ce3          	bne	a5,zero,13760 <__ieee754_pow+0xde4>
   1398c:	40c585b3          	sub	a1,a1,a2
   13990:	40bed633          	sra	a2,t4,a1
   13994:	00b615b3          	sll	a1,a2,a1
   13998:	17d58863          	beq	a1,t4,13b08 <__ieee754_pow+0x118c>
   1399c:	00de9463          	bne	t4,a3,139a4 <__ieee754_pow+0x1028>
   139a0:	8d8ff06f          	jal	zero,12a78 <__ieee754_pow+0xfc>
   139a4:	400006b7          	lui	a3,0x40000
   139a8:	02d70e63          	beq	a4,a3,139e4 <__ieee754_pow+0x1068>
   139ac:	00000f93          	addi	t6,zero,0
   139b0:	904ff06f          	jal	zero,12ab4 <__ieee754_pow+0x138>
   139b4:	3fe00737          	lui	a4,0x3fe00
   139b8:	00000c93          	addi	s9,zero,0
   139bc:	00000c13          	addi	s8,zero,0
   139c0:	a8f77ce3          	bgeu	a4,a5,13458 <__ieee754_pow+0xadc>
   139c4:	4147d793          	srai	a5,a5,0x14
   139c8:	c0278713          	addi	a4,a5,-1022
   139cc:	001007b7          	lui	a5,0x100
   139d0:	40e7d7b3          	sra	a5,a5,a4
   139d4:	a0dff06f          	jal	zero,133e0 <__ieee754_pow+0xa64>
   139d8:	400006b7          	lui	a3,0x40000
   139dc:	00d70463          	beq	a4,a3,139e4 <__ieee754_pow+0x1068>
   139e0:	8d0ff06f          	jal	zero,12ab0 <__ieee754_pow+0x134>
   139e4:	000e0613          	addi	a2,t3,0
   139e8:	000e0513          	addi	a0,t3,0
   139ec:	00088693          	addi	a3,a7,0
   139f0:	00088593          	addi	a1,a7,0
   139f4:	415020ef          	jal	ra,16608 <__muldf3>
   139f8:	fe5fe06f          	jal	zero,129dc <__ieee754_pow+0x60>
   139fc:	0d81a883          	lw	a7,216(gp) # 298e8 <__global_pointer$+0xd8>
   13a00:	0dc1a583          	lw	a1,220(gp) # 298ec <__global_pointer$+0xdc>
   13a04:	02b12623          	sw	a1,44(sp)
   13a08:	0e01a583          	lw	a1,224(gp) # 298f0 <__global_pointer$+0xe0>
   13a0c:	0e41a683          	lw	a3,228(gp) # 298f4 <__global_pointer$+0xe4>
   13a10:	03112423          	sw	a7,40(sp)
   13a14:	02b12023          	sw	a1,32(sp)
   13a18:	0ec1a883          	lw	a7,236(gp) # 298fc <__global_pointer$+0xec>
   13a1c:	02d12223          	sw	a3,36(sp)
   13a20:	0e81a803          	lw	a6,232(gp) # 298f8 <__global_pointer$+0xe8>
   13a24:	00040cb7          	lui	s9,0x40
   13a28:	c48ff06f          	jal	zero,12e70 <__ieee754_pow+0x4f4>
   13a2c:	000c0613          	addi	a2,s8,0
   13a30:	025000ef          	jal	ra,14254 <scalbn>
   13a34:	00050713          	addi	a4,a0,0
   13a38:	00058793          	addi	a5,a1,0 # 80000000 <__BSS_END__+0x7ffd621c>
   13a3c:	c41ff06f          	jal	zero,1367c <__ieee754_pow+0xd00>
   13a40:	00100793          	addi	a5,zero,1
   13a44:	00ff8463          	beq	t6,a5,13a4c <__ieee754_pow+0x10d0>
   13a48:	f95fe06f          	jal	zero,129dc <__ieee754_pow+0x60>
   13a4c:	800007b7          	lui	a5,0x80000
   13a50:	00f5c5b3          	xor	a1,a1,a5
   13a54:	f89fe06f          	jal	zero,129dc <__ieee754_pow+0x60>
   13a58:	00012503          	lw	a0,0(sp)
   13a5c:	00412583          	lw	a1,4(sp)
   13a60:	00000613          	addi	a2,zero,0
   13a64:	00000693          	addi	a3,zero,0
   13a68:	00e12623          	sw	a4,12(sp)
   13a6c:	2c5020ef          	jal	ra,16530 <__ledf2>
   13a70:	00c12703          	lw	a4,12(sp)
   13a74:	06812403          	lw	s0,104(sp)
   13a78:	06412483          	lw	s1,100(sp)
   13a7c:	06012903          	lw	s2,96(sp)
   13a80:	05c12983          	lw	s3,92(sp)
   13a84:	05812a03          	lw	s4,88(sp)
   13a88:	05412a83          	lw	s5,84(sp)
   13a8c:	05012b03          	lw	s6,80(sp)
   13a90:	04c12b83          	lw	s7,76(sp)
   13a94:	04812c03          	lw	s8,72(sp)
   13a98:	04412c83          	lw	s9,68(sp)
   13a9c:	03c12d83          	lw	s11,60(sp)
   13aa0:	00052513          	slti	a0,a0,0
   13aa4:	00074463          	blt	a4,zero,13aac <__ieee754_pow+0x1130>
   13aa8:	900ff06f          	jal	zero,12ba8 <__ieee754_pow+0x22c>
   13aac:	96cff06f          	jal	zero,12c18 <__ieee754_pow+0x29c>
   13ab0:	00012503          	lw	a0,0(sp)
   13ab4:	00412583          	lw	a1,4(sp)
   13ab8:	00000613          	addi	a2,zero,0
   13abc:	00000693          	addi	a3,zero,0
   13ac0:	00e12623          	sw	a4,12(sp)
   13ac4:	26d020ef          	jal	ra,16530 <__ledf2>
   13ac8:	00c12703          	lw	a4,12(sp)
   13acc:	06812403          	lw	s0,104(sp)
   13ad0:	06412483          	lw	s1,100(sp)
   13ad4:	06012903          	lw	s2,96(sp)
   13ad8:	05c12983          	lw	s3,92(sp)
   13adc:	05812a03          	lw	s4,88(sp)
   13ae0:	05412a83          	lw	s5,84(sp)
   13ae4:	05012b03          	lw	s6,80(sp)
   13ae8:	04c12b83          	lw	s7,76(sp)
   13aec:	04812c03          	lw	s8,72(sp)
   13af0:	04412c83          	lw	s9,68(sp)
   13af4:	03c12d83          	lw	s11,60(sp)
   13af8:	00052513          	slti	a0,a0,0
   13afc:	00e05463          	bge	zero,a4,13b04 <__ieee754_pow+0x1188>
   13b00:	918ff06f          	jal	zero,12c18 <__ieee754_pow+0x29c>
   13b04:	8a4ff06f          	jal	zero,12ba8 <__ieee754_pow+0x22c>
   13b08:	00de9463          	bne	t4,a3,13b10 <__ieee754_pow+0x1194>
   13b0c:	f6dfe06f          	jal	zero,12a78 <__ieee754_pow+0xfc>
   13b10:	400006b7          	lui	a3,0x40000
   13b14:	ecd708e3          	beq	a4,a3,139e4 <__ieee754_pow+0x1068>
   13b18:	00167693          	andi	a3,a2,1
   13b1c:	00200613          	addi	a2,zero,2
   13b20:	40d60fb3          	sub	t6,a2,a3
   13b24:	f91fe06f          	jal	zero,12ab4 <__ieee754_pow+0x138>

00013b28 <__ieee754_rem_pio2>:
   13b28:	00159793          	slli	a5,a1,0x1
   13b2c:	3fe926b7          	lui	a3,0x3fe92
   13b30:	0017d793          	srli	a5,a5,0x1
   13b34:	1fb68693          	addi	a3,a3,507 # 3fe921fb <__BSS_END__+0x3fe68417>
   13b38:	20f6fe63          	bgeu	a3,a5,13d54 <__ieee754_rem_pio2+0x22c>
   13b3c:	fa010113          	addi	sp,sp,-96
   13b40:	4002e6b7          	lui	a3,0x4002e
   13b44:	04812c23          	sw	s0,88(sp)
   13b48:	03812c23          	sw	s8,56(sp)
   13b4c:	04112e23          	sw	ra,92(sp)
   13b50:	97b68693          	addi	a3,a3,-1669 # 4002d97b <__BSS_END__+0x40003b97>
   13b54:	00060413          	addi	s0,a2,0 # 3ff00000 <__BSS_END__+0x3fed621c>
   13b58:	00058c13          	addi	s8,a1,0
   13b5c:	0af6e463          	bltu	a3,a5,13c04 <__ieee754_rem_pio2+0xdc>
   13b60:	05212823          	sw	s2,80(sp)
   13b64:	05312623          	sw	s3,76(sp)
   13b68:	00f12223          	sw	a5,4(sp)
   13b6c:	60b05a63          	bge	zero,a1,14180 <__ieee754_rem_pio2+0x658>
   13b70:	1a81a603          	lw	a2,424(gp) # 299b8 <__global_pointer$+0x1a8>
   13b74:	1ac1a683          	lw	a3,428(gp) # 299bc <__global_pointer$+0x1ac>
   13b78:	078030ef          	jal	ra,16bf0 <__subdf3>
   13b7c:	00412783          	lw	a5,4(sp)
   13b80:	3ff92737          	lui	a4,0x3ff92
   13b84:	1fb70713          	addi	a4,a4,507 # 3ff921fb <__BSS_END__+0x3ff68417>
   13b88:	00050913          	addi	s2,a0,0
   13b8c:	00058993          	addi	s3,a1,0
   13b90:	20e78263          	beq	a5,a4,13d94 <__ieee754_rem_pio2+0x26c>
   13b94:	1b01a603          	lw	a2,432(gp) # 299c0 <__global_pointer$+0x1b0>
   13b98:	1b41a683          	lw	a3,436(gp) # 299c4 <__global_pointer$+0x1b4>
   13b9c:	054030ef          	jal	ra,16bf0 <__subdf3>
   13ba0:	00050613          	addi	a2,a0,0
   13ba4:	00058693          	addi	a3,a1,0
   13ba8:	00a12423          	sw	a0,8(sp)
   13bac:	00b12223          	sw	a1,4(sp)
   13bb0:	00090513          	addi	a0,s2,0
   13bb4:	00098593          	addi	a1,s3,0
   13bb8:	038030ef          	jal	ra,16bf0 <__subdf3>
   13bbc:	1b01a603          	lw	a2,432(gp) # 299c0 <__global_pointer$+0x1b0>
   13bc0:	1b41a683          	lw	a3,436(gp) # 299c4 <__global_pointer$+0x1b4>
   13bc4:	02c030ef          	jal	ra,16bf0 <__subdf3>
   13bc8:	00412783          	lw	a5,4(sp)
   13bcc:	00812703          	lw	a4,8(sp)
   13bd0:	05012903          	lw	s2,80(sp)
   13bd4:	04c12983          	lw	s3,76(sp)
   13bd8:	00e42023          	sw	a4,0(s0)
   13bdc:	00f42223          	sw	a5,4(s0)
   13be0:	00a42423          	sw	a0,8(s0)
   13be4:	00b42623          	sw	a1,12(s0)
   13be8:	00100713          	addi	a4,zero,1
   13bec:	05c12083          	lw	ra,92(sp)
   13bf0:	05812403          	lw	s0,88(sp)
   13bf4:	03812c03          	lw	s8,56(sp)
   13bf8:	00070513          	addi	a0,a4,0
   13bfc:	06010113          	addi	sp,sp,96
   13c00:	00008067          	jalr	zero,0(ra)
   13c04:	413926b7          	lui	a3,0x41392
   13c08:	1fb68693          	addi	a3,a3,507 # 413921fb <__BSS_END__+0x41368417>
   13c0c:	1cf6fe63          	bgeu	a3,a5,13de8 <__ieee754_rem_pio2+0x2c0>
   13c10:	7ff006b7          	lui	a3,0x7ff00
   13c14:	14d7fe63          	bgeu	a5,a3,13d70 <__ieee754_rem_pio2+0x248>
   13c18:	4147d713          	srai	a4,a5,0x14
   13c1c:	bea70713          	addi	a4,a4,-1046
   13c20:	05412423          	sw	s4,72(sp)
   13c24:	00070a13          	addi	s4,a4,0
   13c28:	01471713          	slli	a4,a4,0x14
   13c2c:	40e787b3          	sub	a5,a5,a4
   13c30:	00078593          	addi	a1,a5,0 # 80000000 <__BSS_END__+0x7ffd621c>
   13c34:	00f12223          	sw	a5,4(sp)
   13c38:	05212823          	sw	s2,80(sp)
   13c3c:	05312623          	sw	s3,76(sp)
   13c40:	04912a23          	sw	s1,84(sp)
   13c44:	00a12423          	sw	a0,8(sp)
   13c48:	750030ef          	jal	ra,17398 <__fixdfsi>
   13c4c:	7c8030ef          	jal	ra,17414 <__floatsidf>
   13c50:	00050313          	addi	t1,a0,0
   13c54:	00058393          	addi	t2,a1,0
   13c58:	00812503          	lw	a0,8(sp)
   13c5c:	00412583          	lw	a1,4(sp)
   13c60:	00030613          	addi	a2,t1,0
   13c64:	00038693          	addi	a3,t2,0
   13c68:	00612c23          	sw	t1,24(sp)
   13c6c:	00712e23          	sw	t2,28(sp)
   13c70:	781020ef          	jal	ra,16bf0 <__subdf3>
   13c74:	1e01a603          	lw	a2,480(gp) # 299f0 <__global_pointer$+0x1e0>
   13c78:	1e41a683          	lw	a3,484(gp) # 299f4 <__global_pointer$+0x1e4>
   13c7c:	18d020ef          	jal	ra,16608 <__muldf3>
   13c80:	00058993          	addi	s3,a1,0
   13c84:	00050913          	addi	s2,a0,0
   13c88:	710030ef          	jal	ra,17398 <__fixdfsi>
   13c8c:	788030ef          	jal	ra,17414 <__floatsidf>
   13c90:	00050813          	addi	a6,a0,0
   13c94:	00058893          	addi	a7,a1,0
   13c98:	00080613          	addi	a2,a6,0
   13c9c:	00088693          	addi	a3,a7,0
   13ca0:	00090513          	addi	a0,s2,0
   13ca4:	00098593          	addi	a1,s3,0
   13ca8:	03012023          	sw	a6,32(sp)
   13cac:	03112223          	sw	a7,36(sp)
   13cb0:	741020ef          	jal	ra,16bf0 <__subdf3>
   13cb4:	1e01a603          	lw	a2,480(gp) # 299f0 <__global_pointer$+0x1e0>
   13cb8:	1e41a683          	lw	a3,484(gp) # 299f4 <__global_pointer$+0x1e4>
   13cbc:	14d020ef          	jal	ra,16608 <__muldf3>
   13cc0:	01810713          	addi	a4,sp,24
   13cc4:	02a12423          	sw	a0,40(sp)
   13cc8:	02b12623          	sw	a1,44(sp)
   13ccc:	00300793          	addi	a5,zero,3
   13cd0:	01072503          	lw	a0,16(a4)
   13cd4:	01472583          	lw	a1,20(a4)
   13cd8:	00000613          	addi	a2,zero,0
   13cdc:	ff870713          	addi	a4,a4,-8
   13ce0:	00000693          	addi	a3,zero,0
   13ce4:	00078493          	addi	s1,a5,0
   13ce8:	fff78793          	addi	a5,a5,-1
   13cec:	00e12423          	sw	a4,8(sp)
   13cf0:	00f12223          	sw	a5,4(sp)
   13cf4:	6e0020ef          	jal	ra,163d4 <__eqdf2>
   13cf8:	00412783          	lw	a5,4(sp)
   13cfc:	00812703          	lw	a4,8(sp)
   13d00:	fc0508e3          	beq	a0,zero,13cd0 <__ieee754_rem_pio2+0x1a8>
   13d04:	000287b7          	lui	a5,0x28
   13d08:	00200713          	addi	a4,zero,2
   13d0c:	00048693          	addi	a3,s1,0
   13d10:	000a0613          	addi	a2,s4,0
   13d14:	01810513          	addi	a0,sp,24
   13d18:	6ac78793          	addi	a5,a5,1708 # 286ac <two_over_pi>
   13d1c:	00040593          	addi	a1,s0,0
   13d20:	1a1000ef          	jal	ra,146c0 <__kernel_rem_pio2>
   13d24:	00050713          	addi	a4,a0,0
   13d28:	340c4c63          	blt	s8,zero,14080 <__ieee754_rem_pio2+0x558>
   13d2c:	05c12083          	lw	ra,92(sp)
   13d30:	05812403          	lw	s0,88(sp)
   13d34:	05412483          	lw	s1,84(sp)
   13d38:	05012903          	lw	s2,80(sp)
   13d3c:	04c12983          	lw	s3,76(sp)
   13d40:	04812a03          	lw	s4,72(sp)
   13d44:	03812c03          	lw	s8,56(sp)
   13d48:	00070513          	addi	a0,a4,0
   13d4c:	06010113          	addi	sp,sp,96
   13d50:	00008067          	jalr	zero,0(ra)
   13d54:	00000713          	addi	a4,zero,0
   13d58:	00a62023          	sw	a0,0(a2)
   13d5c:	00b62223          	sw	a1,4(a2)
   13d60:	00062423          	sw	zero,8(a2)
   13d64:	00062623          	sw	zero,12(a2)
   13d68:	00070513          	addi	a0,a4,0
   13d6c:	00008067          	jalr	zero,0(ra)
   13d70:	00050613          	addi	a2,a0,0
   13d74:	00058693          	addi	a3,a1,0
   13d78:	679020ef          	jal	ra,16bf0 <__subdf3>
   13d7c:	00a42423          	sw	a0,8(s0)
   13d80:	00b42623          	sw	a1,12(s0)
   13d84:	00a42023          	sw	a0,0(s0)
   13d88:	00b42223          	sw	a1,4(s0)
   13d8c:	00000713          	addi	a4,zero,0
   13d90:	e5dff06f          	jal	zero,13bec <__ieee754_rem_pio2+0xc4>
   13d94:	1b81a603          	lw	a2,440(gp) # 299c8 <__global_pointer$+0x1b8>
   13d98:	1bc1a683          	lw	a3,444(gp) # 299cc <__global_pointer$+0x1bc>
   13d9c:	655020ef          	jal	ra,16bf0 <__subdf3>
   13da0:	1c01a603          	lw	a2,448(gp) # 299d0 <__global_pointer$+0x1c0>
   13da4:	1c41a683          	lw	a3,452(gp) # 299d4 <__global_pointer$+0x1c4>
   13da8:	00050913          	addi	s2,a0,0
   13dac:	00058993          	addi	s3,a1,0
   13db0:	641020ef          	jal	ra,16bf0 <__subdf3>
   13db4:	00050613          	addi	a2,a0,0
   13db8:	00058693          	addi	a3,a1,0
   13dbc:	00a12423          	sw	a0,8(sp)
   13dc0:	00b12223          	sw	a1,4(sp)
   13dc4:	00090513          	addi	a0,s2,0
   13dc8:	00098593          	addi	a1,s3,0
   13dcc:	625020ef          	jal	ra,16bf0 <__subdf3>
   13dd0:	1c01a603          	lw	a2,448(gp) # 299d0 <__global_pointer$+0x1c0>
   13dd4:	1c41a683          	lw	a3,452(gp) # 299d4 <__global_pointer$+0x1c4>
   13dd8:	619020ef          	jal	ra,16bf0 <__subdf3>
   13ddc:	00812703          	lw	a4,8(sp)
   13de0:	00412783          	lw	a5,4(sp)
   13de4:	dedff06f          	jal	zero,13bd0 <__ieee754_rem_pio2+0xa8>
   13de8:	00f12423          	sw	a5,8(sp)
   13dec:	04912a23          	sw	s1,84(sp)
   13df0:	05212823          	sw	s2,80(sp)
   13df4:	05312623          	sw	s3,76(sp)
   13df8:	05412423          	sw	s4,72(sp)
   13dfc:	05512223          	sw	s5,68(sp)
   13e00:	03712e23          	sw	s7,60(sp)
   13e04:	03912a23          	sw	s9,52(sp)
   13e08:	03a12823          	sw	s10,48(sp)
   13e0c:	f39fd0ef          	jal	ra,11d44 <fabs>
   13e10:	1c81a603          	lw	a2,456(gp) # 299d8 <__global_pointer$+0x1c8>
   13e14:	1cc1a683          	lw	a3,460(gp) # 299dc <__global_pointer$+0x1cc>
   13e18:	00050a13          	addi	s4,a0,0
   13e1c:	00058a93          	addi	s5,a1,0
   13e20:	7e8020ef          	jal	ra,16608 <__muldf3>
   13e24:	0401a603          	lw	a2,64(gp) # 29850 <__global_pointer$+0x40>
   13e28:	0441a683          	lw	a3,68(gp) # 29854 <__global_pointer$+0x44>
   13e2c:	7a4010ef          	jal	ra,155d0 <__adddf3>
   13e30:	568030ef          	jal	ra,17398 <__fixdfsi>
   13e34:	00a12223          	sw	a0,4(sp)
   13e38:	5dc030ef          	jal	ra,17414 <__floatsidf>
   13e3c:	1a81a603          	lw	a2,424(gp) # 299b8 <__global_pointer$+0x1a8>
   13e40:	1ac1a683          	lw	a3,428(gp) # 299bc <__global_pointer$+0x1ac>
   13e44:	00050993          	addi	s3,a0,0
   13e48:	00058913          	addi	s2,a1,0
   13e4c:	00050b93          	addi	s7,a0,0
   13e50:	00058493          	addi	s1,a1,0
   13e54:	7b4020ef          	jal	ra,16608 <__muldf3>
   13e58:	00050613          	addi	a2,a0,0
   13e5c:	00058693          	addi	a3,a1,0
   13e60:	000a0513          	addi	a0,s4,0
   13e64:	000a8593          	addi	a1,s5,0
   13e68:	589020ef          	jal	ra,16bf0 <__subdf3>
   13e6c:	1b01a603          	lw	a2,432(gp) # 299c0 <__global_pointer$+0x1b0>
   13e70:	1b41a683          	lw	a3,436(gp) # 299c4 <__global_pointer$+0x1b4>
   13e74:	00050893          	addi	a7,a0,0
   13e78:	00058813          	addi	a6,a1,0
   13e7c:	00098513          	addi	a0,s3,0
   13e80:	00090593          	addi	a1,s2,0
   13e84:	00088993          	addi	s3,a7,0
   13e88:	00080913          	addi	s2,a6,0
   13e8c:	00088c93          	addi	s9,a7,0
   13e90:	00080d13          	addi	s10,a6,0
   13e94:	774020ef          	jal	ra,16608 <__muldf3>
   13e98:	00058693          	addi	a3,a1,0
   13e9c:	00050613          	addi	a2,a0,0
   13ea0:	00050a13          	addi	s4,a0,0
   13ea4:	00058a93          	addi	s5,a1,0
   13ea8:	00098513          	addi	a0,s3,0
   13eac:	00090593          	addi	a1,s2,0
   13eb0:	541020ef          	jal	ra,16bf0 <__subdf3>
   13eb4:	00412703          	lw	a4,4(sp)
   13eb8:	01f00693          	addi	a3,zero,31
   13ebc:	00812783          	lw	a5,8(sp)
   13ec0:	00050893          	addi	a7,a0,0
   13ec4:	00058813          	addi	a6,a1,0
   13ec8:	02e6c463          	blt	a3,a4,13ef0 <__ieee754_rem_pio2+0x3c8>
   13ecc:	000286b7          	lui	a3,0x28
   13ed0:	62c68693          	addi	a3,a3,1580 # 2862c <npio2_hw>
   13ed4:	00271613          	slli	a2,a4,0x2
   13ed8:	00c686b3          	add	a3,a3,a2
   13edc:	ffc6a683          	lw	a3,-4(a3)
   13ee0:	00f68863          	beq	a3,a5,13ef0 <__ieee754_rem_pio2+0x3c8>
   13ee4:	00a42023          	sw	a0,0(s0)
   13ee8:	00b42223          	sw	a1,4(s0)
   13eec:	0fc0006f          	jal	zero,13fe8 <__ieee754_rem_pio2+0x4c0>
   13ef0:	0145d693          	srli	a3,a1,0x14
   13ef4:	4147d793          	srai	a5,a5,0x14
   13ef8:	7ff6f693          	andi	a3,a3,2047
   13efc:	40d786b3          	sub	a3,a5,a3
   13f00:	01000613          	addi	a2,zero,16
   13f04:	fed650e3          	bge	a2,a3,13ee4 <__ieee754_rem_pio2+0x3bc>
   13f08:	1b81a603          	lw	a2,440(gp) # 299c8 <__global_pointer$+0x1b8>
   13f0c:	1bc1a683          	lw	a3,444(gp) # 299cc <__global_pointer$+0x1bc>
   13f10:	000b8513          	addi	a0,s7,0
   13f14:	00048593          	addi	a1,s1,0
   13f18:	00e12423          	sw	a4,8(sp)
   13f1c:	00f12223          	sw	a5,4(sp)
   13f20:	05612023          	sw	s6,64(sp)
   13f24:	6e4020ef          	jal	ra,16608 <__muldf3>
   13f28:	00050a93          	addi	s5,a0,0
   13f2c:	00050613          	addi	a2,a0,0
   13f30:	00058693          	addi	a3,a1,0
   13f34:	00058b13          	addi	s6,a1,0
   13f38:	000c8513          	addi	a0,s9,0 # 40000 <__BSS_END__+0x1621c>
   13f3c:	000d0593          	addi	a1,s10,0
   13f40:	4b1020ef          	jal	ra,16bf0 <__subdf3>
   13f44:	00050613          	addi	a2,a0,0
   13f48:	00058693          	addi	a3,a1,0
   13f4c:	00050913          	addi	s2,a0,0
   13f50:	00058993          	addi	s3,a1,0
   13f54:	000c8513          	addi	a0,s9,0
   13f58:	000d0593          	addi	a1,s10,0
   13f5c:	495020ef          	jal	ra,16bf0 <__subdf3>
   13f60:	000a8613          	addi	a2,s5,0
   13f64:	000b0693          	addi	a3,s6,0
   13f68:	489020ef          	jal	ra,16bf0 <__subdf3>
   13f6c:	1c01a603          	lw	a2,448(gp) # 299d0 <__global_pointer$+0x1c0>
   13f70:	1c41a683          	lw	a3,452(gp) # 299d4 <__global_pointer$+0x1c4>
   13f74:	00050a13          	addi	s4,a0,0
   13f78:	00058a93          	addi	s5,a1,0
   13f7c:	000b8513          	addi	a0,s7,0
   13f80:	00048593          	addi	a1,s1,0
   13f84:	684020ef          	jal	ra,16608 <__muldf3>
   13f88:	000a0613          	addi	a2,s4,0
   13f8c:	000a8693          	addi	a3,s5,0
   13f90:	461020ef          	jal	ra,16bf0 <__subdf3>
   13f94:	00058693          	addi	a3,a1,0
   13f98:	00050613          	addi	a2,a0,0
   13f9c:	00050a13          	addi	s4,a0,0
   13fa0:	00058a93          	addi	s5,a1,0
   13fa4:	00090513          	addi	a0,s2,0
   13fa8:	00098593          	addi	a1,s3,0
   13fac:	445020ef          	jal	ra,16bf0 <__subdf3>
   13fb0:	00412783          	lw	a5,4(sp)
   13fb4:	0145d693          	srli	a3,a1,0x14
   13fb8:	7ff6f693          	andi	a3,a3,2047
   13fbc:	40d787b3          	sub	a5,a5,a3
   13fc0:	03100693          	addi	a3,zero,49
   13fc4:	00812703          	lw	a4,8(sp)
   13fc8:	00050893          	addi	a7,a0,0
   13fcc:	00058813          	addi	a6,a1,0
   13fd0:	0ef6c263          	blt	a3,a5,140b4 <__ieee754_rem_pio2+0x58c>
   13fd4:	04012b03          	lw	s6,64(sp)
   13fd8:	00a42023          	sw	a0,0(s0)
   13fdc:	00b42223          	sw	a1,4(s0)
   13fe0:	00090c93          	addi	s9,s2,0
   13fe4:	00098d13          	addi	s10,s3,0
   13fe8:	00088613          	addi	a2,a7,0
   13fec:	00080693          	addi	a3,a6,0
   13ff0:	000c8513          	addi	a0,s9,0
   13ff4:	000d0593          	addi	a1,s10,0
   13ff8:	00e12223          	sw	a4,4(sp)
   13ffc:	01112623          	sw	a7,12(sp)
   14000:	01012423          	sw	a6,8(sp)
   14004:	3ed020ef          	jal	ra,16bf0 <__subdf3>
   14008:	000a0613          	addi	a2,s4,0
   1400c:	000a8693          	addi	a3,s5,0
   14010:	3e1020ef          	jal	ra,16bf0 <__subdf3>
   14014:	00a42423          	sw	a0,8(s0)
   14018:	00b42623          	sw	a1,12(s0)
   1401c:	00412703          	lw	a4,4(sp)
   14020:	020c5463          	bge	s8,zero,14048 <__ieee754_rem_pio2+0x520>
   14024:	00812803          	lw	a6,8(sp)
   14028:	00c12883          	lw	a7,12(sp)
   1402c:	800007b7          	lui	a5,0x80000
   14030:	00f84833          	xor	a6,a6,a5
   14034:	00b7c7b3          	xor	a5,a5,a1
   14038:	01142023          	sw	a7,0(s0)
   1403c:	40e00733          	sub	a4,zero,a4
   14040:	01042223          	sw	a6,4(s0)
   14044:	00f42623          	sw	a5,12(s0)
   14048:	05c12083          	lw	ra,92(sp)
   1404c:	05812403          	lw	s0,88(sp)
   14050:	05412483          	lw	s1,84(sp)
   14054:	05012903          	lw	s2,80(sp)
   14058:	04c12983          	lw	s3,76(sp)
   1405c:	04812a03          	lw	s4,72(sp)
   14060:	04412a83          	lw	s5,68(sp)
   14064:	03c12b83          	lw	s7,60(sp)
   14068:	03412c83          	lw	s9,52(sp)
   1406c:	03012d03          	lw	s10,48(sp)
   14070:	03812c03          	lw	s8,56(sp)
   14074:	00070513          	addi	a0,a4,0
   14078:	06010113          	addi	sp,sp,96
   1407c:	00008067          	jalr	zero,0(ra)
   14080:	00442683          	lw	a3,4(s0)
   14084:	00c42783          	lw	a5,12(s0)
   14088:	80000637          	lui	a2,0x80000
   1408c:	00c6c6b3          	xor	a3,a3,a2
   14090:	00c7c7b3          	xor	a5,a5,a2
   14094:	05412483          	lw	s1,84(sp)
   14098:	05012903          	lw	s2,80(sp)
   1409c:	04c12983          	lw	s3,76(sp)
   140a0:	04812a03          	lw	s4,72(sp)
   140a4:	40a00733          	sub	a4,zero,a0
   140a8:	00d42223          	sw	a3,4(s0)
   140ac:	00f42623          	sw	a5,12(s0)
   140b0:	b3dff06f          	jal	zero,13bec <__ieee754_rem_pio2+0xc4>
   140b4:	1d01a603          	lw	a2,464(gp) # 299e0 <__global_pointer$+0x1d0>
   140b8:	1d41a683          	lw	a3,468(gp) # 299e4 <__global_pointer$+0x1d4>
   140bc:	00048593          	addi	a1,s1,0
   140c0:	000b8513          	addi	a0,s7,0
   140c4:	00e12223          	sw	a4,4(sp)
   140c8:	540020ef          	jal	ra,16608 <__muldf3>
   140cc:	00050a13          	addi	s4,a0,0
   140d0:	00058a93          	addi	s5,a1,0
   140d4:	00050613          	addi	a2,a0,0
   140d8:	00058693          	addi	a3,a1,0
   140dc:	00090513          	addi	a0,s2,0
   140e0:	00098593          	addi	a1,s3,0
   140e4:	30d020ef          	jal	ra,16bf0 <__subdf3>
   140e8:	00090813          	addi	a6,s2,0
   140ec:	00048b13          	addi	s6,s1,0
   140f0:	00050613          	addi	a2,a0,0
   140f4:	00058693          	addi	a3,a1,0
   140f8:	00050913          	addi	s2,a0,0
   140fc:	00058493          	addi	s1,a1,0
   14100:	00050c93          	addi	s9,a0,0
   14104:	00058d13          	addi	s10,a1,0
   14108:	00080513          	addi	a0,a6,0
   1410c:	00098593          	addi	a1,s3,0
   14110:	2e1020ef          	jal	ra,16bf0 <__subdf3>
   14114:	000a0613          	addi	a2,s4,0
   14118:	000a8693          	addi	a3,s5,0
   1411c:	2d5020ef          	jal	ra,16bf0 <__subdf3>
   14120:	1d81a603          	lw	a2,472(gp) # 299e8 <__global_pointer$+0x1d8>
   14124:	1dc1a683          	lw	a3,476(gp) # 299ec <__global_pointer$+0x1dc>
   14128:	00058a13          	addi	s4,a1,0
   1412c:	00050993          	addi	s3,a0,0
   14130:	000b0593          	addi	a1,s6,0
   14134:	000b8513          	addi	a0,s7,0
   14138:	4d0020ef          	jal	ra,16608 <__muldf3>
   1413c:	000a0693          	addi	a3,s4,0
   14140:	00098613          	addi	a2,s3,0
   14144:	2ad020ef          	jal	ra,16bf0 <__subdf3>
   14148:	00050613          	addi	a2,a0,0
   1414c:	00058693          	addi	a3,a1,0
   14150:	00050a13          	addi	s4,a0,0
   14154:	00058a93          	addi	s5,a1,0
   14158:	00090513          	addi	a0,s2,0
   1415c:	00048593          	addi	a1,s1,0
   14160:	291020ef          	jal	ra,16bf0 <__subdf3>
   14164:	00412703          	lw	a4,4(sp)
   14168:	04012b03          	lw	s6,64(sp)
   1416c:	00a42023          	sw	a0,0(s0)
   14170:	00050893          	addi	a7,a0,0
   14174:	00b42223          	sw	a1,4(s0)
   14178:	00058813          	addi	a6,a1,0
   1417c:	e6dff06f          	jal	zero,13fe8 <__ieee754_rem_pio2+0x4c0>
   14180:	1a81a603          	lw	a2,424(gp) # 299b8 <__global_pointer$+0x1a8>
   14184:	1ac1a683          	lw	a3,428(gp) # 299bc <__global_pointer$+0x1ac>
   14188:	448010ef          	jal	ra,155d0 <__adddf3>
   1418c:	00412783          	lw	a5,4(sp)
   14190:	3ff92737          	lui	a4,0x3ff92
   14194:	1fb70713          	addi	a4,a4,507 # 3ff921fb <__BSS_END__+0x3ff68417>
   14198:	00050913          	addi	s2,a0,0
   1419c:	00058993          	addi	s3,a1,0
   141a0:	06e78063          	beq	a5,a4,14200 <__ieee754_rem_pio2+0x6d8>
   141a4:	1b01a603          	lw	a2,432(gp) # 299c0 <__global_pointer$+0x1b0>
   141a8:	1b41a683          	lw	a3,436(gp) # 299c4 <__global_pointer$+0x1b4>
   141ac:	424010ef          	jal	ra,155d0 <__adddf3>
   141b0:	00050613          	addi	a2,a0,0
   141b4:	00058693          	addi	a3,a1,0
   141b8:	00a12423          	sw	a0,8(sp)
   141bc:	00b12223          	sw	a1,4(sp)
   141c0:	00090513          	addi	a0,s2,0
   141c4:	00098593          	addi	a1,s3,0
   141c8:	229020ef          	jal	ra,16bf0 <__subdf3>
   141cc:	1b01a603          	lw	a2,432(gp) # 299c0 <__global_pointer$+0x1b0>
   141d0:	1b41a683          	lw	a3,436(gp) # 299c4 <__global_pointer$+0x1b4>
   141d4:	3fc010ef          	jal	ra,155d0 <__adddf3>
   141d8:	00412783          	lw	a5,4(sp)
   141dc:	00812703          	lw	a4,8(sp)
   141e0:	00e42023          	sw	a4,0(s0)
   141e4:	05012903          	lw	s2,80(sp)
   141e8:	04c12983          	lw	s3,76(sp)
   141ec:	00f42223          	sw	a5,4(s0)
   141f0:	00a42423          	sw	a0,8(s0)
   141f4:	00b42623          	sw	a1,12(s0)
   141f8:	fff00713          	addi	a4,zero,-1
   141fc:	9f1ff06f          	jal	zero,13bec <__ieee754_rem_pio2+0xc4>
   14200:	1b81a603          	lw	a2,440(gp) # 299c8 <__global_pointer$+0x1b8>
   14204:	1bc1a683          	lw	a3,444(gp) # 299cc <__global_pointer$+0x1bc>
   14208:	3c8010ef          	jal	ra,155d0 <__adddf3>
   1420c:	1c01a603          	lw	a2,448(gp) # 299d0 <__global_pointer$+0x1c0>
   14210:	1c41a683          	lw	a3,452(gp) # 299d4 <__global_pointer$+0x1c4>
   14214:	00050913          	addi	s2,a0,0
   14218:	00058993          	addi	s3,a1,0
   1421c:	3b4010ef          	jal	ra,155d0 <__adddf3>
   14220:	00050613          	addi	a2,a0,0
   14224:	00058693          	addi	a3,a1,0
   14228:	00a12423          	sw	a0,8(sp)
   1422c:	00b12223          	sw	a1,4(sp)
   14230:	00090513          	addi	a0,s2,0
   14234:	00098593          	addi	a1,s3,0
   14238:	1b9020ef          	jal	ra,16bf0 <__subdf3>
   1423c:	1c01a603          	lw	a2,448(gp) # 299d0 <__global_pointer$+0x1c0>
   14240:	1c41a683          	lw	a3,452(gp) # 299d4 <__global_pointer$+0x1c4>
   14244:	38c010ef          	jal	ra,155d0 <__adddf3>
   14248:	00812703          	lw	a4,8(sp)
   1424c:	00412783          	lw	a5,4(sp)
   14250:	f91ff06f          	jal	zero,141e0 <__ieee754_rem_pio2+0x6b8>

00014254 <scalbn>:
   14254:	fe010113          	addi	sp,sp,-32
   14258:	4145d693          	srai	a3,a1,0x14
   1425c:	00112e23          	sw	ra,28(sp)
   14260:	7ff6f693          	andi	a3,a3,2047
   14264:	00058793          	addi	a5,a1,0
   14268:	00050713          	addi	a4,a0,0
   1426c:	00060813          	addi	a6,a2,0 # 80000000 <__BSS_END__+0x7ffd621c>
   14270:	0a069663          	bne	a3,zero,1431c <scalbn+0xc8>
   14274:	00159693          	slli	a3,a1,0x1
   14278:	0016d693          	srli	a3,a3,0x1
   1427c:	00a6e6b3          	or	a3,a3,a0
   14280:	08068663          	beq	a3,zero,1430c <scalbn+0xb8>
   14284:	1ec1a683          	lw	a3,492(gp) # 299fc <__global_pointer$+0x1ec>
   14288:	1e81a603          	lw	a2,488(gp) # 299f8 <__global_pointer$+0x1e8>
   1428c:	01012623          	sw	a6,12(sp)
   14290:	378020ef          	jal	ra,16608 <__muldf3>
   14294:	00c12803          	lw	a6,12(sp)
   14298:	ffff46b7          	lui	a3,0xffff4
   1429c:	cb068693          	addi	a3,a3,-848 # ffff3cb0 <__BSS_END__+0xfffc9ecc>
   142a0:	00050713          	addi	a4,a0,0
   142a4:	00058793          	addi	a5,a1,0
   142a8:	10d84463          	blt	a6,a3,143b0 <scalbn+0x15c>
   142ac:	4145d693          	srai	a3,a1,0x14
   142b0:	7ff6f693          	andi	a3,a3,2047
   142b4:	fca68693          	addi	a3,a3,-54
   142b8:	0000c637          	lui	a2,0xc
   142bc:	35060613          	addi	a2,a2,848 # c350 <exit-0x3d64>
   142c0:	09064263          	blt	a2,a6,14344 <scalbn+0xf0>
   142c4:	00d80833          	add	a6,a6,a3
   142c8:	7fe00693          	addi	a3,zero,2046
   142cc:	0706cc63          	blt	a3,a6,14344 <scalbn+0xf0>
   142d0:	0b004e63          	blt	zero,a6,1438c <scalbn+0x138>
   142d4:	fcb00693          	addi	a3,zero,-53
   142d8:	0ed84c63          	blt	a6,a3,143d0 <scalbn+0x17c>
   142dc:	801007b7          	lui	a5,0x80100
   142e0:	fff78793          	addi	a5,a5,-1 # 800fffff <__BSS_END__+0x800d621b>
   142e4:	00f5f5b3          	and	a1,a1,a5
   142e8:	03680813          	addi	a6,a6,54
   142ec:	2101a603          	lw	a2,528(gp) # 29a20 <__global_pointer$+0x210>
   142f0:	2141a683          	lw	a3,532(gp) # 29a24 <__global_pointer$+0x214>
   142f4:	01481813          	slli	a6,a6,0x14
   142f8:	00b86833          	or	a6,a6,a1
   142fc:	00070513          	addi	a0,a4,0
   14300:	00080593          	addi	a1,a6,0
   14304:	304020ef          	jal	ra,16608 <__muldf3>
   14308:	00050713          	addi	a4,a0,0
   1430c:	01c12083          	lw	ra,28(sp)
   14310:	00070513          	addi	a0,a4,0
   14314:	02010113          	addi	sp,sp,32
   14318:	00008067          	jalr	zero,0(ra)
   1431c:	7ff00613          	addi	a2,zero,2047
   14320:	f8c69ce3          	bne	a3,a2,142b8 <scalbn+0x64>
   14324:	00050613          	addi	a2,a0,0
   14328:	00058693          	addi	a3,a1,0
   1432c:	2a4010ef          	jal	ra,155d0 <__adddf3>
   14330:	01c12083          	lw	ra,28(sp)
   14334:	00050713          	addi	a4,a0,0
   14338:	00070513          	addi	a0,a4,0
   1433c:	02010113          	addi	sp,sp,32
   14340:	00008067          	jalr	zero,0(ra)
   14344:	1f81a503          	lw	a0,504(gp) # 29a08 <__global_pointer$+0x1f8>
   14348:	1fc1a583          	lw	a1,508(gp) # 29a0c <__global_pointer$+0x1fc>
   1434c:	0207c263          	blt	a5,zero,14370 <scalbn+0x11c>
   14350:	1f81a603          	lw	a2,504(gp) # 29a08 <__global_pointer$+0x1f8>
   14354:	1fc1a683          	lw	a3,508(gp) # 29a0c <__global_pointer$+0x1fc>
   14358:	2b0020ef          	jal	ra,16608 <__muldf3>
   1435c:	00050713          	addi	a4,a0,0
   14360:	01c12083          	lw	ra,28(sp)
   14364:	00070513          	addi	a0,a4,0
   14368:	02010113          	addi	sp,sp,32
   1436c:	00008067          	jalr	zero,0(ra)
   14370:	1f81a603          	lw	a2,504(gp) # 29a08 <__global_pointer$+0x1f8>
   14374:	1fc1a683          	lw	a3,508(gp) # 29a0c <__global_pointer$+0x1fc>
   14378:	2001a503          	lw	a0,512(gp) # 29a10 <__global_pointer$+0x200>
   1437c:	2041a583          	lw	a1,516(gp) # 29a14 <__global_pointer$+0x204>
   14380:	288020ef          	jal	ra,16608 <__muldf3>
   14384:	00050713          	addi	a4,a0,0
   14388:	fd9ff06f          	jal	zero,14360 <scalbn+0x10c>
   1438c:	01c12083          	lw	ra,28(sp)
   14390:	801007b7          	lui	a5,0x80100
   14394:	fff78793          	addi	a5,a5,-1 # 800fffff <__BSS_END__+0x800d621b>
   14398:	01481813          	slli	a6,a6,0x14
   1439c:	00f5f5b3          	and	a1,a1,a5
   143a0:	0105e5b3          	or	a1,a1,a6
   143a4:	00070513          	addi	a0,a4,0
   143a8:	02010113          	addi	sp,sp,32
   143ac:	00008067          	jalr	zero,0(ra)
   143b0:	1f01a603          	lw	a2,496(gp) # 29a00 <__global_pointer$+0x1f0>
   143b4:	1f41a683          	lw	a3,500(gp) # 29a04 <__global_pointer$+0x1f4>
   143b8:	250020ef          	jal	ra,16608 <__muldf3>
   143bc:	01c12083          	lw	ra,28(sp)
   143c0:	00050713          	addi	a4,a0,0
   143c4:	00070513          	addi	a0,a4,0
   143c8:	02010113          	addi	sp,sp,32
   143cc:	00008067          	jalr	zero,0(ra)
   143d0:	1f01a503          	lw	a0,496(gp) # 29a00 <__global_pointer$+0x1f0>
   143d4:	1f41a583          	lw	a1,500(gp) # 29a04 <__global_pointer$+0x1f4>
   143d8:	0007cc63          	blt	a5,zero,143f0 <scalbn+0x19c>
   143dc:	1f01a603          	lw	a2,496(gp) # 29a00 <__global_pointer$+0x1f0>
   143e0:	1f41a683          	lw	a3,500(gp) # 29a04 <__global_pointer$+0x1f4>
   143e4:	224020ef          	jal	ra,16608 <__muldf3>
   143e8:	00050713          	addi	a4,a0,0
   143ec:	f21ff06f          	jal	zero,1430c <scalbn+0xb8>
   143f0:	2081a503          	lw	a0,520(gp) # 29a18 <__global_pointer$+0x208>
   143f4:	20c1a583          	lw	a1,524(gp) # 29a1c <__global_pointer$+0x20c>
   143f8:	fe5ff06f          	jal	zero,143dc <scalbn+0x188>

000143fc <with_errno>:
   143fc:	fe010113          	addi	sp,sp,-32
   14400:	00812c23          	sw	s0,24(sp)
   14404:	00912a23          	sw	s1,20(sp)
   14408:	00112e23          	sw	ra,28(sp)
   1440c:	00050413          	addi	s0,a0,0
   14410:	00058493          	addi	s1,a1,0
   14414:	00c12623          	sw	a2,12(sp)
   14418:	320080ef          	jal	ra,1c738 <__errno>
   1441c:	00c12603          	lw	a2,12(sp)
   14420:	01c12083          	lw	ra,28(sp)
   14424:	00048593          	addi	a1,s1,0
   14428:	00c52023          	sw	a2,0(a0)
   1442c:	00040513          	addi	a0,s0,0
   14430:	01812403          	lw	s0,24(sp)
   14434:	01412483          	lw	s1,20(sp)
   14438:	02010113          	addi	sp,sp,32
   1443c:	00008067          	jalr	zero,0(ra)

00014440 <xflow>:
   14440:	fe010113          	addi	sp,sp,-32
   14444:	00112e23          	sw	ra,28(sp)
   14448:	04050263          	beq	a0,zero,1448c <xflow+0x4c>
   1444c:	800006b7          	lui	a3,0x80000
   14450:	00058713          	addi	a4,a1,0
   14454:	00d647b3          	xor	a5,a2,a3
   14458:	00e12423          	sw	a4,8(sp)
   1445c:	00f12623          	sw	a5,12(sp)
   14460:	00812303          	lw	t1,8(sp)
   14464:	00c12383          	lw	t2,12(sp)
   14468:	00058513          	addi	a0,a1,0
   1446c:	00060593          	addi	a1,a2,0
   14470:	00038693          	addi	a3,t2,0
   14474:	00030613          	addi	a2,t1,0
   14478:	190020ef          	jal	ra,16608 <__muldf3>
   1447c:	01c12083          	lw	ra,28(sp)
   14480:	02200613          	addi	a2,zero,34
   14484:	02010113          	addi	sp,sp,32
   14488:	f75ff06f          	jal	zero,143fc <with_errno>
   1448c:	00058713          	addi	a4,a1,0
   14490:	00060793          	addi	a5,a2,0
   14494:	fc5ff06f          	jal	zero,14458 <xflow+0x18>

00014498 <__math_uflow>:
   14498:	2181a583          	lw	a1,536(gp) # 29a28 <__global_pointer$+0x218>
   1449c:	21c1a603          	lw	a2,540(gp) # 29a2c <__global_pointer$+0x21c>
   144a0:	fa1ff06f          	jal	zero,14440 <xflow>

000144a4 <__math_may_uflow>:
   144a4:	2201a583          	lw	a1,544(gp) # 29a30 <__global_pointer$+0x220>
   144a8:	2241a603          	lw	a2,548(gp) # 29a34 <__global_pointer$+0x224>
   144ac:	f95ff06f          	jal	zero,14440 <xflow>

000144b0 <__math_oflow>:
   144b0:	2281a583          	lw	a1,552(gp) # 29a38 <__global_pointer$+0x228>
   144b4:	22c1a603          	lw	a2,556(gp) # 29a3c <__global_pointer$+0x22c>
   144b8:	f89ff06f          	jal	zero,14440 <xflow>

000144bc <__math_divzero>:
   144bc:	fe010113          	addi	sp,sp,-32
   144c0:	00112e23          	sw	ra,28(sp)
   144c4:	02050c63          	beq	a0,zero,144fc <__math_divzero+0x40>
   144c8:	ea81a703          	lw	a4,-344(gp) # 296b8 <__SDATA_BEGIN__>
   144cc:	eac1a783          	lw	a5,-340(gp) # 296bc <__SDATA_BEGIN__+0x4>
   144d0:	00e12423          	sw	a4,8(sp)
   144d4:	00f12623          	sw	a5,12(sp)
   144d8:	00812503          	lw	a0,8(sp)
   144dc:	00c12583          	lw	a1,12(sp)
   144e0:	00000613          	addi	a2,zero,0
   144e4:	00000693          	addi	a3,zero,0
   144e8:	035010ef          	jal	ra,15d1c <__divdf3>
   144ec:	01c12083          	lw	ra,28(sp)
   144f0:	02200613          	addi	a2,zero,34
   144f4:	02010113          	addi	sp,sp,32
   144f8:	f05ff06f          	jal	zero,143fc <with_errno>
   144fc:	ec01a703          	lw	a4,-320(gp) # 296d0 <__SDATA_BEGIN__+0x18>
   14500:	ec41a783          	lw	a5,-316(gp) # 296d4 <__SDATA_BEGIN__+0x1c>
   14504:	fcdff06f          	jal	zero,144d0 <__math_divzero+0x14>

00014508 <__math_invalid>:
   14508:	fe010113          	addi	sp,sp,-32
   1450c:	00050613          	addi	a2,a0,0
   14510:	00058693          	addi	a3,a1,0
   14514:	00112e23          	sw	ra,28(sp)
   14518:	00812c23          	sw	s0,24(sp)
   1451c:	00912a23          	sw	s1,20(sp)
   14520:	01212823          	sw	s2,16(sp)
   14524:	01312623          	sw	s3,12(sp)
   14528:	00050413          	addi	s0,a0,0
   1452c:	00058493          	addi	s1,a1,0
   14530:	6c0020ef          	jal	ra,16bf0 <__subdf3>
   14534:	00050613          	addi	a2,a0,0
   14538:	00058693          	addi	a3,a1,0
   1453c:	7e0010ef          	jal	ra,15d1c <__divdf3>
   14540:	00050913          	addi	s2,a0,0
   14544:	00058993          	addi	s3,a1,0
   14548:	00040613          	addi	a2,s0,0
   1454c:	00048693          	addi	a3,s1,0
   14550:	00040513          	addi	a0,s0,0
   14554:	00048593          	addi	a1,s1,0
   14558:	5f9020ef          	jal	ra,17350 <__unorddf2>
   1455c:	02051663          	bne	a0,zero,14588 <__math_invalid+0x80>
   14560:	01812403          	lw	s0,24(sp)
   14564:	01c12083          	lw	ra,28(sp)
   14568:	01412483          	lw	s1,20(sp)
   1456c:	00090513          	addi	a0,s2,0
   14570:	00098593          	addi	a1,s3,0
   14574:	01012903          	lw	s2,16(sp)
   14578:	00c12983          	lw	s3,12(sp)
   1457c:	02100613          	addi	a2,zero,33
   14580:	02010113          	addi	sp,sp,32
   14584:	e79ff06f          	jal	zero,143fc <with_errno>
   14588:	01c12083          	lw	ra,28(sp)
   1458c:	01812403          	lw	s0,24(sp)
   14590:	01412483          	lw	s1,20(sp)
   14594:	00090513          	addi	a0,s2,0
   14598:	00098593          	addi	a1,s3,0
   1459c:	01012903          	lw	s2,16(sp)
   145a0:	00c12983          	lw	s3,12(sp)
   145a4:	02010113          	addi	sp,sp,32
   145a8:	00008067          	jalr	zero,0(ra)

000145ac <__math_check_uflow>:
   145ac:	ff010113          	addi	sp,sp,-16
   145b0:	00000613          	addi	a2,zero,0
   145b4:	00000693          	addi	a3,zero,0
   145b8:	00812423          	sw	s0,8(sp)
   145bc:	00912223          	sw	s1,4(sp)
   145c0:	00112623          	sw	ra,12(sp)
   145c4:	00050413          	addi	s0,a0,0
   145c8:	00058493          	addi	s1,a1,0
   145cc:	609010ef          	jal	ra,163d4 <__eqdf2>
   145d0:	02050063          	beq	a0,zero,145f0 <__math_check_uflow+0x44>
   145d4:	00c12083          	lw	ra,12(sp)
   145d8:	00040513          	addi	a0,s0,0
   145dc:	00812403          	lw	s0,8(sp)
   145e0:	00048593          	addi	a1,s1,0
   145e4:	00412483          	lw	s1,4(sp)
   145e8:	01010113          	addi	sp,sp,16
   145ec:	00008067          	jalr	zero,0(ra)
   145f0:	00040513          	addi	a0,s0,0
   145f4:	00812403          	lw	s0,8(sp)
   145f8:	00c12083          	lw	ra,12(sp)
   145fc:	00048593          	addi	a1,s1,0
   14600:	00412483          	lw	s1,4(sp)
   14604:	02200613          	addi	a2,zero,34
   14608:	01010113          	addi	sp,sp,16
   1460c:	df1ff06f          	jal	zero,143fc <with_errno>

00014610 <__math_check_oflow>:
   14610:	fe010113          	addi	sp,sp,-32
   14614:	01412623          	sw	s4,12(sp)
   14618:	01512423          	sw	s5,8(sp)
   1461c:	2301aa03          	lw	s4,560(gp) # 29a40 <__global_pointer$+0x230>
   14620:	2341aa83          	lw	s5,564(gp) # 29a44 <__global_pointer$+0x234>
   14624:	01212823          	sw	s2,16(sp)
   14628:	00159913          	slli	s2,a1,0x1
   1462c:	00912a23          	sw	s1,20(sp)
   14630:	000a0613          	addi	a2,s4,0
   14634:	00058493          	addi	s1,a1,0
   14638:	000a8693          	addi	a3,s5,0
   1463c:	00195593          	srli	a1,s2,0x1
   14640:	00812c23          	sw	s0,24(sp)
   14644:	00112e23          	sw	ra,28(sp)
   14648:	00050413          	addi	s0,a0,0
   1464c:	505020ef          	jal	ra,17350 <__unorddf2>
   14650:	00051e63          	bne	a0,zero,1466c <__math_check_oflow+0x5c>
   14654:	00040513          	addi	a0,s0,0
   14658:	00195593          	srli	a1,s2,0x1
   1465c:	000a0613          	addi	a2,s4,0
   14660:	000a8693          	addi	a3,s5,0
   14664:	6cd010ef          	jal	ra,16530 <__ledf2>
   14668:	02a04663          	blt	zero,a0,14694 <__math_check_oflow+0x84>
   1466c:	01c12083          	lw	ra,28(sp)
   14670:	00040513          	addi	a0,s0,0
   14674:	01812403          	lw	s0,24(sp)
   14678:	01012903          	lw	s2,16(sp)
   1467c:	00c12a03          	lw	s4,12(sp)
   14680:	00812a83          	lw	s5,8(sp)
   14684:	00048593          	addi	a1,s1,0
   14688:	01412483          	lw	s1,20(sp)
   1468c:	02010113          	addi	sp,sp,32
   14690:	00008067          	jalr	zero,0(ra)
   14694:	00040513          	addi	a0,s0,0
   14698:	01812403          	lw	s0,24(sp)
   1469c:	01c12083          	lw	ra,28(sp)
   146a0:	01012903          	lw	s2,16(sp)
   146a4:	00c12a03          	lw	s4,12(sp)
   146a8:	00812a83          	lw	s5,8(sp)
   146ac:	00048593          	addi	a1,s1,0
   146b0:	01412483          	lw	s1,20(sp)
   146b4:	02200613          	addi	a2,zero,34
   146b8:	02010113          	addi	sp,sp,32
   146bc:	d41ff06f          	jal	zero,143fc <with_errno>

000146c0 <__kernel_rem_pio2>:
   146c0:	d4010113          	addi	sp,sp,-704
   146c4:	00271813          	slli	a6,a4,0x2
   146c8:	04e12223          	sw	a4,68(sp)
   146cc:	00028737          	lui	a4,0x28
   146d0:	7f870713          	addi	a4,a4,2040 # 287f8 <init_jk>
   146d4:	01070733          	add	a4,a4,a6
   146d8:	2a912a23          	sw	s1,692(sp)
   146dc:	00068813          	addi	a6,a3,0 # 80000000 <__BSS_END__+0x7ffd621c>
   146e0:	2b512223          	sw	s5,676(sp)
   146e4:	02d12c23          	sw	a3,56(sp)
   146e8:	2a112e23          	sw	ra,700(sp)
   146ec:	2a812c23          	sw	s0,696(sp)
   146f0:	2b212823          	sw	s2,688(sp)
   146f4:	2b312623          	sw	s3,684(sp)
   146f8:	2b412423          	sw	s4,680(sp)
   146fc:	2b612023          	sw	s6,672(sp)
   14700:	29712e23          	sw	s7,668(sp)
   14704:	29812c23          	sw	s8,664(sp)
   14708:	29912a23          	sw	s9,660(sp)
   1470c:	29a12823          	sw	s10,656(sp)
   14710:	29b12623          	sw	s11,652(sp)
   14714:	fec00693          	addi	a3,zero,-20
   14718:	00a12e23          	sw	a0,28(sp)
   1471c:	02b12023          	sw	a1,32(sp)
   14720:	02f12e23          	sw	a5,60(sp)
   14724:	00072483          	lw	s1,0(a4)
   14728:	fff80a93          	addi	s5,a6,-1
   1472c:	14d644e3          	blt	a2,a3,15074 <__kernel_rem_pio2+0x9b4>
   14730:	2aaab7b7          	lui	a5,0x2aaab
   14734:	ffd60713          	addi	a4,a2,-3
   14738:	aab78793          	addi	a5,a5,-1365 # 2aaaaaab <__BSS_END__+0x2aa80cc7>
   1473c:	02f717b3          	mulh	a5,a4,a5
   14740:	41f75713          	srai	a4,a4,0x1f
   14744:	4027d793          	srai	a5,a5,0x2
   14748:	40e787b3          	sub	a5,a5,a4
   1474c:	02f12223          	sw	a5,36(sp)
   14750:	00178793          	addi	a5,a5,1
   14754:	00279713          	slli	a4,a5,0x2
   14758:	40e787b3          	sub	a5,a5,a4
   1475c:	00379793          	slli	a5,a5,0x3
   14760:	01548733          	add	a4,s1,s5
   14764:	00f607b3          	add	a5,a2,a5
   14768:	04074c63          	blt	a4,zero,147c0 <__kernel_rem_pio2+0x100>
   1476c:	02412683          	lw	a3,36(sp)
   14770:	00170713          	addi	a4,a4,1
   14774:	0a010913          	addi	s2,sp,160
   14778:	41568433          	sub	s0,a3,s5
   1477c:	00870a33          	add	s4,a4,s0
   14780:	03c12703          	lw	a4,60(sp)
   14784:	00241993          	slli	s3,s0,0x2
   14788:	00078b13          	addi	s6,a5,0
   1478c:	013709b3          	add	s3,a4,s3
   14790:	00000513          	addi	a0,zero,0
   14794:	00000593          	addi	a1,zero,0
   14798:	00044663          	blt	s0,zero,147a4 <__kernel_rem_pio2+0xe4>
   1479c:	0009a503          	lw	a0,0(s3)
   147a0:	475020ef          	jal	ra,17414 <__floatsidf>
   147a4:	00a92023          	sw	a0,0(s2)
   147a8:	00b92223          	sw	a1,4(s2)
   147ac:	00140413          	addi	s0,s0,1
   147b0:	00890913          	addi	s2,s2,8
   147b4:	00498993          	addi	s3,s3,4
   147b8:	fd441ce3          	bne	s0,s4,14790 <__kernel_rem_pio2+0xd0>
   147bc:	000b0793          	addi	a5,s6,0
   147c0:	1e010713          	addi	a4,sp,480
   147c4:	00e12a23          	sw	a4,20(sp)
   147c8:	03812703          	lw	a4,56(sp)
   147cc:	00371a13          	slli	s4,a4,0x3
   147d0:	0204ca63          	blt	s1,zero,14804 <__kernel_rem_pio2+0x144>
   147d4:	01412d83          	lw	s11,20(sp)
   147d8:	09810d13          	addi	s10,sp,152
   147dc:	014d0d33          	add	s10,s10,s4
   147e0:	000a8413          	addi	s0,s5,0
   147e4:	00e488b3          	add	a7,s1,a4
   147e8:	7a0ad063          	bge	s5,zero,14f88 <__kernel_rem_pio2+0x8c8>
   147ec:	000da023          	sw	zero,0(s11)
   147f0:	000da223          	sw	zero,4(s11)
   147f4:	00140413          	addi	s0,s0,1
   147f8:	008d8d93          	addi	s11,s11,8
   147fc:	008d0d13          	addi	s10,s10,8
   14800:	ff1414e3          	bne	s0,a7,147e8 <__kernel_rem_pio2+0x128>
   14804:	2401a803          	lw	a6,576(gp) # 29a50 <__global_pointer$+0x240>
   14808:	2441a883          	lw	a7,580(gp) # 29a54 <__global_pointer$+0x244>
   1480c:	2481a503          	lw	a0,584(gp) # 29a58 <__global_pointer$+0x248>
   14810:	24c1a583          	lw	a1,588(gp) # 29a5c <__global_pointer$+0x24c>
   14814:	02b12a23          	sw	a1,52(sp)
   14818:	2381a583          	lw	a1,568(gp) # 29a48 <__global_pointer$+0x238>
   1481c:	23c1a603          	lw	a2,572(gp) # 29a4c <__global_pointer$+0x23c>
   14820:	00048c13          	addi	s8,s1,0
   14824:	00c12223          	sw	a2,4(sp)
   14828:	1e01a603          	lw	a2,480(gp) # 299f0 <__global_pointer$+0x1e0>
   1482c:	1e41a683          	lw	a3,484(gp) # 299f4 <__global_pointer$+0x1e4>
   14830:	00912c23          	sw	s1,24(sp)
   14834:	03012423          	sw	a6,40(sp)
   14838:	00d12623          	sw	a3,12(sp)
   1483c:	0401a683          	lw	a3,64(gp) # 29850 <__global_pointer$+0x40>
   14840:	0441a703          	lw	a4,68(gp) # 29854 <__global_pointer$+0x44>
   14844:	03112623          	sw	a7,44(sp)
   14848:	04d12423          	sw	a3,72(sp)
   1484c:	01c12683          	lw	a3,28(sp)
   14850:	04e12623          	sw	a4,76(sp)
   14854:	00249713          	slli	a4,s1,0x2
   14858:	01468433          	add	s0,a3,s4
   1485c:	04c10693          	addi	a3,sp,76
   14860:	00e68a33          	add	s4,a3,a4
   14864:	01c12483          	lw	s1,28(sp)
   14868:	04810693          	addi	a3,sp,72
   1486c:	00e68733          	add	a4,a3,a4
   14870:	02a12823          	sw	a0,48(sp)
   14874:	00b12023          	sw	a1,0(sp)
   14878:	00c12423          	sw	a2,8(sp)
   1487c:	04e12023          	sw	a4,64(sp)
   14880:	00f12823          	sw	a5,16(sp)
   14884:	003c1793          	slli	a5,s8,0x3
   14888:	00f12e23          	sw	a5,28(sp)
   1488c:	01412783          	lw	a5,20(sp)
   14890:	003c1713          	slli	a4,s8,0x3
   14894:	00e787b3          	add	a5,a5,a4
   14898:	0007ab83          	lw	s7,0(a5)
   1489c:	0047ac83          	lw	s9,4(a5)
   148a0:	09805663          	bge	zero,s8,1492c <__kernel_rem_pio2+0x26c>
   148a4:	01412783          	lw	a5,20(sp)
   148a8:	1d810893          	addi	a7,sp,472
   148ac:	00e88b33          	add	s6,a7,a4
   148b0:	05010d13          	addi	s10,sp,80
   148b4:	ff878d93          	addi	s11,a5,-8
   148b8:	00012603          	lw	a2,0(sp)
   148bc:	00412683          	lw	a3,4(sp)
   148c0:	000b8513          	addi	a0,s7,0
   148c4:	000c8593          	addi	a1,s9,0
   148c8:	541010ef          	jal	ra,16608 <__muldf3>
   148cc:	2cd020ef          	jal	ra,17398 <__fixdfsi>
   148d0:	345020ef          	jal	ra,17414 <__floatsidf>
   148d4:	00812603          	lw	a2,8(sp)
   148d8:	00c12683          	lw	a3,12(sp)
   148dc:	00050913          	addi	s2,a0,0
   148e0:	00058993          	addi	s3,a1,0
   148e4:	525010ef          	jal	ra,16608 <__muldf3>
   148e8:	00050613          	addi	a2,a0,0
   148ec:	00058693          	addi	a3,a1,0
   148f0:	000b8513          	addi	a0,s7,0
   148f4:	000c8593          	addi	a1,s9,0
   148f8:	2f8020ef          	jal	ra,16bf0 <__subdf3>
   148fc:	29d020ef          	jal	ra,17398 <__fixdfsi>
   14900:	000b2603          	lw	a2,0(s6)
   14904:	004b2683          	lw	a3,4(s6)
   14908:	00ad2023          	sw	a0,0(s10)
   1490c:	00098593          	addi	a1,s3,0
   14910:	00090513          	addi	a0,s2,0
   14914:	4bd000ef          	jal	ra,155d0 <__adddf3>
   14918:	ff8b0b13          	addi	s6,s6,-8
   1491c:	004d0d13          	addi	s10,s10,4
   14920:	00050b93          	addi	s7,a0,0
   14924:	00058c93          	addi	s9,a1,0
   14928:	f96d98e3          	bne	s11,s6,148b8 <__kernel_rem_pio2+0x1f8>
   1492c:	01012b03          	lw	s6,16(sp)
   14930:	000b8513          	addi	a0,s7,0
   14934:	000c8593          	addi	a1,s9,0
   14938:	000b0613          	addi	a2,s6,0
   1493c:	919ff0ef          	jal	ra,14254 <scalbn>
   14940:	02812603          	lw	a2,40(sp)
   14944:	02c12683          	lw	a3,44(sp)
   14948:	00050913          	addi	s2,a0,0
   1494c:	00058993          	addi	s3,a1,0
   14950:	4b9010ef          	jal	ra,16608 <__muldf3>
   14954:	271000ef          	jal	ra,153c4 <floor>
   14958:	03012603          	lw	a2,48(sp)
   1495c:	03412683          	lw	a3,52(sp)
   14960:	4a9010ef          	jal	ra,16608 <__muldf3>
   14964:	00050613          	addi	a2,a0,0
   14968:	00058693          	addi	a3,a1,0
   1496c:	00090513          	addi	a0,s2,0
   14970:	00098593          	addi	a1,s3,0
   14974:	27c020ef          	jal	ra,16bf0 <__subdf3>
   14978:	00058993          	addi	s3,a1,0
   1497c:	00050913          	addi	s2,a0,0
   14980:	219020ef          	jal	ra,17398 <__fixdfsi>
   14984:	00050d13          	addi	s10,a0,0
   14988:	28d020ef          	jal	ra,17414 <__floatsidf>
   1498c:	00050613          	addi	a2,a0,0
   14990:	00058693          	addi	a3,a1,0
   14994:	00090513          	addi	a0,s2,0
   14998:	00098593          	addi	a1,s3,0
   1499c:	254020ef          	jal	ra,16bf0 <__subdf3>
   149a0:	00050993          	addi	s3,a0,0
   149a4:	00058913          	addi	s2,a1,0
   149a8:	1b605863          	bge	zero,s6,14b58 <__kernel_rem_pio2+0x498>
   149ac:	fffc0793          	addi	a5,s8,-1
   149b0:	00279793          	slli	a5,a5,0x2
   149b4:	05078793          	addi	a5,a5,80
   149b8:	01012703          	lw	a4,16(sp)
   149bc:	002787b3          	add	a5,a5,sp
   149c0:	0007a683          	lw	a3,0(a5)
   149c4:	01800613          	addi	a2,zero,24
   149c8:	40e60633          	sub	a2,a2,a4
   149cc:	40c6d5b3          	sra	a1,a3,a2
   149d0:	00c59633          	sll	a2,a1,a2
   149d4:	01700d93          	addi	s11,zero,23
   149d8:	40c686b3          	sub	a3,a3,a2
   149dc:	40ed8db3          	sub	s11,s11,a4
   149e0:	00d7a023          	sw	a3,0(a5)
   149e4:	41b6ddb3          	sra	s11,a3,s11
   149e8:	00bd0d33          	add	s10,s10,a1
   149ec:	57b04863          	blt	zero,s11,14f5c <__kernel_rem_pio2+0x89c>
   149f0:	00098513          	addi	a0,s3,0
   149f4:	00090593          	addi	a1,s2,0
   149f8:	00000613          	addi	a2,zero,0
   149fc:	00000693          	addi	a3,zero,0
   14a00:	1d5010ef          	jal	ra,163d4 <__eqdf2>
   14a04:	26051063          	bne	a0,zero,14c64 <__kernel_rem_pio2+0x5a4>
   14a08:	01812783          	lw	a5,24(sp)
   14a0c:	0387d463          	bge	a5,s8,14a34 <__kernel_rem_pio2+0x374>
   14a10:	002c1513          	slli	a0,s8,0x2
   14a14:	04c10793          	addi	a5,sp,76
   14a18:	00a787b3          	add	a5,a5,a0
   14a1c:	00000693          	addi	a3,zero,0
   14a20:	0007a703          	lw	a4,0(a5)
   14a24:	ffc78793          	addi	a5,a5,-4
   14a28:	00e6e6b3          	or	a3,a3,a4
   14a2c:	ff479ae3          	bne	a5,s4,14a20 <__kernel_rem_pio2+0x360>
   14a30:	5e069463          	bne	a3,zero,15018 <__kernel_rem_pio2+0x958>
   14a34:	01812783          	lw	a5,24(sp)
   14a38:	001c0993          	addi	s3,s8,1
   14a3c:	00279793          	slli	a5,a5,0x2
   14a40:	002787b3          	add	a5,a5,sp
   14a44:	04c7a783          	lw	a5,76(a5)
   14a48:	52079c63          	bne	a5,zero,14f80 <__kernel_rem_pio2+0x8c0>
   14a4c:	04012783          	lw	a5,64(sp)
   14a50:	00100693          	addi	a3,zero,1
   14a54:	0007a703          	lw	a4,0(a5)
   14a58:	ffc78793          	addi	a5,a5,-4
   14a5c:	00168693          	addi	a3,a3,1
   14a60:	fe070ae3          	beq	a4,zero,14a54 <__kernel_rem_pio2+0x394>
   14a64:	00dc0cb3          	add	s9,s8,a3
   14a68:	02412783          	lw	a5,36(sp)
   14a6c:	03c12703          	lw	a4,60(sp)
   14a70:	01878933          	add	s2,a5,s8
   14a74:	03812783          	lw	a5,56(sp)
   14a78:	00470713          	addi	a4,a4,4
   14a7c:	00291913          	slli	s2,s2,0x2
   14a80:	018787b3          	add	a5,a5,s8
   14a84:	00379793          	slli	a5,a5,0x3
   14a88:	00e90933          	add	s2,s2,a4
   14a8c:	0a010713          	addi	a4,sp,160
   14a90:	00e78c33          	add	s8,a5,a4
   14a94:	01c12783          	lw	a5,28(sp)
   14a98:	1e810713          	addi	a4,sp,488
   14a9c:	01412e23          	sw	s4,28(sp)
   14aa0:	00f70bb3          	add	s7,a4,a5
   14aa4:	000c0a13          	addi	s4,s8,0
   14aa8:	00092503          	lw	a0,0(s2)
   14aac:	169020ef          	jal	ra,17414 <__floatsidf>
   14ab0:	00aa2023          	sw	a0,0(s4)
   14ab4:	00ba2223          	sw	a1,4(s4)
   14ab8:	060acc63          	blt	s5,zero,14b30 <__kernel_rem_pio2+0x470>
   14abc:	000a0c13          	addi	s8,s4,0
   14ac0:	00048d93          	addi	s11,s1,0
   14ac4:	00000d13          	addi	s10,zero,0
   14ac8:	00000b13          	addi	s6,zero,0
   14acc:	000c2603          	lw	a2,0(s8)
   14ad0:	004c2683          	lw	a3,4(s8)
   14ad4:	000da503          	lw	a0,0(s11)
   14ad8:	004da583          	lw	a1,4(s11)
   14adc:	008d8d93          	addi	s11,s11,8
   14ae0:	ff8c0c13          	addi	s8,s8,-8
   14ae4:	325010ef          	jal	ra,16608 <__muldf3>
   14ae8:	00050613          	addi	a2,a0,0
   14aec:	00058693          	addi	a3,a1,0
   14af0:	000d0513          	addi	a0,s10,0
   14af4:	000b0593          	addi	a1,s6,0
   14af8:	2d9000ef          	jal	ra,155d0 <__adddf3>
   14afc:	00050d13          	addi	s10,a0,0
   14b00:	00058b13          	addi	s6,a1,0
   14b04:	fc8d94e3          	bne	s11,s0,14acc <__kernel_rem_pio2+0x40c>
   14b08:	01aba023          	sw	s10,0(s7)
   14b0c:	016ba223          	sw	s6,4(s7)
   14b10:	00198993          	addi	s3,s3,1
   14b14:	00490913          	addi	s2,s2,4
   14b18:	008a0a13          	addi	s4,s4,8
   14b1c:	008b8b93          	addi	s7,s7,8
   14b20:	f93cd4e3          	bge	s9,s3,14aa8 <__kernel_rem_pio2+0x3e8>
   14b24:	01c12a03          	lw	s4,28(sp)
   14b28:	000c8c13          	addi	s8,s9,0
   14b2c:	d59ff06f          	jal	zero,14884 <__kernel_rem_pio2+0x1c4>
   14b30:	00000d13          	addi	s10,zero,0
   14b34:	00000b13          	addi	s6,zero,0
   14b38:	01aba023          	sw	s10,0(s7)
   14b3c:	016ba223          	sw	s6,4(s7)
   14b40:	00198993          	addi	s3,s3,1
   14b44:	00490913          	addi	s2,s2,4
   14b48:	008a0a13          	addi	s4,s4,8
   14b4c:	008b8b93          	addi	s7,s7,8
   14b50:	f53cdce3          	bge	s9,s3,14aa8 <__kernel_rem_pio2+0x3e8>
   14b54:	fd1ff06f          	jal	zero,14b24 <__kernel_rem_pio2+0x464>
   14b58:	01012783          	lw	a5,16(sp)
   14b5c:	3a078e63          	beq	a5,zero,14f18 <__kernel_rem_pio2+0x858>
   14b60:	04812603          	lw	a2,72(sp)
   14b64:	04c12683          	lw	a3,76(sp)
   14b68:	00000d93          	addi	s11,zero,0
   14b6c:	0ed010ef          	jal	ra,16458 <__gedf2>
   14b70:	e80540e3          	blt	a0,zero,149f0 <__kernel_rem_pio2+0x330>
   14b74:	001d0d13          	addi	s10,s10,1
   14b78:	00200d93          	addi	s11,zero,2
   14b7c:	3d805063          	bge	zero,s8,14f3c <__kernel_rem_pio2+0x87c>
   14b80:	05012c83          	lw	s9,80(sp)
   14b84:	05010793          	addi	a5,sp,80
   14b88:	00078693          	addi	a3,a5,0
   14b8c:	00000613          	addi	a2,zero,0
   14b90:	360c8863          	beq	s9,zero,14f00 <__kernel_rem_pio2+0x840>
   14b94:	010005b7          	lui	a1,0x1000
   14b98:	41958833          	sub	a6,a1,s9
   14b9c:	0106a023          	sw	a6,0(a3)
   14ba0:	fff58593          	addi	a1,a1,-1 # ffffff <__BSS_END__+0xfd621b>
   14ba4:	0100006f          	jal	zero,14bb4 <__kernel_rem_pio2+0x4f4>
   14ba8:	0007a703          	lw	a4,0(a5)
   14bac:	40e58733          	sub	a4,a1,a4
   14bb0:	00e7a023          	sw	a4,0(a5)
   14bb4:	00160613          	addi	a2,a2,1
   14bb8:	00478793          	addi	a5,a5,4
   14bbc:	ff8646e3          	blt	a2,s8,14ba8 <__kernel_rem_pio2+0x4e8>
   14bc0:	00100c93          	addi	s9,zero,1
   14bc4:	01012783          	lw	a5,16(sp)
   14bc8:	02f05863          	bge	zero,a5,14bf8 <__kernel_rem_pio2+0x538>
   14bcc:	01012703          	lw	a4,16(sp)
   14bd0:	00100793          	addi	a5,zero,1
   14bd4:	48f70263          	beq	a4,a5,15058 <__kernel_rem_pio2+0x998>
   14bd8:	00200793          	addi	a5,zero,2
   14bdc:	00f71e63          	bne	a4,a5,14bf8 <__kernel_rem_pio2+0x538>
   14be0:	002c1793          	slli	a5,s8,0x2
   14be4:	002787b3          	add	a5,a5,sp
   14be8:	04c7a683          	lw	a3,76(a5)
   14bec:	00a69693          	slli	a3,a3,0xa
   14bf0:	00a6d693          	srli	a3,a3,0xa
   14bf4:	04d7a623          	sw	a3,76(a5)
   14bf8:	00200793          	addi	a5,zero,2
   14bfc:	defd9ae3          	bne	s11,a5,149f0 <__kernel_rem_pio2+0x330>
   14c00:	ec01a503          	lw	a0,-320(gp) # 296d0 <__SDATA_BEGIN__+0x18>
   14c04:	ec41a583          	lw	a1,-316(gp) # 296d4 <__SDATA_BEGIN__+0x1c>
   14c08:	00098613          	addi	a2,s3,0
   14c0c:	00090693          	addi	a3,s2,0
   14c10:	7e1010ef          	jal	ra,16bf0 <__subdf3>
   14c14:	00050993          	addi	s3,a0,0
   14c18:	00058913          	addi	s2,a1,0
   14c1c:	dc0c8ae3          	beq	s9,zero,149f0 <__kernel_rem_pio2+0x330>
   14c20:	ec01a503          	lw	a0,-320(gp) # 296d0 <__SDATA_BEGIN__+0x18>
   14c24:	ec41a583          	lw	a1,-316(gp) # 296d4 <__SDATA_BEGIN__+0x1c>
   14c28:	01012603          	lw	a2,16(sp)
   14c2c:	e28ff0ef          	jal	ra,14254 <scalbn>
   14c30:	00050613          	addi	a2,a0,0
   14c34:	00058693          	addi	a3,a1,0
   14c38:	00098513          	addi	a0,s3,0
   14c3c:	00090593          	addi	a1,s2,0
   14c40:	7b1010ef          	jal	ra,16bf0 <__subdf3>
   14c44:	00050993          	addi	s3,a0,0
   14c48:	00058913          	addi	s2,a1,0
   14c4c:	00098513          	addi	a0,s3,0
   14c50:	00090593          	addi	a1,s2,0
   14c54:	00000613          	addi	a2,zero,0
   14c58:	00000693          	addi	a3,zero,0
   14c5c:	778010ef          	jal	ra,163d4 <__eqdf2>
   14c60:	da0504e3          	beq	a0,zero,14a08 <__kernel_rem_pio2+0x348>
   14c64:	01012783          	lw	a5,16(sp)
   14c68:	00098513          	addi	a0,s3,0
   14c6c:	00090593          	addi	a1,s2,0
   14c70:	40f00633          	sub	a2,zero,a5
   14c74:	01812483          	lw	s1,24(sp)
   14c78:	00f12023          	sw	a5,0(sp)
   14c7c:	dd8ff0ef          	jal	ra,14254 <scalbn>
   14c80:	1e01aa03          	lw	s4,480(gp) # 299f0 <__global_pointer$+0x1e0>
   14c84:	1e41aa83          	lw	s5,484(gp) # 299f4 <__global_pointer$+0x1e4>
   14c88:	00050913          	addi	s2,a0,0
   14c8c:	000a0613          	addi	a2,s4,0
   14c90:	000a8693          	addi	a3,s5,0
   14c94:	00058993          	addi	s3,a1,0
   14c98:	7c0010ef          	jal	ra,16458 <__gedf2>
   14c9c:	60054063          	blt	a0,zero,1529c <__kernel_rem_pio2+0xbdc>
   14ca0:	2381a603          	lw	a2,568(gp) # 29a48 <__global_pointer$+0x238>
   14ca4:	23c1a683          	lw	a3,572(gp) # 29a4c <__global_pointer$+0x23c>
   14ca8:	00090513          	addi	a0,s2,0
   14cac:	00098593          	addi	a1,s3,0
   14cb0:	159010ef          	jal	ra,16608 <__muldf3>
   14cb4:	6e4020ef          	jal	ra,17398 <__fixdfsi>
   14cb8:	00050413          	addi	s0,a0,0
   14cbc:	758020ef          	jal	ra,17414 <__floatsidf>
   14cc0:	000a0613          	addi	a2,s4,0
   14cc4:	000a8693          	addi	a3,s5,0
   14cc8:	141010ef          	jal	ra,16608 <__muldf3>
   14ccc:	00058693          	addi	a3,a1,0
   14cd0:	00050613          	addi	a2,a0,0
   14cd4:	00098593          	addi	a1,s3,0
   14cd8:	00090513          	addi	a0,s2,0
   14cdc:	715010ef          	jal	ra,16bf0 <__subdf3>
   14ce0:	6b8020ef          	jal	ra,17398 <__fixdfsi>
   14ce4:	00012783          	lw	a5,0(sp)
   14ce8:	002c1b13          	slli	s6,s8,0x2
   14cec:	001c0713          	addi	a4,s8,1
   14cf0:	002b0b33          	add	s6,s6,sp
   14cf4:	00271693          	slli	a3,a4,0x2
   14cf8:	04ab2823          	sw	a0,80(s6)
   14cfc:	002686b3          	add	a3,a3,sp
   14d00:	01878793          	addi	a5,a5,24
   14d04:	0486a823          	sw	s0,80(a3)
   14d08:	00e12023          	sw	a4,0(sp)
   14d0c:	ec01a503          	lw	a0,-320(gp) # 296d0 <__SDATA_BEGIN__+0x18>
   14d10:	ec41a583          	lw	a1,-316(gp) # 296d4 <__SDATA_BEGIN__+0x1c>
   14d14:	00078613          	addi	a2,a5,0
   14d18:	d3cff0ef          	jal	ra,14254 <scalbn>
   14d1c:	00012703          	lw	a4,0(sp)
   14d20:	00050413          	addi	s0,a0,0
   14d24:	00058a13          	addi	s4,a1,0
   14d28:	60074063          	blt	a4,zero,15328 <__kernel_rem_pio2+0xc68>
   14d2c:	01412783          	lw	a5,20(sp)
   14d30:	00371b93          	slli	s7,a4,0x3
   14d34:	01778b33          	add	s6,a5,s7
   14d38:	2381a903          	lw	s2,568(gp) # 29a48 <__global_pointer$+0x238>
   14d3c:	00271793          	slli	a5,a4,0x2
   14d40:	23c1a983          	lw	s3,572(gp) # 29a4c <__global_pointer$+0x23c>
   14d44:	05078793          	addi	a5,a5,80
   14d48:	000b0c13          	addi	s8,s6,0
   14d4c:	01712023          	sw	s7,0(sp)
   14d50:	00278ab3          	add	s5,a5,sp
   14d54:	000b0b93          	addi	s7,s6,0
   14d58:	04c10c93          	addi	s9,sp,76
   14d5c:	00070b13          	addi	s6,a4,0
   14d60:	000aa503          	lw	a0,0(s5)
   14d64:	ffca8a93          	addi	s5,s5,-4
   14d68:	ff8c0c13          	addi	s8,s8,-8
   14d6c:	6a8020ef          	jal	ra,17414 <__floatsidf>
   14d70:	00040613          	addi	a2,s0,0
   14d74:	000a0693          	addi	a3,s4,0
   14d78:	091010ef          	jal	ra,16608 <__muldf3>
   14d7c:	00050713          	addi	a4,a0,0
   14d80:	00058793          	addi	a5,a1,0
   14d84:	00040513          	addi	a0,s0,0
   14d88:	000a0593          	addi	a1,s4,0
   14d8c:	00ec2423          	sw	a4,8(s8)
   14d90:	00fc2623          	sw	a5,12(s8)
   14d94:	00090613          	addi	a2,s2,0
   14d98:	00098693          	addi	a3,s3,0
   14d9c:	06d010ef          	jal	ra,16608 <__muldf3>
   14da0:	00050413          	addi	s0,a0,0
   14da4:	00058a13          	addi	s4,a1,0
   14da8:	fb5c9ce3          	bne	s9,s5,14d60 <__kernel_rem_pio2+0x6a0>
   14dac:	000b0a93          	addi	s5,s6,0
   14db0:	000b8b13          	addi	s6,s7,0
   14db4:	00012b83          	lw	s7,0(sp)
   14db8:	14010a13          	addi	s4,sp,320
   14dbc:	01a12023          	sw	s10,0(sp)
   14dc0:	01b12423          	sw	s11,8(sp)
   14dc4:	01712823          	sw	s7,16(sp)
   14dc8:	000a0993          	addi	s3,s4,0
   14dcc:	00000913          	addi	s2,zero,0
   14dd0:	00028c37          	lui	s8,0x28
   14dd4:	0604cc63          	blt	s1,zero,14e4c <__kernel_rem_pio2+0x78c>
   14dd8:	7b8c0d93          	addi	s11,s8,1976 # 287b8 <PIo2>
   14ddc:	000b0d13          	addi	s10,s6,0
   14de0:	00000c93          	addi	s9,zero,0
   14de4:	00000413          	addi	s0,zero,0
   14de8:	00000b93          	addi	s7,zero,0
   14dec:	05794263          	blt	s2,s7,14e30 <__kernel_rem_pio2+0x770>
   14df0:	000d2603          	lw	a2,0(s10)
   14df4:	004d2683          	lw	a3,4(s10)
   14df8:	000da503          	lw	a0,0(s11)
   14dfc:	004da583          	lw	a1,4(s11)
   14e00:	001b8b93          	addi	s7,s7,1
   14e04:	008d8d93          	addi	s11,s11,8
   14e08:	001010ef          	jal	ra,16608 <__muldf3>
   14e0c:	00050613          	addi	a2,a0,0
   14e10:	00058693          	addi	a3,a1,0
   14e14:	000c8513          	addi	a0,s9,0
   14e18:	00040593          	addi	a1,s0,0
   14e1c:	7b4000ef          	jal	ra,155d0 <__adddf3>
   14e20:	008d0d13          	addi	s10,s10,8
   14e24:	00050c93          	addi	s9,a0,0
   14e28:	00058413          	addi	s0,a1,0
   14e2c:	fd74d0e3          	bge	s1,s7,14dec <__kernel_rem_pio2+0x72c>
   14e30:	0199a023          	sw	s9,0(s3)
   14e34:	0089a223          	sw	s0,4(s3)
   14e38:	ff8b0b13          	addi	s6,s6,-8
   14e3c:	00898993          	addi	s3,s3,8
   14e40:	03590463          	beq	s2,s5,14e68 <__kernel_rem_pio2+0x7a8>
   14e44:	00190913          	addi	s2,s2,1
   14e48:	f804d8e3          	bge	s1,zero,14dd8 <__kernel_rem_pio2+0x718>
   14e4c:	00000c93          	addi	s9,zero,0
   14e50:	00000413          	addi	s0,zero,0
   14e54:	0199a023          	sw	s9,0(s3)
   14e58:	0089a223          	sw	s0,4(s3)
   14e5c:	ff8b0b13          	addi	s6,s6,-8
   14e60:	00898993          	addi	s3,s3,8
   14e64:	ff5910e3          	bne	s2,s5,14e44 <__kernel_rem_pio2+0x784>
   14e68:	04412683          	lw	a3,68(sp)
   14e6c:	00200793          	addi	a5,zero,2
   14e70:	00012d03          	lw	s10,0(sp)
   14e74:	00812d83          	lw	s11,8(sp)
   14e78:	01012b83          	lw	s7,16(sp)
   14e7c:	000a8713          	addi	a4,s5,0
   14e80:	2ad7c863          	blt	a5,a3,15130 <__kernel_rem_pio2+0xa70>
   14e84:	1ed04e63          	blt	zero,a3,15080 <__kernel_rem_pio2+0x9c0>
   14e88:	02069c63          	bne	a3,zero,14ec0 <__kernel_rem_pio2+0x800>
   14e8c:	017a0ab3          	add	s5,s4,s7
   14e90:	ff8a0913          	addi	s2,s4,-8
   14e94:	00000513          	addi	a0,zero,0
   14e98:	00000593          	addi	a1,zero,0
   14e9c:	000aa603          	lw	a2,0(s5)
   14ea0:	004aa683          	lw	a3,4(s5)
   14ea4:	ff8a8a93          	addi	s5,s5,-8
   14ea8:	728000ef          	jal	ra,155d0 <__adddf3>
   14eac:	ff5918e3          	bne	s2,s5,14e9c <__kernel_rem_pio2+0x7dc>
   14eb0:	420d9e63          	bne	s11,zero,152ec <__kernel_rem_pio2+0xc2c>
   14eb4:	02012783          	lw	a5,32(sp)
   14eb8:	00a7a023          	sw	a0,0(a5)
   14ebc:	00b7a223          	sw	a1,4(a5)
   14ec0:	2bc12083          	lw	ra,700(sp)
   14ec4:	2b812403          	lw	s0,696(sp)
   14ec8:	2b412483          	lw	s1,692(sp)
   14ecc:	2b012903          	lw	s2,688(sp)
   14ed0:	2ac12983          	lw	s3,684(sp)
   14ed4:	2a812a03          	lw	s4,680(sp)
   14ed8:	2a412a83          	lw	s5,676(sp)
   14edc:	2a012b03          	lw	s6,672(sp)
   14ee0:	29c12b83          	lw	s7,668(sp)
   14ee4:	29812c03          	lw	s8,664(sp)
   14ee8:	29412c83          	lw	s9,660(sp)
   14eec:	28c12d83          	lw	s11,652(sp)
   14ef0:	007d7513          	andi	a0,s10,7
   14ef4:	29012d03          	lw	s10,656(sp)
   14ef8:	2c010113          	addi	sp,sp,704
   14efc:	00008067          	jalr	zero,0(ra)
   14f00:	00160613          	addi	a2,a2,1
   14f04:	00478793          	addi	a5,a5,4
   14f08:	cb865ee3          	bge	a2,s8,14bc4 <__kernel_rem_pio2+0x504>
   14f0c:	0007ac83          	lw	s9,0(a5)
   14f10:	00078693          	addi	a3,a5,0
   14f14:	c7dff06f          	jal	zero,14b90 <__kernel_rem_pio2+0x4d0>
   14f18:	002c1793          	slli	a5,s8,0x2
   14f1c:	002787b3          	add	a5,a5,sp
   14f20:	04c7ad83          	lw	s11,76(a5)
   14f24:	417ddd93          	srai	s11,s11,0x17
   14f28:	adb054e3          	bge	zero,s11,149f0 <__kernel_rem_pio2+0x330>
   14f2c:	001d0d13          	addi	s10,s10,1
   14f30:	c58048e3          	blt	zero,s8,14b80 <__kernel_rem_pio2+0x4c0>
   14f34:	00200793          	addi	a5,zero,2
   14f38:	aafd9ce3          	bne	s11,a5,149f0 <__kernel_rem_pio2+0x330>
   14f3c:	ec01a503          	lw	a0,-320(gp) # 296d0 <__SDATA_BEGIN__+0x18>
   14f40:	ec41a583          	lw	a1,-316(gp) # 296d4 <__SDATA_BEGIN__+0x1c>
   14f44:	00098613          	addi	a2,s3,0
   14f48:	00090693          	addi	a3,s2,0
   14f4c:	4a5010ef          	jal	ra,16bf0 <__subdf3>
   14f50:	00050993          	addi	s3,a0,0
   14f54:	00058913          	addi	s2,a1,0
   14f58:	a99ff06f          	jal	zero,149f0 <__kernel_rem_pio2+0x330>
   14f5c:	001d0d13          	addi	s10,s10,1
   14f60:	c38040e3          	blt	zero,s8,14b80 <__kernel_rem_pio2+0x4c0>
   14f64:	01012703          	lw	a4,16(sp)
   14f68:	00100613          	addi	a2,zero,1
   14f6c:	3ec70e63          	beq	a4,a2,15368 <__kernel_rem_pio2+0xca8>
   14f70:	00200613          	addi	a2,zero,2
   14f74:	3cc70e63          	beq	a4,a2,15350 <__kernel_rem_pio2+0xc90>
   14f78:	a6cd9ce3          	bne	s11,a2,149f0 <__kernel_rem_pio2+0x330>
   14f7c:	fc1ff06f          	jal	zero,14f3c <__kernel_rem_pio2+0x87c>
   14f80:	00098c93          	addi	s9,s3,0
   14f84:	ae5ff06f          	jal	zero,14a68 <__kernel_rem_pio2+0x3a8>
   14f88:	01c12703          	lw	a4,28(sp)
   14f8c:	00912023          	sw	s1,0(sp)
   14f90:	00078c13          	addi	s8,a5,0
   14f94:	014709b3          	add	s3,a4,s4
   14f98:	00088b13          	addi	s6,a7,0
   14f9c:	01412423          	sw	s4,8(sp)
   14fa0:	00070b93          	addi	s7,a4,0
   14fa4:	000d0a13          	addi	s4,s10,0
   14fa8:	000b8493          	addi	s1,s7,0
   14fac:	00000c93          	addi	s9,zero,0
   14fb0:	00000913          	addi	s2,zero,0
   14fb4:	000a2603          	lw	a2,0(s4)
   14fb8:	004a2683          	lw	a3,4(s4)
   14fbc:	0004a503          	lw	a0,0(s1)
   14fc0:	0044a583          	lw	a1,4(s1)
   14fc4:	00848493          	addi	s1,s1,8
   14fc8:	ff8a0a13          	addi	s4,s4,-8
   14fcc:	63c010ef          	jal	ra,16608 <__muldf3>
   14fd0:	00050613          	addi	a2,a0,0
   14fd4:	00058693          	addi	a3,a1,0
   14fd8:	000c8513          	addi	a0,s9,0
   14fdc:	00090593          	addi	a1,s2,0
   14fe0:	5f0000ef          	jal	ra,155d0 <__adddf3>
   14fe4:	00050c93          	addi	s9,a0,0
   14fe8:	00058913          	addi	s2,a1,0
   14fec:	fd3494e3          	bne	s1,s3,14fb4 <__kernel_rem_pio2+0x8f4>
   14ff0:	00ada023          	sw	a0,0(s11)
   14ff4:	00bda223          	sw	a1,4(s11)
   14ff8:	00140413          	addi	s0,s0,1
   14ffc:	008d8d93          	addi	s11,s11,8
   15000:	008d0d13          	addi	s10,s10,8
   15004:	fb6410e3          	bne	s0,s6,14fa4 <__kernel_rem_pio2+0x8e4>
   15008:	00012483          	lw	s1,0(sp)
   1500c:	00812a03          	lw	s4,8(sp)
   15010:	000c0793          	addi	a5,s8,0
   15014:	ff0ff06f          	jal	zero,14804 <__kernel_rem_pio2+0x144>
   15018:	fffc0713          	addi	a4,s8,-1
   1501c:	00271693          	slli	a3,a4,0x2
   15020:	002686b3          	add	a3,a3,sp
   15024:	01012783          	lw	a5,16(sp)
   15028:	0506a683          	lw	a3,80(a3)
   1502c:	01812483          	lw	s1,24(sp)
   15030:	fe878793          	addi	a5,a5,-24
   15034:	cc069ae3          	bne	a3,zero,14d08 <__kernel_rem_pio2+0x648>
   15038:	04810693          	addi	a3,sp,72
   1503c:	00a686b3          	add	a3,a3,a0
   15040:	0006a603          	lw	a2,0(a3)
   15044:	ffc68693          	addi	a3,a3,-4
   15048:	fff70713          	addi	a4,a4,-1
   1504c:	fe878793          	addi	a5,a5,-24
   15050:	fe0608e3          	beq	a2,zero,15040 <__kernel_rem_pio2+0x980>
   15054:	cb5ff06f          	jal	zero,14d08 <__kernel_rem_pio2+0x648>
   15058:	002c1793          	slli	a5,s8,0x2
   1505c:	002787b3          	add	a5,a5,sp
   15060:	04c7a683          	lw	a3,76(a5)
   15064:	00969693          	slli	a3,a3,0x9
   15068:	0096d693          	srli	a3,a3,0x9
