000100e0 <main>:
100e0:	fa010113          	addi	sp,sp,-96
100e4:	04112e23          	sw	ra,92(sp)
100e8:	04812c23          	sw	s0,88(sp)
100ec:	04912a23          	sw	s1,84(sp)
100f0:	05212823          	sw	s2,80(sp)
100f4:	05312623          	sw	s3,76(sp)
100f8:	05412423          	sw	s4,72(sp)
100fc:	05512223          	sw	s5,68(sp)
10100:	05612023          	sw	s6,64(sp)
10104:	03712e23          	sw	s7,60(sp)
10108:	03812c23          	sw	s8,56(sp)
1010c:	03912a23          	sw	s9,52(sp)
10110:	03a12823          	sw	s10,48(sp)
10114:	03b12623          	sw	s11,44(sp)
10118:	00100793          	addi	a5,zero,1
1011c:	1ca7da63          	bge	a5,a0,102f0 <main+0x210>
10120:	0045a503          	lw	a0,4(a1)
10124:	00000993          	addi	s3,zero,0
10128:	00000c13          	addi	s8,zero,0
1012c:	1a8010ef          	jal	ra,112d4 <atoi>
10130:	00050413          	addi	s0,a0,0
10134:	00a12423          	sw	a0,8(sp)
10138:	00023537          	lui	a0,0x23
1013c:	bd850513          	addi	a0,a0,-1064 # 22bd8 <bits+0x120>
10140:	6e5020ef          	jal	ra,13024 <puts>
10144:	00812683          	lw	a3,8(sp)
10148:	00141793          	slli	a5,s0,0x1
1014c:	00d787b3          	add	a5,a5,a3
10150:	000236b7          	lui	a3,0x23
10154:	ea81ad03          	lw	s10,-344(gp) # 24bf8 <__SDATA_BEGIN__>
10158:	eac1ac83          	lw	s9,-340(gp) # 24bfc <__SDATA_BEGIN__+0x4>
1015c:	e7068713          	addi	a4,a3,-400 # 22e70 <text.0>
10160:	00812683          	lw	a3,8(sp)
10164:	00279793          	slli	a5,a5,0x2
10168:	00e12e23          	sw	a4,28(sp)
1016c:	00d787b3          	add	a5,a5,a3
10170:	00f12823          	sw	a5,16(sp)
10174:	01c12783          	lw	a5,28(sp)
10178:	eb01a583          	lw	a1,-336(gp) # 24c00 <__SDATA_BEGIN__+0x8>
1017c:	eb41a603          	lw	a2,-332(gp) # 24c04 <__SDATA_BEGIN__+0xc>
10180:	00023737          	lui	a4,0x23
10184:	00078a13          	addi	s4,a5,0
10188:	01c78a93          	addi	s5,a5,28
1018c:	bfc70793          	addi	a5,a4,-1028 # 22bfc <bits+0x144>
10190:	00b12023          	sw	a1,0(sp)
10194:	00c12223          	sw	a2,4(sp)
10198:	00f12623          	sw	a5,12(sp)
1019c:	00000b93          	addi	s7,zero,0
101a0:	205030ef          	jal	ra,13ba4 <clock>
101a4:	00050b13          	addi	s6,a0,0
101a8:	1ed010ef          	jal	ra,11b94 <rand>
101ac:	00812783          	lw	a5,8(sp)
101b0:	00050d93          	addi	s11,a0,0
101b4:	12f05a63          	bge	zero,a5,102e8 <main+0x208>
101b8:	01012783          	lw	a5,16(sp)
101bc:	000aa903          	lw	s2,0(s5)
101c0:	00000413          	addi	s0,zero,0
101c4:	00f504b3          	add	s1,a0,a5
101c8:	000d8513          	addi	a0,s11,0
101cc:	000900e7          	jalr	ra,0(s2)
101d0:	00dd8d93          	addi	s11,s11,13
101d4:	00a40433          	add	s0,s0,a0
101d8:	ffb498e3          	bne	s1,s11,101c8 <main+0xe8>
101dc:	1c9030ef          	jal	ra,13ba4 <clock>
101e0:	41650533          	sub	a0,a0,s6
101e4:	028010ef          	jal	ra,1120c <__floatunsidf>
101e8:	00012603          	lw	a2,0(sp)
101ec:	00412683          	lw	a3,4(sp)
101f0:	7b4000ef          	jal	ra,109a4 <__divdf3>
101f4:	000d0613          	addi	a2,s10,0
101f8:	000c8693          	addi	a3,s9,0
101fc:	00050913          	addi	s2,a0,0
10200:	00058493          	addi	s1,a1,0
10204:	731000ef          	jal	ra,11134 <__ledf2>
10208:	00055863          	bge	a0,zero,10218 <main+0x138>
1020c:	01312a23          	sw	s3,20(sp)
10210:	00090d13          	addi	s10,s2,0
10214:	00048c93          	addi	s9,s1,0
10218:	000c0613          	addi	a2,s8,0
1021c:	00090513          	addi	a0,s2,0
10220:	000b8693          	addi	a3,s7,0
10224:	00048593          	addi	a1,s1,0
10228:	635000ef          	jal	ra,1105c <__gedf2>
1022c:	00a05863          	bge	zero,a0,1023c <main+0x15c>
10230:	01312c23          	sw	s3,24(sp)
10234:	00090c13          	addi	s8,s2,0
10238:	00048b93          	addi	s7,s1,0
1023c:	000a2583          	lw	a1,0(s4)
10240:	00c12503          	lw	a0,12(sp)
10244:	00090613          	addi	a2,s2,0
10248:	00048693          	addi	a3,s1,0
1024c:	00040713          	addi	a4,s0,0
10250:	305020ef          	jal	ra,12d54 <printf>
10254:	00198993          	addi	s3,s3,1
10258:	00700793          	addi	a5,zero,7
1025c:	004a0a13          	addi	s4,s4,4
10260:	004a8a93          	addi	s5,s5,4
10264:	f2f99ee3          	bne	s3,a5,101a0 <main+0xc0>
10268:	01412783          	lw	a5,20(sp)
1026c:	01c12703          	lw	a4,28(sp)
10270:	00023537          	lui	a0,0x23
10274:	00279793          	slli	a5,a5,0x2
10278:	00f707b3          	add	a5,a4,a5
1027c:	0007a583          	lw	a1,0(a5)
10280:	c2050513          	addi	a0,a0,-992 # 22c20 <bits+0x168>
10284:	2d1020ef          	jal	ra,12d54 <printf>
10288:	01812783          	lw	a5,24(sp)
1028c:	01c12703          	lw	a4,28(sp)
10290:	00023537          	lui	a0,0x23
10294:	00279793          	slli	a5,a5,0x2
10298:	00f707b3          	add	a5,a4,a5
1029c:	0007a583          	lw	a1,0(a5)
102a0:	c3050513          	addi	a0,a0,-976 # 22c30 <bits+0x178>
102a4:	2b1020ef          	jal	ra,12d54 <printf>
102a8:	05c12083          	lw	ra,92(sp)
102ac:	05812403          	lw	s0,88(sp)
102b0:	05412483          	lw	s1,84(sp)
102b4:	05012903          	lw	s2,80(sp)
102b8:	04c12983          	lw	s3,76(sp)
102bc:	04812a03          	lw	s4,72(sp)
102c0:	04412a83          	lw	s5,68(sp)
102c4:	04012b03          	lw	s6,64(sp)
102c8:	03c12b83          	lw	s7,60(sp)
102cc:	03812c03          	lw	s8,56(sp)
102d0:	03412c83          	lw	s9,52(sp)
102d4:	03012d03          	lw	s10,48(sp)
102d8:	02c12d83          	lw	s11,44(sp)
102dc:	00000513          	addi	a0,zero,0
102e0:	06010113          	addi	sp,sp,96
102e4:	00008067          	jalr	zero,0(ra)
102e8:	00000413          	addi	s0,zero,0
102ec:	ef1ff06f          	jal	zero,101dc <main+0xfc>
102f0:	f241a703          	lw	a4,-220(gp) # 24c74 <_impure_ptr>
102f4:	00023537          	lui	a0,0x23
102f8:	00078593          	addi	a1,a5,0
102fc:	00c72683          	lw	a3,12(a4)
10300:	bb850513          	addi	a0,a0,-1096 # 22bb8 <bits+0x100>
10304:	01c00613          	addi	a2,zero,28
10308:	105020ef          	jal	ra,12c0c <fwrite>
1030c:	fff00513          	addi	a0,zero,-1
10310:	da5ff0ef          	jal	ra,100b4 <exit>
