
./dijkstra_small_O3:     file format elf32-littleriscv


Disassembly of section .text:

000100b4 <exit>:
   100b4:	ff010113          	addi	sp,sp,-16
   100b8:	00000593          	addi	a1,zero,0
   100bc:	00812423          	sw	s0,8(sp)
   100c0:	00112623          	sw	ra,12(sp)
   100c4:	00050413          	addi	s0,a0,0
   100c8:	068010ef          	jal	ra,11130 <__call_exitprocs>
   100cc:	8381a783          	lw	a5,-1992(gp) # 1d848 <__stdio_exit_handler>
   100d0:	00078463          	beq	a5,zero,100d8 <exit+0x24>
   100d4:	000780e7          	jalr	ra,0(a5)
   100d8:	00040513          	addi	a0,s0,0
   100dc:	434020ef          	jal	ra,12510 <_exit>

000100e0 <main>:
   100e0:	ffff72b7          	lui	t0,0xffff7
   100e4:	81010113          	addi	sp,sp,-2032
   100e8:	b9028293          	addi	t0,t0,-1136 # ffff6b90 <__BSS_END__+0xfffb1c00>
   100ec:	000127b7          	lui	a5,0x12
   100f0:	0000a6b7          	lui	a3,0xa
   100f4:	7e112623          	sw	ra,2028(sp)
   100f8:	7e812423          	sw	s0,2024(sp)
   100fc:	7e912223          	sw	s1,2020(sp)
   10100:	7f212023          	sw	s2,2016(sp)
   10104:	7d312e23          	sw	s3,2012(sp)
   10108:	7d412c23          	sw	s4,2008(sp)
   1010c:	68478793          	addi	a5,a5,1668 # 12684 <__errno+0xc>
   10110:	00510133          	add	sp,sp,t0
   10114:	c4068693          	addi	a3,a3,-960 # 9c40 <exit-0x6474>
   10118:	00010713          	addi	a4,sp,0
   1011c:	00d786b3          	add	a3,a5,a3
   10120:	8201aa23          	sw	zero,-1996(gp) # 1d844 <qFront>
   10124:	8201a823          	sw	zero,-2000(gp) # 1d840 <qRear>
   10128:	8201a623          	sw	zero,-2004(gp) # 1d83c <g_qCount>
   1012c:	0007a803          	lw	a6,0(a5)
   10130:	0047a503          	lw	a0,4(a5)
   10134:	0087a583          	lw	a1,8(a5)
   10138:	00c7a603          	lw	a2,12(a5)
   1013c:	01072023          	sw	a6,0(a4)
   10140:	00a72223          	sw	a0,4(a4)
   10144:	00b72423          	sw	a1,8(a4)
   10148:	00c72623          	sw	a2,12(a4)
   1014c:	01078793          	addi	a5,a5,16
   10150:	01070713          	addi	a4,a4,16
   10154:	fcd79ce3          	bne	a5,a3,1012c <main+0x4c>
   10158:	0000a6b7          	lui	a3,0xa
   1015c:	c4068693          	addi	a3,a3,-960 # 9c40 <exit-0x6474>
   10160:	0001e737          	lui	a4,0x1e
   10164:	00010793          	addi	a5,sp,0
   10168:	00d106b3          	add	a3,sp,a3
   1016c:	ba070713          	addi	a4,a4,-1120 # 1dba0 <AdjMatrix>
   10170:	0087a603          	lw	a2,8(a5)
   10174:	0007a503          	lw	a0,0(a5)
   10178:	0047a583          	lw	a1,4(a5)
   1017c:	00c72423          	sw	a2,8(a4)
   10180:	00a72023          	sw	a0,0(a4)
   10184:	00b72223          	sw	a1,4(a4)
   10188:	00c7a603          	lw	a2,12(a5)
   1018c:	01078793          	addi	a5,a5,16
   10190:	01070713          	addi	a4,a4,16
   10194:	fec72e23          	sw	a2,-4(a4)
   10198:	fcd79ce3          	bne	a5,a3,10170 <main+0x90>
   1019c:	51eb8937          	lui	s2,0x51eb8
   101a0:	51f90913          	addi	s2,s2,1311 # 51eb851f <__BSS_END__+0x51e7358f>
   101a4:	03200793          	addi	a5,zero,50
   101a8:	00000493          	addi	s1,zero,0
   101ac:	06400a13          	addi	s4,zero,100
   101b0:	01400993          	addi	s3,zero,20
   101b4:	03279433          	mulh	s0,a5,s2
   101b8:	41f7d713          	srai	a4,a5,0x1f
   101bc:	00048513          	addi	a0,s1,0
   101c0:	00148493          	addi	s1,s1,1
   101c4:	40545413          	srai	s0,s0,0x5
   101c8:	40e40433          	sub	s0,s0,a4
   101cc:	03440433          	mul	s0,s0,s4
   101d0:	40878433          	sub	s0,a5,s0
   101d4:	00040593          	addi	a1,s0,0
   101d8:	328000ef          	jal	ra,10500 <dijkstra>
   101dc:	00140793          	addi	a5,s0,1
   101e0:	fd349ae3          	bne	s1,s3,101b4 <main+0xd4>
   101e4:	000092b7          	lui	t0,0x9
   101e8:	47028293          	addi	t0,t0,1136 # 9470 <exit-0x6c44>
   101ec:	8101a503          	lw	a0,-2032(gp) # 1d820 <result_sink>
   101f0:	00510133          	add	sp,sp,t0
   101f4:	7ec12083          	lw	ra,2028(sp)
   101f8:	7e812403          	lw	s0,2024(sp)
   101fc:	7e412483          	lw	s1,2020(sp)
   10200:	7e012903          	lw	s2,2016(sp)
   10204:	7dc12983          	lw	s3,2012(sp)
   10208:	7d812a03          	lw	s4,2008(sp)
   1020c:	00152513          	slti	a0,a0,1
   10210:	7f010113          	addi	sp,sp,2032
   10214:	00008067          	jalr	zero,0(ra)

00010218 <register_fini>:
   10218:	00000793          	addi	a5,zero,0
   1021c:	00078863          	beq	a5,zero,1022c <register_fini+0x14>
   10220:	00012537          	lui	a0,0x12
   10224:	3dc50513          	addi	a0,a0,988 # 123dc <__libc_fini_array>
   10228:	03c0106f          	jal	zero,11264 <atexit>
   1022c:	00008067          	jalr	zero,0(ra)

00010230 <_start>:
   10230:	0000e197          	auipc	gp,0xe
   10234:	de018193          	addi	gp,gp,-544 # 1e010 <__global_pointer$>
   10238:	0000d517          	auipc	a0,0xd
   1023c:	5e850513          	addi	a0,a0,1512 # 1d820 <result_sink>
   10240:	00035617          	auipc	a2,0x35
   10244:	d5060613          	addi	a2,a2,-688 # 44f90 <__BSS_END__>
   10248:	40a60633          	sub	a2,a2,a0
   1024c:	00000593          	addi	a1,zero,0
   10250:	605000ef          	jal	ra,11054 <memset>
   10254:	00001517          	auipc	a0,0x1
   10258:	01050513          	addi	a0,a0,16 # 11264 <atexit>
   1025c:	00050863          	beq	a0,zero,1026c <_start+0x3c>
   10260:	00002517          	auipc	a0,0x2
   10264:	17c50513          	addi	a0,a0,380 # 123dc <__libc_fini_array>
   10268:	7fd000ef          	jal	ra,11264 <atexit>
   1026c:	555000ef          	jal	ra,10fc0 <__libc_init_array>
   10270:	00012503          	lw	a0,0(sp)
   10274:	00410593          	addi	a1,sp,4
   10278:	00000613          	addi	a2,zero,0
   1027c:	e65ff0ef          	jal	ra,100e0 <main>
   10280:	e35ff06f          	jal	zero,100b4 <exit>

00010284 <__do_global_dtors_aux>:
   10284:	ff010113          	addi	sp,sp,-16
   10288:	00812423          	sw	s0,8(sp)
   1028c:	8541c783          	lbu	a5,-1964(gp) # 1d864 <completed.1>
   10290:	00112623          	sw	ra,12(sp)
   10294:	02079263          	bne	a5,zero,102b8 <__do_global_dtors_aux+0x34>
   10298:	00000793          	addi	a5,zero,0
   1029c:	00078a63          	beq	a5,zero,102b0 <__do_global_dtors_aux+0x2c>
   102a0:	0001c537          	lui	a0,0x1c
   102a4:	2c450513          	addi	a0,a0,708 # 1c2c4 <__EH_FRAME_BEGIN__>
   102a8:	00000097          	auipc	ra,0x0
   102ac:	000000e7          	jalr	ra,0(zero) # 0 <exit-0x100b4>
   102b0:	00100793          	addi	a5,zero,1
   102b4:	84f18a23          	sb	a5,-1964(gp) # 1d864 <completed.1>
   102b8:	00c12083          	lw	ra,12(sp)
   102bc:	00812403          	lw	s0,8(sp)
   102c0:	01010113          	addi	sp,sp,16
   102c4:	00008067          	jalr	zero,0(ra) # 102a8 <__do_global_dtors_aux+0x24>

000102c8 <frame_dummy>:
   102c8:	00000793          	addi	a5,zero,0
   102cc:	00078c63          	beq	a5,zero,102e4 <frame_dummy+0x1c>
   102d0:	0001c537          	lui	a0,0x1c
   102d4:	85818593          	addi	a1,gp,-1960 # 1d868 <object.0>
   102d8:	2c450513          	addi	a0,a0,708 # 1c2c4 <__EH_FRAME_BEGIN__>
   102dc:	00000317          	auipc	t1,0x0
   102e0:	00000067          	jalr	zero,0(zero) # 0 <exit-0x100b4>
   102e4:	00008067          	jalr	zero,0(ra)

000102e8 <print_path>:
   102e8:	00359793          	slli	a5,a1,0x3
   102ec:	00f507b3          	add	a5,a0,a5
   102f0:	0047a703          	lw	a4,4(a5)
   102f4:	000027b7          	lui	a5,0x2
   102f8:	70f78793          	addi	a5,a5,1807 # 270f <exit-0xd9a5>
   102fc:	00058613          	addi	a2,a1,0
   10300:	00f71a63          	bne	a4,a5,10314 <print_path+0x2c>
   10304:	8101a583          	lw	a1,-2032(gp) # 1d820 <result_sink>
   10308:	00c585b3          	add	a1,a1,a2
   1030c:	80b1a823          	sw	a1,-2032(gp) # 1d820 <result_sink>
   10310:	00008067          	jalr	zero,0(ra)
   10314:	00371593          	slli	a1,a4,0x3
   10318:	00b505b3          	add	a1,a0,a1
   1031c:	0045a803          	lw	a6,4(a1)
   10320:	02f81063          	bne	a6,a5,10340 <print_path+0x58>
   10324:	8101a683          	lw	a3,-2032(gp) # 1d820 <result_sink>
   10328:	00d70733          	add	a4,a4,a3
   1032c:	80e1a823          	sw	a4,-2032(gp) # 1d820 <result_sink>
   10330:	8101a583          	lw	a1,-2032(gp) # 1d820 <result_sink>
   10334:	00c585b3          	add	a1,a1,a2
   10338:	80b1a823          	sw	a1,-2032(gp) # 1d820 <result_sink>
   1033c:	00008067          	jalr	zero,0(ra)
   10340:	00381593          	slli	a1,a6,0x3
   10344:	00b505b3          	add	a1,a0,a1
   10348:	0045a883          	lw	a7,4(a1)
   1034c:	00f89a63          	bne	a7,a5,10360 <print_path+0x78>
   10350:	8101a683          	lw	a3,-2032(gp) # 1d820 <result_sink>
   10354:	00d80833          	add	a6,a6,a3
   10358:	8101a823          	sw	a6,-2032(gp) # 1d820 <result_sink>
   1035c:	fc9ff06f          	jal	zero,10324 <print_path+0x3c>
   10360:	00389593          	slli	a1,a7,0x3
   10364:	00b506b3          	add	a3,a0,a1
   10368:	0046a583          	lw	a1,4(a3)
   1036c:	06f58663          	beq	a1,a5,103d8 <print_path+0xf0>
   10370:	fe010113          	addi	sp,sp,-32
   10374:	00112e23          	sw	ra,28(sp)
   10378:	00c12623          	sw	a2,12(sp)
   1037c:	01112423          	sw	a7,8(sp)
   10380:	01012223          	sw	a6,4(sp)
   10384:	00e12023          	sw	a4,0(sp)
   10388:	f61ff0ef          	jal	ra,102e8 <print_path>
   1038c:	8101a683          	lw	a3,-2032(gp) # 1d820 <result_sink>
   10390:	00812883          	lw	a7,8(sp)
   10394:	00412803          	lw	a6,4(sp)
   10398:	00012703          	lw	a4,0(sp)
   1039c:	00d888b3          	add	a7,a7,a3
   103a0:	8111a823          	sw	a7,-2032(gp) # 1d820 <result_sink>
   103a4:	8101a683          	lw	a3,-2032(gp) # 1d820 <result_sink>
   103a8:	00c12603          	lw	a2,12(sp)
   103ac:	01c12083          	lw	ra,28(sp)
   103b0:	00d80833          	add	a6,a6,a3
   103b4:	8101a823          	sw	a6,-2032(gp) # 1d820 <result_sink>
   103b8:	8101a683          	lw	a3,-2032(gp) # 1d820 <result_sink>
   103bc:	00d70733          	add	a4,a4,a3
   103c0:	80e1a823          	sw	a4,-2032(gp) # 1d820 <result_sink>
   103c4:	8101a583          	lw	a1,-2032(gp) # 1d820 <result_sink>
   103c8:	00c585b3          	add	a1,a1,a2
   103cc:	80b1a823          	sw	a1,-2032(gp) # 1d820 <result_sink>
   103d0:	02010113          	addi	sp,sp,32
   103d4:	00008067          	jalr	zero,0(ra)
   103d8:	8101a683          	lw	a3,-2032(gp) # 1d820 <result_sink>
   103dc:	00d888b3          	add	a7,a7,a3
   103e0:	8111a823          	sw	a7,-2032(gp) # 1d820 <result_sink>
   103e4:	f6dff06f          	jal	zero,10350 <print_path+0x68>

000103e8 <enqueue>:
   103e8:	8301a703          	lw	a4,-2000(gp) # 1d840 <qRear>
   103ec:	68db97b7          	lui	a5,0x68db9
   103f0:	bad78793          	addi	a5,a5,-1107 # 68db8bad <__BSS_END__+0x68d73c1d>
   103f4:	00170693          	addi	a3,a4,1
   103f8:	02f697b3          	mulh	a5,a3,a5
   103fc:	41f6df13          	srai	t5,a3,0x1f
   10400:	00002337          	lui	t1,0x2
   10404:	71030313          	addi	t1,t1,1808 # 2710 <exit-0xd9a4>
   10408:	82c1a883          	lw	a7,-2004(gp) # 1d83c <g_qCount>
   1040c:	00171813          	slli	a6,a4,0x1
   10410:	00e80833          	add	a6,a6,a4
   10414:	00027737          	lui	a4,0x27
   10418:	00281813          	slli	a6,a6,0x2
   1041c:	40c7d793          	srai	a5,a5,0xc
   10420:	41e787b3          	sub	a5,a5,t5
   10424:	026787b3          	mul	a5,a5,t1
   10428:	7e070713          	addi	a4,a4,2016 # 277e0 <queue>
   1042c:	01070733          	add	a4,a4,a6
   10430:	00188893          	addi	a7,a7,1
   10434:	00a72023          	sw	a0,0(a4)
   10438:	00b72223          	sw	a1,4(a4)
   1043c:	00c72423          	sw	a2,8(a4)
   10440:	8311a623          	sw	a7,-2004(gp) # 1d83c <g_qCount>
   10444:	40f686b3          	sub	a3,a3,a5
   10448:	82d1a823          	sw	a3,-2000(gp) # 1d840 <qRear>
   1044c:	00008067          	jalr	zero,0(ra)

00010450 <dequeue>:
   10450:	82c1a783          	lw	a5,-2004(gp) # 1d83c <g_qCount>
   10454:	0af05063          	bge	zero,a5,104f4 <dequeue+0xa4>
   10458:	8341a683          	lw	a3,-1996(gp) # 1d844 <qFront>
   1045c:	00027737          	lui	a4,0x27
   10460:	7e070713          	addi	a4,a4,2016 # 277e0 <queue>
   10464:	00169793          	slli	a5,a3,0x1
   10468:	00d787b3          	add	a5,a5,a3
   1046c:	00279793          	slli	a5,a5,0x2
   10470:	00f707b3          	add	a5,a4,a5
   10474:	0007a683          	lw	a3,0(a5)
   10478:	68db97b7          	lui	a5,0x68db9
   1047c:	bad78793          	addi	a5,a5,-1107 # 68db8bad <__BSS_END__+0x68d73c1d>
   10480:	00d52023          	sw	a3,0(a0)
   10484:	8341a303          	lw	t1,-1996(gp) # 1d844 <qFront>
   10488:	00002537          	lui	a0,0x2
   1048c:	71050513          	addi	a0,a0,1808 # 2710 <exit-0xd9a4>
   10490:	00131693          	slli	a3,t1,0x1
   10494:	006686b3          	add	a3,a3,t1
   10498:	00269693          	slli	a3,a3,0x2
   1049c:	00d706b3          	add	a3,a4,a3
   104a0:	0046a683          	lw	a3,4(a3)
   104a4:	00d5a023          	sw	a3,0(a1)
   104a8:	8341a583          	lw	a1,-1996(gp) # 1d844 <qFront>
   104ac:	00159693          	slli	a3,a1,0x1
   104b0:	00b686b3          	add	a3,a3,a1
   104b4:	00269693          	slli	a3,a3,0x2
   104b8:	00d70733          	add	a4,a4,a3
   104bc:	00872703          	lw	a4,8(a4)
   104c0:	00e62023          	sw	a4,0(a2)
   104c4:	8341a703          	lw	a4,-1996(gp) # 1d844 <qFront>
   104c8:	82c1a683          	lw	a3,-2004(gp) # 1d83c <g_qCount>
   104cc:	00170713          	addi	a4,a4,1
   104d0:	02f717b3          	mulh	a5,a4,a5
   104d4:	41f75613          	srai	a2,a4,0x1f
   104d8:	fff68693          	addi	a3,a3,-1
   104dc:	82d1a623          	sw	a3,-2004(gp) # 1d83c <g_qCount>
   104e0:	40c7d793          	srai	a5,a5,0xc
   104e4:	40c787b3          	sub	a5,a5,a2
   104e8:	02a787b3          	mul	a5,a5,a0
   104ec:	40f70733          	sub	a4,a4,a5
   104f0:	82e1aa23          	sw	a4,-1996(gp) # 1d844 <qFront>
   104f4:	00008067          	jalr	zero,0(ra)

000104f8 <qcount>:
   104f8:	82c1a503          	lw	a0,-2004(gp) # 1d83c <g_qCount>
   104fc:	00008067          	jalr	zero,0(ra)

00010500 <dijkstra>:
   10500:	fb010113          	addi	sp,sp,-80
   10504:	03512a23          	sw	s5,52(sp)
   10508:	87018a93          	addi	s5,gp,-1936 # 1d880 <rgnNodes>
   1050c:	00002637          	lui	a2,0x2
   10510:	04112623          	sw	ra,76(sp)
   10514:	04812423          	sw	s0,72(sp)
   10518:	00058693          	addi	a3,a1,0
   1051c:	320a8713          	addi	a4,s5,800
   10520:	000a8793          	addi	a5,s5,0
   10524:	70f60613          	addi	a2,a2,1807 # 270f <exit-0xd9a5>
   10528:	00c7a023          	sw	a2,0(a5)
   1052c:	00c7a223          	sw	a2,4(a5)
   10530:	00878793          	addi	a5,a5,8
   10534:	fee79ae3          	bne	a5,a4,10528 <dijkstra+0x28>
   10538:	06400413          	addi	s0,zero,100
   1053c:	8281a423          	sw	s0,-2008(gp) # 1d838 <ch>
   10540:	20d50e63          	beq	a0,a3,1075c <dijkstra+0x25c>
   10544:	03912223          	sw	s9,36(sp)
   10548:	8301a883          	lw	a7,-2000(gp) # 1d840 <qRear>
   1054c:	05212023          	sw	s2,64(sp)
   10550:	68db9937          	lui	s2,0x68db9
   10554:	00188813          	addi	a6,a7,1
   10558:	bad90913          	addi	s2,s2,-1107 # 68db8bad <__BSS_END__+0x68d73c1d>
   1055c:	03281733          	mulh	a4,a6,s2
   10560:	03312e23          	sw	s3,60(sp)
   10564:	41f85793          	srai	a5,a6,0x1f
   10568:	000029b7          	lui	s3,0x2
   1056c:	71098993          	addi	s3,s3,1808 # 2710 <exit-0xd9a4>
   10570:	03812423          	sw	s8,40(sp)
   10574:	82c1a283          	lw	t0,-2004(gp) # 1d83c <g_qCount>
   10578:	00189593          	slli	a1,a7,0x1
   1057c:	011585b3          	add	a1,a1,a7
   10580:	40c75713          	srai	a4,a4,0xc
   10584:	40f70733          	sub	a4,a4,a5
   10588:	03370733          	mul	a4,a4,s3
   1058c:	000273b7          	lui	t2,0x27
   10590:	00259593          	slli	a1,a1,0x2
   10594:	7e038393          	addi	t2,t2,2016 # 277e0 <queue>
   10598:	00351793          	slli	a5,a0,0x3
   1059c:	04912223          	sw	s1,68(sp)
   105a0:	00b385b3          	add	a1,t2,a1
   105a4:	00fa87b3          	add	a5,s5,a5
   105a8:	00128293          	addi	t0,t0,1
   105ac:	00a5a023          	sw	a0,0(a1)
   105b0:	40e80733          	sub	a4,a6,a4
   105b4:	0005a223          	sw	zero,4(a1)
   105b8:	00c5a423          	sw	a2,8(a1)
   105bc:	0007a023          	sw	zero,0(a5)
   105c0:	82e1a823          	sw	a4,-2000(gp) # 1d840 <qRear>
   105c4:	00c7a223          	sw	a2,4(a5)
   105c8:	8251a623          	sw	t0,-2004(gp) # 1d83c <g_qCount>
   105cc:	14505063          	bge	zero,t0,1070c <dijkstra+0x20c>
   105d0:	03a12023          	sw	s10,32(sp)
   105d4:	8341a303          	lw	t1,-1996(gp) # 1d844 <qFront>
   105d8:	03612823          	sw	s6,48(sp)
   105dc:	00002f37          	lui	t5,0x2
   105e0:	0001eb37          	lui	s6,0x1e
   105e4:	03412c23          	sw	s4,56(sp)
   105e8:	03712623          	sw	s7,44(sp)
   105ec:	01b12e23          	sw	s11,28(sp)
   105f0:	ba0b0b13          	addi	s6,s6,-1120 # 1dba0 <AdjMatrix>
   105f4:	70ff0f13          	addi	t5,t5,1807 # 270f <exit-0xd9a5>
   105f8:	00000a13          	addi	s4,zero,0
   105fc:	19000b93          	addi	s7,zero,400
   10600:	00068e93          	addi	t4,a3,0
   10604:	00130813          	addi	a6,t1,1
   10608:	032816b3          	mulh	a3,a6,s2
   1060c:	00131793          	slli	a5,t1,0x1
   10610:	006787b3          	add	a5,a5,t1
   10614:	00279793          	slli	a5,a5,0x2
   10618:	00f387b3          	add	a5,t2,a5
   1061c:	0007ae03          	lw	t3,0(a5)
   10620:	0047a483          	lw	s1,4(a5)
   10624:	0087a783          	lw	a5,8(a5)
   10628:	41f85313          	srai	t1,a6,0x1f
   1062c:	fff28293          	addi	t0,t0,-1
   10630:	00f12623          	sw	a5,12(sp)
   10634:	40c6d793          	srai	a5,a3,0xc
   10638:	40678333          	sub	t1,a5,t1
   1063c:	037e0533          	mul	a0,t3,s7
   10640:	000a8693          	addi	a3,s5,0
   10644:	00000613          	addi	a2,zero,0
   10648:	03330333          	mul	t1,t1,s3
   1064c:	00ab0533          	add	a0,s6,a0
   10650:	40680333          	sub	t1,a6,t1
   10654:	00171793          	slli	a5,a4,0x1
   10658:	00052883          	lw	a7,0(a0)
   1065c:	00e787b3          	add	a5,a5,a4
   10660:	00170593          	addi	a1,a4,1
   10664:	00279793          	slli	a5,a5,0x2
   10668:	41f5dd93          	srai	s11,a1,0x1f
   1066c:	00f387b3          	add	a5,t2,a5
   10670:	05e88263          	beq	a7,t5,106b4 <dijkstra+0x1b4>
   10674:	0006af83          	lw	t6,0(a3)
   10678:	00988833          	add	a6,a7,s1
   1067c:	01ef8463          	beq	t6,t5,10684 <dijkstra+0x184>
   10680:	03f85a63          	bge	a6,t6,106b4 <dijkstra+0x1b4>
   10684:	03259733          	mulh	a4,a1,s2
   10688:	0106a023          	sw	a6,0(a3)
   1068c:	01c6a223          	sw	t3,4(a3)
   10690:	00c7a023          	sw	a2,0(a5)
   10694:	0107a223          	sw	a6,4(a5)
   10698:	01c7a423          	sw	t3,8(a5)
   1069c:	00128293          	addi	t0,t0,1
   106a0:	00100a13          	addi	s4,zero,1
   106a4:	40c75713          	srai	a4,a4,0xc
   106a8:	41b70733          	sub	a4,a4,s11
   106ac:	03370733          	mul	a4,a4,s3
   106b0:	40e58733          	sub	a4,a1,a4
   106b4:	00160613          	addi	a2,a2,1
   106b8:	00450513          	addi	a0,a0,4
   106bc:	00868693          	addi	a3,a3,8
   106c0:	f8861ae3          	bne	a2,s0,10654 <dijkstra+0x154>
   106c4:	f40290e3          	bne	t0,zero,10604 <dijkstra+0x104>
   106c8:	000e0593          	addi	a1,t3,0
   106cc:	00c12e03          	lw	t3,12(sp)
   106d0:	8261aa23          	sw	t1,-1996(gp) # 1d844 <qFront>
   106d4:	80c1ae23          	sw	a2,-2020(gp) # 1d82c <i>
   106d8:	8201a623          	sw	zero,-2004(gp) # 1d83c <g_qCount>
   106dc:	83c1a223          	sw	t3,-2012(gp) # 1d834 <iPrev>
   106e0:	8091aa23          	sw	s1,-2028(gp) # 1d824 <iDist>
   106e4:	82b1a023          	sw	a1,-2016(gp) # 1d830 <iNode>
   106e8:	8111ac23          	sw	a7,-2024(gp) # 1d828 <iCost>
   106ec:	000e8693          	addi	a3,t4,0
   106f0:	000a0463          	beq	s4,zero,106f8 <dijkstra+0x1f8>
   106f4:	82e1a823          	sw	a4,-2000(gp) # 1d840 <qRear>
   106f8:	03812a03          	lw	s4,56(sp)
   106fc:	03012b03          	lw	s6,48(sp)
   10700:	02c12b83          	lw	s7,44(sp)
   10704:	02012d03          	lw	s10,32(sp)
   10708:	01c12d83          	lw	s11,28(sp)
   1070c:	00369913          	slli	s2,a3,0x3
   10710:	012a87b3          	add	a5,s5,s2
   10714:	0047a483          	lw	s1,4(a5)
   10718:	000027b7          	lui	a5,0x2
   1071c:	70f78793          	addi	a5,a5,1807 # 270f <exit-0xd9a5>
   10720:	00068413          	addi	s0,a3,0
   10724:	04f49663          	bne	s1,a5,10770 <dijkstra+0x270>
   10728:	8101a703          	lw	a4,-2032(gp) # 1d820 <result_sink>
   1072c:	012a8ab3          	add	s5,s5,s2
   10730:	000aa603          	lw	a2,0(s5)
   10734:	00e406b3          	add	a3,s0,a4
   10738:	80d1a823          	sw	a3,-2032(gp) # 1d820 <result_sink>
   1073c:	8101a703          	lw	a4,-2032(gp) # 1d820 <result_sink>
   10740:	04412483          	lw	s1,68(sp)
   10744:	04012903          	lw	s2,64(sp)
   10748:	03c12983          	lw	s3,60(sp)
   1074c:	02812c03          	lw	s8,40(sp)
   10750:	02412c83          	lw	s9,36(sp)
   10754:	00c70733          	add	a4,a4,a2
   10758:	80e1a823          	sw	a4,-2032(gp) # 1d820 <result_sink>
   1075c:	04c12083          	lw	ra,76(sp)
   10760:	04812403          	lw	s0,72(sp)
   10764:	03412a83          	lw	s5,52(sp)
   10768:	05010113          	addi	sp,sp,80
   1076c:	00008067          	jalr	zero,0(ra)
   10770:	00349713          	slli	a4,s1,0x3
   10774:	00ea8733          	add	a4,s5,a4
   10778:	00472583          	lw	a1,4(a4)
   1077c:	00f59a63          	bne	a1,a5,10790 <dijkstra+0x290>
   10780:	8101a703          	lw	a4,-2032(gp) # 1d820 <result_sink>
   10784:	00e484b3          	add	s1,s1,a4
   10788:	8091a823          	sw	s1,-2032(gp) # 1d820 <result_sink>
   1078c:	f9dff06f          	jal	zero,10728 <dijkstra+0x228>
   10790:	000a8513          	addi	a0,s5,0
   10794:	b55ff0ef          	jal	ra,102e8 <print_path>
   10798:	8101a703          	lw	a4,-2032(gp) # 1d820 <result_sink>
   1079c:	00e484b3          	add	s1,s1,a4
   107a0:	8091a823          	sw	s1,-2032(gp) # 1d820 <result_sink>
   107a4:	f85ff06f          	jal	zero,10728 <dijkstra+0x228>

000107a8 <__fp_lock>:
   107a8:	00000513          	addi	a0,zero,0
   107ac:	00008067          	jalr	zero,0(ra)

000107b0 <stdio_exit_handler>:
   107b0:	0001d637          	lui	a2,0x1d
   107b4:	000125b7          	lui	a1,0x12
   107b8:	0001d537          	lui	a0,0x1d
   107bc:	2d860613          	addi	a2,a2,728 # 1d2d8 <__sglue>
   107c0:	f1458593          	addi	a1,a1,-236 # 11f14 <_fclose_r>
   107c4:	2e850513          	addi	a0,a0,744 # 1d2e8 <_impure_data>
   107c8:	3700006f          	jal	zero,10b38 <_fwalk_sglue>

000107cc <cleanup_stdio>:
   107cc:	00452583          	lw	a1,4(a0)
   107d0:	ff010113          	addi	sp,sp,-16
   107d4:	000457b7          	lui	a5,0x45
   107d8:	00812423          	sw	s0,8(sp)
   107dc:	00112623          	sw	ra,12(sp)
   107e0:	ca078793          	addi	a5,a5,-864 # 44ca0 <__sf>
   107e4:	00050413          	addi	s0,a0,0
   107e8:	00f58463          	beq	a1,a5,107f0 <cleanup_stdio+0x24>
   107ec:	728010ef          	jal	ra,11f14 <_fclose_r>
   107f0:	00842583          	lw	a1,8(s0)
   107f4:	000457b7          	lui	a5,0x45
   107f8:	d0878793          	addi	a5,a5,-760 # 44d08 <__sf+0x68>
   107fc:	00f58663          	beq	a1,a5,10808 <cleanup_stdio+0x3c>
   10800:	00040513          	addi	a0,s0,0
   10804:	710010ef          	jal	ra,11f14 <_fclose_r>
   10808:	00c42583          	lw	a1,12(s0)
   1080c:	000457b7          	lui	a5,0x45
   10810:	d7078793          	addi	a5,a5,-656 # 44d70 <__sf+0xd0>
   10814:	00f58c63          	beq	a1,a5,1082c <cleanup_stdio+0x60>
   10818:	00040513          	addi	a0,s0,0
   1081c:	00812403          	lw	s0,8(sp)
   10820:	00c12083          	lw	ra,12(sp)
   10824:	01010113          	addi	sp,sp,16
   10828:	6ec0106f          	jal	zero,11f14 <_fclose_r>
   1082c:	00c12083          	lw	ra,12(sp)
   10830:	00812403          	lw	s0,8(sp)
   10834:	01010113          	addi	sp,sp,16
   10838:	00008067          	jalr	zero,0(ra)

0001083c <__fp_unlock>:
   1083c:	00000513          	addi	a0,zero,0
   10840:	00008067          	jalr	zero,0(ra)

00010844 <global_stdio_init.part.0>:
   10844:	fe010113          	addi	sp,sp,-32
   10848:	000107b7          	lui	a5,0x10
   1084c:	00812c23          	sw	s0,24(sp)
   10850:	7b078793          	addi	a5,a5,1968 # 107b0 <stdio_exit_handler>
   10854:	00045437          	lui	s0,0x45
   10858:	00045537          	lui	a0,0x45
   1085c:	ca040413          	addi	s0,s0,-864 # 44ca0 <__sf>
   10860:	00112e23          	sw	ra,28(sp)
   10864:	00912a23          	sw	s1,20(sp)
   10868:	01212823          	sw	s2,16(sp)
   1086c:	01312623          	sw	s3,12(sp)
   10870:	01412423          	sw	s4,8(sp)
   10874:	82f1ac23          	sw	a5,-1992(gp) # 1d848 <__stdio_exit_handler>
   10878:	00800613          	addi	a2,zero,8
   1087c:	00400793          	addi	a5,zero,4
   10880:	00000593          	addi	a1,zero,0
   10884:	cfc50513          	addi	a0,a0,-772 # 44cfc <__sf+0x5c>
   10888:	00f42623          	sw	a5,12(s0)
   1088c:	00042023          	sw	zero,0(s0)
   10890:	00042223          	sw	zero,4(s0)
   10894:	00042423          	sw	zero,8(s0)
   10898:	06042223          	sw	zero,100(s0)
   1089c:	00042823          	sw	zero,16(s0)
   108a0:	00042a23          	sw	zero,20(s0)
   108a4:	00042c23          	sw	zero,24(s0)
   108a8:	7ac000ef          	jal	ra,11054 <memset>
   108ac:	00011a37          	lui	s4,0x11
   108b0:	000119b7          	lui	s3,0x11
   108b4:	00011937          	lui	s2,0x11
   108b8:	000114b7          	lui	s1,0x11
   108bc:	00045537          	lui	a0,0x45
   108c0:	000107b7          	lui	a5,0x10
   108c4:	beca0a13          	addi	s4,s4,-1044 # 10bec <__sread>
   108c8:	c5098993          	addi	s3,s3,-944 # 10c50 <__swrite>
   108cc:	cd890913          	addi	s2,s2,-808 # 10cd8 <__sseek>
   108d0:	d3c48493          	addi	s1,s1,-708 # 10d3c <__sclose>
   108d4:	00978793          	addi	a5,a5,9 # 10009 <exit-0xab>
   108d8:	00800613          	addi	a2,zero,8
   108dc:	00000593          	addi	a1,zero,0
   108e0:	d6450513          	addi	a0,a0,-668 # 44d64 <__sf+0xc4>
   108e4:	06f42a23          	sw	a5,116(s0)
   108e8:	03442023          	sw	s4,32(s0)
   108ec:	03342223          	sw	s3,36(s0)
   108f0:	03242423          	sw	s2,40(s0)
   108f4:	02942623          	sw	s1,44(s0)
   108f8:	00842e23          	sw	s0,28(s0)
   108fc:	06042423          	sw	zero,104(s0)
   10900:	06042623          	sw	zero,108(s0)
   10904:	06042823          	sw	zero,112(s0)
   10908:	0c042623          	sw	zero,204(s0)
   1090c:	06042c23          	sw	zero,120(s0)
   10910:	06042e23          	sw	zero,124(s0)
   10914:	08042023          	sw	zero,128(s0)
   10918:	73c000ef          	jal	ra,11054 <memset>
   1091c:	00045737          	lui	a4,0x45
   10920:	00045537          	lui	a0,0x45
   10924:	000207b7          	lui	a5,0x20
   10928:	01278793          	addi	a5,a5,18 # 20012 <__global_pointer$+0x2002>
   1092c:	d0870713          	addi	a4,a4,-760 # 44d08 <__sf+0x68>
   10930:	dcc50513          	addi	a0,a0,-564 # 44dcc <__sf+0x12c>
   10934:	00800613          	addi	a2,zero,8
   10938:	00000593          	addi	a1,zero,0
   1093c:	09442423          	sw	s4,136(s0)
   10940:	09342623          	sw	s3,140(s0)
   10944:	09242823          	sw	s2,144(s0)
   10948:	08942a23          	sw	s1,148(s0)
   1094c:	0cf42e23          	sw	a5,220(s0)
   10950:	0c042823          	sw	zero,208(s0)
   10954:	0c042a23          	sw	zero,212(s0)
   10958:	0c042c23          	sw	zero,216(s0)
   1095c:	12042a23          	sw	zero,308(s0)
   10960:	0e042023          	sw	zero,224(s0)
   10964:	0e042223          	sw	zero,228(s0)
   10968:	0e042423          	sw	zero,232(s0)
   1096c:	08e42223          	sw	a4,132(s0)
   10970:	6e4000ef          	jal	ra,11054 <memset>
   10974:	000457b7          	lui	a5,0x45
   10978:	d7078793          	addi	a5,a5,-656 # 44d70 <__sf+0xd0>
   1097c:	0f442823          	sw	s4,240(s0)
   10980:	0f342a23          	sw	s3,244(s0)
   10984:	0f242c23          	sw	s2,248(s0)
   10988:	0e942e23          	sw	s1,252(s0)
   1098c:	01c12083          	lw	ra,28(sp)
   10990:	0ef42623          	sw	a5,236(s0)
   10994:	01812403          	lw	s0,24(sp)
   10998:	01412483          	lw	s1,20(sp)
   1099c:	01012903          	lw	s2,16(sp)
   109a0:	00c12983          	lw	s3,12(sp)
   109a4:	00812a03          	lw	s4,8(sp)
   109a8:	02010113          	addi	sp,sp,32
   109ac:	00008067          	jalr	zero,0(ra)

000109b0 <__sfp>:
   109b0:	8381a783          	lw	a5,-1992(gp) # 1d848 <__stdio_exit_handler>
   109b4:	fe010113          	addi	sp,sp,-32
   109b8:	00912a23          	sw	s1,20(sp)
   109bc:	00112e23          	sw	ra,28(sp)
   109c0:	00812c23          	sw	s0,24(sp)
   109c4:	00050493          	addi	s1,a0,0
   109c8:	0e078e63          	beq	a5,zero,10ac4 <__sfp+0x114>
   109cc:	0001d837          	lui	a6,0x1d
   109d0:	2d880813          	addi	a6,a6,728 # 1d2d8 <__sglue>
   109d4:	fff00693          	addi	a3,zero,-1
   109d8:	00482783          	lw	a5,4(a6)
   109dc:	fff78793          	addi	a5,a5,-1
   109e0:	0807c063          	blt	a5,zero,10a60 <__sfp+0xb0>
   109e4:	00882403          	lw	s0,8(a6)
   109e8:	00c0006f          	jal	zero,109f4 <__sfp+0x44>
   109ec:	06840413          	addi	s0,s0,104
   109f0:	06d78863          	beq	a5,a3,10a60 <__sfp+0xb0>
   109f4:	00c41703          	lh	a4,12(s0)
   109f8:	fff78793          	addi	a5,a5,-1
   109fc:	fe0718e3          	bne	a4,zero,109ec <__sfp+0x3c>
   10a00:	ffff07b7          	lui	a5,0xffff0
   10a04:	00178793          	addi	a5,a5,1 # ffff0001 <__BSS_END__+0xfffab071>
   10a08:	00f42623          	sw	a5,12(s0)
   10a0c:	06042223          	sw	zero,100(s0)
   10a10:	00042023          	sw	zero,0(s0)
   10a14:	00042423          	sw	zero,8(s0)
   10a18:	00042223          	sw	zero,4(s0)
   10a1c:	00042823          	sw	zero,16(s0)
   10a20:	00042a23          	sw	zero,20(s0)
   10a24:	00042c23          	sw	zero,24(s0)
   10a28:	00800613          	addi	a2,zero,8
   10a2c:	00000593          	addi	a1,zero,0
   10a30:	05c40513          	addi	a0,s0,92
   10a34:	620000ef          	jal	ra,11054 <memset>
   10a38:	02042823          	sw	zero,48(s0)
   10a3c:	02042a23          	sw	zero,52(s0)
   10a40:	04042223          	sw	zero,68(s0)
   10a44:	04042423          	sw	zero,72(s0)
   10a48:	01c12083          	lw	ra,28(sp)
   10a4c:	00040513          	addi	a0,s0,0
   10a50:	01812403          	lw	s0,24(sp)
   10a54:	01412483          	lw	s1,20(sp)
   10a58:	02010113          	addi	sp,sp,32
   10a5c:	00008067          	jalr	zero,0(ra)
   10a60:	00082403          	lw	s0,0(a6)
   10a64:	00040663          	beq	s0,zero,10a70 <__sfp+0xc0>
   10a68:	00040813          	addi	a6,s0,0
   10a6c:	f6dff06f          	jal	zero,109d8 <__sfp+0x28>
   10a70:	1ac00593          	addi	a1,zero,428
   10a74:	00048513          	addi	a0,s1,0
   10a78:	01012623          	sw	a6,12(sp)
   10a7c:	411000ef          	jal	ra,1168c <_malloc_r>
   10a80:	00c12803          	lw	a6,12(sp)
   10a84:	00050413          	addi	s0,a0,0
   10a88:	04050263          	beq	a0,zero,10acc <__sfp+0x11c>
   10a8c:	00400793          	addi	a5,zero,4
   10a90:	00f52223          	sw	a5,4(a0)
   10a94:	00c50513          	addi	a0,a0,12
   10a98:	00042023          	sw	zero,0(s0)
   10a9c:	00a42423          	sw	a0,8(s0)
   10aa0:	1a000613          	addi	a2,zero,416
   10aa4:	00000593          	addi	a1,zero,0
   10aa8:	01012623          	sw	a6,12(sp)
   10aac:	5a8000ef          	jal	ra,11054 <memset>
   10ab0:	00c12803          	lw	a6,12(sp)
   10ab4:	fff00693          	addi	a3,zero,-1
   10ab8:	00882023          	sw	s0,0(a6)
   10abc:	00040813          	addi	a6,s0,0
   10ac0:	f19ff06f          	jal	zero,109d8 <__sfp+0x28>
   10ac4:	d81ff0ef          	jal	ra,10844 <global_stdio_init.part.0>
   10ac8:	f05ff06f          	jal	zero,109cc <__sfp+0x1c>
   10acc:	00082023          	sw	zero,0(a6)
   10ad0:	00c00793          	addi	a5,zero,12
   10ad4:	00f4a023          	sw	a5,0(s1)
   10ad8:	f71ff06f          	jal	zero,10a48 <__sfp+0x98>

00010adc <__sinit>:
   10adc:	03452783          	lw	a5,52(a0)
   10ae0:	00078463          	beq	a5,zero,10ae8 <__sinit+0xc>
   10ae4:	00008067          	jalr	zero,0(ra)
   10ae8:	000107b7          	lui	a5,0x10
   10aec:	8381a703          	lw	a4,-1992(gp) # 1d848 <__stdio_exit_handler>
   10af0:	7cc78793          	addi	a5,a5,1996 # 107cc <cleanup_stdio>
   10af4:	02f52a23          	sw	a5,52(a0)
   10af8:	fe0716e3          	bne	a4,zero,10ae4 <__sinit+0x8>
   10afc:	d49ff06f          	jal	zero,10844 <global_stdio_init.part.0>

00010b00 <__sfp_lock_acquire>:
   10b00:	00008067          	jalr	zero,0(ra)

00010b04 <__sfp_lock_release>:
   10b04:	00008067          	jalr	zero,0(ra)

00010b08 <__fp_lock_all>:
   10b08:	0001d637          	lui	a2,0x1d
   10b0c:	000105b7          	lui	a1,0x10
   10b10:	2d860613          	addi	a2,a2,728 # 1d2d8 <__sglue>
   10b14:	7a858593          	addi	a1,a1,1960 # 107a8 <__fp_lock>
   10b18:	00000513          	addi	a0,zero,0
   10b1c:	01c0006f          	jal	zero,10b38 <_fwalk_sglue>

00010b20 <__fp_unlock_all>:
   10b20:	0001d637          	lui	a2,0x1d
   10b24:	000115b7          	lui	a1,0x11
   10b28:	2d860613          	addi	a2,a2,728 # 1d2d8 <__sglue>
   10b2c:	83c58593          	addi	a1,a1,-1988 # 1083c <__fp_unlock>
   10b30:	00000513          	addi	a0,zero,0
   10b34:	0040006f          	jal	zero,10b38 <_fwalk_sglue>

00010b38 <_fwalk_sglue>:
   10b38:	fd010113          	addi	sp,sp,-48
   10b3c:	03212023          	sw	s2,32(sp)
   10b40:	01312e23          	sw	s3,28(sp)
   10b44:	01412c23          	sw	s4,24(sp)
   10b48:	01512a23          	sw	s5,20(sp)
   10b4c:	01612823          	sw	s6,16(sp)
   10b50:	01712623          	sw	s7,12(sp)
   10b54:	02112623          	sw	ra,44(sp)
   10b58:	02812423          	sw	s0,40(sp)
   10b5c:	02912223          	sw	s1,36(sp)
   10b60:	00060a93          	addi	s5,a2,0
   10b64:	00050b13          	addi	s6,a0,0
   10b68:	00058b93          	addi	s7,a1,0
   10b6c:	00000a13          	addi	s4,zero,0
   10b70:	00100993          	addi	s3,zero,1
   10b74:	fff00913          	addi	s2,zero,-1
   10b78:	004aa483          	lw	s1,4(s5)
   10b7c:	fff48493          	addi	s1,s1,-1
   10b80:	0204ca63          	blt	s1,zero,10bb4 <_fwalk_sglue+0x7c>
   10b84:	008aa403          	lw	s0,8(s5)
   10b88:	00c45783          	lhu	a5,12(s0)
   10b8c:	00f9fe63          	bgeu	s3,a5,10ba8 <_fwalk_sglue+0x70>
   10b90:	00e41783          	lh	a5,14(s0)
   10b94:	00040593          	addi	a1,s0,0
   10b98:	000b0513          	addi	a0,s6,0
   10b9c:	01278663          	beq	a5,s2,10ba8 <_fwalk_sglue+0x70>
   10ba0:	000b80e7          	jalr	ra,0(s7)
   10ba4:	00aa6a33          	or	s4,s4,a0
   10ba8:	fff48493          	addi	s1,s1,-1
   10bac:	06840413          	addi	s0,s0,104
   10bb0:	fd249ce3          	bne	s1,s2,10b88 <_fwalk_sglue+0x50>
   10bb4:	000aaa83          	lw	s5,0(s5)
   10bb8:	fc0a90e3          	bne	s5,zero,10b78 <_fwalk_sglue+0x40>
   10bbc:	02c12083          	lw	ra,44(sp)
   10bc0:	02812403          	lw	s0,40(sp)
   10bc4:	02412483          	lw	s1,36(sp)
   10bc8:	02012903          	lw	s2,32(sp)
   10bcc:	01c12983          	lw	s3,28(sp)
   10bd0:	01412a83          	lw	s5,20(sp)
   10bd4:	01012b03          	lw	s6,16(sp)
   10bd8:	00c12b83          	lw	s7,12(sp)
   10bdc:	000a0513          	addi	a0,s4,0
   10be0:	01812a03          	lw	s4,24(sp)
   10be4:	03010113          	addi	sp,sp,48
   10be8:	00008067          	jalr	zero,0(ra)

00010bec <__sread>:
   10bec:	ff010113          	addi	sp,sp,-16
   10bf0:	00812423          	sw	s0,8(sp)
   10bf4:	00058413          	addi	s0,a1,0
   10bf8:	00e59583          	lh	a1,14(a1)
   10bfc:	00112623          	sw	ra,12(sp)
   10c00:	2f0000ef          	jal	ra,10ef0 <_read_r>
   10c04:	02054063          	blt	a0,zero,10c24 <__sread+0x38>
   10c08:	05042783          	lw	a5,80(s0)
   10c0c:	00c12083          	lw	ra,12(sp)
   10c10:	00a787b3          	add	a5,a5,a0
   10c14:	04f42823          	sw	a5,80(s0)
   10c18:	00812403          	lw	s0,8(sp)
   10c1c:	01010113          	addi	sp,sp,16
   10c20:	00008067          	jalr	zero,0(ra)
   10c24:	00c45783          	lhu	a5,12(s0)
   10c28:	fffff737          	lui	a4,0xfffff
   10c2c:	fff70713          	addi	a4,a4,-1 # ffffefff <__BSS_END__+0xfffba06f>
   10c30:	00e7f7b3          	and	a5,a5,a4
   10c34:	00c12083          	lw	ra,12(sp)
   10c38:	00f41623          	sh	a5,12(s0)
   10c3c:	00812403          	lw	s0,8(sp)
   10c40:	01010113          	addi	sp,sp,16
   10c44:	00008067          	jalr	zero,0(ra)

00010c48 <__seofread>:
   10c48:	00000513          	addi	a0,zero,0
   10c4c:	00008067          	jalr	zero,0(ra)

00010c50 <__swrite>:
   10c50:	00c59783          	lh	a5,12(a1)
   10c54:	fe010113          	addi	sp,sp,-32
   10c58:	00068313          	addi	t1,a3,0
   10c5c:	00112e23          	sw	ra,28(sp)
   10c60:	1007f693          	andi	a3,a5,256
   10c64:	00058713          	addi	a4,a1,0
   10c68:	00060893          	addi	a7,a2,0
   10c6c:	00050813          	addi	a6,a0,0
   10c70:	02069863          	bne	a3,zero,10ca0 <__swrite+0x50>
   10c74:	fffff6b7          	lui	a3,0xfffff
   10c78:	fff68693          	addi	a3,a3,-1 # ffffefff <__BSS_END__+0xfffba06f>
   10c7c:	01c12083          	lw	ra,28(sp)
   10c80:	00d7f7b3          	and	a5,a5,a3
   10c84:	00e71583          	lh	a1,14(a4)
   10c88:	00f71623          	sh	a5,12(a4)
   10c8c:	00030693          	addi	a3,t1,0
   10c90:	00088613          	addi	a2,a7,0
   10c94:	00080513          	addi	a0,a6,0
   10c98:	02010113          	addi	sp,sp,32
   10c9c:	2bc0006f          	jal	zero,10f58 <_write_r>
   10ca0:	00e59583          	lh	a1,14(a1)
   10ca4:	00c12423          	sw	a2,8(sp)
   10ca8:	00200693          	addi	a3,zero,2
   10cac:	00000613          	addi	a2,zero,0
   10cb0:	00612623          	sw	t1,12(sp)
   10cb4:	00e12023          	sw	a4,0(sp)
   10cb8:	00a12223          	sw	a0,4(sp)
   10cbc:	1cc000ef          	jal	ra,10e88 <_lseek_r>
   10cc0:	00012703          	lw	a4,0(sp)
   10cc4:	00c12303          	lw	t1,12(sp)
   10cc8:	00812883          	lw	a7,8(sp)
   10ccc:	00c71783          	lh	a5,12(a4)
   10cd0:	00412803          	lw	a6,4(sp)
   10cd4:	fa1ff06f          	jal	zero,10c74 <__swrite+0x24>

00010cd8 <__sseek>:
   10cd8:	ff010113          	addi	sp,sp,-16
   10cdc:	00812423          	sw	s0,8(sp)
   10ce0:	00058413          	addi	s0,a1,0
   10ce4:	00e59583          	lh	a1,14(a1)
   10ce8:	00112623          	sw	ra,12(sp)
   10cec:	19c000ef          	jal	ra,10e88 <_lseek_r>
   10cf0:	fff00713          	addi	a4,zero,-1
   10cf4:	00c41783          	lh	a5,12(s0)
   10cf8:	02e50263          	beq	a0,a4,10d1c <__sseek+0x44>
   10cfc:	00001737          	lui	a4,0x1
   10d00:	00e7e7b3          	or	a5,a5,a4
   10d04:	00c12083          	lw	ra,12(sp)
   10d08:	04a42823          	sw	a0,80(s0)
   10d0c:	00f41623          	sh	a5,12(s0)
   10d10:	00812403          	lw	s0,8(sp)
   10d14:	01010113          	addi	sp,sp,16
   10d18:	00008067          	jalr	zero,0(ra)
   10d1c:	80050713          	addi	a4,a0,-2048
   10d20:	80070713          	addi	a4,a4,-2048 # 800 <exit-0xf8b4>
   10d24:	00e7f7b3          	and	a5,a5,a4
   10d28:	00c12083          	lw	ra,12(sp)
   10d2c:	00f41623          	sh	a5,12(s0)
   10d30:	00812403          	lw	s0,8(sp)
   10d34:	01010113          	addi	sp,sp,16
   10d38:	00008067          	jalr	zero,0(ra)

00010d3c <__sclose>:
   10d3c:	00e59583          	lh	a1,14(a1)
   10d40:	0040006f          	jal	zero,10d44 <_close_r>

00010d44 <_close_r>:
   10d44:	ff010113          	addi	sp,sp,-16
   10d48:	00812423          	sw	s0,8(sp)
   10d4c:	00912223          	sw	s1,4(sp)
   10d50:	00050493          	addi	s1,a0,0
   10d54:	00058513          	addi	a0,a1,0
   10d58:	00112623          	sw	ra,12(sp)
   10d5c:	8201ae23          	sw	zero,-1988(gp) # 1d84c <errno>
   10d60:	770010ef          	jal	ra,124d0 <_close>
   10d64:	fff00793          	addi	a5,zero,-1
   10d68:	00f50c63          	beq	a0,a5,10d80 <_close_r+0x3c>
   10d6c:	00c12083          	lw	ra,12(sp)
   10d70:	00812403          	lw	s0,8(sp)
   10d74:	00412483          	lw	s1,4(sp)
   10d78:	01010113          	addi	sp,sp,16
   10d7c:	00008067          	jalr	zero,0(ra)
   10d80:	83c1a783          	lw	a5,-1988(gp) # 1d84c <errno>
   10d84:	fe0784e3          	beq	a5,zero,10d6c <_close_r+0x28>
   10d88:	00c12083          	lw	ra,12(sp)
   10d8c:	00812403          	lw	s0,8(sp)
   10d90:	00f4a023          	sw	a5,0(s1)
   10d94:	00412483          	lw	s1,4(sp)
   10d98:	01010113          	addi	sp,sp,16
   10d9c:	00008067          	jalr	zero,0(ra)

00010da0 <_reclaim_reent>:
   10da0:	0001e7b7          	lui	a5,0x1e
   10da4:	8147a783          	lw	a5,-2028(a5) # 1d814 <_impure_ptr>
   10da8:	0ca78e63          	beq	a5,a0,10e84 <_reclaim_reent+0xe4>
   10dac:	04452583          	lw	a1,68(a0)
   10db0:	fe010113          	addi	sp,sp,-32
   10db4:	00912a23          	sw	s1,20(sp)
   10db8:	00112e23          	sw	ra,28(sp)
   10dbc:	00812c23          	sw	s0,24(sp)
   10dc0:	00050493          	addi	s1,a0,0
   10dc4:	04058863          	beq	a1,zero,10e14 <_reclaim_reent+0x74>
   10dc8:	01212823          	sw	s2,16(sp)
   10dcc:	01312623          	sw	s3,12(sp)
   10dd0:	00000913          	addi	s2,zero,0
   10dd4:	08000993          	addi	s3,zero,128
   10dd8:	012587b3          	add	a5,a1,s2
   10ddc:	0007a403          	lw	s0,0(a5)
   10de0:	00040e63          	beq	s0,zero,10dfc <_reclaim_reent+0x5c>
   10de4:	00040593          	addi	a1,s0,0
   10de8:	00042403          	lw	s0,0(s0)
   10dec:	00048513          	addi	a0,s1,0
   10df0:	5b4000ef          	jal	ra,113a4 <_free_r>
   10df4:	fe0418e3          	bne	s0,zero,10de4 <_reclaim_reent+0x44>
   10df8:	0444a583          	lw	a1,68(s1)
   10dfc:	00490913          	addi	s2,s2,4
   10e00:	fd391ce3          	bne	s2,s3,10dd8 <_reclaim_reent+0x38>
   10e04:	00048513          	addi	a0,s1,0
   10e08:	59c000ef          	jal	ra,113a4 <_free_r>
   10e0c:	01012903          	lw	s2,16(sp)
   10e10:	00c12983          	lw	s3,12(sp)
   10e14:	0384a583          	lw	a1,56(s1)
   10e18:	00058663          	beq	a1,zero,10e24 <_reclaim_reent+0x84>
   10e1c:	00048513          	addi	a0,s1,0
   10e20:	584000ef          	jal	ra,113a4 <_free_r>
   10e24:	0404a403          	lw	s0,64(s1)
   10e28:	00040c63          	beq	s0,zero,10e40 <_reclaim_reent+0xa0>
   10e2c:	00040593          	addi	a1,s0,0
   10e30:	00042403          	lw	s0,0(s0)
   10e34:	00048513          	addi	a0,s1,0
   10e38:	56c000ef          	jal	ra,113a4 <_free_r>
   10e3c:	fe0418e3          	bne	s0,zero,10e2c <_reclaim_reent+0x8c>
   10e40:	04c4a583          	lw	a1,76(s1)
   10e44:	00058663          	beq	a1,zero,10e50 <_reclaim_reent+0xb0>
   10e48:	00048513          	addi	a0,s1,0
   10e4c:	558000ef          	jal	ra,113a4 <_free_r>
   10e50:	0344a783          	lw	a5,52(s1)
   10e54:	00078e63          	beq	a5,zero,10e70 <_reclaim_reent+0xd0>
   10e58:	01812403          	lw	s0,24(sp)
   10e5c:	01c12083          	lw	ra,28(sp)
   10e60:	00048513          	addi	a0,s1,0
   10e64:	01412483          	lw	s1,20(sp)
   10e68:	02010113          	addi	sp,sp,32
   10e6c:	00078067          	jalr	zero,0(a5)
   10e70:	01c12083          	lw	ra,28(sp)
   10e74:	01812403          	lw	s0,24(sp)
   10e78:	01412483          	lw	s1,20(sp)
   10e7c:	02010113          	addi	sp,sp,32
   10e80:	00008067          	jalr	zero,0(ra)
   10e84:	00008067          	jalr	zero,0(ra)

00010e88 <_lseek_r>:
   10e88:	ff010113          	addi	sp,sp,-16
   10e8c:	00058793          	addi	a5,a1,0
   10e90:	00812423          	sw	s0,8(sp)
   10e94:	00912223          	sw	s1,4(sp)
   10e98:	00060593          	addi	a1,a2,0
   10e9c:	00050493          	addi	s1,a0,0
   10ea0:	00068613          	addi	a2,a3,0
   10ea4:	00078513          	addi	a0,a5,0
   10ea8:	00112623          	sw	ra,12(sp)
   10eac:	8201ae23          	sw	zero,-1988(gp) # 1d84c <errno>
   10eb0:	690010ef          	jal	ra,12540 <_lseek>
   10eb4:	fff00793          	addi	a5,zero,-1
   10eb8:	00f50c63          	beq	a0,a5,10ed0 <_lseek_r+0x48>
   10ebc:	00c12083          	lw	ra,12(sp)
   10ec0:	00812403          	lw	s0,8(sp)
   10ec4:	00412483          	lw	s1,4(sp)
   10ec8:	01010113          	addi	sp,sp,16
   10ecc:	00008067          	jalr	zero,0(ra)
   10ed0:	83c1a783          	lw	a5,-1988(gp) # 1d84c <errno>
   10ed4:	fe0784e3          	beq	a5,zero,10ebc <_lseek_r+0x34>
   10ed8:	00c12083          	lw	ra,12(sp)
   10edc:	00812403          	lw	s0,8(sp)
   10ee0:	00f4a023          	sw	a5,0(s1)
   10ee4:	00412483          	lw	s1,4(sp)
   10ee8:	01010113          	addi	sp,sp,16
   10eec:	00008067          	jalr	zero,0(ra)

00010ef0 <_read_r>:
   10ef0:	ff010113          	addi	sp,sp,-16
   10ef4:	00058793          	addi	a5,a1,0
   10ef8:	00812423          	sw	s0,8(sp)
   10efc:	00912223          	sw	s1,4(sp)
   10f00:	00060593          	addi	a1,a2,0
   10f04:	00050493          	addi	s1,a0,0
   10f08:	00068613          	addi	a2,a3,0
   10f0c:	00078513          	addi	a0,a5,0
   10f10:	00112623          	sw	ra,12(sp)
   10f14:	8201ae23          	sw	zero,-1988(gp) # 1d84c <errno>
   10f18:	668010ef          	jal	ra,12580 <_read>
   10f1c:	fff00793          	addi	a5,zero,-1
   10f20:	00f50c63          	beq	a0,a5,10f38 <_read_r+0x48>
   10f24:	00c12083          	lw	ra,12(sp)
   10f28:	00812403          	lw	s0,8(sp)
   10f2c:	00412483          	lw	s1,4(sp)
   10f30:	01010113          	addi	sp,sp,16
   10f34:	00008067          	jalr	zero,0(ra)
   10f38:	83c1a783          	lw	a5,-1988(gp) # 1d84c <errno>
   10f3c:	fe0784e3          	beq	a5,zero,10f24 <_read_r+0x34>
   10f40:	00c12083          	lw	ra,12(sp)
   10f44:	00812403          	lw	s0,8(sp)
   10f48:	00f4a023          	sw	a5,0(s1)
   10f4c:	00412483          	lw	s1,4(sp)
   10f50:	01010113          	addi	sp,sp,16
   10f54:	00008067          	jalr	zero,0(ra)

00010f58 <_write_r>:
   10f58:	ff010113          	addi	sp,sp,-16
   10f5c:	00058793          	addi	a5,a1,0
   10f60:	00812423          	sw	s0,8(sp)
   10f64:	00912223          	sw	s1,4(sp)
   10f68:	00060593          	addi	a1,a2,0
   10f6c:	00050493          	addi	s1,a0,0
   10f70:	00068613          	addi	a2,a3,0
   10f74:	00078513          	addi	a0,a5,0
   10f78:	00112623          	sw	ra,12(sp)
   10f7c:	8201ae23          	sw	zero,-1988(gp) # 1d84c <errno>
   10f80:	6b8010ef          	jal	ra,12638 <_write>
   10f84:	fff00793          	addi	a5,zero,-1
   10f88:	00f50c63          	beq	a0,a5,10fa0 <_write_r+0x48>
   10f8c:	00c12083          	lw	ra,12(sp)
   10f90:	00812403          	lw	s0,8(sp)
   10f94:	00412483          	lw	s1,4(sp)
   10f98:	01010113          	addi	sp,sp,16
   10f9c:	00008067          	jalr	zero,0(ra)
   10fa0:	83c1a783          	lw	a5,-1988(gp) # 1d84c <errno>
   10fa4:	fe0784e3          	beq	a5,zero,10f8c <_write_r+0x34>
   10fa8:	00c12083          	lw	ra,12(sp)
   10fac:	00812403          	lw	s0,8(sp)
   10fb0:	00f4a023          	sw	a5,0(s1)
   10fb4:	00412483          	lw	s1,4(sp)
   10fb8:	01010113          	addi	sp,sp,16
   10fbc:	00008067          	jalr	zero,0(ra)

00010fc0 <__libc_init_array>:
   10fc0:	ff010113          	addi	sp,sp,-16
   10fc4:	00812423          	sw	s0,8(sp)
   10fc8:	01212023          	sw	s2,0(sp)
   10fcc:	0001d437          	lui	s0,0x1d
   10fd0:	0001d937          	lui	s2,0x1d
   10fd4:	00112623          	sw	ra,12(sp)
   10fd8:	00912223          	sw	s1,4(sp)
   10fdc:	2c890913          	addi	s2,s2,712 # 1d2c8 <__init_array_start>
   10fe0:	2c840413          	addi	s0,s0,712 # 1d2c8 <__init_array_start>
   10fe4:	02890263          	beq	s2,s0,11008 <__libc_init_array+0x48>
   10fe8:	40890933          	sub	s2,s2,s0
   10fec:	40295913          	srai	s2,s2,0x2
   10ff0:	00000493          	addi	s1,zero,0
   10ff4:	00042783          	lw	a5,0(s0)
   10ff8:	00148493          	addi	s1,s1,1
   10ffc:	00440413          	addi	s0,s0,4
   11000:	000780e7          	jalr	ra,0(a5)
   11004:	ff24e8e3          	bltu	s1,s2,10ff4 <__libc_init_array+0x34>
   11008:	0001d937          	lui	s2,0x1d
   1100c:	0001d437          	lui	s0,0x1d
   11010:	2d090913          	addi	s2,s2,720 # 1d2d0 <__do_global_dtors_aux_fini_array_entry>
   11014:	2c840413          	addi	s0,s0,712 # 1d2c8 <__init_array_start>
   11018:	02890263          	beq	s2,s0,1103c <__libc_init_array+0x7c>
   1101c:	40890933          	sub	s2,s2,s0
   11020:	40295913          	srai	s2,s2,0x2
   11024:	00000493          	addi	s1,zero,0
   11028:	00042783          	lw	a5,0(s0)
   1102c:	00148493          	addi	s1,s1,1
   11030:	00440413          	addi	s0,s0,4
   11034:	000780e7          	jalr	ra,0(a5)
   11038:	ff24e8e3          	bltu	s1,s2,11028 <__libc_init_array+0x68>
   1103c:	00c12083          	lw	ra,12(sp)
   11040:	00812403          	lw	s0,8(sp)
   11044:	00412483          	lw	s1,4(sp)
   11048:	00012903          	lw	s2,0(sp)
   1104c:	01010113          	addi	sp,sp,16
   11050:	00008067          	jalr	zero,0(ra)

00011054 <memset>:
   11054:	00f00313          	addi	t1,zero,15
   11058:	00050713          	addi	a4,a0,0
   1105c:	02c37e63          	bgeu	t1,a2,11098 <memset+0x44>
   11060:	00f77793          	andi	a5,a4,15
   11064:	0a079063          	bne	a5,zero,11104 <memset+0xb0>
   11068:	08059263          	bne	a1,zero,110ec <memset+0x98>
   1106c:	ff067693          	andi	a3,a2,-16
   11070:	00f67613          	andi	a2,a2,15
   11074:	00e686b3          	add	a3,a3,a4
   11078:	00b72023          	sw	a1,0(a4)
   1107c:	00b72223          	sw	a1,4(a4)
   11080:	00b72423          	sw	a1,8(a4)
   11084:	00b72623          	sw	a1,12(a4)
   11088:	01070713          	addi	a4,a4,16
   1108c:	fed766e3          	bltu	a4,a3,11078 <memset+0x24>
   11090:	00061463          	bne	a2,zero,11098 <memset+0x44>
   11094:	00008067          	jalr	zero,0(ra)
   11098:	40c306b3          	sub	a3,t1,a2
   1109c:	00269693          	slli	a3,a3,0x2
   110a0:	00000297          	auipc	t0,0x0
   110a4:	005686b3          	add	a3,a3,t0
   110a8:	00c68067          	jalr	zero,12(a3)
   110ac:	00b70723          	sb	a1,14(a4)
   110b0:	00b706a3          	sb	a1,13(a4)
   110b4:	00b70623          	sb	a1,12(a4)
   110b8:	00b705a3          	sb	a1,11(a4)
   110bc:	00b70523          	sb	a1,10(a4)
   110c0:	00b704a3          	sb	a1,9(a4)
   110c4:	00b70423          	sb	a1,8(a4)
   110c8:	00b703a3          	sb	a1,7(a4)
   110cc:	00b70323          	sb	a1,6(a4)
   110d0:	00b702a3          	sb	a1,5(a4)
   110d4:	00b70223          	sb	a1,4(a4)
   110d8:	00b701a3          	sb	a1,3(a4)
   110dc:	00b70123          	sb	a1,2(a4)
   110e0:	00b700a3          	sb	a1,1(a4)
   110e4:	00b70023          	sb	a1,0(a4)
   110e8:	00008067          	jalr	zero,0(ra)
   110ec:	0ff5f593          	andi	a1,a1,255
   110f0:	00859693          	slli	a3,a1,0x8
   110f4:	00d5e5b3          	or	a1,a1,a3
   110f8:	01059693          	slli	a3,a1,0x10
   110fc:	00d5e5b3          	or	a1,a1,a3
   11100:	f6dff06f          	jal	zero,1106c <memset+0x18>
   11104:	00279693          	slli	a3,a5,0x2
   11108:	00000297          	auipc	t0,0x0
   1110c:	005686b3          	add	a3,a3,t0
   11110:	00008293          	addi	t0,ra,0
   11114:	fa0680e7          	jalr	ra,-96(a3)
   11118:	00028093          	addi	ra,t0,0 # 11108 <memset+0xb4>
   1111c:	ff078793          	addi	a5,a5,-16
   11120:	40f70733          	sub	a4,a4,a5
   11124:	00f60633          	add	a2,a2,a5
   11128:	f6c378e3          	bgeu	t1,a2,11098 <memset+0x44>
   1112c:	f3dff06f          	jal	zero,11068 <memset+0x14>

00011130 <__call_exitprocs>:
   11130:	fd010113          	addi	sp,sp,-48
   11134:	01412c23          	sw	s4,24(sp)
   11138:	03212023          	sw	s2,32(sp)
   1113c:	8401a903          	lw	s2,-1984(gp) # 1d850 <__atexit>
   11140:	02112623          	sw	ra,44(sp)
   11144:	06090c63          	beq	s2,zero,111bc <__call_exitprocs+0x8c>
   11148:	01312e23          	sw	s3,28(sp)
   1114c:	01512a23          	sw	s5,20(sp)
   11150:	01612823          	sw	s6,16(sp)
   11154:	01712623          	sw	s7,12(sp)
   11158:	02812423          	sw	s0,40(sp)
   1115c:	02912223          	sw	s1,36(sp)
   11160:	01812423          	sw	s8,8(sp)
   11164:	00050b13          	addi	s6,a0,0
   11168:	00058b93          	addi	s7,a1,0
   1116c:	fff00993          	addi	s3,zero,-1
   11170:	00100a93          	addi	s5,zero,1
   11174:	00492483          	lw	s1,4(s2)
   11178:	fff48413          	addi	s0,s1,-1
   1117c:	02044263          	blt	s0,zero,111a0 <__call_exitprocs+0x70>
   11180:	00249493          	slli	s1,s1,0x2
   11184:	009904b3          	add	s1,s2,s1
   11188:	040b8463          	beq	s7,zero,111d0 <__call_exitprocs+0xa0>
   1118c:	1044a783          	lw	a5,260(s1)
   11190:	05778063          	beq	a5,s7,111d0 <__call_exitprocs+0xa0>
   11194:	fff40413          	addi	s0,s0,-1
   11198:	ffc48493          	addi	s1,s1,-4
   1119c:	ff3418e3          	bne	s0,s3,1118c <__call_exitprocs+0x5c>
   111a0:	02812403          	lw	s0,40(sp)
   111a4:	02412483          	lw	s1,36(sp)
   111a8:	01c12983          	lw	s3,28(sp)
   111ac:	01412a83          	lw	s5,20(sp)
   111b0:	01012b03          	lw	s6,16(sp)
   111b4:	00c12b83          	lw	s7,12(sp)
   111b8:	00812c03          	lw	s8,8(sp)
   111bc:	02c12083          	lw	ra,44(sp)
   111c0:	02012903          	lw	s2,32(sp)
   111c4:	01812a03          	lw	s4,24(sp)
   111c8:	03010113          	addi	sp,sp,48
   111cc:	00008067          	jalr	zero,0(ra)
   111d0:	00492783          	lw	a5,4(s2)
   111d4:	0044a683          	lw	a3,4(s1)
   111d8:	fff78793          	addi	a5,a5,-1
   111dc:	06878a63          	beq	a5,s0,11250 <__call_exitprocs+0x120>
   111e0:	0004a223          	sw	zero,4(s1)
   111e4:	02068663          	beq	a3,zero,11210 <__call_exitprocs+0xe0>
   111e8:	18892783          	lw	a5,392(s2)
   111ec:	008a9733          	sll	a4,s5,s0
   111f0:	00492c03          	lw	s8,4(s2)
   111f4:	00f777b3          	and	a5,a4,a5
   111f8:	02079463          	bne	a5,zero,11220 <__call_exitprocs+0xf0>
   111fc:	000680e7          	jalr	ra,0(a3)
   11200:	00492703          	lw	a4,4(s2)
   11204:	8401a783          	lw	a5,-1984(gp) # 1d850 <__atexit>
   11208:	03871e63          	bne	a4,s8,11244 <__call_exitprocs+0x114>
   1120c:	03279c63          	bne	a5,s2,11244 <__call_exitprocs+0x114>
   11210:	fff40413          	addi	s0,s0,-1
   11214:	ffc48493          	addi	s1,s1,-4
   11218:	f73418e3          	bne	s0,s3,11188 <__call_exitprocs+0x58>
   1121c:	f85ff06f          	jal	zero,111a0 <__call_exitprocs+0x70>
   11220:	18c92783          	lw	a5,396(s2)
   11224:	0844a583          	lw	a1,132(s1)
   11228:	00f77733          	and	a4,a4,a5
   1122c:	02071663          	bne	a4,zero,11258 <__call_exitprocs+0x128>
   11230:	000b0513          	addi	a0,s6,0
   11234:	000680e7          	jalr	ra,0(a3)
   11238:	00492703          	lw	a4,4(s2)
   1123c:	8401a783          	lw	a5,-1984(gp) # 1d850 <__atexit>
   11240:	fd8706e3          	beq	a4,s8,1120c <__call_exitprocs+0xdc>
   11244:	f4078ee3          	beq	a5,zero,111a0 <__call_exitprocs+0x70>
   11248:	00078913          	addi	s2,a5,0
   1124c:	f29ff06f          	jal	zero,11174 <__call_exitprocs+0x44>
   11250:	00892223          	sw	s0,4(s2)
   11254:	f91ff06f          	jal	zero,111e4 <__call_exitprocs+0xb4>
   11258:	00058513          	addi	a0,a1,0
   1125c:	000680e7          	jalr	ra,0(a3)
   11260:	fa1ff06f          	jal	zero,11200 <__call_exitprocs+0xd0>

00011264 <atexit>:
   11264:	00050593          	addi	a1,a0,0
   11268:	00000693          	addi	a3,zero,0
   1126c:	00000613          	addi	a2,zero,0
   11270:	00000513          	addi	a0,zero,0
   11274:	1c40106f          	jal	zero,12438 <__register_exitproc>

00011278 <_malloc_trim_r>:
   11278:	fe010113          	addi	sp,sp,-32
   1127c:	01212823          	sw	s2,16(sp)
   11280:	0001d937          	lui	s2,0x1d
   11284:	00812c23          	sw	s0,24(sp)
   11288:	00912a23          	sw	s1,20(sp)
   1128c:	01312623          	sw	s3,12(sp)
   11290:	00058413          	addi	s0,a1,0
   11294:	00112e23          	sw	ra,28(sp)
   11298:	00050993          	addi	s3,a0,0
   1129c:	40890913          	addi	s2,s2,1032 # 1d408 <__malloc_av_>
   112a0:	46d000ef          	jal	ra,11f0c <__malloc_lock>
   112a4:	00892783          	lw	a5,8(s2)
   112a8:	00001737          	lui	a4,0x1
   112ac:	0047a483          	lw	s1,4(a5)
   112b0:	ffc4f493          	andi	s1,s1,-4
   112b4:	7ff48793          	addi	a5,s1,2047
   112b8:	7f078793          	addi	a5,a5,2032
   112bc:	40878433          	sub	s0,a5,s0
   112c0:	00c45413          	srli	s0,s0,0xc
   112c4:	fff40413          	addi	s0,s0,-1
   112c8:	00c41413          	slli	s0,s0,0xc
   112cc:	00e44e63          	blt	s0,a4,112e8 <_malloc_trim_r+0x70>
   112d0:	00000593          	addi	a1,zero,0
   112d4:	00098513          	addi	a0,s3,0
   112d8:	0a8010ef          	jal	ra,12380 <_sbrk_r>
   112dc:	00892783          	lw	a5,8(s2)
   112e0:	009787b3          	add	a5,a5,s1
   112e4:	02f50663          	beq	a0,a5,11310 <_malloc_trim_r+0x98>
   112e8:	00098513          	addi	a0,s3,0
   112ec:	425000ef          	jal	ra,11f10 <__malloc_unlock>
   112f0:	01c12083          	lw	ra,28(sp)
   112f4:	01812403          	lw	s0,24(sp)
   112f8:	01412483          	lw	s1,20(sp)
   112fc:	01012903          	lw	s2,16(sp)
   11300:	00c12983          	lw	s3,12(sp)
   11304:	00000513          	addi	a0,zero,0
   11308:	02010113          	addi	sp,sp,32
   1130c:	00008067          	jalr	zero,0(ra)
   11310:	408005b3          	sub	a1,zero,s0
   11314:	00098513          	addi	a0,s3,0
   11318:	068010ef          	jal	ra,12380 <_sbrk_r>
   1131c:	fff00793          	addi	a5,zero,-1
   11320:	04f50663          	beq	a0,a5,1136c <_malloc_trim_r+0xf4>
   11324:	00045737          	lui	a4,0x45
   11328:	00892683          	lw	a3,8(s2)
   1132c:	dd872783          	lw	a5,-552(a4) # 44dd8 <__malloc_current_mallinfo>
   11330:	408484b3          	sub	s1,s1,s0
   11334:	0014e493          	ori	s1,s1,1
   11338:	00098513          	addi	a0,s3,0
   1133c:	408787b3          	sub	a5,a5,s0
   11340:	0096a223          	sw	s1,4(a3)
   11344:	dcf72c23          	sw	a5,-552(a4)
   11348:	3c9000ef          	jal	ra,11f10 <__malloc_unlock>
   1134c:	01c12083          	lw	ra,28(sp)
   11350:	01812403          	lw	s0,24(sp)
   11354:	01412483          	lw	s1,20(sp)
   11358:	01012903          	lw	s2,16(sp)
   1135c:	00c12983          	lw	s3,12(sp)
   11360:	00100513          	addi	a0,zero,1
   11364:	02010113          	addi	sp,sp,32
   11368:	00008067          	jalr	zero,0(ra)
   1136c:	00000593          	addi	a1,zero,0
   11370:	00098513          	addi	a0,s3,0
   11374:	00c010ef          	jal	ra,12380 <_sbrk_r>
   11378:	00892703          	lw	a4,8(s2)
   1137c:	00f00693          	addi	a3,zero,15
   11380:	40e507b3          	sub	a5,a0,a4
   11384:	f6f6d2e3          	bge	a3,a5,112e8 <_malloc_trim_r+0x70>
   11388:	8081a603          	lw	a2,-2040(gp) # 1d818 <__malloc_sbrk_base>
   1138c:	0017e793          	ori	a5,a5,1
   11390:	000456b7          	lui	a3,0x45
   11394:	40c50533          	sub	a0,a0,a2
   11398:	00f72223          	sw	a5,4(a4)
   1139c:	dca6ac23          	sw	a0,-552(a3) # 44dd8 <__malloc_current_mallinfo>
   113a0:	f49ff06f          	jal	zero,112e8 <_malloc_trim_r+0x70>

000113a4 <_free_r>:
   113a4:	12058463          	beq	a1,zero,114cc <_free_r+0x128>
   113a8:	fe010113          	addi	sp,sp,-32
   113ac:	00812c23          	sw	s0,24(sp)
   113b0:	00b12623          	sw	a1,12(sp)
   113b4:	00050413          	addi	s0,a0,0
   113b8:	00112e23          	sw	ra,28(sp)
   113bc:	351000ef          	jal	ra,11f0c <__malloc_lock>
   113c0:	00c12583          	lw	a1,12(sp)
   113c4:	0001d837          	lui	a6,0x1d
   113c8:	40880813          	addi	a6,a6,1032 # 1d408 <__malloc_av_>
   113cc:	ffc5a503          	lw	a0,-4(a1)
   113d0:	ff858713          	addi	a4,a1,-8
   113d4:	00882883          	lw	a7,8(a6)
   113d8:	ffe57793          	andi	a5,a0,-2
   113dc:	00f70633          	add	a2,a4,a5
   113e0:	00462683          	lw	a3,4(a2)
   113e4:	00157313          	andi	t1,a0,1
   113e8:	ffc6f693          	andi	a3,a3,-4
   113ec:	18c88863          	beq	a7,a2,1157c <_free_r+0x1d8>
   113f0:	00d62223          	sw	a3,4(a2)
   113f4:	00d608b3          	add	a7,a2,a3
   113f8:	0048a883          	lw	a7,4(a7)
   113fc:	0018f893          	andi	a7,a7,1
   11400:	08031a63          	bne	t1,zero,11494 <_free_r+0xf0>
   11404:	ff85a303          	lw	t1,-8(a1)
   11408:	0001d5b7          	lui	a1,0x1d
   1140c:	41058593          	addi	a1,a1,1040 # 1d410 <__malloc_av_+0x8>
   11410:	40670733          	sub	a4,a4,t1
   11414:	00872503          	lw	a0,8(a4)
   11418:	006787b3          	add	a5,a5,t1
   1141c:	12b50a63          	beq	a0,a1,11550 <_free_r+0x1ac>
   11420:	00c72303          	lw	t1,12(a4)
   11424:	00652623          	sw	t1,12(a0)
   11428:	00a32423          	sw	a0,8(t1)
   1142c:	18088c63          	beq	a7,zero,115c4 <_free_r+0x220>
   11430:	0017e693          	ori	a3,a5,1
   11434:	00d72223          	sw	a3,4(a4)
   11438:	00f62023          	sw	a5,0(a2)
   1143c:	1ff00693          	addi	a3,zero,511
   11440:	0af6e263          	bltu	a3,a5,114e4 <_free_r+0x140>
   11444:	ff87f693          	andi	a3,a5,-8
   11448:	00868693          	addi	a3,a3,8
   1144c:	00482583          	lw	a1,4(a6)
   11450:	00d806b3          	add	a3,a6,a3
   11454:	0006a603          	lw	a2,0(a3)
   11458:	0057d513          	srli	a0,a5,0x5
   1145c:	00100793          	addi	a5,zero,1
   11460:	00a797b3          	sll	a5,a5,a0
   11464:	00b7e7b3          	or	a5,a5,a1
   11468:	ff868593          	addi	a1,a3,-8
   1146c:	00c72423          	sw	a2,8(a4)
   11470:	00b72623          	sw	a1,12(a4)
   11474:	00f82223          	sw	a5,4(a6)
   11478:	00e6a023          	sw	a4,0(a3)
   1147c:	00e62623          	sw	a4,12(a2)
   11480:	00040513          	addi	a0,s0,0
   11484:	01812403          	lw	s0,24(sp)
   11488:	01c12083          	lw	ra,28(sp)
   1148c:	02010113          	addi	sp,sp,32
   11490:	2810006f          	jal	zero,11f10 <__malloc_unlock>
   11494:	02089e63          	bne	a7,zero,114d0 <_free_r+0x12c>
   11498:	0001d5b7          	lui	a1,0x1d
   1149c:	00d787b3          	add	a5,a5,a3
   114a0:	41058593          	addi	a1,a1,1040 # 1d410 <__malloc_av_+0x8>
   114a4:	00862683          	lw	a3,8(a2)
   114a8:	0017e893          	ori	a7,a5,1
   114ac:	00f70533          	add	a0,a4,a5
   114b0:	16b68063          	beq	a3,a1,11610 <_free_r+0x26c>
   114b4:	00c62603          	lw	a2,12(a2)
   114b8:	00c6a623          	sw	a2,12(a3)
   114bc:	00d62423          	sw	a3,8(a2)
   114c0:	01172223          	sw	a7,4(a4)
   114c4:	00f52023          	sw	a5,0(a0)
   114c8:	f75ff06f          	jal	zero,1143c <_free_r+0x98>
   114cc:	00008067          	jalr	zero,0(ra)
   114d0:	00156513          	ori	a0,a0,1
   114d4:	fea5ae23          	sw	a0,-4(a1)
   114d8:	00f62023          	sw	a5,0(a2)
   114dc:	1ff00693          	addi	a3,zero,511
   114e0:	f6f6f2e3          	bgeu	a3,a5,11444 <_free_r+0xa0>
   114e4:	0097d693          	srli	a3,a5,0x9
   114e8:	00400613          	addi	a2,zero,4
   114ec:	0ed66063          	bltu	a2,a3,115cc <_free_r+0x228>
   114f0:	0067d693          	srli	a3,a5,0x6
   114f4:	03968593          	addi	a1,a3,57
   114f8:	00359593          	slli	a1,a1,0x3
   114fc:	03868613          	addi	a2,a3,56
   11500:	00b805b3          	add	a1,a6,a1
   11504:	0005a683          	lw	a3,0(a1)
   11508:	ff858593          	addi	a1,a1,-8
   1150c:	00d59863          	bne	a1,a3,1151c <_free_r+0x178>
   11510:	11c0006f          	jal	zero,1162c <_free_r+0x288>
   11514:	0086a683          	lw	a3,8(a3)
   11518:	00d58863          	beq	a1,a3,11528 <_free_r+0x184>
   1151c:	0046a603          	lw	a2,4(a3)
   11520:	ffc67613          	andi	a2,a2,-4
   11524:	fec7e8e3          	bltu	a5,a2,11514 <_free_r+0x170>
   11528:	00c6a583          	lw	a1,12(a3)
   1152c:	00b72623          	sw	a1,12(a4)
   11530:	00d72423          	sw	a3,8(a4)
   11534:	00040513          	addi	a0,s0,0
   11538:	01812403          	lw	s0,24(sp)
   1153c:	01c12083          	lw	ra,28(sp)
   11540:	00e5a423          	sw	a4,8(a1)
   11544:	00e6a623          	sw	a4,12(a3)
   11548:	02010113          	addi	sp,sp,32
   1154c:	1c50006f          	jal	zero,11f10 <__malloc_unlock>
   11550:	0a089063          	bne	a7,zero,115f0 <_free_r+0x24c>
   11554:	00c62583          	lw	a1,12(a2)
   11558:	00862603          	lw	a2,8(a2)
   1155c:	00f686b3          	add	a3,a3,a5
   11560:	0016e793          	ori	a5,a3,1
   11564:	00b62623          	sw	a1,12(a2)
   11568:	00c5a423          	sw	a2,8(a1)
   1156c:	00f72223          	sw	a5,4(a4)
   11570:	00d70733          	add	a4,a4,a3
   11574:	00d72023          	sw	a3,0(a4)
   11578:	f09ff06f          	jal	zero,11480 <_free_r+0xdc>
   1157c:	00d786b3          	add	a3,a5,a3
   11580:	02031063          	bne	t1,zero,115a0 <_free_r+0x1fc>
   11584:	ff85a783          	lw	a5,-8(a1)
   11588:	40f70733          	sub	a4,a4,a5
   1158c:	00872603          	lw	a2,8(a4)
   11590:	00f686b3          	add	a3,a3,a5
   11594:	00c72783          	lw	a5,12(a4)
   11598:	00f62623          	sw	a5,12(a2)
   1159c:	00c7a423          	sw	a2,8(a5)
   115a0:	0016e613          	ori	a2,a3,1
   115a4:	80c1a783          	lw	a5,-2036(gp) # 1d81c <__malloc_trim_threshold>
   115a8:	00c72223          	sw	a2,4(a4)
   115ac:	00e82423          	sw	a4,8(a6)
   115b0:	ecf6e8e3          	bltu	a3,a5,11480 <_free_r+0xdc>
   115b4:	84c1a583          	lw	a1,-1972(gp) # 1d85c <__malloc_top_pad>
   115b8:	00040513          	addi	a0,s0,0
   115bc:	cbdff0ef          	jal	ra,11278 <_malloc_trim_r>
   115c0:	ec1ff06f          	jal	zero,11480 <_free_r+0xdc>
   115c4:	00d787b3          	add	a5,a5,a3
   115c8:	eddff06f          	jal	zero,114a4 <_free_r+0x100>
   115cc:	01400613          	addi	a2,zero,20
   115d0:	02d67863          	bgeu	a2,a3,11600 <_free_r+0x25c>
   115d4:	05400613          	addi	a2,zero,84
   115d8:	06d66863          	bltu	a2,a3,11648 <_free_r+0x2a4>
   115dc:	00c7d693          	srli	a3,a5,0xc
   115e0:	06f68593          	addi	a1,a3,111
   115e4:	00359593          	slli	a1,a1,0x3
   115e8:	06e68613          	addi	a2,a3,110
   115ec:	f15ff06f          	jal	zero,11500 <_free_r+0x15c>
   115f0:	0017e693          	ori	a3,a5,1
   115f4:	00d72223          	sw	a3,4(a4)
   115f8:	00f62023          	sw	a5,0(a2)
   115fc:	e85ff06f          	jal	zero,11480 <_free_r+0xdc>
   11600:	05c68593          	addi	a1,a3,92
   11604:	00359593          	slli	a1,a1,0x3
   11608:	05b68613          	addi	a2,a3,91
   1160c:	ef5ff06f          	jal	zero,11500 <_free_r+0x15c>
   11610:	00e82a23          	sw	a4,20(a6)
   11614:	00e82823          	sw	a4,16(a6)
   11618:	00b72623          	sw	a1,12(a4)
   1161c:	00b72423          	sw	a1,8(a4)
   11620:	01172223          	sw	a7,4(a4)
   11624:	00f52023          	sw	a5,0(a0)
   11628:	e59ff06f          	jal	zero,11480 <_free_r+0xdc>
   1162c:	00482503          	lw	a0,4(a6)
   11630:	40265613          	srai	a2,a2,0x2
   11634:	00100793          	addi	a5,zero,1
   11638:	00c797b3          	sll	a5,a5,a2
   1163c:	00a7e7b3          	or	a5,a5,a0
   11640:	00f82223          	sw	a5,4(a6)
   11644:	ee9ff06f          	jal	zero,1152c <_free_r+0x188>
   11648:	15400613          	addi	a2,zero,340
   1164c:	00d66c63          	bltu	a2,a3,11664 <_free_r+0x2c0>
   11650:	00f7d693          	srli	a3,a5,0xf
   11654:	07868593          	addi	a1,a3,120
   11658:	00359593          	slli	a1,a1,0x3
   1165c:	07768613          	addi	a2,a3,119
   11660:	ea1ff06f          	jal	zero,11500 <_free_r+0x15c>
   11664:	55400613          	addi	a2,zero,1364
   11668:	00d66c63          	bltu	a2,a3,11680 <_free_r+0x2dc>
   1166c:	0127d693          	srli	a3,a5,0x12
   11670:	07d68593          	addi	a1,a3,125
   11674:	00359593          	slli	a1,a1,0x3
   11678:	07c68613          	addi	a2,a3,124
   1167c:	e85ff06f          	jal	zero,11500 <_free_r+0x15c>
   11680:	3f800593          	addi	a1,zero,1016
   11684:	07e00613          	addi	a2,zero,126
   11688:	e79ff06f          	jal	zero,11500 <_free_r+0x15c>

0001168c <_malloc_r>:
   1168c:	fc010113          	addi	sp,sp,-64
   11690:	02812c23          	sw	s0,56(sp)
   11694:	02112e23          	sw	ra,60(sp)
   11698:	00b58793          	addi	a5,a1,11
   1169c:	01600713          	addi	a4,zero,22
   116a0:	00050413          	addi	s0,a0,0
   116a4:	08f76e63          	bltu	a4,a5,11740 <_malloc_r+0xb4>
   116a8:	01000693          	addi	a3,zero,16
   116ac:	06b6ec63          	bltu	a3,a1,11724 <_malloc_r+0x98>
   116b0:	05d000ef          	jal	ra,11f0c <__malloc_lock>
   116b4:	01000693          	addi	a3,zero,16
   116b8:	01800713          	addi	a4,zero,24
   116bc:	00200893          	addi	a7,zero,2
   116c0:	0001d837          	lui	a6,0x1d
   116c4:	40880813          	addi	a6,a6,1032 # 1d408 <__malloc_av_>
   116c8:	00e80733          	add	a4,a6,a4
   116cc:	00472783          	lw	a5,4(a4)
   116d0:	ff870613          	addi	a2,a4,-8
   116d4:	44c78e63          	beq	a5,a2,11b30 <_malloc_r+0x4a4>
   116d8:	0047a703          	lw	a4,4(a5)
   116dc:	00c7a603          	lw	a2,12(a5)
   116e0:	0087a583          	lw	a1,8(a5)
   116e4:	ffc77713          	andi	a4,a4,-4
   116e8:	00e78733          	add	a4,a5,a4
   116ec:	00472683          	lw	a3,4(a4)
   116f0:	00c5a623          	sw	a2,12(a1)
   116f4:	00f12623          	sw	a5,12(sp)
   116f8:	00b62423          	sw	a1,8(a2)
   116fc:	0016e693          	ori	a3,a3,1
   11700:	00040513          	addi	a0,s0,0
   11704:	00d72223          	sw	a3,4(a4)
   11708:	009000ef          	jal	ra,11f10 <__malloc_unlock>
   1170c:	00c12783          	lw	a5,12(sp)
   11710:	03c12083          	lw	ra,60(sp)
   11714:	03812403          	lw	s0,56(sp)
   11718:	00878513          	addi	a0,a5,8
   1171c:	04010113          	addi	sp,sp,64
   11720:	00008067          	jalr	zero,0(ra)
   11724:	00c00793          	addi	a5,zero,12
   11728:	00f42023          	sw	a5,0(s0)
   1172c:	00000513          	addi	a0,zero,0
   11730:	03c12083          	lw	ra,60(sp)
   11734:	03812403          	lw	s0,56(sp)
   11738:	04010113          	addi	sp,sp,64
   1173c:	00008067          	jalr	zero,0(ra)
   11740:	ff87f693          	andi	a3,a5,-8
   11744:	fe07c0e3          	blt	a5,zero,11724 <_malloc_r+0x98>
   11748:	fcb6eee3          	bltu	a3,a1,11724 <_malloc_r+0x98>
   1174c:	00d12623          	sw	a3,12(sp)
   11750:	7bc000ef          	jal	ra,11f0c <__malloc_lock>
   11754:	00c12683          	lw	a3,12(sp)
   11758:	1f700793          	addi	a5,zero,503
   1175c:	4cd7f863          	bgeu	a5,a3,11c2c <_malloc_r+0x5a0>
   11760:	0096d793          	srli	a5,a3,0x9
   11764:	16078e63          	beq	a5,zero,118e0 <_malloc_r+0x254>
   11768:	00400713          	addi	a4,zero,4
   1176c:	42f76a63          	bltu	a4,a5,11ba0 <_malloc_r+0x514>
   11770:	0066d793          	srli	a5,a3,0x6
   11774:	03978893          	addi	a7,a5,57
   11778:	03878e13          	addi	t3,a5,56
   1177c:	00389513          	slli	a0,a7,0x3
   11780:	0001d837          	lui	a6,0x1d
   11784:	40880813          	addi	a6,a6,1032 # 1d408 <__malloc_av_>
   11788:	00a80533          	add	a0,a6,a0
   1178c:	00452783          	lw	a5,4(a0)
   11790:	ff850513          	addi	a0,a0,-8
   11794:	02f50863          	beq	a0,a5,117c4 <_malloc_r+0x138>
   11798:	00f00313          	addi	t1,zero,15
   1179c:	0140006f          	jal	zero,117b0 <_malloc_r+0x124>
   117a0:	00c7a583          	lw	a1,12(a5)
   117a4:	34065663          	bge	a2,zero,11af0 <_malloc_r+0x464>
   117a8:	00b50e63          	beq	a0,a1,117c4 <_malloc_r+0x138>
   117ac:	00058793          	addi	a5,a1,0
   117b0:	0047a703          	lw	a4,4(a5)
   117b4:	ffc77713          	andi	a4,a4,-4
   117b8:	40d70633          	sub	a2,a4,a3
   117bc:	fec352e3          	bge	t1,a2,117a0 <_malloc_r+0x114>
   117c0:	000e0893          	addi	a7,t3,0
   117c4:	01082783          	lw	a5,16(a6)
   117c8:	0001de37          	lui	t3,0x1d
   117cc:	410e0e13          	addi	t3,t3,1040 # 1d410 <__malloc_av_+0x8>
   117d0:	2dc78e63          	beq	a5,t3,11aac <_malloc_r+0x420>
   117d4:	0047a703          	lw	a4,4(a5)
   117d8:	00f00593          	addi	a1,zero,15
   117dc:	ffc77713          	andi	a4,a4,-4
   117e0:	40d70633          	sub	a2,a4,a3
   117e4:	46c5ce63          	blt	a1,a2,11c60 <_malloc_r+0x5d4>
   117e8:	01c82a23          	sw	t3,20(a6)
   117ec:	01c82823          	sw	t3,16(a6)
   117f0:	44065463          	bge	a2,zero,11c38 <_malloc_r+0x5ac>
   117f4:	1ff00613          	addi	a2,zero,511
   117f8:	00482303          	lw	t1,4(a6)
   117fc:	34e66263          	bltu	a2,a4,11b40 <_malloc_r+0x4b4>
   11800:	ff877613          	andi	a2,a4,-8
   11804:	00860613          	addi	a2,a2,8
   11808:	00c80633          	add	a2,a6,a2
   1180c:	00062583          	lw	a1,0(a2)
   11810:	00575513          	srli	a0,a4,0x5
   11814:	00100713          	addi	a4,zero,1
   11818:	00a71733          	sll	a4,a4,a0
   1181c:	00e36333          	or	t1,t1,a4
   11820:	ff860713          	addi	a4,a2,-8
   11824:	00b7a423          	sw	a1,8(a5)
   11828:	00e7a623          	sw	a4,12(a5)
   1182c:	00682223          	sw	t1,4(a6)
   11830:	00f62023          	sw	a5,0(a2)
   11834:	00f5a623          	sw	a5,12(a1)
   11838:	4028d793          	srai	a5,a7,0x2
   1183c:	00100513          	addi	a0,zero,1
   11840:	00f51533          	sll	a0,a0,a5
   11844:	0aa36663          	bltu	t1,a0,118f0 <_malloc_r+0x264>
   11848:	006577b3          	and	a5,a0,t1
   1184c:	02079463          	bne	a5,zero,11874 <_malloc_r+0x1e8>
   11850:	00151513          	slli	a0,a0,0x1
   11854:	ffc8f893          	andi	a7,a7,-4
   11858:	006577b3          	and	a5,a0,t1
   1185c:	00488893          	addi	a7,a7,4
   11860:	00079a63          	bne	a5,zero,11874 <_malloc_r+0x1e8>
   11864:	00151513          	slli	a0,a0,0x1
   11868:	006577b3          	and	a5,a0,t1
   1186c:	00488893          	addi	a7,a7,4
   11870:	fe078ae3          	beq	a5,zero,11864 <_malloc_r+0x1d8>
   11874:	00f00e93          	addi	t4,zero,15
   11878:	00389f13          	slli	t5,a7,0x3
   1187c:	01e80f33          	add	t5,a6,t5
   11880:	000f0313          	addi	t1,t5,0
   11884:	00c32703          	lw	a4,12(t1)
   11888:	00088f93          	addi	t6,a7,0
   1188c:	32e30c63          	beq	t1,a4,11bc4 <_malloc_r+0x538>
   11890:	00472603          	lw	a2,4(a4)
   11894:	00070793          	addi	a5,a4,0
   11898:	00c72703          	lw	a4,12(a4)
   1189c:	ffc67613          	andi	a2,a2,-4
   118a0:	40d605b3          	sub	a1,a2,a3
   118a4:	32becc63          	blt	t4,a1,11bdc <_malloc_r+0x550>
   118a8:	fe05c2e3          	blt	a1,zero,1188c <_malloc_r+0x200>
   118ac:	00c78633          	add	a2,a5,a2
   118b0:	00462683          	lw	a3,4(a2)
   118b4:	0087a583          	lw	a1,8(a5)
   118b8:	00040513          	addi	a0,s0,0
   118bc:	0016e693          	ori	a3,a3,1
   118c0:	00d62223          	sw	a3,4(a2)
   118c4:	00e5a623          	sw	a4,12(a1)
   118c8:	00b72423          	sw	a1,8(a4)
   118cc:	00f12623          	sw	a5,12(sp)
   118d0:	640000ef          	jal	ra,11f10 <__malloc_unlock>
   118d4:	00c12783          	lw	a5,12(sp)
   118d8:	00878513          	addi	a0,a5,8
   118dc:	e55ff06f          	jal	zero,11730 <_malloc_r+0xa4>
   118e0:	20000513          	addi	a0,zero,512
   118e4:	04000893          	addi	a7,zero,64
   118e8:	03f00e13          	addi	t3,zero,63
   118ec:	e95ff06f          	jal	zero,11780 <_malloc_r+0xf4>
   118f0:	00882783          	lw	a5,8(a6)
   118f4:	0047a703          	lw	a4,4(a5)
   118f8:	ffc77713          	andi	a4,a4,-4
   118fc:	40d70633          	sub	a2,a4,a3
   11900:	00d76663          	bltu	a4,a3,1190c <_malloc_r+0x280>
   11904:	01062593          	slti	a1,a2,16
   11908:	1a058663          	beq	a1,zero,11ab4 <_malloc_r+0x428>
   1190c:	84c1a583          	lw	a1,-1972(gp) # 1d85c <__malloc_top_pad>
   11910:	8081a503          	lw	a0,-2040(gp) # 1d818 <__malloc_sbrk_base>
   11914:	fff00613          	addi	a2,zero,-1
   11918:	00b685b3          	add	a1,a3,a1
   1191c:	42c50663          	beq	a0,a2,11d48 <_malloc_r+0x6bc>
   11920:	00001637          	lui	a2,0x1
   11924:	00f60613          	addi	a2,a2,15 # 100f <exit-0xf0a5>
   11928:	00c585b3          	add	a1,a1,a2
   1192c:	fffff637          	lui	a2,0xfffff
   11930:	00c5f5b3          	and	a1,a1,a2
   11934:	00040513          	addi	a0,s0,0
   11938:	01012e23          	sw	a6,28(sp)
   1193c:	00f12c23          	sw	a5,24(sp)
   11940:	00d12a23          	sw	a3,20(sp)
   11944:	00e12823          	sw	a4,16(sp)
   11948:	00b12623          	sw	a1,12(sp)
   1194c:	235000ef          	jal	ra,12380 <_sbrk_r>
   11950:	fff00613          	addi	a2,zero,-1
   11954:	00c12583          	lw	a1,12(sp)
   11958:	01012703          	lw	a4,16(sp)
   1195c:	01412683          	lw	a3,20(sp)
   11960:	01812783          	lw	a5,24(sp)
   11964:	01c12803          	lw	a6,28(sp)
   11968:	00050893          	addi	a7,a0,0
   1196c:	34c50863          	beq	a0,a2,11cbc <_malloc_r+0x630>
   11970:	00e78533          	add	a0,a5,a4
   11974:	34a8e263          	bltu	a7,a0,11cb8 <_malloc_r+0x62c>
   11978:	00045e37          	lui	t3,0x45
   1197c:	dd8e0e13          	addi	t3,t3,-552 # 44dd8 <__malloc_current_mallinfo>
   11980:	000e2603          	lw	a2,0(t3)
   11984:	00c58633          	add	a2,a1,a2
   11988:	00ce2023          	sw	a2,0(t3)
   1198c:	00060e93          	addi	t4,a2,0 # fffff000 <__BSS_END__+0xfffba070>
   11990:	49150863          	beq	a0,a7,11e20 <_malloc_r+0x794>
   11994:	8081af03          	lw	t5,-2040(gp) # 1d818 <__malloc_sbrk_base>
   11998:	fff00613          	addi	a2,zero,-1
   1199c:	4acf0063          	beq	t5,a2,11e3c <_malloc_r+0x7b0>
   119a0:	40a88633          	sub	a2,a7,a0
   119a4:	01d60633          	add	a2,a2,t4
   119a8:	00ce2023          	sw	a2,0(t3)
   119ac:	0078fe93          	andi	t4,a7,7
   119b0:	3a0e8c63          	beq	t4,zero,11d68 <_malloc_r+0x6dc>
   119b4:	ff88f893          	andi	a7,a7,-8
   119b8:	00001637          	lui	a2,0x1
   119bc:	00888893          	addi	a7,a7,8
   119c0:	00860613          	addi	a2,a2,8 # 1008 <exit-0xf0ac>
   119c4:	00b88333          	add	t1,a7,a1
   119c8:	41d60633          	sub	a2,a2,t4
   119cc:	40660633          	sub	a2,a2,t1
   119d0:	01461613          	slli	a2,a2,0x14
   119d4:	01465593          	srli	a1,a2,0x14
   119d8:	00040513          	addi	a0,s0,0
   119dc:	03012623          	sw	a6,44(sp)
   119e0:	03c12423          	sw	t3,40(sp)
   119e4:	02f12223          	sw	a5,36(sp)
   119e8:	02d12023          	sw	a3,32(sp)
   119ec:	00e12e23          	sw	a4,28(sp)
   119f0:	01112c23          	sw	a7,24(sp)
   119f4:	01d12a23          	sw	t4,20(sp)
   119f8:	00612823          	sw	t1,16(sp)
   119fc:	00b12623          	sw	a1,12(sp)
   11a00:	181000ef          	jal	ra,12380 <_sbrk_r>
   11a04:	fff00613          	addi	a2,zero,-1
   11a08:	00c12583          	lw	a1,12(sp)
   11a0c:	01012303          	lw	t1,16(sp)
   11a10:	01412e83          	lw	t4,20(sp)
   11a14:	01812883          	lw	a7,24(sp)
   11a18:	01c12703          	lw	a4,28(sp)
   11a1c:	02012683          	lw	a3,32(sp)
   11a20:	02412783          	lw	a5,36(sp)
   11a24:	02812e03          	lw	t3,40(sp)
   11a28:	02c12803          	lw	a6,44(sp)
   11a2c:	44c50e63          	beq	a0,a2,11e88 <_malloc_r+0x7fc>
   11a30:	000e2603          	lw	a2,0(t3)
   11a34:	41150533          	sub	a0,a0,a7
   11a38:	00b50533          	add	a0,a0,a1
   11a3c:	00156513          	ori	a0,a0,1
   11a40:	01182423          	sw	a7,8(a6)
   11a44:	00c58633          	add	a2,a1,a2
   11a48:	00a8a223          	sw	a0,4(a7)
   11a4c:	00ce2023          	sw	a2,0(t3)
   11a50:	03078e63          	beq	a5,a6,11a8c <_malloc_r+0x400>
   11a54:	00f00513          	addi	a0,zero,15
   11a58:	3ee57663          	bgeu	a0,a4,11e44 <_malloc_r+0x7b8>
   11a5c:	0047a583          	lw	a1,4(a5)
   11a60:	ff470713          	addi	a4,a4,-12
   11a64:	ff877713          	andi	a4,a4,-8
   11a68:	0015f593          	andi	a1,a1,1
   11a6c:	00e5e5b3          	or	a1,a1,a4
   11a70:	00b7a223          	sw	a1,4(a5)
   11a74:	00500313          	addi	t1,zero,5
   11a78:	00e785b3          	add	a1,a5,a4
   11a7c:	0065a223          	sw	t1,4(a1)
   11a80:	0065a423          	sw	t1,8(a1)
   11a84:	40e56a63          	bltu	a0,a4,11e98 <_malloc_r+0x80c>
   11a88:	0048a503          	lw	a0,4(a7)
   11a8c:	8481a703          	lw	a4,-1976(gp) # 1d858 <__malloc_max_sbrked_mem>
   11a90:	00c77463          	bgeu	a4,a2,11a98 <_malloc_r+0x40c>
   11a94:	84c1a423          	sw	a2,-1976(gp) # 1d858 <__malloc_max_sbrked_mem>
   11a98:	8441a703          	lw	a4,-1980(gp) # 1d854 <__malloc_max_total_mem>
   11a9c:	00c77463          	bgeu	a4,a2,11aa4 <_malloc_r+0x418>
   11aa0:	84c1a223          	sw	a2,-1980(gp) # 1d854 <__malloc_max_total_mem>
   11aa4:	00088793          	addi	a5,a7,0
   11aa8:	21c0006f          	jal	zero,11cc4 <_malloc_r+0x638>
   11aac:	00482303          	lw	t1,4(a6)
   11ab0:	d89ff06f          	jal	zero,11838 <_malloc_r+0x1ac>
   11ab4:	0016e713          	ori	a4,a3,1
   11ab8:	00e7a223          	sw	a4,4(a5)
   11abc:	00d786b3          	add	a3,a5,a3
   11ac0:	00166613          	ori	a2,a2,1
   11ac4:	00d82423          	sw	a3,8(a6)
   11ac8:	00040513          	addi	a0,s0,0
   11acc:	00c6a223          	sw	a2,4(a3)
   11ad0:	00f12623          	sw	a5,12(sp)
   11ad4:	43c000ef          	jal	ra,11f10 <__malloc_unlock>
   11ad8:	00c12783          	lw	a5,12(sp)
   11adc:	03c12083          	lw	ra,60(sp)
   11ae0:	03812403          	lw	s0,56(sp)
   11ae4:	00878513          	addi	a0,a5,8
   11ae8:	04010113          	addi	sp,sp,64
   11aec:	00008067          	jalr	zero,0(ra)
   11af0:	0087a603          	lw	a2,8(a5)
   11af4:	00e78733          	add	a4,a5,a4
   11af8:	00472683          	lw	a3,4(a4)
   11afc:	00b62623          	sw	a1,12(a2)
   11b00:	00f12623          	sw	a5,12(sp)
   11b04:	0016e693          	ori	a3,a3,1
   11b08:	00c5a423          	sw	a2,8(a1)
   11b0c:	00040513          	addi	a0,s0,0
   11b10:	00d72223          	sw	a3,4(a4)
   11b14:	3fc000ef          	jal	ra,11f10 <__malloc_unlock>
   11b18:	00c12783          	lw	a5,12(sp)
   11b1c:	03c12083          	lw	ra,60(sp)
   11b20:	03812403          	lw	s0,56(sp)
   11b24:	00878513          	addi	a0,a5,8
   11b28:	04010113          	addi	sp,sp,64
   11b2c:	00008067          	jalr	zero,0(ra)
   11b30:	00c72783          	lw	a5,12(a4)
   11b34:	00288893          	addi	a7,a7,2
   11b38:	c8f706e3          	beq	a4,a5,117c4 <_malloc_r+0x138>
   11b3c:	b9dff06f          	jal	zero,116d8 <_malloc_r+0x4c>
   11b40:	00975613          	srli	a2,a4,0x9
   11b44:	00400593          	addi	a1,zero,4
   11b48:	14c5fe63          	bgeu	a1,a2,11ca4 <_malloc_r+0x618>
   11b4c:	01400593          	addi	a1,zero,20
   11b50:	28c5e063          	bltu	a1,a2,11dd0 <_malloc_r+0x744>
   11b54:	05c60513          	addi	a0,a2,92
   11b58:	00351513          	slli	a0,a0,0x3
   11b5c:	05b60593          	addi	a1,a2,91
   11b60:	00a80533          	add	a0,a6,a0
   11b64:	00052603          	lw	a2,0(a0)
   11b68:	ff850513          	addi	a0,a0,-8
   11b6c:	00c51863          	bne	a0,a2,11b7c <_malloc_r+0x4f0>
   11b70:	1e00006f          	jal	zero,11d50 <_malloc_r+0x6c4>
   11b74:	00862603          	lw	a2,8(a2)
   11b78:	00c50863          	beq	a0,a2,11b88 <_malloc_r+0x4fc>
   11b7c:	00462583          	lw	a1,4(a2)
   11b80:	ffc5f593          	andi	a1,a1,-4
   11b84:	feb768e3          	bltu	a4,a1,11b74 <_malloc_r+0x4e8>
   11b88:	00c62503          	lw	a0,12(a2)
   11b8c:	00a7a623          	sw	a0,12(a5)
   11b90:	00c7a423          	sw	a2,8(a5)
   11b94:	00f52423          	sw	a5,8(a0)
   11b98:	00f62623          	sw	a5,12(a2)
   11b9c:	c9dff06f          	jal	zero,11838 <_malloc_r+0x1ac>
   11ba0:	01400713          	addi	a4,zero,20
   11ba4:	14f77063          	bgeu	a4,a5,11ce4 <_malloc_r+0x658>
   11ba8:	05400713          	addi	a4,zero,84
   11bac:	24f76063          	bltu	a4,a5,11dec <_malloc_r+0x760>
   11bb0:	00c6d793          	srli	a5,a3,0xc
   11bb4:	06f78893          	addi	a7,a5,111
   11bb8:	06e78e13          	addi	t3,a5,110
   11bbc:	00389513          	slli	a0,a7,0x3
   11bc0:	bc1ff06f          	jal	zero,11780 <_malloc_r+0xf4>
   11bc4:	001f8f93          	addi	t6,t6,1
   11bc8:	003ff793          	andi	a5,t6,3
   11bcc:	00830313          	addi	t1,t1,8
   11bd0:	12078863          	beq	a5,zero,11d00 <_malloc_r+0x674>
   11bd4:	00c32703          	lw	a4,12(t1)
   11bd8:	cb5ff06f          	jal	zero,1188c <_malloc_r+0x200>
   11bdc:	0087a503          	lw	a0,8(a5)
   11be0:	0016e893          	ori	a7,a3,1
   11be4:	0117a223          	sw	a7,4(a5)
   11be8:	00e52623          	sw	a4,12(a0)
   11bec:	00a72423          	sw	a0,8(a4)
   11bf0:	00d786b3          	add	a3,a5,a3
   11bf4:	00d82a23          	sw	a3,20(a6)
   11bf8:	00d82823          	sw	a3,16(a6)
   11bfc:	0015e713          	ori	a4,a1,1
   11c00:	00c78633          	add	a2,a5,a2
   11c04:	01c6a623          	sw	t3,12(a3)
   11c08:	01c6a423          	sw	t3,8(a3)
   11c0c:	00e6a223          	sw	a4,4(a3)
   11c10:	00040513          	addi	a0,s0,0
   11c14:	00b62023          	sw	a1,0(a2)
   11c18:	00f12623          	sw	a5,12(sp)
   11c1c:	2f4000ef          	jal	ra,11f10 <__malloc_unlock>
   11c20:	00c12783          	lw	a5,12(sp)
   11c24:	00878513          	addi	a0,a5,8
   11c28:	b09ff06f          	jal	zero,11730 <_malloc_r+0xa4>
   11c2c:	0036d893          	srli	a7,a3,0x3
   11c30:	00868713          	addi	a4,a3,8
   11c34:	a8dff06f          	jal	zero,116c0 <_malloc_r+0x34>
   11c38:	00e78733          	add	a4,a5,a4
   11c3c:	00472683          	lw	a3,4(a4)
   11c40:	00f12623          	sw	a5,12(sp)
   11c44:	00040513          	addi	a0,s0,0
   11c48:	0016e693          	ori	a3,a3,1
   11c4c:	00d72223          	sw	a3,4(a4)
   11c50:	2c0000ef          	jal	ra,11f10 <__malloc_unlock>
   11c54:	00c12783          	lw	a5,12(sp)
   11c58:	00878513          	addi	a0,a5,8
   11c5c:	ad5ff06f          	jal	zero,11730 <_malloc_r+0xa4>
   11c60:	0016e593          	ori	a1,a3,1
   11c64:	00b7a223          	sw	a1,4(a5)
   11c68:	00d786b3          	add	a3,a5,a3
   11c6c:	00d82a23          	sw	a3,20(a6)
   11c70:	00d82823          	sw	a3,16(a6)
   11c74:	00166593          	ori	a1,a2,1
   11c78:	00e78733          	add	a4,a5,a4
   11c7c:	01c6a623          	sw	t3,12(a3)
   11c80:	01c6a423          	sw	t3,8(a3)
   11c84:	00b6a223          	sw	a1,4(a3)
   11c88:	00040513          	addi	a0,s0,0
   11c8c:	00c72023          	sw	a2,0(a4)
   11c90:	00f12623          	sw	a5,12(sp)
   11c94:	27c000ef          	jal	ra,11f10 <__malloc_unlock>
   11c98:	00c12783          	lw	a5,12(sp)
   11c9c:	00878513          	addi	a0,a5,8
   11ca0:	a91ff06f          	jal	zero,11730 <_malloc_r+0xa4>
   11ca4:	00675613          	srli	a2,a4,0x6
   11ca8:	03960513          	addi	a0,a2,57
   11cac:	00351513          	slli	a0,a0,0x3
   11cb0:	03860593          	addi	a1,a2,56
   11cb4:	eadff06f          	jal	zero,11b60 <_malloc_r+0x4d4>
   11cb8:	15078863          	beq	a5,a6,11e08 <_malloc_r+0x77c>
   11cbc:	00882783          	lw	a5,8(a6)
   11cc0:	0047a503          	lw	a0,4(a5)
   11cc4:	ffc57513          	andi	a0,a0,-4
   11cc8:	40d50633          	sub	a2,a0,a3
   11ccc:	00d56663          	bltu	a0,a3,11cd8 <_malloc_r+0x64c>
   11cd0:	01062713          	slti	a4,a2,16
   11cd4:	de0700e3          	beq	a4,zero,11ab4 <_malloc_r+0x428>
   11cd8:	00040513          	addi	a0,s0,0
   11cdc:	234000ef          	jal	ra,11f10 <__malloc_unlock>
   11ce0:	a4dff06f          	jal	zero,1172c <_malloc_r+0xa0>
   11ce4:	05c78893          	addi	a7,a5,92
   11ce8:	05b78e13          	addi	t3,a5,91
   11cec:	00389513          	slli	a0,a7,0x3
   11cf0:	a91ff06f          	jal	zero,11780 <_malloc_r+0xf4>
   11cf4:	008f2783          	lw	a5,8(t5)
   11cf8:	fff88893          	addi	a7,a7,-1
   11cfc:	21e79463          	bne	a5,t5,11f04 <_malloc_r+0x878>
   11d00:	0038f793          	andi	a5,a7,3
   11d04:	ff8f0f13          	addi	t5,t5,-8
   11d08:	fe0796e3          	bne	a5,zero,11cf4 <_malloc_r+0x668>
   11d0c:	00482703          	lw	a4,4(a6)
   11d10:	fff54793          	xori	a5,a0,-1
   11d14:	00e7f7b3          	and	a5,a5,a4
   11d18:	00f82223          	sw	a5,4(a6)
   11d1c:	00151513          	slli	a0,a0,0x1
   11d20:	fff50713          	addi	a4,a0,-1
   11d24:	bcf776e3          	bgeu	a4,a5,118f0 <_malloc_r+0x264>
   11d28:	00f57733          	and	a4,a0,a5
   11d2c:	00071a63          	bne	a4,zero,11d40 <_malloc_r+0x6b4>
   11d30:	00151513          	slli	a0,a0,0x1
   11d34:	00f57733          	and	a4,a0,a5
   11d38:	004f8f93          	addi	t6,t6,4
   11d3c:	fe070ae3          	beq	a4,zero,11d30 <_malloc_r+0x6a4>
   11d40:	000f8893          	addi	a7,t6,0
   11d44:	b35ff06f          	jal	zero,11878 <_malloc_r+0x1ec>
   11d48:	01058593          	addi	a1,a1,16
   11d4c:	be9ff06f          	jal	zero,11934 <_malloc_r+0x2a8>
   11d50:	4025d593          	srai	a1,a1,0x2
   11d54:	00100713          	addi	a4,zero,1
   11d58:	00b71733          	sll	a4,a4,a1
   11d5c:	00e36333          	or	t1,t1,a4
   11d60:	00682223          	sw	t1,4(a6)
   11d64:	e29ff06f          	jal	zero,11b8c <_malloc_r+0x500>
   11d68:	00b88333          	add	t1,a7,a1
   11d6c:	40600633          	sub	a2,zero,t1
   11d70:	01461613          	slli	a2,a2,0x14
   11d74:	01465593          	srli	a1,a2,0x14
   11d78:	00040513          	addi	a0,s0,0
   11d7c:	03012423          	sw	a6,40(sp)
   11d80:	03c12223          	sw	t3,36(sp)
   11d84:	02f12023          	sw	a5,32(sp)
   11d88:	00d12e23          	sw	a3,28(sp)
   11d8c:	00e12c23          	sw	a4,24(sp)
   11d90:	01112a23          	sw	a7,20(sp)
   11d94:	00b12623          	sw	a1,12(sp)
   11d98:	00612823          	sw	t1,16(sp)
   11d9c:	5e4000ef          	jal	ra,12380 <_sbrk_r>
   11da0:	fff00613          	addi	a2,zero,-1
   11da4:	00c12583          	lw	a1,12(sp)
   11da8:	01412883          	lw	a7,20(sp)
   11dac:	01812703          	lw	a4,24(sp)
   11db0:	01c12683          	lw	a3,28(sp)
   11db4:	02012783          	lw	a5,32(sp)
   11db8:	02412e03          	lw	t3,36(sp)
   11dbc:	02812803          	lw	a6,40(sp)
   11dc0:	c6c518e3          	bne	a0,a2,11a30 <_malloc_r+0x3a4>
   11dc4:	01012503          	lw	a0,16(sp)
   11dc8:	00000593          	addi	a1,zero,0
   11dcc:	c65ff06f          	jal	zero,11a30 <_malloc_r+0x3a4>
   11dd0:	05400593          	addi	a1,zero,84
   11dd4:	06c5ee63          	bltu	a1,a2,11e50 <_malloc_r+0x7c4>
   11dd8:	00c75613          	srli	a2,a4,0xc
   11ddc:	06f60513          	addi	a0,a2,111
   11de0:	00351513          	slli	a0,a0,0x3
   11de4:	06e60593          	addi	a1,a2,110
   11de8:	d79ff06f          	jal	zero,11b60 <_malloc_r+0x4d4>
   11dec:	15400713          	addi	a4,zero,340
   11df0:	06f76e63          	bltu	a4,a5,11e6c <_malloc_r+0x7e0>
   11df4:	00f6d793          	srli	a5,a3,0xf
   11df8:	07878893          	addi	a7,a5,120
   11dfc:	07778e13          	addi	t3,a5,119
   11e00:	00389513          	slli	a0,a7,0x3
   11e04:	97dff06f          	jal	zero,11780 <_malloc_r+0xf4>
   11e08:	00045e37          	lui	t3,0x45
   11e0c:	dd8e0e13          	addi	t3,t3,-552 # 44dd8 <__malloc_current_mallinfo>
   11e10:	000e2e83          	lw	t4,0(t3)
   11e14:	01d58eb3          	add	t4,a1,t4
   11e18:	01de2023          	sw	t4,0(t3)
   11e1c:	b79ff06f          	jal	zero,11994 <_malloc_r+0x308>
   11e20:	01489f13          	slli	t5,a7,0x14
   11e24:	b60f18e3          	bne	t5,zero,11994 <_malloc_r+0x308>
   11e28:	00882883          	lw	a7,8(a6)
   11e2c:	00b705b3          	add	a1,a4,a1
   11e30:	0015e513          	ori	a0,a1,1
   11e34:	00a8a223          	sw	a0,4(a7)
   11e38:	c55ff06f          	jal	zero,11a8c <_malloc_r+0x400>
   11e3c:	8111a423          	sw	a7,-2040(gp) # 1d818 <__malloc_sbrk_base>
   11e40:	b6dff06f          	jal	zero,119ac <_malloc_r+0x320>
   11e44:	00100793          	addi	a5,zero,1
   11e48:	00f8a223          	sw	a5,4(a7)
   11e4c:	e8dff06f          	jal	zero,11cd8 <_malloc_r+0x64c>
   11e50:	15400593          	addi	a1,zero,340
   11e54:	06c5ec63          	bltu	a1,a2,11ecc <_malloc_r+0x840>
   11e58:	00f75613          	srli	a2,a4,0xf
   11e5c:	07860513          	addi	a0,a2,120
   11e60:	00351513          	slli	a0,a0,0x3
   11e64:	07760593          	addi	a1,a2,119
   11e68:	cf9ff06f          	jal	zero,11b60 <_malloc_r+0x4d4>
   11e6c:	55400713          	addi	a4,zero,1364
   11e70:	06f76c63          	bltu	a4,a5,11ee8 <_malloc_r+0x85c>
   11e74:	0126d793          	srli	a5,a3,0x12
   11e78:	07d78893          	addi	a7,a5,125
   11e7c:	07c78e13          	addi	t3,a5,124
   11e80:	00389513          	slli	a0,a7,0x3
   11e84:	8fdff06f          	jal	zero,11780 <_malloc_r+0xf4>
   11e88:	ff8e8e93          	addi	t4,t4,-8
   11e8c:	01d30533          	add	a0,t1,t4
   11e90:	00000593          	addi	a1,zero,0
   11e94:	b9dff06f          	jal	zero,11a30 <_malloc_r+0x3a4>
   11e98:	00040513          	addi	a0,s0,0
   11e9c:	00878593          	addi	a1,a5,8
   11ea0:	01012a23          	sw	a6,20(sp)
   11ea4:	01c12823          	sw	t3,16(sp)
   11ea8:	00d12623          	sw	a3,12(sp)
   11eac:	cf8ff0ef          	jal	ra,113a4 <_free_r>
   11eb0:	01412803          	lw	a6,20(sp)
   11eb4:	01012e03          	lw	t3,16(sp)
   11eb8:	00c12683          	lw	a3,12(sp)
   11ebc:	00882883          	lw	a7,8(a6)
   11ec0:	000e2603          	lw	a2,0(t3)
   11ec4:	0048a503          	lw	a0,4(a7)
   11ec8:	bc5ff06f          	jal	zero,11a8c <_malloc_r+0x400>
   11ecc:	55400593          	addi	a1,zero,1364
   11ed0:	02c5e463          	bltu	a1,a2,11ef8 <_malloc_r+0x86c>
   11ed4:	01275613          	srli	a2,a4,0x12
   11ed8:	07d60513          	addi	a0,a2,125
   11edc:	00351513          	slli	a0,a0,0x3
   11ee0:	07c60593          	addi	a1,a2,124
   11ee4:	c7dff06f          	jal	zero,11b60 <_malloc_r+0x4d4>
   11ee8:	3f800513          	addi	a0,zero,1016
   11eec:	07f00893          	addi	a7,zero,127
   11ef0:	07e00e13          	addi	t3,zero,126
   11ef4:	88dff06f          	jal	zero,11780 <_malloc_r+0xf4>
   11ef8:	3f800513          	addi	a0,zero,1016
   11efc:	07e00593          	addi	a1,zero,126
   11f00:	c61ff06f          	jal	zero,11b60 <_malloc_r+0x4d4>
   11f04:	00482783          	lw	a5,4(a6)
   11f08:	e15ff06f          	jal	zero,11d1c <_malloc_r+0x690>

00011f0c <__malloc_lock>:
   11f0c:	00008067          	jalr	zero,0(ra)

00011f10 <__malloc_unlock>:
   11f10:	00008067          	jalr	zero,0(ra)

00011f14 <_fclose_r>:
   11f14:	ff010113          	addi	sp,sp,-16
   11f18:	00112623          	sw	ra,12(sp)
   11f1c:	01212023          	sw	s2,0(sp)
   11f20:	02058863          	beq	a1,zero,11f50 <_fclose_r+0x3c>
   11f24:	00812423          	sw	s0,8(sp)
   11f28:	00912223          	sw	s1,4(sp)
   11f2c:	00058413          	addi	s0,a1,0
   11f30:	00050493          	addi	s1,a0,0
   11f34:	00050663          	beq	a0,zero,11f40 <_fclose_r+0x2c>
   11f38:	03452783          	lw	a5,52(a0)
   11f3c:	0c078c63          	beq	a5,zero,12014 <_fclose_r+0x100>
   11f40:	00c41783          	lh	a5,12(s0)
   11f44:	02079263          	bne	a5,zero,11f68 <_fclose_r+0x54>
   11f48:	00812403          	lw	s0,8(sp)
   11f4c:	00412483          	lw	s1,4(sp)
   11f50:	00c12083          	lw	ra,12(sp)
   11f54:	00000913          	addi	s2,zero,0
   11f58:	00090513          	addi	a0,s2,0
   11f5c:	00012903          	lw	s2,0(sp)
   11f60:	01010113          	addi	sp,sp,16
   11f64:	00008067          	jalr	zero,0(ra)
   11f68:	00040593          	addi	a1,s0,0
   11f6c:	00048513          	addi	a0,s1,0
   11f70:	0bc000ef          	jal	ra,1202c <__sflush_r>
   11f74:	02c42783          	lw	a5,44(s0)
   11f78:	00050913          	addi	s2,a0,0
   11f7c:	00078a63          	beq	a5,zero,11f90 <_fclose_r+0x7c>
   11f80:	01c42583          	lw	a1,28(s0)
   11f84:	00048513          	addi	a0,s1,0
   11f88:	000780e7          	jalr	ra,0(a5)
   11f8c:	06054463          	blt	a0,zero,11ff4 <_fclose_r+0xe0>
   11f90:	00c45783          	lhu	a5,12(s0)
   11f94:	0807f793          	andi	a5,a5,128
   11f98:	06079663          	bne	a5,zero,12004 <_fclose_r+0xf0>
   11f9c:	03042583          	lw	a1,48(s0)
   11fa0:	00058c63          	beq	a1,zero,11fb8 <_fclose_r+0xa4>
   11fa4:	04040793          	addi	a5,s0,64
   11fa8:	00f58663          	beq	a1,a5,11fb4 <_fclose_r+0xa0>
   11fac:	00048513          	addi	a0,s1,0
   11fb0:	bf4ff0ef          	jal	ra,113a4 <_free_r>
   11fb4:	02042823          	sw	zero,48(s0)
   11fb8:	04442583          	lw	a1,68(s0)
   11fbc:	00058863          	beq	a1,zero,11fcc <_fclose_r+0xb8>
   11fc0:	00048513          	addi	a0,s1,0
   11fc4:	be0ff0ef          	jal	ra,113a4 <_free_r>
   11fc8:	04042223          	sw	zero,68(s0)
   11fcc:	b35fe0ef          	jal	ra,10b00 <__sfp_lock_acquire>
   11fd0:	00041623          	sh	zero,12(s0)
   11fd4:	b31fe0ef          	jal	ra,10b04 <__sfp_lock_release>
   11fd8:	00c12083          	lw	ra,12(sp)
   11fdc:	00812403          	lw	s0,8(sp)
   11fe0:	00412483          	lw	s1,4(sp)
   11fe4:	00090513          	addi	a0,s2,0
   11fe8:	00012903          	lw	s2,0(sp)
   11fec:	01010113          	addi	sp,sp,16
   11ff0:	00008067          	jalr	zero,0(ra)
   11ff4:	00c45783          	lhu	a5,12(s0)
   11ff8:	fff00913          	addi	s2,zero,-1
   11ffc:	0807f793          	andi	a5,a5,128
   12000:	f8078ee3          	beq	a5,zero,11f9c <_fclose_r+0x88>
   12004:	01042583          	lw	a1,16(s0)
   12008:	00048513          	addi	a0,s1,0
   1200c:	b98ff0ef          	jal	ra,113a4 <_free_r>
   12010:	f8dff06f          	jal	zero,11f9c <_fclose_r+0x88>
   12014:	ac9fe0ef          	jal	ra,10adc <__sinit>
   12018:	f29ff06f          	jal	zero,11f40 <_fclose_r+0x2c>

0001201c <fclose>:
   1201c:	0001e7b7          	lui	a5,0x1e
   12020:	00050593          	addi	a1,a0,0
   12024:	8147a503          	lw	a0,-2028(a5) # 1d814 <_impure_ptr>
   12028:	eedff06f          	jal	zero,11f14 <_fclose_r>

0001202c <__sflush_r>:
   1202c:	00c59703          	lh	a4,12(a1)
   12030:	fe010113          	addi	sp,sp,-32
   12034:	00812c23          	sw	s0,24(sp)
   12038:	01312623          	sw	s3,12(sp)
   1203c:	00112e23          	sw	ra,28(sp)
   12040:	00877793          	andi	a5,a4,8
   12044:	00058413          	addi	s0,a1,0
   12048:	00050993          	addi	s3,a0,0
   1204c:	12079263          	bne	a5,zero,12170 <__sflush_r+0x144>
   12050:	000017b7          	lui	a5,0x1
   12054:	80078793          	addi	a5,a5,-2048 # 800 <exit-0xf8b4>
   12058:	0045a683          	lw	a3,4(a1)
   1205c:	00f767b3          	or	a5,a4,a5
   12060:	00f59623          	sh	a5,12(a1)
   12064:	18d05c63          	bge	zero,a3,121fc <__sflush_r+0x1d0>
   12068:	02842803          	lw	a6,40(s0)
   1206c:	0e080663          	beq	a6,zero,12158 <__sflush_r+0x12c>
   12070:	00912a23          	sw	s1,20(sp)
   12074:	01371693          	slli	a3,a4,0x13
   12078:	0009a483          	lw	s1,0(s3)
   1207c:	0009a023          	sw	zero,0(s3)
   12080:	1806ca63          	blt	a3,zero,12214 <__sflush_r+0x1e8>
   12084:	01c42583          	lw	a1,28(s0)
   12088:	00000613          	addi	a2,zero,0
   1208c:	00100693          	addi	a3,zero,1
   12090:	00098513          	addi	a0,s3,0
   12094:	000800e7          	jalr	ra,0(a6)
   12098:	fff00793          	addi	a5,zero,-1
   1209c:	00050613          	addi	a2,a0,0
   120a0:	1af50c63          	beq	a0,a5,12258 <__sflush_r+0x22c>
   120a4:	00c41783          	lh	a5,12(s0)
   120a8:	02842803          	lw	a6,40(s0)
   120ac:	0047f793          	andi	a5,a5,4
   120b0:	00078e63          	beq	a5,zero,120cc <__sflush_r+0xa0>
   120b4:	00442703          	lw	a4,4(s0)
   120b8:	03042783          	lw	a5,48(s0)
   120bc:	40e60633          	sub	a2,a2,a4
   120c0:	00078663          	beq	a5,zero,120cc <__sflush_r+0xa0>
   120c4:	03c42783          	lw	a5,60(s0)
   120c8:	40f60633          	sub	a2,a2,a5
   120cc:	01c42583          	lw	a1,28(s0)
   120d0:	00000693          	addi	a3,zero,0
   120d4:	00098513          	addi	a0,s3,0
   120d8:	000800e7          	jalr	ra,0(a6)
   120dc:	fff00713          	addi	a4,zero,-1
   120e0:	00c41783          	lh	a5,12(s0)
   120e4:	12e51c63          	bne	a0,a4,1221c <__sflush_r+0x1f0>
   120e8:	0009a683          	lw	a3,0(s3)
   120ec:	01d00713          	addi	a4,zero,29
   120f0:	18d76263          	bltu	a4,a3,12274 <__sflush_r+0x248>
   120f4:	20400737          	lui	a4,0x20400
   120f8:	00170713          	addi	a4,a4,1 # 20400001 <__BSS_END__+0x203bb071>
   120fc:	00d75733          	srl	a4,a4,a3
   12100:	00177713          	andi	a4,a4,1
   12104:	16070863          	beq	a4,zero,12274 <__sflush_r+0x248>
   12108:	01042683          	lw	a3,16(s0)
   1210c:	fffff737          	lui	a4,0xfffff
   12110:	7ff70713          	addi	a4,a4,2047 # fffff7ff <__BSS_END__+0xfffba86f>
   12114:	00e7f733          	and	a4,a5,a4
   12118:	00e41623          	sh	a4,12(s0)
   1211c:	00042223          	sw	zero,4(s0)
   12120:	00d42023          	sw	a3,0(s0)
   12124:	01379713          	slli	a4,a5,0x13
   12128:	00075663          	bge	a4,zero,12134 <__sflush_r+0x108>
   1212c:	0009a783          	lw	a5,0(s3)
   12130:	10078863          	beq	a5,zero,12240 <__sflush_r+0x214>
   12134:	03042583          	lw	a1,48(s0)
   12138:	0099a023          	sw	s1,0(s3)
   1213c:	10058a63          	beq	a1,zero,12250 <__sflush_r+0x224>
   12140:	04040793          	addi	a5,s0,64
   12144:	00f58663          	beq	a1,a5,12150 <__sflush_r+0x124>
   12148:	00098513          	addi	a0,s3,0
   1214c:	a58ff0ef          	jal	ra,113a4 <_free_r>
   12150:	01412483          	lw	s1,20(sp)
   12154:	02042823          	sw	zero,48(s0)
   12158:	01c12083          	lw	ra,28(sp)
   1215c:	01812403          	lw	s0,24(sp)
   12160:	00c12983          	lw	s3,12(sp)
   12164:	00000513          	addi	a0,zero,0
   12168:	02010113          	addi	sp,sp,32
   1216c:	00008067          	jalr	zero,0(ra)
   12170:	01212823          	sw	s2,16(sp)
   12174:	0105a903          	lw	s2,16(a1)
   12178:	08090a63          	beq	s2,zero,1220c <__sflush_r+0x1e0>
   1217c:	00912a23          	sw	s1,20(sp)
   12180:	0005a483          	lw	s1,0(a1)
   12184:	00377713          	andi	a4,a4,3
   12188:	0125a023          	sw	s2,0(a1)
   1218c:	412484b3          	sub	s1,s1,s2
   12190:	00000793          	addi	a5,zero,0
   12194:	00071463          	bne	a4,zero,1219c <__sflush_r+0x170>
   12198:	0145a783          	lw	a5,20(a1)
   1219c:	00f42423          	sw	a5,8(s0)
   121a0:	00904863          	blt	zero,s1,121b0 <__sflush_r+0x184>
   121a4:	0640006f          	jal	zero,12208 <__sflush_r+0x1dc>
   121a8:	00a90933          	add	s2,s2,a0
   121ac:	04905e63          	bge	zero,s1,12208 <__sflush_r+0x1dc>
   121b0:	02442783          	lw	a5,36(s0)
   121b4:	01c42583          	lw	a1,28(s0)
   121b8:	00048693          	addi	a3,s1,0
   121bc:	00090613          	addi	a2,s2,0
   121c0:	00098513          	addi	a0,s3,0
   121c4:	000780e7          	jalr	ra,0(a5)
   121c8:	40a484b3          	sub	s1,s1,a0
   121cc:	fca04ee3          	blt	zero,a0,121a8 <__sflush_r+0x17c>
   121d0:	00c45783          	lhu	a5,12(s0)
   121d4:	01012903          	lw	s2,16(sp)
   121d8:	0407e793          	ori	a5,a5,64
   121dc:	01c12083          	lw	ra,28(sp)
   121e0:	00f41623          	sh	a5,12(s0)
   121e4:	01812403          	lw	s0,24(sp)
   121e8:	01412483          	lw	s1,20(sp)
   121ec:	00c12983          	lw	s3,12(sp)
   121f0:	fff00513          	addi	a0,zero,-1
   121f4:	02010113          	addi	sp,sp,32
   121f8:	00008067          	jalr	zero,0(ra)
   121fc:	03c5a683          	lw	a3,60(a1)
   12200:	e6d044e3          	blt	zero,a3,12068 <__sflush_r+0x3c>
   12204:	f55ff06f          	jal	zero,12158 <__sflush_r+0x12c>
   12208:	01412483          	lw	s1,20(sp)
   1220c:	01012903          	lw	s2,16(sp)
   12210:	f49ff06f          	jal	zero,12158 <__sflush_r+0x12c>
   12214:	05042603          	lw	a2,80(s0)
   12218:	e95ff06f          	jal	zero,120ac <__sflush_r+0x80>
   1221c:	01042683          	lw	a3,16(s0)
   12220:	fffff737          	lui	a4,0xfffff
   12224:	7ff70713          	addi	a4,a4,2047 # fffff7ff <__BSS_END__+0xfffba86f>
   12228:	00e7f733          	and	a4,a5,a4
   1222c:	00e41623          	sh	a4,12(s0)
   12230:	00042223          	sw	zero,4(s0)
   12234:	00d42023          	sw	a3,0(s0)
   12238:	01379713          	slli	a4,a5,0x13
   1223c:	ee075ce3          	bge	a4,zero,12134 <__sflush_r+0x108>
   12240:	03042583          	lw	a1,48(s0)
   12244:	04a42823          	sw	a0,80(s0)
   12248:	0099a023          	sw	s1,0(s3)
   1224c:	ee059ae3          	bne	a1,zero,12140 <__sflush_r+0x114>
   12250:	01412483          	lw	s1,20(sp)
   12254:	f05ff06f          	jal	zero,12158 <__sflush_r+0x12c>
   12258:	0009a783          	lw	a5,0(s3)
   1225c:	e40784e3          	beq	a5,zero,120a4 <__sflush_r+0x78>
   12260:	fe378713          	addi	a4,a5,-29
   12264:	00070c63          	beq	a4,zero,1227c <__sflush_r+0x250>
   12268:	fea78793          	addi	a5,a5,-22
   1226c:	00078863          	beq	a5,zero,1227c <__sflush_r+0x250>
   12270:	00c45783          	lhu	a5,12(s0)
   12274:	0407e793          	ori	a5,a5,64
   12278:	f65ff06f          	jal	zero,121dc <__sflush_r+0x1b0>
   1227c:	0099a023          	sw	s1,0(s3)
   12280:	01412483          	lw	s1,20(sp)
   12284:	ed5ff06f          	jal	zero,12158 <__sflush_r+0x12c>

00012288 <_fflush_r>:
   12288:	00050793          	addi	a5,a0,0
   1228c:	00050663          	beq	a0,zero,12298 <_fflush_r+0x10>
   12290:	03452703          	lw	a4,52(a0)
   12294:	00070e63          	beq	a4,zero,122b0 <_fflush_r+0x28>
   12298:	00c59703          	lh	a4,12(a1)
   1229c:	00071663          	bne	a4,zero,122a8 <_fflush_r+0x20>
   122a0:	00000513          	addi	a0,zero,0
   122a4:	00008067          	jalr	zero,0(ra)
   122a8:	00078513          	addi	a0,a5,0
   122ac:	d81ff06f          	jal	zero,1202c <__sflush_r>
   122b0:	fe010113          	addi	sp,sp,-32
   122b4:	00b12623          	sw	a1,12(sp)
   122b8:	00112e23          	sw	ra,28(sp)
   122bc:	00a12423          	sw	a0,8(sp)
   122c0:	81dfe0ef          	jal	ra,10adc <__sinit>
   122c4:	00c12583          	lw	a1,12(sp)
   122c8:	00812783          	lw	a5,8(sp)
   122cc:	00c59703          	lh	a4,12(a1)
   122d0:	00070a63          	beq	a4,zero,122e4 <_fflush_r+0x5c>
   122d4:	01c12083          	lw	ra,28(sp)
   122d8:	00078513          	addi	a0,a5,0
   122dc:	02010113          	addi	sp,sp,32
   122e0:	d4dff06f          	jal	zero,1202c <__sflush_r>
   122e4:	01c12083          	lw	ra,28(sp)
   122e8:	00000513          	addi	a0,zero,0
   122ec:	02010113          	addi	sp,sp,32
   122f0:	00008067          	jalr	zero,0(ra)

000122f4 <fflush>:
   122f4:	06050263          	beq	a0,zero,12358 <fflush+0x64>
   122f8:	0001e7b7          	lui	a5,0x1e
   122fc:	00050593          	addi	a1,a0,0
   12300:	8147a503          	lw	a0,-2028(a5) # 1d814 <_impure_ptr>
   12304:	00050663          	beq	a0,zero,12310 <fflush+0x1c>
   12308:	03452783          	lw	a5,52(a0)
   1230c:	00078c63          	beq	a5,zero,12324 <fflush+0x30>
   12310:	00c59783          	lh	a5,12(a1)
   12314:	00079663          	bne	a5,zero,12320 <fflush+0x2c>
   12318:	00000513          	addi	a0,zero,0
   1231c:	00008067          	jalr	zero,0(ra)
   12320:	d0dff06f          	jal	zero,1202c <__sflush_r>
   12324:	fe010113          	addi	sp,sp,-32
   12328:	00b12623          	sw	a1,12(sp)
   1232c:	00a12423          	sw	a0,8(sp)
   12330:	00112e23          	sw	ra,28(sp)
   12334:	fa8fe0ef          	jal	ra,10adc <__sinit>
   12338:	00c12583          	lw	a1,12(sp)
   1233c:	00812503          	lw	a0,8(sp)
   12340:	00c59783          	lh	a5,12(a1)
   12344:	02079863          	bne	a5,zero,12374 <fflush+0x80>
   12348:	01c12083          	lw	ra,28(sp)
   1234c:	00000513          	addi	a0,zero,0
   12350:	02010113          	addi	sp,sp,32
   12354:	00008067          	jalr	zero,0(ra)
   12358:	0001d637          	lui	a2,0x1d
   1235c:	000125b7          	lui	a1,0x12
   12360:	0001d537          	lui	a0,0x1d
   12364:	2d860613          	addi	a2,a2,728 # 1d2d8 <__sglue>
   12368:	28858593          	addi	a1,a1,648 # 12288 <_fflush_r>
   1236c:	2e850513          	addi	a0,a0,744 # 1d2e8 <_impure_data>
   12370:	fc8fe06f          	jal	zero,10b38 <_fwalk_sglue>
   12374:	01c12083          	lw	ra,28(sp)
   12378:	02010113          	addi	sp,sp,32
   1237c:	cb1ff06f          	jal	zero,1202c <__sflush_r>

00012380 <_sbrk_r>:
   12380:	ff010113          	addi	sp,sp,-16
   12384:	00812423          	sw	s0,8(sp)
   12388:	00912223          	sw	s1,4(sp)
   1238c:	00050493          	addi	s1,a0,0
   12390:	00058513          	addi	a0,a1,0
   12394:	00112623          	sw	ra,12(sp)
   12398:	8201ae23          	sw	zero,-1988(gp) # 1d84c <errno>
   1239c:	224000ef          	jal	ra,125c0 <_sbrk>
   123a0:	fff00793          	addi	a5,zero,-1
   123a4:	00f50c63          	beq	a0,a5,123bc <_sbrk_r+0x3c>
   123a8:	00c12083          	lw	ra,12(sp)
   123ac:	00812403          	lw	s0,8(sp)
   123b0:	00412483          	lw	s1,4(sp)
   123b4:	01010113          	addi	sp,sp,16
   123b8:	00008067          	jalr	zero,0(ra)
   123bc:	83c1a783          	lw	a5,-1988(gp) # 1d84c <errno>
   123c0:	fe0784e3          	beq	a5,zero,123a8 <_sbrk_r+0x28>
   123c4:	00c12083          	lw	ra,12(sp)
   123c8:	00812403          	lw	s0,8(sp)
   123cc:	00f4a023          	sw	a5,0(s1)
   123d0:	00412483          	lw	s1,4(sp)
   123d4:	01010113          	addi	sp,sp,16
   123d8:	00008067          	jalr	zero,0(ra)

000123dc <__libc_fini_array>:
   123dc:	ff010113          	addi	sp,sp,-16
   123e0:	00812423          	sw	s0,8(sp)
   123e4:	0001d7b7          	lui	a5,0x1d
   123e8:	0001d437          	lui	s0,0x1d
   123ec:	2d478793          	addi	a5,a5,724 # 1d2d4 <__fini_array_end>
   123f0:	2d040413          	addi	s0,s0,720 # 1d2d0 <__do_global_dtors_aux_fini_array_entry>
   123f4:	408787b3          	sub	a5,a5,s0
   123f8:	00912223          	sw	s1,4(sp)
   123fc:	00112623          	sw	ra,12(sp)
   12400:	4027d493          	srai	s1,a5,0x2
   12404:	02048063          	beq	s1,zero,12424 <__libc_fini_array+0x48>
   12408:	ffc40413          	addi	s0,s0,-4
   1240c:	00f40433          	add	s0,s0,a5
   12410:	00042783          	lw	a5,0(s0)
   12414:	fff48493          	addi	s1,s1,-1
   12418:	ffc40413          	addi	s0,s0,-4
   1241c:	000780e7          	jalr	ra,0(a5)
   12420:	fe0498e3          	bne	s1,zero,12410 <__libc_fini_array+0x34>
   12424:	00c12083          	lw	ra,12(sp)
   12428:	00812403          	lw	s0,8(sp)
   1242c:	00412483          	lw	s1,4(sp)
   12430:	01010113          	addi	sp,sp,16
   12434:	00008067          	jalr	zero,0(ra)

00012438 <__register_exitproc>:
   12438:	8401a783          	lw	a5,-1984(gp) # 1d850 <__atexit>
   1243c:	04078c63          	beq	a5,zero,12494 <__register_exitproc+0x5c>
   12440:	0047a703          	lw	a4,4(a5)
   12444:	01f00813          	addi	a6,zero,31
   12448:	08e84063          	blt	a6,a4,124c8 <__register_exitproc+0x90>
   1244c:	00271813          	slli	a6,a4,0x2
   12450:	02050663          	beq	a0,zero,1247c <__register_exitproc+0x44>
   12454:	01078333          	add	t1,a5,a6
   12458:	08c32423          	sw	a2,136(t1)
   1245c:	1887a883          	lw	a7,392(a5)
   12460:	00100613          	addi	a2,zero,1
   12464:	00e61633          	sll	a2,a2,a4
   12468:	00c8e8b3          	or	a7,a7,a2
   1246c:	1917a423          	sw	a7,392(a5)
   12470:	10d32423          	sw	a3,264(t1)
   12474:	00200693          	addi	a3,zero,2
   12478:	02d50663          	beq	a0,a3,124a4 <__register_exitproc+0x6c>
   1247c:	00170713          	addi	a4,a4,1
   12480:	00e7a223          	sw	a4,4(a5)
   12484:	010787b3          	add	a5,a5,a6
   12488:	00b7a423          	sw	a1,8(a5)
   1248c:	00000513          	addi	a0,zero,0
   12490:	00008067          	jalr	zero,0(ra)
   12494:	000457b7          	lui	a5,0x45
   12498:	e0078793          	addi	a5,a5,-512 # 44e00 <__atexit0>
   1249c:	84f1a023          	sw	a5,-1984(gp) # 1d850 <__atexit>
   124a0:	fa1ff06f          	jal	zero,12440 <__register_exitproc+0x8>
   124a4:	18c7a683          	lw	a3,396(a5)
   124a8:	00170713          	addi	a4,a4,1
   124ac:	00e7a223          	sw	a4,4(a5)
   124b0:	00c6e6b3          	or	a3,a3,a2
   124b4:	18d7a623          	sw	a3,396(a5)
   124b8:	010787b3          	add	a5,a5,a6
   124bc:	00b7a423          	sw	a1,8(a5)
   124c0:	00000513          	addi	a0,zero,0
   124c4:	00008067          	jalr	zero,0(ra)
   124c8:	fff00513          	addi	a0,zero,-1
   124cc:	00008067          	jalr	zero,0(ra)

000124d0 <_close>:
   124d0:	03900893          	addi	a7,zero,57
   124d4:	00000073          	ecall
   124d8:	00054463          	blt	a0,zero,124e0 <_close+0x10>
   124dc:	00008067          	jalr	zero,0(ra)
   124e0:	fe010113          	addi	sp,sp,-32
   124e4:	00112e23          	sw	ra,28(sp)
   124e8:	00a12623          	sw	a0,12(sp)
   124ec:	18c000ef          	jal	ra,12678 <__errno>
   124f0:	00c12783          	lw	a5,12(sp)
   124f4:	01c12083          	lw	ra,28(sp)
   124f8:	40f007b3          	sub	a5,zero,a5
   124fc:	00f52023          	sw	a5,0(a0)
   12500:	fff00793          	addi	a5,zero,-1
   12504:	00078513          	addi	a0,a5,0
   12508:	02010113          	addi	sp,sp,32
   1250c:	00008067          	jalr	zero,0(ra)

00012510 <_exit>:
   12510:	05d00893          	addi	a7,zero,93
   12514:	00000073          	ecall
   12518:	00054463          	blt	a0,zero,12520 <_exit+0x10>
   1251c:	0000006f          	jal	zero,1251c <_exit+0xc>
   12520:	fe010113          	addi	sp,sp,-32
   12524:	00112e23          	sw	ra,28(sp)
   12528:	00a12623          	sw	a0,12(sp)
   1252c:	14c000ef          	jal	ra,12678 <__errno>
   12530:	00c12783          	lw	a5,12(sp)
   12534:	40f007b3          	sub	a5,zero,a5
   12538:	00f52023          	sw	a5,0(a0)
   1253c:	0000006f          	jal	zero,1253c <_exit+0x2c>

00012540 <_lseek>:
   12540:	03e00893          	addi	a7,zero,62
   12544:	00000073          	ecall
   12548:	00054463          	blt	a0,zero,12550 <_lseek+0x10>
   1254c:	00008067          	jalr	zero,0(ra)
   12550:	fe010113          	addi	sp,sp,-32
   12554:	00112e23          	sw	ra,28(sp)
   12558:	00a12623          	sw	a0,12(sp)
   1255c:	11c000ef          	jal	ra,12678 <__errno>
   12560:	00c12783          	lw	a5,12(sp)
   12564:	01c12083          	lw	ra,28(sp)
   12568:	40f007b3          	sub	a5,zero,a5
   1256c:	00f52023          	sw	a5,0(a0)
   12570:	fff00793          	addi	a5,zero,-1
   12574:	00078513          	addi	a0,a5,0
   12578:	02010113          	addi	sp,sp,32
   1257c:	00008067          	jalr	zero,0(ra)

00012580 <_read>:
   12580:	03f00893          	addi	a7,zero,63
   12584:	00000073          	ecall
   12588:	00054463          	blt	a0,zero,12590 <_read+0x10>
   1258c:	00008067          	jalr	zero,0(ra)
   12590:	fe010113          	addi	sp,sp,-32
   12594:	00112e23          	sw	ra,28(sp)
   12598:	00a12623          	sw	a0,12(sp)
   1259c:	0dc000ef          	jal	ra,12678 <__errno>
   125a0:	00c12783          	lw	a5,12(sp)
   125a4:	01c12083          	lw	ra,28(sp)
   125a8:	40f007b3          	sub	a5,zero,a5
   125ac:	00f52023          	sw	a5,0(a0)
   125b0:	fff00793          	addi	a5,zero,-1
   125b4:	00078513          	addi	a0,a5,0
   125b8:	02010113          	addi	sp,sp,32
   125bc:	00008067          	jalr	zero,0(ra)

000125c0 <_sbrk>:
   125c0:	8501a783          	lw	a5,-1968(gp) # 1d860 <heap_end.0>
   125c4:	ff010113          	addi	sp,sp,-16
   125c8:	00112623          	sw	ra,12(sp)
   125cc:	00050713          	addi	a4,a0,0
   125d0:	02079063          	bne	a5,zero,125f0 <_sbrk+0x30>
   125d4:	0d600893          	addi	a7,zero,214
   125d8:	00000513          	addi	a0,zero,0
   125dc:	00000073          	ecall
   125e0:	fff00793          	addi	a5,zero,-1
   125e4:	02f50c63          	beq	a0,a5,1261c <_sbrk+0x5c>
   125e8:	00050793          	addi	a5,a0,0
   125ec:	84a1a823          	sw	a0,-1968(gp) # 1d860 <heap_end.0>
   125f0:	00f70533          	add	a0,a4,a5
   125f4:	0d600893          	addi	a7,zero,214
   125f8:	00000073          	ecall
   125fc:	8501a783          	lw	a5,-1968(gp) # 1d860 <heap_end.0>
   12600:	00f70733          	add	a4,a4,a5
   12604:	00e51c63          	bne	a0,a4,1261c <_sbrk+0x5c>
   12608:	00c12083          	lw	ra,12(sp)
   1260c:	84a1a823          	sw	a0,-1968(gp) # 1d860 <heap_end.0>
   12610:	00078513          	addi	a0,a5,0
   12614:	01010113          	addi	sp,sp,16
   12618:	00008067          	jalr	zero,0(ra)
   1261c:	05c000ef          	jal	ra,12678 <__errno>
   12620:	00c12083          	lw	ra,12(sp)
   12624:	00c00793          	addi	a5,zero,12
   12628:	00f52023          	sw	a5,0(a0)
   1262c:	fff00513          	addi	a0,zero,-1
   12630:	01010113          	addi	sp,sp,16
   12634:	00008067          	jalr	zero,0(ra)

00012638 <_write>:
   12638:	04000893          	addi	a7,zero,64
   1263c:	00000073          	ecall
   12640:	00054463          	blt	a0,zero,12648 <_write+0x10>
   12644:	00008067          	jalr	zero,0(ra)
   12648:	fe010113          	addi	sp,sp,-32
   1264c:	00112e23          	sw	ra,28(sp)
   12650:	00a12623          	sw	a0,12(sp)
   12654:	024000ef          	jal	ra,12678 <__errno>
   12658:	00c12783          	lw	a5,12(sp)
   1265c:	01c12083          	lw	ra,28(sp)
   12660:	40f007b3          	sub	a5,zero,a5
   12664:	00f52023          	sw	a5,0(a0)
   12668:	fff00793          	addi	a5,zero,-1
   1266c:	00078513          	addi	a0,a5,0
   12670:	02010113          	addi	sp,sp,32
   12674:	00008067          	jalr	zero,0(ra)

00012678 <__errno>:
   12678:	0001e7b7          	lui	a5,0x1e
   1267c:	8147a503          	lw	a0,-2028(a5) # 1d814 <_impure_ptr>
   12680:	00008067          	jalr	zero,0(ra)
