
./susan_O3:     file format elf32-littleriscv


Disassembly of section .text:

000100b4 <exit>:
   100b4:	ff010113          	addi	sp,sp,-16
   100b8:	00000593          	addi	a1,zero,0
   100bc:	00812423          	sw	s0,8(sp)
   100c0:	00112623          	sw	ra,12(sp)
   100c4:	00050413          	addi	s0,a0,0
   100c8:	1d90e0ef          	jal	ra,1eaa0 <__call_exitprocs>
   100cc:	03c1a783          	lw	a5,60(gp) # 2e84c <__stdio_exit_handler>
   100d0:	00078463          	beq	a5,zero,100d8 <exit+0x24>
   100d4:	000780e7          	jalr	ra,0(a5)
   100d8:	00040513          	addi	a0,s0,0
   100dc:	3f4190ef          	jal	ra,294d0 <_exit>

000100e0 <main>:
   100e0:	81010113          	addi	sp,sp,-2032
   100e4:	fffa92b7          	lui	t0,0xfffa9
   100e8:	7e112623          	sw	ra,2028(sp)
   100ec:	7e812423          	sw	s0,2024(sp)
   100f0:	7e912223          	sw	s1,2020(sp)
   100f4:	7f212023          	sw	s2,2016(sp)
   100f8:	7d312e23          	sw	s3,2012(sp)
   100fc:	7d412c23          	sw	s4,2008(sp)
   10100:	7d512a23          	sw	s5,2004(sp)
   10104:	7d612823          	sw	s6,2000(sp)
   10108:	7d712623          	sw	s7,1996(sp)
   1010c:	7d812423          	sw	s8,1992(sp)
   10110:	7d912223          	sw	s9,1988(sp)
   10114:	7da12023          	sw	s10,1984(sp)
   10118:	7bb12e23          	sw	s11,1980(sp)
   1011c:	95028293          	addi	t0,t0,-1712 # fffa8950 <__BSS_END__+0xfff79de4>
   10120:	00200793          	addi	a5,zero,2
   10124:	00510133          	add	sp,sp,t0
   10128:	3ea7dc63          	bge	a5,a0,10520 <main+0x440>
   1012c:	00050c93          	addi	s9,a0,0
   10130:	0045a503          	lw	a0,4(a1)
   10134:	00058c13          	addi	s8,a1,0
   10138:	01c10693          	addi	a3,sp,28
   1013c:	01810613          	addi	a2,sp,24
   10140:	01010593          	addi	a1,sp,16
   10144:	640000ef          	jal	ra,10784 <get_image>
   10148:	0001a783          	lw	a5,0(gp) # 2e810 <__global_pointer$>
   1014c:	00300713          	addi	a4,zero,3
   10150:	00f12623          	sw	a5,12(sp)
   10154:	30ec8063          	beq	s9,a4,10454 <main+0x374>
   10158:	0002d837          	lui	a6,0x2d
   1015c:	d9880913          	addi	s2,a6,-616 # 2cd98 <__ashldi3+0x734>
   10160:	00000993          	addi	s3,zero,0
   10164:	00000b93          	addi	s7,zero,0
   10168:	00000a93          	addi	s5,zero,0
   1016c:	00000493          	addi	s1,zero,0
   10170:	00100b13          	addi	s6,zero,1
   10174:	00000a13          	addi	s4,zero,0
   10178:	01400413          	addi	s0,zero,20
   1017c:	02d00d93          	addi	s11,zero,45
   10180:	04100d13          	addi	s10,zero,65
   10184:	00271693          	slli	a3,a4,0x2
   10188:	00dc06b3          	add	a3,s8,a3
   1018c:	0006a783          	lw	a5,0(a3)
   10190:	0007c603          	lbu	a2,0(a5)
   10194:	39b61663          	bne	a2,s11,10520 <main+0x440>
   10198:	0017c783          	lbu	a5,1(a5)
   1019c:	00170713          	addi	a4,a4,1
   101a0:	fcd78793          	addi	a5,a5,-51
   101a4:	0ff7f793          	andi	a5,a5,255
   101a8:	00fd6c63          	bltu	s10,a5,101c0 <main+0xe0>
   101ac:	00279793          	slli	a5,a5,0x2
   101b0:	012787b3          	add	a5,a5,s2
   101b4:	0007a783          	lw	a5,0(a5)
   101b8:	00078067          	jalr	zero,0(a5)
   101bc:	00200993          	addi	s3,zero,2
   101c0:	fd9742e3          	blt	a4,s9,10184 <main+0xa4>
   101c4:	10099a63          	bne	s3,zero,102d8 <main+0x1f8>
   101c8:	100a0863          	beq	s4,zero,102d8 <main+0x1f8>
   101cc:	01812783          	lw	a5,24(sp)
   101d0:	01c12503          	lw	a0,28(sp)
   101d4:	02f50533          	mul	a0,a0,a5
   101d8:	00251513          	slli	a0,a0,0x2
   101dc:	5f8090ef          	jal	ra,197d4 <malloc>
   101e0:	00040593          	addi	a1,s0,0
   101e4:	00600613          	addi	a2,zero,6
   101e8:	00050413          	addi	s0,a0,0
   101ec:	01410513          	addi	a0,sp,20
   101f0:	091000ef          	jal	ra,10a80 <setup_brightness_lut>
   101f4:	01812703          	lw	a4,24(sp)
   101f8:	01c12783          	lw	a5,28(sp)
   101fc:	000016b7          	lui	a3,0x1
   10200:	01012503          	lw	a0,16(sp)
   10204:	01412603          	lw	a2,20(sp)
   10208:	a5a68693          	addi	a3,a3,-1446 # a5a <exit-0xf65a>
   1020c:	00040593          	addi	a1,s0,0
   10210:	28049663          	bne	s1,zero,1049c <main+0x3bc>
   10214:	1c9000ef          	jal	ra,10bdc <susan_principle>
   10218:	01812603          	lw	a2,24(sp)
   1021c:	01c12703          	lw	a4,28(sp)
   10220:	01012583          	lw	a1,16(sp)
   10224:	00040513          	addi	a0,s0,0
   10228:	02e60633          	mul	a2,a2,a4
   1022c:	7f0000ef          	jal	ra,10a1c <int_to_uchar>
   10230:	1200006f          	jal	zero,10350 <main+0x270>
   10234:	29975663          	bge	a4,s9,104c0 <main+0x3e0>
   10238:	0046a503          	lw	a0,4(a3)
   1023c:	00e12423          	sw	a4,8(sp)
   10240:	57c090ef          	jal	ra,197bc <atoi>
   10244:	00812703          	lw	a4,8(sp)
   10248:	00050413          	addi	s0,a0,0
   1024c:	00170713          	addi	a4,a4,1
   10250:	f3974ae3          	blt	a4,s9,10184 <main+0xa4>
   10254:	f71ff06f          	jal	zero,101c4 <main+0xe4>
   10258:	00100b93          	addi	s7,zero,1
   1025c:	f39744e3          	blt	a4,s9,10184 <main+0xa4>
   10260:	f65ff06f          	jal	zero,101c4 <main+0xe4>
   10264:	00100a13          	addi	s4,zero,1
   10268:	f1974ee3          	blt	a4,s9,10184 <main+0xa4>
   1026c:	f59ff06f          	jal	zero,101c4 <main+0xe4>
   10270:	00000b13          	addi	s6,zero,0
   10274:	f19748e3          	blt	a4,s9,10184 <main+0xa4>
   10278:	f4dff06f          	jal	zero,101c4 <main+0xe4>
   1027c:	23975863          	bge	a4,s9,104ac <main+0x3cc>
   10280:	0046a503          	lw	a0,4(a3)
   10284:	00e12423          	sw	a4,8(sp)
   10288:	52c090ef          	jal	ra,197b4 <atof>
   1028c:	398090ef          	jal	ra,19624 <__truncdfsf2>
   10290:	00000593          	addi	a1,zero,0
   10294:	00a12623          	sw	a0,12(sp)
   10298:	58d080ef          	jal	ra,19024 <__lesf2>
   1029c:	00812703          	lw	a4,8(sp)
   102a0:	00052513          	slti	a0,a0,0
   102a4:	00a4e4b3          	or	s1,s1,a0
   102a8:	00170713          	addi	a4,a4,1
   102ac:	ed974ce3          	blt	a4,s9,10184 <main+0xa4>
   102b0:	f15ff06f          	jal	zero,101c4 <main+0xe4>
   102b4:	00100a93          	addi	s5,zero,1
   102b8:	ed9746e3          	blt	a4,s9,10184 <main+0xa4>
   102bc:	f09ff06f          	jal	zero,101c4 <main+0xe4>
   102c0:	00100493          	addi	s1,zero,1
   102c4:	ed9740e3          	blt	a4,s9,10184 <main+0xa4>
   102c8:	efdff06f          	jal	zero,101c4 <main+0xe4>
   102cc:	00000993          	addi	s3,zero,0
   102d0:	eb974ae3          	blt	a4,s9,10184 <main+0xa4>
   102d4:	ef1ff06f          	jal	zero,101c4 <main+0xe4>
   102d8:	00100793          	addi	a5,zero,1
   102dc:	0ef98063          	beq	s3,a5,103bc <main+0x2dc>
   102e0:	00200793          	addi	a5,zero,2
   102e4:	16f99c63          	bne	s3,a5,1045c <main+0x37c>
   102e8:	01c12783          	lw	a5,28(sp)
   102ec:	01812503          	lw	a0,24(sp)
   102f0:	02f50533          	mul	a0,a0,a5
   102f4:	00251513          	slli	a0,a0,0x2
   102f8:	4dc090ef          	jal	ra,197d4 <malloc>
   102fc:	00600613          	addi	a2,zero,6
   10300:	00050913          	addi	s2,a0,0
   10304:	00040593          	addi	a1,s0,0
   10308:	01410513          	addi	a0,sp,20
   1030c:	774000ef          	jal	ra,10a80 <setup_brightness_lut>
   10310:	01012503          	lw	a0,16(sp)
   10314:	01412603          	lw	a2,20(sp)
   10318:	01812703          	lw	a4,24(sp)
   1031c:	01c12803          	lw	a6,28(sp)
   10320:	1a0a1e63          	bne	s4,zero,104dc <main+0x3fc>
   10324:	00070793          	addi	a5,a4,0
   10328:	00090593          	addi	a1,s2,0
   1032c:	02010713          	addi	a4,sp,32
   10330:	73a00693          	addi	a3,zero,1850
   10334:	1a0b8063          	beq	s7,zero,104d4 <main+0x3f4>
   10338:	501040ef          	jal	ra,15038 <susan_corners_quick>
   1033c:	01812603          	lw	a2,24(sp)
   10340:	01012503          	lw	a0,16(sp)
   10344:	000a8693          	addi	a3,s5,0
   10348:	02010593          	addi	a1,sp,32
   1034c:	439030ef          	jal	ra,13f84 <corner_draw>
   10350:	008c2503          	lw	a0,8(s8)
   10354:	01c12683          	lw	a3,28(sp)
   10358:	01812603          	lw	a2,24(sp)
   1035c:	01012583          	lw	a1,16(sp)
   10360:	568000ef          	jal	ra,108c8 <put_image>
   10364:	000572b7          	lui	t0,0x57
   10368:	6b028293          	addi	t0,t0,1712 # 576b0 <__BSS_END__+0x28b44>
   1036c:	00510133          	add	sp,sp,t0
   10370:	7ec12083          	lw	ra,2028(sp)
   10374:	7e812403          	lw	s0,2024(sp)
   10378:	7e412483          	lw	s1,2020(sp)
   1037c:	7e012903          	lw	s2,2016(sp)
   10380:	7dc12983          	lw	s3,2012(sp)
   10384:	7d812a03          	lw	s4,2008(sp)
   10388:	7d412a83          	lw	s5,2004(sp)
   1038c:	7d012b03          	lw	s6,2000(sp)
   10390:	7cc12b83          	lw	s7,1996(sp)
   10394:	7c812c03          	lw	s8,1992(sp)
   10398:	7c412c83          	lw	s9,1988(sp)
   1039c:	7c012d03          	lw	s10,1984(sp)
   103a0:	7bc12d83          	lw	s11,1980(sp)
   103a4:	00000513          	addi	a0,zero,0
   103a8:	7f010113          	addi	sp,sp,2032
   103ac:	00008067          	jalr	zero,0(ra)
   103b0:	00100993          	addi	s3,zero,1
   103b4:	dd9748e3          	blt	a4,s9,10184 <main+0xa4>
   103b8:	e0dff06f          	jal	zero,101c4 <main+0xe4>
   103bc:	01c12783          	lw	a5,28(sp)
   103c0:	01812503          	lw	a0,24(sp)
   103c4:	02f50533          	mul	a0,a0,a5
   103c8:	00251513          	slli	a0,a0,0x2
   103cc:	408090ef          	jal	ra,197d4 <malloc>
   103d0:	00040593          	addi	a1,s0,0
   103d4:	00600613          	addi	a2,zero,6
   103d8:	00050413          	addi	s0,a0,0
   103dc:	01410513          	addi	a0,sp,20
   103e0:	6a0000ef          	jal	ra,10a80 <setup_brightness_lut>
   103e4:	01812703          	lw	a4,24(sp)
   103e8:	01c12783          	lw	a5,28(sp)
   103ec:	e00a18e3          	bne	s4,zero,101fc <main+0x11c>
   103f0:	02f709b3          	mul	s3,a4,a5
   103f4:	00098513          	addi	a0,s3,0
   103f8:	3dc090ef          	jal	ra,197d4 <malloc>
   103fc:	00098613          	addi	a2,s3,0
   10400:	06400593          	addi	a1,zero,100
   10404:	00050a13          	addi	s4,a0,0
   10408:	2780e0ef          	jal	ra,1e680 <memset>
   1040c:	00001737          	lui	a4,0x1
   10410:	01012503          	lw	a0,16(sp)
   10414:	01412683          	lw	a3,20(sp)
   10418:	01812783          	lw	a5,24(sp)
   1041c:	01c12803          	lw	a6,28(sp)
   10420:	a5a70713          	addi	a4,a4,-1446 # a5a <exit-0xf65a>
   10424:	000a0613          	addi	a2,s4,0
   10428:	00040593          	addi	a1,s0,0
   1042c:	06048c63          	beq	s1,zero,104a4 <main+0x3c4>
   10430:	480030ef          	jal	ra,138b0 <susan_edges_small>
   10434:	0c0b1a63          	bne	s6,zero,10508 <main+0x428>
   10438:	01c12683          	lw	a3,28(sp)
   1043c:	01812603          	lw	a2,24(sp)
   10440:	01012503          	lw	a0,16(sp)
   10444:	000a8713          	addi	a4,s5,0
   10448:	000a0593          	addi	a1,s4,0
   1044c:	0d1010ef          	jal	ra,11d1c <edge_draw>
   10450:	f01ff06f          	jal	zero,10350 <main+0x270>
   10454:	00000493          	addi	s1,zero,0
   10458:	01400413          	addi	s0,zero,20
   1045c:	00040593          	addi	a1,s0,0
   10460:	01410513          	addi	a0,sp,20
   10464:	00200613          	addi	a2,zero,2
   10468:	618000ef          	jal	ra,10a80 <setup_brightness_lut>
   1046c:	00c12503          	lw	a0,12(sp)
   10470:	e6010413          	addi	s0,sp,-416
   10474:	0d8090ef          	jal	ra,1954c <__extendsfdf2>
   10478:	00058693          	addi	a3,a1,0
   1047c:	01412803          	lw	a6,20(sp)
   10480:	01c12783          	lw	a5,28(sp)
   10484:	01812703          	lw	a4,24(sp)
   10488:	01012583          	lw	a1,16(sp)
   1048c:	00050613          	addi	a2,a0,0
   10490:	00048513          	addi	a0,s1,0
   10494:	270010ef          	jal	ra,11704 <susan_smoothing>
   10498:	eb9ff06f          	jal	zero,10350 <main+0x270>
   1049c:	2e1000ef          	jal	ra,10f7c <susan_principle_small>
   104a0:	d79ff06f          	jal	zero,10218 <main+0x138>
   104a4:	330020ef          	jal	ra,127d4 <susan_edges>
   104a8:	f8dff06f          	jal	zero,10434 <main+0x354>
   104ac:	0002d537          	lui	a0,0x2d
   104b0:	bc050513          	addi	a0,a0,-1088 # 2cbc0 <__ashldi3+0x55c>
   104b4:	2180d0ef          	jal	ra,1d6cc <puts>
   104b8:	00000513          	addi	a0,zero,0
   104bc:	bf9ff0ef          	jal	ra,100b4 <exit>
   104c0:	0002d537          	lui	a0,0x2d
   104c4:	bdc50513          	addi	a0,a0,-1060 # 2cbdc <__ashldi3+0x578>
   104c8:	2040d0ef          	jal	ra,1d6cc <puts>
   104cc:	00000513          	addi	a0,zero,0
   104d0:	be5ff0ef          	jal	ra,100b4 <exit>
   104d4:	379030ef          	jal	ra,1404c <susan_corners>
   104d8:	e65ff06f          	jal	zero,1033c <main+0x25c>
   104dc:	00080793          	addi	a5,a6,0
   104e0:	00090593          	addi	a1,s2,0
   104e4:	73a00693          	addi	a3,zero,1850
   104e8:	6f4000ef          	jal	ra,10bdc <susan_principle>
   104ec:	01812603          	lw	a2,24(sp)
   104f0:	01c12783          	lw	a5,28(sp)
   104f4:	01012583          	lw	a1,16(sp)
   104f8:	00090513          	addi	a0,s2,0
   104fc:	02f60633          	mul	a2,a2,a5
   10500:	51c000ef          	jal	ra,10a1c <int_to_uchar>
   10504:	e4dff06f          	jal	zero,10350 <main+0x270>
   10508:	01c12683          	lw	a3,28(sp)
   1050c:	01812603          	lw	a2,24(sp)
   10510:	00040513          	addi	a0,s0,0
   10514:	000a0593          	addi	a1,s4,0
   10518:	09d010ef          	jal	ra,11db4 <susan_thin>
   1051c:	f1dff06f          	jal	zero,10438 <main+0x358>
   10520:	0d4000ef          	jal	ra,105f4 <usage>

00010524 <register_fini>:
   10524:	00000793          	addi	a5,zero,0
   10528:	00078863          	beq	a5,zero,10538 <register_fini+0x14>
   1052c:	00025537          	lui	a0,0x25
   10530:	a9850513          	addi	a0,a0,-1384 # 24a98 <__libc_fini_array>
   10534:	6a00e06f          	jal	zero,1ebd4 <atexit>
   10538:	00008067          	jalr	zero,0(ra)

0001053c <_start>:
   1053c:	0001e197          	auipc	gp,0x1e
   10540:	2d418193          	addi	gp,gp,724 # 2e810 <__global_pointer$>
   10544:	0001e517          	auipc	a0,0x1e
   10548:	2fc50513          	addi	a0,a0,764 # 2e840 <__malloc_max_total_mem>
   1054c:	0001e617          	auipc	a2,0x1e
   10550:	62060613          	addi	a2,a2,1568 # 2eb6c <__BSS_END__>
   10554:	40a60633          	sub	a2,a2,a0
   10558:	00000593          	addi	a1,zero,0
   1055c:	1240e0ef          	jal	ra,1e680 <memset>
   10560:	0000e517          	auipc	a0,0xe
   10564:	67450513          	addi	a0,a0,1652 # 1ebd4 <atexit>
   10568:	00050863          	beq	a0,zero,10578 <_start+0x3c>
   1056c:	00014517          	auipc	a0,0x14
   10570:	52c50513          	addi	a0,a0,1324 # 24a98 <__libc_fini_array>
   10574:	6600e0ef          	jal	ra,1ebd4 <atexit>
   10578:	0740e0ef          	jal	ra,1e5ec <__libc_init_array>
   1057c:	00012503          	lw	a0,0(sp)
   10580:	00410593          	addi	a1,sp,4
   10584:	00000613          	addi	a2,zero,0
   10588:	b59ff0ef          	jal	ra,100e0 <main>
   1058c:	b29ff06f          	jal	zero,100b4 <exit>

00010590 <__do_global_dtors_aux>:
   10590:	ff010113          	addi	sp,sp,-16
   10594:	00812423          	sw	s0,8(sp)
   10598:	0501c783          	lbu	a5,80(gp) # 2e860 <completed.1>
   1059c:	00112623          	sw	ra,12(sp)
   105a0:	02079263          	bne	a5,zero,105c4 <__do_global_dtors_aux+0x34>
   105a4:	00000793          	addi	a5,zero,0
   105a8:	00078a63          	beq	a5,zero,105bc <__do_global_dtors_aux+0x2c>
   105ac:	0002d537          	lui	a0,0x2d
   105b0:	7bc50513          	addi	a0,a0,1980 # 2d7bc <__EH_FRAME_BEGIN__>
   105b4:	00000097          	auipc	ra,0x0
   105b8:	000000e7          	jalr	ra,0(zero) # 0 <exit-0x100b4>
   105bc:	00100793          	addi	a5,zero,1
   105c0:	04f18823          	sb	a5,80(gp) # 2e860 <completed.1>
   105c4:	00c12083          	lw	ra,12(sp)
   105c8:	00812403          	lw	s0,8(sp)
   105cc:	01010113          	addi	sp,sp,16
   105d0:	00008067          	jalr	zero,0(ra) # 105b4 <__do_global_dtors_aux+0x24>

000105d4 <frame_dummy>:
   105d4:	00000793          	addi	a5,zero,0
   105d8:	00078c63          	beq	a5,zero,105f0 <frame_dummy+0x1c>
   105dc:	0002d537          	lui	a0,0x2d
   105e0:	05418593          	addi	a1,gp,84 # 2e864 <object.0>
   105e4:	7bc50513          	addi	a0,a0,1980 # 2d7bc <__EH_FRAME_BEGIN__>
   105e8:	00000317          	auipc	t1,0x0
   105ec:	00000067          	jalr	zero,0(zero) # 0 <exit-0x100b4>
   105f0:	00008067          	jalr	zero,0(ra)

000105f4 <usage>:
   105f4:	0002c537          	lui	a0,0x2c
   105f8:	ff010113          	addi	sp,sp,-16
   105fc:	6a050513          	addi	a0,a0,1696 # 2c6a0 <__ashldi3+0x3c>
   10600:	00112623          	sw	ra,12(sp)
   10604:	0c80d0ef          	jal	ra,1d6cc <puts>
   10608:	0002c537          	lui	a0,0x2c
   1060c:	6cc50513          	addi	a0,a0,1740 # 2c6cc <__ashldi3+0x68>
   10610:	0bc0d0ef          	jal	ra,1d6cc <puts>
   10614:	0002c537          	lui	a0,0x2c
   10618:	6ec50513          	addi	a0,a0,1772 # 2c6ec <__ashldi3+0x88>
   1061c:	0b00d0ef          	jal	ra,1d6cc <puts>
   10620:	0002c537          	lui	a0,0x2c
   10624:	6fc50513          	addi	a0,a0,1788 # 2c6fc <__ashldi3+0x98>
   10628:	0a40d0ef          	jal	ra,1d6cc <puts>
   1062c:	0002c537          	lui	a0,0x2c
   10630:	71050513          	addi	a0,a0,1808 # 2c710 <__ashldi3+0xac>
   10634:	0980d0ef          	jal	ra,1d6cc <puts>
   10638:	0002c537          	lui	a0,0x2c
   1063c:	75450513          	addi	a0,a0,1876 # 2c754 <__ashldi3+0xf0>
   10640:	08c0d0ef          	jal	ra,1d6cc <puts>
   10644:	0002c537          	lui	a0,0x2c
   10648:	79050513          	addi	a0,a0,1936 # 2c790 <__ashldi3+0x12c>
   1064c:	0800d0ef          	jal	ra,1d6cc <puts>
   10650:	0002c537          	lui	a0,0x2c
   10654:	7fc50513          	addi	a0,a0,2044 # 2c7fc <__ashldi3+0x198>
   10658:	0740d0ef          	jal	ra,1d6cc <puts>
   1065c:	0002d537          	lui	a0,0x2d
   10660:	82c50513          	addi	a0,a0,-2004 # 2c82c <__ashldi3+0x1c8>
   10664:	0680d0ef          	jal	ra,1d6cc <puts>
   10668:	0002d537          	lui	a0,0x2d
   1066c:	87c50513          	addi	a0,a0,-1924 # 2c87c <__ashldi3+0x218>
   10670:	05c0d0ef          	jal	ra,1d6cc <puts>
   10674:	0002d537          	lui	a0,0x2d
   10678:	8ec50513          	addi	a0,a0,-1812 # 2c8ec <__ashldi3+0x288>
   1067c:	0500d0ef          	jal	ra,1d6cc <puts>
   10680:	0002d537          	lui	a0,0x2d
   10684:	95850513          	addi	a0,a0,-1704 # 2c958 <__ashldi3+0x2f4>
   10688:	0440d0ef          	jal	ra,1d6cc <puts>
   1068c:	0002d537          	lui	a0,0x2d
   10690:	9b450513          	addi	a0,a0,-1612 # 2c9b4 <__ashldi3+0x350>
   10694:	0380d0ef          	jal	ra,1d6cc <puts>
   10698:	00000513          	addi	a0,zero,0
   1069c:	a19ff0ef          	jal	ra,100b4 <exit>

000106a0 <getint>:
   106a0:	8d010113          	addi	sp,sp,-1840
   106a4:	ffffe2b7          	lui	t0,0xffffe
   106a8:	72812423          	sw	s0,1832(sp)
   106ac:	72912223          	sw	s1,1828(sp)
   106b0:	73212023          	sw	s2,1824(sp)
   106b4:	71312e23          	sw	s3,1820(sp)
   106b8:	72112623          	sw	ra,1836(sp)
   106bc:	71412c23          	sw	s4,1816(sp)
   106c0:	00510133          	add	sp,sp,t0
   106c4:	00050413          	addi	s0,a0,0
   106c8:	02300493          	addi	s1,zero,35
   106cc:	5fd0c0ef          	jal	ra,1d4c8 <getc>
   106d0:	fff00913          	addi	s2,zero,-1
   106d4:	00900993          	addi	s3,zero,9
   106d8:	00950e63          	beq	a0,s1,106f4 <getint+0x54>
   106dc:	03250863          	beq	a0,s2,1070c <getint+0x6c>
   106e0:	fd050793          	addi	a5,a0,-48
   106e4:	04f9f663          	bgeu	s3,a5,10730 <getint+0x90>
   106e8:	00040513          	addi	a0,s0,0
   106ec:	5dd0c0ef          	jal	ra,1d4c8 <getc>
   106f0:	fe9516e3          	bne	a0,s1,106dc <getint+0x3c>
   106f4:	000025b7          	lui	a1,0x2
   106f8:	32858593          	addi	a1,a1,808 # 2328 <exit-0xdd8c>
   106fc:	00040613          	addi	a2,s0,0
   10700:	00010513          	addi	a0,sp,0
   10704:	1d80c0ef          	jal	ra,1c8dc <fgets>
   10708:	fe1ff06f          	jal	zero,106e8 <getint+0x48>
   1070c:	02c1a783          	lw	a5,44(gp) # 2e83c <_impure_ptr>
   10710:	0002d637          	lui	a2,0x2d
   10714:	0002d5b7          	lui	a1,0x2d
   10718:	00c7a503          	lw	a0,12(a5)
   1071c:	a0060613          	addi	a2,a2,-1536 # 2ca00 <__ashldi3+0x39c>
   10720:	a0458593          	addi	a1,a1,-1532 # 2ca04 <__ashldi3+0x3a0>
   10724:	7580c0ef          	jal	ra,1ce7c <fprintf>
   10728:	00000513          	addi	a0,zero,0
   1072c:	989ff0ef          	jal	ra,100b4 <exit>
   10730:	00000493          	addi	s1,zero,0
   10734:	00900913          	addi	s2,zero,9
   10738:	00249713          	slli	a4,s1,0x2
   1073c:	00970733          	add	a4,a4,s1
   10740:	00171713          	slli	a4,a4,0x1
   10744:	00040513          	addi	a0,s0,0
   10748:	00e784b3          	add	s1,a5,a4
   1074c:	57d0c0ef          	jal	ra,1d4c8 <getc>
   10750:	fd050793          	addi	a5,a0,-48
   10754:	fef972e3          	bgeu	s2,a5,10738 <getint+0x98>
   10758:	000022b7          	lui	t0,0x2
   1075c:	00510133          	add	sp,sp,t0
   10760:	72c12083          	lw	ra,1836(sp)
   10764:	00048513          	addi	a0,s1,0
   10768:	72812403          	lw	s0,1832(sp)
   1076c:	72412483          	lw	s1,1828(sp)
   10770:	72012903          	lw	s2,1824(sp)
   10774:	71c12983          	lw	s3,1820(sp)
   10778:	71812a03          	lw	s4,1816(sp)
   1077c:	73010113          	addi	sp,sp,1840
   10780:	00008067          	jalr	zero,0(ra)

00010784 <get_image>:
   10784:	fe010113          	addi	sp,sp,-32
   10788:	0002d7b7          	lui	a5,0x2d
   1078c:	01512223          	sw	s5,4(sp)
   10790:	00058a93          	addi	s5,a1,0
   10794:	a2078593          	addi	a1,a5,-1504 # 2ca20 <__ashldi3+0x3bc>
   10798:	00912a23          	sw	s1,20(sp)
   1079c:	01212823          	sw	s2,16(sp)
   107a0:	01312623          	sw	s3,12(sp)
   107a4:	00112e23          	sw	ra,28(sp)
   107a8:	00812c23          	sw	s0,24(sp)
   107ac:	01412423          	sw	s4,8(sp)
   107b0:	00060993          	addi	s3,a2,0
   107b4:	00068913          	addi	s2,a3,0
   107b8:	00050493          	addi	s1,a0,0
   107bc:	6740c0ef          	jal	ra,1ce30 <fopen>
   107c0:	04050863          	beq	a0,zero,10810 <get_image+0x8c>
   107c4:	00050413          	addi	s0,a0,0
   107c8:	7350b0ef          	jal	ra,1c6fc <fgetc>
   107cc:	00050a13          	addi	s4,a0,0
   107d0:	00040513          	addi	a0,s0,0
   107d4:	7290b0ef          	jal	ra,1c6fc <fgetc>
   107d8:	0ff57513          	andi	a0,a0,255
   107dc:	fcb50513          	addi	a0,a0,-53
   107e0:	00051863          	bne	a0,zero,107f0 <get_image+0x6c>
   107e4:	0ffa7793          	andi	a5,s4,255
   107e8:	fb078793          	addi	a5,a5,-80
   107ec:	04078263          	beq	a5,zero,10830 <get_image+0xac>
   107f0:	02c1a783          	lw	a5,44(gp) # 2e83c <_impure_ptr>
   107f4:	0002d5b7          	lui	a1,0x2d
   107f8:	00048613          	addi	a2,s1,0
   107fc:	00c7a503          	lw	a0,12(a5)
   10800:	a3c58593          	addi	a1,a1,-1476 # 2ca3c <__ashldi3+0x3d8>
   10804:	6780c0ef          	jal	ra,1ce7c <fprintf>
   10808:	00000513          	addi	a0,zero,0
   1080c:	8a9ff0ef          	jal	ra,100b4 <exit>
   10810:	02c1a783          	lw	a5,44(gp) # 2e83c <_impure_ptr>
   10814:	0002d5b7          	lui	a1,0x2d
   10818:	00048613          	addi	a2,s1,0
   1081c:	00c7a503          	lw	a0,12(a5)
   10820:	a2458593          	addi	a1,a1,-1500 # 2ca24 <__ashldi3+0x3c0>
   10824:	6580c0ef          	jal	ra,1ce7c <fprintf>
   10828:	00000513          	addi	a0,zero,0
   1082c:	889ff0ef          	jal	ra,100b4 <exit>
   10830:	00040513          	addi	a0,s0,0
   10834:	e6dff0ef          	jal	ra,106a0 <getint>
   10838:	00a9a023          	sw	a0,0(s3)
   1083c:	00040513          	addi	a0,s0,0
   10840:	e61ff0ef          	jal	ra,106a0 <getint>
   10844:	00a92023          	sw	a0,0(s2)
   10848:	00040513          	addi	a0,s0,0
   1084c:	e55ff0ef          	jal	ra,106a0 <getint>
   10850:	00092783          	lw	a5,0(s2)
   10854:	0009a503          	lw	a0,0(s3)
   10858:	02f50533          	mul	a0,a0,a5
   1085c:	779080ef          	jal	ra,197d4 <malloc>
   10860:	0009a603          	lw	a2,0(s3)
   10864:	00092783          	lw	a5,0(s2)
   10868:	00040693          	addi	a3,s0,0
   1086c:	00aaa023          	sw	a0,0(s5)
   10870:	02f60633          	mul	a2,a2,a5
   10874:	00100593          	addi	a1,zero,1
   10878:	0d90c0ef          	jal	ra,1d150 <fread>
   1087c:	02051263          	bne	a0,zero,108a0 <get_image+0x11c>
   10880:	02c1a783          	lw	a5,44(gp) # 2e83c <_impure_ptr>
   10884:	0002d5b7          	lui	a1,0x2d
   10888:	00048613          	addi	a2,s1,0
   1088c:	00c7a503          	lw	a0,12(a5)
   10890:	a6858593          	addi	a1,a1,-1432 # 2ca68 <__ashldi3+0x404>
   10894:	5e80c0ef          	jal	ra,1ce7c <fprintf>
   10898:	00000513          	addi	a0,zero,0
   1089c:	819ff0ef          	jal	ra,100b4 <exit>
   108a0:	00040513          	addi	a0,s0,0
   108a4:	01812403          	lw	s0,24(sp)
   108a8:	01c12083          	lw	ra,28(sp)
   108ac:	01412483          	lw	s1,20(sp)
   108b0:	01012903          	lw	s2,16(sp)
   108b4:	00c12983          	lw	s3,12(sp)
   108b8:	00812a03          	lw	s4,8(sp)
   108bc:	00412a83          	lw	s5,4(sp)
   108c0:	02010113          	addi	sp,sp,32
   108c4:	1090b06f          	jal	zero,1c1cc <fclose>

000108c8 <put_image>:
   108c8:	fe010113          	addi	sp,sp,-32
   108cc:	00912a23          	sw	s1,20(sp)
   108d0:	01212823          	sw	s2,16(sp)
   108d4:	01312623          	sw	s3,12(sp)
   108d8:	01412423          	sw	s4,8(sp)
   108dc:	00112e23          	sw	ra,28(sp)
   108e0:	00812c23          	sw	s0,24(sp)
   108e4:	00054783          	lbu	a5,0(a0)
   108e8:	00058a13          	addi	s4,a1,0
   108ec:	0002d5b7          	lui	a1,0x2d
   108f0:	fd378793          	addi	a5,a5,-45
   108f4:	00050493          	addi	s1,a0,0
   108f8:	00060913          	addi	s2,a2,0
   108fc:	00068993          	addi	s3,a3,0
   10900:	a8458593          	addi	a1,a1,-1404 # 2ca84 <__ashldi3+0x420>
   10904:	0a079663          	bne	a5,zero,109b0 <put_image+0xe8>
   10908:	00154783          	lbu	a5,1(a0)
   1090c:	0a079263          	bne	a5,zero,109b0 <put_image+0xe8>
   10910:	00100513          	addi	a0,zero,1
   10914:	1690b0ef          	jal	ra,1c27c <fdopen>
   10918:	00050413          	addi	s0,a0,0
   1091c:	0002d537          	lui	a0,0x2d
   10920:	00040693          	addi	a3,s0,0
   10924:	00300613          	addi	a2,zero,3
   10928:	00100593          	addi	a1,zero,1
   1092c:	aa050513          	addi	a0,a0,-1376 # 2caa0 <__ashldi3+0x43c>
   10930:	2050c0ef          	jal	ra,1d334 <fwrite>
   10934:	0002d5b7          	lui	a1,0x2d
   10938:	00098693          	addi	a3,s3,0
   1093c:	00090613          	addi	a2,s2,0
   10940:	aa458593          	addi	a1,a1,-1372 # 2caa4 <__ashldi3+0x440>
   10944:	00040513          	addi	a0,s0,0
   10948:	5340c0ef          	jal	ra,1ce7c <fprintf>
   1094c:	0002d537          	lui	a0,0x2d
   10950:	00040693          	addi	a3,s0,0
   10954:	00400613          	addi	a2,zero,4
   10958:	00100593          	addi	a1,zero,1
   1095c:	aac50513          	addi	a0,a0,-1364 # 2caac <__ashldi3+0x448>
   10960:	1d50c0ef          	jal	ra,1d334 <fwrite>
   10964:	033905b3          	mul	a1,s2,s3
   10968:	00040693          	addi	a3,s0,0
   1096c:	000a0513          	addi	a0,s4,0
   10970:	00100613          	addi	a2,zero,1
   10974:	1c10c0ef          	jal	ra,1d334 <fwrite>
   10978:	00100713          	addi	a4,zero,1
   1097c:	02c1a783          	lw	a5,44(gp) # 2e83c <_impure_ptr>
   10980:	06e51063          	bne	a0,a4,109e0 <put_image+0x118>
   10984:	0087a783          	lw	a5,8(a5)
   10988:	06878a63          	beq	a5,s0,109fc <put_image+0x134>
   1098c:	00040513          	addi	a0,s0,0
   10990:	01812403          	lw	s0,24(sp)
   10994:	01c12083          	lw	ra,28(sp)
   10998:	01412483          	lw	s1,20(sp)
   1099c:	01012903          	lw	s2,16(sp)
   109a0:	00c12983          	lw	s3,12(sp)
   109a4:	00812a03          	lw	s4,8(sp)
   109a8:	02010113          	addi	sp,sp,32
   109ac:	0210b06f          	jal	zero,1c1cc <fclose>
   109b0:	00048513          	addi	a0,s1,0
   109b4:	47c0c0ef          	jal	ra,1ce30 <fopen>
   109b8:	00050413          	addi	s0,a0,0
   109bc:	f60510e3          	bne	a0,zero,1091c <put_image+0x54>
   109c0:	02c1a783          	lw	a5,44(gp) # 2e83c <_impure_ptr>
   109c4:	0002d5b7          	lui	a1,0x2d
   109c8:	00048613          	addi	a2,s1,0
   109cc:	00c7a503          	lw	a0,12(a5)
   109d0:	a8858593          	addi	a1,a1,-1400 # 2ca88 <__ashldi3+0x424>
   109d4:	4a80c0ef          	jal	ra,1ce7c <fprintf>
   109d8:	00000513          	addi	a0,zero,0
   109dc:	ed8ff0ef          	jal	ra,100b4 <exit>
   109e0:	00c7a503          	lw	a0,12(a5)
   109e4:	0002d5b7          	lui	a1,0x2d
   109e8:	00048613          	addi	a2,s1,0
   109ec:	ab458593          	addi	a1,a1,-1356 # 2cab4 <__ashldi3+0x450>
   109f0:	48c0c0ef          	jal	ra,1ce7c <fprintf>
   109f4:	00000513          	addi	a0,zero,0
   109f8:	ebcff0ef          	jal	ra,100b4 <exit>
   109fc:	01c12083          	lw	ra,28(sp)
   10a00:	01812403          	lw	s0,24(sp)
   10a04:	01412483          	lw	s1,20(sp)
   10a08:	01012903          	lw	s2,16(sp)
   10a0c:	00c12983          	lw	s3,12(sp)
   10a10:	00812a03          	lw	s4,8(sp)
   10a14:	02010113          	addi	sp,sp,32
   10a18:	00008067          	jalr	zero,0(ra)

00010a1c <int_to_uchar>:
   10a1c:	04c05e63          	bge	zero,a2,10a78 <int_to_uchar+0x5c>
   10a20:	00052683          	lw	a3,0(a0)
   10a24:	00261613          	slli	a2,a2,0x2
   10a28:	00c50633          	add	a2,a0,a2
   10a2c:	00050793          	addi	a5,a0,0
   10a30:	00068813          	addi	a6,a3,0
   10a34:	0007a703          	lw	a4,0(a5)
   10a38:	00478793          	addi	a5,a5,4
   10a3c:	00e6d463          	bge	a3,a4,10a44 <int_to_uchar+0x28>
   10a40:	00070693          	addi	a3,a4,0
   10a44:	01075463          	bge	a4,a6,10a4c <int_to_uchar+0x30>
   10a48:	00070813          	addi	a6,a4,0
   10a4c:	fef614e3          	bne	a2,a5,10a34 <int_to_uchar+0x18>
   10a50:	410686b3          	sub	a3,a3,a6
   10a54:	00052703          	lw	a4,0(a0)
   10a58:	00450513          	addi	a0,a0,4
   10a5c:	00158593          	addi	a1,a1,1
   10a60:	41070733          	sub	a4,a4,a6
   10a64:	00871793          	slli	a5,a4,0x8
   10a68:	40e787b3          	sub	a5,a5,a4
   10a6c:	02d7c7b3          	div	a5,a5,a3
   10a70:	fef58fa3          	sb	a5,-1(a1)
   10a74:	fea610e3          	bne	a2,a0,10a54 <int_to_uchar+0x38>
   10a78:	00000513          	addi	a0,zero,0
   10a7c:	00008067          	jalr	zero,0(ra)

00010a80 <setup_brightness_lut>:
   10a80:	fd010113          	addi	sp,sp,-48
   10a84:	01412c23          	sw	s4,24(sp)
   10a88:	00050a13          	addi	s4,a0,0
   10a8c:	20400513          	addi	a0,zero,516
   10a90:	02112623          	sw	ra,44(sp)
   10a94:	02812423          	sw	s0,40(sp)
   10a98:	02912223          	sw	s1,36(sp)
   10a9c:	01512a23          	sw	s5,20(sp)
   10aa0:	00058493          	addi	s1,a1,0
   10aa4:	00060413          	addi	s0,a2,0
   10aa8:	03212023          	sw	s2,32(sp)
   10aac:	01312e23          	sw	s3,28(sp)
   10ab0:	01612823          	sw	s6,16(sp)
   10ab4:	01712623          	sw	s7,12(sp)
   10ab8:	51d080ef          	jal	ra,197d4 <malloc>
   10abc:	10250793          	addi	a5,a0,258
   10ac0:	00fa2023          	sw	a5,0(s4)
   10ac4:	00048513          	addi	a0,s1,0
   10ac8:	179080ef          	jal	ra,19440 <__floatsisf>
   10acc:	00600793          	addi	a5,zero,6
   10ad0:	00050a93          	addi	s5,a0,0
   10ad4:	08f40863          	beq	s0,a5,10b64 <setup_brightness_lut+0xe4>
   10ad8:	ea01a903          	lw	s2,-352(gp) # 2e6b0 <__SDATA_BEGIN__>
   10adc:	ea41a983          	lw	s3,-348(gp) # 2e6b4 <__SDATA_BEGIN__+0x4>
   10ae0:	f0000413          	addi	s0,zero,-256
   10ae4:	80000bb7          	lui	s7,0x80000
   10ae8:	10100b13          	addi	s6,zero,257
   10aec:	00040513          	addi	a0,s0,0
   10af0:	151080ef          	jal	ra,19440 <__floatsisf>
   10af4:	000a8593          	addi	a1,s5,0
   10af8:	178080ef          	jal	ra,18c70 <__divsf3>
   10afc:	00050593          	addi	a1,a0,0
   10b00:	5bc080ef          	jal	ra,190bc <__mulsf3>
   10b04:	00abc533          	xor	a0,s7,a0
   10b08:	245080ef          	jal	ra,1954c <__extendsfdf2>
   10b0c:	13c050ef          	jal	ra,15c48 <exp>
   10b10:	00090613          	addi	a2,s2,0
   10b14:	00098693          	addi	a3,s3,0
   10b18:	000a2483          	lw	s1,0(s4)
   10b1c:	67d060ef          	jal	ra,17998 <__muldf3>
   10b20:	305080ef          	jal	ra,19624 <__truncdfsf2>
   10b24:	008484b3          	add	s1,s1,s0
   10b28:	0b1080ef          	jal	ra,193d8 <__fixunssfsi>
   10b2c:	00140413          	addi	s0,s0,1
   10b30:	00a48023          	sb	a0,0(s1)
   10b34:	fb641ce3          	bne	s0,s6,10aec <setup_brightness_lut+0x6c>
   10b38:	02c12083          	lw	ra,44(sp)
   10b3c:	02812403          	lw	s0,40(sp)
   10b40:	02412483          	lw	s1,36(sp)
   10b44:	02012903          	lw	s2,32(sp)
   10b48:	01c12983          	lw	s3,28(sp)
   10b4c:	01812a03          	lw	s4,24(sp)
   10b50:	01412a83          	lw	s5,20(sp)
   10b54:	01012b03          	lw	s6,16(sp)
   10b58:	00c12b83          	lw	s7,12(sp)
   10b5c:	03010113          	addi	sp,sp,48
   10b60:	00008067          	jalr	zero,0(ra)
   10b64:	ea01a903          	lw	s2,-352(gp) # 2e6b0 <__SDATA_BEGIN__>
   10b68:	ea41a983          	lw	s3,-348(gp) # 2e6b4 <__SDATA_BEGIN__+0x4>
   10b6c:	f0000413          	addi	s0,zero,-256
   10b70:	80000bb7          	lui	s7,0x80000
   10b74:	10100b13          	addi	s6,zero,257
   10b78:	00040513          	addi	a0,s0,0
   10b7c:	0c5080ef          	jal	ra,19440 <__floatsisf>
   10b80:	000a8593          	addi	a1,s5,0
   10b84:	0ec080ef          	jal	ra,18c70 <__divsf3>
   10b88:	00050593          	addi	a1,a0,0
   10b8c:	530080ef          	jal	ra,190bc <__mulsf3>
   10b90:	00050593          	addi	a1,a0,0
   10b94:	00050493          	addi	s1,a0,0
   10b98:	524080ef          	jal	ra,190bc <__mulsf3>
   10b9c:	00048593          	addi	a1,s1,0
   10ba0:	51c080ef          	jal	ra,190bc <__mulsf3>
   10ba4:	00abc533          	xor	a0,s7,a0
   10ba8:	1a5080ef          	jal	ra,1954c <__extendsfdf2>
   10bac:	09c050ef          	jal	ra,15c48 <exp>
   10bb0:	00090613          	addi	a2,s2,0
   10bb4:	00098693          	addi	a3,s3,0
   10bb8:	000a2483          	lw	s1,0(s4)
   10bbc:	5dd060ef          	jal	ra,17998 <__muldf3>
   10bc0:	265080ef          	jal	ra,19624 <__truncdfsf2>
   10bc4:	008484b3          	add	s1,s1,s0
   10bc8:	011080ef          	jal	ra,193d8 <__fixunssfsi>
   10bcc:	00140413          	addi	s0,s0,1
   10bd0:	00a48023          	sb	a0,0(s1)
   10bd4:	fb6412e3          	bne	s0,s6,10b78 <setup_brightness_lut+0xf8>
   10bd8:	f61ff06f          	jal	zero,10b38 <setup_brightness_lut+0xb8>

00010bdc <susan_principle>:
   10bdc:	fb010113          	addi	sp,sp,-80
   10be0:	03312e23          	sw	s3,60(sp)
   10be4:	00078993          	addi	s3,a5,0
   10be8:	02f707b3          	mul	a5,a4,a5
   10bec:	04812423          	sw	s0,72(sp)
   10bf0:	04912223          	sw	s1,68(sp)
   10bf4:	05212023          	sw	s2,64(sp)
   10bf8:	00050493          	addi	s1,a0,0
   10bfc:	00058913          	addi	s2,a1,0
   10c00:	00058513          	addi	a0,a1,0
   10c04:	00060413          	addi	s0,a2,0
   10c08:	00000593          	addi	a1,zero,0
   10c0c:	04112623          	sw	ra,76(sp)
   10c10:	00279613          	slli	a2,a5,0x2
   10c14:	00e12423          	sw	a4,8(sp)
   10c18:	00d12623          	sw	a3,12(sp)
   10c1c:	2650d0ef          	jal	ra,1e680 <memset>
   10c20:	00600793          	addi	a5,zero,6
   10c24:	3337de63          	bge	a5,s3,10f60 <susan_principle+0x384>
   10c28:	00812703          	lw	a4,8(sp)
   10c2c:	32e7da63          	bge	a5,a4,10f60 <susan_principle+0x384>
   10c30:	00171393          	slli	t2,a4,0x1
   10c34:	00e38eb3          	add	t4,t2,a4
   10c38:	00c12683          	lw	a3,12(sp)
   10c3c:	01d48533          	add	a0,s1,t4
   10c40:	ffc48f93          	addi	t6,s1,-4
   10c44:	03412c23          	sw	s4,56(sp)
   10c48:	03512a23          	sw	s5,52(sp)
   10c4c:	03612823          	sw	s6,48(sp)
   10c50:	03712623          	sw	s7,44(sp)
   10c54:	03812423          	sw	s8,40(sp)
   10c58:	03912223          	sw	s9,36(sp)
   10c5c:	03a12023          	sw	s10,32(sp)
   10c60:	01b12e23          	sw	s11,28(sp)
   10c64:	ffd98993          	addi	s3,s3,-3
   10c68:	007483b3          	add	t2,s1,t2
   10c6c:	00250b13          	addi	s6,a0,2
   10c70:	00ef8fb3          	add	t6,t6,a4
   10c74:	00000f13          	addi	t5,zero,0
   10c78:	00300293          	addi	t0,zero,3
   10c7c:	00248a93          	addi	s5,s1,2
   10c80:	00e48a33          	add	s4,s1,a4
   10c84:	002e9b93          	slli	s7,t4,0x2
   10c88:	01790bb3          	add	s7,s2,s7
   10c8c:	01ea8333          	add	t1,s5,t5
   10c90:	005f8893          	addi	a7,t6,5
   10c94:	007f05b3          	add	a1,t5,t2
   10c98:	01da0633          	add	a2,s4,t4
   10c9c:	007e8833          	add	a6,t4,t2
   10ca0:	01db0e33          	add	t3,s6,t4
   10ca4:	41e307b3          	sub	a5,t1,t5
   10ca8:	01d787b3          	add	a5,a5,t4
   10cac:	0017c783          	lbu	a5,1(a5)
   10cb0:	00034c03          	lbu	s8,0(t1) # 105e8 <frame_dummy+0x14>
   10cb4:	00134c83          	lbu	s9,1(t1)
   10cb8:	00f407b3          	add	a5,s0,a5
   10cbc:	41878c33          	sub	s8,a5,s8
   10cc0:	000c4c03          	lbu	s8,0(s8)
   10cc4:	41978cb3          	sub	s9,a5,s9
   10cc8:	00234d03          	lbu	s10,2(t1)
   10ccc:	000ccc83          	lbu	s9,0(s9)
   10cd0:	064c0c13          	addi	s8,s8,100
   10cd4:	41a78d33          	sub	s10,a5,s10
   10cd8:	018c8cb3          	add	s9,s9,s8
   10cdc:	0008cc03          	lbu	s8,0(a7)
   10ce0:	000d4d03          	lbu	s10,0(s10)
   10ce4:	41878c33          	sub	s8,a5,s8
   10ce8:	019d0d33          	add	s10,s10,s9
   10cec:	000c4c03          	lbu	s8,0(s8)
   10cf0:	0018cc83          	lbu	s9,1(a7)
   10cf4:	01ac0c33          	add	s8,s8,s10
   10cf8:	41978cb3          	sub	s9,a5,s9
   10cfc:	0028cd03          	lbu	s10,2(a7)
   10d00:	000ccc83          	lbu	s9,0(s9)
   10d04:	41a78d33          	sub	s10,a5,s10
   10d08:	018c8cb3          	add	s9,s9,s8
   10d0c:	000d4d03          	lbu	s10,0(s10)
   10d10:	0038cc03          	lbu	s8,3(a7)
   10d14:	019d0d33          	add	s10,s10,s9
   10d18:	41878c33          	sub	s8,a5,s8
   10d1c:	0048cc83          	lbu	s9,4(a7)
   10d20:	000c4c03          	lbu	s8,0(s8)
   10d24:	41978cb3          	sub	s9,a5,s9
   10d28:	01ac0c33          	add	s8,s8,s10
   10d2c:	000ccc83          	lbu	s9,0(s9)
   10d30:	0005cd03          	lbu	s10,0(a1)
   10d34:	018c8cb3          	add	s9,s9,s8
   10d38:	41a78d33          	sub	s10,a5,s10
   10d3c:	0015cc03          	lbu	s8,1(a1)
   10d40:	000d4d03          	lbu	s10,0(s10)
   10d44:	41878c33          	sub	s8,a5,s8
   10d48:	019d0d33          	add	s10,s10,s9
   10d4c:	000c4c03          	lbu	s8,0(s8)
   10d50:	0025cc83          	lbu	s9,2(a1)
   10d54:	01ac0c33          	add	s8,s8,s10
   10d58:	41978cb3          	sub	s9,a5,s9
   10d5c:	0035cd03          	lbu	s10,3(a1)
   10d60:	000ccc83          	lbu	s9,0(s9)
   10d64:	41a78d33          	sub	s10,a5,s10
   10d68:	018c8cb3          	add	s9,s9,s8
   10d6c:	000d4d03          	lbu	s10,0(s10)
   10d70:	0045cc03          	lbu	s8,4(a1)
   10d74:	019d0d33          	add	s10,s10,s9
   10d78:	41878c33          	sub	s8,a5,s8
   10d7c:	0055cc83          	lbu	s9,5(a1)
   10d80:	000c4c03          	lbu	s8,0(s8)
   10d84:	41978cb3          	sub	s9,a5,s9
   10d88:	01ac0c33          	add	s8,s8,s10
   10d8c:	000ccc83          	lbu	s9,0(s9)
   10d90:	0065cd03          	lbu	s10,6(a1)
   10d94:	018c8cb3          	add	s9,s9,s8
   10d98:	41a78d33          	sub	s10,a5,s10
   10d9c:	00054c03          	lbu	s8,0(a0)
   10da0:	000d4d83          	lbu	s11,0(s10)
   10da4:	41878c33          	sub	s8,a5,s8
   10da8:	019d8db3          	add	s11,s11,s9
   10dac:	000c4c83          	lbu	s9,0(s8)
   10db0:	00154c03          	lbu	s8,1(a0)
   10db4:	00254d03          	lbu	s10,2(a0)
   10db8:	01bc8cb3          	add	s9,s9,s11
   10dbc:	41878c33          	sub	s8,a5,s8
   10dc0:	000c4c03          	lbu	s8,0(s8)
   10dc4:	41a78d33          	sub	s10,a5,s10
   10dc8:	000d4d03          	lbu	s10,0(s10)
   10dcc:	019c0c33          	add	s8,s8,s9
   10dd0:	00454c83          	lbu	s9,4(a0)
   10dd4:	018d0d33          	add	s10,s10,s8
   10dd8:	00554c03          	lbu	s8,5(a0)
   10ddc:	41978cb3          	sub	s9,a5,s9
   10de0:	000ccc83          	lbu	s9,0(s9)
   10de4:	41878c33          	sub	s8,a5,s8
   10de8:	000c4c03          	lbu	s8,0(s8)
   10dec:	01ac8cb3          	add	s9,s9,s10
   10df0:	00654d03          	lbu	s10,6(a0)
   10df4:	019c0c33          	add	s8,s8,s9
   10df8:	00064c83          	lbu	s9,0(a2)
   10dfc:	41a78d33          	sub	s10,a5,s10
   10e00:	000d4d03          	lbu	s10,0(s10)
   10e04:	41978cb3          	sub	s9,a5,s9
   10e08:	000ccc83          	lbu	s9,0(s9)
   10e0c:	018d0d33          	add	s10,s10,s8
   10e10:	00164c03          	lbu	s8,1(a2)
   10e14:	01ac8cb3          	add	s9,s9,s10
   10e18:	00264d03          	lbu	s10,2(a2)
   10e1c:	41878c33          	sub	s8,a5,s8
   10e20:	000c4c03          	lbu	s8,0(s8)
   10e24:	41a78d33          	sub	s10,a5,s10
   10e28:	000d4d03          	lbu	s10,0(s10)
   10e2c:	019c0c33          	add	s8,s8,s9
   10e30:	00364c83          	lbu	s9,3(a2)
   10e34:	018d0d33          	add	s10,s10,s8
   10e38:	00464c03          	lbu	s8,4(a2)
   10e3c:	41978cb3          	sub	s9,a5,s9
   10e40:	000ccc83          	lbu	s9,0(s9)
   10e44:	41878c33          	sub	s8,a5,s8
   10e48:	000c4c03          	lbu	s8,0(s8)
   10e4c:	01ac8cb3          	add	s9,s9,s10
   10e50:	00564d03          	lbu	s10,5(a2)
   10e54:	019c0c33          	add	s8,s8,s9
   10e58:	00664c83          	lbu	s9,6(a2)
   10e5c:	41a78d33          	sub	s10,a5,s10
   10e60:	000d4d03          	lbu	s10,0(s10)
   10e64:	41978cb3          	sub	s9,a5,s9
   10e68:	000ccc83          	lbu	s9,0(s9)
   10e6c:	018d0d33          	add	s10,s10,s8
   10e70:	00184c03          	lbu	s8,1(a6)
   10e74:	01ac8cb3          	add	s9,s9,s10
   10e78:	00284d03          	lbu	s10,2(a6)
   10e7c:	41878c33          	sub	s8,a5,s8
   10e80:	000c4c03          	lbu	s8,0(s8)
   10e84:	41a78d33          	sub	s10,a5,s10
   10e88:	000d4d03          	lbu	s10,0(s10)
   10e8c:	019c0c33          	add	s8,s8,s9
   10e90:	00384c83          	lbu	s9,3(a6)
   10e94:	018d0d33          	add	s10,s10,s8
   10e98:	00484c03          	lbu	s8,4(a6)
   10e9c:	41978cb3          	sub	s9,a5,s9
   10ea0:	000ccc83          	lbu	s9,0(s9)
   10ea4:	41878c33          	sub	s8,a5,s8
   10ea8:	000c4c03          	lbu	s8,0(s8)
   10eac:	01ac8cb3          	add	s9,s9,s10
   10eb0:	00584d03          	lbu	s10,5(a6)
   10eb4:	019c0c33          	add	s8,s8,s9
   10eb8:	000e4c83          	lbu	s9,0(t3)
   10ebc:	41a78d33          	sub	s10,a5,s10
   10ec0:	000d4d03          	lbu	s10,0(s10)
   10ec4:	41978cb3          	sub	s9,a5,s9
   10ec8:	000ccc83          	lbu	s9,0(s9)
   10ecc:	018d0d33          	add	s10,s10,s8
   10ed0:	001e4c03          	lbu	s8,1(t3)
   10ed4:	01ac8cb3          	add	s9,s9,s10
   10ed8:	002e4d03          	lbu	s10,2(t3)
   10edc:	41878c33          	sub	s8,a5,s8
   10ee0:	000c4c03          	lbu	s8,0(s8)
   10ee4:	41a787b3          	sub	a5,a5,s10
   10ee8:	0007c783          	lbu	a5,0(a5)
   10eec:	019c0c33          	add	s8,s8,s9
   10ef0:	018787b3          	add	a5,a5,s8
   10ef4:	00f6c663          	blt	a3,a5,10f00 <susan_principle+0x324>
   10ef8:	40f687b3          	sub	a5,a3,a5
   10efc:	00fba623          	sw	a5,12(s7) # 8000000c <__BSS_END__+0x7ffd14a0>
   10f00:	00130313          	addi	t1,t1,1
   10f04:	00188893          	addi	a7,a7,1
   10f08:	00158593          	addi	a1,a1,1
   10f0c:	00150513          	addi	a0,a0,1
   10f10:	00160613          	addi	a2,a2,1
   10f14:	00180813          	addi	a6,a6,1
   10f18:	001e0e13          	addi	t3,t3,1
   10f1c:	004b8b93          	addi	s7,s7,4
   10f20:	d9f312e3          	bne	t1,t6,10ca4 <susan_principle+0xc8>
   10f24:	00128293          	addi	t0,t0,1 # 2001 <exit-0xe0b3>
   10f28:	00ef8fb3          	add	t6,t6,a4
   10f2c:	00ef0f33          	add	t5,t5,a4
   10f30:	00ee8eb3          	add	t4,t4,a4
   10f34:	01328663          	beq	t0,s3,10f40 <susan_principle+0x364>
   10f38:	01d48533          	add	a0,s1,t4
   10f3c:	d49ff06f          	jal	zero,10c84 <susan_principle+0xa8>
   10f40:	03812a03          	lw	s4,56(sp)
   10f44:	03412a83          	lw	s5,52(sp)
   10f48:	03012b03          	lw	s6,48(sp)
   10f4c:	02c12b83          	lw	s7,44(sp)
   10f50:	02812c03          	lw	s8,40(sp)
   10f54:	02412c83          	lw	s9,36(sp)
   10f58:	02012d03          	lw	s10,32(sp)
   10f5c:	01c12d83          	lw	s11,28(sp)
   10f60:	04c12083          	lw	ra,76(sp)
   10f64:	04812403          	lw	s0,72(sp)
   10f68:	04412483          	lw	s1,68(sp)
   10f6c:	04012903          	lw	s2,64(sp)
   10f70:	03c12983          	lw	s3,60(sp)
   10f74:	05010113          	addi	sp,sp,80
   10f78:	00008067          	jalr	zero,0(ra)

00010f7c <susan_principle_small>:
   10f7c:	fc010113          	addi	sp,sp,-64
   10f80:	03312623          	sw	s3,44(sp)
   10f84:	00078993          	addi	s3,a5,0
   10f88:	02f707b3          	mul	a5,a4,a5
   10f8c:	02812c23          	sw	s0,56(sp)
   10f90:	03212823          	sw	s2,48(sp)
   10f94:	00060413          	addi	s0,a2,0
   10f98:	00050913          	addi	s2,a0,0
   10f9c:	00058513          	addi	a0,a1,0
   10fa0:	00000593          	addi	a1,zero,0
   10fa4:	02112e23          	sw	ra,60(sp)
   10fa8:	00e12623          	sw	a4,12(sp)
   10fac:	00279613          	slli	a2,a5,0x2
   10fb0:	6d00d0ef          	jal	ra,1e680 <memset>
   10fb4:	00200793          	addi	a5,zero,2
   10fb8:	1537d463          	bge	a5,s3,11100 <susan_principle_small+0x184>
   10fbc:	00c12703          	lw	a4,12(sp)
   10fc0:	14e7d063          	bge	a5,a4,11100 <susan_principle_small+0x184>
   10fc4:	03412423          	sw	s4,40(sp)
   10fc8:	00450693          	addi	a3,a0,4
   10fcc:	00271a13          	slli	s4,a4,0x2
   10fd0:	ffe90f13          	addi	t5,s2,-2
   10fd4:	02912a23          	sw	s1,52(sp)
   10fd8:	03512223          	sw	s5,36(sp)
   10fdc:	03612023          	sw	s6,32(sp)
   10fe0:	01712e23          	sw	s7,28(sp)
   10fe4:	01812c23          	sw	s8,24(sp)
   10fe8:	01912a23          	sw	s9,20(sp)
   10fec:	fff98993          	addi	s3,s3,-1
   10ff0:	014683b3          	add	t2,a3,s4
   10ff4:	00ef0f33          	add	t5,t5,a4
   10ff8:	00070293          	addi	t0,a4,0
   10ffc:	00000f93          	addi	t6,zero,0
   11000:	00100493          	addi	s1,zero,1
   11004:	00f70ab3          	add	s5,a4,a5
   11008:	2da00e93          	addi	t4,zero,730
   1100c:	01f906b3          	add	a3,s2,t6
   11010:	002f0593          	addi	a1,t5,2
   11014:	01ea8633          	add	a2,s5,t5
   11018:	00038e13          	addi	t3,t2,0
   1101c:	41f687b3          	sub	a5,a3,t6
   11020:	005787b3          	add	a5,a5,t0
   11024:	0017c783          	lbu	a5,1(a5)
   11028:	0006c883          	lbu	a7,0(a3)
   1102c:	0016c803          	lbu	a6,1(a3)
   11030:	00f407b3          	add	a5,s0,a5
   11034:	0026c503          	lbu	a0,2(a3)
   11038:	411788b3          	sub	a7,a5,a7
   1103c:	0005c303          	lbu	t1,0(a1)
   11040:	41078833          	sub	a6,a5,a6
   11044:	0008cc83          	lbu	s9,0(a7)
   11048:	0025c883          	lbu	a7,2(a1)
   1104c:	40a78533          	sub	a0,a5,a0
   11050:	00084c03          	lbu	s8,0(a6)
   11054:	00064803          	lbu	a6,0(a2)
   11058:	00054b03          	lbu	s6,0(a0)
   1105c:	40678333          	sub	t1,a5,t1
   11060:	00164503          	lbu	a0,1(a2)
   11064:	411788b3          	sub	a7,a5,a7
   11068:	00034303          	lbu	t1,0(t1)
   1106c:	00264b83          	lbu	s7,2(a2)
   11070:	064c8c93          	addi	s9,s9,100
   11074:	41078833          	sub	a6,a5,a6
   11078:	0008c883          	lbu	a7,0(a7)
   1107c:	019c0c33          	add	s8,s8,s9
   11080:	40a78533          	sub	a0,a5,a0
   11084:	00084803          	lbu	a6,0(a6)
   11088:	018b0b33          	add	s6,s6,s8
   1108c:	00054503          	lbu	a0,0(a0)
   11090:	01630333          	add	t1,t1,s6
   11094:	417787b3          	sub	a5,a5,s7
   11098:	0007c783          	lbu	a5,0(a5)
   1109c:	006888b3          	add	a7,a7,t1
   110a0:	01180833          	add	a6,a6,a7
   110a4:	01050533          	add	a0,a0,a6
   110a8:	00a787b3          	add	a5,a5,a0
   110ac:	00168693          	addi	a3,a3,1
   110b0:	40fe8533          	sub	a0,t4,a5
   110b4:	00fec463          	blt	t4,a5,110bc <susan_principle_small+0x140>
   110b8:	00ae2023          	sw	a0,0(t3)
   110bc:	00158593          	addi	a1,a1,1
   110c0:	00160613          	addi	a2,a2,1
   110c4:	004e0e13          	addi	t3,t3,4
   110c8:	f4df1ae3          	bne	t5,a3,1101c <susan_principle_small+0xa0>
   110cc:	00148493          	addi	s1,s1,1
   110d0:	00ef0f33          	add	t5,t5,a4
   110d4:	014383b3          	add	t2,t2,s4
   110d8:	00ef8fb3          	add	t6,t6,a4
   110dc:	00e282b3          	add	t0,t0,a4
   110e0:	f33496e3          	bne	s1,s3,1100c <susan_principle_small+0x90>
   110e4:	03412483          	lw	s1,52(sp)
   110e8:	02812a03          	lw	s4,40(sp)
   110ec:	02412a83          	lw	s5,36(sp)
   110f0:	02012b03          	lw	s6,32(sp)
   110f4:	01c12b83          	lw	s7,28(sp)
   110f8:	01812c03          	lw	s8,24(sp)
   110fc:	01412c83          	lw	s9,20(sp)
   11100:	03c12083          	lw	ra,60(sp)
   11104:	03812403          	lw	s0,56(sp)
   11108:	03012903          	lw	s2,48(sp)
   1110c:	02c12983          	lw	s3,44(sp)
   11110:	04010113          	addi	sp,sp,64
   11114:	00008067          	jalr	zero,0(ra)

00011118 <median>:
   11118:	fff58793          	addi	a5,a1,-1
   1111c:	02d787b3          	mul	a5,a5,a3
   11120:	00c785b3          	add	a1,a5,a2
   11124:	00b505b3          	add	a1,a0,a1
   11128:	00d78733          	add	a4,a5,a3
   1112c:	00d707b3          	add	a5,a4,a3
   11130:	fff5ce03          	lbu	t3,-1(a1)
   11134:	0005c303          	lbu	t1,0(a1)
   11138:	00c70733          	add	a4,a4,a2
   1113c:	00c787b3          	add	a5,a5,a2
   11140:	00f507b3          	add	a5,a0,a5
   11144:	00e50533          	add	a0,a0,a4
   11148:	fff7ce83          	lbu	t4,-1(a5)
   1114c:	0007cf03          	lbu	t5,0(a5)
   11150:	0017cf83          	lbu	t6,1(a5)
   11154:	00154603          	lbu	a2,1(a0)
   11158:	fff54783          	lbu	a5,-1(a0)
   1115c:	0015c703          	lbu	a4,1(a1)
   11160:	01c35863          	bge	t1,t3,11170 <median+0x58>
   11164:	00030693          	addi	a3,t1,0
   11168:	000e0313          	addi	t1,t3,0
   1116c:	00068e13          	addi	t3,a3,0
   11170:	00000693          	addi	a3,zero,0
   11174:	00400513          	addi	a0,zero,4
   11178:	00300813          	addi	a6,zero,3
   1117c:	00200893          	addi	a7,zero,2
   11180:	00675863          	bge	a4,t1,11190 <median+0x78>
   11184:	00070593          	addi	a1,a4,0
   11188:	00030713          	addi	a4,t1,0
   1118c:	00058313          	addi	t1,a1,0
   11190:	08e7c063          	blt	a5,a4,11210 <median+0xf8>
   11194:	06a68263          	beq	a3,a0,111f8 <median+0xe0>
   11198:	08f64663          	blt	a2,a5,11224 <median+0x10c>
   1119c:	1b068263          	beq	a3,a6,11340 <median+0x228>
   111a0:	00060593          	addi	a1,a2,0
   111a4:	00078613          	addi	a2,a5,0
   111a8:	00058793          	addi	a5,a1,0
   111ac:	0afec063          	blt	t4,a5,1124c <median+0x134>
   111b0:	1b168c63          	beq	a3,a7,11368 <median+0x250>
   111b4:	00078593          	addi	a1,a5,0
   111b8:	000e8793          	addi	a5,t4,0
   111bc:	0aff4e63          	blt	t5,a5,11278 <median+0x160>
   111c0:	1c069663          	bne	a3,zero,1138c <median+0x274>
   111c4:	00078e93          	addi	t4,a5,0
   111c8:	000f0793          	addi	a5,t5,0
   111cc:	0cffcc63          	blt	t6,a5,112a4 <median+0x18c>
   111d0:	0fc35e63          	bge	t1,t3,112cc <median+0x1b4>
   111d4:	15c75a63          	bge	a4,t3,11328 <median+0x210>
   111d8:	00070293          	addi	t0,a4,0
   111dc:	00078f13          	addi	t5,a5,0
   111e0:	000e0713          	addi	a4,t3,0
   111e4:	00100693          	addi	a3,zero,1
   111e8:	00030e13          	addi	t3,t1,0
   111ec:	00028313          	addi	t1,t0,0
   111f0:	0e80006f          	jal	zero,112d8 <median+0x1c0>
   111f4:	00070793          	addi	a5,a4,0
   111f8:	00f60633          	add	a2,a2,a5
   111fc:	01f65513          	srli	a0,a2,0x1f
   11200:	00c50533          	add	a0,a0,a2
   11204:	40155513          	srai	a0,a0,0x1
   11208:	0ff57513          	andi	a0,a0,255
   1120c:	00008067          	jalr	zero,0(ra)
   11210:	fea682e3          	beq	a3,a0,111f4 <median+0xdc>
   11214:	00070593          	addi	a1,a4,0
   11218:	00078713          	addi	a4,a5,0
   1121c:	00058793          	addi	a5,a1,0
   11220:	f6f65ee3          	bge	a2,a5,1119c <median+0x84>
   11224:	f90694e3          	bne	a3,a6,111ac <median+0x94>
   11228:	1bc35463          	bge	t1,t3,113d0 <median+0x2b8>
   1122c:	27c75463          	bge	a4,t3,11494 <median+0x37c>
   11230:	00070293          	addi	t0,a4,0
   11234:	00078593          	addi	a1,a5,0
   11238:	000e0713          	addi	a4,t3,0
   1123c:	00400693          	addi	a3,zero,4
   11240:	00030e13          	addi	t3,t1,0
   11244:	00028313          	addi	t1,t0,0
   11248:	0900006f          	jal	zero,112d8 <median+0x1c0>
   1124c:	000e8593          	addi	a1,t4,0
   11250:	f71696e3          	bne	a3,a7,111bc <median+0xa4>
   11254:	1bc35a63          	bge	t1,t3,11408 <median+0x2f0>
   11258:	27c75063          	bge	a4,t3,114b8 <median+0x3a0>
   1125c:	00070293          	addi	t0,a4,0
   11260:	00078e93          	addi	t4,a5,0
   11264:	000e0713          	addi	a4,t3,0
   11268:	00300693          	addi	a3,zero,3
   1126c:	00030e13          	addi	t3,t1,0
   11270:	00028313          	addi	t1,t0,0
   11274:	0640006f          	jal	zero,112d8 <median+0x1c0>
   11278:	000f0e93          	addi	t4,t5,0
   1127c:	f40688e3          	beq	a3,zero,111cc <median+0xb4>
   11280:	1bc35263          	bge	t1,t3,11424 <median+0x30c>
   11284:	27c75863          	bge	a4,t3,114f4 <median+0x3dc>
   11288:	00070293          	addi	t0,a4,0
   1128c:	00078f13          	addi	t5,a5,0
   11290:	000e0713          	addi	a4,t3,0
   11294:	00200693          	addi	a3,zero,2
   11298:	00030e13          	addi	t3,t1,0
   1129c:	00028313          	addi	t1,t0,0
   112a0:	0380006f          	jal	zero,112d8 <median+0x1c0>
   112a4:	00100693          	addi	a3,zero,1
   112a8:	03c35e63          	bge	t1,t3,112e4 <median+0x1cc>
   112ac:	07c75263          	bge	a4,t3,11310 <median+0x1f8>
   112b0:	00070293          	addi	t0,a4,0
   112b4:	000f8f13          	addi	t5,t6,0
   112b8:	000e0713          	addi	a4,t3,0
   112bc:	00078f93          	addi	t6,a5,0
   112c0:	00030e13          	addi	t3,t1,0
   112c4:	00028313          	addi	t1,t0,0
   112c8:	0100006f          	jal	zero,112d8 <median+0x1c0>
   112cc:	02674663          	blt	a4,t1,112f8 <median+0x1e0>
   112d0:	00078f13          	addi	t5,a5,0
   112d4:	00100693          	addi	a3,zero,1
   112d8:	00060793          	addi	a5,a2,0
   112dc:	00058613          	addi	a2,a1,0
   112e0:	eb1ff06f          	jal	zero,11190 <median+0x78>
   112e4:	000f8f13          	addi	t5,t6,0
   112e8:	00078f93          	addi	t6,a5,0
   112ec:	00060793          	addi	a5,a2,0
   112f0:	00058613          	addi	a2,a1,0
   112f4:	e8dff06f          	jal	zero,11180 <median+0x68>
   112f8:	00070293          	addi	t0,a4,0
   112fc:	00078f13          	addi	t5,a5,0
   11300:	00030713          	addi	a4,t1,0
   11304:	00100693          	addi	a3,zero,1
   11308:	00028313          	addi	t1,t0,0
   1130c:	fcdff06f          	jal	zero,112d8 <median+0x1c0>
   11310:	00030293          	addi	t0,t1,0
   11314:	000f8f13          	addi	t5,t6,0
   11318:	000e0313          	addi	t1,t3,0
   1131c:	00078f93          	addi	t6,a5,0
   11320:	00028e13          	addi	t3,t0,0
   11324:	fb5ff06f          	jal	zero,112d8 <median+0x1c0>
   11328:	00030293          	addi	t0,t1,0
   1132c:	00078f13          	addi	t5,a5,0
   11330:	000e0313          	addi	t1,t3,0
   11334:	00100693          	addi	a3,zero,1
   11338:	00028e13          	addi	t3,t0,0
   1133c:	f9dff06f          	jal	zero,112d8 <median+0x1c0>
   11340:	07c35863          	bge	t1,t3,113b0 <median+0x298>
   11344:	13c75463          	bge	a4,t3,1146c <median+0x354>
   11348:	00070293          	addi	t0,a4,0
   1134c:	00060593          	addi	a1,a2,0
   11350:	000e0713          	addi	a4,t3,0
   11354:	00078613          	addi	a2,a5,0
   11358:	00030e13          	addi	t3,t1,0
   1135c:	00400693          	addi	a3,zero,4
   11360:	00028313          	addi	t1,t0,0
   11364:	f75ff06f          	jal	zero,112d8 <median+0x1c0>
   11368:	09c35263          	bge	t1,t3,113ec <median+0x2d4>
   1136c:	17c75863          	bge	a4,t3,114dc <median+0x3c4>
   11370:	00070293          	addi	t0,a4,0
   11374:	00078593          	addi	a1,a5,0
   11378:	000e0713          	addi	a4,t3,0
   1137c:	00300693          	addi	a3,zero,3
   11380:	00030e13          	addi	t3,t1,0
   11384:	00028313          	addi	t1,t0,0
   11388:	f51ff06f          	jal	zero,112d8 <median+0x1c0>
   1138c:	0bc35a63          	bge	t1,t3,11440 <median+0x328>
   11390:	19c75463          	bge	a4,t3,11518 <median+0x400>
   11394:	00070293          	addi	t0,a4,0
   11398:	00078e93          	addi	t4,a5,0
   1139c:	000e0713          	addi	a4,t3,0
   113a0:	00200693          	addi	a3,zero,2
   113a4:	00030e13          	addi	t3,t1,0
   113a8:	00028313          	addi	t1,t0,0
   113ac:	f2dff06f          	jal	zero,112d8 <median+0x1c0>
   113b0:	0a675663          	bge	a4,t1,1145c <median+0x344>
   113b4:	00070693          	addi	a3,a4,0
   113b8:	00060593          	addi	a1,a2,0
   113bc:	00030713          	addi	a4,t1,0
   113c0:	00078613          	addi	a2,a5,0
   113c4:	00068313          	addi	t1,a3,0
   113c8:	00400693          	addi	a3,zero,4
   113cc:	f0dff06f          	jal	zero,112d8 <median+0x1c0>
   113d0:	0a675c63          	bge	a4,t1,11488 <median+0x370>
   113d4:	00070293          	addi	t0,a4,0
   113d8:	00078593          	addi	a1,a5,0
   113dc:	00030713          	addi	a4,t1,0
   113e0:	00400693          	addi	a3,zero,4
   113e4:	00028313          	addi	t1,t0,0
   113e8:	ef1ff06f          	jal	zero,112d8 <median+0x1c0>
   113ec:	0e675263          	bge	a4,t1,114d0 <median+0x3b8>
   113f0:	00070293          	addi	t0,a4,0
   113f4:	00078593          	addi	a1,a5,0
   113f8:	00030713          	addi	a4,t1,0
   113fc:	00300693          	addi	a3,zero,3
   11400:	00028313          	addi	t1,t0,0
   11404:	ed5ff06f          	jal	zero,112d8 <median+0x1c0>
   11408:	0a675263          	bge	a4,t1,114ac <median+0x394>
   1140c:	00070293          	addi	t0,a4,0
   11410:	00078e93          	addi	t4,a5,0
   11414:	00030713          	addi	a4,t1,0
   11418:	00300693          	addi	a3,zero,3
   1141c:	00028313          	addi	t1,t0,0
   11420:	eb9ff06f          	jal	zero,112d8 <median+0x1c0>
   11424:	10675663          	bge	a4,t1,11530 <median+0x418>
   11428:	00070293          	addi	t0,a4,0
   1142c:	00078f13          	addi	t5,a5,0
   11430:	00030713          	addi	a4,t1,0
   11434:	00200693          	addi	a3,zero,2
   11438:	00028313          	addi	t1,t0,0
   1143c:	e9dff06f          	jal	zero,112d8 <median+0x1c0>
   11440:	0c675663          	bge	a4,t1,1150c <median+0x3f4>
   11444:	00070293          	addi	t0,a4,0
   11448:	00078e93          	addi	t4,a5,0
   1144c:	00030713          	addi	a4,t1,0
   11450:	00200693          	addi	a3,zero,2
   11454:	00028313          	addi	t1,t0,0
   11458:	e81ff06f          	jal	zero,112d8 <median+0x1c0>
   1145c:	00060593          	addi	a1,a2,0
   11460:	00400693          	addi	a3,zero,4
   11464:	00078613          	addi	a2,a5,0
   11468:	e71ff06f          	jal	zero,112d8 <median+0x1c0>
   1146c:	00030693          	addi	a3,t1,0
   11470:	00060593          	addi	a1,a2,0
   11474:	000e0313          	addi	t1,t3,0
   11478:	00078613          	addi	a2,a5,0
   1147c:	00068e13          	addi	t3,a3,0
   11480:	00400693          	addi	a3,zero,4
   11484:	e55ff06f          	jal	zero,112d8 <median+0x1c0>
   11488:	00078593          	addi	a1,a5,0
   1148c:	00400693          	addi	a3,zero,4
   11490:	e49ff06f          	jal	zero,112d8 <median+0x1c0>
   11494:	00030293          	addi	t0,t1,0
   11498:	00078593          	addi	a1,a5,0
   1149c:	000e0313          	addi	t1,t3,0
   114a0:	00400693          	addi	a3,zero,4
   114a4:	00028e13          	addi	t3,t0,0
   114a8:	e31ff06f          	jal	zero,112d8 <median+0x1c0>
   114ac:	00078e93          	addi	t4,a5,0
   114b0:	00300693          	addi	a3,zero,3
   114b4:	e25ff06f          	jal	zero,112d8 <median+0x1c0>
   114b8:	00030293          	addi	t0,t1,0
   114bc:	00078e93          	addi	t4,a5,0
   114c0:	000e0313          	addi	t1,t3,0
   114c4:	00300693          	addi	a3,zero,3
   114c8:	00028e13          	addi	t3,t0,0
   114cc:	e0dff06f          	jal	zero,112d8 <median+0x1c0>
   114d0:	00078593          	addi	a1,a5,0
   114d4:	00300693          	addi	a3,zero,3
   114d8:	e01ff06f          	jal	zero,112d8 <median+0x1c0>
   114dc:	00030293          	addi	t0,t1,0
   114e0:	00078593          	addi	a1,a5,0
   114e4:	000e0313          	addi	t1,t3,0
   114e8:	00300693          	addi	a3,zero,3
   114ec:	00028e13          	addi	t3,t0,0
   114f0:	de9ff06f          	jal	zero,112d8 <median+0x1c0>
   114f4:	00030293          	addi	t0,t1,0
   114f8:	00078f13          	addi	t5,a5,0
   114fc:	000e0313          	addi	t1,t3,0
   11500:	00200693          	addi	a3,zero,2
   11504:	00028e13          	addi	t3,t0,0
   11508:	dd1ff06f          	jal	zero,112d8 <median+0x1c0>
   1150c:	00078e93          	addi	t4,a5,0
   11510:	00200693          	addi	a3,zero,2
   11514:	dc5ff06f          	jal	zero,112d8 <median+0x1c0>
   11518:	00030293          	addi	t0,t1,0
   1151c:	00078e93          	addi	t4,a5,0
   11520:	000e0313          	addi	t1,t3,0
   11524:	00200693          	addi	a3,zero,2
   11528:	00028e13          	addi	t3,t0,0
   1152c:	dadff06f          	jal	zero,112d8 <median+0x1c0>
   11530:	00078f13          	addi	t5,a5,0
   11534:	00200693          	addi	a3,zero,2
   11538:	da1ff06f          	jal	zero,112d8 <median+0x1c0>

0001153c <enlarge>:
   1153c:	0006a783          	lw	a5,0(a3)
   11540:	fd010113          	addi	sp,sp,-48
   11544:	02812423          	sw	s0,40(sp)
   11548:	02912223          	sw	s1,36(sp)
   1154c:	03212023          	sw	s2,32(sp)
   11550:	01312e23          	sw	s3,28(sp)
   11554:	01412c23          	sw	s4,24(sp)
   11558:	01512a23          	sw	s5,20(sp)
   1155c:	01612823          	sw	s6,16(sp)
   11560:	02112623          	sw	ra,44(sp)
   11564:	01712623          	sw	s7,12(sp)
   11568:	00068a13          	addi	s4,a3,0
   1156c:	00070913          	addi	s2,a4,0
   11570:	00050a93          	addi	s5,a0,0
   11574:	00058413          	addi	s0,a1,0
   11578:	00060993          	addi	s3,a2,0
   1157c:	00171493          	slli	s1,a4,0x1
   11580:	00000b13          	addi	s6,zero,0
   11584:	02f05c63          	bge	zero,a5,115bc <enlarge+0x80>
   11588:	0009a603          	lw	a2,0(s3)
   1158c:	012b0533          	add	a0,s6,s2
   11590:	000aa783          	lw	a5,0(s5)
   11594:	00960733          	add	a4,a2,s1
   11598:	02e50533          	mul	a0,a0,a4
   1159c:	036605b3          	mul	a1,a2,s6
   115a0:	01250533          	add	a0,a0,s2
   115a4:	00a40533          	add	a0,s0,a0
   115a8:	001b0b13          	addi	s6,s6,1
   115ac:	00b785b3          	add	a1,a5,a1
   115b0:	1ac0d0ef          	jal	ra,1e75c <memcpy>
   115b4:	000a2783          	lw	a5,0(s4)
   115b8:	fcfb48e3          	blt	s6,a5,11588 <enlarge+0x4c>
   115bc:	00100b93          	addi	s7,zero,1
   115c0:	01790b33          	add	s6,s2,s7
   115c4:	0f205c63          	bge	zero,s2,116bc <enlarge+0x180>
   115c8:	01812423          	sw	s8,8(sp)
   115cc:	0009a603          	lw	a2,0(s3)
   115d0:	41790533          	sub	a0,s2,s7
   115d4:	fffb8c13          	addi	s8,s7,-1
   115d8:	009607b3          	add	a5,a2,s1
   115dc:	02f50533          	mul	a0,a0,a5
   115e0:	000aa783          	lw	a5,0(s5)
   115e4:	001b8b93          	addi	s7,s7,1
   115e8:	038605b3          	mul	a1,a2,s8
   115ec:	01250533          	add	a0,a0,s2
   115f0:	00a40533          	add	a0,s0,a0
   115f4:	00b785b3          	add	a1,a5,a1
   115f8:	1640d0ef          	jal	ra,1e75c <memcpy>
   115fc:	000a2783          	lw	a5,0(s4)
   11600:	0009a603          	lw	a2,0(s3)
   11604:	000aa583          	lw	a1,0(s5)
   11608:	01278533          	add	a0,a5,s2
   1160c:	00960733          	add	a4,a2,s1
   11610:	01850533          	add	a0,a0,s8
   11614:	418787b3          	sub	a5,a5,s8
   11618:	02e50533          	mul	a0,a0,a4
   1161c:	fff78793          	addi	a5,a5,-1
   11620:	02c787b3          	mul	a5,a5,a2
   11624:	01250533          	add	a0,a0,s2
   11628:	00a40533          	add	a0,s0,a0
   1162c:	00f585b3          	add	a1,a1,a5
   11630:	12c0d0ef          	jal	ra,1e75c <memcpy>
   11634:	f96b9ce3          	bne	s7,s6,115cc <enlarge+0x90>
   11638:	000a2783          	lw	a5,0(s4)
   1163c:	00000513          	addi	a0,zero,0
   11640:	009787b3          	add	a5,a5,s1
   11644:	06f05a63          	bge	zero,a5,116b8 <enlarge+0x17c>
   11648:	00000593          	addi	a1,zero,0
   1164c:	0009a783          	lw	a5,0(s3)
   11650:	00f487b3          	add	a5,s1,a5
   11654:	02b787b3          	mul	a5,a5,a1
   11658:	012787b3          	add	a5,a5,s2
   1165c:	00f40733          	add	a4,s0,a5
   11660:	00a70733          	add	a4,a4,a0
   11664:	00074703          	lbu	a4,0(a4)
   11668:	40a787b3          	sub	a5,a5,a0
   1166c:	00f407b3          	add	a5,s0,a5
   11670:	fee78fa3          	sb	a4,-1(a5)
   11674:	0009a703          	lw	a4,0(s3)
   11678:	009707b3          	add	a5,a4,s1
   1167c:	02b787b3          	mul	a5,a5,a1
   11680:	00158593          	addi	a1,a1,1
   11684:	00e787b3          	add	a5,a5,a4
   11688:	012787b3          	add	a5,a5,s2
   1168c:	40a78633          	sub	a2,a5,a0
   11690:	00c40633          	add	a2,s0,a2
   11694:	fff64703          	lbu	a4,-1(a2)
   11698:	00f407b3          	add	a5,s0,a5
   1169c:	00a787b3          	add	a5,a5,a0
   116a0:	00e78023          	sb	a4,0(a5)
   116a4:	000a2783          	lw	a5,0(s4)
   116a8:	009787b3          	add	a5,a5,s1
   116ac:	faf5c0e3          	blt	a1,a5,1164c <enlarge+0x110>
   116b0:	00150513          	addi	a0,a0,1
   116b4:	f8a918e3          	bne	s2,a0,11644 <enlarge+0x108>
   116b8:	00812c03          	lw	s8,8(sp)
   116bc:	0009a783          	lw	a5,0(s3)
   116c0:	02c12083          	lw	ra,44(sp)
   116c4:	02012903          	lw	s2,32(sp)
   116c8:	009787b3          	add	a5,a5,s1
   116cc:	00f9a023          	sw	a5,0(s3)
   116d0:	000a2783          	lw	a5,0(s4)
   116d4:	01c12983          	lw	s3,28(sp)
   116d8:	01012b03          	lw	s6,16(sp)
   116dc:	009787b3          	add	a5,a5,s1
   116e0:	00fa2023          	sw	a5,0(s4)
   116e4:	008aa023          	sw	s0,0(s5)
   116e8:	02812403          	lw	s0,40(sp)
   116ec:	02412483          	lw	s1,36(sp)
   116f0:	01812a03          	lw	s4,24(sp)
   116f4:	01412a83          	lw	s5,20(sp)
   116f8:	00c12b83          	lw	s7,12(sp)
   116fc:	03010113          	addi	sp,sp,48
   11700:	00008067          	jalr	zero,0(ra)

00011704 <susan_smoothing>:
   11704:	f9010113          	addi	sp,sp,-112
   11708:	05312e23          	sw	s3,92(sp)
   1170c:	02b12623          	sw	a1,44(sp)
   11710:	00050993          	addi	s3,a0,0
   11714:	00068593          	addi	a1,a3,0
   11718:	00060513          	addi	a0,a2,0
   1171c:	06812423          	sw	s0,104(sp)
   11720:	07212023          	sw	s2,96(sp)
   11724:	03b12e23          	sw	s11,60(sp)
   11728:	06112623          	sw	ra,108(sp)
   1172c:	02e12423          	sw	a4,40(sp)
   11730:	02f12223          	sw	a5,36(sp)
   11734:	00080413          	addi	s0,a6,0
   11738:	6ed070ef          	jal	ra,19624 <__truncdfsf2>
   1173c:	00050913          	addi	s2,a0,0
   11740:	00100d93          	addi	s11,zero,1
   11744:	00099e63          	bne	s3,zero,11760 <susan_smoothing+0x5c>
   11748:	605070ef          	jal	ra,1954c <__extendsfdf2>
   1174c:	ea81a603          	lw	a2,-344(gp) # 2e6b8 <__SDATA_BEGIN__+0x8>
   11750:	eac1a683          	lw	a3,-340(gp) # 2e6bc <__SDATA_BEGIN__+0xc>
   11754:	244060ef          	jal	ra,17998 <__muldf3>
   11758:	7d1060ef          	jal	ra,18728 <__fixdfsi>
   1175c:	01b50db3          	add	s11,a0,s11
   11760:	fe81a583          	lw	a1,-24(gp) # 2e7f8 <__SDATA_BEGIN__+0x148>
   11764:	00090513          	addi	a0,s2,0
   11768:	025070ef          	jal	ra,18f8c <__gesf2>
   1176c:	06912223          	sw	s1,100(sp)
   11770:	04a04663          	blt	zero,a0,117bc <susan_smoothing+0xb8>
   11774:	02812603          	lw	a2,40(sp)
   11778:	001d9493          	slli	s1,s11,0x1
   1177c:	02412683          	lw	a3,36(sp)
   11780:	00c4d463          	bge	s1,a2,11788 <susan_smoothing+0x84>
   11784:	08d4c863          	blt	s1,a3,11814 <susan_smoothing+0x110>
   11788:	0002d537          	lui	a0,0x2d
   1178c:	000d8593          	addi	a1,s11,0
   11790:	b6850513          	addi	a0,a0,-1176 # 2cb68 <__ashldi3+0x504>
   11794:	05412c23          	sw	s4,88(sp)
   11798:	05512a23          	sw	s5,84(sp)
   1179c:	05612823          	sw	s6,80(sp)
   117a0:	05712623          	sw	s7,76(sp)
   117a4:	05812423          	sw	s8,72(sp)
   117a8:	05912223          	sw	s9,68(sp)
   117ac:	05a12023          	sw	s10,64(sp)
   117b0:	5fd0b0ef          	jal	ra,1d5ac <printf>
   117b4:	00000513          	addi	a0,zero,0
   117b8:	8fdfe0ef          	jal	ra,100b4 <exit>
   117bc:	00090513          	addi	a0,s2,0
   117c0:	05412c23          	sw	s4,88(sp)
   117c4:	05512a23          	sw	s5,84(sp)
   117c8:	05612823          	sw	s6,80(sp)
   117cc:	05712623          	sw	s7,76(sp)
   117d0:	05812423          	sw	s8,72(sp)
   117d4:	05912223          	sw	s9,68(sp)
   117d8:	05a12023          	sw	s10,64(sp)
   117dc:	571070ef          	jal	ra,1954c <__extendsfdf2>
   117e0:	00050613          	addi	a2,a0,0
   117e4:	0002d537          	lui	a0,0x2d
   117e8:	00058693          	addi	a3,a1,0
   117ec:	acc50513          	addi	a0,a0,-1332 # 2cacc <__ashldi3+0x468>
   117f0:	5bd0b0ef          	jal	ra,1d5ac <printf>
   117f4:	0002d537          	lui	a0,0x2d
   117f8:	b0450513          	addi	a0,a0,-1276 # 2cb04 <__ashldi3+0x4a0>
   117fc:	6d10b0ef          	jal	ra,1d6cc <puts>
   11800:	0002d537          	lui	a0,0x2d
   11804:	b4050513          	addi	a0,a0,-1216 # 2cb40 <__ashldi3+0x4dc>
   11808:	6c50b0ef          	jal	ra,1d6cc <puts>
   1180c:	00000513          	addi	a0,zero,0
   11810:	8a5fe0ef          	jal	ra,100b4 <exit>
   11814:	00c48633          	add	a2,s1,a2
   11818:	00d486b3          	add	a3,s1,a3
   1181c:	02d60533          	mul	a0,a2,a3
   11820:	05912223          	sw	s9,68(sp)
   11824:	02c12c83          	lw	s9,44(sp)
   11828:	7ad070ef          	jal	ra,197d4 <malloc>
   1182c:	00050593          	addi	a1,a0,0
   11830:	000d8713          	addi	a4,s11,0
   11834:	02410693          	addi	a3,sp,36
   11838:	02810613          	addi	a2,sp,40
   1183c:	02c10513          	addi	a0,sp,44
   11840:	cfdff0ef          	jal	ra,1153c <enlarge>
   11844:	02412783          	lw	a5,36(sp)
   11848:	00f12423          	sw	a5,8(sp)
   1184c:	24098663          	beq	s3,zero,11a98 <susan_smoothing+0x394>
   11850:	00078713          	addi	a4,a5,0
   11854:	00200793          	addi	a5,zero,2
   11858:	20e7de63          	bge	a5,a4,11a74 <susan_smoothing+0x370>
   1185c:	02812703          	lw	a4,40(sp)
   11860:	00e12223          	sw	a4,4(sp)
   11864:	20e7d863          	bge	a5,a4,11a74 <susan_smoothing+0x370>
   11868:	02c12783          	lw	a5,44(sp)
   1186c:	05812423          	sw	s8,72(sp)
   11870:	05512a23          	sw	s5,84(sp)
   11874:	00f12623          	sw	a5,12(sp)
   11878:	00812783          	lw	a5,8(sp)
   1187c:	05a12023          	sw	s10,64(sp)
   11880:	05412c23          	sw	s4,88(sp)
   11884:	fff78c13          	addi	s8,a5,-1
   11888:	00070793          	addi	a5,a4,0
   1188c:	00c12703          	lw	a4,12(sp)
   11890:	05612823          	sw	s6,80(sp)
   11894:	05712623          	sw	s7,76(sp)
   11898:	00e78ab3          	add	s5,a5,a4
   1189c:	00100793          	addi	a5,zero,1
   118a0:	00f12423          	sw	a5,8(sp)
   118a4:	00412783          	lw	a5,4(sp)
   118a8:	00012a23          	sw	zero,20(sp)
   118ac:	01812c23          	sw	s8,24(sp)
   118b0:	ffe78d13          	addi	s10,a5,-2
   118b4:	fff78793          	addi	a5,a5,-1
   118b8:	00f12023          	sw	a5,0(sp)
   118bc:	01512823          	sw	s5,16(sp)
   118c0:	01a12e23          	sw	s10,28(sp)
   118c4:	01012783          	lw	a5,16(sp)
   118c8:	00412703          	lw	a4,4(sp)
   118cc:	01412683          	lw	a3,20(sp)
   118d0:	00078b13          	addi	s6,a5,0
   118d4:	00e78733          	add	a4,a5,a4
   118d8:	00e12823          	sw	a4,16(sp)
   118dc:	00070a13          	addi	s4,a4,0
   118e0:	00c12703          	lw	a4,12(sp)
   118e4:	00078993          	addi	s3,a5,0
   118e8:	00100493          	addi	s1,zero,1
   118ec:	00d70933          	add	s2,a4,a3
   118f0:	00412703          	lw	a4,4(sp)
   118f4:	00e687b3          	add	a5,a3,a4
   118f8:	00f12a23          	sw	a5,20(sp)
   118fc:	0380006f          	jal	zero,11934 <susan_smoothing+0x230>
   11900:	00412683          	lw	a3,4(sp)
   11904:	00812583          	lw	a1,8(sp)
   11908:	00c12503          	lw	a0,12(sp)
   1190c:	00048613          	addi	a2,s1,0
   11910:	809ff0ef          	jal	ra,11118 <median>
   11914:	009c87b3          	add	a5,s9,s1
   11918:	fea78fa3          	sb	a0,-1(a5)
   1191c:	00012783          	lw	a5,0(sp)
   11920:	00148493          	addi	s1,s1,1
   11924:	10978c63          	beq	a5,s1,11a3c <susan_smoothing+0x338>
   11928:	00190913          	addi	s2,s2,1
   1192c:	00198993          	addi	s3,s3,1
   11930:	001a0a13          	addi	s4,s4,1
   11934:	009b07b3          	add	a5,s6,s1
   11938:	0007ce83          	lbu	t4,0(a5)
   1193c:	00094e03          	lbu	t3,0(s2)
   11940:	00194f03          	lbu	t5,1(s2)
   11944:	00294303          	lbu	t1,2(s2)
   11948:	01d40733          	add	a4,s0,t4
   1194c:	0009cb83          	lbu	s7,0(s3)
   11950:	41c706b3          	sub	a3,a4,t3
   11954:	41e707b3          	sub	a5,a4,t5
   11958:	0019c803          	lbu	a6,1(s3)
   1195c:	0006cd83          	lbu	s11,0(a3)
   11960:	0007cd03          	lbu	s10,0(a5)
   11964:	0029c503          	lbu	a0,2(s3)
   11968:	406707b3          	sub	a5,a4,t1
   1196c:	0007cc03          	lbu	s8,0(a5)
   11970:	000a4583          	lbu	a1,0(s4)
   11974:	417707b3          	sub	a5,a4,s7
   11978:	410706b3          	sub	a3,a4,a6
   1197c:	0007c883          	lbu	a7,0(a5)
   11980:	001a4603          	lbu	a2,1(s4)
   11984:	40a70fb3          	sub	t6,a4,a0
   11988:	0006ca83          	lbu	s5,0(a3)
   1198c:	01ad87b3          	add	a5,s11,s10
   11990:	002a4683          	lbu	a3,2(s4)
   11994:	000fc383          	lbu	t2,0(t6)
   11998:	018787b3          	add	a5,a5,s8
   1199c:	40b70fb3          	sub	t6,a4,a1
   119a0:	000fc283          	lbu	t0,0(t6)
   119a4:	011787b3          	add	a5,a5,a7
   119a8:	40c70fb3          	sub	t6,a4,a2
   119ac:	000fcf83          	lbu	t6,0(t6)
   119b0:	015787b3          	add	a5,a5,s5
   119b4:	40d70733          	sub	a4,a4,a3
   119b8:	00074703          	lbu	a4,0(a4)
   119bc:	007787b3          	add	a5,a5,t2
   119c0:	005787b3          	add	a5,a5,t0
   119c4:	01f787b3          	add	a5,a5,t6
   119c8:	00e787b3          	add	a5,a5,a4
   119cc:	f9c78793          	addi	a5,a5,-100
   119d0:	f20788e3          	beq	a5,zero,11900 <susan_smoothing+0x1fc>
   119d4:	03be0e33          	mul	t3,t3,s11
   119d8:	009c8db3          	add	s11,s9,s1
   119dc:	00148493          	addi	s1,s1,1
   119e0:	03af0f33          	mul	t5,t5,s10
   119e4:	03830333          	mul	t1,t1,s8
   119e8:	01ee0e33          	add	t3,t3,t5
   119ec:	031b88b3          	mul	a7,s7,a7
   119f0:	01c30333          	add	t1,t1,t3
   119f4:	03580833          	mul	a6,a6,s5
   119f8:	006888b3          	add	a7,a7,t1
   119fc:	02750533          	mul	a0,a0,t2
   11a00:	01180833          	add	a6,a6,a7
   11a04:	025585b3          	mul	a1,a1,t0
   11a08:	01050533          	add	a0,a0,a6
   11a0c:	03f60633          	mul	a2,a2,t6
   11a10:	00a585b3          	add	a1,a1,a0
   11a14:	02e68733          	mul	a4,a3,a4
   11a18:	00b606b3          	add	a3,a2,a1
   11a1c:	f9c00613          	addi	a2,zero,-100
   11a20:	02ce8eb3          	mul	t4,t4,a2
   11a24:	00d70733          	add	a4,a4,a3
   11a28:	01d70733          	add	a4,a4,t4
   11a2c:	02f747b3          	div	a5,a4,a5
   11a30:	fefd8fa3          	sb	a5,-1(s11)
   11a34:	00012783          	lw	a5,0(sp)
   11a38:	eef498e3          	bne	s1,a5,11928 <susan_smoothing+0x224>
   11a3c:	00812783          	lw	a5,8(sp)
   11a40:	01812703          	lw	a4,24(sp)
   11a44:	00178793          	addi	a5,a5,1
   11a48:	00f12423          	sw	a5,8(sp)
   11a4c:	01c12783          	lw	a5,28(sp)
   11a50:	00fc8cb3          	add	s9,s9,a5
   11a54:	00812783          	lw	a5,8(sp)
   11a58:	e6e796e3          	bne	a5,a4,118c4 <susan_smoothing+0x1c0>
   11a5c:	05812a03          	lw	s4,88(sp)
   11a60:	05412a83          	lw	s5,84(sp)
   11a64:	05012b03          	lw	s6,80(sp)
   11a68:	04c12b83          	lw	s7,76(sp)
   11a6c:	04812c03          	lw	s8,72(sp)
   11a70:	04012d03          	lw	s10,64(sp)
   11a74:	06c12083          	lw	ra,108(sp)
   11a78:	06812403          	lw	s0,104(sp)
   11a7c:	06412483          	lw	s1,100(sp)
   11a80:	04412c83          	lw	s9,68(sp)
   11a84:	06012903          	lw	s2,96(sp)
   11a88:	05c12983          	lw	s3,92(sp)
   11a8c:	03c12d83          	lw	s11,60(sp)
   11a90:	07010113          	addi	sp,sp,112
   11a94:	00008067          	jalr	zero,0(ra)
   11a98:	00148493          	addi	s1,s1,1
   11a9c:	02948533          	mul	a0,s1,s1
   11aa0:	02812783          	lw	a5,40(sp)
   11aa4:	05a12023          	sw	s10,64(sp)
   11aa8:	05412c23          	sw	s4,88(sp)
   11aac:	05512a23          	sw	s5,84(sp)
   11ab0:	05612823          	sw	s6,80(sp)
   11ab4:	05712623          	sw	s7,76(sp)
   11ab8:	05812423          	sw	s8,72(sp)
   11abc:	00f12023          	sw	a5,0(sp)
   11ac0:	41b00d33          	sub	s10,zero,s11
   11ac4:	511070ef          	jal	ra,197d4 <malloc>
   11ac8:	00050993          	addi	s3,a0,0
   11acc:	0badc863          	blt	s11,s10,11b7c <susan_smoothing+0x478>
   11ad0:	00090593          	addi	a1,s2,0
   11ad4:	00090513          	addi	a0,s2,0
   11ad8:	5e4070ef          	jal	ra,190bc <__mulsf3>
   11adc:	001d8c13          	addi	s8,s11,1
   11ae0:	ea01aa03          	lw	s4,-352(gp) # 2e6b0 <__SDATA_BEGIN__>
   11ae4:	ea41aa83          	lw	s5,-348(gp) # 2e6b4 <__SDATA_BEGIN__+0x4>
   11ae8:	01bc0733          	add	a4,s8,s11
   11aec:	00912623          	sw	s1,12(sp)
   11af0:	00050b93          	addi	s7,a0,0
   11af4:	00e12223          	sw	a4,4(sp)
   11af8:	00098913          	addi	s2,s3,0
   11afc:	80000b37          	lui	s6,0x80000
   11b00:	000d0493          	addi	s1,s10,0
   11b04:	01912823          	sw	s9,16(sp)
   11b08:	00812a23          	sw	s0,20(sp)
   11b0c:	01312c23          	sw	s3,24(sp)
   11b10:	02948433          	mul	s0,s1,s1
   11b14:	000d0993          	addi	s3,s10,0
   11b18:	03398533          	mul	a0,s3,s3
   11b1c:	00850533          	add	a0,a0,s0
   11b20:	121070ef          	jal	ra,19440 <__floatsisf>
   11b24:	000b8593          	addi	a1,s7,0
   11b28:	00ab4533          	xor	a0,s6,a0
   11b2c:	144070ef          	jal	ra,18c70 <__divsf3>
   11b30:	21d070ef          	jal	ra,1954c <__extendsfdf2>
   11b34:	114040ef          	jal	ra,15c48 <exp>
   11b38:	01b98733          	add	a4,s3,s11
   11b3c:	000a0613          	addi	a2,s4,0
   11b40:	000a8693          	addi	a3,s5,0
   11b44:	00e90cb3          	add	s9,s2,a4
   11b48:	651050ef          	jal	ra,17998 <__muldf3>
   11b4c:	3dd060ef          	jal	ra,18728 <__fixdfsi>
   11b50:	00198993          	addi	s3,s3,1
   11b54:	00ac8023          	sb	a0,0(s9)
   11b58:	fd8990e3          	bne	s3,s8,11b18 <susan_smoothing+0x414>
   11b5c:	00412783          	lw	a5,4(sp)
   11b60:	00148493          	addi	s1,s1,1
   11b64:	00f90933          	add	s2,s2,a5
   11b68:	fb8494e3          	bne	s1,s8,11b10 <susan_smoothing+0x40c>
   11b6c:	00c12483          	lw	s1,12(sp)
   11b70:	01012c83          	lw	s9,16(sp)
   11b74:	01412403          	lw	s0,20(sp)
   11b78:	01812983          	lw	s3,24(sp)
   11b7c:	00812783          	lw	a5,8(sp)
   11b80:	41b78833          	sub	a6,a5,s11
   11b84:	ed0ddce3          	bge	s11,a6,11a5c <susan_smoothing+0x358>
   11b88:	00012783          	lw	a5,0(sp)
   11b8c:	41b78bb3          	sub	s7,a5,s11
   11b90:	ed7dd6e3          	bge	s11,s7,11a5c <susan_smoothing+0x358>
   11b94:	02c12e83          	lw	t4,44(sp)
   11b98:	001d8a13          	addi	s4,s11,1
   11b9c:	ffffeb37          	lui	s6,0xffffe
   11ba0:	03b78e33          	mul	t3,a5,s11
   11ba4:	409784b3          	sub	s1,a5,s1
   11ba8:	00080f13          	addi	t5,a6,0
   11bac:	8f0b0b13          	addi	s6,s6,-1808 # ffffd8f0 <__BSS_END__+0xfffced84>
   11bb0:	000c8813          	addi	a6,s9,0
   11bb4:	014d8933          	add	s2,s11,s4
   11bb8:	000d8593          	addi	a1,s11,0
   11bbc:	000d0793          	addi	a5,s10,0
   11bc0:	41bb8733          	sub	a4,s7,s11
   11bc4:	00098c93          	addi	s9,s3,0
   11bc8:	00fe89b3          	add	s3,t4,a5
   11bcc:	00f12c23          	sw	a5,24(sp)
   11bd0:	00040793          	addi	a5,s0,0
   11bd4:	01c12e23          	sw	t3,28(sp)
   11bd8:	01ce8433          	add	s0,t4,t3
   11bdc:	00048a93          	addi	s5,s1,0
   11be0:	000c8e13          	addi	t3,s9,0
   11be4:	00098493          	addi	s1,s3,0
   11be8:	000b8c93          	addi	s9,s7,0
   11bec:	01d12423          	sw	t4,8(sp)
   11bf0:	000a0b93          	addi	s7,s4,0
   11bf4:	00b12623          	sw	a1,12(sp)
   11bf8:	00090a13          	addi	s4,s2,0
   11bfc:	01e12823          	sw	t5,16(sp)
   11c00:	01012a23          	sw	a6,20(sp)
   11c04:	02e12023          	sw	a4,32(sp)
   11c08:	00180c13          	addi	s8,a6,1
   11c0c:	000d8913          	addi	s2,s11,0
   11c10:	00078993          	addi	s3,a5,0
   11c14:	012407b3          	add	a5,s0,s2
   11c18:	0007ce83          	lbu	t4,0(a5)
   11c1c:	0fadc263          	blt	s11,s10,11d00 <susan_smoothing+0x5fc>
   11c20:	012486b3          	add	a3,s1,s2
   11c24:	00000813          	addi	a6,zero,0
   11c28:	000e0f93          	addi	t6,t3,0
   11c2c:	00000513          	addi	a0,zero,0
   11c30:	000d0f13          	addi	t5,s10,0
   11c34:	01468633          	add	a2,a3,s4
   11c38:	000f8593          	addi	a1,t6,0
   11c3c:	0006c783          	lbu	a5,0(a3)
   11c40:	0005c883          	lbu	a7,0(a1)
   11c44:	00168693          	addi	a3,a3,1
   11c48:	40fe8733          	sub	a4,t4,a5
   11c4c:	00e98733          	add	a4,s3,a4
   11c50:	00074703          	lbu	a4,0(a4)
   11c54:	00158593          	addi	a1,a1,1
   11c58:	03170733          	mul	a4,a4,a7
   11c5c:	02e787b3          	mul	a5,a5,a4
   11c60:	00e50533          	add	a0,a0,a4
   11c64:	00f80833          	add	a6,a6,a5
   11c68:	fcc69ae3          	bne	a3,a2,11c3c <susan_smoothing+0x538>
   11c6c:	001f0f13          	addi	t5,t5,1
   11c70:	014f8fb3          	add	t6,t6,s4
   11c74:	015686b3          	add	a3,a3,s5
   11c78:	fb7f1ee3          	bne	t5,s7,11c34 <susan_smoothing+0x530>
   11c7c:	01650533          	add	a0,a0,s6
   11c80:	08051663          	bne	a0,zero,11d0c <susan_smoothing+0x608>
   11c84:	00012683          	lw	a3,0(sp)
   11c88:	00c12583          	lw	a1,12(sp)
   11c8c:	00812503          	lw	a0,8(sp)
   11c90:	00090613          	addi	a2,s2,0
   11c94:	01c12223          	sw	t3,4(sp)
   11c98:	c80ff0ef          	jal	ra,11118 <median>
   11c9c:	00412e03          	lw	t3,4(sp)
   11ca0:	feac0fa3          	sb	a0,-1(s8)
   11ca4:	00190913          	addi	s2,s2,1
   11ca8:	001c0c13          	addi	s8,s8,1
   11cac:	f79914e3          	bne	s2,s9,11c14 <susan_smoothing+0x510>
   11cb0:	00c12583          	lw	a1,12(sp)
   11cb4:	00012683          	lw	a3,0(sp)
   11cb8:	01412803          	lw	a6,20(sp)
   11cbc:	01812783          	lw	a5,24(sp)
   11cc0:	02012703          	lw	a4,32(sp)
   11cc4:	000a0913          	addi	s2,s4,0
   11cc8:	01012f03          	lw	t5,16(sp)
   11ccc:	000b8a13          	addi	s4,s7,0
   11cd0:	000c8b93          	addi	s7,s9,0
   11cd4:	000e0c93          	addi	s9,t3,0
   11cd8:	01c12e03          	lw	t3,28(sp)
   11cdc:	00158593          	addi	a1,a1,1
   11ce0:	00812e83          	lw	t4,8(sp)
   11ce4:	000a8493          	addi	s1,s5,0
   11ce8:	00098413          	addi	s0,s3,0
   11cec:	00e80833          	add	a6,a6,a4
   11cf0:	00de0e33          	add	t3,t3,a3
   11cf4:	00d787b3          	add	a5,a5,a3
   11cf8:	ede598e3          	bne	a1,t5,11bc8 <susan_smoothing+0x4c4>
   11cfc:	d61ff06f          	jal	zero,11a5c <susan_smoothing+0x358>
   11d00:	ffffe537          	lui	a0,0xffffe
   11d04:	8f050513          	addi	a0,a0,-1808 # ffffd8f0 <__BSS_END__+0xfffced84>
   11d08:	00000813          	addi	a6,zero,0
   11d0c:	036e87b3          	mul	a5,t4,s6
   11d10:	010787b3          	add	a5,a5,a6
   11d14:	02a7c533          	div	a0,a5,a0
   11d18:	f89ff06f          	jal	zero,11ca0 <susan_smoothing+0x59c>

00011d1c <edge_draw>:
   11d1c:	02d606b3          	mul	a3,a2,a3
   11d20:	00d588b3          	add	a7,a1,a3
   11d24:	02070a63          	beq	a4,zero,11d58 <edge_draw+0x3c>
   11d28:	02d05463          	bge	zero,a3,11d50 <edge_draw+0x34>
   11d2c:	00058713          	addi	a4,a1,0
   11d30:	00700613          	addi	a2,zero,7
   11d34:	00074683          	lbu	a3,0(a4)
   11d38:	40b707b3          	sub	a5,a4,a1
   11d3c:	00f507b3          	add	a5,a0,a5
   11d40:	00170713          	addi	a4,a4,1
   11d44:	00d66463          	bltu	a2,a3,11d4c <edge_draw+0x30>
   11d48:	00078023          	sb	zero,0(a5)
   11d4c:	ff1714e3          	bne	a4,a7,11d34 <edge_draw+0x18>
   11d50:	00000513          	addi	a0,zero,0
   11d54:	00008067          	jalr	zero,0(ra)
   11d58:	00058713          	addi	a4,a1,0
   11d5c:	00700e93          	addi	t4,zero,7
   11d60:	fff00813          	addi	a6,zero,-1
   11d64:	fed056e3          	bge	zero,a3,11d50 <edge_draw+0x34>
   11d68:	40b707b3          	sub	a5,a4,a1
   11d6c:	40c787b3          	sub	a5,a5,a2
   11d70:	00074e03          	lbu	t3,0(a4)
   11d74:	fff78793          	addi	a5,a5,-1
   11d78:	00f507b3          	add	a5,a0,a5
   11d7c:	00c786b3          	add	a3,a5,a2
   11d80:	00170713          	addi	a4,a4,1
   11d84:	00c68333          	add	t1,a3,a2
   11d88:	03cee263          	bltu	t4,t3,11dac <edge_draw+0x90>
   11d8c:	01078023          	sb	a6,0(a5)
   11d90:	010780a3          	sb	a6,1(a5)
   11d94:	01078123          	sb	a6,2(a5)
   11d98:	01068023          	sb	a6,0(a3)
   11d9c:	01068123          	sb	a6,2(a3)
   11da0:	01030023          	sb	a6,0(t1)
   11da4:	010300a3          	sb	a6,1(t1)
   11da8:	01030123          	sb	a6,2(t1)
   11dac:	fb171ee3          	bne	a4,a7,11d68 <edge_draw+0x4c>
   11db0:	f7dff06f          	jal	zero,11d2c <edge_draw+0x10>

00011db4 <susan_thin>:
   11db4:	00800793          	addi	a5,zero,8
   11db8:	08d7d8e3          	bge	a5,a3,12648 <susan_thin+0x894>
   11dbc:	08c7d6e3          	bge	a5,a2,12648 <susan_thin+0x894>
   11dc0:	f8010113          	addi	sp,sp,-128
   11dc4:	00161793          	slli	a5,a2,0x1
   11dc8:	00f12423          	sw	a5,8(sp)
   11dcc:	eb41a803          	lw	a6,-332(gp) # 2e6c4 <__SDATA_BEGIN__+0x14>
   11dd0:	eb01a783          	lw	a5,-336(gp) # 2e6c0 <__SDATA_BEGIN__+0x10>
   11dd4:	05812c23          	sw	s8,88(sp)
   11dd8:	40000737          	lui	a4,0x40000
   11ddc:	ffc68c13          	addi	s8,a3,-4
   11de0:	00161693          	slli	a3,a2,0x1
   11de4:	05912a23          	sw	s9,84(sp)
   11de8:	00268e13          	addi	t3,a3,2
   11dec:	00168c93          	addi	s9,a3,1
   11df0:	fff70713          	addi	a4,a4,-1 # 3fffffff <__BSS_END__+0x3ffd1493>
   11df4:	00c686b3          	add	a3,a3,a2
   11df8:	00f12c23          	sw	a5,24(sp)
   11dfc:	00261793          	slli	a5,a2,0x2
   11e00:	07312623          	sw	s3,108(sp)
   11e04:	07412423          	sw	s4,104(sp)
   11e08:	05a12823          	sw	s10,80(sp)
   11e0c:	05b12623          	sw	s11,76(sp)
   11e10:	06112e23          	sw	ra,124(sp)
   11e14:	06812c23          	sw	s0,120(sp)
   11e18:	06912a23          	sw	s1,116(sp)
   11e1c:	07212823          	sw	s2,112(sp)
   11e20:	07512223          	sw	s5,100(sp)
   11e24:	07612023          	sw	s6,96(sp)
   11e28:	05712e23          	sw	s7,92(sp)
   11e2c:	00060993          	addi	s3,a2,0
   11e30:	00058a13          	addi	s4,a1,0
   11e34:	00a12023          	sw	a0,0(sp)
   11e38:	02d12223          	sw	a3,36(sp)
   11e3c:	02e12023          	sw	a4,32(sp)
   11e40:	01012e23          	sw	a6,28(sp)
   11e44:	ffc60893          	addi	a7,a2,-4
   11e48:	00700d93          	addi	s11,zero,7
   11e4c:	00100313          	addi	t1,zero,1
   11e50:	00200d13          	addi	s10,zero,2
   11e54:	02f12423          	sw	a5,40(sp)
   11e58:	01812623          	sw	s8,12(sp)
   11e5c:	00400e93          	addi	t4,zero,4
   11e60:	000e8b13          	addi	s6,t4,0
   11e64:	001e8b93          	addi	s7,t4,1
   11e68:	00400413          	addi	s0,zero,4
   11e6c:	0140006f          	jal	zero,11e80 <susan_thin+0xcc>
   11e70:	06400793          	addi	a5,zero,100
   11e74:	00f90023          	sb	a5,0(s2)
   11e78:	00140413          	addi	s0,s0,1
   11e7c:	15145c63          	bge	s0,a7,11fd4 <susan_thin+0x220>
   11e80:	036984b3          	mul	s1,s3,s6
   11e84:	000b8e93          	addi	t4,s7,0
   11e88:	008487b3          	add	a5,s1,s0
   11e8c:	00fa0933          	add	s2,s4,a5
   11e90:	00094583          	lbu	a1,0(s2)
   11e94:	febde2e3          	bltu	s11,a1,11e78 <susan_thin+0xc4>
   11e98:	413484b3          	sub	s1,s1,s3
   11e9c:	00848ab3          	add	s5,s1,s0
   11ea0:	015a0533          	add	a0,s4,s5
   11ea4:	fff54683          	lbu	a3,-1(a0)
   11ea8:	00054603          	lbu	a2,0(a0)
   11eac:	01350833          	add	a6,a0,s3
   11eb0:	00154f03          	lbu	t5,1(a0)
   11eb4:	fff84283          	lbu	t0,-1(a6)
   11eb8:	00184f83          	lbu	t6,1(a6)
   11ebc:	0086b713          	sltiu	a4,a3,8
   11ec0:	00863613          	sltiu	a2,a2,8
   11ec4:	008f3f13          	sltiu	t5,t5,8
   11ec8:	01380833          	add	a6,a6,s3
   11ecc:	00e60633          	add	a2,a2,a4
   11ed0:	01e60633          	add	a2,a2,t5
   11ed4:	fff84f03          	lbu	t5,-1(a6)
   11ed8:	0082b813          	sltiu	a6,t0,8
   11edc:	01060633          	add	a2,a2,a6
   11ee0:	008fb813          	sltiu	a6,t6,8
   11ee4:	01060633          	add	a2,a2,a6
   11ee8:	01950833          	add	a6,a0,s9
   11eec:	fff84803          	lbu	a6,-1(a6)
   11ef0:	01c50533          	add	a0,a0,t3
   11ef4:	fff54503          	lbu	a0,-1(a0)
   11ef8:	008f3f13          	sltiu	t5,t5,8
   11efc:	01e60633          	add	a2,a2,t5
   11f00:	00883813          	sltiu	a6,a6,8
   11f04:	01060633          	add	a2,a2,a6
   11f08:	00853513          	sltiu	a0,a0,8
   11f0c:	00a60633          	add	a2,a2,a0
   11f10:	f60600e3          	beq	a2,zero,11e70 <susan_thin+0xbc>
   11f14:	10661463          	bne	a2,t1,1201c <susan_thin+0x268>
   11f18:	00500713          	addi	a4,zero,5
   11f1c:	f4b76ee3          	bltu	a4,a1,11e78 <susan_thin+0xc4>
   11f20:	00812703          	lw	a4,8(sp)
   11f24:	00178793          	addi	a5,a5,1
   11f28:	001a8293          	addi	t0,s5,1
   11f2c:	00e484b3          	add	s1,s1,a4
   11f30:	02012703          	lw	a4,32(sp)
   11f34:	00848c33          	add	s8,s1,s0
   11f38:	00279813          	slli	a6,a5,0x2
   11f3c:	00ec0533          	add	a0,s8,a4
   11f40:	00012703          	lw	a4,0(sp)
   11f44:	00251513          	slli	a0,a0,0x2
   11f48:	00229f13          	slli	t5,t0,0x2
   11f4c:	00a70533          	add	a0,a4,a0
   11f50:	01070833          	add	a6,a4,a6
   11f54:	01e70f33          	add	t5,a4,t5
   11f58:	00452383          	lw	t2,4(a0)
   11f5c:	00052703          	lw	a4,0(a0)
   11f60:	00852483          	lw	s1,8(a0)
   11f64:	000f2f83          	lw	t6,0(t5)
   11f68:	00082503          	lw	a0,0(a6)
   11f6c:	3addec63          	bltu	s11,a3,12324 <susan_thin+0x570>
   11f70:	00151693          	slli	a3,a0,0x1
   11f74:	00139293          	slli	t0,t2,0x1
   11f78:	001f9813          	slli	a6,t6,0x1
   11f7c:	00171713          	slli	a4,a4,0x1
   11f80:	00249913          	slli	s2,s1,0x2
   11f84:	00a68533          	add	a0,a3,a0
   11f88:	007282b3          	add	t0,t0,t2
   11f8c:	55005c63          	bge	zero,a6,124e4 <susan_thin+0x730>
   11f90:	00200693          	addi	a3,zero,2
   11f94:	00d12823          	sw	a3,16(sp)
   11f98:	00012a23          	sw	zero,20(sp)
   11f9c:	3ca85463          	bge	a6,a0,12364 <susan_thin+0x5b0>
   11fa0:	3ce54e63          	blt	a0,a4,1237c <susan_thin+0x5c8>
   11fa4:	60555a63          	bge	a0,t0,125b8 <susan_thin+0x804>
   11fa8:	5122d863          	bge	t0,s2,124b8 <susan_thin+0x704>
   11fac:	001c0793          	addi	a5,s8,1
   11fb0:	00300713          	addi	a4,zero,3
   11fb4:	00fa07b3          	add	a5,s4,a5
   11fb8:	72b76e63          	bltu	a4,a1,126f4 <susan_thin+0x940>
   11fbc:	00400713          	addi	a4,zero,4
   11fc0:	00e78023          	sb	a4,0(a5)
   11fc4:	00200793          	addi	a5,zero,2
   11fc8:	00f12823          	sw	a5,16(sp)
   11fcc:	00f12a23          	sw	a5,20(sp)
   11fd0:	ea9ff06f          	jal	zero,11e78 <susan_thin+0xc4>
   11fd4:	00c12783          	lw	a5,12(sp)
   11fd8:	e8fbc4e3          	blt	s7,a5,11e60 <susan_thin+0xac>
   11fdc:	07c12083          	lw	ra,124(sp)
   11fe0:	07812403          	lw	s0,120(sp)
   11fe4:	07412483          	lw	s1,116(sp)
   11fe8:	07012903          	lw	s2,112(sp)
   11fec:	06c12983          	lw	s3,108(sp)
   11ff0:	06812a03          	lw	s4,104(sp)
   11ff4:	06412a83          	lw	s5,100(sp)
   11ff8:	06012b03          	lw	s6,96(sp)
   11ffc:	05c12b83          	lw	s7,92(sp)
   12000:	05812c03          	lw	s8,88(sp)
   12004:	05412c83          	lw	s9,84(sp)
   12008:	05012d03          	lw	s10,80(sp)
   1200c:	04c12d83          	lw	s11,76(sp)
   12010:	00000513          	addi	a0,zero,0
   12014:	08010113          	addi	sp,sp,128
   12018:	00008067          	jalr	zero,0(ra)
   1201c:	00812583          	lw	a1,8(sp)
   12020:	00b483b3          	add	t2,s1,a1
   12024:	fffb0593          	addi	a1,s6,-1
   12028:	00b12223          	sw	a1,4(sp)
   1202c:	00740c33          	add	s8,s0,t2
   12030:	19a60a63          	beq	a2,s10,121c4 <susan_thin+0x410>
   12034:	015a0ab3          	add	s5,s4,s5
   12038:	000ac783          	lbu	a5,0(s5)
   1203c:	00194583          	lbu	a1,1(s2)
   12040:	018a0c33          	add	s8,s4,s8
   12044:	000c4503          	lbu	a0,0(s8)
   12048:	fff94603          	lbu	a2,-1(s2)
   1204c:	0087b793          	sltiu	a5,a5,8
   12050:	0085b593          	sltiu	a1,a1,8
   12054:	00b786b3          	add	a3,a5,a1
   12058:	00853513          	sltiu	a0,a0,8
   1205c:	00a686b3          	add	a3,a3,a0
   12060:	00863613          	sltiu	a2,a2,8
   12064:	00c686b3          	add	a3,a3,a2
   12068:	e0d358e3          	bge	t1,a3,11e78 <susan_thin+0xc4>
   1206c:	001ac683          	lbu	a3,1(s5)
   12070:	001c4803          	lbu	a6,1(s8)
   12074:	fffc4f03          	lbu	t5,-1(s8)
   12078:	0086b693          	sltiu	a3,a3,8
   1207c:	00883813          	sltiu	a6,a6,8
   12080:	00d5e6b3          	or	a3,a1,a3
   12084:	01056833          	or	a6,a0,a6
   12088:	008f3f13          	sltiu	t5,t5,8
   1208c:	00f76733          	or	a4,a4,a5
   12090:	01e66f33          	or	t5,a2,t5
   12094:	00d7f7b3          	and	a5,a5,a3
   12098:	0105f5b3          	and	a1,a1,a6
   1209c:	00d706b3          	add	a3,a4,a3
   120a0:	00b787b3          	add	a5,a5,a1
   120a4:	01e57533          	and	a0,a0,t5
   120a8:	00e67633          	and	a2,a2,a4
   120ac:	010686b3          	add	a3,a3,a6
   120b0:	00a787b3          	add	a5,a5,a0
   120b4:	01e686b3          	add	a3,a3,t5
   120b8:	00c787b3          	add	a5,a5,a2
   120bc:	40f687b3          	sub	a5,a3,a5
   120c0:	daf34ce3          	blt	t1,a5,11e78 <susan_thin+0xc4>
   120c4:	00412b03          	lw	s6,4(sp)
   120c8:	06400793          	addi	a5,zero,100
   120cc:	00f90023          	sb	a5,0(s2)
   120d0:	00400793          	addi	a5,zero,4
   120d4:	20fb4263          	blt	s6,a5,122d8 <susan_thin+0x524>
   120d8:	ffe40413          	addi	s0,s0,-2
   120dc:	00400793          	addi	a5,zero,4
   120e0:	0cf44a63          	blt	s0,a5,121b4 <susan_thin+0x400>
   120e4:	001b0b93          	addi	s7,s6,1
   120e8:	000b8e93          	addi	t4,s7,0
   120ec:	d8dff06f          	jal	zero,11e78 <susan_thin+0xc4>
   120f0:	005a02b3          	add	t0,s4,t0
   120f4:	0002c683          	lbu	a3,0(t0)
   120f8:	ff8f2f03          	lw	t5,-8(t5)
   120fc:	36dde063          	bltu	s11,a3,1245c <susan_thin+0x6a8>
   12100:	00181793          	slli	a5,a6,0x1
   12104:	00139293          	slli	t0,t2,0x1
   12108:	001f1693          	slli	a3,t5,0x1
   1210c:	00271713          	slli	a4,a4,0x2
   12110:	010787b3          	add	a5,a5,a6
   12114:	007282b3          	add	t0,t0,t2
   12118:	00149913          	slli	s2,s1,0x1
   1211c:	66d05463          	bge	zero,a3,12784 <susan_thin+0x9d0>
   12120:	24f6cc63          	blt	a3,a5,12378 <susan_thin+0x5c4>
   12124:	24e6cc63          	blt	a3,a4,1237c <susan_thin+0x5c8>
   12128:	e856c0e3          	blt	a3,t0,11fa8 <susan_thin+0x1f4>
   1212c:	e89f40e3          	blt	t5,s1,11fac <susan_thin+0x1f8>
   12130:	00012a23          	sw	zero,20(sp)
   12134:	00012823          	sw	zero,16(sp)
   12138:	01412783          	lw	a5,20(sp)
   1213c:	00300613          	addi	a2,zero,3
   12140:	00058693          	addi	a3,a1,0
   12144:	01678733          	add	a4,a5,s6
   12148:	fff70713          	addi	a4,a4,-1
   1214c:	03370733          	mul	a4,a4,s3
   12150:	01012783          	lw	a5,16(sp)
   12154:	00fa07b3          	add	a5,s4,a5
   12158:	008787b3          	add	a5,a5,s0
   1215c:	00e787b3          	add	a5,a5,a4
   12160:	00c5f463          	bgeu	a1,a2,12168 <susan_thin+0x3b4>
   12164:	00060693          	addi	a3,a2,0
   12168:	00168693          	addi	a3,a3,1
   1216c:	fed78fa3          	sb	a3,-1(a5)
   12170:	01412783          	lw	a5,20(sp)
   12174:	01012703          	lw	a4,16(sp)
   12178:	00179793          	slli	a5,a5,0x1
   1217c:	00e787b3          	add	a5,a5,a4
   12180:	00200713          	addi	a4,zero,2
   12184:	cef74ae3          	blt	a4,a5,11e78 <susan_thin+0xc4>
   12188:	01412783          	lw	a5,20(sp)
   1218c:	fff78793          	addi	a5,a5,-1
   12190:	00fb0b33          	add	s6,s6,a5
   12194:	00400793          	addi	a5,zero,4
   12198:	00fb5463          	bge	s6,a5,121a0 <susan_thin+0x3ec>
   1219c:	00078b13          	addi	s6,a5,0
   121a0:	01012783          	lw	a5,16(sp)
   121a4:	ffe78793          	addi	a5,a5,-2
   121a8:	00f40433          	add	s0,s0,a5
   121ac:	00400793          	addi	a5,zero,4
   121b0:	f2f45ae3          	bge	s0,a5,120e4 <susan_thin+0x330>
   121b4:	001b0b93          	addi	s7,s6,1
   121b8:	00078413          	addi	s0,a5,0
   121bc:	000b8e93          	addi	t4,s7,0
   121c0:	cb9ff06f          	jal	zero,11e78 <susan_thin+0xc4>
   121c4:	015a0f33          	add	t5,s4,s5
   121c8:	018a0533          	add	a0,s4,s8
   121cc:	001f4283          	lbu	t0,1(t5)
   121d0:	fff54583          	lbu	a1,-1(a0)
   121d4:	00154603          	lbu	a2,1(a0)
   121d8:	0082bf93          	sltiu	t6,t0,8
   121dc:	00ef8833          	add	a6,t6,a4
   121e0:	0085b593          	sltiu	a1,a1,8
   121e4:	00b80833          	add	a6,a6,a1
   121e8:	00863613          	sltiu	a2,a2,8
   121ec:	00c80833          	add	a6,a6,a2
   121f0:	0fa80e63          	beq	a6,s10,122ec <susan_thin+0x538>
   121f4:	000f4583          	lbu	a1,0(t5)
   121f8:	00194603          	lbu	a2,1(s2)
   121fc:	00054683          	lbu	a3,0(a0)
   12200:	fff94703          	lbu	a4,-1(s2)
   12204:	0085b593          	sltiu	a1,a1,8
   12208:	00863613          	sltiu	a2,a2,8
   1220c:	00c587b3          	add	a5,a1,a2
   12210:	0086b693          	sltiu	a3,a3,8
   12214:	00d787b3          	add	a5,a5,a3
   12218:	00873713          	sltiu	a4,a4,8
   1221c:	00e787b3          	add	a5,a5,a4
   12220:	c5a79ce3          	bne	a5,s10,11e78 <susan_thin+0xc4>
   12224:	00d5e7b3          	or	a5,a1,a3
   12228:	c40788e3          	beq	a5,zero,11e78 <susan_thin+0xc4>
   1222c:	00e667b3          	or	a5,a2,a4
   12230:	c40784e3          	beq	a5,zero,11e78 <susan_thin+0xc4>
   12234:	02412783          	lw	a5,36(sp)
   12238:	02812f83          	lw	t6,40(sp)
   1223c:	40f383b3          	sub	t2,t2,a5
   12240:	00838833          	add	a6,t2,s0
   12244:	010a0833          	add	a6,s4,a6
   12248:	fff84783          	lbu	a5,-1(a6)
   1224c:	00184803          	lbu	a6,1(a6)
   12250:	007f83b3          	add	t2,t6,t2
   12254:	0087b793          	sltiu	a5,a5,8
   12258:	00883813          	sltiu	a6,a6,8
   1225c:	0107e7b3          	or	a5,a5,a6
   12260:	ffe54f83          	lbu	t6,-2(a0)
   12264:	ffef4803          	lbu	a6,-2(t5)
   12268:	00f5f5b3          	and	a1,a1,a5
   1226c:	002f4783          	lbu	a5,2(t5)
   12270:	00254f03          	lbu	t5,2(a0)
   12274:	00883813          	sltiu	a6,a6,8
   12278:	008fbf93          	sltiu	t6,t6,8
   1227c:	0087b513          	sltiu	a0,a5,8
   12280:	01f867b3          	or	a5,a6,t6
   12284:	008f3813          	sltiu	a6,t5,8
   12288:	00f777b3          	and	a5,a4,a5
   1228c:	01056733          	or	a4,a0,a6
   12290:	00b7e7b3          	or	a5,a5,a1
   12294:	00e67733          	and	a4,a2,a4
   12298:	00e7e7b3          	or	a5,a5,a4
   1229c:	008383b3          	add	t2,t2,s0
   122a0:	02079263          	bne	a5,zero,122c4 <susan_thin+0x510>
   122a4:	007a07b3          	add	a5,s4,t2
   122a8:	fff7c703          	lbu	a4,-1(a5)
   122ac:	0017c603          	lbu	a2,1(a5)
   122b0:	00873793          	sltiu	a5,a4,8
   122b4:	00863713          	sltiu	a4,a2,8
   122b8:	00e7e7b3          	or	a5,a5,a4
   122bc:	00f6f6b3          	and	a3,a3,a5
   122c0:	ba068ce3          	beq	a3,zero,11e78 <susan_thin+0xc4>
   122c4:	00412b03          	lw	s6,4(sp)
   122c8:	06400793          	addi	a5,zero,100
   122cc:	00f90023          	sb	a5,0(s2)
   122d0:	00400793          	addi	a5,zero,4
   122d4:	e0fb52e3          	bge	s6,a5,120d8 <susan_thin+0x324>
   122d8:	00078b13          	addi	s6,a5,0
   122dc:	ffe40413          	addi	s0,s0,-2
   122e0:	00400793          	addi	a5,zero,4
   122e4:	e0f450e3          	bge	s0,a5,120e4 <susan_thin+0x330>
   122e8:	ecdff06f          	jal	zero,121b4 <susan_thin+0x400>
   122ec:	00bfefb3          	or	t6,t6,a1
   122f0:	f00f82e3          	beq	t6,zero,121f4 <susan_thin+0x440>
   122f4:	00c76633          	or	a2,a4,a2
   122f8:	ee060ee3          	beq	a2,zero,121f4 <susan_thin+0x440>
   122fc:	00012603          	lw	a2,0(sp)
   12300:	00279713          	slli	a4,a5,0x2
   12304:	00e60733          	add	a4,a2,a4
   12308:	00072703          	lw	a4,0(a4)
   1230c:	00e12223          	sw	a4,4(sp)
   12310:	0adde263          	bltu	s11,a3,123b4 <susan_thin+0x600>
   12314:	ffe00813          	addi	a6,zero,-2
   12318:	285de063          	bltu	s11,t0,12598 <susan_thin+0x7e4>
   1231c:	00060713          	addi	a4,a2,0
   12320:	1d40006f          	jal	zero,124f4 <susan_thin+0x740>
   12324:	015a06b3          	add	a3,s4,s5
   12328:	0006c683          	lbu	a3,0(a3)
   1232c:	ff882803          	lw	a6,-8(a6)
   12330:	dcdde0e3          	bltu	s11,a3,120f0 <susan_thin+0x33c>
   12334:	00171693          	slli	a3,a4,0x1
   12338:	00149913          	slli	s2,s1,0x1
   1233c:	00181813          	slli	a6,a6,0x1
   12340:	00151513          	slli	a0,a0,0x1
   12344:	00239293          	slli	t0,t2,0x2
   12348:	00e68733          	add	a4,a3,a4
   1234c:	00990933          	add	s2,s2,s1
   12350:	00000f93          	addi	t6,zero,0
   12354:	430fd463          	bge	t6,a6,1277c <susan_thin+0x9c8>
   12358:	00c12a23          	sw	a2,20(sp)
   1235c:	00012823          	sw	zero,16(sp)
   12360:	c4a840e3          	blt	a6,a0,11fa0 <susan_thin+0x1ec>
   12364:	00e84c63          	blt	a6,a4,1237c <susan_thin+0x5c8>
   12368:	c45840e3          	blt	a6,t0,11fa8 <susan_thin+0x1f4>
   1236c:	c52840e3          	blt	a6,s2,11fac <susan_thin+0x1f8>
   12370:	b00804e3          	beq	a6,zero,11e78 <susan_thin+0xc4>
   12374:	dc5ff06f          	jal	zero,12138 <susan_thin+0x384>
   12378:	2ae7de63          	bge	a5,a4,12634 <susan_thin+0x880>
   1237c:	c25746e3          	blt	a4,t0,11fa8 <susan_thin+0x1f4>
   12380:	01272933          	slt	s2,a4,s2
   12384:	00191793          	slli	a5,s2,0x1
   12388:	00f12823          	sw	a5,16(sp)
   1238c:	00fc07b3          	add	a5,s8,a5
   12390:	fff78793          	addi	a5,a5,-1
   12394:	00300713          	addi	a4,zero,3
   12398:	00fa07b3          	add	a5,s4,a5
   1239c:	20b76463          	bltu	a4,a1,125a4 <susan_thin+0x7f0>
   123a0:	00400713          	addi	a4,zero,4
   123a4:	00e78023          	sb	a4,0(a5)
   123a8:	00200793          	addi	a5,zero,2
   123ac:	00f12a23          	sw	a5,20(sp)
   123b0:	ac9ff06f          	jal	zero,11e78 <susan_thin+0xc4>
   123b4:	125dec63          	bltu	s11,t0,124ec <susan_thin+0x738>
   123b8:	00100a93          	addi	s5,zero,1
   123bc:	00060713          	addi	a4,a2,0
   123c0:	01578ab3          	add	s5,a5,s5
   123c4:	002a9793          	slli	a5,s5,0x2
   123c8:	00f707b3          	add	a5,a4,a5
   123cc:	0007a503          	lw	a0,0(a5)
   123d0:	03d12e23          	sw	t4,60(sp)
   123d4:	03112c23          	sw	a7,56(sp)
   123d8:	03c12a23          	sw	t3,52(sp)
   123dc:	03012823          	sw	a6,48(sp)
   123e0:	060070ef          	jal	ra,19440 <__floatsisf>
   123e4:	02a12623          	sw	a0,44(sp)
   123e8:	00412503          	lw	a0,4(sp)
   123ec:	054070ef          	jal	ra,19440 <__floatsisf>
   123f0:	00050593          	addi	a1,a0,0
   123f4:	02c12503          	lw	a0,44(sp)
   123f8:	079060ef          	jal	ra,18c70 <__divsf3>
   123fc:	150070ef          	jal	ra,1954c <__extendsfdf2>
   12400:	01812603          	lw	a2,24(sp)
   12404:	01c12683          	lw	a3,28(sp)
   12408:	3e0050ef          	jal	ra,177e8 <__gedf2>
   1240c:	03012803          	lw	a6,48(sp)
   12410:	03412e03          	lw	t3,52(sp)
   12414:	03812883          	lw	a7,56(sp)
   12418:	03c12e83          	lw	t4,60(sp)
   1241c:	00100313          	addi	t1,zero,1
   12420:	a4a05ce3          	bge	zero,a0,11e78 <susan_thin+0xc4>
   12424:	010907b3          	add	a5,s2,a6
   12428:	0007c783          	lbu	a5,0(a5)
   1242c:	00700713          	addi	a4,zero,7
   12430:	a4f774e3          	bgeu	a4,a5,11e78 <susan_thin+0xc4>
   12434:	010a07b3          	add	a5,s4,a6
   12438:	018787b3          	add	a5,a5,s8
   1243c:	0007c783          	lbu	a5,0(a5)
   12440:	a2f77ce3          	bgeu	a4,a5,11e78 <susan_thin+0xc4>
   12444:	009a07b3          	add	a5,s4,s1
   12448:	010787b3          	add	a5,a5,a6
   1244c:	008787b3          	add	a5,a5,s0
   12450:	0007c783          	lbu	a5,0(a5)
   12454:	a2f772e3          	bgeu	a4,a5,11e78 <susan_thin+0xc4>
   12458:	1280006f          	jal	zero,12580 <susan_thin+0x7cc>
   1245c:	fff94283          	lbu	t0,-1(s2)
   12460:	00012903          	lw	s2,0(sp)
   12464:	002a9693          	slli	a3,s5,0x2
   12468:	00d906b3          	add	a3,s2,a3
   1246c:	0006a683          	lw	a3,0(a3)
   12470:	185df463          	bgeu	s11,t0,125f8 <susan_thin+0x844>
   12474:	00fa02b3          	add	t0,s4,a5
   12478:	0002c283          	lbu	t0,0(t0)
   1247c:	1e5de063          	bltu	s11,t0,1265c <susan_thin+0x8a8>
   12480:	001f1793          	slli	a5,t5,0x1
   12484:	00171513          	slli	a0,a4,0x1
   12488:	01e787b3          	add	a5,a5,t5
   1248c:	00169693          	slli	a3,a3,0x1
   12490:	00139293          	slli	t0,t2,0x1
   12494:	00281813          	slli	a6,a6,0x2
   12498:	00e50733          	add	a4,a0,a4
   1249c:	2ef05e63          	bge	zero,a5,12798 <susan_thin+0x9e4>
   124a0:	26d7c663          	blt	a5,a3,1270c <susan_thin+0x958>
   124a4:	2707c663          	blt	a5,a6,12710 <susan_thin+0x95c>
   124a8:	00012823          	sw	zero,16(sp)
   124ac:	2ce7d263          	bge	a5,a4,12770 <susan_thin+0x9bc>
   124b0:	00000913          	addi	s2,zero,0
   124b4:	ec5756e3          	bge	a4,t0,12380 <susan_thin+0x5cc>
   124b8:	00300713          	addi	a4,zero,3
   124bc:	018a07b3          	add	a5,s4,s8
   124c0:	12b76063          	bltu	a4,a1,125e0 <susan_thin+0x82c>
   124c4:	00400713          	addi	a4,zero,4
   124c8:	00c12823          	sw	a2,16(sp)
   124cc:	00e78023          	sb	a4,0(a5)
   124d0:	00200793          	addi	a5,zero,2
   124d4:	00f12a23          	sw	a5,20(sp)
   124d8:	9a1ff06f          	jal	zero,11e78 <susan_thin+0xc4>
   124dc:	00000713          	addi	a4,zero,0
   124e0:	ab0048e3          	blt	zero,a6,11f90 <susan_thin+0x1dc>
   124e4:	00000813          	addi	a6,zero,0
   124e8:	ab5ff06f          	jal	zero,11f9c <susan_thin+0x1e8>
   124ec:	000c0a93          	addi	s5,s8,0
   124f0:	00060713          	addi	a4,a2,0
   124f4:	002a9793          	slli	a5,s5,0x2
   124f8:	00f707b3          	add	a5,a4,a5
   124fc:	0007a503          	lw	a0,0(a5)
   12500:	03d12c23          	sw	t4,56(sp)
   12504:	03112a23          	sw	a7,52(sp)
   12508:	03c12823          	sw	t3,48(sp)
   1250c:	03012623          	sw	a6,44(sp)
   12510:	731060ef          	jal	ra,19440 <__floatsisf>
   12514:	00050493          	addi	s1,a0,0
   12518:	00412503          	lw	a0,4(sp)
   1251c:	725060ef          	jal	ra,19440 <__floatsisf>
   12520:	00050593          	addi	a1,a0,0
   12524:	00048513          	addi	a0,s1,0
   12528:	748060ef          	jal	ra,18c70 <__divsf3>
   1252c:	020070ef          	jal	ra,1954c <__extendsfdf2>
   12530:	01812603          	lw	a2,24(sp)
   12534:	01c12683          	lw	a3,28(sp)
   12538:	2b0050ef          	jal	ra,177e8 <__gedf2>
   1253c:	02c12803          	lw	a6,44(sp)
   12540:	03012e03          	lw	t3,48(sp)
   12544:	03412883          	lw	a7,52(sp)
   12548:	03812e83          	lw	t4,56(sp)
   1254c:	00100313          	addi	t1,zero,1
   12550:	92a054e3          	bge	zero,a0,11e78 <susan_thin+0xc4>
   12554:	010b07b3          	add	a5,s6,a6
   12558:	033787b3          	mul	a5,a5,s3
   1255c:	00700713          	addi	a4,zero,7
   12560:	008787b3          	add	a5,a5,s0
   12564:	00fa07b3          	add	a5,s4,a5
   12568:	0007c683          	lbu	a3,0(a5)
   1256c:	90d776e3          	bgeu	a4,a3,11e78 <susan_thin+0xc4>
   12570:	fff7c683          	lbu	a3,-1(a5)
   12574:	90d772e3          	bgeu	a4,a3,11e78 <susan_thin+0xc4>
   12578:	0017c783          	lbu	a5,1(a5)
   1257c:	8ef77ee3          	bgeu	a4,a5,11e78 <susan_thin+0xc4>
   12580:	06400793          	addi	a5,zero,100
   12584:	00f90023          	sb	a5,0(s2)
   12588:	015a0ab3          	add	s5,s4,s5
   1258c:	00300793          	addi	a5,zero,3
   12590:	00fa8023          	sb	a5,0(s5)
   12594:	8e5ff06f          	jal	zero,11e78 <susan_thin+0xc4>
   12598:	fff00a93          	addi	s5,zero,-1
   1259c:	00060713          	addi	a4,a2,0
   125a0:	e21ff06f          	jal	zero,123c0 <susan_thin+0x60c>
   125a4:	00158593          	addi	a1,a1,1
   125a8:	00b78023          	sb	a1,0(a5)
   125ac:	00200793          	addi	a5,zero,2
   125b0:	00f12a23          	sw	a5,20(sp)
   125b4:	8c5ff06f          	jal	zero,11e78 <susan_thin+0xc4>
   125b8:	9f254ae3          	blt	a0,s2,11fac <susan_thin+0x1f8>
   125bc:	00300713          	addi	a4,zero,3
   125c0:	00fa07b3          	add	a5,s4,a5
   125c4:	08b76663          	bltu	a4,a1,12650 <susan_thin+0x89c>
   125c8:	00400713          	addi	a4,zero,4
   125cc:	00e78023          	sb	a4,0(a5)
   125d0:	00200793          	addi	a5,zero,2
   125d4:	00c12a23          	sw	a2,20(sp)
   125d8:	00f12823          	sw	a5,16(sp)
   125dc:	89dff06f          	jal	zero,11e78 <susan_thin+0xc4>
   125e0:	00158593          	addi	a1,a1,1
   125e4:	00b78023          	sb	a1,0(a5)
   125e8:	00200793          	addi	a5,zero,2
   125ec:	00c12823          	sw	a2,16(sp)
   125f0:	00f12a23          	sw	a5,20(sp)
   125f4:	885ff06f          	jal	zero,11e78 <susan_thin+0xc4>
   125f8:	001f9813          	slli	a6,t6,0x1
   125fc:	00149913          	slli	s2,s1,0x1
   12600:	00169693          	slli	a3,a3,0x1
   12604:	00139293          	slli	t0,t2,0x1
   12608:	00251513          	slli	a0,a0,0x2
   1260c:	01f80833          	add	a6,a6,t6
   12610:	00990933          	add	s2,s2,s1
   12614:	ecd054e3          	bge	zero,a3,124dc <susan_thin+0x728>
   12618:	00000713          	addi	a4,zero,0
   1261c:	9706cae3          	blt	a3,a6,11f90 <susan_thin+0x1dc>
   12620:	00068813          	addi	a6,a3,0
   12624:	00c12823          	sw	a2,16(sp)
   12628:	00000713          	addi	a4,zero,0
   1262c:	00012a23          	sw	zero,20(sp)
   12630:	96dff06f          	jal	zero,11f9c <susan_thin+0x1e8>
   12634:	96784ae3          	blt	a6,t2,11fa8 <susan_thin+0x1f4>
   12638:	9727cae3          	blt	a5,s2,11fac <susan_thin+0x1f8>
   1263c:	00c12a23          	sw	a2,20(sp)
   12640:	00012823          	sw	zero,16(sp)
   12644:	af5ff06f          	jal	zero,12138 <susan_thin+0x384>
   12648:	00000513          	addi	a0,zero,0
   1264c:	00008067          	jalr	zero,0(ra)
   12650:	00158593          	addi	a1,a1,1
   12654:	00b78023          	sb	a1,0(a5)
   12658:	f79ff06f          	jal	zero,125d0 <susan_thin+0x81c>
   1265c:	018a02b3          	add	t0,s4,s8
   12660:	fff2c903          	lbu	s2,-1(t0)
   12664:	072df263          	bgeu	s11,s2,126c8 <susan_thin+0x914>
   12668:	0002ca83          	lbu	s5,0(t0)
   1266c:	00700913          	addi	s2,zero,7
   12670:	0b596c63          	bltu	s2,s5,12728 <susan_thin+0x974>
   12674:	001f1713          	slli	a4,t5,0x1
   12678:	01e70f33          	add	t5,a4,t5
   1267c:	001f9713          	slli	a4,t6,0x1
   12680:	01f70fb3          	add	t6,a4,t6
   12684:	00181813          	slli	a6,a6,0x1
   12688:	00151513          	slli	a0,a0,0x1
   1268c:	00269693          	slli	a3,a3,0x2
   12690:	00000913          	addi	s2,zero,0
   12694:	00000293          	addi	t0,zero,0
   12698:	00000713          	addi	a4,zero,0
   1269c:	13e05863          	bge	zero,t5,127cc <susan_thin+0xa18>
   126a0:	00012823          	sw	zero,16(sp)
   126a4:	00012a23          	sw	zero,20(sp)
   126a8:	10df5e63          	bge	t5,a3,127c4 <susan_thin+0xa10>
   126ac:	00c12823          	sw	a2,16(sp)
   126b0:	00012a23          	sw	zero,20(sp)
   126b4:	07f6d663          	bge	a3,t6,12720 <susan_thin+0x96c>
   126b8:	00200693          	addi	a3,zero,2
   126bc:	00d12823          	sw	a3,16(sp)
   126c0:	00012a23          	sw	zero,20(sp)
   126c4:	c91ff06f          	jal	zero,12354 <susan_thin+0x5a0>
   126c8:	00169713          	slli	a4,a3,0x1
   126cc:	00d706b3          	add	a3,a4,a3
   126d0:	00151713          	slli	a4,a0,0x1
   126d4:	00a70533          	add	a0,a4,a0
   126d8:	001f1f13          	slli	t5,t5,0x1
   126dc:	00149913          	slli	s2,s1,0x1
   126e0:	002f9f93          	slli	t6,t6,0x2
   126e4:	00000293          	addi	t0,zero,0
   126e8:	00000713          	addi	a4,zero,0
   126ec:	00000813          	addi	a6,zero,0
   126f0:	fadff06f          	jal	zero,1269c <susan_thin+0x8e8>
   126f4:	00158593          	addi	a1,a1,1
   126f8:	00b78023          	sb	a1,0(a5)
   126fc:	00200793          	addi	a5,zero,2
   12700:	00f12823          	sw	a5,16(sp)
   12704:	00f12a23          	sw	a5,20(sp)
   12708:	f70ff06f          	jal	zero,11e78 <susan_thin+0xc4>
   1270c:	0b06d063          	bge	a3,a6,127ac <susan_thin+0x9f8>
   12710:	04e84663          	blt	a6,a4,1275c <susan_thin+0x9a8>
   12714:	f25854e3          	bge	a6,t0,1263c <susan_thin+0x888>
   12718:	00000913          	addi	s2,zero,0
   1271c:	88dff06f          	jal	zero,11fa8 <susan_thin+0x1f4>
   12720:	00068f93          	addi	t6,a3,0
   12724:	c31ff06f          	jal	zero,12354 <susan_thin+0x5a0>
   12728:	0012c283          	lbu	t0,1(t0)
   1272c:	02596c63          	bltu	s2,t0,12764 <susan_thin+0x9b0>
   12730:	00169513          	slli	a0,a3,0x1
   12734:	00d506b3          	add	a3,a0,a3
   12738:	00181513          	slli	a0,a6,0x1
   1273c:	01050833          	add	a6,a0,a6
   12740:	00171713          	slli	a4,a4,0x1
   12744:	001f9f93          	slli	t6,t6,0x1
   12748:	002f1f13          	slli	t5,t5,0x2
   1274c:	00000913          	addi	s2,zero,0
   12750:	00000293          	addi	t0,zero,0
   12754:	00000513          	addi	a0,zero,0
   12758:	f45ff06f          	jal	zero,1269c <susan_thin+0x8e8>
   1275c:	00000913          	addi	s2,zero,0
   12760:	c1dff06f          	jal	zero,1237c <susan_thin+0x5c8>
   12764:	00048913          	addi	s2,s1,0
   12768:	00038293          	addi	t0,t2,0
   1276c:	f31ff06f          	jal	zero,1269c <susan_thin+0x8e8>
   12770:	d457c4e3          	blt	a5,t0,124b8 <susan_thin+0x704>
   12774:	00012a23          	sw	zero,20(sp)
   12778:	9c1ff06f          	jal	zero,12138 <susan_thin+0x384>
   1277c:	000f8813          	addi	a6,t6,0
   12780:	81dff06f          	jal	zero,11f9c <susan_thin+0x1e8>
   12784:	bef04ae3          	blt	zero,a5,12378 <susan_thin+0x5c4>
   12788:	bee04ae3          	blt	zero,a4,1237c <susan_thin+0x5c8>
   1278c:	80504ee3          	blt	zero,t0,11fa8 <susan_thin+0x1f4>
   12790:	81204ee3          	blt	zero,s2,11fac <susan_thin+0x1f8>
   12794:	ee4ff06f          	jal	zero,11e78 <susan_thin+0xc4>
   12798:	f6d04ae3          	blt	zero,a3,1270c <susan_thin+0x958>
   1279c:	01005e63          	bge	zero,a6,127b8 <susan_thin+0xa04>
   127a0:	d0e848e3          	blt	a6,a4,124b0 <susan_thin+0x6fc>
   127a4:	d0584ae3          	blt	a6,t0,124b8 <susan_thin+0x704>
   127a8:	e95ff06f          	jal	zero,1263c <susan_thin+0x888>
   127ac:	00068793          	addi	a5,a3,0
   127b0:	00c12823          	sw	a2,16(sp)
   127b4:	cf9ff06f          	jal	zero,124ac <susan_thin+0x6f8>
   127b8:	cee04ce3          	blt	zero,a4,124b0 <susan_thin+0x6fc>
   127bc:	ce504ee3          	blt	zero,t0,124b8 <susan_thin+0x704>
   127c0:	eb8ff06f          	jal	zero,11e78 <susan_thin+0xc4>
   127c4:	000f0693          	addi	a3,t5,0
   127c8:	eedff06f          	jal	zero,126b4 <susan_thin+0x900>
   127cc:	00000f13          	addi	t5,zero,0
   127d0:	ed9ff06f          	jal	zero,126a8 <susan_thin+0x8f4>

000127d4 <susan_edges>:
   127d4:	e8010113          	addi	sp,sp,-384
   127d8:	06f12823          	sw	a5,112(sp)
   127dc:	030787b3          	mul	a5,a5,a6
   127e0:	16912a23          	sw	s1,372(sp)
   127e4:	15812c23          	sw	s8,344(sp)
   127e8:	15a12823          	sw	s10,336(sp)
   127ec:	06b12623          	sw	a1,108(sp)
   127f0:	00058d13          	addi	s10,a1,0
   127f4:	00050493          	addi	s1,a0,0
   127f8:	00060c13          	addi	s8,a2,0
   127fc:	00058513          	addi	a0,a1,0
   12800:	00000593          	addi	a1,zero,0
   12804:	00279613          	slli	a2,a5,0x2
   12808:	15712e23          	sw	s7,348(sp)
   1280c:	15912a23          	sw	s9,340(sp)
   12810:	16112e23          	sw	ra,380(sp)
   12814:	00080b93          	addi	s7,a6,0
   12818:	00068c93          	addi	s9,a3,0
   1281c:	0cd12223          	sw	a3,196(sp)
   12820:	0ce12023          	sw	a4,192(sp)
   12824:	65d0b0ef          	jal	ra,1e680 <memset>
   12828:	00600793          	addi	a5,zero,6
   1282c:	0177c463          	blt	a5,s7,12834 <susan_edges+0x60>
   12830:	0280106f          	jal	zero,13858 <susan_edges+0x1084>
   12834:	07012603          	lw	a2,112(sp)
   12838:	00c7c463          	blt	a5,a2,12840 <susan_edges+0x6c>
   1283c:	01c0106f          	jal	zero,13858 <susan_edges+0x1084>
   12840:	17312623          	sw	s3,364(sp)
   12844:	00161993          	slli	s3,a2,0x1
   12848:	16812c23          	sw	s0,376(sp)
   1284c:	15b12623          	sw	s11,332(sp)
   12850:	00c98433          	add	s0,s3,a2
   12854:	000c0d93          	addi	s11,s8,0
   12858:	0c012c03          	lw	s8,192(sp)
   1285c:	17212823          	sw	s2,368(sp)
   12860:	17412423          	sw	s4,360(sp)
   12864:	ffc48913          	addi	s2,s1,-4
   12868:	00848a33          	add	s4,s1,s0
   1286c:	17512223          	sw	s5,356(sp)
   12870:	17612023          	sw	s6,352(sp)
   12874:	00040293          	addi	t0,s0,0
   12878:	00040e93          	addi	t4,s0,0
   1287c:	013489b3          	add	s3,s1,s3
   12880:	002a0a13          	addi	s4,s4,2
   12884:	00c90933          	add	s2,s2,a2
   12888:	ffdb8b13          	addi	s6,s7,-3
   1288c:	00000393          	addi	t2,zero,0
   12890:	00300f93          	addi	t6,zero,3
   12894:	00248a93          	addi	s5,s1,2
   12898:	00c487b3          	add	a5,s1,a2
   1289c:	00060413          	addi	s0,a2,0
   128a0:	00229f13          	slli	t5,t0,0x2
   128a4:	01ed0f33          	add	t5,s10,t5
   128a8:	007a88b3          	add	a7,s5,t2
   128ac:	00590813          	addi	a6,s2,5
   128b0:	00798633          	add	a2,s3,t2
   128b4:	005485b3          	add	a1,s1,t0
   128b8:	005786b3          	add	a3,a5,t0
   128bc:	00598533          	add	a0,s3,t0
   128c0:	005a0333          	add	t1,s4,t0
   128c4:	01f12623          	sw	t6,12(sp)
   128c8:	01312823          	sw	s3,16(sp)
   128cc:	40788733          	sub	a4,a7,t2
   128d0:	00570733          	add	a4,a4,t0
   128d4:	00174703          	lbu	a4,1(a4)
   128d8:	0008cf83          	lbu	t6,0(a7)
   128dc:	0018ce03          	lbu	t3,1(a7)
   128e0:	00ec8733          	add	a4,s9,a4
   128e4:	41f70fb3          	sub	t6,a4,t6
   128e8:	000fcf83          	lbu	t6,0(t6)
   128ec:	41c70e33          	sub	t3,a4,t3
   128f0:	000e4e03          	lbu	t3,0(t3)
   128f4:	0028c983          	lbu	s3,2(a7)
   128f8:	064f8f93          	addi	t6,t6,100
   128fc:	01fe0e33          	add	t3,t3,t6
   12900:	00084f83          	lbu	t6,0(a6)
   12904:	413709b3          	sub	s3,a4,s3
   12908:	0009c983          	lbu	s3,0(s3)
   1290c:	41f70fb3          	sub	t6,a4,t6
   12910:	000fcf83          	lbu	t6,0(t6)
   12914:	01c989b3          	add	s3,s3,t3
   12918:	00184e03          	lbu	t3,1(a6)
   1291c:	013f8fb3          	add	t6,t6,s3
   12920:	00284983          	lbu	s3,2(a6)
   12924:	41c70e33          	sub	t3,a4,t3
   12928:	000e4e03          	lbu	t3,0(t3)
   1292c:	413709b3          	sub	s3,a4,s3
   12930:	0009c983          	lbu	s3,0(s3)
   12934:	01fe0e33          	add	t3,t3,t6
   12938:	00384f83          	lbu	t6,3(a6)
   1293c:	01c989b3          	add	s3,s3,t3
   12940:	00484e03          	lbu	t3,4(a6)
   12944:	41f70fb3          	sub	t6,a4,t6
   12948:	000fcf83          	lbu	t6,0(t6)
   1294c:	41c70e33          	sub	t3,a4,t3
   12950:	000e4e03          	lbu	t3,0(t3)
   12954:	013f8fb3          	add	t6,t6,s3
   12958:	00064983          	lbu	s3,0(a2)
   1295c:	01fe0e33          	add	t3,t3,t6
   12960:	00164f83          	lbu	t6,1(a2)
   12964:	413709b3          	sub	s3,a4,s3
   12968:	0009c983          	lbu	s3,0(s3)
   1296c:	41f70fb3          	sub	t6,a4,t6
   12970:	000fcf83          	lbu	t6,0(t6)
   12974:	01c989b3          	add	s3,s3,t3
   12978:	00264e03          	lbu	t3,2(a2)
   1297c:	013f8fb3          	add	t6,t6,s3
   12980:	00364983          	lbu	s3,3(a2)
   12984:	41c70e33          	sub	t3,a4,t3
   12988:	000e4e03          	lbu	t3,0(t3)
   1298c:	413709b3          	sub	s3,a4,s3
   12990:	0009c983          	lbu	s3,0(s3)
   12994:	01fe0e33          	add	t3,t3,t6
   12998:	00464f83          	lbu	t6,4(a2)
   1299c:	01c989b3          	add	s3,s3,t3
   129a0:	00564e03          	lbu	t3,5(a2)
   129a4:	41f70fb3          	sub	t6,a4,t6
   129a8:	000fcf83          	lbu	t6,0(t6)
   129ac:	41c70e33          	sub	t3,a4,t3
   129b0:	000e4e03          	lbu	t3,0(t3)
   129b4:	013f8fb3          	add	t6,t6,s3
   129b8:	00664983          	lbu	s3,6(a2)
   129bc:	01fe0e33          	add	t3,t3,t6
   129c0:	0005cf83          	lbu	t6,0(a1)
   129c4:	413709b3          	sub	s3,a4,s3
   129c8:	0009c983          	lbu	s3,0(s3)
   129cc:	41f70fb3          	sub	t6,a4,t6
   129d0:	000fcf83          	lbu	t6,0(t6)
   129d4:	01c989b3          	add	s3,s3,t3
   129d8:	0015ce03          	lbu	t3,1(a1)
   129dc:	013f8fb3          	add	t6,t6,s3
   129e0:	0025c983          	lbu	s3,2(a1)
   129e4:	41c70e33          	sub	t3,a4,t3
   129e8:	000e4e03          	lbu	t3,0(t3)
   129ec:	413709b3          	sub	s3,a4,s3
   129f0:	0009c983          	lbu	s3,0(s3)
   129f4:	01fe0e33          	add	t3,t3,t6
   129f8:	0045cf83          	lbu	t6,4(a1)
   129fc:	01c989b3          	add	s3,s3,t3
   12a00:	0055ce03          	lbu	t3,5(a1)
   12a04:	41f70fb3          	sub	t6,a4,t6
   12a08:	000fcf83          	lbu	t6,0(t6)
   12a0c:	41c70e33          	sub	t3,a4,t3
   12a10:	000e4e03          	lbu	t3,0(t3)
   12a14:	013f8fb3          	add	t6,t6,s3
   12a18:	0065c983          	lbu	s3,6(a1)
   12a1c:	01fe0e33          	add	t3,t3,t6
   12a20:	0006cf83          	lbu	t6,0(a3)
   12a24:	413709b3          	sub	s3,a4,s3
   12a28:	0009c983          	lbu	s3,0(s3)
   12a2c:	41f70fb3          	sub	t6,a4,t6
   12a30:	000fcf83          	lbu	t6,0(t6)
   12a34:	01c989b3          	add	s3,s3,t3
   12a38:	0016ce03          	lbu	t3,1(a3)
   12a3c:	013f8fb3          	add	t6,t6,s3
   12a40:	0026c983          	lbu	s3,2(a3)
   12a44:	41c70e33          	sub	t3,a4,t3
   12a48:	000e4e03          	lbu	t3,0(t3)
   12a4c:	413709b3          	sub	s3,a4,s3
   12a50:	0009c983          	lbu	s3,0(s3)
   12a54:	01fe0e33          	add	t3,t3,t6
   12a58:	0036cf83          	lbu	t6,3(a3)
   12a5c:	01c989b3          	add	s3,s3,t3
   12a60:	0046ce03          	lbu	t3,4(a3)
   12a64:	41f70fb3          	sub	t6,a4,t6
   12a68:	000fcf83          	lbu	t6,0(t6)
   12a6c:	41c70e33          	sub	t3,a4,t3
   12a70:	000e4e03          	lbu	t3,0(t3)
   12a74:	013f8fb3          	add	t6,t6,s3
   12a78:	0056c983          	lbu	s3,5(a3)
   12a7c:	01fe0e33          	add	t3,t3,t6
   12a80:	0066cf83          	lbu	t6,6(a3)
   12a84:	413709b3          	sub	s3,a4,s3
   12a88:	0009c983          	lbu	s3,0(s3)
   12a8c:	41f70fb3          	sub	t6,a4,t6
   12a90:	000fcf83          	lbu	t6,0(t6)
   12a94:	01c989b3          	add	s3,s3,t3
   12a98:	00154e03          	lbu	t3,1(a0)
   12a9c:	013f8fb3          	add	t6,t6,s3
   12aa0:	00254983          	lbu	s3,2(a0)
   12aa4:	41c70e33          	sub	t3,a4,t3
   12aa8:	000e4e03          	lbu	t3,0(t3)
   12aac:	413709b3          	sub	s3,a4,s3
   12ab0:	0009c983          	lbu	s3,0(s3)
   12ab4:	01fe0e33          	add	t3,t3,t6
   12ab8:	00354f83          	lbu	t6,3(a0)
   12abc:	01c989b3          	add	s3,s3,t3
   12ac0:	00454e03          	lbu	t3,4(a0)
   12ac4:	41f70fb3          	sub	t6,a4,t6
   12ac8:	000fcf83          	lbu	t6,0(t6)
   12acc:	41c70e33          	sub	t3,a4,t3
   12ad0:	000e4e03          	lbu	t3,0(t3)
   12ad4:	013f8fb3          	add	t6,t6,s3
   12ad8:	00554983          	lbu	s3,5(a0)
   12adc:	01fe0e33          	add	t3,t3,t6
   12ae0:	00034f83          	lbu	t6,0(t1)
   12ae4:	413709b3          	sub	s3,a4,s3
   12ae8:	0009c983          	lbu	s3,0(s3)
   12aec:	41f70fb3          	sub	t6,a4,t6
   12af0:	000fcf83          	lbu	t6,0(t6)
   12af4:	01c989b3          	add	s3,s3,t3
   12af8:	00134e03          	lbu	t3,1(t1)
   12afc:	013f8fb3          	add	t6,t6,s3
   12b00:	00234983          	lbu	s3,2(t1)
   12b04:	41c70e33          	sub	t3,a4,t3
   12b08:	000e4e03          	lbu	t3,0(t3)
   12b0c:	41370733          	sub	a4,a4,s3
   12b10:	00074703          	lbu	a4,0(a4)
   12b14:	01fe0e33          	add	t3,t3,t6
   12b18:	01c70733          	add	a4,a4,t3
   12b1c:	00ec4663          	blt	s8,a4,12b28 <susan_edges+0x354>
   12b20:	40ec0733          	sub	a4,s8,a4
   12b24:	00ef2623          	sw	a4,12(t5)
   12b28:	00188893          	addi	a7,a7,1
   12b2c:	00180813          	addi	a6,a6,1
   12b30:	00160613          	addi	a2,a2,1
   12b34:	00158593          	addi	a1,a1,1
   12b38:	00168693          	addi	a3,a3,1
   12b3c:	00150513          	addi	a0,a0,1
   12b40:	00130313          	addi	t1,t1,1
   12b44:	004f0f13          	addi	t5,t5,4
   12b48:	d91912e3          	bne	s2,a7,128cc <susan_edges+0xf8>
   12b4c:	00c12f83          	lw	t6,12(sp)
   12b50:	01012983          	lw	s3,16(sp)
   12b54:	00890933          	add	s2,s2,s0
   12b58:	001f8f93          	addi	t6,t6,1
   12b5c:	008383b3          	add	t2,t2,s0
   12b60:	008282b3          	add	t0,t0,s0
   12b64:	d36f9ee3          	bne	t6,s6,128a0 <susan_edges+0xcc>
   12b68:	00800713          	addi	a4,zero,8
   12b6c:	000e8413          	addi	s0,t4,0
   12b70:	4d7756e3          	bge	a4,s7,1383c <susan_edges+0x1068>
   12b74:	07012683          	lw	a3,112(sp)
   12b78:	4cd752e3          	bge	a4,a3,1383c <susan_edges+0x1068>
   12b7c:	fec1a503          	lw	a0,-20(gp) # 2e7fc <__SDATA_BEGIN__+0x14c>
   12b80:	00269893          	slli	a7,a3,0x2
   12b84:	00d88d33          	add	s10,a7,a3
   12b88:	00d88ab3          	add	s5,a7,a3
   12b8c:	ff01a583          	lw	a1,-16(gp) # 2e800 <__SDATA_BEGIN__+0x150>
   12b90:	10a12023          	sw	a0,256(sp)
   12b94:	eb81a503          	lw	a0,-328(gp) # 2e6c8 <__SDATA_BEGIN__+0x18>
   12b98:	ff41a703          	lw	a4,-12(gp) # 2e804 <__SDATA_BEGIN__+0x154>
   12b9c:	12b12423          	sw	a1,296(sp)
   12ba0:	12a12023          	sw	a0,288(sp)
   12ba4:	ebc1a583          	lw	a1,-324(gp) # 2e6cc <__SDATA_BEGIN__+0x1c>
   12ba8:	07012503          	lw	a0,112(sp)
   12bac:	01148833          	add	a6,s1,a7
   12bb0:	ffcb8313          	addi	t1,s7,-4
   12bb4:	12e12e23          	sw	a4,316(sp)
   12bb8:	07012703          	lw	a4,112(sp)
   12bbc:	12612623          	sw	t1,300(sp)
   12bc0:	00380813          	addi	a6,a6,3
   12bc4:	004d8313          	addi	t1,s11,4
   12bc8:	12b12223          	sw	a1,292(sp)
   12bcc:	00050613          	addi	a2,a0,0
   12bd0:	00348593          	addi	a1,s1,3
   12bd4:	ffc50513          	addi	a0,a0,-4
   12bd8:	12b12a23          	sw	a1,308(sp)
   12bdc:	00148693          	addi	a3,s1,1
   12be0:	12612c23          	sw	t1,312(sp)
   12be4:	13012823          	sw	a6,304(sp)
   12be8:	08a12423          	sw	a0,136(sp)
   12bec:	00400a13          	addi	s4,zero,4
   12bf0:	00078493          	addi	s1,a5,0
   12bf4:	000d0593          	addi	a1,s10,0
   12bf8:	13812783          	lw	a5,312(sp)
   12bfc:	0b412e23          	sw	s4,188(sp)
   12c00:	001a0a13          	addi	s4,s4,1
   12c04:	00e787b3          	add	a5,a5,a4
   12c08:	008787b3          	add	a5,a5,s0
   12c0c:	02f12623          	sw	a5,44(sp)
   12c10:	06c12783          	lw	a5,108(sp)
   12c14:	00848733          	add	a4,s1,s0
   12c18:	0ae12c23          	sw	a4,184(sp)
   12c1c:	00289713          	slli	a4,a7,0x2
   12c20:	00e787b3          	add	a5,a5,a4
   12c24:	06f12a23          	sw	a5,116(sp)
   12c28:	00588793          	addi	a5,a7,5
   12c2c:	02f12023          	sw	a5,32(sp)
   12c30:	00458793          	addi	a5,a1,4
   12c34:	02f12223          	sw	a5,36(sp)
   12c38:	00540793          	addi	a5,s0,5
   12c3c:	02f12423          	sw	a5,40(sp)
   12c40:	13412783          	lw	a5,308(sp)
   12c44:	00868db3          	add	s11,a3,s0
   12c48:	10812423          	sw	s0,264(sp)
   12c4c:	00c787b3          	add	a5,a5,a2
   12c50:	00f12623          	sw	a5,12(sp)
   12c54:	13012783          	lw	a5,304(sp)
   12c58:	00c48b33          	add	s6,s1,a2
   12c5c:	00b68d33          	add	s10,a3,a1
   12c60:	008787b3          	add	a5,a5,s0
   12c64:	00b48933          	add	s2,s1,a1
   12c68:	00f12823          	sw	a5,16(sp)
   12c6c:	00400b93          	addi	s7,zero,4
   12c70:	11412223          	sw	s4,260(sp)
   12c74:	00848433          	add	s0,s1,s0
   12c78:	10b12623          	sw	a1,268(sp)
   12c7c:	10c12823          	sw	a2,272(sp)
   12c80:	10d12a23          	sw	a3,276(sp)
   12c84:	10912c23          	sw	s1,280(sp)
   12c88:	11512e23          	sw	s5,284(sp)
   12c8c:	4c80006f          	jal	zero,13154 <susan_edges+0x980>
   12c90:	0b812783          	lw	a5,184(sp)
   12c94:	0c412a03          	lw	s4,196(sp)
   12c98:	002b4383          	lbu	t2,2(s6)
   12c9c:	017787b3          	add	a5,a5,s7
   12ca0:	0007c683          	lbu	a3,0(a5)
   12ca4:	00c12783          	lw	a5,12(sp)
   12ca8:	004b4283          	lbu	t0,4(s6)
   12cac:	006b4e83          	lbu	t4,6(s6)
   12cb0:	0007c983          	lbu	s3,0(a5)
   12cb4:	0027c483          	lbu	s1,2(a5)
   12cb8:	00da06b3          	add	a3,s4,a3
   12cbc:	003b4f83          	lbu	t6,3(s6)
   12cc0:	005b4f03          	lbu	t5,5(s6)
   12cc4:	000dce03          	lbu	t3,0(s11)
   12cc8:	002dc883          	lbu	a7,2(s11)
   12ccc:	003dc803          	lbu	a6,3(s11)
   12cd0:	004dc503          	lbu	a0,4(s11)
   12cd4:	005dc583          	lbu	a1,5(s11)
   12cd8:	006dc603          	lbu	a2,6(s11)
   12cdc:	00144703          	lbu	a4,1(s0)
   12ce0:	00244783          	lbu	a5,2(s0)
   12ce4:	413689b3          	sub	s3,a3,s3
   12ce8:	409684b3          	sub	s1,a3,s1
   12cec:	407683b3          	sub	t2,a3,t2
   12cf0:	405682b3          	sub	t0,a3,t0
   12cf4:	41d68eb3          	sub	t4,a3,t4
   12cf8:	0009c983          	lbu	s3,0(s3)
   12cfc:	0004c483          	lbu	s1,0(s1)
   12d00:	0003c383          	lbu	t2,0(t2)
   12d04:	0002c283          	lbu	t0,0(t0)
   12d08:	000ece83          	lbu	t4,0(t4)
   12d0c:	001dc303          	lbu	t1,1(s11)
   12d10:	41f68fb3          	sub	t6,a3,t6
   12d14:	41e68f33          	sub	t5,a3,t5
   12d18:	41c68e33          	sub	t3,a3,t3
   12d1c:	411688b3          	sub	a7,a3,a7
   12d20:	41068833          	sub	a6,a3,a6
   12d24:	40a68533          	sub	a0,a3,a0
   12d28:	40b685b3          	sub	a1,a3,a1
   12d2c:	40c68633          	sub	a2,a3,a2
   12d30:	40e68733          	sub	a4,a3,a4
   12d34:	40f687b3          	sub	a5,a3,a5
   12d38:	000fcf83          	lbu	t6,0(t6)
   12d3c:	000f4f03          	lbu	t5,0(t5)
   12d40:	03312a23          	sw	s3,52(sp)
   12d44:	02912c23          	sw	s1,56(sp)
   12d48:	04712623          	sw	t2,76(sp)
   12d4c:	04512823          	sw	t0,80(sp)
   12d50:	05d12a23          	sw	t4,84(sp)
   12d54:	000e4e03          	lbu	t3,0(t3)
   12d58:	0008c883          	lbu	a7,0(a7)
   12d5c:	00084803          	lbu	a6,0(a6)
   12d60:	00054503          	lbu	a0,0(a0)
   12d64:	0005c583          	lbu	a1,0(a1)
   12d68:	00064603          	lbu	a2,0(a2)
   12d6c:	00074703          	lbu	a4,0(a4)
   12d70:	0007c783          	lbu	a5,0(a5)
   12d74:	40668333          	sub	t1,a3,t1
   12d78:	00034483          	lbu	s1,0(t1)
   12d7c:	00344c03          	lbu	s8,3(s0)
   12d80:	00544a83          	lbu	s5,5(s0)
   12d84:	00644a03          	lbu	s4,6(s0)
   12d88:	00744983          	lbu	s3,7(s0)
   12d8c:	001d4383          	lbu	t2,1(s10)
   12d90:	002d4283          	lbu	t0,2(s10)
   12d94:	003d4e83          	lbu	t4,3(s10)
   12d98:	00294303          	lbu	t1,2(s2)
   12d9c:	01c12c23          	sw	t3,24(sp)
   12da0:	03112e23          	sw	a7,60(sp)
   12da4:	004d4e03          	lbu	t3,4(s10)
   12da8:	000d4883          	lbu	a7,0(s10)
   12dac:	05012c23          	sw	a6,88(sp)
   12db0:	04a12023          	sw	a0,64(sp)
   12db4:	006d4803          	lbu	a6,6(s10)
   12db8:	00394503          	lbu	a0,3(s2)
   12dbc:	02b12823          	sw	a1,48(sp)
   12dc0:	00c12e23          	sw	a2,28(sp)
   12dc4:	00494583          	lbu	a1,4(s2)
   12dc8:	00594603          	lbu	a2,5(s2)
   12dcc:	04e12223          	sw	a4,68(sp)
   12dd0:	06f12c23          	sw	a5,120(sp)
   12dd4:	005d4703          	lbu	a4,5(s10)
   12dd8:	00694783          	lbu	a5,6(s2)
   12ddc:	41468a33          	sub	s4,a3,s4
   12de0:	000a4a03          	lbu	s4,0(s4)
   12de4:	40f687b3          	sub	a5,a3,a5
   12de8:	0007c783          	lbu	a5,0(a5)
   12dec:	41c68e33          	sub	t3,a3,t3
   12df0:	40c68633          	sub	a2,a3,a2
   12df4:	06f12423          	sw	a5,104(sp)
   12df8:	00c12783          	lw	a5,12(sp)
   12dfc:	40b685b3          	sub	a1,a3,a1
   12e00:	09412223          	sw	s4,132(sp)
   12e04:	000e4a03          	lbu	s4,0(t3)
   12e08:	00064e03          	lbu	t3,0(a2)
   12e0c:	0017c603          	lbu	a2,1(a5)
   12e10:	01012783          	lw	a5,16(sp)
   12e14:	0005c583          	lbu	a1,0(a1)
   12e18:	41868c33          	sub	s8,a3,s8
   12e1c:	0027c783          	lbu	a5,2(a5)
   12e20:	41568ab3          	sub	s5,a3,s5
   12e24:	413689b3          	sub	s3,a3,s3
   12e28:	41d68eb3          	sub	t4,a3,t4
   12e2c:	40668333          	sub	t1,a3,t1
   12e30:	000c4c03          	lbu	s8,0(s8)
   12e34:	000aca83          	lbu	s5,0(s5)
   12e38:	0009c983          	lbu	s3,0(s3)
   12e3c:	000ece83          	lbu	t4,0(t4)
   12e40:	00034303          	lbu	t1,0(t1)
   12e44:	06b12223          	sw	a1,100(sp)
   12e48:	01012583          	lw	a1,16(sp)
   12e4c:	407683b3          	sub	t2,a3,t2
   12e50:	405682b3          	sub	t0,a3,t0
   12e54:	40a68533          	sub	a0,a3,a0
   12e58:	40c68633          	sub	a2,a3,a2
   12e5c:	411688b3          	sub	a7,a3,a7
   12e60:	40e68733          	sub	a4,a3,a4
   12e64:	41068833          	sub	a6,a3,a6
   12e68:	40f687b3          	sub	a5,a3,a5
   12e6c:	0008c883          	lbu	a7,0(a7)
   12e70:	00084803          	lbu	a6,0(a6)
   12e74:	00074703          	lbu	a4,0(a4)
   12e78:	0005c583          	lbu	a1,0(a1)
   12e7c:	07812e23          	sw	s8,124(sp)
   12e80:	09512023          	sw	s5,128(sp)
   12e84:	0003cc03          	lbu	s8,0(t2)
   12e88:	0002ca83          	lbu	s5,0(t0)
   12e8c:	05312423          	sw	s3,72(sp)
   12e90:	05d12e23          	sw	t4,92(sp)
   12e94:	00064983          	lbu	s3,0(a2)
   12e98:	00054e83          	lbu	t4,0(a0)
   12e9c:	06612023          	sw	t1,96(sp)
   12ea0:	0007c783          	lbu	a5,0(a5)
   12ea4:	03412503          	lw	a0,52(sp)
   12ea8:	01012603          	lw	a2,16(sp)
   12eac:	00181313          	slli	t1,a6,0x1
   12eb0:	00a989b3          	add	s3,s3,a0
   12eb4:	00179513          	slli	a0,a5,0x1
   12eb8:	00f50533          	add	a0,a0,a5
   12ebc:	0aa12223          	sw	a0,164(sp)
   12ec0:	001f9513          	slli	a0,t6,0x1
   12ec4:	08a12623          	sw	a0,140(sp)
   12ec8:	001f1513          	slli	a0,t5,0x1
   12ecc:	08a12823          	sw	a0,144(sp)
   12ed0:	00149513          	slli	a0,s1,0x1
   12ed4:	0aa12423          	sw	a0,168(sp)
   12ed8:	03012503          	lw	a0,48(sp)
   12edc:	00164603          	lbu	a2,1(a2)
   12ee0:	40b685b3          	sub	a1,a3,a1
   12ee4:	00151513          	slli	a0,a0,0x1
   12ee8:	08a12a23          	sw	a0,148(sp)
   12eec:	001c1513          	slli	a0,s8,0x1
   12ef0:	40c686b3          	sub	a3,a3,a2
   12ef4:	01030333          	add	t1,t1,a6
   12ef8:	0c012603          	lw	a2,192(sp)
   12efc:	01412383          	lw	t2,20(sp)
   12f00:	0aa12623          	sw	a0,172(sp)
   12f04:	00171513          	slli	a0,a4,0x1
   12f08:	00289293          	slli	t0,a7,0x2
   12f0c:	0a612023          	sw	t1,160(sp)
   12f10:	08a12c23          	sw	a0,152(sp)
   12f14:	03812303          	lw	t1,56(sp)
   12f18:	001e9513          	slli	a0,t4,0x1
   12f1c:	405882b3          	sub	t0,a7,t0
   12f20:	0aa12823          	sw	a0,176(sp)
   12f24:	001e1513          	slli	a0,t3,0x1
   12f28:	08512e23          	sw	t0,156(sp)
   12f2c:	40760633          	sub	a2,a2,t2
   12f30:	0006c283          	lbu	t0,0(a3)
   12f34:	0aa12a23          	sw	a0,180(sp)
   12f38:	25800693          	addi	a3,zero,600
   12f3c:	0005cc83          	lbu	s9,0(a1)
   12f40:	006989b3          	add	s3,s3,t1
   12f44:	38c6c463          	blt	a3,a2,132cc <susan_edges+0xaf8>
   12f48:	04c12683          	lw	a3,76(sp)
   12f4c:	00399613          	slli	a2,s3,0x3
   12f50:	05012583          	lw	a1,80(sp)
   12f54:	00269393          	slli	t2,a3,0x2
   12f58:	01360633          	add	a2,a2,s3
   12f5c:	00c38633          	add	a2,t2,a2
   12f60:	002f9693          	slli	a3,t6,0x2
   12f64:	00c686b3          	add	a3,a3,a2
   12f68:	00259593          	slli	a1,a1,0x2
   12f6c:	00d585b3          	add	a1,a1,a3
   12f70:	05412683          	lw	a3,84(sp)
   12f74:	002f1613          	slli	a2,t5,0x2
   12f78:	00b60633          	add	a2,a2,a1
   12f7c:	01812583          	lw	a1,24(sp)
   12f80:	00269693          	slli	a3,a3,0x2
   12f84:	00c68633          	add	a2,a3,a2
   12f88:	00b60633          	add	a2,a2,a1
   12f8c:	03c12583          	lw	a1,60(sp)
   12f90:	00960633          	add	a2,a2,s1
   12f94:	06412503          	lw	a0,100(sp)
   12f98:	00b60633          	add	a2,a2,a1
   12f9c:	05812583          	lw	a1,88(sp)
   12fa0:	00251513          	slli	a0,a0,0x2
   12fa4:	00329313          	slli	t1,t0,0x3
   12fa8:	00b60633          	add	a2,a2,a1
   12fac:	04012583          	lw	a1,64(sp)
   12fb0:	00530333          	add	t1,t1,t0
   12fb4:	00b60633          	add	a2,a2,a1
   12fb8:	03012583          	lw	a1,48(sp)
   12fbc:	00b60633          	add	a2,a2,a1
   12fc0:	01c12583          	lw	a1,28(sp)
   12fc4:	00b60633          	add	a2,a2,a1
   12fc8:	01160633          	add	a2,a2,a7
   12fcc:	05c12583          	lw	a1,92(sp)
   12fd0:	01860633          	add	a2,a2,s8
   12fd4:	01560633          	add	a2,a2,s5
   12fd8:	00b60633          	add	a2,a2,a1
   12fdc:	06012583          	lw	a1,96(sp)
   12fe0:	01460633          	add	a2,a2,s4
   12fe4:	00e60633          	add	a2,a2,a4
   12fe8:	00259593          	slli	a1,a1,0x2
   12fec:	01060633          	add	a2,a2,a6
   12ff0:	00c58633          	add	a2,a1,a2
   12ff4:	04b12623          	sw	a1,76(sp)
   12ff8:	002e9593          	slli	a1,t4,0x2
   12ffc:	00c585b3          	add	a1,a1,a2
   13000:	00b50633          	add	a2,a0,a1
   13004:	06812503          	lw	a0,104(sp)
   13008:	002e1593          	slli	a1,t3,0x2
   1300c:	00c585b3          	add	a1,a1,a2
   13010:	00251993          	slli	s3,a0,0x2
   13014:	003c9613          	slli	a2,s9,0x3
   13018:	00b985b3          	add	a1,s3,a1
   1301c:	01960633          	add	a2,a2,s9
   13020:	00b60633          	add	a2,a2,a1
   13024:	00379593          	slli	a1,a5,0x3
   13028:	00c30333          	add	t1,t1,a2
   1302c:	00f585b3          	add	a1,a1,a5
   13030:	006585b3          	add	a1,a1,t1
   13034:	14059263          	bne	a1,zero,13178 <susan_edges+0x9a4>
   13038:	02412703          	lw	a4,36(sp)
   1303c:	00000513          	addi	a0,zero,0
   13040:	00200613          	addi	a2,zero,2
   13044:	00170693          	addi	a3,a4,1
   13048:	00100793          	addi	a5,zero,1
   1304c:	06c12803          	lw	a6,108(sp)
   13050:	00271713          	slli	a4,a4,0x2
   13054:	00e80733          	add	a4,a6,a4
   13058:	00072703          	lw	a4,0(a4)
   1305c:	01412803          	lw	a6,20(sp)
   13060:	09075a63          	bge	a4,a6,130f4 <susan_edges+0x920>
   13064:	0bc12703          	lw	a4,188(sp)
   13068:	40f707b3          	sub	a5,a4,a5
   1306c:	07012703          	lw	a4,112(sp)
   13070:	02e787b3          	mul	a5,a5,a4
   13074:	06c12703          	lw	a4,108(sp)
   13078:	017787b3          	add	a5,a5,s7
   1307c:	40b787b3          	sub	a5,a5,a1
   13080:	00279793          	slli	a5,a5,0x2
   13084:	00f707b3          	add	a5,a4,a5
   13088:	0007a783          	lw	a5,0(a5)
   1308c:	06f84463          	blt	a6,a5,130f4 <susan_edges+0x920>
   13090:	0bc12783          	lw	a5,188(sp)
   13094:	00c78733          	add	a4,a5,a2
   13098:	07012783          	lw	a5,112(sp)
   1309c:	02f70733          	mul	a4,a4,a5
   130a0:	00ab87b3          	add	a5,s7,a0
   130a4:	00e787b3          	add	a5,a5,a4
   130a8:	06c12703          	lw	a4,108(sp)
   130ac:	00279793          	slli	a5,a5,0x2
   130b0:	00f707b3          	add	a5,a4,a5
   130b4:	0007a783          	lw	a5,0(a5)
   130b8:	0307de63          	bge	a5,a6,130f4 <susan_edges+0x920>
   130bc:	0bc12783          	lw	a5,188(sp)
   130c0:	07012703          	lw	a4,112(sp)
   130c4:	40c787b3          	sub	a5,a5,a2
   130c8:	02e787b3          	mul	a5,a5,a4
   130cc:	06c12703          	lw	a4,108(sp)
   130d0:	017787b3          	add	a5,a5,s7
   130d4:	40a787b3          	sub	a5,a5,a0
   130d8:	00279793          	slli	a5,a5,0x2
   130dc:	00f707b3          	add	a5,a4,a5
   130e0:	0007a783          	lw	a5,0(a5)
   130e4:	00f84863          	blt	a6,a5,130f4 <susan_edges+0x920>
   130e8:	02c12703          	lw	a4,44(sp)
   130ec:	00200793          	addi	a5,zero,2
   130f0:	00f70023          	sb	a5,0(a4)
   130f4:	02c12783          	lw	a5,44(sp)
   130f8:	001b8b93          	addi	s7,s7,1
   130fc:	02d12223          	sw	a3,36(sp)
   13100:	00178793          	addi	a5,a5,1
   13104:	02f12623          	sw	a5,44(sp)
   13108:	02012783          	lw	a5,32(sp)
   1310c:	001b0b13          	addi	s6,s6,1
   13110:	001d8d93          	addi	s11,s11,1
   13114:	00178793          	addi	a5,a5,1
   13118:	02f12023          	sw	a5,32(sp)
   1311c:	02812783          	lw	a5,40(sp)
   13120:	00140413          	addi	s0,s0,1
   13124:	001d0d13          	addi	s10,s10,1
   13128:	00178793          	addi	a5,a5,1
   1312c:	02f12423          	sw	a5,40(sp)
   13130:	00c12783          	lw	a5,12(sp)
   13134:	00190913          	addi	s2,s2,1
   13138:	00178793          	addi	a5,a5,1
   1313c:	00f12623          	sw	a5,12(sp)
   13140:	01012783          	lw	a5,16(sp)
   13144:	00178793          	addi	a5,a5,1
   13148:	00f12823          	sw	a5,16(sp)
   1314c:	08812783          	lw	a5,136(sp)
   13150:	5efb8263          	beq	s7,a5,13734 <susan_edges+0xf60>
   13154:	07412703          	lw	a4,116(sp)
   13158:	002b9793          	slli	a5,s7,0x2
   1315c:	00f707b3          	add	a5,a4,a5
   13160:	0007a783          	lw	a5,0(a5)
   13164:	00f12a23          	sw	a5,20(sp)
   13168:	b2f044e3          	blt	zero,a5,12c90 <susan_edges+0x4bc>
   1316c:	02412783          	lw	a5,36(sp)
   13170:	00178693          	addi	a3,a5,1
   13174:	f81ff06f          	jal	zero,130f4 <susan_edges+0x920>
   13178:	04b12c23          	sw	a1,88(sp)
   1317c:	03412603          	lw	a2,52(sp)
   13180:	03812583          	lw	a1,56(sp)
   13184:	04d12823          	sw	a3,80(sp)
   13188:	00249493          	slli	s1,s1,0x2
   1318c:	00b60633          	add	a2,a2,a1
   13190:	01812583          	lw	a1,24(sp)
   13194:	00c38633          	add	a2,t2,a2
   13198:	01f60633          	add	a2,a2,t6
   1319c:	01e60633          	add	a2,a2,t5
   131a0:	00359513          	slli	a0,a1,0x3
   131a4:	00b50533          	add	a0,a0,a1
   131a8:	00c68633          	add	a2,a3,a2
   131ac:	03c12683          	lw	a3,60(sp)
   131b0:	00c50533          	add	a0,a0,a2
   131b4:	00a48633          	add	a2,s1,a0
   131b8:	00d60633          	add	a2,a2,a3
   131bc:	03012683          	lw	a3,48(sp)
   131c0:	002c1c13          	slli	s8,s8,0x2
   131c4:	00271713          	slli	a4,a4,0x2
   131c8:	00269313          	slli	t1,a3,0x2
   131cc:	04012683          	lw	a3,64(sp)
   131d0:	04712a23          	sw	t2,84(sp)
   131d4:	00d60633          	add	a2,a2,a3
   131d8:	01c12683          	lw	a3,28(sp)
   131dc:	00c30633          	add	a2,t1,a2
   131e0:	00369513          	slli	a0,a3,0x3
   131e4:	00d50533          	add	a0,a0,a3
   131e8:	04412683          	lw	a3,68(sp)
   131ec:	00c50533          	add	a0,a0,a2
   131f0:	00369313          	slli	t1,a3,0x3
   131f4:	00d30333          	add	t1,t1,a3
   131f8:	07812683          	lw	a3,120(sp)
   131fc:	00a30333          	add	t1,t1,a0
   13200:	00269613          	slli	a2,a3,0x2
   13204:	07c12683          	lw	a3,124(sp)
   13208:	00660633          	add	a2,a2,t1
   1320c:	00d60633          	add	a2,a2,a3
   13210:	08412683          	lw	a3,132(sp)
   13214:	00269313          	slli	t1,a3,0x2
   13218:	08012683          	lw	a3,128(sp)
   1321c:	00d60633          	add	a2,a2,a3
   13220:	04812683          	lw	a3,72(sp)
   13224:	00c30633          	add	a2,t1,a2
   13228:	00389313          	slli	t1,a7,0x3
   1322c:	00369513          	slli	a0,a3,0x3
   13230:	00d50533          	add	a0,a0,a3
   13234:	01130333          	add	t1,t1,a7
   13238:	00c50533          	add	a0,a0,a2
   1323c:	00a30333          	add	t1,t1,a0
   13240:	006c0c33          	add	s8,s8,t1
   13244:	015c0c33          	add	s8,s8,s5
   13248:	00381613          	slli	a2,a6,0x3
   1324c:	014c0c33          	add	s8,s8,s4
   13250:	01060633          	add	a2,a2,a6
   13254:	01870733          	add	a4,a4,s8
   13258:	00e60533          	add	a0,a2,a4
   1325c:	04c12703          	lw	a4,76(sp)
   13260:	00a70533          	add	a0,a4,a0
   13264:	01d50533          	add	a0,a0,t4
   13268:	01c50533          	add	a0,a0,t3
   1326c:	00a98533          	add	a0,s3,a0
   13270:	01950533          	add	a0,a0,s9
   13274:	00f50533          	add	a0,a0,a5
   13278:	1c8060ef          	jal	ra,19440 <__floatsisf>
   1327c:	00050493          	addi	s1,a0,0
   13280:	05812503          	lw	a0,88(sp)
   13284:	1bc060ef          	jal	ra,19440 <__floatsisf>
   13288:	00050593          	addi	a1,a0,0
   1328c:	00048513          	addi	a0,s1,0
   13290:	1e1050ef          	jal	ra,18c70 <__divsf3>
   13294:	10012583          	lw	a1,256(sp)
   13298:	00050493          	addi	s1,a0,0
   1329c:	589050ef          	jal	ra,19024 <__lesf2>
   132a0:	05012683          	lw	a3,80(sp)
   132a4:	05412383          	lw	t2,84(sp)
   132a8:	36055663          	bge	a0,zero,13614 <susan_edges+0xe40>
   132ac:	02412783          	lw	a5,36(sp)
   132b0:	02012703          	lw	a4,32(sp)
   132b4:	00200513          	addi	a0,zero,2
   132b8:	00178693          	addi	a3,a5,1
   132bc:	00000613          	addi	a2,zero,0
   132c0:	00100593          	addi	a1,zero,1
   132c4:	00000793          	addi	a5,zero,0
   132c8:	d85ff06f          	jal	zero,1304c <susan_edges+0x878>
   132cc:	0ec12a23          	sw	a2,244(sp)
   132d0:	04c12603          	lw	a2,76(sp)
   132d4:	00299693          	slli	a3,s3,0x2
   132d8:	40d986b3          	sub	a3,s3,a3
   132dc:	00161593          	slli	a1,a2,0x1
   132e0:	08c12603          	lw	a2,140(sp)
   132e4:	03412503          	lw	a0,52(sp)
   132e8:	40b686b3          	sub	a3,a3,a1
   132ec:	40c686b3          	sub	a3,a3,a2
   132f0:	05012603          	lw	a2,80(sp)
   132f4:	40a30533          	sub	a0,t1,a0
   132f8:	40b50533          	sub	a0,a0,a1
   132fc:	00161593          	slli	a1,a2,0x1
   13300:	05412603          	lw	a2,84(sp)
   13304:	40b686b3          	sub	a3,a3,a1
   13308:	41f50533          	sub	a0,a0,t6
   1330c:	00161313          	slli	t1,a2,0x1
   13310:	01812603          	lw	a2,24(sp)
   13314:	01e50533          	add	a0,a0,t5
   13318:	00a30533          	add	a0,t1,a0
   1331c:	00261593          	slli	a1,a2,0x2
   13320:	40b605b3          	sub	a1,a2,a1
   13324:	09012603          	lw	a2,144(sp)
   13328:	00a585b3          	add	a1,a1,a0
   1332c:	0ff12823          	sw	t6,240(sp)
   13330:	40c686b3          	sub	a3,a3,a2
   13334:	00149613          	slli	a2,s1,0x1
   13338:	40c585b3          	sub	a1,a1,a2
   1333c:	01812603          	lw	a2,24(sp)
   13340:	406686b3          	sub	a3,a3,t1
   13344:	0fe12623          	sw	t5,236(sp)
   13348:	40c686b3          	sub	a3,a3,a2
   1334c:	03c12603          	lw	a2,60(sp)
   13350:	409686b3          	sub	a3,a3,s1
   13354:	0f112423          	sw	a7,232(sp)
   13358:	40c585b3          	sub	a1,a1,a2
   1335c:	04012603          	lw	a2,64(sp)
   13360:	00129393          	slli	t2,t0,0x1
   13364:	005383b3          	add	t2,t2,t0
   13368:	00c585b3          	add	a1,a1,a2
   1336c:	01c12603          	lw	a2,28(sp)
   13370:	00161513          	slli	a0,a2,0x1
   13374:	03c12603          	lw	a2,60(sp)
   13378:	40c686b3          	sub	a3,a3,a2
   1337c:	09412603          	lw	a2,148(sp)
   13380:	00c585b3          	add	a1,a1,a2
   13384:	01c12603          	lw	a2,28(sp)
   13388:	00c50533          	add	a0,a0,a2
   1338c:	04412603          	lw	a2,68(sp)
   13390:	00b50533          	add	a0,a0,a1
   13394:	00261593          	slli	a1,a2,0x2
   13398:	05812603          	lw	a2,88(sp)
   1339c:	40c686b3          	sub	a3,a3,a2
   133a0:	04412603          	lw	a2,68(sp)
   133a4:	40b605b3          	sub	a1,a2,a1
   133a8:	04012603          	lw	a2,64(sp)
   133ac:	00a585b3          	add	a1,a1,a0
   133b0:	40c68533          	sub	a0,a3,a2
   133b4:	07812683          	lw	a3,120(sp)
   133b8:	03012603          	lw	a2,48(sp)
   133bc:	00169693          	slli	a3,a3,0x1
   133c0:	40d586b3          	sub	a3,a1,a3
   133c4:	40c505b3          	sub	a1,a0,a2
   133c8:	01c12603          	lw	a2,28(sp)
   133cc:	40c585b3          	sub	a1,a1,a2
   133d0:	07c12603          	lw	a2,124(sp)
   133d4:	011585b3          	add	a1,a1,a7
   133d8:	018585b3          	add	a1,a1,s8
   133dc:	40c686b3          	sub	a3,a3,a2
   133e0:	08012603          	lw	a2,128(sp)
   133e4:	015585b3          	add	a1,a1,s5
   133e8:	00c686b3          	add	a3,a3,a2
   133ec:	08412603          	lw	a2,132(sp)
   133f0:	00161513          	slli	a0,a2,0x1
   133f4:	00d50533          	add	a0,a0,a3
   133f8:	04812683          	lw	a3,72(sp)
   133fc:	04812603          	lw	a2,72(sp)
   13400:	00169693          	slli	a3,a3,0x1
   13404:	00c686b3          	add	a3,a3,a2
   13408:	05c12603          	lw	a2,92(sp)
   1340c:	00a686b3          	add	a3,a3,a0
   13410:	00c585b3          	add	a1,a1,a2
   13414:	014585b3          	add	a1,a1,s4
   13418:	09c12603          	lw	a2,156(sp)
   1341c:	00e585b3          	add	a1,a1,a4
   13420:	0ee12223          	sw	a4,228(sp)
   13424:	06012703          	lw	a4,96(sp)
   13428:	00c686b3          	add	a3,a3,a2
   1342c:	001c1613          	slli	a2,s8,0x1
   13430:	40c686b3          	sub	a3,a3,a2
   13434:	00171513          	slli	a0,a4,0x1
   13438:	09812703          	lw	a4,152(sp)
   1343c:	415686b3          	sub	a3,a3,s5
   13440:	014686b3          	add	a3,a3,s4
   13444:	00e686b3          	add	a3,a3,a4
   13448:	0a012703          	lw	a4,160(sp)
   1344c:	010585b3          	add	a1,a1,a6
   13450:	00b505b3          	add	a1,a0,a1
   13454:	00e686b3          	add	a3,a3,a4
   13458:	001e9713          	slli	a4,t4,0x1
   1345c:	00e585b3          	add	a1,a1,a4
   13460:	06412703          	lw	a4,100(sp)
   13464:	40a686b3          	sub	a3,a3,a0
   13468:	41d686b3          	sub	a3,a3,t4
   1346c:	00171513          	slli	a0,a4,0x1
   13470:	00b50533          	add	a0,a0,a1
   13474:	001e1713          	slli	a4,t3,0x1
   13478:	00e50533          	add	a0,a0,a4
   1347c:	06812703          	lw	a4,104(sp)
   13480:	01c686b3          	add	a3,a3,t3
   13484:	001c9593          	slli	a1,s9,0x1
   13488:	00171313          	slli	t1,a4,0x1
   1348c:	00a30533          	add	a0,t1,a0
   13490:	00d30333          	add	t1,t1,a3
   13494:	41930333          	sub	t1,t1,s9
   13498:	00f30333          	add	t1,t1,a5
   1349c:	0cf12823          	sw	a5,208(sp)
   134a0:	019585b3          	add	a1,a1,s9
   134a4:	0a412783          	lw	a5,164(sp)
   134a8:	00a585b3          	add	a1,a1,a0
   134ac:	00b383b3          	add	t2,t2,a1
   134b0:	00f383b3          	add	t2,t2,a5
   134b4:	027386b3          	mul	a3,t2,t2
   134b8:	0f012023          	sw	a6,224(sp)
   134bc:	0dd12e23          	sw	t4,220(sp)
   134c0:	0dc12c23          	sw	t3,216(sp)
   134c4:	0c512a23          	sw	t0,212(sp)
   134c8:	0e612e23          	sw	t1,252(sp)
   134cc:	0e712c23          	sw	t2,248(sp)
   134d0:	02630533          	mul	a0,t1,t1
   134d4:	00d50533          	add	a0,a0,a3
   134d8:	769050ef          	jal	ra,19440 <__floatsisf>
   134dc:	070060ef          	jal	ra,1954c <__extendsfdf2>
   134e0:	029020ef          	jal	ra,15d08 <sqrt>
   134e4:	140060ef          	jal	ra,19624 <__truncdfsf2>
   134e8:	064060ef          	jal	ra,1954c <__extendsfdf2>
   134ec:	0ca12423          	sw	a0,200(sp)
   134f0:	0f412503          	lw	a0,244(sp)
   134f4:	0cb12623          	sw	a1,204(sp)
   134f8:	749050ef          	jal	ra,19440 <__floatsisf>
   134fc:	050060ef          	jal	ra,1954c <__extendsfdf2>
   13500:	12012603          	lw	a2,288(sp)
   13504:	12412683          	lw	a3,292(sp)
   13508:	490040ef          	jal	ra,17998 <__muldf3>
   1350c:	00050613          	addi	a2,a0,0
   13510:	00058693          	addi	a3,a1,0
   13514:	0c812503          	lw	a0,200(sp)
   13518:	0cc12583          	lw	a1,204(sp)
   1351c:	2cc040ef          	jal	ra,177e8 <__gedf2>
   13520:	0d012783          	lw	a5,208(sp)
   13524:	0d412283          	lw	t0,212(sp)
   13528:	0d812e03          	lw	t3,216(sp)
   1352c:	0dc12e83          	lw	t4,220(sp)
   13530:	0e012803          	lw	a6,224(sp)
   13534:	0e412703          	lw	a4,228(sp)
   13538:	0e812883          	lw	a7,232(sp)
   1353c:	0ec12f03          	lw	t5,236(sp)
   13540:	0f012f83          	lw	t6,240(sp)
   13544:	a0a052e3          	bge	zero,a0,12f48 <susan_edges+0x774>
   13548:	0fc12303          	lw	t1,252(sp)
   1354c:	24031463          	bne	t1,zero,13794 <susan_edges+0xfc0>
   13550:	02412683          	lw	a3,36(sp)
   13554:	00200793          	addi	a5,zero,2
   13558:	00100713          	addi	a4,zero,1
   1355c:	06c12603          	lw	a2,108(sp)
   13560:	00269693          	slli	a3,a3,0x2
   13564:	01412583          	lw	a1,20(sp)
   13568:	00d606b3          	add	a3,a2,a3
   1356c:	0006a603          	lw	a2,0(a3)
   13570:	02412683          	lw	a3,36(sp)
   13574:	00168693          	addi	a3,a3,1
   13578:	b6b65ee3          	bge	a2,a1,130f4 <susan_edges+0x920>
   1357c:	0bc12603          	lw	a2,188(sp)
   13580:	40e60733          	sub	a4,a2,a4
   13584:	07012603          	lw	a2,112(sp)
   13588:	02c70733          	mul	a4,a4,a2
   1358c:	06c12603          	lw	a2,108(sp)
   13590:	01770733          	add	a4,a4,s7
   13594:	40670733          	sub	a4,a4,t1
   13598:	00271713          	slli	a4,a4,0x2
   1359c:	00e60733          	add	a4,a2,a4
   135a0:	00072703          	lw	a4,0(a4)
   135a4:	b4e5c8e3          	blt	a1,a4,130f4 <susan_edges+0x920>
   135a8:	0bc12703          	lw	a4,188(sp)
   135ac:	07012603          	lw	a2,112(sp)
   135b0:	00131313          	slli	t1,t1,0x1
   135b4:	00f70733          	add	a4,a4,a5
   135b8:	02c70733          	mul	a4,a4,a2
   135bc:	01730633          	add	a2,t1,s7
   135c0:	00e60733          	add	a4,a2,a4
   135c4:	06c12603          	lw	a2,108(sp)
   135c8:	00271713          	slli	a4,a4,0x2
   135cc:	00e60733          	add	a4,a2,a4
   135d0:	00072703          	lw	a4,0(a4)
   135d4:	b2b750e3          	bge	a4,a1,130f4 <susan_edges+0x920>
   135d8:	0bc12703          	lw	a4,188(sp)
   135dc:	40f707b3          	sub	a5,a4,a5
   135e0:	07012703          	lw	a4,112(sp)
   135e4:	02e787b3          	mul	a5,a5,a4
   135e8:	06c12703          	lw	a4,108(sp)
   135ec:	017787b3          	add	a5,a5,s7
   135f0:	406787b3          	sub	a5,a5,t1
   135f4:	00279793          	slli	a5,a5,0x2
   135f8:	00f707b3          	add	a5,a4,a5
   135fc:	0007a783          	lw	a5,0(a5)
   13600:	aef5cae3          	blt	a1,a5,130f4 <susan_edges+0x920>
   13604:	02c12703          	lw	a4,44(sp)
   13608:	00100793          	addi	a5,zero,1
   1360c:	00f70023          	sb	a5,0(a4)
   13610:	ae5ff06f          	jal	zero,130f4 <susan_edges+0x920>
   13614:	12812583          	lw	a1,296(sp)
   13618:	00048513          	addi	a0,s1,0
   1361c:	04d12223          	sw	a3,68(sp)
   13620:	02712823          	sw	t2,48(sp)
   13624:	169050ef          	jal	ra,18f8c <__gesf2>
   13628:	03012383          	lw	t2,48(sp)
   1362c:	04412683          	lw	a3,68(sp)
   13630:	1aa04e63          	blt	zero,a0,137ec <susan_edges+0x1018>
   13634:	03412783          	lw	a5,52(sp)
   13638:	03412703          	lw	a4,52(sp)
   1363c:	03812603          	lw	a2,56(sp)
   13640:	00179793          	slli	a5,a5,0x1
   13644:	00e78733          	add	a4,a5,a4
   13648:	03812783          	lw	a5,56(sp)
   1364c:	00279793          	slli	a5,a5,0x2
   13650:	40f607b3          	sub	a5,a2,a5
   13654:	00f707b3          	add	a5,a4,a5
   13658:	08c12703          	lw	a4,140(sp)
   1365c:	00f387b3          	add	a5,t2,a5
   13660:	00e787b3          	add	a5,a5,a4
   13664:	09012703          	lw	a4,144(sp)
   13668:	40e787b3          	sub	a5,a5,a4
   1366c:	01812703          	lw	a4,24(sp)
   13670:	40d787b3          	sub	a5,a5,a3
   13674:	01812683          	lw	a3,24(sp)
   13678:	00171713          	slli	a4,a4,0x1
   1367c:	00d70733          	add	a4,a4,a3
   13680:	00f70733          	add	a4,a4,a5
   13684:	0a812783          	lw	a5,168(sp)
   13688:	09412683          	lw	a3,148(sp)
   1368c:	00f70733          	add	a4,a4,a5
   13690:	03c12783          	lw	a5,60(sp)
   13694:	00f70733          	add	a4,a4,a5
   13698:	04012783          	lw	a5,64(sp)
   1369c:	40f70733          	sub	a4,a4,a5
   136a0:	01c12783          	lw	a5,28(sp)
   136a4:	40d70733          	sub	a4,a4,a3
   136a8:	01c12683          	lw	a3,28(sp)
   136ac:	00279793          	slli	a5,a5,0x2
   136b0:	40f687b3          	sub	a5,a3,a5
   136b4:	00e787b3          	add	a5,a5,a4
   136b8:	09c12703          	lw	a4,156(sp)
   136bc:	00e787b3          	add	a5,a5,a4
   136c0:	0ac12703          	lw	a4,172(sp)
   136c4:	40e787b3          	sub	a5,a5,a4
   136c8:	09812703          	lw	a4,152(sp)
   136cc:	415787b3          	sub	a5,a5,s5
   136d0:	014787b3          	add	a5,a5,s4
   136d4:	00e787b3          	add	a5,a5,a4
   136d8:	0a012703          	lw	a4,160(sp)
   136dc:	00e787b3          	add	a5,a5,a4
   136e0:	04c12703          	lw	a4,76(sp)
   136e4:	40e787b3          	sub	a5,a5,a4
   136e8:	0b012703          	lw	a4,176(sp)
   136ec:	40e787b3          	sub	a5,a5,a4
   136f0:	0b412703          	lw	a4,180(sp)
   136f4:	00e787b3          	add	a5,a5,a4
   136f8:	00f989b3          	add	s3,s3,a5
   136fc:	002c9713          	slli	a4,s9,0x2
   13700:	0a412783          	lw	a5,164(sp)
   13704:	40ec8cb3          	sub	s9,s9,a4
   13708:	013c8cb3          	add	s9,s9,s3
   1370c:	00fc8cb3          	add	s9,s9,a5
   13710:	02412783          	lw	a5,36(sp)
   13714:	00178693          	addi	a3,a5,1
   13718:	07905263          	bge	zero,s9,1377c <susan_edges+0xfa8>
   1371c:	02812703          	lw	a4,40(sp)
   13720:	00200513          	addi	a0,zero,2
   13724:	ffe00613          	addi	a2,zero,-2
   13728:	00100593          	addi	a1,zero,1
   1372c:	fff00793          	addi	a5,zero,-1
   13730:	91dff06f          	jal	zero,1304c <susan_edges+0x878>
   13734:	07012783          	lw	a5,112(sp)
   13738:	10812403          	lw	s0,264(sp)
   1373c:	10c12583          	lw	a1,268(sp)
   13740:	11012603          	lw	a2,272(sp)
   13744:	11c12a83          	lw	s5,284(sp)
   13748:	00f40433          	add	s0,s0,a5
   1374c:	00f585b3          	add	a1,a1,a5
   13750:	00f60633          	add	a2,a2,a5
   13754:	10412a03          	lw	s4,260(sp)
   13758:	12c12783          	lw	a5,300(sp)
   1375c:	11412683          	lw	a3,276(sp)
   13760:	11812483          	lw	s1,280(sp)
   13764:	000a8893          	addi	a7,s5,0
   13768:	0d478a63          	beq	a5,s4,1383c <susan_edges+0x1068>
   1376c:	07012783          	lw	a5,112(sp)
   13770:	00fa8ab3          	add	s5,s5,a5
   13774:	00078713          	addi	a4,a5,0
   13778:	c80ff06f          	jal	zero,12bf8 <susan_edges+0x424>
   1377c:	00200513          	addi	a0,zero,2
   13780:	00100593          	addi	a1,zero,1
   13784:	00068713          	addi	a4,a3,0
   13788:	00050613          	addi	a2,a0,0
   1378c:	00058793          	addi	a5,a1,0
   13790:	8bdff06f          	jal	zero,1304c <susan_edges+0x878>
   13794:	0f812503          	lw	a0,248(sp)
   13798:	00612c23          	sw	t1,24(sp)
   1379c:	4a5050ef          	jal	ra,19440 <__floatsisf>
   137a0:	00050493          	addi	s1,a0,0
   137a4:	01812503          	lw	a0,24(sp)
   137a8:	499050ef          	jal	ra,19440 <__floatsisf>
   137ac:	00050593          	addi	a1,a0,0
   137b0:	00048513          	addi	a0,s1,0
   137b4:	4bc050ef          	jal	ra,18c70 <__divsf3>
   137b8:	00000593          	addi	a1,zero,0
   137bc:	00050493          	addi	s1,a0,0
   137c0:	065050ef          	jal	ra,19024 <__lesf2>
   137c4:	04054263          	blt	a0,zero,13808 <susan_edges+0x1034>
   137c8:	10012583          	lw	a1,256(sp)
   137cc:	00048513          	addi	a0,s1,0
   137d0:	055050ef          	jal	ra,19024 <__lesf2>
   137d4:	0a055c63          	bge	a0,zero,1388c <susan_edges+0x10b8>
   137d8:	02012683          	lw	a3,32(sp)
   137dc:	00000793          	addi	a5,zero,0
   137e0:	00100313          	addi	t1,zero,1
   137e4:	00000713          	addi	a4,zero,0
   137e8:	d75ff06f          	jal	zero,1355c <susan_edges+0xd88>
   137ec:	02412703          	lw	a4,36(sp)
   137f0:	00000513          	addi	a0,zero,0
   137f4:	00200613          	addi	a2,zero,2
   137f8:	00170693          	addi	a3,a4,1
   137fc:	00000593          	addi	a1,zero,0
   13800:	00100793          	addi	a5,zero,1
   13804:	849ff06f          	jal	zero,1304c <susan_edges+0x878>
   13808:	13c12583          	lw	a1,316(sp)
   1380c:	00048513          	addi	a0,s1,0
   13810:	77c050ef          	jal	ra,18f8c <__gesf2>
   13814:	fca042e3          	blt	zero,a0,137d8 <susan_edges+0x1004>
   13818:	ff81a583          	lw	a1,-8(gp) # 2e808 <__SDATA_BEGIN__+0x158>
   1381c:	00048513          	addi	a0,s1,0
   13820:	005050ef          	jal	ra,19024 <__lesf2>
   13824:	04055a63          	bge	a0,zero,13878 <susan_edges+0x10a4>
   13828:	02412683          	lw	a3,36(sp)
   1382c:	00200793          	addi	a5,zero,2
   13830:	00000313          	addi	t1,zero,0
   13834:	00100713          	addi	a4,zero,1
   13838:	d25ff06f          	jal	zero,1355c <susan_edges+0xd88>
   1383c:	17812403          	lw	s0,376(sp)
   13840:	17012903          	lw	s2,368(sp)
   13844:	16c12983          	lw	s3,364(sp)
   13848:	16812a03          	lw	s4,360(sp)
   1384c:	16412a83          	lw	s5,356(sp)
   13850:	16012b03          	lw	s6,352(sp)
   13854:	14c12d83          	lw	s11,332(sp)
   13858:	17c12083          	lw	ra,380(sp)
   1385c:	17412483          	lw	s1,372(sp)
   13860:	15c12b83          	lw	s7,348(sp)
   13864:	15812c03          	lw	s8,344(sp)
   13868:	15412c83          	lw	s9,340(sp)
   1386c:	15012d03          	lw	s10,336(sp)
   13870:	18010113          	addi	sp,sp,384
   13874:	00008067          	jalr	zero,0(ra)
   13878:	02812683          	lw	a3,40(sp)
   1387c:	ffe00793          	addi	a5,zero,-2
   13880:	00100313          	addi	t1,zero,1
   13884:	fff00713          	addi	a4,zero,-1
   13888:	cd5ff06f          	jal	zero,1355c <susan_edges+0xd88>
   1388c:	ff01a583          	lw	a1,-16(gp) # 2e800 <__SDATA_BEGIN__+0x150>
   13890:	00048513          	addi	a0,s1,0
   13894:	6f8050ef          	jal	ra,18f8c <__gesf2>
   13898:	02412783          	lw	a5,36(sp)
   1389c:	00152313          	slti	t1,a0,1
   138a0:	00100713          	addi	a4,zero,1
   138a4:	006786b3          	add	a3,a5,t1
   138a8:	00200793          	addi	a5,zero,2
   138ac:	cb1ff06f          	jal	zero,1355c <susan_edges+0xd88>

000138b0 <susan_edges_small>:
   138b0:	f5010113          	addi	sp,sp,-176
   138b4:	07b12e23          	sw	s11,124(sp)
   138b8:	00078d93          	addi	s11,a5,0
   138bc:	030787b3          	mul	a5,a5,a6
   138c0:	0a812423          	sw	s0,168(sp)
   138c4:	0a912223          	sw	s1,164(sp)
   138c8:	09312e23          	sw	s3,156(sp)
   138cc:	00b12223          	sw	a1,4(sp)
   138d0:	00058993          	addi	s3,a1,0
   138d4:	00050493          	addi	s1,a0,0
   138d8:	00060413          	addi	s0,a2,0
   138dc:	00058513          	addi	a0,a1,0
   138e0:	00000593          	addi	a1,zero,0
   138e4:	00279613          	slli	a2,a5,0x2
   138e8:	0b212023          	sw	s2,160(sp)
   138ec:	0a112623          	sw	ra,172(sp)
   138f0:	00080913          	addi	s2,a6,0
   138f4:	00d12023          	sw	a3,0(sp)
   138f8:	5890a0ef          	jal	ra,1e680 <memset>
   138fc:	00200793          	addi	a5,zero,2
   13900:	6127da63          	bge	a5,s2,13f14 <susan_edges_small+0x664>
   13904:	61b7d863          	bge	a5,s11,13f14 <susan_edges_small+0x664>
   13908:	00012683          	lw	a3,0(sp)
   1390c:	00498813          	addi	a6,s3,4
   13910:	ffe48e93          	addi	t4,s1,-2
   13914:	002d9393          	slli	t2,s11,0x2
   13918:	09412c23          	sw	s4,152(sp)
   1391c:	09612823          	sw	s6,144(sp)
   13920:	09512a23          	sw	s5,148(sp)
   13924:	09712623          	sw	s7,140(sp)
   13928:	09812423          	sw	s8,136(sp)
   1392c:	09912223          	sw	s9,132(sp)
   13930:	01be8eb3          	add	t4,t4,s11
   13934:	00780833          	add	a6,a6,t2
   13938:	fff90a13          	addi	s4,s2,-1
   1393c:	000d8f93          	addi	t6,s11,0
   13940:	00000f13          	addi	t5,zero,0
   13944:	00100293          	addi	t0,zero,1
   13948:	002d8993          	addi	s3,s11,2
   1394c:	2da00e13          	addi	t3,zero,730
   13950:	000d8b13          	addi	s6,s11,0
   13954:	01e48733          	add	a4,s1,t5
   13958:	002e8593          	addi	a1,t4,2
   1395c:	01d98633          	add	a2,s3,t4
   13960:	00080a93          	addi	s5,a6,0
   13964:	41e707b3          	sub	a5,a4,t5
   13968:	01f787b3          	add	a5,a5,t6
   1396c:	0017c783          	lbu	a5,1(a5)
   13970:	00074503          	lbu	a0,0(a4)
   13974:	00174883          	lbu	a7,1(a4)
   13978:	00f687b3          	add	a5,a3,a5
   1397c:	00274c83          	lbu	s9,2(a4)
   13980:	40a78533          	sub	a0,a5,a0
   13984:	411788b3          	sub	a7,a5,a7
   13988:	00054503          	lbu	a0,0(a0)
   1398c:	0008cc03          	lbu	s8,0(a7)
   13990:	41978cb3          	sub	s9,a5,s9
   13994:	0005cb83          	lbu	s7,0(a1)
   13998:	0025c303          	lbu	t1,2(a1)
   1399c:	000ccc83          	lbu	s9,0(s9)
   139a0:	06450513          	addi	a0,a0,100
   139a4:	00064883          	lbu	a7,0(a2)
   139a8:	00ac0c33          	add	s8,s8,a0
   139ac:	41778bb3          	sub	s7,a5,s7
   139b0:	00164503          	lbu	a0,1(a2)
   139b4:	40678333          	sub	t1,a5,t1
   139b8:	018c8cb3          	add	s9,s9,s8
   139bc:	000bcb83          	lbu	s7,0(s7)
   139c0:	00264c03          	lbu	s8,2(a2)
   139c4:	411788b3          	sub	a7,a5,a7
   139c8:	00034303          	lbu	t1,0(t1)
   139cc:	40a78533          	sub	a0,a5,a0
   139d0:	0008c883          	lbu	a7,0(a7)
   139d4:	00054503          	lbu	a0,0(a0)
   139d8:	019b8bb3          	add	s7,s7,s9
   139dc:	418787b3          	sub	a5,a5,s8
   139e0:	0007c783          	lbu	a5,0(a5)
   139e4:	01730333          	add	t1,t1,s7
   139e8:	006888b3          	add	a7,a7,t1
   139ec:	01150533          	add	a0,a0,a7
   139f0:	00a787b3          	add	a5,a5,a0
   139f4:	00170713          	addi	a4,a4,1
   139f8:	40fe0533          	sub	a0,t3,a5
   139fc:	00fe4463          	blt	t3,a5,13a04 <susan_edges_small+0x154>
   13a00:	00aaa023          	sw	a0,0(s5)
   13a04:	00158593          	addi	a1,a1,1
   13a08:	00160613          	addi	a2,a2,1
   13a0c:	004a8a93          	addi	s5,s5,4
   13a10:	f4ee9ae3          	bne	t4,a4,13964 <susan_edges_small+0xb4>
   13a14:	00128293          	addi	t0,t0,1
   13a18:	016e8eb3          	add	t4,t4,s6
   13a1c:	00780833          	add	a6,a6,t2
   13a20:	016f0f33          	add	t5,t5,s6
   13a24:	016f8fb3          	add	t6,t6,s6
   13a28:	f34296e3          	bne	t0,s4,13954 <susan_edges_small+0xa4>
   13a2c:	00400793          	addi	a5,zero,4
   13a30:	5127d263          	bge	a5,s2,13f34 <susan_edges_small+0x684>
   13a34:	51b7d063          	bge	a5,s11,13f34 <susan_edges_small+0x684>
   13a38:	fec1a503          	lw	a0,-20(gp) # 2e7fc <__SDATA_BEGIN__+0x14c>
   13a3c:	ff01a583          	lw	a1,-16(gp) # 2e800 <__SDATA_BEGIN__+0x150>
   13a40:	ff41a783          	lw	a5,-12(gp) # 2e804 <__SDATA_BEGIN__+0x154>
   13a44:	04a12023          	sw	a0,64(sp)
   13a48:	06b12023          	sw	a1,96(sp)
   13a4c:	ec01a503          	lw	a0,-320(gp) # 2e6d0 <__SDATA_BEGIN__+0x20>
   13a50:	ec41a583          	lw	a1,-316(gp) # 2e6d4 <__SDATA_BEGIN__+0x24>
   13a54:	ffe90613          	addi	a2,s2,-2
   13a58:	001d9813          	slli	a6,s11,0x1
   13a5c:	06c12223          	sw	a2,100(sp)
   13a60:	ffed8713          	addi	a4,s11,-2
   13a64:	00240613          	addi	a2,s0,2
   13a68:	00200413          	addi	s0,zero,2
   13a6c:	09a12023          	sw	s10,128(sp)
   13a70:	06c12423          	sw	a2,104(sp)
   13a74:	06f12623          	sw	a5,108(sp)
   13a78:	00040d13          	addi	s10,s0,0
   13a7c:	00d12623          	sw	a3,12(sp)
   13a80:	00148893          	addi	a7,s1,1
   13a84:	04a12c23          	sw	a0,88(sp)
   13a88:	04b12e23          	sw	a1,92(sp)
   13a8c:	000d8793          	addi	a5,s11,0
   13a90:	00e12023          	sw	a4,0(sp)
   13a94:	01b80b33          	add	s6,a6,s11
   13a98:	01b80433          	add	s0,a6,s11
   13a9c:	010486b3          	add	a3,s1,a6
   13aa0:	000d8613          	addi	a2,s11,0
   13aa4:	06812703          	lw	a4,104(sp)
   13aa8:	00412583          	lw	a1,4(sp)
   13aac:	00281c13          	slli	s8,a6,0x2
   13ab0:	00c70733          	add	a4,a4,a2
   13ab4:	03a12423          	sw	s10,40(sp)
   13ab8:	001d0d13          	addi	s10,s10,1
   13abc:	01858c33          	add	s8,a1,s8
   13ac0:	002b0493          	addi	s1,s6,2
   13ac4:	00f88a33          	add	s4,a7,a5
   13ac8:	016889b3          	add	s3,a7,s6
   13acc:	00068c93          	addi	s9,a3,0
   13ad0:	00200913          	addi	s2,zero,2
   13ad4:	05a12223          	sw	s10,68(sp)
   13ad8:	00d12423          	sw	a3,8(sp)
   13adc:	05612423          	sw	s6,72(sp)
   13ae0:	04f12623          	sw	a5,76(sp)
   13ae4:	00378313          	addi	t1,a5,3
   13ae8:	00f70bb3          	add	s7,a4,a5
   13aec:	00380d93          	addi	s11,a6,3
   13af0:	04812823          	sw	s0,80(sp)
   13af4:	05112a23          	sw	a7,84(sp)
   13af8:	00c12c23          	sw	a2,24(sp)
   13afc:	1100006f          	jal	zero,13c0c <susan_edges_small+0x35c>
   13b00:	00812783          	lw	a5,8(sp)
   13b04:	00c12803          	lw	a6,12(sp)
   13b08:	0029cf03          	lbu	t5,2(s3)
   13b0c:	012787b3          	add	a5,a5,s2
   13b10:	0007c783          	lbu	a5,0(a5)
   13b14:	000a4e83          	lbu	t4,0(s4)
   13b18:	001a4e03          	lbu	t3,1(s4)
   13b1c:	002a4503          	lbu	a0,2(s4)
   13b20:	001cc583          	lbu	a1,1(s9)
   13b24:	003cc603          	lbu	a2,3(s9)
   13b28:	0009c683          	lbu	a3,0(s3)
   13b2c:	0019c703          	lbu	a4,1(s3)
   13b30:	00f807b3          	add	a5,a6,a5
   13b34:	41d78eb3          	sub	t4,a5,t4
   13b38:	41c78e33          	sub	t3,a5,t3
   13b3c:	40a78533          	sub	a0,a5,a0
   13b40:	40b785b3          	sub	a1,a5,a1
   13b44:	40c78633          	sub	a2,a5,a2
   13b48:	40d786b3          	sub	a3,a5,a3
   13b4c:	40e78733          	sub	a4,a5,a4
   13b50:	41e787b3          	sub	a5,a5,t5
   13b54:	000e4b03          	lbu	s6,0(t3)
   13b58:	0007ce03          	lbu	t3,0(a5)
   13b5c:	1df00793          	addi	a5,zero,479
   13b60:	000ecd03          	lbu	s10,0(t4)
   13b64:	00054f03          	lbu	t5,0(a0)
   13b68:	0005c383          	lbu	t2,0(a1)
   13b6c:	00064283          	lbu	t0,0(a2)
   13b70:	0006ce83          	lbu	t4,0(a3)
   13b74:	00074f83          	lbu	t6,0(a4)
   13b78:	1157dc63          	bge	a5,s5,13c90 <susan_edges_small+0x3e0>
   13b7c:	016d0b33          	add	s6,s10,s6
   13b80:	01eb0b33          	add	s6,s6,t5
   13b84:	01db0b33          	add	s6,s6,t4
   13b88:	01fb0b33          	add	s6,s6,t6
   13b8c:	01cb0b33          	add	s6,s6,t3
   13b90:	080b1663          	bne	s6,zero,13c1c <susan_edges_small+0x36c>
   13b94:	00048713          	addi	a4,s1,0
   13b98:	00100793          	addi	a5,zero,1
   13b9c:	00148493          	addi	s1,s1,1
   13ba0:	00412683          	lw	a3,4(sp)
   13ba4:	00271713          	slli	a4,a4,0x2
   13ba8:	00e68733          	add	a4,a3,a4
   13bac:	00072703          	lw	a4,0(a4)
   13bb0:	03575a63          	bge	a4,s5,13be4 <susan_edges_small+0x334>
   13bb4:	02812703          	lw	a4,40(sp)
   13bb8:	40f707b3          	sub	a5,a4,a5
   13bbc:	01812703          	lw	a4,24(sp)
   13bc0:	02e787b3          	mul	a5,a5,a4
   13bc4:	012787b3          	add	a5,a5,s2
   13bc8:	416787b3          	sub	a5,a5,s6
   13bcc:	00279793          	slli	a5,a5,0x2
   13bd0:	00f687b3          	add	a5,a3,a5
   13bd4:	0007a783          	lw	a5,0(a5)
   13bd8:	00fac663          	blt	s5,a5,13be4 <susan_edges_small+0x334>
   13bdc:	00200793          	addi	a5,zero,2
   13be0:	00fb8023          	sb	a5,0(s7)
   13be4:	00012783          	lw	a5,0(sp)
   13be8:	00190913          	addi	s2,s2,1
   13bec:	004c0c13          	addi	s8,s8,4
   13bf0:	001b8b93          	addi	s7,s7,1
   13bf4:	001d8d93          	addi	s11,s11,1
   13bf8:	00130313          	addi	t1,t1,1
   13bfc:	001a0a13          	addi	s4,s4,1
   13c00:	001c8c93          	addi	s9,s9,1
   13c04:	00198993          	addi	s3,s3,1
   13c08:	1ef90e63          	beq	s2,a5,13e04 <susan_edges_small+0x554>
   13c0c:	008c2a83          	lw	s5,8(s8)
   13c10:	ef5048e3          	blt	zero,s5,13b00 <susan_edges_small+0x250>
   13c14:	00148493          	addi	s1,s1,1
   13c18:	fcdff06f          	jal	zero,13be4 <susan_edges_small+0x334>
   13c1c:	01ed0533          	add	a0,s10,t5
   13c20:	00750533          	add	a0,a0,t2
   13c24:	00550533          	add	a0,a0,t0
   13c28:	01d50533          	add	a0,a0,t4
   13c2c:	01c50533          	add	a0,a0,t3
   13c30:	02612223          	sw	t1,36(sp)
   13c34:	03e12023          	sw	t5,32(sp)
   13c38:	01d12e23          	sw	t4,28(sp)
   13c3c:	01c12823          	sw	t3,16(sp)
   13c40:	001050ef          	jal	ra,19440 <__floatsisf>
   13c44:	00050413          	addi	s0,a0,0
   13c48:	000b0513          	addi	a0,s6,0
   13c4c:	7f4050ef          	jal	ra,19440 <__floatsisf>
   13c50:	00050593          	addi	a1,a0,0
   13c54:	00040513          	addi	a0,s0,0
   13c58:	018050ef          	jal	ra,18c70 <__divsf3>
   13c5c:	04012583          	lw	a1,64(sp)
   13c60:	00050413          	addi	s0,a0,0
   13c64:	3c0050ef          	jal	ra,19024 <__lesf2>
   13c68:	01012e03          	lw	t3,16(sp)
   13c6c:	01c12e83          	lw	t4,28(sp)
   13c70:	02012f03          	lw	t5,32(sp)
   13c74:	02412303          	lw	t1,36(sp)
   13c78:	12055c63          	bge	a0,zero,13db0 <susan_edges_small+0x500>
   13c7c:	00148493          	addi	s1,s1,1
   13c80:	000d8713          	addi	a4,s11,0
   13c84:	00100b13          	addi	s6,zero,1
   13c88:	00000793          	addi	a5,zero,0
   13c8c:	f15ff06f          	jal	zero,13ba0 <susan_edges_small+0x2f0>
   13c90:	41a00733          	sub	a4,zero,s10
   13c94:	41af07b3          	sub	a5,t5,s10
   13c98:	41670733          	sub	a4,a4,s6
   13c9c:	41e70733          	sub	a4,a4,t5
   13ca0:	407787b3          	sub	a5,a5,t2
   13ca4:	01d70733          	add	a4,a4,t4
   13ca8:	005787b3          	add	a5,a5,t0
   13cac:	01f70733          	add	a4,a4,t6
   13cb0:	41d787b3          	sub	a5,a5,t4
   13cb4:	01c70733          	add	a4,a4,t3
   13cb8:	01c78433          	add	s0,a5,t3
   13cbc:	02e706b3          	mul	a3,a4,a4
   13cc0:	02612c23          	sw	t1,56(sp)
   13cc4:	03e12a23          	sw	t5,52(sp)
   13cc8:	02712823          	sw	t2,48(sp)
   13ccc:	02512623          	sw	t0,44(sp)
   13cd0:	03f12223          	sw	t6,36(sp)
   13cd4:	03d12023          	sw	t4,32(sp)
   13cd8:	01c12e23          	sw	t3,28(sp)
   13cdc:	02e12e23          	sw	a4,60(sp)
   13ce0:	02840533          	mul	a0,s0,s0
   13ce4:	00d50533          	add	a0,a0,a3
   13ce8:	758050ef          	jal	ra,19440 <__floatsisf>
   13cec:	061050ef          	jal	ra,1954c <__extendsfdf2>
   13cf0:	018020ef          	jal	ra,15d08 <sqrt>
   13cf4:	131050ef          	jal	ra,19624 <__truncdfsf2>
   13cf8:	055050ef          	jal	ra,1954c <__extendsfdf2>
   13cfc:	00a12823          	sw	a0,16(sp)
   13d00:	2da00513          	addi	a0,zero,730
   13d04:	41550533          	sub	a0,a0,s5
   13d08:	00b12a23          	sw	a1,20(sp)
   13d0c:	734050ef          	jal	ra,19440 <__floatsisf>
   13d10:	03d050ef          	jal	ra,1954c <__extendsfdf2>
   13d14:	05812603          	lw	a2,88(sp)
   13d18:	05c12683          	lw	a3,92(sp)
   13d1c:	47d030ef          	jal	ra,17998 <__muldf3>
   13d20:	00050613          	addi	a2,a0,0
   13d24:	00058693          	addi	a3,a1,0
   13d28:	01012503          	lw	a0,16(sp)
   13d2c:	01412583          	lw	a1,20(sp)
   13d30:	2b9030ef          	jal	ra,177e8 <__gedf2>
   13d34:	01c12e03          	lw	t3,28(sp)
   13d38:	02012e83          	lw	t4,32(sp)
   13d3c:	02412f83          	lw	t6,36(sp)
   13d40:	02c12283          	lw	t0,44(sp)
   13d44:	03012383          	lw	t2,48(sp)
   13d48:	03412f03          	lw	t5,52(sp)
   13d4c:	03812303          	lw	t1,56(sp)
   13d50:	e2a056e3          	bge	zero,a0,13b7c <susan_edges_small+0x2cc>
   13d54:	0e041e63          	bne	s0,zero,13e50 <susan_edges_small+0x5a0>
   13d58:	00048693          	addi	a3,s1,0
   13d5c:	00100713          	addi	a4,zero,1
   13d60:	00412783          	lw	a5,4(sp)
   13d64:	00269693          	slli	a3,a3,0x2
   13d68:	00148493          	addi	s1,s1,1
   13d6c:	00d786b3          	add	a3,a5,a3
   13d70:	0006a683          	lw	a3,0(a3)
   13d74:	e756d8e3          	bge	a3,s5,13be4 <susan_edges_small+0x334>
   13d78:	02812783          	lw	a5,40(sp)
   13d7c:	40e78733          	sub	a4,a5,a4
   13d80:	01812783          	lw	a5,24(sp)
   13d84:	02f70733          	mul	a4,a4,a5
   13d88:	01270733          	add	a4,a4,s2
   13d8c:	408707b3          	sub	a5,a4,s0
   13d90:	00412703          	lw	a4,4(sp)
   13d94:	00279793          	slli	a5,a5,0x2
   13d98:	00f707b3          	add	a5,a4,a5
   13d9c:	0007a783          	lw	a5,0(a5)
   13da0:	e4fac2e3          	blt	s5,a5,13be4 <susan_edges_small+0x334>
   13da4:	00100793          	addi	a5,zero,1
   13da8:	00fb8023          	sb	a5,0(s7)
   13dac:	e39ff06f          	jal	zero,13be4 <susan_edges_small+0x334>
   13db0:	06012583          	lw	a1,96(sp)
   13db4:	00040513          	addi	a0,s0,0
   13db8:	02612223          	sw	t1,36(sp)
   13dbc:	03c12023          	sw	t3,32(sp)
   13dc0:	01d12e23          	sw	t4,28(sp)
   13dc4:	01e12823          	sw	t5,16(sp)
   13dc8:	1c4050ef          	jal	ra,18f8c <__gesf2>
   13dcc:	01012f03          	lw	t5,16(sp)
   13dd0:	01c12e83          	lw	t4,28(sp)
   13dd4:	02012e03          	lw	t3,32(sp)
   13dd8:	02412303          	lw	t1,36(sp)
   13ddc:	0ca04663          	blt	zero,a0,13ea8 <susan_edges_small+0x5f8>
   13de0:	41ed0d33          	sub	s10,s10,t5
   13de4:	41dd0d33          	sub	s10,s10,t4
   13de8:	01cd0d33          	add	s10,s10,t3
   13dec:	00148493          	addi	s1,s1,1
   13df0:	05a05863          	bge	zero,s10,13e40 <susan_edges_small+0x590>
   13df4:	00030713          	addi	a4,t1,0
   13df8:	00100b13          	addi	s6,zero,1
   13dfc:	fff00793          	addi	a5,zero,-1
   13e00:	da1ff06f          	jal	zero,13ba0 <susan_edges_small+0x2f0>
   13e04:	01812603          	lw	a2,24(sp)
   13e08:	00812683          	lw	a3,8(sp)
   13e0c:	04812b03          	lw	s6,72(sp)
   13e10:	04c12783          	lw	a5,76(sp)
   13e14:	05012403          	lw	s0,80(sp)
   13e18:	04412d03          	lw	s10,68(sp)
   13e1c:	06412703          	lw	a4,100(sp)
   13e20:	05412883          	lw	a7,84(sp)
   13e24:	00c787b3          	add	a5,a5,a2
   13e28:	00cb0b33          	add	s6,s6,a2
   13e2c:	00c686b3          	add	a3,a3,a2
   13e30:	00040813          	addi	a6,s0,0
   13e34:	0da70263          	beq	a4,s10,13ef8 <susan_edges_small+0x648>
   13e38:	00c40433          	add	s0,s0,a2
   13e3c:	c69ff06f          	jal	zero,13aa4 <susan_edges_small+0x1f4>
   13e40:	00100b13          	addi	s6,zero,1
   13e44:	00048713          	addi	a4,s1,0
   13e48:	000b0793          	addi	a5,s6,0
   13e4c:	d55ff06f          	jal	zero,13ba0 <susan_edges_small+0x2f0>
   13e50:	03c12503          	lw	a0,60(sp)
   13e54:	00612823          	sw	t1,16(sp)
   13e58:	5e8050ef          	jal	ra,19440 <__floatsisf>
   13e5c:	00050b13          	addi	s6,a0,0
   13e60:	00040513          	addi	a0,s0,0
   13e64:	5dc050ef          	jal	ra,19440 <__floatsisf>
   13e68:	00050593          	addi	a1,a0,0
   13e6c:	000b0513          	addi	a0,s6,0
   13e70:	601040ef          	jal	ra,18c70 <__divsf3>
   13e74:	00000593          	addi	a1,zero,0
   13e78:	00050413          	addi	s0,a0,0
   13e7c:	1a8050ef          	jal	ra,19024 <__lesf2>
   13e80:	02054e63          	blt	a0,zero,13ebc <susan_edges_small+0x60c>
   13e84:	04012583          	lw	a1,64(sp)
   13e88:	00040513          	addi	a0,s0,0
   13e8c:	198050ef          	jal	ra,19024 <__lesf2>
   13e90:	01012303          	lw	t1,16(sp)
   13e94:	0c055663          	bge	a0,zero,13f60 <susan_edges_small+0x6b0>
   13e98:	000d8693          	addi	a3,s11,0
   13e9c:	00100413          	addi	s0,zero,1
   13ea0:	00000713          	addi	a4,zero,0
   13ea4:	ebdff06f          	jal	zero,13d60 <susan_edges_small+0x4b0>
   13ea8:	00048713          	addi	a4,s1,0
   13eac:	00000b13          	addi	s6,zero,0
   13eb0:	00148493          	addi	s1,s1,1
   13eb4:	00100793          	addi	a5,zero,1
   13eb8:	ce9ff06f          	jal	zero,13ba0 <susan_edges_small+0x2f0>
   13ebc:	06c12583          	lw	a1,108(sp)
   13ec0:	00040513          	addi	a0,s0,0
   13ec4:	0c8050ef          	jal	ra,18f8c <__gesf2>
   13ec8:	01012303          	lw	t1,16(sp)
   13ecc:	fca046e3          	blt	zero,a0,13e98 <susan_edges_small+0x5e8>
   13ed0:	ff81a583          	lw	a1,-8(gp) # 2e808 <__SDATA_BEGIN__+0x158>
   13ed4:	00040513          	addi	a0,s0,0
   13ed8:	00612823          	sw	t1,16(sp)
   13edc:	148050ef          	jal	ra,19024 <__lesf2>
   13ee0:	01012303          	lw	t1,16(sp)
   13ee4:	06055663          	bge	a0,zero,13f50 <susan_edges_small+0x6a0>
   13ee8:	00048693          	addi	a3,s1,0
   13eec:	00000413          	addi	s0,zero,0
   13ef0:	00100713          	addi	a4,zero,1
   13ef4:	e6dff06f          	jal	zero,13d60 <susan_edges_small+0x4b0>
   13ef8:	09812a03          	lw	s4,152(sp)
   13efc:	09412a83          	lw	s5,148(sp)
   13f00:	09012b03          	lw	s6,144(sp)
   13f04:	08c12b83          	lw	s7,140(sp)
   13f08:	08812c03          	lw	s8,136(sp)
   13f0c:	08412c83          	lw	s9,132(sp)
   13f10:	08012d03          	lw	s10,128(sp)
   13f14:	0ac12083          	lw	ra,172(sp)
   13f18:	0a812403          	lw	s0,168(sp)
   13f1c:	0a412483          	lw	s1,164(sp)
   13f20:	0a012903          	lw	s2,160(sp)
   13f24:	09c12983          	lw	s3,156(sp)
   13f28:	07c12d83          	lw	s11,124(sp)
   13f2c:	0b010113          	addi	sp,sp,176
   13f30:	00008067          	jalr	zero,0(ra)
   13f34:	09812a03          	lw	s4,152(sp)
   13f38:	09412a83          	lw	s5,148(sp)
   13f3c:	09012b03          	lw	s6,144(sp)
   13f40:	08c12b83          	lw	s7,140(sp)
   13f44:	08812c03          	lw	s8,136(sp)
   13f48:	08412c83          	lw	s9,132(sp)
   13f4c:	fc9ff06f          	jal	zero,13f14 <susan_edges_small+0x664>
   13f50:	00030693          	addi	a3,t1,0
   13f54:	00100413          	addi	s0,zero,1
   13f58:	fff00713          	addi	a4,zero,-1
   13f5c:	e05ff06f          	jal	zero,13d60 <susan_edges_small+0x4b0>
   13f60:	ff01a583          	lw	a1,-16(gp) # 2e800 <__SDATA_BEGIN__+0x150>
   13f64:	00040513          	addi	a0,s0,0
   13f68:	00612823          	sw	t1,16(sp)
   13f6c:	020050ef          	jal	ra,18f8c <__gesf2>
   13f70:	00152413          	slti	s0,a0,1
   13f74:	01012303          	lw	t1,16(sp)
   13f78:	008486b3          	add	a3,s1,s0
   13f7c:	00100713          	addi	a4,zero,1
   13f80:	de1ff06f          	jal	zero,13d60 <susan_edges_small+0x4b0>

00013f84 <corner_draw>:
   13f84:	0085a783          	lw	a5,8(a1)
   13f88:	00700813          	addi	a6,zero,7
   13f8c:	03078a63          	beq	a5,a6,13fc0 <corner_draw+0x3c>
   13f90:	02068c63          	beq	a3,zero,13fc8 <corner_draw+0x44>
   13f94:	00100793          	addi	a5,zero,1
   13f98:	00058713          	addi	a4,a1,0
   13f9c:	08f61463          	bne	a2,a5,14024 <corner_draw+0xa0>
   13fa0:	00472783          	lw	a5,4(a4)
   13fa4:	00072683          	lw	a3,0(a4)
   13fa8:	01870713          	addi	a4,a4,24
   13fac:	00f507b3          	add	a5,a0,a5
   13fb0:	00d787b3          	add	a5,a5,a3
   13fb4:	00078023          	sb	zero,0(a5)
   13fb8:	00872783          	lw	a5,8(a4)
   13fbc:	ff0792e3          	bne	a5,a6,13fa0 <corner_draw+0x1c>
   13fc0:	00000513          	addi	a0,zero,0
   13fc4:	00008067          	jalr	zero,0(ra)
   13fc8:	fff00713          	addi	a4,zero,-1
   13fcc:	0045a783          	lw	a5,4(a1)
   13fd0:	0005a683          	lw	a3,0(a1)
   13fd4:	01858593          	addi	a1,a1,24
   13fd8:	fff78793          	addi	a5,a5,-1
   13fdc:	02c787b3          	mul	a5,a5,a2
   13fe0:	00d787b3          	add	a5,a5,a3
   13fe4:	00f507b3          	add	a5,a0,a5
   13fe8:	fee78fa3          	sb	a4,-1(a5)
   13fec:	00e78023          	sb	a4,0(a5)
   13ff0:	00e780a3          	sb	a4,1(a5)
   13ff4:	00c787b3          	add	a5,a5,a2
   13ff8:	fee78fa3          	sb	a4,-1(a5)
   13ffc:	00078023          	sb	zero,0(a5)
   14000:	00e780a3          	sb	a4,1(a5)
   14004:	00c787b3          	add	a5,a5,a2
   14008:	fee78fa3          	sb	a4,-1(a5)
   1400c:	00e78023          	sb	a4,0(a5)
   14010:	00e780a3          	sb	a4,1(a5)
   14014:	0085a783          	lw	a5,8(a1)
   14018:	fb079ae3          	bne	a5,a6,13fcc <corner_draw+0x48>
   1401c:	00000513          	addi	a0,zero,0
   14020:	00008067          	jalr	zero,0(ra)
   14024:	0045a783          	lw	a5,4(a1)
   14028:	0005a703          	lw	a4,0(a1)
   1402c:	01858593          	addi	a1,a1,24
   14030:	02f607b3          	mul	a5,a2,a5
   14034:	00f507b3          	add	a5,a0,a5
   14038:	00e787b3          	add	a5,a5,a4
   1403c:	00078023          	sb	zero,0(a5)
   14040:	0085a783          	lw	a5,8(a1)
   14044:	ff0790e3          	bne	a5,a6,14024 <corner_draw+0xa0>
   14048:	f79ff06f          	jal	zero,13fc0 <corner_draw+0x3c>

0001404c <susan_corners>:
   1404c:	ef010113          	addi	sp,sp,-272
   14050:	10912223          	sw	s1,260(sp)
   14054:	030784b3          	mul	s1,a5,a6
   14058:	11212023          	sw	s2,256(sp)
   1405c:	06a12e23          	sw	a0,124(sp)
   14060:	02c12423          	sw	a2,40(sp)
   14064:	00058513          	addi	a0,a1,0
   14068:	00058913          	addi	s2,a1,0
   1406c:	00000593          	addi	a1,zero,0
   14070:	10112623          	sw	ra,268(sp)
   14074:	02f12c23          	sw	a5,56(sp)
   14078:	00d12a23          	sw	a3,20(sp)
   1407c:	00249613          	slli	a2,s1,0x2
   14080:	10812423          	sw	s0,264(sp)
   14084:	0f312e23          	sw	s3,252(sp)
   14088:	0f412c23          	sw	s4,248(sp)
   1408c:	00080993          	addi	s3,a6,0
   14090:	00078a13          	addi	s4,a5,0
   14094:	0db12e23          	sw	s11,220(sp)
   14098:	00070d93          	addi	s11,a4,0
   1409c:	5e40a0ef          	jal	ra,1e680 <memset>
   140a0:	00249513          	slli	a0,s1,0x2
   140a4:	730050ef          	jal	ra,197d4 <malloc>
   140a8:	00050413          	addi	s0,a0,0
   140ac:	00249513          	slli	a0,s1,0x2
   140b0:	724050ef          	jal	ra,197d4 <malloc>
   140b4:	ffb98713          	addi	a4,s3,-5
   140b8:	00500613          	addi	a2,zero,5
   140bc:	00050493          	addi	s1,a0,0
   140c0:	42e65ce3          	bge	a2,a4,14cf8 <susan_corners+0xcac>
   140c4:	0f512a23          	sw	s5,244(sp)
   140c8:	0f612823          	sw	s6,240(sp)
   140cc:	0f712623          	sw	s7,236(sp)
   140d0:	0f812423          	sw	s8,232(sp)
   140d4:	0f912223          	sw	s9,228(sp)
   140d8:	0fa12023          	sw	s10,224(sp)
   140dc:	00a00793          	addi	a5,zero,10
   140e0:	4747d8e3          	bge	a5,s4,14d50 <susan_corners+0xd04>
   140e4:	03812783          	lw	a5,56(sp)
   140e8:	ffe00513          	addi	a0,zero,-2
   140ec:	02c12e23          	sw	a2,60(sp)
   140f0:	00279893          	slli	a7,a5,0x2
   140f4:	00f885b3          	add	a1,a7,a5
   140f8:	40f007b3          	sub	a5,zero,a5
   140fc:	00179e93          	slli	t4,a5,0x1
   14100:	07c12783          	lw	a5,124(sp)
   14104:	07c12603          	lw	a2,124(sp)
   14108:	00259693          	slli	a3,a1,0x2
   1410c:	00278793          	addi	a5,a5,2
   14110:	01178cb3          	add	s9,a5,a7
   14114:	00288793          	addi	a5,a7,2
   14118:	06f12a23          	sw	a5,116(sp)
   1411c:	03812783          	lw	a5,56(sp)
   14120:	00d90833          	add	a6,s2,a3
   14124:	00d48e33          	add	t3,s1,a3
   14128:	40f507b3          	sub	a5,a0,a5
   1412c:	06f12823          	sw	a5,112(sp)
   14130:	03812783          	lw	a5,56(sp)
   14134:	00d40a33          	add	s4,s0,a3
   14138:	00b60633          	add	a2,a2,a1
   1413c:	002e8693          	addi	a3,t4,2
   14140:	ffb78c13          	addi	s8,a5,-5
   14144:	0bb12423          	sw	s11,168(sp)
   14148:	0b212623          	sw	s2,172(sp)
   1414c:	0a812823          	sw	s0,176(sp)
   14150:	00080913          	addi	s2,a6,0
   14154:	0a912a23          	sw	s1,180(sp)
   14158:	02c12223          	sw	a2,36(sp)
   1415c:	06d12c23          	sw	a3,120(sp)
   14160:	06e12623          	sw	a4,108(sp)
   14164:	000c8d93          	addi	s11,s9,0
   14168:	03812623          	sw	s8,44(sp)
   1416c:	000e0813          	addi	a6,t3,0
   14170:	000e8413          	addi	s0,t4,0
   14174:	00088493          	addi	s1,a7,0
   14178:	07812683          	lw	a3,120(sp)
   1417c:	02412783          	lw	a5,36(sp)
   14180:	02412c83          	lw	s9,36(sp)
   14184:	01b68d33          	add	s10,a3,s11
   14188:	07012683          	lw	a3,112(sp)
   1418c:	40878733          	sub	a4,a5,s0
   14190:	408d87b3          	sub	a5,s11,s0
   14194:	01b68b33          	add	s6,a3,s11
   14198:	07412683          	lw	a3,116(sp)
   1419c:	01412623          	sw	s4,12(sp)
   141a0:	01212823          	sw	s2,16(sp)
   141a4:	01b686b3          	add	a3,a3,s11
   141a8:	05412623          	sw	s4,76(sp)
   141ac:	05212823          	sw	s2,80(sp)
   141b0:	00d12223          	sw	a3,4(sp)
   141b4:	01012423          	sw	a6,8(sp)
   141b8:	00500b93          	addi	s7,zero,5
   141bc:	05012423          	sw	a6,72(sp)
   141c0:	00078a13          	addi	s4,a5,0
   141c4:	00070913          	addi	s2,a4,0
   141c8:	04f12a23          	sw	a5,84(sp)
   141cc:	04e12c23          	sw	a4,88(sp)
   141d0:	04812e23          	sw	s0,92(sp)
   141d4:	06912423          	sw	s1,104(sp)
   141d8:	02412783          	lw	a5,36(sp)
   141dc:	003b4683          	lbu	a3,3(s6)
   141e0:	000d4703          	lbu	a4,0(s10)
   141e4:	017787b3          	add	a5,a5,s7
   141e8:	0007c403          	lbu	s0,0(a5)
   141ec:	02812783          	lw	a5,40(sp)
   141f0:	005b4503          	lbu	a0,5(s6)
   141f4:	001d4603          	lbu	a2,1(s10)
   141f8:	00878433          	add	s0,a5,s0
   141fc:	40d406b3          	sub	a3,s0,a3
   14200:	0006c683          	lbu	a3,0(a3)
   14204:	002d4783          	lbu	a5,2(s10)
   14208:	40e40733          	sub	a4,s0,a4
   1420c:	40a40533          	sub	a0,s0,a0
   14210:	00074f03          	lbu	t5,0(a4)
   14214:	00054503          	lbu	a0,0(a0)
   14218:	004b4703          	lbu	a4,4(s6)
   1421c:	40c40633          	sub	a2,s0,a2
   14220:	02d12023          	sw	a3,32(sp)
   14224:	00064603          	lbu	a2,0(a2)
   14228:	007b4683          	lbu	a3,7(s6)
   1422c:	40f407b3          	sub	a5,s0,a5
   14230:	0007cf83          	lbu	t6,0(a5)
   14234:	006b4583          	lbu	a1,6(s6)
   14238:	00a12c23          	sw	a0,24(sp)
   1423c:	40e40733          	sub	a4,s0,a4
   14240:	02012503          	lw	a0,32(sp)
   14244:	064f0793          	addi	a5,t5,100
   14248:	00074e83          	lbu	t4,0(a4)
   1424c:	40d406b3          	sub	a3,s0,a3
   14250:	000dc703          	lbu	a4,0(s11)
   14254:	00f607b3          	add	a5,a2,a5
   14258:	0006c983          	lbu	s3,0(a3)
   1425c:	001dc303          	lbu	t1,1(s11)
   14260:	01812683          	lw	a3,24(sp)
   14264:	40b405b3          	sub	a1,s0,a1
   14268:	00ff87b3          	add	a5,t6,a5
   1426c:	0005ce03          	lbu	t3,0(a1)
   14270:	002dc883          	lbu	a7,2(s11)
   14274:	00f507b3          	add	a5,a0,a5
   14278:	003dc283          	lbu	t0,3(s11)
   1427c:	40e40733          	sub	a4,s0,a4
   14280:	00fe87b3          	add	a5,t4,a5
   14284:	004dc803          	lbu	a6,4(s11)
   14288:	00f687b3          	add	a5,a3,a5
   1428c:	40640333          	sub	t1,s0,t1
   14290:	00074683          	lbu	a3,0(a4)
   14294:	005dc503          	lbu	a0,5(s11)
   14298:	006dc583          	lbu	a1,6(s11)
   1429c:	002cc703          	lbu	a4,2(s9)
   142a0:	00fe07b3          	add	a5,t3,a5
   142a4:	00034303          	lbu	t1,0(t1)
   142a8:	411408b3          	sub	a7,s0,a7
   142ac:	405402b3          	sub	t0,s0,t0
   142b0:	0008c883          	lbu	a7,0(a7)
   142b4:	00f987b3          	add	a5,s3,a5
   142b8:	0002c383          	lbu	t2,0(t0)
   142bc:	00f687b3          	add	a5,a3,a5
   142c0:	41040833          	sub	a6,s0,a6
   142c4:	00084803          	lbu	a6,0(a6)
   142c8:	003cc483          	lbu	s1,3(s9)
   142cc:	40a40533          	sub	a0,s0,a0
   142d0:	00f307b3          	add	a5,t1,a5
   142d4:	00054503          	lbu	a0,0(a0)
   142d8:	004cc283          	lbu	t0,4(s9)
   142dc:	40b405b3          	sub	a1,s0,a1
   142e0:	00f887b3          	add	a5,a7,a5
   142e4:	0005c583          	lbu	a1,0(a1)
   142e8:	40e40733          	sub	a4,s0,a4
   142ec:	00f387b3          	add	a5,t2,a5
   142f0:	00074703          	lbu	a4,0(a4)
   142f4:	00f807b3          	add	a5,a6,a5
   142f8:	409404b3          	sub	s1,s0,s1
   142fc:	0004c483          	lbu	s1,0(s1)
   14300:	00f507b3          	add	a5,a0,a5
   14304:	405402b3          	sub	t0,s0,t0
   14308:	0002c283          	lbu	t0,0(t0)
   1430c:	00f587b3          	add	a5,a1,a5
   14310:	00f707b3          	add	a5,a4,a5
   14314:	01412a83          	lw	s5,20(sp)
   14318:	00f487b3          	add	a5,s1,a5
   1431c:	00f287b3          	add	a5,t0,a5
   14320:	6357d863          	bge	a5,s5,14950 <susan_corners+0x904>
   14324:	000a8c13          	addi	s8,s5,0
   14328:	006cca83          	lbu	s5,6(s9)
   1432c:	41540ab3          	sub	s5,s0,s5
   14330:	000aca83          	lbu	s5,0(s5)
   14334:	00fa87b3          	add	a5,s5,a5
   14338:	6187dc63          	bge	a5,s8,14950 <susan_corners+0x904>
   1433c:	007ccc03          	lbu	s8,7(s9)
   14340:	41840c33          	sub	s8,s0,s8
   14344:	000c4c03          	lbu	s8,0(s8)
   14348:	03812823          	sw	s8,48(sp)
   1434c:	00fc07b3          	add	a5,s8,a5
   14350:	01412c03          	lw	s8,20(sp)
   14354:	5f87de63          	bge	a5,s8,14950 <susan_corners+0x904>
   14358:	008ccc03          	lbu	s8,8(s9)
   1435c:	41840c33          	sub	s8,s0,s8
   14360:	000c4c03          	lbu	s8,0(s8)
   14364:	05812023          	sw	s8,64(sp)
   14368:	00fc07b3          	add	a5,s8,a5
   1436c:	01412c03          	lw	s8,20(sp)
   14370:	5f87d063          	bge	a5,s8,14950 <susan_corners+0x904>
   14374:	000a4c03          	lbu	s8,0(s4)
   14378:	41840c33          	sub	s8,s0,s8
   1437c:	000c4c03          	lbu	s8,0(s8)
   14380:	07812023          	sw	s8,96(sp)
   14384:	00fc07b3          	add	a5,s8,a5
   14388:	01412c03          	lw	s8,20(sp)
   1438c:	5d87d263          	bge	a5,s8,14950 <susan_corners+0x904>
   14390:	001a4c03          	lbu	s8,1(s4)
   14394:	41840c33          	sub	s8,s0,s8
   14398:	000c4c03          	lbu	s8,0(s8)
   1439c:	09812023          	sw	s8,128(sp)
   143a0:	00fc07b3          	add	a5,s8,a5
   143a4:	01412c03          	lw	s8,20(sp)
   143a8:	5b87d463          	bge	a5,s8,14950 <susan_corners+0x904>
   143ac:	002a4c03          	lbu	s8,2(s4)
   143b0:	41840c33          	sub	s8,s0,s8
   143b4:	000c4c03          	lbu	s8,0(s8)
   143b8:	09812223          	sw	s8,132(sp)
   143bc:	00fc0c33          	add	s8,s8,a5
   143c0:	01412783          	lw	a5,20(sp)
   143c4:	58fc5663          	bge	s8,a5,14950 <susan_corners+0x904>
   143c8:	003a4783          	lbu	a5,3(s4)
   143cc:	40f407b3          	sub	a5,s0,a5
   143d0:	0007c783          	lbu	a5,0(a5)
   143d4:	0af12c23          	sw	a5,184(sp)
   143d8:	01878c33          	add	s8,a5,s8
   143dc:	01412783          	lw	a5,20(sp)
   143e0:	56fc5863          	bge	s8,a5,14950 <susan_corners+0x904>
   143e4:	004a4783          	lbu	a5,4(s4)
   143e8:	40f407b3          	sub	a5,s0,a5
   143ec:	0007c783          	lbu	a5,0(a5)
   143f0:	08f12623          	sw	a5,140(sp)
   143f4:	01878c33          	add	s8,a5,s8
   143f8:	01412783          	lw	a5,20(sp)
   143fc:	54fc5a63          	bge	s8,a5,14950 <susan_corners+0x904>
   14400:	005a4783          	lbu	a5,5(s4)
   14404:	40f407b3          	sub	a5,s0,a5
   14408:	0007c783          	lbu	a5,0(a5)
   1440c:	08f12823          	sw	a5,144(sp)
   14410:	01878c33          	add	s8,a5,s8
   14414:	01412783          	lw	a5,20(sp)
   14418:	52fc5c63          	bge	s8,a5,14950 <susan_corners+0x904>
   1441c:	006a4783          	lbu	a5,6(s4)
   14420:	40f407b3          	sub	a5,s0,a5
   14424:	0007c783          	lbu	a5,0(a5)
   14428:	08f12a23          	sw	a5,148(sp)
   1442c:	01878c33          	add	s8,a5,s8
   14430:	01412783          	lw	a5,20(sp)
   14434:	50fc5e63          	bge	s8,a5,14950 <susan_corners+0x904>
   14438:	00394783          	lbu	a5,3(s2)
   1443c:	40f407b3          	sub	a5,s0,a5
   14440:	0007c783          	lbu	a5,0(a5)
   14444:	0af12e23          	sw	a5,188(sp)
   14448:	01878c33          	add	s8,a5,s8
   1444c:	01412783          	lw	a5,20(sp)
   14450:	50fc5063          	bge	s8,a5,14950 <susan_corners+0x904>
   14454:	00494783          	lbu	a5,4(s2)
   14458:	40f407b3          	sub	a5,s0,a5
   1445c:	0007c783          	lbu	a5,0(a5)
   14460:	08f12c23          	sw	a5,152(sp)
   14464:	01878c33          	add	s8,a5,s8
   14468:	01412783          	lw	a5,20(sp)
   1446c:	4efc5263          	bge	s8,a5,14950 <susan_corners+0x904>
   14470:	00594783          	lbu	a5,5(s2)
   14474:	40f407b3          	sub	a5,s0,a5
   14478:	0007c783          	lbu	a5,0(a5)
   1447c:	0cf12023          	sw	a5,192(sp)
   14480:	01878c33          	add	s8,a5,s8
   14484:	01412783          	lw	a5,20(sp)
   14488:	4cfc5463          	bge	s8,a5,14950 <susan_corners+0x904>
   1448c:	00694783          	lbu	a5,6(s2)
   14490:	40f407b3          	sub	a5,s0,a5
   14494:	0007c783          	lbu	a5,0(a5)
   14498:	08f12e23          	sw	a5,156(sp)
   1449c:	01878c33          	add	s8,a5,s8
   144a0:	01412783          	lw	a5,20(sp)
   144a4:	4afc5663          	bge	s8,a5,14950 <susan_corners+0x904>
   144a8:	00794783          	lbu	a5,7(s2)
   144ac:	40f407b3          	sub	a5,s0,a5
   144b0:	0007c783          	lbu	a5,0(a5)
   144b4:	0cf12223          	sw	a5,196(sp)
   144b8:	01878c33          	add	s8,a5,s8
   144bc:	01412783          	lw	a5,20(sp)
   144c0:	48fc5863          	bge	s8,a5,14950 <susan_corners+0x904>
   144c4:	00412783          	lw	a5,4(sp)
   144c8:	0007c783          	lbu	a5,0(a5)
   144cc:	40f407b3          	sub	a5,s0,a5
   144d0:	0007c783          	lbu	a5,0(a5)
   144d4:	0af12023          	sw	a5,160(sp)
   144d8:	01878c33          	add	s8,a5,s8
   144dc:	01412783          	lw	a5,20(sp)
   144e0:	46fc5863          	bge	s8,a5,14950 <susan_corners+0x904>
   144e4:	00412783          	lw	a5,4(sp)
   144e8:	0017c783          	lbu	a5,1(a5)
   144ec:	40f407b3          	sub	a5,s0,a5
   144f0:	0007c783          	lbu	a5,0(a5)
   144f4:	0cf12423          	sw	a5,200(sp)
   144f8:	01878c33          	add	s8,a5,s8
   144fc:	01412783          	lw	a5,20(sp)
   14500:	44fc5863          	bge	s8,a5,14950 <susan_corners+0x904>
   14504:	00412783          	lw	a5,4(sp)
   14508:	0027c783          	lbu	a5,2(a5)
   1450c:	40f407b3          	sub	a5,s0,a5
   14510:	0007c783          	lbu	a5,0(a5)
   14514:	0af12223          	sw	a5,164(sp)
   14518:	000c0793          	addi	a5,s8,0
   1451c:	0a412c03          	lw	s8,164(sp)
   14520:	00fc07b3          	add	a5,s8,a5
   14524:	08f12423          	sw	a5,136(sp)
   14528:	08812c03          	lw	s8,136(sp)
   1452c:	01412783          	lw	a5,20(sp)
   14530:	42fc5063          	bge	s8,a5,14950 <susan_corners+0x904>
   14534:	00cf0633          	add	a2,t5,a2
   14538:	01f60c33          	add	s8,a2,t6
   1453c:	02012603          	lw	a2,32(sp)
   14540:	41ef87b3          	sub	a5,t6,t5
   14544:	00199993          	slli	s3,s3,0x1
   14548:	00161f93          	slli	t6,a2,0x1
   1454c:	001e9613          	slli	a2,t4,0x1
   14550:	02c12023          	sw	a2,32(sp)
   14554:	01812603          	lw	a2,24(sp)
   14558:	41f787b3          	sub	a5,a5,t6
   1455c:	41d787b3          	sub	a5,a5,t4
   14560:	00fe07b3          	add	a5,t3,a5
   14564:	00161613          	slli	a2,a2,0x1
   14568:	00c12c23          	sw	a2,24(sp)
   1456c:	00f98eb3          	add	t4,s3,a5
   14570:	00269613          	slli	a2,a3,0x2
   14574:	001e1793          	slli	a5,t3,0x1
   14578:	0cf12623          	sw	a5,204(sp)
   1457c:	40c687b3          	sub	a5,a3,a2
   14580:	01d787b3          	add	a5,a5,t4
   14584:	00131613          	slli	a2,t1,0x1
   14588:	40c787b3          	sub	a5,a5,a2
   1458c:	04012603          	lw	a2,64(sp)
   14590:	00300f13          	addi	t5,zero,3
   14594:	411787b3          	sub	a5,a5,a7
   14598:	03e60633          	mul	a2,a2,t5
   1459c:	00f807b3          	add	a5,a6,a5
   145a0:	00149493          	slli	s1,s1,0x1
   145a4:	04c12023          	sw	a2,64(sp)
   145a8:	00151613          	slli	a2,a0,0x1
   145ac:	00f60633          	add	a2,a2,a5
   145b0:	03012783          	lw	a5,48(sp)
   145b4:	00179793          	slli	a5,a5,0x1
   145b8:	02f12823          	sw	a5,48(sp)
   145bc:	0bc12783          	lw	a5,188(sp)
   145c0:	00179e13          	slli	t3,a5,0x1
   145c4:	0c012783          	lw	a5,192(sp)
   145c8:	00179793          	slli	a5,a5,0x1
   145cc:	0af12e23          	sw	a5,188(sp)
   145d0:	0c412783          	lw	a5,196(sp)
   145d4:	00179e93          	slli	t4,a5,0x1
   145d8:	002c1793          	slli	a5,s8,0x2
   145dc:	40fc07b3          	sub	a5,s8,a5
   145e0:	41f787b3          	sub	a5,a5,t6
   145e4:	02012f83          	lw	t6,32(sp)
   145e8:	41f787b3          	sub	a5,a5,t6
   145ec:	01812f83          	lw	t6,24(sp)
   145f0:	41f787b3          	sub	a5,a5,t6
   145f4:	0cc12f83          	lw	t6,204(sp)
   145f8:	41f787b3          	sub	a5,a5,t6
   145fc:	413787b3          	sub	a5,a5,s3
   14600:	40d787b3          	sub	a5,a5,a3
   14604:	406787b3          	sub	a5,a5,t1
   14608:	411787b3          	sub	a5,a5,a7
   1460c:	03e588b3          	mul	a7,a1,t5
   14610:	00271693          	slli	a3,a4,0x2
   14614:	40d70733          	sub	a4,a4,a3
   14618:	407787b3          	sub	a5,a5,t2
   1461c:	410787b3          	sub	a5,a5,a6
   14620:	40a787b3          	sub	a5,a5,a0
   14624:	40b787b3          	sub	a5,a5,a1
   14628:	09412683          	lw	a3,148(sp)
   1462c:	00c88633          	add	a2,a7,a2
   14630:	00c70733          	add	a4,a4,a2
   14634:	40970733          	sub	a4,a4,s1
   14638:	40570733          	sub	a4,a4,t0
   1463c:	00ea8ab3          	add	s5,s5,a4
   14640:	06012703          	lw	a4,96(sp)
   14644:	08012603          	lw	a2,128(sp)
   14648:	03e68833          	mul	a6,a3,t5
   1464c:	00f70733          	add	a4,a4,a5
   14650:	03012783          	lw	a5,48(sp)
   14654:	00e60733          	add	a4,a2,a4
   14658:	04012603          	lw	a2,64(sp)
   1465c:	06012683          	lw	a3,96(sp)
   14660:	015787b3          	add	a5,a5,s5
   14664:	00f607b3          	add	a5,a2,a5
   14668:	06012603          	lw	a2,96(sp)
   1466c:	00269693          	slli	a3,a3,0x2
   14670:	40d606b3          	sub	a3,a2,a3
   14674:	0a012603          	lw	a2,160(sp)
   14678:	00f686b3          	add	a3,a3,a5
   1467c:	08012783          	lw	a5,128(sp)
   14680:	03e605b3          	mul	a1,a2,t5
   14684:	08412603          	lw	a2,132(sp)
   14688:	00179793          	slli	a5,a5,0x1
   1468c:	40f687b3          	sub	a5,a3,a5
   14690:	00e60733          	add	a4,a2,a4
   14694:	0b812603          	lw	a2,184(sp)
   14698:	08c12683          	lw	a3,140(sp)
   1469c:	00e60733          	add	a4,a2,a4
   146a0:	00e68733          	add	a4,a3,a4
   146a4:	08412683          	lw	a3,132(sp)
   146a8:	40d787b3          	sub	a5,a5,a3
   146ac:	09012683          	lw	a3,144(sp)
   146b0:	00e68733          	add	a4,a3,a4
   146b4:	08c12683          	lw	a3,140(sp)
   146b8:	00f687b3          	add	a5,a3,a5
   146bc:	0c812683          	lw	a3,200(sp)
   146c0:	03e68533          	mul	a0,a3,t5
   146c4:	09012683          	lw	a3,144(sp)
   146c8:	09412603          	lw	a2,148(sp)
   146cc:	00169693          	slli	a3,a3,0x1
   146d0:	00f686b3          	add	a3,a3,a5
   146d4:	09812783          	lw	a5,152(sp)
   146d8:	00d806b3          	add	a3,a6,a3
   146dc:	00e60733          	add	a4,a2,a4
   146e0:	0bc12803          	lw	a6,188(sp)
   146e4:	00179613          	slli	a2,a5,0x1
   146e8:	00ee0733          	add	a4,t3,a4
   146ec:	41c687b3          	sub	a5,a3,t3
   146f0:	09c12683          	lw	a3,156(sp)
   146f4:	00e60733          	add	a4,a2,a4
   146f8:	0a412603          	lw	a2,164(sp)
   146fc:	00e80733          	add	a4,a6,a4
   14700:	00169693          	slli	a3,a3,0x1
   14704:	09812803          	lw	a6,152(sp)
   14708:	03e60633          	mul	a2,a2,t5
   1470c:	00e686b3          	add	a3,a3,a4
   14710:	09c12703          	lw	a4,156(sp)
   14714:	410787b3          	sub	a5,a5,a6
   14718:	00de86b3          	add	a3,t4,a3
   1471c:	00f707b3          	add	a5,a4,a5
   14720:	00fe8eb3          	add	t4,t4,a5
   14724:	0a012783          	lw	a5,160(sp)
   14728:	00d585b3          	add	a1,a1,a3
   1472c:	00b50533          	add	a0,a0,a1
   14730:	40fe8eb3          	sub	t4,t4,a5
   14734:	0a412783          	lw	a5,164(sp)
   14738:	01d78c33          	add	s8,a5,t4
   1473c:	00a607b3          	add	a5,a2,a0
   14740:	02f78733          	mul	a4,a5,a5
   14744:	02f12023          	sw	a5,32(sp)
   14748:	08812783          	lw	a5,136(sp)
   1474c:	038c06b3          	mul	a3,s8,s8
   14750:	02f787b3          	mul	a5,a5,a5
   14754:	00e68633          	add	a2,a3,a4
   14758:	4017d793          	srai	a5,a5,0x1
   1475c:	1ec7da63          	bge	a5,a2,14950 <susan_corners+0x904>
   14760:	68d75863          	bge	a4,a3,14df0 <susan_corners+0xda4>
   14764:	02012503          	lw	a0,32(sp)
   14768:	4d9040ef          	jal	ra,19440 <__floatsisf>
   1476c:	41fc5793          	srai	a5,s8,0x1f
   14770:	00050493          	addi	s1,a0,0
   14774:	0187c533          	xor	a0,a5,s8
   14778:	40f50533          	sub	a0,a0,a5
   1477c:	4c5040ef          	jal	ra,19440 <__floatsisf>
   14780:	00050593          	addi	a1,a0,0
   14784:	00048513          	addi	a0,s1,0
   14788:	4e8040ef          	jal	ra,18c70 <__divsf3>
   1478c:	fffc4793          	xori	a5,s8,-1
   14790:	00050a93          	addi	s5,a0,0
   14794:	41f7d993          	srai	s3,a5,0x1f
   14798:	04a12023          	sw	a0,64(sp)
   1479c:	5b1040ef          	jal	ra,1954c <__extendsfdf2>
   147a0:	00a12c23          	sw	a0,24(sp)
   147a4:	00b12e23          	sw	a1,28(sp)
   147a8:	000a8513          	addi	a0,s5,0
   147ac:	000a8593          	addi	a1,s5,0
   147b0:	094040ef          	jal	ra,18844 <__addsf3>
   147b4:	00050493          	addi	s1,a0,0
   147b8:	595040ef          	jal	ra,1954c <__extendsfdf2>
   147bc:	02a12823          	sw	a0,48(sp)
   147c0:	02b12a23          	sw	a1,52(sp)
   147c4:	000a8513          	addi	a0,s5,0
   147c8:	00000593          	addi	a1,zero,0
   147cc:	0029f993          	andi	s3,s3,2
   147d0:	055040ef          	jal	ra,19024 <__lesf2>
   147d4:	fff98993          	addi	s3,s3,-1
   147d8:	5a054263          	blt	a0,zero,14d7c <susan_corners+0xd30>
   147dc:	ec81a603          	lw	a2,-312(gp) # 2e6d8 <__SDATA_BEGIN__+0x28>
   147e0:	ecc1a683          	lw	a3,-308(gp) # 2e6dc <__SDATA_BEGIN__+0x2c>
   147e4:	01812503          	lw	a0,24(sp)
   147e8:	01c12583          	lw	a1,28(sp)
   147ec:	174020ef          	jal	ra,16960 <__adddf3>
   147f0:	739030ef          	jal	ra,18728 <__fixdfsi>
   147f4:	03c12783          	lw	a5,60(sp)
   147f8:	00f50733          	add	a4,a0,a5
   147fc:	03812783          	lw	a5,56(sp)
   14800:	02f70733          	mul	a4,a4,a5
   14804:	07c12783          	lw	a5,124(sp)
   14808:	013787b3          	add	a5,a5,s3
   1480c:	017787b3          	add	a5,a5,s7
   14810:	00e787b3          	add	a5,a5,a4
   14814:	0007c783          	lbu	a5,0(a5)
   14818:	40f407b3          	sub	a5,s0,a5
   1481c:	0007c483          	lbu	s1,0(a5)
   14820:	03012503          	lw	a0,48(sp)
   14824:	03412583          	lw	a1,52(sp)
   14828:	ec81a603          	lw	a2,-312(gp) # 2e6d8 <__SDATA_BEGIN__+0x28>
   1482c:	ecc1a683          	lw	a3,-308(gp) # 2e6dc <__SDATA_BEGIN__+0x2c>
   14830:	130020ef          	jal	ra,16960 <__adddf3>
   14834:	00050713          	addi	a4,a0,0
   14838:	00058793          	addi	a5,a1,0
   1483c:	00078593          	addi	a1,a5,0
   14840:	00070513          	addi	a0,a4,0
   14844:	6e5030ef          	jal	ra,18728 <__fixdfsi>
   14848:	03c12783          	lw	a5,60(sp)
   1484c:	07c12683          	lw	a3,124(sp)
   14850:	00f50733          	add	a4,a0,a5
   14854:	03812783          	lw	a5,56(sp)
   14858:	04012503          	lw	a0,64(sp)
   1485c:	02f70733          	mul	a4,a4,a5
   14860:	00199793          	slli	a5,s3,0x1
   14864:	00f687b3          	add	a5,a3,a5
   14868:	017787b3          	add	a5,a5,s7
   1486c:	ffc1a583          	lw	a1,-4(gp) # 2e80c <__SDATA_BEGIN__+0x15c>
   14870:	00e787b3          	add	a5,a5,a4
   14874:	0007c783          	lbu	a5,0(a5)
   14878:	40f407b3          	sub	a5,s0,a5
   1487c:	0007c783          	lbu	a5,0(a5)
   14880:	009784b3          	add	s1,a5,s1
   14884:	039040ef          	jal	ra,190bc <__mulsf3>
   14888:	02a12823          	sw	a0,48(sp)
   1488c:	4c1040ef          	jal	ra,1954c <__extendsfdf2>
   14890:	00a12c23          	sw	a0,24(sp)
   14894:	03012503          	lw	a0,48(sp)
   14898:	00b12e23          	sw	a1,28(sp)
   1489c:	00000593          	addi	a1,zero,0
   148a0:	784040ef          	jal	ra,19024 <__lesf2>
   148a4:	4a054c63          	blt	a0,zero,14d5c <susan_corners+0xd10>
   148a8:	01812503          	lw	a0,24(sp)
   148ac:	01c12583          	lw	a1,28(sp)
   148b0:	ec81a603          	lw	a2,-312(gp) # 2e6d8 <__SDATA_BEGIN__+0x28>
   148b4:	ecc1a683          	lw	a3,-308(gp) # 2e6dc <__SDATA_BEGIN__+0x2c>
   148b8:	0a8020ef          	jal	ra,16960 <__adddf3>
   148bc:	00050713          	addi	a4,a0,0
   148c0:	00058793          	addi	a5,a1,0
   148c4:	00070513          	addi	a0,a4,0
   148c8:	00078593          	addi	a1,a5,0
   148cc:	65d030ef          	jal	ra,18728 <__fixdfsi>
   148d0:	00300793          	addi	a5,zero,3
   148d4:	02f989b3          	mul	s3,s3,a5
   148d8:	03c12783          	lw	a5,60(sp)
   148dc:	00f50733          	add	a4,a0,a5
   148e0:	03812783          	lw	a5,56(sp)
   148e4:	02f70733          	mul	a4,a4,a5
   148e8:	07c12783          	lw	a5,124(sp)
   148ec:	013787b3          	add	a5,a5,s3
   148f0:	017787b3          	add	a5,a5,s7
   148f4:	00e787b3          	add	a5,a5,a4
   148f8:	0007c783          	lbu	a5,0(a5)
   148fc:	40f407b3          	sub	a5,s0,a5
   14900:	0007c783          	lbu	a5,0(a5)
   14904:	00f487b3          	add	a5,s1,a5
   14908:	12200713          	addi	a4,zero,290
   1490c:	04f75263          	bge	a4,a5,14950 <susan_corners+0x904>
   14910:	08812603          	lw	a2,136(sp)
   14914:	01412683          	lw	a3,20(sp)
   14918:	03300793          	addi	a5,zero,51
   1491c:	02fc0733          	mul	a4,s8,a5
   14920:	40c686b3          	sub	a3,a3,a2
   14924:	01012603          	lw	a2,16(sp)
   14928:	00d62a23          	sw	a3,20(a2)
   1492c:	02012683          	lw	a3,32(sp)
   14930:	02f687b3          	mul	a5,a3,a5
   14934:	08812683          	lw	a3,136(sp)
   14938:	02d74733          	div	a4,a4,a3
   1493c:	02d7c7b3          	div	a5,a5,a3
   14940:	00c12683          	lw	a3,12(sp)
   14944:	00e6aa23          	sw	a4,20(a3)
   14948:	00812703          	lw	a4,8(sp)
   1494c:	00f72a23          	sw	a5,20(a4)
   14950:	01012783          	lw	a5,16(sp)
   14954:	001b8b93          	addi	s7,s7,1
   14958:	001d0d13          	addi	s10,s10,1
   1495c:	00478793          	addi	a5,a5,4
   14960:	00f12823          	sw	a5,16(sp)
   14964:	00c12783          	lw	a5,12(sp)
   14968:	001b0b13          	addi	s6,s6,1
   1496c:	001d8d93          	addi	s11,s11,1
   14970:	00478793          	addi	a5,a5,4
   14974:	00f12623          	sw	a5,12(sp)
   14978:	00812783          	lw	a5,8(sp)
   1497c:	001c8c93          	addi	s9,s9,1
   14980:	00190913          	addi	s2,s2,1
   14984:	00478793          	addi	a5,a5,4
   14988:	00f12423          	sw	a5,8(sp)
   1498c:	00412783          	lw	a5,4(sp)
   14990:	001a0a13          	addi	s4,s4,1
   14994:	00178793          	addi	a5,a5,1
   14998:	00f12223          	sw	a5,4(sp)
   1499c:	02c12783          	lw	a5,44(sp)
   149a0:	82fb9ce3          	bne	s7,a5,141d8 <susan_corners+0x18c>
   149a4:	03c12683          	lw	a3,60(sp)
   149a8:	05412783          	lw	a5,84(sp)
   149ac:	05812703          	lw	a4,88(sp)
   149b0:	00168693          	addi	a3,a3,1
   149b4:	02d12e23          	sw	a3,60(sp)
   149b8:	03812683          	lw	a3,56(sp)
   149bc:	06812483          	lw	s1,104(sp)
   149c0:	04812803          	lw	a6,72(sp)
   149c4:	40d78db3          	sub	s11,a5,a3
   149c8:	40d707b3          	sub	a5,a4,a3
   149cc:	04c12a03          	lw	s4,76(sp)
   149d0:	05012903          	lw	s2,80(sp)
   149d4:	02f12223          	sw	a5,36(sp)
   149d8:	06c12703          	lw	a4,108(sp)
   149dc:	03c12783          	lw	a5,60(sp)
   149e0:	05c12403          	lw	s0,92(sp)
   149e4:	00990933          	add	s2,s2,s1
   149e8:	009a0a33          	add	s4,s4,s1
   149ec:	00980833          	add	a6,a6,s1
   149f0:	f8e79463          	bne	a5,a4,14178 <susan_corners+0x12c>
   149f4:	00048893          	addi	a7,s1,0
   149f8:	0a812d83          	lw	s11,168(sp)
   149fc:	0ac12903          	lw	s2,172(sp)
   14a00:	0b012403          	lw	s0,176(sp)
   14a04:	0b412483          	lw	s1,180(sp)
   14a08:	00068793          	addi	a5,a3,0
   14a0c:	03812683          	lw	a3,56(sp)
   14a10:	00479b13          	slli	s6,a5,0x4
   14a14:	00379a93          	slli	s5,a5,0x3
   14a18:	01690fb3          	add	t6,s2,s6
   14a1c:	015902b3          	add	t0,s2,s5
   14a20:	00500393          	addi	t2,zero,5
   14a24:	00f88933          	add	s2,a7,a5
   14a28:	00a00793          	addi	a5,zero,10
   14a2c:	30d7d463          	bge	a5,a3,14d34 <susan_corners+0xce8>
   14a30:	03812783          	lw	a5,56(sp)
   14a34:	008a8a93          	addi	s5,s5,8
   14a38:	00000d13          	addi	s10,zero,0
   14a3c:	00f88a33          	add	s4,a7,a5
   14a40:	002a1a13          	slli	s4,s4,0x2
   14a44:	ffb78c13          	addi	s8,a5,-5
   14a48:	00888993          	addi	s3,a7,8
   14a4c:	01b12223          	sw	s11,4(sp)
   14a50:	00078b93          	addi	s7,a5,0
   14a54:	00291593          	slli	a1,s2,0x2
   14a58:	00b40f33          	add	t5,s0,a1
   14a5c:	013f86b3          	add	a3,t6,s3
   14a60:	00b485b3          	add	a1,s1,a1
   14a64:	016f8eb3          	add	t4,t6,s6
   14a68:	01428e33          	add	t3,t0,s4
   14a6c:	01fa8333          	add	t1,s5,t6
   14a70:	01328533          	add	a0,t0,s3
   14a74:	00028793          	addi	a5,t0,0
   14a78:	000f8813          	addi	a6,t6,0
   14a7c:	00500613          	addi	a2,zero,5
   14a80:	00c6ac83          	lw	s9,12(a3)
   14a84:	21905463          	bge	zero,s9,14c8c <susan_corners+0xc40>
   14a88:	0087ad83          	lw	s11,8(a5)
   14a8c:	219dd063          	bge	s11,s9,14c8c <susan_corners+0xc40>
   14a90:	00c7ad83          	lw	s11,12(a5)
   14a94:	1f9ddc63          	bge	s11,s9,14c8c <susan_corners+0xc40>
   14a98:	0107ad83          	lw	s11,16(a5)
   14a9c:	1f9dd863          	bge	s11,s9,14c8c <susan_corners+0xc40>
   14aa0:	0147ad83          	lw	s11,20(a5)
   14aa4:	1f9dd463          	bge	s11,s9,14c8c <susan_corners+0xc40>
   14aa8:	0187ad83          	lw	s11,24(a5)
   14aac:	1f9dd063          	bge	s11,s9,14c8c <susan_corners+0xc40>
   14ab0:	01c7ad83          	lw	s11,28(a5)
   14ab4:	1d9ddc63          	bge	s11,s9,14c8c <susan_corners+0xc40>
   14ab8:	0207ad83          	lw	s11,32(a5)
   14abc:	1d9dd863          	bge	s11,s9,14c8c <susan_corners+0xc40>
   14ac0:	00052d83          	lw	s11,0(a0)
   14ac4:	1d9dd463          	bge	s11,s9,14c8c <susan_corners+0xc40>
   14ac8:	00452d83          	lw	s11,4(a0)
   14acc:	1d9dd063          	bge	s11,s9,14c8c <susan_corners+0xc40>
   14ad0:	00852d83          	lw	s11,8(a0)
   14ad4:	1b9ddc63          	bge	s11,s9,14c8c <susan_corners+0xc40>
   14ad8:	00c52d83          	lw	s11,12(a0)
   14adc:	1b9dd863          	bge	s11,s9,14c8c <susan_corners+0xc40>
   14ae0:	01052d83          	lw	s11,16(a0)
   14ae4:	1b9dd463          	bge	s11,s9,14c8c <susan_corners+0xc40>
   14ae8:	01452d83          	lw	s11,20(a0)
   14aec:	1b9dd063          	bge	s11,s9,14c8c <susan_corners+0xc40>
   14af0:	01852d83          	lw	s11,24(a0)
   14af4:	199ddc63          	bge	s11,s9,14c8c <susan_corners+0xc40>
   14af8:	00882d83          	lw	s11,8(a6)
   14afc:	199dd863          	bge	s11,s9,14c8c <susan_corners+0xc40>
   14b00:	00c82d83          	lw	s11,12(a6)
   14b04:	199dd463          	bge	s11,s9,14c8c <susan_corners+0xc40>
   14b08:	01082d83          	lw	s11,16(a6)
   14b0c:	199dd063          	bge	s11,s9,14c8c <susan_corners+0xc40>
   14b10:	01482d83          	lw	s11,20(a6)
   14b14:	179ddc63          	bge	s11,s9,14c8c <susan_corners+0xc40>
   14b18:	01882d83          	lw	s11,24(a6)
   14b1c:	179dd863          	bge	s11,s9,14c8c <susan_corners+0xc40>
   14b20:	01c82d83          	lw	s11,28(a6)
   14b24:	179dd463          	bge	s11,s9,14c8c <susan_corners+0xc40>
   14b28:	02082d83          	lw	s11,32(a6)
   14b2c:	179dd063          	bge	s11,s9,14c8c <susan_corners+0xc40>
   14b30:	0006ad83          	lw	s11,0(a3)
   14b34:	159ddc63          	bge	s11,s9,14c8c <susan_corners+0xc40>
   14b38:	0046ad83          	lw	s11,4(a3)
   14b3c:	159dd863          	bge	s11,s9,14c8c <susan_corners+0xc40>
   14b40:	0086ad83          	lw	s11,8(a3)
   14b44:	159dd463          	bge	s11,s9,14c8c <susan_corners+0xc40>
   14b48:	0106ad83          	lw	s11,16(a3)
   14b4c:	15bcc063          	blt	s9,s11,14c8c <susan_corners+0xc40>
   14b50:	0146ad83          	lw	s11,20(a3)
   14b54:	13bccc63          	blt	s9,s11,14c8c <susan_corners+0xc40>
   14b58:	0186ad83          	lw	s11,24(a3)
   14b5c:	13bcc863          	blt	s9,s11,14c8c <susan_corners+0xc40>
   14b60:	00032d83          	lw	s11,0(t1)
   14b64:	13bcc463          	blt	s9,s11,14c8c <susan_corners+0xc40>
   14b68:	00432d83          	lw	s11,4(t1)
   14b6c:	13bcc063          	blt	s9,s11,14c8c <susan_corners+0xc40>
   14b70:	00832d83          	lw	s11,8(t1)
   14b74:	11bccc63          	blt	s9,s11,14c8c <susan_corners+0xc40>
   14b78:	00c32d83          	lw	s11,12(t1)
   14b7c:	11bcc863          	blt	s9,s11,14c8c <susan_corners+0xc40>
   14b80:	01032d83          	lw	s11,16(t1)
   14b84:	11bcc463          	blt	s9,s11,14c8c <susan_corners+0xc40>
   14b88:	01432d83          	lw	s11,20(t1)
   14b8c:	11bcc063          	blt	s9,s11,14c8c <susan_corners+0xc40>
   14b90:	01832d83          	lw	s11,24(t1)
   14b94:	0fbccc63          	blt	s9,s11,14c8c <susan_corners+0xc40>
   14b98:	008e2d83          	lw	s11,8(t3)
   14b9c:	0fbcc863          	blt	s9,s11,14c8c <susan_corners+0xc40>
   14ba0:	00ce2d83          	lw	s11,12(t3)
   14ba4:	0fbcc463          	blt	s9,s11,14c8c <susan_corners+0xc40>
   14ba8:	010e2d83          	lw	s11,16(t3)
   14bac:	0fbcc063          	blt	s9,s11,14c8c <susan_corners+0xc40>
   14bb0:	014e2d83          	lw	s11,20(t3)
   14bb4:	0dbccc63          	blt	s9,s11,14c8c <susan_corners+0xc40>
   14bb8:	018e2d83          	lw	s11,24(t3)
   14bbc:	0dbcc863          	blt	s9,s11,14c8c <susan_corners+0xc40>
   14bc0:	01ce2d83          	lw	s11,28(t3)
   14bc4:	0dbcc463          	blt	s9,s11,14c8c <susan_corners+0xc40>
   14bc8:	020e2d83          	lw	s11,32(t3)
   14bcc:	0dbcc063          	blt	s9,s11,14c8c <susan_corners+0xc40>
   14bd0:	008ead83          	lw	s11,8(t4)
   14bd4:	0bbccc63          	blt	s9,s11,14c8c <susan_corners+0xc40>
   14bd8:	00cead83          	lw	s11,12(t4)
   14bdc:	0bbcc863          	blt	s9,s11,14c8c <susan_corners+0xc40>
   14be0:	010ead83          	lw	s11,16(t4)
   14be4:	0bbcc463          	blt	s9,s11,14c8c <susan_corners+0xc40>
   14be8:	014ead83          	lw	s11,20(t4)
   14bec:	0bbcc063          	blt	s9,s11,14c8c <susan_corners+0xc40>
   14bf0:	018ead83          	lw	s11,24(t4)
   14bf4:	09bccc63          	blt	s9,s11,14c8c <susan_corners+0xc40>
   14bf8:	01cead83          	lw	s11,28(t4)
   14bfc:	09bcc863          	blt	s9,s11,14c8c <susan_corners+0xc40>
   14c00:	020ead83          	lw	s11,32(t4)
   14c04:	09bcc463          	blt	s9,s11,14c8c <susan_corners+0xc40>
   14c08:	01800c93          	addi	s9,zero,24
   14c0c:	039d0cb3          	mul	s9,s10,s9
   14c10:	07c12d83          	lw	s11,124(sp)
   14c14:	001d0d13          	addi	s10,s10,1
   14c18:	012d8db3          	add	s11,s11,s2
   14c1c:	00cd8db3          	add	s11,s11,a2
   14c20:	01b12423          	sw	s11,8(sp)
   14c24:	00004db7          	lui	s11,0x4
   14c28:	a98d8d93          	addi	s11,s11,-1384 # 3a98 <exit-0xc61c>
   14c2c:	01b12623          	sw	s11,12(sp)
   14c30:	00412d83          	lw	s11,4(sp)
   14c34:	019d8cb3          	add	s9,s11,s9
   14c38:	000ca423          	sw	zero,8(s9)
   14c3c:	00cca023          	sw	a2,0(s9)
   14c40:	007ca223          	sw	t2,4(s9)
   14c44:	014f2d83          	lw	s11,20(t5)
   14c48:	01bca623          	sw	s11,12(s9)
   14c4c:	0145ad83          	lw	s11,20(a1)
   14c50:	01bca823          	sw	s11,16(s9)
   14c54:	00812d83          	lw	s11,8(sp)
   14c58:	000dcd83          	lbu	s11,0(s11)
   14c5c:	01bcaa23          	sw	s11,20(s9)
   14c60:	00c12c83          	lw	s9,12(sp)
   14c64:	039d1463          	bne	s10,s9,14c8c <susan_corners+0xc40>
   14c68:	02c1a783          	lw	a5,44(gp) # 2e83c <_impure_ptr>
   14c6c:	0002d537          	lui	a0,0x2d
   14c70:	bac50513          	addi	a0,a0,-1108 # 2cbac <__ashldi3+0x548>
   14c74:	00c7a683          	lw	a3,12(a5)
   14c78:	01200613          	addi	a2,zero,18
   14c7c:	00100593          	addi	a1,zero,1
   14c80:	6b4080ef          	jal	ra,1d334 <fwrite>
   14c84:	00100513          	addi	a0,zero,1
   14c88:	c2cfb0ef          	jal	ra,100b4 <exit>
   14c8c:	00160613          	addi	a2,a2,1
   14c90:	00468693          	addi	a3,a3,4
   14c94:	004f0f13          	addi	t5,t5,4
   14c98:	00458593          	addi	a1,a1,4
   14c9c:	004e8e93          	addi	t4,t4,4
   14ca0:	004e0e13          	addi	t3,t3,4
   14ca4:	00430313          	addi	t1,t1,4
   14ca8:	00480813          	addi	a6,a6,4
   14cac:	00450513          	addi	a0,a0,4
   14cb0:	00478793          	addi	a5,a5,4
   14cb4:	dd8616e3          	bne	a2,s8,14a80 <susan_corners+0xa34>
   14cb8:	00138393          	addi	t2,t2,1
   14cbc:	011f8fb3          	add	t6,t6,a7
   14cc0:	011282b3          	add	t0,t0,a7
   14cc4:	01790933          	add	s2,s2,s7
   14cc8:	d87716e3          	bne	a4,t2,14a54 <susan_corners+0xa08>
   14ccc:	00412d83          	lw	s11,4(sp)
   14cd0:	001d1793          	slli	a5,s10,0x1
   14cd4:	01a787b3          	add	a5,a5,s10
   14cd8:	0f412a83          	lw	s5,244(sp)
   14cdc:	0f012b03          	lw	s6,240(sp)
   14ce0:	0ec12b83          	lw	s7,236(sp)
   14ce4:	0e812c03          	lw	s8,232(sp)
   14ce8:	0e412c83          	lw	s9,228(sp)
   14cec:	0e012d03          	lw	s10,224(sp)
   14cf0:	00379793          	slli	a5,a5,0x3
   14cf4:	00fd8db3          	add	s11,s11,a5
   14cf8:	00700793          	addi	a5,zero,7
   14cfc:	00040513          	addi	a0,s0,0
   14d00:	00fda423          	sw	a5,8(s11)
   14d04:	2dd040ef          	jal	ra,197e0 <free>
   14d08:	00048513          	addi	a0,s1,0
   14d0c:	2d5040ef          	jal	ra,197e0 <free>
   14d10:	10c12083          	lw	ra,268(sp)
   14d14:	10812403          	lw	s0,264(sp)
   14d18:	10412483          	lw	s1,260(sp)
   14d1c:	10012903          	lw	s2,256(sp)
   14d20:	0fc12983          	lw	s3,252(sp)
   14d24:	0f812a03          	lw	s4,248(sp)
   14d28:	0dc12d83          	lw	s11,220(sp)
   14d2c:	11010113          	addi	sp,sp,272
   14d30:	00008067          	jalr	zero,0(ra)
   14d34:	00138393          	addi	t2,t2,1
   14d38:	011f8fb3          	add	t6,t6,a7
   14d3c:	011282b3          	add	t0,t0,a7
   14d40:	00d90933          	add	s2,s2,a3
   14d44:	cee394e3          	bne	t2,a4,14a2c <susan_corners+0x9e0>
   14d48:	00000d13          	addi	s10,zero,0
   14d4c:	f85ff06f          	jal	zero,14cd0 <susan_corners+0xc84>
   14d50:	03812783          	lw	a5,56(sp)
   14d54:	00279893          	slli	a7,a5,0x2
   14d58:	cb5ff06f          	jal	zero,14a0c <susan_corners+0x9c0>
   14d5c:	01812503          	lw	a0,24(sp)
   14d60:	01c12583          	lw	a1,28(sp)
   14d64:	ec81a603          	lw	a2,-312(gp) # 2e6d8 <__SDATA_BEGIN__+0x28>
   14d68:	ecc1a683          	lw	a3,-308(gp) # 2e6dc <__SDATA_BEGIN__+0x2c>
   14d6c:	214030ef          	jal	ra,17f80 <__subdf3>
   14d70:	00050713          	addi	a4,a0,0
   14d74:	00058793          	addi	a5,a1,0
   14d78:	b4dff06f          	jal	zero,148c4 <susan_corners+0x878>
   14d7c:	ec81a603          	lw	a2,-312(gp) # 2e6d8 <__SDATA_BEGIN__+0x28>
   14d80:	ecc1a683          	lw	a3,-308(gp) # 2e6dc <__SDATA_BEGIN__+0x2c>
   14d84:	01812503          	lw	a0,24(sp)
   14d88:	01c12583          	lw	a1,28(sp)
   14d8c:	1f4030ef          	jal	ra,17f80 <__subdf3>
   14d90:	199030ef          	jal	ra,18728 <__fixdfsi>
   14d94:	03c12783          	lw	a5,60(sp)
   14d98:	00000593          	addi	a1,zero,0
   14d9c:	00f50733          	add	a4,a0,a5
   14da0:	03812783          	lw	a5,56(sp)
   14da4:	00048513          	addi	a0,s1,0
   14da8:	02f70733          	mul	a4,a4,a5
   14dac:	07c12783          	lw	a5,124(sp)
   14db0:	013787b3          	add	a5,a5,s3
   14db4:	017787b3          	add	a5,a5,s7
   14db8:	00e787b3          	add	a5,a5,a4
   14dbc:	0007c783          	lbu	a5,0(a5)
   14dc0:	40f407b3          	sub	a5,s0,a5
   14dc4:	0007c483          	lbu	s1,0(a5)
   14dc8:	25c040ef          	jal	ra,19024 <__lesf2>
   14dcc:	a4055ae3          	bge	a0,zero,14820 <susan_corners+0x7d4>
   14dd0:	03012503          	lw	a0,48(sp)
   14dd4:	03412583          	lw	a1,52(sp)
   14dd8:	ec81a603          	lw	a2,-312(gp) # 2e6d8 <__SDATA_BEGIN__+0x28>
   14ddc:	ecc1a683          	lw	a3,-308(gp) # 2e6dc <__SDATA_BEGIN__+0x2c>
   14de0:	1a0030ef          	jal	ra,17f80 <__subdf3>
   14de4:	00050713          	addi	a4,a0,0
   14de8:	00058793          	addi	a5,a1,0
   14dec:	a51ff06f          	jal	zero,1483c <susan_corners+0x7f0>
   14df0:	000c0513          	addi	a0,s8,0
   14df4:	64c040ef          	jal	ra,19440 <__floatsisf>
   14df8:	02012783          	lw	a5,32(sp)
   14dfc:	02012703          	lw	a4,32(sp)
   14e00:	00050493          	addi	s1,a0,0
   14e04:	41f7d793          	srai	a5,a5,0x1f
   14e08:	00e7c533          	xor	a0,a5,a4
   14e0c:	40f50533          	sub	a0,a0,a5
   14e10:	630040ef          	jal	ra,19440 <__floatsisf>
   14e14:	00050593          	addi	a1,a0,0
   14e18:	00048513          	addi	a0,s1,0
   14e1c:	655030ef          	jal	ra,18c70 <__divsf3>
   14e20:	02012783          	lw	a5,32(sp)
   14e24:	00050993          	addi	s3,a0,0
   14e28:	fff7c793          	xori	a5,a5,-1
   14e2c:	41f7d493          	srai	s1,a5,0x1f
   14e30:	03c12783          	lw	a5,60(sp)
   14e34:	0024f493          	andi	s1,s1,2
   14e38:	fff48493          	addi	s1,s1,-1
   14e3c:	00f48ab3          	add	s5,s1,a5
   14e40:	03812783          	lw	a5,56(sp)
   14e44:	02fa87b3          	mul	a5,s5,a5
   14e48:	017787b3          	add	a5,a5,s7
   14e4c:	00f12c23          	sw	a5,24(sp)
   14e50:	6fc040ef          	jal	ra,1954c <__extendsfdf2>
   14e54:	04a12023          	sw	a0,64(sp)
   14e58:	04b12223          	sw	a1,68(sp)
   14e5c:	00098513          	addi	a0,s3,0
   14e60:	00098593          	addi	a1,s3,0
   14e64:	1e1030ef          	jal	ra,18844 <__addsf3>
   14e68:	08a12223          	sw	a0,132(sp)
   14e6c:	6e0040ef          	jal	ra,1954c <__extendsfdf2>
   14e70:	009a87b3          	add	a5,s5,s1
   14e74:	02f12823          	sw	a5,48(sp)
   14e78:	03012703          	lw	a4,48(sp)
   14e7c:	03812783          	lw	a5,56(sp)
   14e80:	06a12023          	sw	a0,96(sp)
   14e84:	06b12223          	sw	a1,100(sp)
   14e88:	02e787b3          	mul	a5,a5,a4
   14e8c:	00098513          	addi	a0,s3,0
   14e90:	00000593          	addi	a1,zero,0
   14e94:	017787b3          	add	a5,a5,s7
   14e98:	08f12023          	sw	a5,128(sp)
   14e9c:	188040ef          	jal	ra,19024 <__lesf2>
   14ea0:	10054863          	blt	a0,zero,14fb0 <susan_corners+0xf64>
   14ea4:	ec81a603          	lw	a2,-312(gp) # 2e6d8 <__SDATA_BEGIN__+0x28>
   14ea8:	ecc1a683          	lw	a3,-308(gp) # 2e6dc <__SDATA_BEGIN__+0x2c>
   14eac:	04012503          	lw	a0,64(sp)
   14eb0:	04412583          	lw	a1,68(sp)
   14eb4:	2ad010ef          	jal	ra,16960 <__adddf3>
   14eb8:	071030ef          	jal	ra,18728 <__fixdfsi>
   14ebc:	01812703          	lw	a4,24(sp)
   14ec0:	07c12783          	lw	a5,124(sp)
   14ec4:	00e787b3          	add	a5,a5,a4
   14ec8:	00a787b3          	add	a5,a5,a0
   14ecc:	0007c783          	lbu	a5,0(a5)
   14ed0:	40f407b3          	sub	a5,s0,a5
   14ed4:	0007c783          	lbu	a5,0(a5)
   14ed8:	00f12c23          	sw	a5,24(sp)
   14edc:	06012503          	lw	a0,96(sp)
   14ee0:	06412583          	lw	a1,100(sp)
   14ee4:	ec81a603          	lw	a2,-312(gp) # 2e6d8 <__SDATA_BEGIN__+0x28>
   14ee8:	ecc1a683          	lw	a3,-308(gp) # 2e6dc <__SDATA_BEGIN__+0x2c>
   14eec:	275010ef          	jal	ra,16960 <__adddf3>
   14ef0:	00050713          	addi	a4,a0,0
   14ef4:	00058793          	addi	a5,a1,0
   14ef8:	00078593          	addi	a1,a5,0
   14efc:	00070513          	addi	a0,a4,0
   14f00:	029030ef          	jal	ra,18728 <__fixdfsi>
   14f04:	03012783          	lw	a5,48(sp)
   14f08:	03812703          	lw	a4,56(sp)
   14f0c:	08012683          	lw	a3,128(sp)
   14f10:	00f487b3          	add	a5,s1,a5
   14f14:	02e787b3          	mul	a5,a5,a4
   14f18:	07c12703          	lw	a4,124(sp)
   14f1c:	00d70733          	add	a4,a4,a3
   14f20:	00a70733          	add	a4,a4,a0
   14f24:	00074703          	lbu	a4,0(a4)
   14f28:	ffc1a583          	lw	a1,-4(gp) # 2e80c <__SDATA_BEGIN__+0x15c>
   14f2c:	40e40733          	sub	a4,s0,a4
   14f30:	01812683          	lw	a3,24(sp)
   14f34:	00074703          	lbu	a4,0(a4)
   14f38:	00098513          	addi	a0,s3,0
   14f3c:	017789b3          	add	s3,a5,s7
   14f40:	00d704b3          	add	s1,a4,a3
   14f44:	178040ef          	jal	ra,190bc <__mulsf3>
   14f48:	02a12823          	sw	a0,48(sp)
   14f4c:	600040ef          	jal	ra,1954c <__extendsfdf2>
   14f50:	00a12c23          	sw	a0,24(sp)
   14f54:	03012503          	lw	a0,48(sp)
   14f58:	00b12e23          	sw	a1,28(sp)
   14f5c:	00000593          	addi	a1,zero,0
   14f60:	0c4040ef          	jal	ra,19024 <__lesf2>
   14f64:	0a054a63          	blt	a0,zero,15018 <susan_corners+0xfcc>
   14f68:	01812503          	lw	a0,24(sp)
   14f6c:	01c12583          	lw	a1,28(sp)
   14f70:	ec81a603          	lw	a2,-312(gp) # 2e6d8 <__SDATA_BEGIN__+0x28>
   14f74:	ecc1a683          	lw	a3,-308(gp) # 2e6dc <__SDATA_BEGIN__+0x2c>
   14f78:	1e9010ef          	jal	ra,16960 <__adddf3>
   14f7c:	00050713          	addi	a4,a0,0
   14f80:	00058793          	addi	a5,a1,0
   14f84:	00078593          	addi	a1,a5,0
   14f88:	00070513          	addi	a0,a4,0
   14f8c:	79c030ef          	jal	ra,18728 <__fixdfsi>
   14f90:	07c12783          	lw	a5,124(sp)
   14f94:	013789b3          	add	s3,a5,s3
   14f98:	00a989b3          	add	s3,s3,a0
   14f9c:	0009c783          	lbu	a5,0(s3)
   14fa0:	40f40433          	sub	s0,s0,a5
   14fa4:	00044783          	lbu	a5,0(s0)
   14fa8:	009787b3          	add	a5,a5,s1
   14fac:	95dff06f          	jal	zero,14908 <susan_corners+0x8bc>
   14fb0:	ec81a603          	lw	a2,-312(gp) # 2e6d8 <__SDATA_BEGIN__+0x28>
   14fb4:	ecc1a683          	lw	a3,-308(gp) # 2e6dc <__SDATA_BEGIN__+0x2c>
   14fb8:	04012503          	lw	a0,64(sp)
   14fbc:	04412583          	lw	a1,68(sp)
   14fc0:	7c1020ef          	jal	ra,17f80 <__subdf3>
   14fc4:	764030ef          	jal	ra,18728 <__fixdfsi>
   14fc8:	01812703          	lw	a4,24(sp)
   14fcc:	07c12783          	lw	a5,124(sp)
   14fd0:	00000593          	addi	a1,zero,0
   14fd4:	00e787b3          	add	a5,a5,a4
   14fd8:	00a787b3          	add	a5,a5,a0
   14fdc:	0007c783          	lbu	a5,0(a5)
   14fe0:	08412503          	lw	a0,132(sp)
   14fe4:	40f407b3          	sub	a5,s0,a5
   14fe8:	0007c783          	lbu	a5,0(a5)
   14fec:	00f12c23          	sw	a5,24(sp)
   14ff0:	034040ef          	jal	ra,19024 <__lesf2>
   14ff4:	ee0554e3          	bge	a0,zero,14edc <susan_corners+0xe90>
   14ff8:	06012503          	lw	a0,96(sp)
   14ffc:	06412583          	lw	a1,100(sp)
   15000:	ec81a603          	lw	a2,-312(gp) # 2e6d8 <__SDATA_BEGIN__+0x28>
   15004:	ecc1a683          	lw	a3,-308(gp) # 2e6dc <__SDATA_BEGIN__+0x2c>
   15008:	779020ef          	jal	ra,17f80 <__subdf3>
   1500c:	00050713          	addi	a4,a0,0
   15010:	00058793          	addi	a5,a1,0
   15014:	ee5ff06f          	jal	zero,14ef8 <susan_corners+0xeac>
   15018:	01812503          	lw	a0,24(sp)
   1501c:	01c12583          	lw	a1,28(sp)
   15020:	ec81a603          	lw	a2,-312(gp) # 2e6d8 <__SDATA_BEGIN__+0x28>
   15024:	ecc1a683          	lw	a3,-308(gp) # 2e6dc <__SDATA_BEGIN__+0x2c>
   15028:	759020ef          	jal	ra,17f80 <__subdf3>
   1502c:	00050713          	addi	a4,a0,0
   15030:	00058793          	addi	a5,a1,0
   15034:	f51ff06f          	jal	zero,14f84 <susan_corners+0xf38>

00015038 <susan_corners_quick>:
   15038:	f5010113          	addi	sp,sp,-176
   1503c:	0b212023          	sw	s2,160(sp)
   15040:	00078913          	addi	s2,a5,0
   15044:	030787b3          	mul	a5,a5,a6
   15048:	09412c23          	sw	s4,152(sp)
   1504c:	09512a23          	sw	s5,148(sp)
   15050:	09612823          	sw	s6,144(sp)
   15054:	07b12e23          	sw	s11,124(sp)
   15058:	00050a13          	addi	s4,a0,0
   1505c:	00060a93          	addi	s5,a2,0
   15060:	00058513          	addi	a0,a1,0
   15064:	ff980d93          	addi	s11,a6,-7
   15068:	00000593          	addi	a1,zero,0
   1506c:	00279613          	slli	a2,a5,0x2
   15070:	00700b13          	addi	s6,zero,7
   15074:	0a812423          	sw	s0,168(sp)
   15078:	0a112623          	sw	ra,172(sp)
   1507c:	00e12a23          	sw	a4,20(sp)
   15080:	00068413          	addi	s0,a3,0
   15084:	5fc090ef          	jal	ra,1e680 <memset>
   15088:	39bb50e3          	bge	s6,s11,15c08 <susan_corners_quick+0xbd0>
   1508c:	0a912223          	sw	s1,164(sp)
   15090:	09312e23          	sw	s3,156(sp)
   15094:	09712623          	sw	s7,140(sp)
   15098:	09812423          	sw	s8,136(sp)
   1509c:	09912223          	sw	s9,132(sp)
   150a0:	09a12023          	sw	s10,128(sp)
   150a4:	00e00793          	addi	a5,zero,14
   150a8:	00050893          	addi	a7,a0,0
   150ac:	3927d6e3          	bge	a5,s2,15c38 <susan_corners_quick+0xc00>
   150b0:	00191713          	slli	a4,s2,0x1
   150b4:	00291f13          	slli	t5,s2,0x2
   150b8:	ff8a0793          	addi	a5,s4,-8
   150bc:	01270c33          	add	s8,a4,s2
   150c0:	012f04b3          	add	s1,t5,s2
   150c4:	004a0b93          	addi	s7,s4,4
   150c8:	018a0c33          	add	s8,s4,s8
   150cc:	00f484b3          	add	s1,s1,a5
   150d0:	00ea0d33          	add	s10,s4,a4
   150d4:	00391793          	slli	a5,s2,0x3
   150d8:	412786b3          	sub	a3,a5,s2
   150dc:	412b8cb3          	sub	s9,s7,s2
   150e0:	00078e93          	addi	t4,a5,0
   150e4:	006c0c13          	addi	s8,s8,6
   150e8:	000f0993          	addi	s3,t5,0
   150ec:	012b8bb3          	add	s7,s7,s2
   150f0:	006a0e13          	addi	t3,s4,6
   150f4:	01b12423          	sw	s11,8(sp)
   150f8:	01a12623          	sw	s10,12(sp)
   150fc:	000f0313          	addi	t1,t5,0
   15100:	00070793          	addi	a5,a4,0
   15104:	00c12503          	lw	a0,12(sp)
   15108:	00269f13          	slli	t5,a3,0x2
   1510c:	01e88f33          	add	t5,a7,t5
   15110:	013e05b3          	add	a1,t3,s3
   15114:	00d48613          	addi	a2,s1,13
   15118:	00dc8733          	add	a4,s9,a3
   1511c:	00da0833          	add	a6,s4,a3
   15120:	00dc03b3          	add	t2,s8,a3
   15124:	00d502b3          	add	t0,a0,a3
   15128:	00db8fb3          	add	t6,s7,a3
   1512c:	01612223          	sw	s6,4(sp)
   15130:	41358533          	sub	a0,a1,s3
   15134:	00d50533          	add	a0,a0,a3
   15138:	00154503          	lbu	a0,1(a0)
   1513c:	0005cd03          	lbu	s10,0(a1)
   15140:	0015cb03          	lbu	s6,1(a1)
   15144:	00aa8533          	add	a0,s5,a0
   15148:	41a50d33          	sub	s10,a0,s10
   1514c:	000d4d03          	lbu	s10,0(s10)
   15150:	41650b33          	sub	s6,a0,s6
   15154:	000b4b03          	lbu	s6,0(s6)
   15158:	0025cd83          	lbu	s11,2(a1)
   1515c:	064d0d13          	addi	s10,s10,100
   15160:	01ab0b33          	add	s6,s6,s10
   15164:	00064d03          	lbu	s10,0(a2)
   15168:	41b50db3          	sub	s11,a0,s11
   1516c:	000dcd83          	lbu	s11,0(s11)
   15170:	41a50d33          	sub	s10,a0,s10
   15174:	000d4d03          	lbu	s10,0(s10)
   15178:	016d8db3          	add	s11,s11,s6
   1517c:	00164b03          	lbu	s6,1(a2)
   15180:	01bd0d33          	add	s10,s10,s11
   15184:	00264d83          	lbu	s11,2(a2)
   15188:	41650b33          	sub	s6,a0,s6
   1518c:	000b4b03          	lbu	s6,0(s6)
   15190:	41b50db3          	sub	s11,a0,s11
   15194:	000dcd83          	lbu	s11,0(s11)
   15198:	01ab0b33          	add	s6,s6,s10
   1519c:	00364d03          	lbu	s10,3(a2)
   151a0:	016d8db3          	add	s11,s11,s6
   151a4:	00464b03          	lbu	s6,4(a2)
   151a8:	41a50d33          	sub	s10,a0,s10
   151ac:	000d4d03          	lbu	s10,0(s10)
   151b0:	41650b33          	sub	s6,a0,s6
   151b4:	000b4b03          	lbu	s6,0(s6)
   151b8:	01bd0d33          	add	s10,s10,s11
   151bc:	00074d83          	lbu	s11,0(a4)
   151c0:	01ab0b33          	add	s6,s6,s10
   151c4:	00174d03          	lbu	s10,1(a4)
   151c8:	41b50db3          	sub	s11,a0,s11
   151cc:	000dcd83          	lbu	s11,0(s11)
   151d0:	41a50d33          	sub	s10,a0,s10
   151d4:	000d4d03          	lbu	s10,0(s10)
   151d8:	016d8db3          	add	s11,s11,s6
   151dc:	00274b03          	lbu	s6,2(a4)
   151e0:	01bd0d33          	add	s10,s10,s11
   151e4:	00374d83          	lbu	s11,3(a4)
   151e8:	41650b33          	sub	s6,a0,s6
   151ec:	000b4b03          	lbu	s6,0(s6)
   151f0:	41b50db3          	sub	s11,a0,s11
   151f4:	000dcd83          	lbu	s11,0(s11)
   151f8:	01ab0b33          	add	s6,s6,s10
   151fc:	00474d03          	lbu	s10,4(a4)
   15200:	016d8db3          	add	s11,s11,s6
   15204:	00574b03          	lbu	s6,5(a4)
   15208:	41a50d33          	sub	s10,a0,s10
   1520c:	000d4d03          	lbu	s10,0(s10)
   15210:	41650b33          	sub	s6,a0,s6
   15214:	000b4b03          	lbu	s6,0(s6)
   15218:	01bd0d33          	add	s10,s10,s11
   1521c:	00674d83          	lbu	s11,6(a4)
   15220:	01ab0b33          	add	s6,s6,s10
   15224:	00484d03          	lbu	s10,4(a6)
   15228:	41b50db3          	sub	s11,a0,s11
   1522c:	000dcd83          	lbu	s11,0(s11)
   15230:	41a50d33          	sub	s10,a0,s10
   15234:	000d4d03          	lbu	s10,0(s10)
   15238:	016d8db3          	add	s11,s11,s6
   1523c:	00584b03          	lbu	s6,5(a6)
   15240:	01bd0d33          	add	s10,s10,s11
   15244:	00684d83          	lbu	s11,6(a6)
   15248:	41650b33          	sub	s6,a0,s6
   1524c:	000b4b03          	lbu	s6,0(s6)
   15250:	41b50db3          	sub	s11,a0,s11
   15254:	000dcd83          	lbu	s11,0(s11)
   15258:	01ab0b33          	add	s6,s6,s10
   1525c:	016d8b33          	add	s6,s11,s6
   15260:	168b5a63          	bge	s6,s0,153d4 <susan_corners_quick+0x39c>
   15264:	00884d03          	lbu	s10,8(a6)
   15268:	41a50d33          	sub	s10,a0,s10
   1526c:	000d4d03          	lbu	s10,0(s10)
   15270:	016d0b33          	add	s6,s10,s6
   15274:	168b5063          	bge	s6,s0,153d4 <susan_corners_quick+0x39c>
   15278:	00984d03          	lbu	s10,9(a6)
   1527c:	41a50d33          	sub	s10,a0,s10
   15280:	000d4d03          	lbu	s10,0(s10)
   15284:	016d0b33          	add	s6,s10,s6
   15288:	148b5663          	bge	s6,s0,153d4 <susan_corners_quick+0x39c>
   1528c:	00a84d03          	lbu	s10,10(a6)
   15290:	41a50d33          	sub	s10,a0,s10
   15294:	000d4d03          	lbu	s10,0(s10)
   15298:	016d0b33          	add	s6,s10,s6
   1529c:	128b5c63          	bge	s6,s0,153d4 <susan_corners_quick+0x39c>
   152a0:	000fcd03          	lbu	s10,0(t6)
   152a4:	41a50d33          	sub	s10,a0,s10
   152a8:	000d4d03          	lbu	s10,0(s10)
   152ac:	016d0b33          	add	s6,s10,s6
   152b0:	128b5263          	bge	s6,s0,153d4 <susan_corners_quick+0x39c>
   152b4:	001fcd03          	lbu	s10,1(t6)
   152b8:	41a50d33          	sub	s10,a0,s10
   152bc:	000d4d03          	lbu	s10,0(s10)
   152c0:	016d0b33          	add	s6,s10,s6
   152c4:	108b5863          	bge	s6,s0,153d4 <susan_corners_quick+0x39c>
   152c8:	002fcd03          	lbu	s10,2(t6)
   152cc:	41a50d33          	sub	s10,a0,s10
   152d0:	000d4d03          	lbu	s10,0(s10)
   152d4:	016d0b33          	add	s6,s10,s6
   152d8:	0e8b5e63          	bge	s6,s0,153d4 <susan_corners_quick+0x39c>
   152dc:	003fcd03          	lbu	s10,3(t6)
   152e0:	41a50d33          	sub	s10,a0,s10
   152e4:	000d4d03          	lbu	s10,0(s10)
   152e8:	016d0d33          	add	s10,s10,s6
   152ec:	0e8d5463          	bge	s10,s0,153d4 <susan_corners_quick+0x39c>
   152f0:	004fcb03          	lbu	s6,4(t6)
   152f4:	41650b33          	sub	s6,a0,s6
   152f8:	000b4b03          	lbu	s6,0(s6)
   152fc:	01ab0d33          	add	s10,s6,s10
   15300:	0c8d5a63          	bge	s10,s0,153d4 <susan_corners_quick+0x39c>
   15304:	005fcb03          	lbu	s6,5(t6)
   15308:	41650b33          	sub	s6,a0,s6
   1530c:	000b4b03          	lbu	s6,0(s6)
   15310:	01ab0d33          	add	s10,s6,s10
   15314:	0c8d5063          	bge	s10,s0,153d4 <susan_corners_quick+0x39c>
   15318:	006fcb03          	lbu	s6,6(t6)
   1531c:	41650b33          	sub	s6,a0,s6
   15320:	000b4b03          	lbu	s6,0(s6)
   15324:	01ab0d33          	add	s10,s6,s10
   15328:	0a8d5663          	bge	s10,s0,153d4 <susan_corners_quick+0x39c>
   1532c:	0052cb03          	lbu	s6,5(t0)
   15330:	41650b33          	sub	s6,a0,s6
   15334:	000b4b03          	lbu	s6,0(s6)
   15338:	01ab0d33          	add	s10,s6,s10
   1533c:	088d5c63          	bge	s10,s0,153d4 <susan_corners_quick+0x39c>
   15340:	0062cb03          	lbu	s6,6(t0)
   15344:	41650b33          	sub	s6,a0,s6
   15348:	000b4b03          	lbu	s6,0(s6)
   1534c:	01ab0d33          	add	s10,s6,s10
   15350:	088d5263          	bge	s10,s0,153d4 <susan_corners_quick+0x39c>
   15354:	0072cb03          	lbu	s6,7(t0)
   15358:	41650b33          	sub	s6,a0,s6
   1535c:	000b4b03          	lbu	s6,0(s6)
   15360:	01ab0d33          	add	s10,s6,s10
   15364:	068d5863          	bge	s10,s0,153d4 <susan_corners_quick+0x39c>
   15368:	0082cb03          	lbu	s6,8(t0)
   1536c:	41650b33          	sub	s6,a0,s6
   15370:	000b4b03          	lbu	s6,0(s6)
   15374:	01ab0d33          	add	s10,s6,s10
   15378:	048d5e63          	bge	s10,s0,153d4 <susan_corners_quick+0x39c>
   1537c:	0092cb03          	lbu	s6,9(t0)
   15380:	41650b33          	sub	s6,a0,s6
   15384:	000b4b03          	lbu	s6,0(s6)
   15388:	01ab0d33          	add	s10,s6,s10
   1538c:	048d5463          	bge	s10,s0,153d4 <susan_corners_quick+0x39c>
   15390:	0003cb03          	lbu	s6,0(t2)
   15394:	41650b33          	sub	s6,a0,s6
   15398:	000b4b03          	lbu	s6,0(s6)
   1539c:	01ab0d33          	add	s10,s6,s10
   153a0:	028d5a63          	bge	s10,s0,153d4 <susan_corners_quick+0x39c>
   153a4:	0013cb03          	lbu	s6,1(t2)
   153a8:	41650b33          	sub	s6,a0,s6
   153ac:	000b4b03          	lbu	s6,0(s6)
   153b0:	01ab0d33          	add	s10,s6,s10
   153b4:	028d5063          	bge	s10,s0,153d4 <susan_corners_quick+0x39c>
   153b8:	0023cb03          	lbu	s6,2(t2)
   153bc:	41650533          	sub	a0,a0,s6
   153c0:	00054503          	lbu	a0,0(a0)
   153c4:	01a50533          	add	a0,a0,s10
   153c8:	00855663          	bge	a0,s0,153d4 <susan_corners_quick+0x39c>
   153cc:	40a40533          	sub	a0,s0,a0
   153d0:	00af2e23          	sw	a0,28(t5)
   153d4:	00158593          	addi	a1,a1,1
   153d8:	00160613          	addi	a2,a2,1
   153dc:	00170713          	addi	a4,a4,1
   153e0:	00180813          	addi	a6,a6,1
   153e4:	004f0f13          	addi	t5,t5,4
   153e8:	00138393          	addi	t2,t2,1
   153ec:	00128293          	addi	t0,t0,1
   153f0:	001f8f93          	addi	t6,t6,1
   153f4:	d2b49ee3          	bne	s1,a1,15130 <susan_corners_quick+0xf8>
   153f8:	00412b03          	lw	s6,4(sp)
   153fc:	00812703          	lw	a4,8(sp)
   15400:	012484b3          	add	s1,s1,s2
   15404:	001b0b13          	addi	s6,s6,1
   15408:	012989b3          	add	s3,s3,s2
   1540c:	012686b3          	add	a3,a3,s2
   15410:	ceeb1ae3          	bne	s6,a4,15104 <susan_corners_quick+0xcc>
   15414:	00078713          	addi	a4,a5,0
   15418:	000b0d93          	addi	s11,s6,0
   1541c:	00030f13          	addi	t5,t1,0
   15420:	000e8793          	addi	a5,t4,0
   15424:	41200633          	sub	a2,zero,s2
   15428:	00461813          	slli	a6,a2,0x4
   1542c:	012f06b3          	add	a3,t5,s2
   15430:	012785b3          	add	a1,a5,s2
   15434:	00078293          	addi	t0,a5,0
   15438:	00261b93          	slli	s7,a2,0x2
   1543c:	010887b3          	add	a5,a7,a6
   15440:	01270733          	add	a4,a4,s2
   15444:	005a0c93          	addi	s9,s4,5
   15448:	ff990413          	addi	s0,s2,-7
   1544c:	00371a13          	slli	s4,a4,0x3
   15450:	01788333          	add	t1,a7,s7
   15454:	00269513          	slli	a0,a3,0x2
   15458:	00f12623          	sw	a5,12(sp)
   1545c:	005887b3          	add	a5,a7,t0
   15460:	01b12423          	sw	s11,8(sp)
   15464:	000a0c13          	addi	s8,s4,0
   15468:	00040993          	addi	s3,s0,0
   1546c:	01030b13          	addi	s6,t1,16
   15470:	00068393          	addi	t2,a3,0
   15474:	012c8d33          	add	s10,s9,s2
   15478:	00f12823          	sw	a5,16(sp)
   1547c:	00012c23          	sw	zero,24(sp)
   15480:	00561d93          	slli	s11,a2,0x5
   15484:	00259493          	slli	s1,a1,0x2
   15488:	00700a93          	addi	s5,zero,7
   1548c:	412c8fb3          	sub	t6,s9,s2
   15490:	000f0413          	addi	s0,t5,0
   15494:	40a00a33          	sub	s4,zero,a0
   15498:	00e00793          	addi	a5,zero,14
   1549c:	7127d863          	bge	a5,s2,15bac <susan_corners_quick+0xb74>
   154a0:	01012783          	lw	a5,16(sp)
   154a4:	41bb0733          	sub	a4,s6,s11
   154a8:	007c88b3          	add	a7,s9,t2
   154ac:	41b78eb3          	sub	t4,a5,s11
   154b0:	00c12783          	lw	a5,12(sp)
   154b4:	007d0833          	add	a6,s10,t2
   154b8:	005f8333          	add	t1,t6,t0
   154bc:	005c8533          	add	a0,s9,t0
   154c0:	005d05b3          	add	a1,s10,t0
   154c4:	009b0e33          	add	t3,s6,s1
   154c8:	018b0633          	add	a2,s6,s8
   154cc:	41b787b3          	sub	a5,a5,s11
   154d0:	00700693          	addi	a3,zero,7
   154d4:	01f12223          	sw	t6,4(sp)
   154d8:	00c72f03          	lw	t5,12(a4)
   154dc:	69e05e63          	bge	zero,t5,15b78 <susan_corners_quick+0xb40>
   154e0:	0107af83          	lw	t6,16(a5)
   154e4:	69efda63          	bge	t6,t5,15b78 <susan_corners_quick+0xb40>
   154e8:	0147af83          	lw	t6,20(a5)
   154ec:	69efd663          	bge	t6,t5,15b78 <susan_corners_quick+0xb40>
   154f0:	0187af83          	lw	t6,24(a5)
   154f4:	69efd263          	bge	t6,t5,15b78 <susan_corners_quick+0xb40>
   154f8:	01c7af83          	lw	t6,28(a5)
   154fc:	67efde63          	bge	t6,t5,15b78 <susan_corners_quick+0xb40>
   15500:	0207af83          	lw	t6,32(a5)
   15504:	67efda63          	bge	t6,t5,15b78 <susan_corners_quick+0xb40>
   15508:	0247af83          	lw	t6,36(a5)
   1550c:	67efd663          	bge	t6,t5,15b78 <susan_corners_quick+0xb40>
   15510:	0287af83          	lw	t6,40(a5)
   15514:	67efd263          	bge	t6,t5,15b78 <susan_corners_quick+0xb40>
   15518:	00062f83          	lw	t6,0(a2)
   1551c:	65efde63          	bge	t6,t5,15b78 <susan_corners_quick+0xb40>
   15520:	00462f83          	lw	t6,4(a2)
   15524:	65efda63          	bge	t6,t5,15b78 <susan_corners_quick+0xb40>
   15528:	00862f83          	lw	t6,8(a2)
   1552c:	65efd663          	bge	t6,t5,15b78 <susan_corners_quick+0xb40>
   15530:	00c62f83          	lw	t6,12(a2)
   15534:	65efd263          	bge	t6,t5,15b78 <susan_corners_quick+0xb40>
   15538:	01062f83          	lw	t6,16(a2)
   1553c:	63efde63          	bge	t6,t5,15b78 <susan_corners_quick+0xb40>
   15540:	01462f83          	lw	t6,20(a2)
   15544:	63efda63          	bge	t6,t5,15b78 <susan_corners_quick+0xb40>
   15548:	01862f83          	lw	t6,24(a2)
   1554c:	63efd663          	bge	t6,t5,15b78 <susan_corners_quick+0xb40>
   15550:	00ca0fb3          	add	t6,s4,a2
   15554:	018f8fb3          	add	t6,t6,s8
   15558:	01f12e23          	sw	t6,28(sp)
   1555c:	000faf83          	lw	t6,0(t6)
   15560:	61efdc63          	bge	t6,t5,15b78 <susan_corners_quick+0xb40>
   15564:	01c12f83          	lw	t6,28(sp)
   15568:	004faf83          	lw	t6,4(t6)
   1556c:	61efd663          	bge	t6,t5,15b78 <susan_corners_quick+0xb40>
   15570:	01c12f83          	lw	t6,28(sp)
   15574:	008faf83          	lw	t6,8(t6)
   15578:	61efd063          	bge	t6,t5,15b78 <susan_corners_quick+0xb40>
   1557c:	01c12f83          	lw	t6,28(sp)
   15580:	00cfaf83          	lw	t6,12(t6)
   15584:	5fefda63          	bge	t6,t5,15b78 <susan_corners_quick+0xb40>
   15588:	01c12f83          	lw	t6,28(sp)
   1558c:	010faf83          	lw	t6,16(t6)
