
./susan:     file format elf32-littleriscv


Disassembly of section .text:

000100b4 <exit>:
   100b4:	1141                	addi	sp,sp,-16
   100b6:	4581                	li	a1,0
   100b8:	c422                	sw	s0,8(sp)
   100ba:	c606                	sw	ra,12(sp)
   100bc:	842a                	mv	s0,a0
   100be:	698070ef          	jal	17756 <__call_exitprocs>
   100c2:	ff41a783          	lw	a5,-12(gp) # 23804 <__stdio_exit_handler>
   100c6:	c391                	beqz	a5,100ca <exit+0x16>
   100c8:	9782                	jalr	a5
   100ca:	8522                	mv	a0,s0
   100cc:	10b0e0ef          	jal	1e9d6 <_exit>

000100d0 <main>:
   100d0:	715d                	addi	sp,sp,-80
   100d2:	fffa82b7          	lui	t0,0xfffa8
   100d6:	c686                	sw	ra,76(sp)
   100d8:	c4a2                	sw	s0,72(sp)
   100da:	c2a6                	sw	s1,68(sp)
   100dc:	c0ca                	sw	s2,64(sp)
   100de:	de4e                	sw	s3,60(sp)
   100e0:	dc52                	sw	s4,56(sp)
   100e2:	da56                	sw	s5,52(sp)
   100e4:	d85a                	sw	s6,48(sp)
   100e6:	d65e                	sw	s7,44(sp)
   100e8:	d462                	sw	s8,40(sp)
   100ea:	d266                	sw	s9,36(sp)
   100ec:	d06a                	sw	s10,32(sp)
   100ee:	ce6e                	sw	s11,28(sp)
   100f0:	a422                	fsd	fs0,8(sp)
   100f2:	a026                	fsd	fs1,0(sp)
   100f4:	1a028293          	addi	t0,t0,416 # fffa81a0 <__BSS_END__+0xfff8467c>
   100f8:	4789                	li	a5,2
   100fa:	9116                	add	sp,sp,t0
   100fc:	28a7d563          	bge	a5,a0,10386 <main+0x2b6>
   10100:	8c2a                	mv	s8,a0
   10102:	41c8                	lw	a0,4(a1)
   10104:	8bae                	mv	s7,a1
   10106:	0874                	addi	a3,sp,28
   10108:	0830                	addi	a2,sp,24
   1010a:	080c                	addi	a1,sp,16
   1010c:	29ad                	jal	10586 <get_image>
   1010e:	470d                	li	a4,3
   10110:	fc01a407          	flw	fs0,-64(gp) # 237d0 <__SDATA_BEGIN__+0x120>
   10114:	1eec0c63          	beq	s8,a4,1030c <main+0x23c>
   10118:	f00004d3          	fmv.w.x	fs1,zero
   1011c:	00021db7          	lui	s11,0x21
   10120:	698d8d93          	addi	s11,s11,1688 # 21698 <__clzsi2+0x73a>
   10124:	4901                	li	s2,0
   10126:	4b01                	li	s6,0
   10128:	4a01                	li	s4,0
   1012a:	4481                	li	s1,0
   1012c:	4a85                	li	s5,1
   1012e:	4981                	li	s3,0
   10130:	4451                	li	s0,20
   10132:	02d00d13          	li	s10,45
   10136:	04100c93          	li	s9,65
   1013a:	00271693          	slli	a3,a4,0x2
   1013e:	96de                	add	a3,a3,s7
   10140:	429c                	lw	a5,0(a3)
   10142:	0007c603          	lbu	a2,0(a5)
   10146:	25a61063          	bne	a2,s10,10386 <main+0x2b6>
   1014a:	0017c783          	lbu	a5,1(a5)
   1014e:	0705                	addi	a4,a4,1
   10150:	fcd78793          	addi	a5,a5,-51
   10154:	0ff7f793          	zext.b	a5,a5
   10158:	00fce763          	bltu	s9,a5,10166 <main+0x96>
   1015c:	078a                	slli	a5,a5,0x2
   1015e:	97ee                	add	a5,a5,s11
   10160:	439c                	lw	a5,0(a5)
   10162:	8782                	jr	a5
   10164:	4909                	li	s2,2
   10166:	fd874ae3          	blt	a4,s8,1013a <main+0x6a>
   1016a:	0a091863          	bnez	s2,1021a <main+0x14a>
   1016e:	0a098663          	beqz	s3,1021a <main+0x14a>
   10172:	47e2                	lw	a5,24(sp)
   10174:	4572                	lw	a0,28(sp)
   10176:	02f50533          	mul	a0,a0,a5
   1017a:	050a                	slli	a0,a0,0x2
   1017c:	1a0040ef          	jal	1431c <malloc>
   10180:	85a2                	mv	a1,s0
   10182:	4619                	li	a2,6
   10184:	842a                	mv	s0,a0
   10186:	0848                	addi	a0,sp,20
   10188:	2d01                	jal	10798 <setup_brightness_lut>
   1018a:	4762                	lw	a4,24(sp)
   1018c:	47f2                	lw	a5,28(sp)
   1018e:	6685                	lui	a3,0x1
   10190:	4542                	lw	a0,16(sp)
   10192:	4652                	lw	a2,20(sp)
   10194:	a5a68693          	addi	a3,a3,-1446 # a5a <exit-0xf65a>
   10198:	85a2                	mv	a1,s0
   1019a:	18049963          	bnez	s1,1032c <main+0x25c>
   1019e:	6ca000ef          	jal	10868 <susan_principle>
   101a2:	4662                	lw	a2,24(sp)
   101a4:	4772                	lw	a4,28(sp)
   101a6:	45c2                	lw	a1,16(sp)
   101a8:	8522                	mv	a0,s0
   101aa:	02e60633          	mul	a2,a2,a4
   101ae:	2355                	jal	10752 <int_to_uchar>
   101b0:	a865                	j	10268 <main+0x198>
   101b2:	19875b63          	bge	a4,s8,10348 <main+0x278>
   101b6:	42c8                	lw	a0,4(a3)
   101b8:	c63a                	sw	a4,12(sp)
   101ba:	152040ef          	jal	1430c <atoi>
   101be:	4732                	lw	a4,12(sp)
   101c0:	842a                	mv	s0,a0
   101c2:	0705                	addi	a4,a4,1
   101c4:	f7874be3          	blt	a4,s8,1013a <main+0x6a>
   101c8:	b74d                	j	1016a <main+0x9a>
   101ca:	4b05                	li	s6,1
   101cc:	f78747e3          	blt	a4,s8,1013a <main+0x6a>
   101d0:	bf69                	j	1016a <main+0x9a>
   101d2:	4985                	li	s3,1
   101d4:	f78743e3          	blt	a4,s8,1013a <main+0x6a>
   101d8:	bf49                	j	1016a <main+0x9a>
   101da:	4a81                	li	s5,0
   101dc:	f5874fe3          	blt	a4,s8,1013a <main+0x6a>
   101e0:	b769                	j	1016a <main+0x9a>
   101e2:	15875b63          	bge	a4,s8,10338 <main+0x268>
   101e6:	42c8                	lw	a0,4(a3)
   101e8:	c63a                	sw	a4,12(sp)
   101ea:	11c040ef          	jal	14306 <atof>
   101ee:	40157453          	fcvt.s.d	fs0,fa0
   101f2:	4732                	lw	a4,12(sp)
   101f4:	a09417d3          	flt.s	a5,fs0,fs1
   101f8:	0705                	addi	a4,a4,1
   101fa:	8cdd                	or	s1,s1,a5
   101fc:	f3874fe3          	blt	a4,s8,1013a <main+0x6a>
   10200:	b7ad                	j	1016a <main+0x9a>
   10202:	4a05                	li	s4,1
   10204:	f3874be3          	blt	a4,s8,1013a <main+0x6a>
   10208:	b78d                	j	1016a <main+0x9a>
   1020a:	4485                	li	s1,1
   1020c:	f38747e3          	blt	a4,s8,1013a <main+0x6a>
   10210:	bfa9                	j	1016a <main+0x9a>
   10212:	4901                	li	s2,0
   10214:	f38743e3          	blt	a4,s8,1013a <main+0x6a>
   10218:	bf89                	j	1016a <main+0x9a>
   1021a:	4785                	li	a5,1
   1021c:	08f90763          	beq	s2,a5,102aa <main+0x1da>
   10220:	4789                	li	a5,2
   10222:	0ef91763          	bne	s2,a5,10310 <main+0x240>
   10226:	47f2                	lw	a5,28(sp)
   10228:	4562                	lw	a0,24(sp)
   1022a:	02f50533          	mul	a0,a0,a5
   1022e:	050a                	slli	a0,a0,0x2
   10230:	0ec040ef          	jal	1431c <malloc>
   10234:	4619                	li	a2,6
   10236:	892a                	mv	s2,a0
   10238:	85a2                	mv	a1,s0
   1023a:	0848                	addi	a0,sp,20
   1023c:	2bb1                	jal	10798 <setup_brightness_lut>
   1023e:	4542                	lw	a0,16(sp)
   10240:	4652                	lw	a2,20(sp)
   10242:	4762                	lw	a4,24(sp)
   10244:	4872                	lw	a6,28(sp)
   10246:	10099c63          	bnez	s3,1035e <main+0x28e>
   1024a:	87ba                	mv	a5,a4
   1024c:	85ca                	mv	a1,s2
   1024e:	1018                	addi	a4,sp,32
   10250:	73a00693          	li	a3,1850
   10254:	100b0263          	beqz	s6,10358 <main+0x288>
   10258:	3fa030ef          	jal	13652 <susan_corners_quick>
   1025c:	4662                	lw	a2,24(sp)
   1025e:	4542                	lw	a0,16(sp)
   10260:	86d2                	mv	a3,s4
   10262:	100c                	addi	a1,sp,32
   10264:	0f9020ef          	jal	12b5c <corner_draw>
   10268:	008ba503          	lw	a0,8(s7)
   1026c:	46f2                	lw	a3,28(sp)
   1026e:	4662                	lw	a2,24(sp)
   10270:	45c2                	lw	a1,16(sp)
   10272:	2ee5                	jal	1066a <put_image>
   10274:	000582b7          	lui	t0,0x58
   10278:	e6028293          	addi	t0,t0,-416 # 57e60 <__BSS_END__+0x3433c>
   1027c:	9116                	add	sp,sp,t0
   1027e:	40b6                	lw	ra,76(sp)
   10280:	4426                	lw	s0,72(sp)
   10282:	4496                	lw	s1,68(sp)
   10284:	4906                	lw	s2,64(sp)
   10286:	59f2                	lw	s3,60(sp)
   10288:	5a62                	lw	s4,56(sp)
   1028a:	5ad2                	lw	s5,52(sp)
   1028c:	5b42                	lw	s6,48(sp)
   1028e:	5bb2                	lw	s7,44(sp)
   10290:	5c22                	lw	s8,40(sp)
   10292:	5c92                	lw	s9,36(sp)
   10294:	5d02                	lw	s10,32(sp)
   10296:	4df2                	lw	s11,28(sp)
   10298:	2422                	fld	fs0,8(sp)
   1029a:	2482                	fld	fs1,0(sp)
   1029c:	4501                	li	a0,0
   1029e:	6161                	addi	sp,sp,80
   102a0:	8082                	ret
   102a2:	4905                	li	s2,1
   102a4:	e9874be3          	blt	a4,s8,1013a <main+0x6a>
   102a8:	b5c9                	j	1016a <main+0x9a>
   102aa:	47f2                	lw	a5,28(sp)
   102ac:	4562                	lw	a0,24(sp)
   102ae:	02f50533          	mul	a0,a0,a5
   102b2:	050a                	slli	a0,a0,0x2
   102b4:	068040ef          	jal	1431c <malloc>
   102b8:	85a2                	mv	a1,s0
   102ba:	4619                	li	a2,6
   102bc:	842a                	mv	s0,a0
   102be:	0848                	addi	a0,sp,20
   102c0:	29e1                	jal	10798 <setup_brightness_lut>
   102c2:	4762                	lw	a4,24(sp)
   102c4:	47f2                	lw	a5,28(sp)
   102c6:	ec0994e3          	bnez	s3,1018e <main+0xbe>
   102ca:	02f709b3          	mul	s3,a4,a5
   102ce:	854e                	mv	a0,s3
   102d0:	04c040ef          	jal	1431c <malloc>
   102d4:	864e                	mv	a2,s3
   102d6:	06400593          	li	a1,100
   102da:	8b2a                	mv	s6,a0
   102dc:	15c070ef          	jal	17438 <memset>
   102e0:	6705                	lui	a4,0x1
   102e2:	4542                	lw	a0,16(sp)
   102e4:	46d2                	lw	a3,20(sp)
   102e6:	47e2                	lw	a5,24(sp)
   102e8:	4872                	lw	a6,28(sp)
   102ea:	a5a70713          	addi	a4,a4,-1446 # a5a <exit-0xf65a>
   102ee:	865a                	mv	a2,s6
   102f0:	85a2                	mv	a1,s0
   102f2:	c0a1                	beqz	s1,10332 <main+0x262>
   102f4:	43a020ef          	jal	1272e <susan_edges_small>
   102f8:	080a9063          	bnez	s5,10378 <main+0x2a8>
   102fc:	46f2                	lw	a3,28(sp)
   102fe:	4662                	lw	a2,24(sp)
   10300:	4542                	lw	a0,16(sp)
   10302:	8752                	mv	a4,s4
   10304:	85da                	mv	a1,s6
   10306:	130010ef          	jal	11436 <edge_draw>
   1030a:	bfb9                	j	10268 <main+0x198>
   1030c:	4481                	li	s1,0
   1030e:	4451                	li	s0,20
   10310:	85a2                	mv	a1,s0
   10312:	0848                	addi	a0,sp,20
   10314:	4609                	li	a2,2
   10316:	2149                	jal	10798 <setup_brightness_lut>
   10318:	42040553          	fcvt.d.s	fa0,fs0
   1031c:	4752                	lw	a4,20(sp)
   1031e:	46f2                	lw	a3,28(sp)
   10320:	4662                	lw	a2,24(sp)
   10322:	45c2                	lw	a1,16(sp)
   10324:	8526                	mv	a0,s1
   10326:	515000ef          	jal	1103a <susan_smoothing>
   1032a:	bf3d                	j	10268 <main+0x198>
   1032c:	01d000ef          	jal	10b48 <susan_principle_small>
   10330:	bd8d                	j	101a2 <main+0xd2>
   10332:	085010ef          	jal	11bb6 <susan_edges>
   10336:	b7c9                	j	102f8 <main+0x228>
   10338:	00021537          	lui	a0,0x21
   1033c:	4c050513          	addi	a0,a0,1216 # 214c0 <__clzsi2+0x562>
   10340:	6d8060ef          	jal	16a18 <puts>
   10344:	4501                	li	a0,0
   10346:	33bd                	jal	100b4 <exit>
   10348:	00021537          	lui	a0,0x21
   1034c:	4dc50513          	addi	a0,a0,1244 # 214dc <__clzsi2+0x57e>
   10350:	6c8060ef          	jal	16a18 <puts>
   10354:	4501                	li	a0,0
   10356:	3bb9                	jal	100b4 <exit>
   10358:	08d020ef          	jal	12be4 <susan_corners>
   1035c:	b701                	j	1025c <main+0x18c>
   1035e:	87c2                	mv	a5,a6
   10360:	85ca                	mv	a1,s2
   10362:	73a00693          	li	a3,1850
   10366:	2309                	jal	10868 <susan_principle>
   10368:	4662                	lw	a2,24(sp)
   1036a:	47f2                	lw	a5,28(sp)
   1036c:	45c2                	lw	a1,16(sp)
   1036e:	854a                	mv	a0,s2
   10370:	02f60633          	mul	a2,a2,a5
   10374:	2ef9                	jal	10752 <int_to_uchar>
   10376:	bdcd                	j	10268 <main+0x198>
   10378:	46f2                	lw	a3,28(sp)
   1037a:	4662                	lw	a2,24(sp)
   1037c:	8522                	mv	a0,s0
   1037e:	85da                	mv	a1,s6
   10380:	130010ef          	jal	114b0 <susan_thin>
   10384:	bfa5                	j	102fc <main+0x22c>
   10386:	2055                	jal	1042a <usage>

00010388 <register_fini>:
   10388:	00000793          	li	a5,0
   1038c:	c791                	beqz	a5,10398 <register_fini+0x10>
   1038e:	6571                	lui	a0,0x1c
   10390:	99850513          	addi	a0,a0,-1640 # 1b998 <__libc_fini_array>
   10394:	4900706f          	j	17824 <atexit>
   10398:	8082                	ret

0001039a <_start>:
   1039a:	00013197          	auipc	gp,0x13
   1039e:	47618193          	addi	gp,gp,1142 # 23810 <__atexit>
   103a2:	00013517          	auipc	a0,0x13
   103a6:	45650513          	addi	a0,a0,1110 # 237f8 <__malloc_max_total_mem>
   103aa:	00013617          	auipc	a2,0x13
   103ae:	77a60613          	addi	a2,a2,1914 # 23b24 <__BSS_END__>
   103b2:	8e09                	sub	a2,a2,a0
   103b4:	4581                	li	a1,0
   103b6:	082070ef          	jal	17438 <memset>
   103ba:	00007517          	auipc	a0,0x7
   103be:	46a50513          	addi	a0,a0,1130 # 17824 <atexit>
   103c2:	c519                	beqz	a0,103d0 <_start+0x36>
   103c4:	0000b517          	auipc	a0,0xb
   103c8:	5d450513          	addi	a0,a0,1492 # 1b998 <__libc_fini_array>
   103cc:	458070ef          	jal	17824 <atexit>
   103d0:	7ff060ef          	jal	173ce <__libc_init_array>
   103d4:	4502                	lw	a0,0(sp)
   103d6:	004c                	addi	a1,sp,4
   103d8:	4601                	li	a2,0
   103da:	39dd                	jal	100d0 <main>
   103dc:	b9e1                	j	100b4 <exit>

000103de <__do_global_dtors_aux>:
   103de:	1141                	addi	sp,sp,-16
   103e0:	c422                	sw	s0,8(sp)
   103e2:	0081c783          	lbu	a5,8(gp) # 23818 <completed.1>
   103e6:	c606                	sw	ra,12(sp)
   103e8:	ef99                	bnez	a5,10406 <__do_global_dtors_aux+0x28>
   103ea:	00000793          	li	a5,0
   103ee:	cb89                	beqz	a5,10400 <__do_global_dtors_aux+0x22>
   103f0:	00023537          	lui	a0,0x23
   103f4:	88450513          	addi	a0,a0,-1916 # 22884 <__EH_FRAME_BEGIN__>
   103f8:	00000097          	auipc	ra,0x0
   103fc:	000000e7          	jalr	zero # 0 <exit-0x100b4>
   10400:	4785                	li	a5,1
   10402:	00f18423          	sb	a5,8(gp) # 23818 <completed.1>
   10406:	40b2                	lw	ra,12(sp)
   10408:	4422                	lw	s0,8(sp)
   1040a:	0141                	addi	sp,sp,16
   1040c:	8082                	ret

0001040e <frame_dummy>:
   1040e:	00000793          	li	a5,0
   10412:	cb99                	beqz	a5,10428 <frame_dummy+0x1a>
   10414:	00023537          	lui	a0,0x23
   10418:	00c18593          	addi	a1,gp,12 # 2381c <object.0>
   1041c:	88450513          	addi	a0,a0,-1916 # 22884 <__EH_FRAME_BEGIN__>
   10420:	00000317          	auipc	t1,0x0
   10424:	00000067          	jr	zero # 0 <exit-0x100b4>
   10428:	8082                	ret

0001042a <usage>:
   1042a:	00021537          	lui	a0,0x21
   1042e:	1141                	addi	sp,sp,-16
   10430:	fa050513          	addi	a0,a0,-96 # 20fa0 <__clzsi2+0x42>
   10434:	c606                	sw	ra,12(sp)
   10436:	5e2060ef          	jal	16a18 <puts>
   1043a:	00021537          	lui	a0,0x21
   1043e:	fcc50513          	addi	a0,a0,-52 # 20fcc <__clzsi2+0x6e>
   10442:	5d6060ef          	jal	16a18 <puts>
   10446:	00021537          	lui	a0,0x21
   1044a:	fec50513          	addi	a0,a0,-20 # 20fec <__clzsi2+0x8e>
   1044e:	5ca060ef          	jal	16a18 <puts>
   10452:	00021537          	lui	a0,0x21
   10456:	ffc50513          	addi	a0,a0,-4 # 20ffc <__clzsi2+0x9e>
   1045a:	5be060ef          	jal	16a18 <puts>
   1045e:	00021537          	lui	a0,0x21
   10462:	01050513          	addi	a0,a0,16 # 21010 <__clzsi2+0xb2>
   10466:	5b2060ef          	jal	16a18 <puts>
   1046a:	00021537          	lui	a0,0x21
   1046e:	05450513          	addi	a0,a0,84 # 21054 <__clzsi2+0xf6>
   10472:	5a6060ef          	jal	16a18 <puts>
   10476:	00021537          	lui	a0,0x21
   1047a:	09050513          	addi	a0,a0,144 # 21090 <__clzsi2+0x132>
   1047e:	59a060ef          	jal	16a18 <puts>
   10482:	00021537          	lui	a0,0x21
   10486:	0fc50513          	addi	a0,a0,252 # 210fc <__clzsi2+0x19e>
   1048a:	58e060ef          	jal	16a18 <puts>
   1048e:	00021537          	lui	a0,0x21
   10492:	12c50513          	addi	a0,a0,300 # 2112c <__clzsi2+0x1ce>
   10496:	582060ef          	jal	16a18 <puts>
   1049a:	00021537          	lui	a0,0x21
   1049e:	17c50513          	addi	a0,a0,380 # 2117c <__clzsi2+0x21e>
   104a2:	576060ef          	jal	16a18 <puts>
   104a6:	00021537          	lui	a0,0x21
   104aa:	1ec50513          	addi	a0,a0,492 # 211ec <__clzsi2+0x28e>
   104ae:	56a060ef          	jal	16a18 <puts>
   104b2:	00021537          	lui	a0,0x21
   104b6:	25850513          	addi	a0,a0,600 # 21258 <__clzsi2+0x2fa>
   104ba:	55e060ef          	jal	16a18 <puts>
   104be:	00021537          	lui	a0,0x21
   104c2:	2b450513          	addi	a0,a0,692 # 212b4 <__clzsi2+0x356>
   104c6:	552060ef          	jal	16a18 <puts>
   104ca:	4501                	li	a0,0
   104cc:	36e5                	jal	100b4 <exit>

000104ce <getint>:
   104ce:	8d010113          	addi	sp,sp,-1840
   104d2:	72f9                	lui	t0,0xffffe
   104d4:	72812423          	sw	s0,1832(sp)
   104d8:	72912223          	sw	s1,1828(sp)
   104dc:	73212023          	sw	s2,1824(sp)
   104e0:	71312e23          	sw	s3,1820(sp)
   104e4:	72112623          	sw	ra,1836(sp)
   104e8:	71412c23          	sw	s4,1816(sp)
   104ec:	9116                	add	sp,sp,t0
   104ee:	842a                	mv	s0,a0
   104f0:	02300493          	li	s1,35
   104f4:	3f0060ef          	jal	168e4 <getc>
   104f8:	597d                	li	s2,-1
   104fa:	49a5                	li	s3,9
   104fc:	00950d63          	beq	a0,s1,10516 <getint+0x48>
   10500:	03250363          	beq	a0,s2,10526 <getint+0x58>
   10504:	fd050793          	addi	a5,a0,-48
   10508:	02f9fe63          	bgeu	s3,a5,10544 <getint+0x76>
   1050c:	8522                	mv	a0,s0
   1050e:	3d6060ef          	jal	168e4 <getc>
   10512:	fe9517e3          	bne	a0,s1,10500 <getint+0x32>
   10516:	6589                	lui	a1,0x2
   10518:	32858593          	addi	a1,a1,808 # 2328 <exit-0xdd8c>
   1051c:	8622                	mv	a2,s0
   1051e:	850a                	mv	a0,sp
   10520:	40b050ef          	jal	1612a <fgets>
   10524:	b7e5                	j	1050c <getint+0x3e>
   10526:	fe41a783          	lw	a5,-28(gp) # 237f4 <_impure_ptr>
   1052a:	00021637          	lui	a2,0x21
   1052e:	000215b7          	lui	a1,0x21
   10532:	47c8                	lw	a0,12(a5)
   10534:	30060613          	addi	a2,a2,768 # 21300 <__clzsi2+0x3a2>
   10538:	30458593          	addi	a1,a1,772 # 21304 <__clzsi2+0x3a6>
   1053c:	7d1050ef          	jal	1650c <fprintf>
   10540:	4501                	li	a0,0
   10542:	3e8d                	jal	100b4 <exit>
   10544:	4481                	li	s1,0
   10546:	4925                	li	s2,9
   10548:	00249713          	slli	a4,s1,0x2
   1054c:	9726                	add	a4,a4,s1
   1054e:	0706                	slli	a4,a4,0x1
   10550:	8522                	mv	a0,s0
   10552:	00e784b3          	add	s1,a5,a4
   10556:	38e060ef          	jal	168e4 <getc>
   1055a:	fd050793          	addi	a5,a0,-48
   1055e:	fef975e3          	bgeu	s2,a5,10548 <getint+0x7a>
   10562:	6289                	lui	t0,0x2
   10564:	9116                	add	sp,sp,t0
   10566:	72c12083          	lw	ra,1836(sp)
   1056a:	8526                	mv	a0,s1
   1056c:	72812403          	lw	s0,1832(sp)
   10570:	72412483          	lw	s1,1828(sp)
   10574:	72012903          	lw	s2,1824(sp)
   10578:	71c12983          	lw	s3,1820(sp)
   1057c:	71812a03          	lw	s4,1816(sp)
   10580:	73010113          	addi	sp,sp,1840
   10584:	8082                	ret

00010586 <get_image>:
   10586:	1101                	addi	sp,sp,-32
   10588:	000217b7          	lui	a5,0x21
   1058c:	c256                	sw	s5,4(sp)
   1058e:	8aae                	mv	s5,a1
   10590:	32078593          	addi	a1,a5,800 # 21320 <__clzsi2+0x3c2>
   10594:	ca26                	sw	s1,20(sp)
   10596:	c84a                	sw	s2,16(sp)
   10598:	c64e                	sw	s3,12(sp)
   1059a:	ce06                	sw	ra,28(sp)
   1059c:	cc22                	sw	s0,24(sp)
   1059e:	c452                	sw	s4,8(sp)
   105a0:	89b2                	mv	s3,a2
   105a2:	8936                	mv	s2,a3
   105a4:	84aa                	mv	s1,a0
   105a6:	73b050ef          	jal	164e0 <fopen>
   105aa:	cd15                	beqz	a0,105e6 <get_image+0x60>
   105ac:	842a                	mv	s0,a0
   105ae:	25d050ef          	jal	1600a <fgetc>
   105b2:	8a2a                	mv	s4,a0
   105b4:	8522                	mv	a0,s0
   105b6:	255050ef          	jal	1600a <fgetc>
   105ba:	0ff57513          	zext.b	a0,a0
   105be:	fcb50513          	addi	a0,a0,-53
   105c2:	e511                	bnez	a0,105ce <get_image+0x48>
   105c4:	0ffa7793          	zext.b	a5,s4
   105c8:	fb078793          	addi	a5,a5,-80
   105cc:	cb8d                	beqz	a5,105fe <get_image+0x78>
   105ce:	fe41a783          	lw	a5,-28(gp) # 237f4 <_impure_ptr>
   105d2:	000215b7          	lui	a1,0x21
   105d6:	8626                	mv	a2,s1
   105d8:	47c8                	lw	a0,12(a5)
   105da:	33c58593          	addi	a1,a1,828 # 2133c <__clzsi2+0x3de>
   105de:	72f050ef          	jal	1650c <fprintf>
   105e2:	4501                	li	a0,0
   105e4:	3cc1                	jal	100b4 <exit>
   105e6:	fe41a783          	lw	a5,-28(gp) # 237f4 <_impure_ptr>
   105ea:	000215b7          	lui	a1,0x21
   105ee:	8626                	mv	a2,s1
   105f0:	47c8                	lw	a0,12(a5)
   105f2:	32458593          	addi	a1,a1,804 # 21324 <__clzsi2+0x3c6>
   105f6:	717050ef          	jal	1650c <fprintf>
   105fa:	4501                	li	a0,0
   105fc:	3c65                	jal	100b4 <exit>
   105fe:	8522                	mv	a0,s0
   10600:	35f9                	jal	104ce <getint>
   10602:	00a9a023          	sw	a0,0(s3)
   10606:	8522                	mv	a0,s0
   10608:	35d9                	jal	104ce <getint>
   1060a:	00a92023          	sw	a0,0(s2)
   1060e:	8522                	mv	a0,s0
   10610:	3d7d                	jal	104ce <getint>
   10612:	00092783          	lw	a5,0(s2)
   10616:	0009a503          	lw	a0,0(s3)
   1061a:	02f50533          	mul	a0,a0,a5
   1061e:	4ff030ef          	jal	1431c <malloc>
   10622:	0009a603          	lw	a2,0(s3)
   10626:	00092783          	lw	a5,0(s2)
   1062a:	86a2                	mv	a3,s0
   1062c:	00aaa023          	sw	a0,0(s5)
   10630:	02f60633          	mul	a2,a2,a5
   10634:	4585                	li	a1,1
   10636:	096060ef          	jal	166cc <fread>
   1063a:	ed09                	bnez	a0,10654 <get_image+0xce>
   1063c:	fe41a783          	lw	a5,-28(gp) # 237f4 <_impure_ptr>
   10640:	000215b7          	lui	a1,0x21
   10644:	8626                	mv	a2,s1
   10646:	47c8                	lw	a0,12(a5)
   10648:	36858593          	addi	a1,a1,872 # 21368 <__clzsi2+0x40a>
   1064c:	6c1050ef          	jal	1650c <fprintf>
   10650:	4501                	li	a0,0
   10652:	348d                	jal	100b4 <exit>
   10654:	8522                	mv	a0,s0
   10656:	4462                	lw	s0,24(sp)
   10658:	40f2                	lw	ra,28(sp)
   1065a:	44d2                	lw	s1,20(sp)
   1065c:	4942                	lw	s2,16(sp)
   1065e:	49b2                	lw	s3,12(sp)
   10660:	4a22                	lw	s4,8(sp)
   10662:	4a92                	lw	s5,4(sp)
   10664:	6105                	addi	sp,sp,32
   10666:	6600506f          	j	15cc6 <fclose>

0001066a <put_image>:
   1066a:	1101                	addi	sp,sp,-32
   1066c:	ca26                	sw	s1,20(sp)
   1066e:	c84a                	sw	s2,16(sp)
   10670:	c64e                	sw	s3,12(sp)
   10672:	c452                	sw	s4,8(sp)
   10674:	ce06                	sw	ra,28(sp)
   10676:	cc22                	sw	s0,24(sp)
   10678:	00054783          	lbu	a5,0(a0)
   1067c:	8a2e                	mv	s4,a1
   1067e:	000215b7          	lui	a1,0x21
   10682:	fd378793          	addi	a5,a5,-45
   10686:	84aa                	mv	s1,a0
   10688:	8932                	mv	s2,a2
   1068a:	89b6                	mv	s3,a3
   1068c:	38458593          	addi	a1,a1,900 # 21384 <__clzsi2+0x426>
   10690:	efa5                	bnez	a5,10708 <put_image+0x9e>
   10692:	00154783          	lbu	a5,1(a0)
   10696:	ebad                	bnez	a5,10708 <put_image+0x9e>
   10698:	4505                	li	a0,1
   1069a:	694050ef          	jal	15d2e <fdopen>
   1069e:	842a                	mv	s0,a0
   106a0:	00021537          	lui	a0,0x21
   106a4:	86a2                	mv	a3,s0
   106a6:	460d                	li	a2,3
   106a8:	4585                	li	a1,1
   106aa:	3a050513          	addi	a0,a0,928 # 213a0 <__clzsi2+0x442>
   106ae:	146060ef          	jal	167f4 <fwrite>
   106b2:	000215b7          	lui	a1,0x21
   106b6:	86ce                	mv	a3,s3
   106b8:	864a                	mv	a2,s2
   106ba:	3a458593          	addi	a1,a1,932 # 213a4 <__clzsi2+0x446>
   106be:	8522                	mv	a0,s0
   106c0:	64d050ef          	jal	1650c <fprintf>
   106c4:	00021537          	lui	a0,0x21
   106c8:	86a2                	mv	a3,s0
   106ca:	4611                	li	a2,4
   106cc:	4585                	li	a1,1
   106ce:	3ac50513          	addi	a0,a0,940 # 213ac <__clzsi2+0x44e>
   106d2:	122060ef          	jal	167f4 <fwrite>
   106d6:	033905b3          	mul	a1,s2,s3
   106da:	86a2                	mv	a3,s0
   106dc:	8552                	mv	a0,s4
   106de:	4605                	li	a2,1
   106e0:	114060ef          	jal	167f4 <fwrite>
   106e4:	4705                	li	a4,1
   106e6:	fe41a783          	lw	a5,-28(gp) # 237f4 <_impure_ptr>
   106ea:	04e51163          	bne	a0,a4,1072c <put_image+0xc2>
   106ee:	479c                	lw	a5,8(a5)
   106f0:	04878963          	beq	a5,s0,10742 <put_image+0xd8>
   106f4:	8522                	mv	a0,s0
   106f6:	4462                	lw	s0,24(sp)
   106f8:	40f2                	lw	ra,28(sp)
   106fa:	44d2                	lw	s1,20(sp)
   106fc:	4942                	lw	s2,16(sp)
   106fe:	49b2                	lw	s3,12(sp)
   10700:	4a22                	lw	s4,8(sp)
   10702:	6105                	addi	sp,sp,32
   10704:	5c20506f          	j	15cc6 <fclose>
   10708:	8526                	mv	a0,s1
   1070a:	5d7050ef          	jal	164e0 <fopen>
   1070e:	842a                	mv	s0,a0
   10710:	f941                	bnez	a0,106a0 <put_image+0x36>
   10712:	fe41a783          	lw	a5,-28(gp) # 237f4 <_impure_ptr>
   10716:	000215b7          	lui	a1,0x21
   1071a:	8626                	mv	a2,s1
   1071c:	47c8                	lw	a0,12(a5)
   1071e:	38858593          	addi	a1,a1,904 # 21388 <__clzsi2+0x42a>
   10722:	5eb050ef          	jal	1650c <fprintf>
   10726:	4501                	li	a0,0
   10728:	98dff0ef          	jal	100b4 <exit>
   1072c:	47c8                	lw	a0,12(a5)
   1072e:	000215b7          	lui	a1,0x21
   10732:	8626                	mv	a2,s1
   10734:	3b458593          	addi	a1,a1,948 # 213b4 <__clzsi2+0x456>
   10738:	5d5050ef          	jal	1650c <fprintf>
   1073c:	4501                	li	a0,0
   1073e:	977ff0ef          	jal	100b4 <exit>
   10742:	40f2                	lw	ra,28(sp)
   10744:	4462                	lw	s0,24(sp)
   10746:	44d2                	lw	s1,20(sp)
   10748:	4942                	lw	s2,16(sp)
   1074a:	49b2                	lw	s3,12(sp)
   1074c:	4a22                	lw	s4,8(sp)
   1074e:	6105                	addi	sp,sp,32
   10750:	8082                	ret

00010752 <int_to_uchar>:
   10752:	04c05163          	blez	a2,10794 <int_to_uchar+0x42>
   10756:	4114                	lw	a3,0(a0)
   10758:	060a                	slli	a2,a2,0x2
   1075a:	962a                	add	a2,a2,a0
   1075c:	87aa                	mv	a5,a0
   1075e:	8836                	mv	a6,a3
   10760:	4398                	lw	a4,0(a5)
   10762:	0791                	addi	a5,a5,4
   10764:	00e6d363          	bge	a3,a4,1076a <int_to_uchar+0x18>
   10768:	86ba                	mv	a3,a4
   1076a:	01075363          	bge	a4,a6,10770 <int_to_uchar+0x1e>
   1076e:	883a                	mv	a6,a4
   10770:	fef618e3          	bne	a2,a5,10760 <int_to_uchar+0xe>
   10774:	410686b3          	sub	a3,a3,a6
   10778:	4118                	lw	a4,0(a0)
   1077a:	0511                	addi	a0,a0,4
   1077c:	0585                	addi	a1,a1,1
   1077e:	41070733          	sub	a4,a4,a6
   10782:	00871793          	slli	a5,a4,0x8
   10786:	8f99                	sub	a5,a5,a4
   10788:	02d7c7b3          	div	a5,a5,a3
   1078c:	fef58fa3          	sb	a5,-1(a1)
   10790:	fea614e3          	bne	a2,a0,10778 <int_to_uchar+0x26>
   10794:	4501                	li	a0,0
   10796:	8082                	ret

00010798 <setup_brightness_lut>:
   10798:	1101                	addi	sp,sp,-32
   1079a:	ca26                	sw	s1,20(sp)
   1079c:	84aa                	mv	s1,a0
   1079e:	20400513          	li	a0,516
   107a2:	cc22                	sw	s0,24(sp)
   107a4:	c84a                	sw	s2,16(sp)
   107a6:	a422                	fsd	fs0,8(sp)
   107a8:	892e                	mv	s2,a1
   107aa:	ce06                	sw	ra,28(sp)
   107ac:	a026                	fsd	fs1,0(sp)
   107ae:	8432                	mv	s0,a2
   107b0:	36d030ef          	jal	1431c <malloc>
   107b4:	10250793          	addi	a5,a0,258
   107b8:	c09c                	sw	a5,0(s1)
   107ba:	4799                	li	a5,6
   107bc:	d0097453          	fcvt.s.w	fs0,s2
   107c0:	04f40963          	beq	s0,a5,10812 <setup_brightness_lut+0x7a>
   107c4:	ea01b487          	fld	fs1,-352(gp) # 236b0 <__SDATA_BEGIN__>
   107c8:	f0000413          	li	s0,-256
   107cc:	10100913          	li	s2,257
   107d0:	d0047553          	fcvt.s.w	fa0,s0
   107d4:	18857553          	fdiv.s	fa0,fa0,fs0
   107d8:	10a57553          	fmul.s	fa0,fa0,fa0
   107dc:	20a51553          	fneg.s	fa0,fa0
   107e0:	42050553          	fcvt.d.s	fa0,fa0
   107e4:	740030ef          	jal	13f24 <exp>
   107e8:	12957553          	fmul.d	fa0,fa0,fs1
   107ec:	409c                	lw	a5,0(s1)
   107ee:	97a2                	add	a5,a5,s0
   107f0:	0405                	addi	s0,s0,1
   107f2:	40157553          	fcvt.s.d	fa0,fa0
   107f6:	c0151753          	fcvt.wu.s	a4,fa0,rtz
   107fa:	00e78023          	sb	a4,0(a5)
   107fe:	fd2419e3          	bne	s0,s2,107d0 <setup_brightness_lut+0x38>
   10802:	40f2                	lw	ra,28(sp)
   10804:	4462                	lw	s0,24(sp)
   10806:	44d2                	lw	s1,20(sp)
   10808:	4942                	lw	s2,16(sp)
   1080a:	2422                	fld	fs0,8(sp)
   1080c:	2482                	fld	fs1,0(sp)
   1080e:	6105                	addi	sp,sp,32
   10810:	8082                	ret
   10812:	ea01b487          	fld	fs1,-352(gp) # 236b0 <__SDATA_BEGIN__>
   10816:	f0000413          	li	s0,-256
   1081a:	10100913          	li	s2,257
   1081e:	d00477d3          	fcvt.s.w	fa5,s0
   10822:	1887f7d3          	fdiv.s	fa5,fa5,fs0
   10826:	10f7f7d3          	fmul.s	fa5,fa5,fa5
   1082a:	10f7f553          	fmul.s	fa0,fa5,fa5
   1082e:	10f57553          	fmul.s	fa0,fa0,fa5
   10832:	20a51553          	fneg.s	fa0,fa0
   10836:	42050553          	fcvt.d.s	fa0,fa0
   1083a:	6ea030ef          	jal	13f24 <exp>
   1083e:	12957553          	fmul.d	fa0,fa0,fs1
   10842:	409c                	lw	a5,0(s1)
   10844:	97a2                	add	a5,a5,s0
   10846:	0405                	addi	s0,s0,1
   10848:	40157553          	fcvt.s.d	fa0,fa0
   1084c:	c0151753          	fcvt.wu.s	a4,fa0,rtz
   10850:	00e78023          	sb	a4,0(a5)
   10854:	fd2415e3          	bne	s0,s2,1081e <setup_brightness_lut+0x86>
   10858:	40f2                	lw	ra,28(sp)
   1085a:	4462                	lw	s0,24(sp)
   1085c:	44d2                	lw	s1,20(sp)
   1085e:	4942                	lw	s2,16(sp)
   10860:	2422                	fld	fs0,8(sp)
   10862:	2482                	fld	fs1,0(sp)
   10864:	6105                	addi	sp,sp,32
   10866:	8082                	ret

00010868 <susan_principle>:
   10868:	715d                	addi	sp,sp,-80
   1086a:	de4e                	sw	s3,60(sp)
   1086c:	89be                	mv	s3,a5
   1086e:	02f707b3          	mul	a5,a4,a5
   10872:	c4a2                	sw	s0,72(sp)
   10874:	c2a6                	sw	s1,68(sp)
   10876:	c0ca                	sw	s2,64(sp)
   10878:	84aa                	mv	s1,a0
   1087a:	892e                	mv	s2,a1
   1087c:	852e                	mv	a0,a1
   1087e:	8432                	mv	s0,a2
   10880:	4581                	li	a1,0
   10882:	c686                	sw	ra,76(sp)
   10884:	00279613          	slli	a2,a5,0x2
   10888:	c43a                	sw	a4,8(sp)
   1088a:	c636                	sw	a3,12(sp)
   1088c:	3ad060ef          	jal	17438 <memset>
   10890:	4799                	li	a5,6
   10892:	2b37d463          	bge	a5,s3,10b3a <susan_principle+0x2d2>
   10896:	4722                	lw	a4,8(sp)
   10898:	2ae7d163          	bge	a5,a4,10b3a <susan_principle+0x2d2>
   1089c:	00171393          	slli	t2,a4,0x1
   108a0:	00e38eb3          	add	t4,t2,a4
   108a4:	46b2                	lw	a3,12(sp)
   108a6:	01d48533          	add	a0,s1,t4
   108aa:	ffc48f93          	addi	t6,s1,-4
   108ae:	dc52                	sw	s4,56(sp)
   108b0:	da56                	sw	s5,52(sp)
   108b2:	d85a                	sw	s6,48(sp)
   108b4:	d65e                	sw	s7,44(sp)
   108b6:	d462                	sw	s8,40(sp)
   108b8:	d266                	sw	s9,36(sp)
   108ba:	d06a                	sw	s10,32(sp)
   108bc:	ce6e                	sw	s11,28(sp)
   108be:	19f5                	addi	s3,s3,-3
   108c0:	93a6                	add	t2,t2,s1
   108c2:	00250b13          	addi	s6,a0,2
   108c6:	9fba                	add	t6,t6,a4
   108c8:	4f01                	li	t5,0
   108ca:	428d                	li	t0,3
   108cc:	00248a93          	addi	s5,s1,2
   108d0:	00e48a33          	add	s4,s1,a4
   108d4:	002e9b93          	slli	s7,t4,0x2
   108d8:	9bca                	add	s7,s7,s2
   108da:	01ea8333          	add	t1,s5,t5
   108de:	005f8893          	addi	a7,t6,5
   108e2:	007f05b3          	add	a1,t5,t2
   108e6:	01da0633          	add	a2,s4,t4
   108ea:	007e8833          	add	a6,t4,t2
   108ee:	01db0e33          	add	t3,s6,t4
   108f2:	41e307b3          	sub	a5,t1,t5
   108f6:	97f6                	add	a5,a5,t4
   108f8:	0017c783          	lbu	a5,1(a5)
   108fc:	00034c03          	lbu	s8,0(t1) # 10420 <frame_dummy+0x12>
   10900:	00134c83          	lbu	s9,1(t1)
   10904:	97a2                	add	a5,a5,s0
   10906:	41878c33          	sub	s8,a5,s8
   1090a:	000c4c03          	lbu	s8,0(s8)
   1090e:	41978cb3          	sub	s9,a5,s9
   10912:	00234d03          	lbu	s10,2(t1)
   10916:	000ccc83          	lbu	s9,0(s9)
   1091a:	064c0c13          	addi	s8,s8,100
   1091e:	41a78d33          	sub	s10,a5,s10
   10922:	9ce2                	add	s9,s9,s8
   10924:	0008cc03          	lbu	s8,0(a7)
   10928:	000d4d03          	lbu	s10,0(s10)
   1092c:	41878c33          	sub	s8,a5,s8
   10930:	9d66                	add	s10,s10,s9
   10932:	000c4c03          	lbu	s8,0(s8)
   10936:	0018cc83          	lbu	s9,1(a7)
   1093a:	9c6a                	add	s8,s8,s10
   1093c:	41978cb3          	sub	s9,a5,s9
   10940:	0028cd03          	lbu	s10,2(a7)
   10944:	000ccc83          	lbu	s9,0(s9)
   10948:	41a78d33          	sub	s10,a5,s10
   1094c:	9ce2                	add	s9,s9,s8
   1094e:	000d4d03          	lbu	s10,0(s10)
   10952:	0038cc03          	lbu	s8,3(a7)
   10956:	9d66                	add	s10,s10,s9
   10958:	41878c33          	sub	s8,a5,s8
   1095c:	0048cc83          	lbu	s9,4(a7)
   10960:	000c4c03          	lbu	s8,0(s8)
   10964:	41978cb3          	sub	s9,a5,s9
   10968:	9c6a                	add	s8,s8,s10
   1096a:	000ccc83          	lbu	s9,0(s9)
   1096e:	0005cd03          	lbu	s10,0(a1)
   10972:	9ce2                	add	s9,s9,s8
   10974:	41a78d33          	sub	s10,a5,s10
   10978:	0015cc03          	lbu	s8,1(a1)
   1097c:	000d4d03          	lbu	s10,0(s10)
   10980:	41878c33          	sub	s8,a5,s8
   10984:	9d66                	add	s10,s10,s9
   10986:	000c4c03          	lbu	s8,0(s8)
   1098a:	0025cc83          	lbu	s9,2(a1)
   1098e:	9c6a                	add	s8,s8,s10
   10990:	41978cb3          	sub	s9,a5,s9
   10994:	0035cd03          	lbu	s10,3(a1)
   10998:	000ccc83          	lbu	s9,0(s9)
   1099c:	41a78d33          	sub	s10,a5,s10
   109a0:	9ce2                	add	s9,s9,s8
   109a2:	000d4d03          	lbu	s10,0(s10)
   109a6:	0045cc03          	lbu	s8,4(a1)
   109aa:	9d66                	add	s10,s10,s9
   109ac:	41878c33          	sub	s8,a5,s8
   109b0:	0055cc83          	lbu	s9,5(a1)
   109b4:	000c4c03          	lbu	s8,0(s8)
   109b8:	41978cb3          	sub	s9,a5,s9
   109bc:	9c6a                	add	s8,s8,s10
   109be:	000ccc83          	lbu	s9,0(s9)
   109c2:	0065cd03          	lbu	s10,6(a1)
   109c6:	9ce2                	add	s9,s9,s8
   109c8:	41a78d33          	sub	s10,a5,s10
   109cc:	00054c03          	lbu	s8,0(a0)
   109d0:	000d4d83          	lbu	s11,0(s10)
   109d4:	41878c33          	sub	s8,a5,s8
   109d8:	9de6                	add	s11,s11,s9
   109da:	000c4c83          	lbu	s9,0(s8)
   109de:	00154c03          	lbu	s8,1(a0)
   109e2:	00254d03          	lbu	s10,2(a0)
   109e6:	9cee                	add	s9,s9,s11
   109e8:	41878c33          	sub	s8,a5,s8
   109ec:	000c4c03          	lbu	s8,0(s8)
   109f0:	41a78d33          	sub	s10,a5,s10
   109f4:	000d4d03          	lbu	s10,0(s10)
   109f8:	9c66                	add	s8,s8,s9
   109fa:	00454c83          	lbu	s9,4(a0)
   109fe:	9d62                	add	s10,s10,s8
   10a00:	00554c03          	lbu	s8,5(a0)
   10a04:	41978cb3          	sub	s9,a5,s9
   10a08:	000ccc83          	lbu	s9,0(s9)
   10a0c:	41878c33          	sub	s8,a5,s8
   10a10:	000c4c03          	lbu	s8,0(s8)
   10a14:	9cea                	add	s9,s9,s10
   10a16:	00654d03          	lbu	s10,6(a0)
   10a1a:	9c66                	add	s8,s8,s9
   10a1c:	00064c83          	lbu	s9,0(a2)
   10a20:	41a78d33          	sub	s10,a5,s10
   10a24:	000d4d03          	lbu	s10,0(s10)
   10a28:	41978cb3          	sub	s9,a5,s9
   10a2c:	000ccc83          	lbu	s9,0(s9)
   10a30:	9d62                	add	s10,s10,s8
   10a32:	00164c03          	lbu	s8,1(a2)
   10a36:	9cea                	add	s9,s9,s10
   10a38:	00264d03          	lbu	s10,2(a2)
   10a3c:	41878c33          	sub	s8,a5,s8
   10a40:	000c4c03          	lbu	s8,0(s8)
   10a44:	41a78d33          	sub	s10,a5,s10
   10a48:	000d4d03          	lbu	s10,0(s10)
   10a4c:	9c66                	add	s8,s8,s9
   10a4e:	00364c83          	lbu	s9,3(a2)
   10a52:	9d62                	add	s10,s10,s8
   10a54:	00464c03          	lbu	s8,4(a2)
   10a58:	41978cb3          	sub	s9,a5,s9
   10a5c:	000ccc83          	lbu	s9,0(s9)
   10a60:	41878c33          	sub	s8,a5,s8
   10a64:	000c4c03          	lbu	s8,0(s8)
   10a68:	9cea                	add	s9,s9,s10
   10a6a:	00564d03          	lbu	s10,5(a2)
   10a6e:	9c66                	add	s8,s8,s9
   10a70:	00664c83          	lbu	s9,6(a2)
   10a74:	41a78d33          	sub	s10,a5,s10
   10a78:	000d4d03          	lbu	s10,0(s10)
   10a7c:	41978cb3          	sub	s9,a5,s9
   10a80:	000ccc83          	lbu	s9,0(s9)
   10a84:	9d62                	add	s10,s10,s8
   10a86:	00184c03          	lbu	s8,1(a6)
   10a8a:	9cea                	add	s9,s9,s10
   10a8c:	00284d03          	lbu	s10,2(a6)
   10a90:	41878c33          	sub	s8,a5,s8
   10a94:	000c4c03          	lbu	s8,0(s8)
   10a98:	41a78d33          	sub	s10,a5,s10
   10a9c:	000d4d03          	lbu	s10,0(s10)
   10aa0:	9c66                	add	s8,s8,s9
   10aa2:	00384c83          	lbu	s9,3(a6)
   10aa6:	9d62                	add	s10,s10,s8
   10aa8:	00484c03          	lbu	s8,4(a6)
   10aac:	41978cb3          	sub	s9,a5,s9
   10ab0:	000ccc83          	lbu	s9,0(s9)
   10ab4:	41878c33          	sub	s8,a5,s8
   10ab8:	000c4c03          	lbu	s8,0(s8)
   10abc:	9cea                	add	s9,s9,s10
   10abe:	00584d03          	lbu	s10,5(a6)
   10ac2:	9c66                	add	s8,s8,s9
   10ac4:	000e4c83          	lbu	s9,0(t3)
   10ac8:	41a78d33          	sub	s10,a5,s10
   10acc:	000d4d03          	lbu	s10,0(s10)
   10ad0:	41978cb3          	sub	s9,a5,s9
   10ad4:	000ccc83          	lbu	s9,0(s9)
   10ad8:	9d62                	add	s10,s10,s8
   10ada:	001e4c03          	lbu	s8,1(t3)
   10ade:	9cea                	add	s9,s9,s10
   10ae0:	002e4d03          	lbu	s10,2(t3)
   10ae4:	41878c33          	sub	s8,a5,s8
   10ae8:	000c4c03          	lbu	s8,0(s8)
   10aec:	41a787b3          	sub	a5,a5,s10
   10af0:	0007c783          	lbu	a5,0(a5)
   10af4:	9c66                	add	s8,s8,s9
   10af6:	97e2                	add	a5,a5,s8
   10af8:	00f6c663          	blt	a3,a5,10b04 <susan_principle+0x29c>
   10afc:	40f687b3          	sub	a5,a3,a5
   10b00:	00fba623          	sw	a5,12(s7)
   10b04:	0305                	addi	t1,t1,1
   10b06:	0885                	addi	a7,a7,1
   10b08:	0585                	addi	a1,a1,1
   10b0a:	0505                	addi	a0,a0,1
   10b0c:	0605                	addi	a2,a2,1
   10b0e:	0805                	addi	a6,a6,1
   10b10:	0e05                	addi	t3,t3,1
   10b12:	0b91                	addi	s7,s7,4
   10b14:	ddf31fe3          	bne	t1,t6,108f2 <susan_principle+0x8a>
   10b18:	0285                	addi	t0,t0,1 # 2001 <exit-0xe0b3>
   10b1a:	9fba                	add	t6,t6,a4
   10b1c:	9f3a                	add	t5,t5,a4
   10b1e:	9eba                	add	t4,t4,a4
   10b20:	01328563          	beq	t0,s3,10b2a <susan_principle+0x2c2>
   10b24:	01d48533          	add	a0,s1,t4
   10b28:	b375                	j	108d4 <susan_principle+0x6c>
   10b2a:	5a62                	lw	s4,56(sp)
   10b2c:	5ad2                	lw	s5,52(sp)
   10b2e:	5b42                	lw	s6,48(sp)
   10b30:	5bb2                	lw	s7,44(sp)
   10b32:	5c22                	lw	s8,40(sp)
   10b34:	5c92                	lw	s9,36(sp)
   10b36:	5d02                	lw	s10,32(sp)
   10b38:	4df2                	lw	s11,28(sp)
   10b3a:	40b6                	lw	ra,76(sp)
   10b3c:	4426                	lw	s0,72(sp)
   10b3e:	4496                	lw	s1,68(sp)
   10b40:	4906                	lw	s2,64(sp)
   10b42:	59f2                	lw	s3,60(sp)
   10b44:	6161                	addi	sp,sp,80
   10b46:	8082                	ret

00010b48 <susan_principle_small>:
   10b48:	7139                	addi	sp,sp,-64
   10b4a:	d64e                	sw	s3,44(sp)
   10b4c:	89be                	mv	s3,a5
   10b4e:	02f707b3          	mul	a5,a4,a5
   10b52:	dc22                	sw	s0,56(sp)
   10b54:	d84a                	sw	s2,48(sp)
   10b56:	8432                	mv	s0,a2
   10b58:	892a                	mv	s2,a0
   10b5a:	852e                	mv	a0,a1
   10b5c:	4581                	li	a1,0
   10b5e:	de06                	sw	ra,60(sp)
   10b60:	c63a                	sw	a4,12(sp)
   10b62:	00279613          	slli	a2,a5,0x2
   10b66:	0d3060ef          	jal	17438 <memset>
   10b6a:	4789                	li	a5,2
   10b6c:	0f37dd63          	bge	a5,s3,10c66 <susan_principle_small+0x11e>
   10b70:	4732                	lw	a4,12(sp)
   10b72:	0ee7da63          	bge	a5,a4,10c66 <susan_principle_small+0x11e>
   10b76:	d452                	sw	s4,40(sp)
   10b78:	00450693          	addi	a3,a0,4
   10b7c:	00271a13          	slli	s4,a4,0x2
   10b80:	ffe90f13          	addi	t5,s2,-2
   10b84:	da26                	sw	s1,52(sp)
   10b86:	d256                	sw	s5,36(sp)
   10b88:	d05a                	sw	s6,32(sp)
   10b8a:	ce5e                	sw	s7,28(sp)
   10b8c:	cc62                	sw	s8,24(sp)
   10b8e:	ca66                	sw	s9,20(sp)
   10b90:	19fd                	addi	s3,s3,-1
   10b92:	014683b3          	add	t2,a3,s4
   10b96:	9f3a                	add	t5,t5,a4
   10b98:	82ba                	mv	t0,a4
   10b9a:	4f81                	li	t6,0
   10b9c:	4485                	li	s1,1
   10b9e:	00f70ab3          	add	s5,a4,a5
   10ba2:	2da00e93          	li	t4,730
   10ba6:	01f906b3          	add	a3,s2,t6
   10baa:	002f0593          	addi	a1,t5,2
   10bae:	01ea8633          	add	a2,s5,t5
   10bb2:	8e1e                	mv	t3,t2
   10bb4:	41f687b3          	sub	a5,a3,t6
   10bb8:	9796                	add	a5,a5,t0
   10bba:	0017c783          	lbu	a5,1(a5)
   10bbe:	0006c883          	lbu	a7,0(a3)
   10bc2:	0016c803          	lbu	a6,1(a3)
   10bc6:	97a2                	add	a5,a5,s0
   10bc8:	0026c503          	lbu	a0,2(a3)
   10bcc:	411788b3          	sub	a7,a5,a7
   10bd0:	0005c303          	lbu	t1,0(a1)
   10bd4:	41078833          	sub	a6,a5,a6
   10bd8:	0008cc83          	lbu	s9,0(a7)
   10bdc:	0025c883          	lbu	a7,2(a1)
   10be0:	40a78533          	sub	a0,a5,a0
   10be4:	00084c03          	lbu	s8,0(a6)
   10be8:	00064803          	lbu	a6,0(a2)
   10bec:	00054b03          	lbu	s6,0(a0)
   10bf0:	40678333          	sub	t1,a5,t1
   10bf4:	00164503          	lbu	a0,1(a2)
   10bf8:	411788b3          	sub	a7,a5,a7
   10bfc:	00034303          	lbu	t1,0(t1)
   10c00:	00264b83          	lbu	s7,2(a2)
   10c04:	064c8c93          	addi	s9,s9,100
   10c08:	41078833          	sub	a6,a5,a6
   10c0c:	0008c883          	lbu	a7,0(a7)
   10c10:	9c66                	add	s8,s8,s9
   10c12:	40a78533          	sub	a0,a5,a0
   10c16:	00084803          	lbu	a6,0(a6)
   10c1a:	9b62                	add	s6,s6,s8
   10c1c:	00054503          	lbu	a0,0(a0)
   10c20:	935a                	add	t1,t1,s6
   10c22:	417787b3          	sub	a5,a5,s7
   10c26:	0007c783          	lbu	a5,0(a5)
   10c2a:	989a                	add	a7,a7,t1
   10c2c:	9846                	add	a6,a6,a7
   10c2e:	9542                	add	a0,a0,a6
   10c30:	97aa                	add	a5,a5,a0
   10c32:	0685                	addi	a3,a3,1
   10c34:	40fe8533          	sub	a0,t4,a5
   10c38:	00fec463          	blt	t4,a5,10c40 <susan_principle_small+0xf8>
   10c3c:	00ae2023          	sw	a0,0(t3)
   10c40:	0585                	addi	a1,a1,1
   10c42:	0605                	addi	a2,a2,1
   10c44:	0e11                	addi	t3,t3,4
   10c46:	f6df17e3          	bne	t5,a3,10bb4 <susan_principle_small+0x6c>
   10c4a:	0485                	addi	s1,s1,1
   10c4c:	9f3a                	add	t5,t5,a4
   10c4e:	93d2                	add	t2,t2,s4
   10c50:	9fba                	add	t6,t6,a4
   10c52:	92ba                	add	t0,t0,a4
   10c54:	f53499e3          	bne	s1,s3,10ba6 <susan_principle_small+0x5e>
   10c58:	54d2                	lw	s1,52(sp)
   10c5a:	5a22                	lw	s4,40(sp)
   10c5c:	5a92                	lw	s5,36(sp)
   10c5e:	5b02                	lw	s6,32(sp)
   10c60:	4bf2                	lw	s7,28(sp)
   10c62:	4c62                	lw	s8,24(sp)
   10c64:	4cd2                	lw	s9,20(sp)
   10c66:	50f2                	lw	ra,60(sp)
   10c68:	5462                	lw	s0,56(sp)
   10c6a:	5942                	lw	s2,48(sp)
   10c6c:	59b2                	lw	s3,44(sp)
   10c6e:	6121                	addi	sp,sp,64
   10c70:	8082                	ret

00010c72 <median>:
   10c72:	fff58793          	addi	a5,a1,-1
   10c76:	02d787b3          	mul	a5,a5,a3
   10c7a:	00c785b3          	add	a1,a5,a2
   10c7e:	95aa                	add	a1,a1,a0
   10c80:	00d78733          	add	a4,a5,a3
   10c84:	00d707b3          	add	a5,a4,a3
   10c88:	fff5ce03          	lbu	t3,-1(a1)
   10c8c:	0005c303          	lbu	t1,0(a1)
   10c90:	9732                	add	a4,a4,a2
   10c92:	97b2                	add	a5,a5,a2
   10c94:	97aa                	add	a5,a5,a0
   10c96:	953a                	add	a0,a0,a4
   10c98:	fff7ce83          	lbu	t4,-1(a5)
   10c9c:	0007cf03          	lbu	t5,0(a5)
   10ca0:	0017cf83          	lbu	t6,1(a5)
   10ca4:	00154603          	lbu	a2,1(a0)
   10ca8:	fff54783          	lbu	a5,-1(a0)
   10cac:	0015c703          	lbu	a4,1(a1)
   10cb0:	01c35563          	bge	t1,t3,10cba <median+0x48>
   10cb4:	869a                	mv	a3,t1
   10cb6:	8372                	mv	t1,t3
   10cb8:	8e36                	mv	t3,a3
   10cba:	4681                	li	a3,0
   10cbc:	4511                	li	a0,4
   10cbe:	480d                	li	a6,3
   10cc0:	4889                	li	a7,2
   10cc2:	00675563          	bge	a4,t1,10ccc <median+0x5a>
   10cc6:	85ba                	mv	a1,a4
   10cc8:	871a                	mv	a4,t1
   10cca:	832e                	mv	t1,a1
   10ccc:	04e7cd63          	blt	a5,a4,10d26 <median+0xb4>
   10cd0:	04a68363          	beq	a3,a0,10d16 <median+0xa4>
   10cd4:	06f64063          	blt	a2,a5,10d34 <median+0xc2>
   10cd8:	11068063          	beq	a3,a6,10dd8 <median+0x166>
   10cdc:	85b2                	mv	a1,a2
   10cde:	863e                	mv	a2,a5
   10ce0:	87ae                	mv	a5,a1
   10ce2:	06fec663          	blt	t4,a5,10d4e <median+0xdc>
   10ce6:	11168563          	beq	a3,a7,10df0 <median+0x17e>
   10cea:	85be                	mv	a1,a5
   10cec:	87f6                	mv	a5,t4
   10cee:	06ff4e63          	blt	t5,a5,10d6a <median+0xf8>
   10cf2:	10069a63          	bnez	a3,10e06 <median+0x194>
   10cf6:	8ebe                	mv	t4,a5
   10cf8:	87fa                	mv	a5,t5
   10cfa:	08ffc563          	blt	t6,a5,10d84 <median+0x112>
   10cfe:	09c35f63          	bge	t1,t3,10d9c <median+0x12a>
   10d02:	0dc75563          	bge	a4,t3,10dcc <median+0x15a>
   10d06:	82ba                	mv	t0,a4
   10d08:	8f3e                	mv	t5,a5
   10d0a:	8772                	mv	a4,t3
   10d0c:	4685                	li	a3,1
   10d0e:	8e1a                	mv	t3,t1
   10d10:	8316                	mv	t1,t0
   10d12:	a849                	j	10da4 <median+0x132>
   10d14:	87ba                	mv	a5,a4
   10d16:	963e                	add	a2,a2,a5
   10d18:	01f65513          	srli	a0,a2,0x1f
   10d1c:	9532                	add	a0,a0,a2
   10d1e:	8505                	srai	a0,a0,0x1
   10d20:	0ff57513          	zext.b	a0,a0
   10d24:	8082                	ret
   10d26:	fea687e3          	beq	a3,a0,10d14 <median+0xa2>
   10d2a:	85ba                	mv	a1,a4
   10d2c:	873e                	mv	a4,a5
   10d2e:	87ae                	mv	a5,a1
   10d30:	faf654e3          	bge	a2,a5,10cd8 <median+0x66>
   10d34:	fb0697e3          	bne	a3,a6,10ce2 <median+0x70>
   10d38:	0fc35b63          	bge	t1,t3,10e2e <median+0x1bc>
   10d3c:	15c75f63          	bge	a4,t3,10e9a <median+0x228>
   10d40:	82ba                	mv	t0,a4
   10d42:	85be                	mv	a1,a5
   10d44:	8772                	mv	a4,t3
   10d46:	4691                	li	a3,4
   10d48:	8e1a                	mv	t3,t1
   10d4a:	8316                	mv	t1,t0
   10d4c:	a8a1                	j	10da4 <median+0x132>
   10d4e:	85f6                	mv	a1,t4
   10d50:	f9169fe3          	bne	a3,a7,10cee <median+0x7c>
   10d54:	0fc35d63          	bge	t1,t3,10e4e <median+0x1dc>
   10d58:	15c75a63          	bge	a4,t3,10eac <median+0x23a>
   10d5c:	82ba                	mv	t0,a4
   10d5e:	8ebe                	mv	t4,a5
   10d60:	8772                	mv	a4,t3
   10d62:	468d                	li	a3,3
   10d64:	8e1a                	mv	t3,t1
   10d66:	8316                	mv	t1,t0
   10d68:	a835                	j	10da4 <median+0x132>
   10d6a:	8efa                	mv	t4,t5
   10d6c:	d6d9                	beqz	a3,10cfa <median+0x88>
   10d6e:	0fc35863          	bge	t1,t3,10e5e <median+0x1ec>
   10d72:	15c75c63          	bge	a4,t3,10eca <median+0x258>
   10d76:	82ba                	mv	t0,a4
   10d78:	8f3e                	mv	t5,a5
   10d7a:	8772                	mv	a4,t3
   10d7c:	4689                	li	a3,2
   10d7e:	8e1a                	mv	t3,t1
   10d80:	8316                	mv	t1,t0
   10d82:	a00d                	j	10da4 <median+0x132>
   10d84:	4685                	li	a3,1
   10d86:	03c35263          	bge	t1,t3,10daa <median+0x138>
   10d8a:	03c75b63          	bge	a4,t3,10dc0 <median+0x14e>
   10d8e:	82ba                	mv	t0,a4
   10d90:	8f7e                	mv	t5,t6
   10d92:	8772                	mv	a4,t3
   10d94:	8fbe                	mv	t6,a5
   10d96:	8e1a                	mv	t3,t1
   10d98:	8316                	mv	t1,t0
   10d9a:	a029                	j	10da4 <median+0x132>
   10d9c:	00674c63          	blt	a4,t1,10db4 <median+0x142>
   10da0:	8f3e                	mv	t5,a5
   10da2:	4685                	li	a3,1
   10da4:	87b2                	mv	a5,a2
   10da6:	862e                	mv	a2,a1
   10da8:	b715                	j	10ccc <median+0x5a>
   10daa:	8f7e                	mv	t5,t6
   10dac:	8fbe                	mv	t6,a5
   10dae:	87b2                	mv	a5,a2
   10db0:	862e                	mv	a2,a1
   10db2:	bf01                	j	10cc2 <median+0x50>
   10db4:	82ba                	mv	t0,a4
   10db6:	8f3e                	mv	t5,a5
   10db8:	871a                	mv	a4,t1
   10dba:	4685                	li	a3,1
   10dbc:	8316                	mv	t1,t0
   10dbe:	b7dd                	j	10da4 <median+0x132>
   10dc0:	829a                	mv	t0,t1
   10dc2:	8f7e                	mv	t5,t6
   10dc4:	8372                	mv	t1,t3
   10dc6:	8fbe                	mv	t6,a5
   10dc8:	8e16                	mv	t3,t0
   10dca:	bfe9                	j	10da4 <median+0x132>
   10dcc:	829a                	mv	t0,t1
   10dce:	8f3e                	mv	t5,a5
   10dd0:	8372                	mv	t1,t3
   10dd2:	4685                	li	a3,1
   10dd4:	8e16                	mv	t3,t0
   10dd6:	b7f9                	j	10da4 <median+0x132>
   10dd8:	05c35263          	bge	t1,t3,10e1c <median+0x1aa>
   10ddc:	0bc75563          	bge	a4,t3,10e86 <median+0x214>
   10de0:	82ba                	mv	t0,a4
   10de2:	85b2                	mv	a1,a2
   10de4:	8772                	mv	a4,t3
   10de6:	863e                	mv	a2,a5
   10de8:	8e1a                	mv	t3,t1
   10dea:	4691                	li	a3,4
   10dec:	8316                	mv	t1,t0
   10dee:	bf5d                	j	10da4 <median+0x132>
   10df0:	05c35763          	bge	t1,t3,10e3e <median+0x1cc>
   10df4:	0dc75563          	bge	a4,t3,10ebe <median+0x24c>
   10df8:	82ba                	mv	t0,a4
   10dfa:	85be                	mv	a1,a5
   10dfc:	8772                	mv	a4,t3
   10dfe:	468d                	li	a3,3
   10e00:	8e1a                	mv	t3,t1
   10e02:	8316                	mv	t1,t0
   10e04:	b745                	j	10da4 <median+0x132>
   10e06:	07c35463          	bge	t1,t3,10e6e <median+0x1fc>
   10e0a:	0dc75963          	bge	a4,t3,10edc <median+0x26a>
   10e0e:	82ba                	mv	t0,a4
   10e10:	8ebe                	mv	t4,a5
   10e12:	8772                	mv	a4,t3
   10e14:	4689                	li	a3,2
   10e16:	8e1a                	mv	t3,t1
   10e18:	8316                	mv	t1,t0
   10e1a:	b769                	j	10da4 <median+0x132>
   10e1c:	06675163          	bge	a4,t1,10e7e <median+0x20c>
   10e20:	86ba                	mv	a3,a4
   10e22:	85b2                	mv	a1,a2
   10e24:	871a                	mv	a4,t1
   10e26:	863e                	mv	a2,a5
   10e28:	8336                	mv	t1,a3
   10e2a:	4691                	li	a3,4
   10e2c:	bfa5                	j	10da4 <median+0x132>
   10e2e:	06675363          	bge	a4,t1,10e94 <median+0x222>
   10e32:	82ba                	mv	t0,a4
   10e34:	85be                	mv	a1,a5
   10e36:	871a                	mv	a4,t1
   10e38:	4691                	li	a3,4
   10e3a:	8316                	mv	t1,t0
   10e3c:	b7a5                	j	10da4 <median+0x132>
   10e3e:	06675d63          	bge	a4,t1,10eb8 <median+0x246>
   10e42:	82ba                	mv	t0,a4
   10e44:	85be                	mv	a1,a5
   10e46:	871a                	mv	a4,t1
   10e48:	468d                	li	a3,3
   10e4a:	8316                	mv	t1,t0
   10e4c:	bfa1                	j	10da4 <median+0x132>
   10e4e:	04675c63          	bge	a4,t1,10ea6 <median+0x234>
   10e52:	82ba                	mv	t0,a4
   10e54:	8ebe                	mv	t4,a5
   10e56:	871a                	mv	a4,t1
   10e58:	468d                	li	a3,3
   10e5a:	8316                	mv	t1,t0
   10e5c:	b7a1                	j	10da4 <median+0x132>
   10e5e:	08675563          	bge	a4,t1,10ee8 <median+0x276>
   10e62:	82ba                	mv	t0,a4
   10e64:	8f3e                	mv	t5,a5
   10e66:	871a                	mv	a4,t1
   10e68:	4689                	li	a3,2
   10e6a:	8316                	mv	t1,t0
   10e6c:	bf25                	j	10da4 <median+0x132>
   10e6e:	06675463          	bge	a4,t1,10ed6 <median+0x264>
   10e72:	82ba                	mv	t0,a4
   10e74:	8ebe                	mv	t4,a5
   10e76:	871a                	mv	a4,t1
   10e78:	4689                	li	a3,2
   10e7a:	8316                	mv	t1,t0
   10e7c:	b725                	j	10da4 <median+0x132>
   10e7e:	85b2                	mv	a1,a2
   10e80:	4691                	li	a3,4
   10e82:	863e                	mv	a2,a5
   10e84:	b705                	j	10da4 <median+0x132>
   10e86:	869a                	mv	a3,t1
   10e88:	85b2                	mv	a1,a2
   10e8a:	8372                	mv	t1,t3
   10e8c:	863e                	mv	a2,a5
   10e8e:	8e36                	mv	t3,a3
   10e90:	4691                	li	a3,4
   10e92:	bf09                	j	10da4 <median+0x132>
   10e94:	85be                	mv	a1,a5
   10e96:	4691                	li	a3,4
   10e98:	b731                	j	10da4 <median+0x132>
   10e9a:	829a                	mv	t0,t1
   10e9c:	85be                	mv	a1,a5
   10e9e:	8372                	mv	t1,t3
   10ea0:	4691                	li	a3,4
   10ea2:	8e16                	mv	t3,t0
   10ea4:	b701                	j	10da4 <median+0x132>
   10ea6:	8ebe                	mv	t4,a5
   10ea8:	468d                	li	a3,3
   10eaa:	bded                	j	10da4 <median+0x132>
   10eac:	829a                	mv	t0,t1
   10eae:	8ebe                	mv	t4,a5
   10eb0:	8372                	mv	t1,t3
   10eb2:	468d                	li	a3,3
   10eb4:	8e16                	mv	t3,t0
   10eb6:	b5fd                	j	10da4 <median+0x132>
   10eb8:	85be                	mv	a1,a5
   10eba:	468d                	li	a3,3
   10ebc:	b5e5                	j	10da4 <median+0x132>
   10ebe:	829a                	mv	t0,t1
   10ec0:	85be                	mv	a1,a5
   10ec2:	8372                	mv	t1,t3
   10ec4:	468d                	li	a3,3
   10ec6:	8e16                	mv	t3,t0
   10ec8:	bdf1                	j	10da4 <median+0x132>
   10eca:	829a                	mv	t0,t1
   10ecc:	8f3e                	mv	t5,a5
   10ece:	8372                	mv	t1,t3
   10ed0:	4689                	li	a3,2
   10ed2:	8e16                	mv	t3,t0
   10ed4:	bdc1                	j	10da4 <median+0x132>
   10ed6:	8ebe                	mv	t4,a5
   10ed8:	4689                	li	a3,2
   10eda:	b5e9                	j	10da4 <median+0x132>
   10edc:	829a                	mv	t0,t1
   10ede:	8ebe                	mv	t4,a5
   10ee0:	8372                	mv	t1,t3
   10ee2:	4689                	li	a3,2
   10ee4:	8e16                	mv	t3,t0
   10ee6:	bd7d                	j	10da4 <median+0x132>
   10ee8:	8f3e                	mv	t5,a5
   10eea:	4689                	li	a3,2
   10eec:	bd65                	j	10da4 <median+0x132>

00010eee <enlarge>:
   10eee:	429c                	lw	a5,0(a3)
   10ef0:	7179                	addi	sp,sp,-48
   10ef2:	d422                	sw	s0,40(sp)
   10ef4:	d226                	sw	s1,36(sp)
   10ef6:	d04a                	sw	s2,32(sp)
   10ef8:	ce4e                	sw	s3,28(sp)
   10efa:	cc52                	sw	s4,24(sp)
   10efc:	ca56                	sw	s5,20(sp)
   10efe:	c85a                	sw	s6,16(sp)
   10f00:	d606                	sw	ra,44(sp)
   10f02:	c65e                	sw	s7,12(sp)
   10f04:	8a36                	mv	s4,a3
   10f06:	893a                	mv	s2,a4
   10f08:	8aaa                	mv	s5,a0
   10f0a:	842e                	mv	s0,a1
   10f0c:	89b2                	mv	s3,a2
   10f0e:	00171493          	slli	s1,a4,0x1
   10f12:	4b01                	li	s6,0
   10f14:	02f05863          	blez	a5,10f44 <enlarge+0x56>
   10f18:	0009a603          	lw	a2,0(s3)
   10f1c:	012b0533          	add	a0,s6,s2
   10f20:	000aa783          	lw	a5,0(s5)
   10f24:	00960733          	add	a4,a2,s1
   10f28:	02e50533          	mul	a0,a0,a4
   10f2c:	036605b3          	mul	a1,a2,s6
   10f30:	954a                	add	a0,a0,s2
   10f32:	9522                	add	a0,a0,s0
   10f34:	0b05                	addi	s6,s6,1
   10f36:	95be                	add	a1,a1,a5
   10f38:	5a8060ef          	jal	174e0 <memcpy>
   10f3c:	000a2783          	lw	a5,0(s4)
   10f40:	fcfb4ce3          	blt	s6,a5,10f18 <enlarge+0x2a>
   10f44:	4b85                	li	s7,1
   10f46:	01790b33          	add	s6,s2,s7
   10f4a:	0d205163          	blez	s2,1100c <enlarge+0x11e>
   10f4e:	c462                	sw	s8,8(sp)
   10f50:	0009a603          	lw	a2,0(s3)
   10f54:	41790533          	sub	a0,s2,s7
   10f58:	fffb8c13          	addi	s8,s7,-1
   10f5c:	009607b3          	add	a5,a2,s1
   10f60:	02f50533          	mul	a0,a0,a5
   10f64:	000aa783          	lw	a5,0(s5)
   10f68:	0b85                	addi	s7,s7,1
   10f6a:	038605b3          	mul	a1,a2,s8
   10f6e:	954a                	add	a0,a0,s2
   10f70:	9522                	add	a0,a0,s0
   10f72:	95be                	add	a1,a1,a5
   10f74:	56c060ef          	jal	174e0 <memcpy>
   10f78:	000a2783          	lw	a5,0(s4)
   10f7c:	0009a603          	lw	a2,0(s3)
   10f80:	000aa583          	lw	a1,0(s5)
   10f84:	01278533          	add	a0,a5,s2
   10f88:	00960733          	add	a4,a2,s1
   10f8c:	9562                	add	a0,a0,s8
   10f8e:	418787b3          	sub	a5,a5,s8
   10f92:	02e50533          	mul	a0,a0,a4
   10f96:	17fd                	addi	a5,a5,-1
   10f98:	02c787b3          	mul	a5,a5,a2
   10f9c:	954a                	add	a0,a0,s2
   10f9e:	9522                	add	a0,a0,s0
   10fa0:	95be                	add	a1,a1,a5
   10fa2:	53e060ef          	jal	174e0 <memcpy>
   10fa6:	fb6b95e3          	bne	s7,s6,10f50 <enlarge+0x62>
   10faa:	000a2783          	lw	a5,0(s4)
   10fae:	4501                	li	a0,0
   10fb0:	97a6                	add	a5,a5,s1
   10fb2:	04f05c63          	blez	a5,1100a <enlarge+0x11c>
   10fb6:	4581                	li	a1,0
   10fb8:	0009a783          	lw	a5,0(s3)
   10fbc:	97a6                	add	a5,a5,s1
   10fbe:	02b787b3          	mul	a5,a5,a1
   10fc2:	97ca                	add	a5,a5,s2
   10fc4:	00f40733          	add	a4,s0,a5
   10fc8:	972a                	add	a4,a4,a0
   10fca:	00074703          	lbu	a4,0(a4)
   10fce:	8f89                	sub	a5,a5,a0
   10fd0:	97a2                	add	a5,a5,s0
   10fd2:	fee78fa3          	sb	a4,-1(a5)
   10fd6:	0009a703          	lw	a4,0(s3)
   10fda:	009707b3          	add	a5,a4,s1
   10fde:	02b787b3          	mul	a5,a5,a1
   10fe2:	0585                	addi	a1,a1,1
   10fe4:	97ba                	add	a5,a5,a4
   10fe6:	97ca                	add	a5,a5,s2
   10fe8:	40a78633          	sub	a2,a5,a0
   10fec:	9622                	add	a2,a2,s0
   10fee:	fff64703          	lbu	a4,-1(a2)
   10ff2:	97a2                	add	a5,a5,s0
   10ff4:	97aa                	add	a5,a5,a0
   10ff6:	00e78023          	sb	a4,0(a5)
   10ffa:	000a2783          	lw	a5,0(s4)
   10ffe:	97a6                	add	a5,a5,s1
   11000:	faf5cce3          	blt	a1,a5,10fb8 <enlarge+0xca>
   11004:	0505                	addi	a0,a0,1
   11006:	faa916e3          	bne	s2,a0,10fb2 <enlarge+0xc4>
   1100a:	4c22                	lw	s8,8(sp)
   1100c:	0009a783          	lw	a5,0(s3)
   11010:	50b2                	lw	ra,44(sp)
   11012:	5902                	lw	s2,32(sp)
   11014:	97a6                	add	a5,a5,s1
   11016:	00f9a023          	sw	a5,0(s3)
   1101a:	000a2783          	lw	a5,0(s4)
   1101e:	49f2                	lw	s3,28(sp)
   11020:	4b42                	lw	s6,16(sp)
   11022:	97a6                	add	a5,a5,s1
   11024:	00fa2023          	sw	a5,0(s4)
   11028:	008aa023          	sw	s0,0(s5)
   1102c:	5422                	lw	s0,40(sp)
   1102e:	5492                	lw	s1,36(sp)
   11030:	4a62                	lw	s4,24(sp)
   11032:	4ad2                	lw	s5,20(sp)
   11034:	4bb2                	lw	s7,12(sp)
   11036:	6145                	addi	sp,sp,48
   11038:	8082                	ret

0001103a <susan_smoothing>:
   1103a:	7175                	addi	sp,sp,-144
   1103c:	c522                	sw	s0,136(sp)
   1103e:	c14a                	sw	s2,128(sp)
   11040:	dad6                	sw	s5,116(sp)
   11042:	a4a2                	fsd	fs0,72(sp)
   11044:	c706                	sw	ra,140(sp)
   11046:	de2e                	sw	a1,60(sp)
   11048:	dc32                	sw	a2,56(sp)
   1104a:	da36                	sw	a3,52(sp)
   1104c:	40157453          	fcvt.s.d	fs0,fa0
   11050:	892a                	mv	s2,a0
   11052:	843a                	mv	s0,a4
   11054:	4a85                	li	s5,1
   11056:	e911                	bnez	a0,1106a <susan_smoothing+0x30>
   11058:	ea81b707          	fld	fa4,-344(gp) # 236b8 <__SDATA_BEGIN__+0x8>
   1105c:	420407d3          	fcvt.d.s	fa5,fs0
   11060:	12e7f7d3          	fmul.d	fa5,fa5,fa4
   11064:	c2079ad3          	fcvt.w.d	s5,fa5,rtz
   11068:	0a85                	addi	s5,s5,1
   1106a:	fa81a787          	flw	fa5,-88(gp) # 237b8 <__SDATA_BEGIN__+0x108>
   1106e:	a08797d3          	flt.s	a5,fa5,fs0
   11072:	ef8d                	bnez	a5,110ac <susan_smoothing+0x72>
   11074:	5662                	lw	a2,56(sp)
   11076:	d6de                	sw	s7,108(sp)
   11078:	001a9b93          	slli	s7,s5,0x1
   1107c:	56d2                	lw	a3,52(sp)
   1107e:	00cbd463          	bge	s7,a2,11086 <susan_smoothing+0x4c>
   11082:	06dbc963          	blt	s7,a3,110f4 <susan_smoothing+0xba>
   11086:	00021537          	lui	a0,0x21
   1108a:	85d6                	mv	a1,s5
   1108c:	46850513          	addi	a0,a0,1128 # 21468 <__clzsi2+0x50a>
   11090:	c326                	sw	s1,132(sp)
   11092:	dece                	sw	s3,124(sp)
   11094:	dcd2                	sw	s4,120(sp)
   11096:	d8da                	sw	s6,112(sp)
   11098:	d4e2                	sw	s8,104(sp)
   1109a:	d2e6                	sw	s9,100(sp)
   1109c:	d0ea                	sw	s10,96(sp)
   1109e:	ceee                	sw	s11,92(sp)
   110a0:	a0a6                	fsd	fs1,64(sp)
   110a2:	0c9050ef          	jal	1696a <printf>
   110a6:	4501                	li	a0,0
   110a8:	80cff0ef          	jal	100b4 <exit>
   110ac:	420407d3          	fcvt.d.s	fa5,fs0
   110b0:	00021537          	lui	a0,0x21
   110b4:	3cc50513          	addi	a0,a0,972 # 213cc <__clzsi2+0x46e>
   110b8:	a43e                	fsd	fa5,8(sp)
   110ba:	4622                	lw	a2,8(sp)
   110bc:	46b2                	lw	a3,12(sp)
   110be:	c326                	sw	s1,132(sp)
   110c0:	dece                	sw	s3,124(sp)
   110c2:	dcd2                	sw	s4,120(sp)
   110c4:	d8da                	sw	s6,112(sp)
   110c6:	d6de                	sw	s7,108(sp)
   110c8:	d4e2                	sw	s8,104(sp)
   110ca:	d2e6                	sw	s9,100(sp)
   110cc:	d0ea                	sw	s10,96(sp)
   110ce:	ceee                	sw	s11,92(sp)
   110d0:	a0a6                	fsd	fs1,64(sp)
   110d2:	099050ef          	jal	1696a <printf>
   110d6:	00021537          	lui	a0,0x21
   110da:	40450513          	addi	a0,a0,1028 # 21404 <__clzsi2+0x4a6>
   110de:	13b050ef          	jal	16a18 <puts>
   110e2:	00021537          	lui	a0,0x21
   110e6:	44050513          	addi	a0,a0,1088 # 21440 <__clzsi2+0x4e2>
   110ea:	12f050ef          	jal	16a18 <puts>
   110ee:	4501                	li	a0,0
   110f0:	fc5fe0ef          	jal	100b4 <exit>
   110f4:	965e                	add	a2,a2,s7
   110f6:	96de                	add	a3,a3,s7
   110f8:	02d60533          	mul	a0,a2,a3
   110fc:	d8da                	sw	s6,112(sp)
   110fe:	d2e6                	sw	s9,100(sp)
   11100:	5b72                	lw	s6,60(sp)
   11102:	21a030ef          	jal	1431c <malloc>
   11106:	85aa                	mv	a1,a0
   11108:	8756                	mv	a4,s5
   1110a:	1854                	addi	a3,sp,52
   1110c:	1830                	addi	a2,sp,56
   1110e:	1868                	addi	a0,sp,60
   11110:	3bf9                	jal	10eee <enlarge>
   11112:	5cd2                	lw	s9,52(sp)
   11114:	18090863          	beqz	s2,112a4 <susan_smoothing+0x26a>
   11118:	4789                	li	a5,2
   1111a:	1797db63          	bge	a5,s9,11290 <susan_smoothing+0x256>
   1111e:	5762                	lw	a4,56(sp)
   11120:	ce3a                	sw	a4,28(sp)
   11122:	16e7d763          	bge	a5,a4,11290 <susan_smoothing+0x256>
   11126:	56f2                	lw	a3,60(sp)
   11128:	fff70793          	addi	a5,a4,-1
   1112c:	d0ea                	sw	s10,96(sp)
   1112e:	00e68ab3          	add	s5,a3,a4
   11132:	ffe70d13          	addi	s10,a4,-2
   11136:	1cfd                	addi	s9,s9,-1
   11138:	4705                	li	a4,1
   1113a:	c326                	sw	s1,132(sp)
   1113c:	dece                	sw	s3,124(sp)
   1113e:	dcd2                	sw	s4,120(sp)
   11140:	d4e2                	sw	s8,104(sp)
   11142:	ceee                	sw	s11,92(sp)
   11144:	cc36                	sw	a3,24(sp)
   11146:	ca3a                	sw	a4,20(sp)
   11148:	c43e                	sw	a5,8(sp)
   1114a:	d002                	sw	zero,32(sp)
   1114c:	d466                	sw	s9,40(sp)
   1114e:	d256                	sw	s5,36(sp)
   11150:	d66a                	sw	s10,44(sp)
   11152:	5792                	lw	a5,36(sp)
   11154:	4772                	lw	a4,28(sp)
   11156:	5682                	lw	a3,32(sp)
   11158:	8bbe                	mv	s7,a5
   1115a:	97ba                	add	a5,a5,a4
   1115c:	d23e                	sw	a5,36(sp)
   1115e:	8a3e                	mv	s4,a5
   11160:	47e2                	lw	a5,24(sp)
   11162:	89de                	mv	s3,s7
   11164:	4485                	li	s1,1
   11166:	00d78933          	add	s2,a5,a3
   1116a:	00e687b3          	add	a5,a3,a4
   1116e:	d03e                	sw	a5,32(sp)
   11170:	a00d                	j	11192 <susan_smoothing+0x158>
   11172:	46f2                	lw	a3,28(sp)
   11174:	45d2                	lw	a1,20(sp)
   11176:	4562                	lw	a0,24(sp)
   11178:	8626                	mv	a2,s1
   1117a:	3ce5                	jal	10c72 <median>
   1117c:	009b07b3          	add	a5,s6,s1
   11180:	fea78fa3          	sb	a0,-1(a5)
   11184:	47a2                	lw	a5,8(sp)
   11186:	0485                	addi	s1,s1,1
   11188:	0e978663          	beq	a5,s1,11274 <susan_smoothing+0x23a>
   1118c:	0905                	addi	s2,s2,1
   1118e:	0985                	addi	s3,s3,1
   11190:	0a05                	addi	s4,s4,1
   11192:	009b87b3          	add	a5,s7,s1
   11196:	0007ce83          	lbu	t4,0(a5)
   1119a:	00094e03          	lbu	t3,0(s2)
   1119e:	00194f03          	lbu	t5,1(s2)
   111a2:	00294303          	lbu	t1,2(s2)
   111a6:	01d40733          	add	a4,s0,t4
   111aa:	0009cc03          	lbu	s8,0(s3)
   111ae:	41c706b3          	sub	a3,a4,t3
   111b2:	41e707b3          	sub	a5,a4,t5
   111b6:	0019c803          	lbu	a6,1(s3)
   111ba:	0006cd83          	lbu	s11,0(a3)
   111be:	0007cd03          	lbu	s10,0(a5)
   111c2:	0029c503          	lbu	a0,2(s3)
   111c6:	406707b3          	sub	a5,a4,t1
   111ca:	0007cc83          	lbu	s9,0(a5)
   111ce:	000a4583          	lbu	a1,0(s4)
   111d2:	418707b3          	sub	a5,a4,s8
   111d6:	410706b3          	sub	a3,a4,a6
   111da:	0007c883          	lbu	a7,0(a5)
   111de:	001a4603          	lbu	a2,1(s4)
   111e2:	40a70fb3          	sub	t6,a4,a0
   111e6:	0006ca83          	lbu	s5,0(a3)
   111ea:	01ad87b3          	add	a5,s11,s10
   111ee:	002a4683          	lbu	a3,2(s4)
   111f2:	000fc383          	lbu	t2,0(t6)
   111f6:	97e6                	add	a5,a5,s9
   111f8:	40b70fb3          	sub	t6,a4,a1
   111fc:	000fc283          	lbu	t0,0(t6)
   11200:	97c6                	add	a5,a5,a7
   11202:	40c70fb3          	sub	t6,a4,a2
   11206:	000fcf83          	lbu	t6,0(t6)
   1120a:	97d6                	add	a5,a5,s5
   1120c:	8f15                	sub	a4,a4,a3
   1120e:	00074703          	lbu	a4,0(a4)
   11212:	979e                	add	a5,a5,t2
   11214:	9796                	add	a5,a5,t0
   11216:	97fe                	add	a5,a5,t6
   11218:	97ba                	add	a5,a5,a4
   1121a:	f9c78793          	addi	a5,a5,-100
   1121e:	dbb1                	beqz	a5,11172 <susan_smoothing+0x138>
   11220:	03be0e33          	mul	t3,t3,s11
   11224:	009b0db3          	add	s11,s6,s1
   11228:	0485                	addi	s1,s1,1
   1122a:	03af0f33          	mul	t5,t5,s10
   1122e:	03930333          	mul	t1,t1,s9
   11232:	9e7a                	add	t3,t3,t5
   11234:	031c08b3          	mul	a7,s8,a7
   11238:	9372                	add	t1,t1,t3
   1123a:	03580833          	mul	a6,a6,s5
   1123e:	989a                	add	a7,a7,t1
   11240:	02750533          	mul	a0,a0,t2
   11244:	9846                	add	a6,a6,a7
   11246:	025585b3          	mul	a1,a1,t0
   1124a:	9542                	add	a0,a0,a6
   1124c:	03f60633          	mul	a2,a2,t6
   11250:	95aa                	add	a1,a1,a0
   11252:	02e68733          	mul	a4,a3,a4
   11256:	00b606b3          	add	a3,a2,a1
   1125a:	f9c00613          	li	a2,-100
   1125e:	02ce8eb3          	mul	t4,t4,a2
   11262:	9736                	add	a4,a4,a3
   11264:	9776                	add	a4,a4,t4
   11266:	02f747b3          	div	a5,a4,a5
   1126a:	fefd8fa3          	sb	a5,-1(s11)
   1126e:	47a2                	lw	a5,8(sp)
   11270:	f0f49ee3          	bne	s1,a5,1118c <susan_smoothing+0x152>
   11274:	5732                	lw	a4,44(sp)
   11276:	47d2                	lw	a5,20(sp)
   11278:	9b3a                	add	s6,s6,a4
   1127a:	5722                	lw	a4,40(sp)
   1127c:	0785                	addi	a5,a5,1
   1127e:	ca3e                	sw	a5,20(sp)
   11280:	ece799e3          	bne	a5,a4,11152 <susan_smoothing+0x118>
   11284:	449a                	lw	s1,132(sp)
   11286:	59f6                	lw	s3,124(sp)
   11288:	5a66                	lw	s4,120(sp)
   1128a:	5c26                	lw	s8,104(sp)
   1128c:	5d06                	lw	s10,96(sp)
   1128e:	4df6                	lw	s11,92(sp)
   11290:	40ba                	lw	ra,140(sp)
   11292:	442a                	lw	s0,136(sp)
   11294:	5b46                	lw	s6,112(sp)
   11296:	5bb6                	lw	s7,108(sp)
   11298:	5c96                	lw	s9,100(sp)
   1129a:	490a                	lw	s2,128(sp)
   1129c:	5ad6                	lw	s5,116(sp)
   1129e:	2426                	fld	fs0,72(sp)
   112a0:	6149                	addi	sp,sp,144
   112a2:	8082                	ret
   112a4:	0b85                	addi	s7,s7,1
   112a6:	037b8533          	mul	a0,s7,s7
   112aa:	56e2                	lw	a3,56(sp)
   112ac:	c326                	sw	s1,132(sp)
   112ae:	d4e2                	sw	s8,104(sp)
   112b0:	c436                	sw	a3,8(sp)
   112b2:	dece                	sw	s3,124(sp)
   112b4:	dcd2                	sw	s4,120(sp)
   112b6:	d0ea                	sw	s10,96(sp)
   112b8:	ceee                	sw	s11,92(sp)
   112ba:	41500c33          	neg	s8,s5
   112be:	05e030ef          	jal	1431c <malloc>
   112c2:	46a2                	lw	a3,8(sp)
   112c4:	84aa                	mv	s1,a0
   112c6:	078ac163          	blt	s5,s8,11328 <susan_smoothing+0x2ee>
   112ca:	10847453          	fmul.s	fs0,fs0,fs0
   112ce:	a0a6                	fsd	fs1,64(sp)
   112d0:	ea01b487          	fld	fs1,-352(gp) # 236b0 <__SDATA_BEGIN__>
   112d4:	001a8993          	addi	s3,s5,1
   112d8:	01598db3          	add	s11,s3,s5
   112dc:	8a2a                	mv	s4,a0
   112de:	8d62                	mv	s10,s8
   112e0:	ca22                	sw	s0,20(sp)
   112e2:	03ad0933          	mul	s2,s10,s10
   112e6:	8462                	mv	s0,s8
   112e8:	02840733          	mul	a4,s0,s0
   112ec:	974a                	add	a4,a4,s2
   112ee:	d0077553          	fcvt.s.w	fa0,a4
   112f2:	20a51553          	fneg.s	fa0,fa0
   112f6:	18857553          	fdiv.s	fa0,fa0,fs0
   112fa:	42050553          	fcvt.d.s	fa0,fa0
   112fe:	427020ef          	jal	13f24 <exp>
   11302:	129577d3          	fmul.d	fa5,fa0,fs1
   11306:	01540733          	add	a4,s0,s5
   1130a:	9752                	add	a4,a4,s4
   1130c:	0405                	addi	s0,s0,1
   1130e:	c20796d3          	fcvt.w.d	a3,fa5,rtz
   11312:	00d70023          	sb	a3,0(a4)
   11316:	fd3419e3          	bne	s0,s3,112e8 <susan_smoothing+0x2ae>
   1131a:	0d05                	addi	s10,s10,1
   1131c:	9a6e                	add	s4,s4,s11
   1131e:	fd3d12e3          	bne	s10,s3,112e2 <susan_smoothing+0x2a8>
   11322:	46a2                	lw	a3,8(sp)
   11324:	4452                	lw	s0,20(sp)
   11326:	2486                	fld	fs1,64(sp)
   11328:	415c8eb3          	sub	t4,s9,s5
   1132c:	f5dadce3          	bge	s5,t4,11284 <susan_smoothing+0x24a>
   11330:	41568d33          	sub	s10,a3,s5
   11334:	f5aad8e3          	bge	s5,s10,11284 <susan_smoothing+0x24a>
   11338:	035687b3          	mul	a5,a3,s5
   1133c:	5f72                	lw	t5,60(sp)
   1133e:	001a8a13          	addi	s4,s5,1
   11342:	7cf9                	lui	s9,0xffffe
   11344:	8e76                	mv	t3,t4
   11346:	417689b3          	sub	s3,a3,s7
   1134a:	8f0c8c93          	addi	s9,s9,-1808 # ffffd8f0 <__BSS_END__+0xfffd9dcc>
   1134e:	014a8933          	add	s2,s5,s4
   11352:	85d6                	mv	a1,s5
   11354:	8762                	mv	a4,s8
   11356:	88da                	mv	a7,s6
   11358:	415d0eb3          	sub	t4,s10,s5
   1135c:	8656                	mv	a2,s5
   1135e:	d072                	sw	t3,32(sp)
   11360:	8b52                	mv	s6,s4
   11362:	8e26                	mv	t3,s1
   11364:	8a4a                	mv	s4,s2
   11366:	8dea                	mv	s11,s10
   11368:	ca36                	sw	a3,20(sp)
   1136a:	8d56                	mv	s10,s5
   1136c:	cc7a                	sw	t5,24(sp)
   1136e:	8ace                	mv	s5,s3
   11370:	ce2e                	sw	a1,28(sp)
   11372:	89a2                	mv	s3,s0
   11374:	d246                	sw	a7,36(sp)
   11376:	d43a                	sw	a4,40(sp)
   11378:	d63e                	sw	a5,44(sp)
   1137a:	d876                	sw	t4,48(sp)
   1137c:	00ff04b3          	add	s1,t5,a5
   11380:	00188b93          	addi	s7,a7,1
   11384:	00ef0933          	add	s2,t5,a4
   11388:	8432                	mv	s0,a2
   1138a:	008487b3          	add	a5,s1,s0
   1138e:	0007ce83          	lbu	t4,0(a5)
   11392:	098d4863          	blt	s10,s8,11422 <susan_smoothing+0x3e8>
   11396:	008906b3          	add	a3,s2,s0
   1139a:	4801                	li	a6,0
   1139c:	8ff2                	mv	t6,t3
   1139e:	4501                	li	a0,0
   113a0:	8f62                	mv	t5,s8
   113a2:	01468633          	add	a2,a3,s4
   113a6:	85fe                	mv	a1,t6
   113a8:	0006c783          	lbu	a5,0(a3)
   113ac:	0005c883          	lbu	a7,0(a1)
   113b0:	0685                	addi	a3,a3,1
   113b2:	40fe8733          	sub	a4,t4,a5
   113b6:	974e                	add	a4,a4,s3
   113b8:	00074703          	lbu	a4,0(a4)
   113bc:	0585                	addi	a1,a1,1
   113be:	03170733          	mul	a4,a4,a7
   113c2:	02e787b3          	mul	a5,a5,a4
   113c6:	953a                	add	a0,a0,a4
   113c8:	983e                	add	a6,a6,a5
   113ca:	fcc69fe3          	bne	a3,a2,113a8 <susan_smoothing+0x36e>
   113ce:	0f05                	addi	t5,t5,1
   113d0:	9fd2                	add	t6,t6,s4
   113d2:	96d6                	add	a3,a3,s5
   113d4:	fd6f17e3          	bne	t5,s6,113a2 <susan_smoothing+0x368>
   113d8:	9566                	add	a0,a0,s9
   113da:	e921                	bnez	a0,1142a <susan_smoothing+0x3f0>
   113dc:	46d2                	lw	a3,20(sp)
   113de:	45f2                	lw	a1,28(sp)
   113e0:	4562                	lw	a0,24(sp)
   113e2:	8622                	mv	a2,s0
   113e4:	c472                	sw	t3,8(sp)
   113e6:	3071                	jal	10c72 <median>
   113e8:	4e22                	lw	t3,8(sp)
   113ea:	feab8fa3          	sb	a0,-1(s7)
   113ee:	0405                	addi	s0,s0,1
   113f0:	0b85                	addi	s7,s7,1
   113f2:	f9b41ce3          	bne	s0,s11,1138a <susan_smoothing+0x350>
   113f6:	45f2                	lw	a1,28(sp)
   113f8:	46d2                	lw	a3,20(sp)
   113fa:	5892                	lw	a7,36(sp)
   113fc:	5722                	lw	a4,40(sp)
   113fe:	57b2                	lw	a5,44(sp)
   11400:	5ec2                	lw	t4,48(sp)
   11402:	84f2                	mv	s1,t3
   11404:	5e02                	lw	t3,32(sp)
   11406:	0585                	addi	a1,a1,1
   11408:	8952                	mv	s2,s4
   1140a:	844e                	mv	s0,s3
   1140c:	4f62                	lw	t5,24(sp)
   1140e:	89d6                	mv	s3,s5
   11410:	8a5a                	mv	s4,s6
   11412:	8aea                	mv	s5,s10
   11414:	98f6                	add	a7,a7,t4
   11416:	8d6e                	mv	s10,s11
   11418:	97b6                	add	a5,a5,a3
   1141a:	9736                	add	a4,a4,a3
   1141c:	f5c590e3          	bne	a1,t3,1135c <susan_smoothing+0x322>
   11420:	b595                	j	11284 <susan_smoothing+0x24a>
   11422:	7579                	lui	a0,0xffffe
   11424:	8f050513          	addi	a0,a0,-1808 # ffffd8f0 <__BSS_END__+0xfffd9dcc>
   11428:	4801                	li	a6,0
   1142a:	039e87b3          	mul	a5,t4,s9
   1142e:	97c2                	add	a5,a5,a6
   11430:	02a7c533          	div	a0,a5,a0
   11434:	bf5d                	j	113ea <susan_smoothing+0x3b0>

00011436 <edge_draw>:
   11436:	02d606b3          	mul	a3,a2,a3
   1143a:	00d588b3          	add	a7,a1,a3
   1143e:	c31d                	beqz	a4,11464 <edge_draw+0x2e>
   11440:	02d05063          	blez	a3,11460 <edge_draw+0x2a>
   11444:	872e                	mv	a4,a1
   11446:	461d                	li	a2,7
   11448:	00074683          	lbu	a3,0(a4)
   1144c:	40b707b3          	sub	a5,a4,a1
   11450:	97aa                	add	a5,a5,a0
   11452:	0705                	addi	a4,a4,1
   11454:	00d66463          	bltu	a2,a3,1145c <edge_draw+0x26>
   11458:	00078023          	sb	zero,0(a5)
   1145c:	ff1716e3          	bne	a4,a7,11448 <edge_draw+0x12>
   11460:	4501                	li	a0,0
   11462:	8082                	ret
   11464:	872e                	mv	a4,a1
   11466:	4e9d                	li	t4,7
   11468:	587d                	li	a6,-1
   1146a:	fed05be3          	blez	a3,11460 <edge_draw+0x2a>
   1146e:	40b707b3          	sub	a5,a4,a1
   11472:	8f91                	sub	a5,a5,a2
   11474:	00074e03          	lbu	t3,0(a4)
   11478:	17fd                	addi	a5,a5,-1
   1147a:	97aa                	add	a5,a5,a0
   1147c:	00c786b3          	add	a3,a5,a2
   11480:	0705                	addi	a4,a4,1
   11482:	00c68333          	add	t1,a3,a2
   11486:	03cee263          	bltu	t4,t3,114aa <edge_draw+0x74>
   1148a:	01078023          	sb	a6,0(a5)
   1148e:	010780a3          	sb	a6,1(a5)
   11492:	01078123          	sb	a6,2(a5)
   11496:	01068023          	sb	a6,0(a3)
   1149a:	01068123          	sb	a6,2(a3)
   1149e:	01030023          	sb	a6,0(t1)
   114a2:	010300a3          	sb	a6,1(t1)
   114a6:	01030123          	sb	a6,2(t1)
   114aa:	fd1712e3          	bne	a4,a7,1146e <edge_draw+0x38>
   114ae:	bf59                	j	11444 <edge_draw+0xe>

000114b0 <susan_thin>:
   114b0:	711d                	addi	sp,sp,-96
   114b2:	47a1                	li	a5,8
   114b4:	ca2a                	sw	a0,20(sp)
   114b6:	18d7dd63          	bge	a5,a3,11650 <susan_thin+0x1a0>
   114ba:	18c7db63          	bge	a5,a2,11650 <susan_thin+0x1a0>
   114be:	400007b7          	lui	a5,0x40000
   114c2:	00161513          	slli	a0,a2,0x1
   114c6:	17fd                	addi	a5,a5,-1 # 3fffffff <__BSS_END__+0x3ffdc4db>
   114c8:	eb01b707          	fld	fa4,-336(gp) # 236c0 <__SDATA_BEGIN__+0x10>
   114cc:	16f1                	addi	a3,a3,-4
   114ce:	00c50733          	add	a4,a0,a2
   114d2:	d23e                	sw	a5,36(sp)
   114d4:	00261793          	slli	a5,a2,0x2
   114d8:	cea2                	sw	s0,92(sp)
   114da:	c6d2                	sw	s4,76(sp)
   114dc:	c2da                	sw	s6,68(sp)
   114de:	da6a                	sw	s10,52(sp)
   114e0:	d86e                	sw	s11,48(sp)
   114e2:	cca6                	sw	s1,88(sp)
   114e4:	caca                	sw	s2,84(sp)
   114e6:	c8ce                	sw	s3,80(sp)
   114e8:	c4d6                	sw	s5,72(sp)
   114ea:	c0de                	sw	s7,64(sp)
   114ec:	de62                	sw	s8,60(sp)
   114ee:	dc66                	sw	s9,56(sp)
   114f0:	c82a                	sw	a0,16(sp)
   114f2:	4f11                	li	t5,4
   114f4:	00250b13          	addi	s6,a0,2
   114f8:	d43a                	sw	a4,40(sp)
   114fa:	ffc60413          	addi	s0,a2,-4
   114fe:	4f9d                	li	t6,7
   11500:	4a05                	li	s4,1
   11502:	4d89                	li	s11,2
   11504:	d63e                	sw	a5,44(sp)
   11506:	00150d13          	addi	s10,a0,1
   1150a:	cc36                	sw	a3,24(sp)
   1150c:	837a                	mv	t1,t5
   1150e:	001f0e13          	addi	t3,t5,1
   11512:	4791                	li	a5,4
   11514:	a801                	j	11524 <susan_thin+0x74>
   11516:	06400713          	li	a4,100
   1151a:	00e68023          	sb	a4,0(a3)
   1151e:	0785                	addi	a5,a5,1
   11520:	1087d963          	bge	a5,s0,11632 <susan_thin+0x182>
   11524:	02660733          	mul	a4,a2,t1
   11528:	8f72                	mv	t5,t3
   1152a:	00f70833          	add	a6,a4,a5
   1152e:	010586b3          	add	a3,a1,a6
   11532:	0006ce83          	lbu	t4,0(a3)
   11536:	ffdfe4e3          	bltu	t6,t4,1151e <susan_thin+0x6e>
   1153a:	8f11                	sub	a4,a4,a2
   1153c:	00f70533          	add	a0,a4,a5
   11540:	00a584b3          	add	s1,a1,a0
   11544:	fff4c383          	lbu	t2,-1(s1)
   11548:	0004c283          	lbu	t0,0(s1)
   1154c:	00c48933          	add	s2,s1,a2
   11550:	0014c983          	lbu	s3,1(s1)
   11554:	fff94b83          	lbu	s7,-1(s2)
   11558:	00194a83          	lbu	s5,1(s2)
   1155c:	0083b893          	sltiu	a7,t2,8
   11560:	0082b293          	sltiu	t0,t0,8
   11564:	0089b993          	sltiu	s3,s3,8
   11568:	9932                	add	s2,s2,a2
   1156a:	92c6                	add	t0,t0,a7
   1156c:	92ce                	add	t0,t0,s3
   1156e:	fff94983          	lbu	s3,-1(s2)
   11572:	008bb913          	sltiu	s2,s7,8
   11576:	92ca                	add	t0,t0,s2
   11578:	008ab913          	sltiu	s2,s5,8
   1157c:	92ca                	add	t0,t0,s2
   1157e:	01a48933          	add	s2,s1,s10
   11582:	fff94903          	lbu	s2,-1(s2)
   11586:	94da                	add	s1,s1,s6
   11588:	fff4c483          	lbu	s1,-1(s1)
   1158c:	0089b993          	sltiu	s3,s3,8
   11590:	92ce                	add	t0,t0,s3
   11592:	00893913          	sltiu	s2,s2,8
   11596:	92ca                	add	t0,t0,s2
   11598:	0084b493          	sltiu	s1,s1,8
   1159c:	92a6                	add	t0,t0,s1
   1159e:	f6028ce3          	beqz	t0,11516 <susan_thin+0x66>
   115a2:	0b429a63          	bne	t0,s4,11656 <susan_thin+0x1a6>
   115a6:	4495                	li	s1,5
   115a8:	f7d4ebe3          	bltu	s1,t4,1151e <susan_thin+0x6e>
   115ac:	44c2                	lw	s1,16(sp)
   115ae:	00180c93          	addi	s9,a6,1
   115b2:	4852                	lw	a6,20(sp)
   115b4:	9726                	add	a4,a4,s1
   115b6:	5492                	lw	s1,36(sp)
   115b8:	973e                	add	a4,a4,a5
   115ba:	00150a93          	addi	s5,a0,1
   115be:	009708b3          	add	a7,a4,s1
   115c2:	088a                	slli	a7,a7,0x2
   115c4:	002c9493          	slli	s1,s9,0x2
   115c8:	002a9913          	slli	s2,s5,0x2
   115cc:	98c2                	add	a7,a7,a6
   115ce:	94c2                	add	s1,s1,a6
   115d0:	9942                	add	s2,s2,a6
   115d2:	0048ab83          	lw	s7,4(a7)
   115d6:	0008a803          	lw	a6,0(a7)
   115da:	0088ac03          	lw	s8,8(a7)
   115de:	00092983          	lw	s3,0(s2)
   115e2:	0004a883          	lw	a7,0(s1)
   115e6:	327fe763          	bltu	t6,t2,11914 <susan_thin+0x464>
   115ea:	00189693          	slli	a3,a7,0x1
   115ee:	001b9513          	slli	a0,s7,0x1
   115f2:	00199493          	slli	s1,s3,0x1
   115f6:	0806                	slli	a6,a6,0x1
   115f8:	002c1393          	slli	t2,s8,0x2
   115fc:	98b6                	add	a7,a7,a3
   115fe:	955e                	add	a0,a0,s7
   11600:	44905063          	blez	s1,11a40 <susan_thin+0x590>
   11604:	4689                	li	a3,2
   11606:	ce36                	sw	a3,28(sp)
   11608:	d002                	sw	zero,32(sp)
   1160a:	3314de63          	bge	s1,a7,11946 <susan_thin+0x496>
   1160e:	3508c763          	blt	a7,a6,1195c <susan_thin+0x4ac>
   11612:	42a8db63          	bge	a7,a0,11a48 <susan_thin+0x598>
   11616:	40755763          	bge	a0,t2,11a24 <susan_thin+0x574>
   1161a:	0705                	addi	a4,a4,1
   1161c:	468d                	li	a3,3
   1161e:	972e                	add	a4,a4,a1
   11620:	51d6e063          	bltu	a3,t4,11b20 <susan_thin+0x670>
   11624:	4691                	li	a3,4
   11626:	00d70023          	sb	a3,0(a4)
   1162a:	4709                	li	a4,2
   1162c:	ce3a                	sw	a4,28(sp)
   1162e:	d03a                	sw	a4,32(sp)
   11630:	b5fd                	j	1151e <susan_thin+0x6e>
   11632:	47e2                	lw	a5,24(sp)
   11634:	ecfe4ce3          	blt	t3,a5,1150c <susan_thin+0x5c>
   11638:	4476                	lw	s0,92(sp)
   1163a:	44e6                	lw	s1,88(sp)
   1163c:	4956                	lw	s2,84(sp)
   1163e:	49c6                	lw	s3,80(sp)
   11640:	4a36                	lw	s4,76(sp)
   11642:	4aa6                	lw	s5,72(sp)
   11644:	4b16                	lw	s6,68(sp)
   11646:	4b86                	lw	s7,64(sp)
   11648:	5c72                	lw	s8,60(sp)
   1164a:	5ce2                	lw	s9,56(sp)
   1164c:	5d52                	lw	s10,52(sp)
   1164e:	5dc2                	lw	s11,48(sp)
   11650:	4501                	li	a0,0
   11652:	6125                	addi	sp,sp,96
   11654:	8082                	ret
   11656:	44c2                	lw	s1,16(sp)
   11658:	00970c33          	add	s8,a4,s1
   1165c:	fff30493          	addi	s1,t1,-1
   11660:	c626                	sw	s1,12(sp)
   11662:	01878eb3          	add	t4,a5,s8
   11666:	13b28963          	beq	t0,s11,11798 <susan_thin+0x2e8>
   1166a:	952e                	add	a0,a0,a1
   1166c:	00054703          	lbu	a4,0(a0)
   11670:	0016c283          	lbu	t0,1(a3)
   11674:	9eae                	add	t4,t4,a1
   11676:	000ec483          	lbu	s1,0(t4)
   1167a:	fff6c803          	lbu	a6,-1(a3)
   1167e:	00873713          	sltiu	a4,a4,8
   11682:	0082b293          	sltiu	t0,t0,8
   11686:	005703b3          	add	t2,a4,t0
   1168a:	0084b493          	sltiu	s1,s1,8
   1168e:	93a6                	add	t2,t2,s1
   11690:	00883813          	sltiu	a6,a6,8
   11694:	93c2                	add	t2,t2,a6
   11696:	e87a54e3          	bge	s4,t2,1151e <susan_thin+0x6e>
   1169a:	00154503          	lbu	a0,1(a0)
   1169e:	001ec903          	lbu	s2,1(t4)
   116a2:	fffec383          	lbu	t2,-1(t4)
   116a6:	00853513          	sltiu	a0,a0,8
   116aa:	00893e93          	sltiu	t4,s2,8
   116ae:	00a2e533          	or	a0,t0,a0
   116b2:	01d4eeb3          	or	t4,s1,t4
   116b6:	0083b393          	sltiu	t2,t2,8
   116ba:	00e8e8b3          	or	a7,a7,a4
   116be:	007863b3          	or	t2,a6,t2
   116c2:	8f69                	and	a4,a4,a0
   116c4:	01d2f2b3          	and	t0,t0,t4
   116c8:	9546                	add	a0,a0,a7
   116ca:	9716                	add	a4,a4,t0
   116cc:	0074f4b3          	and	s1,s1,t2
   116d0:	01187833          	and	a6,a6,a7
   116d4:	9576                	add	a0,a0,t4
   116d6:	9726                	add	a4,a4,s1
   116d8:	951e                	add	a0,a0,t2
   116da:	9742                	add	a4,a4,a6
   116dc:	40e50733          	sub	a4,a0,a4
   116e0:	e2ea4fe3          	blt	s4,a4,1151e <susan_thin+0x6e>
   116e4:	4332                	lw	t1,12(sp)
   116e6:	06400713          	li	a4,100
   116ea:	00e68023          	sb	a4,0(a3)
   116ee:	4711                	li	a4,4
   116f0:	18e34e63          	blt	t1,a4,1188c <susan_thin+0x3dc>
   116f4:	17f9                	addi	a5,a5,-2
   116f6:	4711                	li	a4,4
   116f8:	08e7cb63          	blt	a5,a4,1178e <susan_thin+0x2de>
   116fc:	00130e13          	addi	t3,t1,1
   11700:	8f72                	mv	t5,t3
   11702:	bd31                	j	1151e <susan_thin+0x6e>
   11704:	9aae                	add	s5,s5,a1
   11706:	000ac383          	lbu	t2,0(s5)
   1170a:	ff892903          	lw	s2,-8(s2)
   1170e:	2c7fe663          	bltu	t6,t2,119da <susan_thin+0x52a>
   11712:	00149693          	slli	a3,s1,0x1
   11716:	001b9513          	slli	a0,s7,0x1
   1171a:	00191893          	slli	a7,s2,0x1
   1171e:	080a                	slli	a6,a6,0x2
   11720:	96a6                	add	a3,a3,s1
   11722:	955e                	add	a0,a0,s7
   11724:	001c1393          	slli	t2,s8,0x1
   11728:	45105963          	blez	a7,11b7a <susan_thin+0x6ca>
   1172c:	22d8c663          	blt	a7,a3,11958 <susan_thin+0x4a8>
   11730:	2308c663          	blt	a7,a6,1195c <susan_thin+0x4ac>
   11734:	eea8c1e3          	blt	a7,a0,11616 <susan_thin+0x166>
   11738:	ef8941e3          	blt	s2,s8,1161a <susan_thin+0x16a>
   1173c:	d002                	sw	zero,32(sp)
   1173e:	ce02                	sw	zero,28(sp)
   11740:	5702                	lw	a4,32(sp)
   11742:	480d                	li	a6,3
   11744:	8576                	mv	a0,t4
   11746:	006706b3          	add	a3,a4,t1
   1174a:	16fd                	addi	a3,a3,-1
   1174c:	02c686b3          	mul	a3,a3,a2
   11750:	4772                	lw	a4,28(sp)
   11752:	972e                	add	a4,a4,a1
   11754:	973e                	add	a4,a4,a5
   11756:	9736                	add	a4,a4,a3
   11758:	010ef363          	bgeu	t4,a6,1175e <susan_thin+0x2ae>
   1175c:	8542                	mv	a0,a6
   1175e:	0505                	addi	a0,a0,1
   11760:	fea70fa3          	sb	a0,-1(a4)
   11764:	5502                	lw	a0,32(sp)
   11766:	46f2                	lw	a3,28(sp)
   11768:	00151713          	slli	a4,a0,0x1
   1176c:	9736                	add	a4,a4,a3
   1176e:	4689                	li	a3,2
   11770:	dae6c7e3          	blt	a3,a4,1151e <susan_thin+0x6e>
   11774:	fff50713          	addi	a4,a0,-1
   11778:	933a                	add	t1,t1,a4
   1177a:	4711                	li	a4,4
   1177c:	00e35363          	bge	t1,a4,11782 <susan_thin+0x2d2>
   11780:	833a                	mv	t1,a4
   11782:	4772                	lw	a4,28(sp)
   11784:	1779                	addi	a4,a4,-2
   11786:	97ba                	add	a5,a5,a4
   11788:	4711                	li	a4,4
   1178a:	f6e7d9e3          	bge	a5,a4,116fc <susan_thin+0x24c>
   1178e:	00130e13          	addi	t3,t1,1
   11792:	87ba                	mv	a5,a4
   11794:	8f72                	mv	t5,t3
   11796:	b361                	j	1151e <susan_thin+0x6e>
   11798:	00a58ab3          	add	s5,a1,a0
   1179c:	01d589b3          	add	s3,a1,t4
   117a0:	001acc83          	lbu	s9,1(s5)
   117a4:	fff9c903          	lbu	s2,-1(s3)
   117a8:	0019c483          	lbu	s1,1(s3)
   117ac:	008cbb93          	sltiu	s7,s9,8
   117b0:	011b82b3          	add	t0,s7,a7
   117b4:	00893913          	sltiu	s2,s2,8
   117b8:	92ca                	add	t0,t0,s2
   117ba:	0084b493          	sltiu	s1,s1,8
   117be:	92a6                	add	t0,t0,s1
   117c0:	0db28c63          	beq	t0,s11,11898 <susan_thin+0x3e8>
   117c4:	000ace83          	lbu	t4,0(s5)
   117c8:	0016c883          	lbu	a7,1(a3)
   117cc:	0009c803          	lbu	a6,0(s3)
   117d0:	fff6c503          	lbu	a0,-1(a3)
   117d4:	008ebe93          	sltiu	t4,t4,8
   117d8:	0088b893          	sltiu	a7,a7,8
   117dc:	011e8733          	add	a4,t4,a7
   117e0:	00883813          	sltiu	a6,a6,8
   117e4:	9742                	add	a4,a4,a6
   117e6:	00853513          	sltiu	a0,a0,8
   117ea:	972a                	add	a4,a4,a0
   117ec:	d3b719e3          	bne	a4,s11,1151e <susan_thin+0x6e>
   117f0:	010ee733          	or	a4,t4,a6
   117f4:	d20705e3          	beqz	a4,1151e <susan_thin+0x6e>
   117f8:	00a8e733          	or	a4,a7,a0
   117fc:	d20701e3          	beqz	a4,1151e <susan_thin+0x6e>
   11800:	5722                	lw	a4,40(sp)
   11802:	54b2                	lw	s1,44(sp)
   11804:	0029c383          	lbu	t2,2(s3)
   11808:	40ec0c33          	sub	s8,s8,a4
   1180c:	00fc02b3          	add	t0,s8,a5
   11810:	92ae                	add	t0,t0,a1
   11812:	fff2c703          	lbu	a4,-1(t0)
   11816:	0012c283          	lbu	t0,1(t0)
   1181a:	9c26                	add	s8,s8,s1
   1181c:	00873713          	sltiu	a4,a4,8
   11820:	0082b293          	sltiu	t0,t0,8
   11824:	00576733          	or	a4,a4,t0
   11828:	00eefeb3          	and	t4,t4,a4
   1182c:	ffe9c483          	lbu	s1,-2(s3)
   11830:	ffeac703          	lbu	a4,-2(s5)
   11834:	002ac283          	lbu	t0,2(s5)
   11838:	0084b493          	sltiu	s1,s1,8
   1183c:	00873713          	sltiu	a4,a4,8
   11840:	0082b293          	sltiu	t0,t0,8
   11844:	8f45                	or	a4,a4,s1
   11846:	0083b393          	sltiu	t2,t2,8
   1184a:	8f69                	and	a4,a4,a0
   1184c:	0072e533          	or	a0,t0,t2
   11850:	01d76733          	or	a4,a4,t4
   11854:	00a8f533          	and	a0,a7,a0
   11858:	8f49                	or	a4,a4,a0
   1185a:	9c3e                	add	s8,s8,a5
   1185c:	e305                	bnez	a4,1187c <susan_thin+0x3cc>
   1185e:	01858733          	add	a4,a1,s8
   11862:	fff74503          	lbu	a0,-1(a4)
   11866:	00174883          	lbu	a7,1(a4)
   1186a:	00853713          	sltiu	a4,a0,8
   1186e:	0088b513          	sltiu	a0,a7,8
   11872:	8f49                	or	a4,a4,a0
   11874:	00e87833          	and	a6,a6,a4
   11878:	ca0803e3          	beqz	a6,1151e <susan_thin+0x6e>
   1187c:	4332                	lw	t1,12(sp)
   1187e:	06400713          	li	a4,100
   11882:	00e68023          	sb	a4,0(a3)
   11886:	4711                	li	a4,4
   11888:	e6e356e3          	bge	t1,a4,116f4 <susan_thin+0x244>
   1188c:	833a                	mv	t1,a4
   1188e:	17f9                	addi	a5,a5,-2
   11890:	4711                	li	a4,4
   11892:	e6e7d5e3          	bge	a5,a4,116fc <susan_thin+0x24c>
   11896:	bde5                	j	1178e <susan_thin+0x2de>
   11898:	012bebb3          	or	s7,s7,s2
   1189c:	f20b84e3          	beqz	s7,117c4 <susan_thin+0x314>
   118a0:	0098e4b3          	or	s1,a7,s1
   118a4:	d085                	beqz	s1,117c4 <susan_thin+0x314>
   118a6:	44d2                	lw	s1,20(sp)
   118a8:	00281893          	slli	a7,a6,0x2
   118ac:	98a6                	add	a7,a7,s1
   118ae:	0008a883          	lw	a7,0(a7)
   118b2:	0c7fe863          	bltu	t6,t2,11982 <susan_thin+0x4d2>
   118b6:	52f9                	li	t0,-2
   118b8:	199fe663          	bltu	t6,s9,11a44 <susan_thin+0x594>
   118bc:	00251713          	slli	a4,a0,0x2
   118c0:	9726                	add	a4,a4,s1
   118c2:	4318                	lw	a4,0(a4)
   118c4:	d008f6d3          	fcvt.s.w	fa3,a7
   118c8:	d00777d3          	fcvt.s.w	fa5,a4
   118cc:	18d7f7d3          	fdiv.s	fa5,fa5,fa3
   118d0:	420787d3          	fcvt.d.s	fa5,fa5
   118d4:	a2f71753          	flt.d	a4,fa4,fa5
   118d8:	c40703e3          	beqz	a4,1151e <susan_thin+0x6e>
   118dc:	00530733          	add	a4,t1,t0
   118e0:	02c70733          	mul	a4,a4,a2
   118e4:	481d                	li	a6,7
   118e6:	973e                	add	a4,a4,a5
   118e8:	972e                	add	a4,a4,a1
   118ea:	00074883          	lbu	a7,0(a4)
   118ee:	c31878e3          	bgeu	a6,a7,1151e <susan_thin+0x6e>
   118f2:	fff74883          	lbu	a7,-1(a4)
   118f6:	c31874e3          	bgeu	a6,a7,1151e <susan_thin+0x6e>
   118fa:	00174703          	lbu	a4,1(a4)
   118fe:	c2e870e3          	bgeu	a6,a4,1151e <susan_thin+0x6e>
   11902:	06400713          	li	a4,100
   11906:	00e68023          	sb	a4,0(a3)
   1190a:	952e                	add	a0,a0,a1
   1190c:	470d                	li	a4,3
   1190e:	00e50023          	sb	a4,0(a0)
   11912:	b131                	j	1151e <susan_thin+0x6e>
   11914:	00a583b3          	add	t2,a1,a0
   11918:	0003c383          	lbu	t2,0(t2)
   1191c:	ff84a483          	lw	s1,-8(s1)
   11920:	de7fe2e3          	bltu	t6,t2,11704 <susan_thin+0x254>
   11924:	00181693          	slli	a3,a6,0x1
   11928:	001c1393          	slli	t2,s8,0x1
   1192c:	0486                	slli	s1,s1,0x1
   1192e:	0886                	slli	a7,a7,0x1
   11930:	002b9513          	slli	a0,s7,0x2
   11934:	9836                	add	a6,a6,a3
   11936:	93e2                	add	t2,t2,s8
   11938:	4981                	li	s3,0
   1193a:	2299de63          	bge	s3,s1,11b76 <susan_thin+0x6c6>
   1193e:	d016                	sw	t0,32(sp)
   11940:	ce02                	sw	zero,28(sp)
   11942:	cd14c6e3          	blt	s1,a7,1160e <susan_thin+0x15e>
   11946:	0104cb63          	blt	s1,a6,1195c <susan_thin+0x4ac>
   1194a:	cca4c6e3          	blt	s1,a0,11616 <susan_thin+0x166>
   1194e:	cc74c6e3          	blt	s1,t2,1161a <susan_thin+0x16a>
   11952:	bc0486e3          	beqz	s1,1151e <susan_thin+0x6e>
   11956:	b3ed                	j	11740 <susan_thin+0x290>
   11958:	1506d663          	bge	a3,a6,11aa4 <susan_thin+0x5f4>
   1195c:	caa84de3          	blt	a6,a0,11616 <susan_thin+0x166>
   11960:	007823b3          	slt	t2,a6,t2
   11964:	00139693          	slli	a3,t2,0x1
   11968:	9736                	add	a4,a4,a3
   1196a:	ce36                	sw	a3,28(sp)
   1196c:	177d                	addi	a4,a4,-1
   1196e:	468d                	li	a3,3
   11970:	972e                	add	a4,a4,a1
   11972:	0fd6e863          	bltu	a3,t4,11a62 <susan_thin+0x5b2>
   11976:	4691                	li	a3,4
   11978:	00d70023          	sb	a3,0(a4)
   1197c:	4709                	li	a4,2
   1197e:	d03a                	sw	a4,32(sp)
   11980:	be79                	j	1151e <susan_thin+0x6e>
   11982:	8576                	mv	a0,t4
   11984:	f39fece3          	bltu	t6,s9,118bc <susan_thin+0x40c>
   11988:	4505                	li	a0,1
   1198a:	9542                	add	a0,a0,a6
   1198c:	00251813          	slli	a6,a0,0x2
   11990:	9826                	add	a6,a6,s1
   11992:	00082803          	lw	a6,0(a6)
   11996:	d008f6d3          	fcvt.s.w	fa3,a7
   1199a:	d00877d3          	fcvt.s.w	fa5,a6
   1199e:	18d7f7d3          	fdiv.s	fa5,fa5,fa3
   119a2:	420787d3          	fcvt.d.s	fa5,fa5
   119a6:	a2f71853          	flt.d	a6,fa4,fa5
   119aa:	b6080ae3          	beqz	a6,1151e <susan_thin+0x6e>
   119ae:	00568833          	add	a6,a3,t0
   119b2:	00084803          	lbu	a6,0(a6)
   119b6:	489d                	li	a7,7
   119b8:	b708f3e3          	bgeu	a7,a6,1151e <susan_thin+0x6e>
   119bc:	00558833          	add	a6,a1,t0
   119c0:	9876                	add	a6,a6,t4
   119c2:	00084803          	lbu	a6,0(a6)
   119c6:	b508fce3          	bgeu	a7,a6,1151e <susan_thin+0x6e>
   119ca:	972e                	add	a4,a4,a1
   119cc:	9716                	add	a4,a4,t0
   119ce:	973e                	add	a4,a4,a5
   119d0:	00074703          	lbu	a4,0(a4)
   119d4:	b4e8f5e3          	bgeu	a7,a4,1151e <susan_thin+0x6e>
   119d8:	b72d                	j	11902 <susan_thin+0x452>
   119da:	fff6c383          	lbu	t2,-1(a3)
   119de:	00251693          	slli	a3,a0,0x2
   119e2:	4552                	lw	a0,20(sp)
   119e4:	96aa                	add	a3,a3,a0
   119e6:	4294                	lw	a3,0(a3)
   119e8:	087ffa63          	bgeu	t6,t2,11a7c <susan_thin+0x5cc>
   119ec:	01958533          	add	a0,a1,s9
   119f0:	00054503          	lbu	a0,0(a0)
   119f4:	0aafef63          	bltu	t6,a0,11ab2 <susan_thin+0x602>
   119f8:	00191893          	slli	a7,s2,0x1
   119fc:	00181393          	slli	t2,a6,0x1
   11a00:	98ca                	add	a7,a7,s2
   11a02:	0686                	slli	a3,a3,0x1
   11a04:	001b9513          	slli	a0,s7,0x1
   11a08:	048a                	slli	s1,s1,0x2
   11a0a:	981e                	add	a6,a6,t2
   11a0c:	19105063          	blez	a7,11b8c <susan_thin+0x6dc>
   11a10:	10d8cf63          	blt	a7,a3,11b2e <susan_thin+0x67e>
   11a14:	1098cf63          	blt	a7,s1,11b32 <susan_thin+0x682>
   11a18:	ce02                	sw	zero,28(sp)
   11a1a:	1508da63          	bge	a7,a6,11b6e <susan_thin+0x6be>
   11a1e:	4381                	li	t2,0
   11a20:	f4a850e3          	bge	a6,a0,11960 <susan_thin+0x4b0>
   11a24:	468d                	li	a3,3
   11a26:	972e                	add	a4,a4,a1
   11a28:	05d6e363          	bltu	a3,t4,11a6e <susan_thin+0x5be>
   11a2c:	4691                	li	a3,4
   11a2e:	ce16                	sw	t0,28(sp)
   11a30:	00d70023          	sb	a3,0(a4)
   11a34:	4709                	li	a4,2
   11a36:	d03a                	sw	a4,32(sp)
   11a38:	b4dd                	j	1151e <susan_thin+0x6e>
   11a3a:	4801                	li	a6,0
   11a3c:	bc9044e3          	bgtz	s1,11604 <susan_thin+0x154>
   11a40:	4481                	li	s1,0
   11a42:	b6e1                	j	1160a <susan_thin+0x15a>
   11a44:	557d                	li	a0,-1
   11a46:	b791                	j	1198a <susan_thin+0x4da>
   11a48:	bc78c9e3          	blt	a7,t2,1161a <susan_thin+0x16a>
   11a4c:	470d                	li	a4,3
   11a4e:	9cae                	add	s9,s9,a1
   11a50:	0bd76663          	bltu	a4,t4,11afc <susan_thin+0x64c>
   11a54:	4711                	li	a4,4
   11a56:	00ec8023          	sb	a4,0(s9)
   11a5a:	4709                	li	a4,2
   11a5c:	d016                	sw	t0,32(sp)
   11a5e:	ce3a                	sw	a4,28(sp)
   11a60:	bc7d                	j	1151e <susan_thin+0x6e>
   11a62:	0e85                	addi	t4,t4,1
   11a64:	01d70023          	sb	t4,0(a4)
   11a68:	4709                	li	a4,2
   11a6a:	d03a                	sw	a4,32(sp)
   11a6c:	bc4d                	j	1151e <susan_thin+0x6e>
   11a6e:	0e85                	addi	t4,t4,1
   11a70:	01d70023          	sb	t4,0(a4)
   11a74:	4709                	li	a4,2
   11a76:	ce16                	sw	t0,28(sp)
   11a78:	d03a                	sw	a4,32(sp)
   11a7a:	b455                	j	1151e <susan_thin+0x6e>
   11a7c:	00199493          	slli	s1,s3,0x1
   11a80:	001c1393          	slli	t2,s8,0x1
   11a84:	0686                	slli	a3,a3,0x1
   11a86:	001b9513          	slli	a0,s7,0x1
   11a8a:	088a                	slli	a7,a7,0x2
   11a8c:	94ce                	add	s1,s1,s3
   11a8e:	93e2                	add	t2,t2,s8
   11a90:	fad055e3          	blez	a3,11a3a <susan_thin+0x58a>
   11a94:	4801                	li	a6,0
   11a96:	b696c7e3          	blt	a3,s1,11604 <susan_thin+0x154>
   11a9a:	84b6                	mv	s1,a3
   11a9c:	ce16                	sw	t0,28(sp)
   11a9e:	4801                	li	a6,0
   11aa0:	d002                	sw	zero,32(sp)
   11aa2:	b6a5                	j	1160a <susan_thin+0x15a>
   11aa4:	b774c9e3          	blt	s1,s7,11616 <susan_thin+0x166>
   11aa8:	b676c9e3          	blt	a3,t2,1161a <susan_thin+0x16a>
   11aac:	d016                	sw	t0,32(sp)
   11aae:	ce02                	sw	zero,28(sp)
   11ab0:	b941                	j	11740 <susan_thin+0x290>
   11ab2:	00e58533          	add	a0,a1,a4
   11ab6:	fff54383          	lbu	t2,-1(a0)
   11aba:	047ff563          	bgeu	t6,t2,11b04 <susan_thin+0x654>
   11abe:	00054383          	lbu	t2,0(a0)
   11ac2:	4a9d                	li	s5,7
   11ac4:	067aef63          	bltu	s5,t2,11b42 <susan_thin+0x692>
   11ac8:	00191513          	slli	a0,s2,0x1
   11acc:	992a                	add	s2,s2,a0
   11ace:	00199513          	slli	a0,s3,0x1
   11ad2:	99aa                	add	s3,s3,a0
   11ad4:	0486                	slli	s1,s1,0x1
   11ad6:	0886                	slli	a7,a7,0x1
   11ad8:	068a                	slli	a3,a3,0x2
   11ada:	4381                	li	t2,0
   11adc:	4501                	li	a0,0
   11ade:	4801                	li	a6,0
   11ae0:	0d205963          	blez	s2,11bb2 <susan_thin+0x702>
   11ae4:	ce02                	sw	zero,28(sp)
   11ae6:	d002                	sw	zero,32(sp)
   11ae8:	0cd95363          	bge	s2,a3,11bae <susan_thin+0x6fe>
   11aec:	ce16                	sw	t0,28(sp)
   11aee:	d002                	sw	zero,32(sp)
   11af0:	0536d763          	bge	a3,s3,11b3e <susan_thin+0x68e>
   11af4:	4689                	li	a3,2
   11af6:	ce36                	sw	a3,28(sp)
   11af8:	d002                	sw	zero,32(sp)
   11afa:	b581                	j	1193a <susan_thin+0x48a>
   11afc:	0e85                	addi	t4,t4,1
   11afe:	01dc8023          	sb	t4,0(s9)
   11b02:	bfa1                	j	11a5a <susan_thin+0x5aa>
   11b04:	00169513          	slli	a0,a3,0x1
   11b08:	96aa                	add	a3,a3,a0
   11b0a:	00189513          	slli	a0,a7,0x1
   11b0e:	98aa                	add	a7,a7,a0
   11b10:	0906                	slli	s2,s2,0x1
   11b12:	001c1393          	slli	t2,s8,0x1
   11b16:	098a                	slli	s3,s3,0x2
   11b18:	4501                	li	a0,0
   11b1a:	4801                	li	a6,0
   11b1c:	4481                	li	s1,0
   11b1e:	b7c9                	j	11ae0 <susan_thin+0x630>
   11b20:	0e85                	addi	t4,t4,1
   11b22:	01d70023          	sb	t4,0(a4)
   11b26:	4709                	li	a4,2
   11b28:	ce3a                	sw	a4,28(sp)
   11b2a:	d03a                	sw	a4,32(sp)
   11b2c:	bacd                	j	1151e <susan_thin+0x6e>
   11b2e:	0696d863          	bge	a3,s1,11b9e <susan_thin+0x6ee>
   11b32:	0304c963          	blt	s1,a6,11b64 <susan_thin+0x6b4>
   11b36:	f6a4dbe3          	bge	s1,a0,11aac <susan_thin+0x5fc>
   11b3a:	4381                	li	t2,0
   11b3c:	bce9                	j	11616 <susan_thin+0x166>
   11b3e:	89b6                	mv	s3,a3
   11b40:	bbed                	j	1193a <susan_thin+0x48a>
   11b42:	00154503          	lbu	a0,1(a0)
   11b46:	02aae163          	bltu	s5,a0,11b68 <susan_thin+0x6b8>
   11b4a:	00169513          	slli	a0,a3,0x1
   11b4e:	96aa                	add	a3,a3,a0
   11b50:	00149513          	slli	a0,s1,0x1
   11b54:	94aa                	add	s1,s1,a0
   11b56:	0806                	slli	a6,a6,0x1
   11b58:	0986                	slli	s3,s3,0x1
   11b5a:	090a                	slli	s2,s2,0x2
   11b5c:	4381                	li	t2,0
   11b5e:	4501                	li	a0,0
   11b60:	4881                	li	a7,0
   11b62:	bfbd                	j	11ae0 <susan_thin+0x630>
   11b64:	4381                	li	t2,0
   11b66:	bbdd                	j	1195c <susan_thin+0x4ac>
   11b68:	83e2                	mv	t2,s8
   11b6a:	855e                	mv	a0,s7
   11b6c:	bf95                	j	11ae0 <susan_thin+0x630>
   11b6e:	eaa8cbe3          	blt	a7,a0,11a24 <susan_thin+0x574>
   11b72:	d002                	sw	zero,32(sp)
   11b74:	b6f1                	j	11740 <susan_thin+0x290>
   11b76:	84ce                	mv	s1,s3
   11b78:	bc49                	j	1160a <susan_thin+0x15a>
   11b7a:	dcd04fe3          	bgtz	a3,11958 <susan_thin+0x4a8>
   11b7e:	dd004fe3          	bgtz	a6,1195c <susan_thin+0x4ac>
   11b82:	a8a04ae3          	bgtz	a0,11616 <susan_thin+0x166>
   11b86:	a8704ae3          	bgtz	t2,1161a <susan_thin+0x16a>
   11b8a:	ba51                	j	1151e <susan_thin+0x6e>
   11b8c:	fad041e3          	bgtz	a3,11b2e <susan_thin+0x67e>
   11b90:	00905a63          	blez	s1,11ba4 <susan_thin+0x6f4>
   11b94:	e904c5e3          	blt	s1,a6,11a1e <susan_thin+0x56e>
   11b98:	e8a4c6e3          	blt	s1,a0,11a24 <susan_thin+0x574>
   11b9c:	bf01                	j	11aac <susan_thin+0x5fc>
   11b9e:	88b6                	mv	a7,a3
   11ba0:	ce16                	sw	t0,28(sp)
   11ba2:	bda5                	j	11a1a <susan_thin+0x56a>
   11ba4:	e7004de3          	bgtz	a6,11a1e <susan_thin+0x56e>
   11ba8:	e6a04ee3          	bgtz	a0,11a24 <susan_thin+0x574>
   11bac:	ba8d                	j	1151e <susan_thin+0x6e>
   11bae:	86ca                	mv	a3,s2
   11bb0:	b781                	j	11af0 <susan_thin+0x640>
   11bb2:	4901                	li	s2,0
   11bb4:	bf15                	j	11ae8 <susan_thin+0x638>

00011bb6 <susan_edges>:
   11bb6:	710d                	addi	sp,sp,-352
   11bb8:	14812c23          	sw	s0,344(sp)
   11bbc:	c3be                	sw	a5,196(sp)
   11bbe:	843e                	mv	s0,a5
   11bc0:	030787b3          	mul	a5,a5,a6
   11bc4:	14912a23          	sw	s1,340(sp)
   11bc8:	13912a23          	sw	s9,308(sp)
   11bcc:	13b12623          	sw	s11,300(sp)
   11bd0:	db2e                	sw	a1,180(sp)
   11bd2:	8cae                	mv	s9,a1
   11bd4:	84aa                	mv	s1,a0
   11bd6:	8db2                	mv	s11,a2
   11bd8:	852e                	mv	a0,a1
   11bda:	4581                	li	a1,0
   11bdc:	00279613          	slli	a2,a5,0x2
   11be0:	13712e23          	sw	s7,316(sp)
   11be4:	13812c23          	sw	s8,312(sp)
   11be8:	13a12823          	sw	s10,304(sp)
   11bec:	14112e23          	sw	ra,348(sp)
   11bf0:	8d42                	mv	s10,a6
   11bf2:	8c36                	mv	s8,a3
   11bf4:	df36                	sw	a3,188(sp)
   11bf6:	8bba                	mv	s7,a4
   11bf8:	c1ba                	sw	a4,192(sp)
   11bfa:	03f050ef          	jal	17438 <memset>
   11bfe:	4799                	li	a5,6
   11c00:	29a7d9e3          	bge	a5,s10,12692 <susan_edges+0xadc>
   11c04:	2887d7e3          	bge	a5,s0,12692 <susan_edges+0xadc>
   11c08:	87a2                	mv	a5,s0
   11c0a:	0406                	slli	s0,s0,0x1
   11c0c:	15212823          	sw	s2,336(sp)
   11c10:	00f40933          	add	s2,s0,a5
   11c14:	15312623          	sw	s3,332(sp)
   11c18:	ffc48393          	addi	t2,s1,-4
   11c1c:	012489b3          	add	s3,s1,s2
   11c20:	15412423          	sw	s4,328(sp)
   11c24:	15512223          	sw	s5,324(sp)
   11c28:	15612023          	sw	s6,320(sp)
   11c2c:	8fca                	mv	t6,s2
   11c2e:	8e4a                	mv	t3,s2
   11c30:	9426                	add	s0,s0,s1
   11c32:	0989                	addi	s3,s3,2
   11c34:	93be                	add	t2,t2,a5
   11c36:	ffdd0b13          	addi	s6,s10,-3
   11c3a:	4281                	li	t0,0
   11c3c:	4f0d                	li	t5,3
   11c3e:	00248a13          	addi	s4,s1,2
   11c42:	00f48ab3          	add	s5,s1,a5
   11c46:	893e                	mv	s2,a5
   11c48:	002f9e93          	slli	t4,t6,0x2
   11c4c:	9ee6                	add	t4,t4,s9
   11c4e:	005a0833          	add	a6,s4,t0
   11c52:	00538513          	addi	a0,t2,5
   11c56:	005406b3          	add	a3,s0,t0
   11c5a:	01f48633          	add	a2,s1,t6
   11c5e:	01fa8733          	add	a4,s5,t6
   11c62:	01f405b3          	add	a1,s0,t6
   11c66:	01f988b3          	add	a7,s3,t6
   11c6a:	c67a                	sw	t5,12(sp)
   11c6c:	c822                	sw	s0,16(sp)
   11c6e:	405807b3          	sub	a5,a6,t0
   11c72:	97fe                	add	a5,a5,t6
   11c74:	0017c783          	lbu	a5,1(a5)
   11c78:	00084f03          	lbu	t5,0(a6)
   11c7c:	00184303          	lbu	t1,1(a6)
   11c80:	97e2                	add	a5,a5,s8
   11c82:	41e78f33          	sub	t5,a5,t5
   11c86:	000f4f03          	lbu	t5,0(t5)
   11c8a:	40678333          	sub	t1,a5,t1
   11c8e:	00034303          	lbu	t1,0(t1)
   11c92:	00284403          	lbu	s0,2(a6)
   11c96:	064f0f13          	addi	t5,t5,100
   11c9a:	937a                	add	t1,t1,t5
   11c9c:	00054f03          	lbu	t5,0(a0)
   11ca0:	40878433          	sub	s0,a5,s0
   11ca4:	00044403          	lbu	s0,0(s0)
   11ca8:	41e78f33          	sub	t5,a5,t5
   11cac:	000f4f03          	lbu	t5,0(t5)
   11cb0:	941a                	add	s0,s0,t1
   11cb2:	00154303          	lbu	t1,1(a0)
   11cb6:	9f22                	add	t5,t5,s0
   11cb8:	00254403          	lbu	s0,2(a0)
   11cbc:	40678333          	sub	t1,a5,t1
   11cc0:	00034303          	lbu	t1,0(t1)
   11cc4:	40878433          	sub	s0,a5,s0
   11cc8:	00044403          	lbu	s0,0(s0)
   11ccc:	937a                	add	t1,t1,t5
   11cce:	00354f03          	lbu	t5,3(a0)
   11cd2:	941a                	add	s0,s0,t1
   11cd4:	00454303          	lbu	t1,4(a0)
   11cd8:	41e78f33          	sub	t5,a5,t5
   11cdc:	000f4f03          	lbu	t5,0(t5)
   11ce0:	40678333          	sub	t1,a5,t1
   11ce4:	00034303          	lbu	t1,0(t1)
   11ce8:	9f22                	add	t5,t5,s0
   11cea:	0006c403          	lbu	s0,0(a3)
   11cee:	937a                	add	t1,t1,t5
   11cf0:	0016cf03          	lbu	t5,1(a3)
   11cf4:	40878433          	sub	s0,a5,s0
   11cf8:	00044403          	lbu	s0,0(s0)
   11cfc:	41e78f33          	sub	t5,a5,t5
   11d00:	000f4f03          	lbu	t5,0(t5)
   11d04:	941a                	add	s0,s0,t1
   11d06:	0026c303          	lbu	t1,2(a3)
   11d0a:	9f22                	add	t5,t5,s0
   11d0c:	0036c403          	lbu	s0,3(a3)
   11d10:	40678333          	sub	t1,a5,t1
   11d14:	00034303          	lbu	t1,0(t1)
   11d18:	40878433          	sub	s0,a5,s0
   11d1c:	00044403          	lbu	s0,0(s0)
   11d20:	937a                	add	t1,t1,t5
   11d22:	0046cf03          	lbu	t5,4(a3)
   11d26:	941a                	add	s0,s0,t1
   11d28:	0056c303          	lbu	t1,5(a3)
   11d2c:	41e78f33          	sub	t5,a5,t5
   11d30:	000f4f03          	lbu	t5,0(t5)
   11d34:	40678333          	sub	t1,a5,t1
   11d38:	00034303          	lbu	t1,0(t1)
   11d3c:	9f22                	add	t5,t5,s0
   11d3e:	0066c403          	lbu	s0,6(a3)
   11d42:	937a                	add	t1,t1,t5
   11d44:	00064f03          	lbu	t5,0(a2)
   11d48:	40878433          	sub	s0,a5,s0
   11d4c:	00044403          	lbu	s0,0(s0)
   11d50:	41e78f33          	sub	t5,a5,t5
   11d54:	000f4f03          	lbu	t5,0(t5)
   11d58:	941a                	add	s0,s0,t1
   11d5a:	00164303          	lbu	t1,1(a2)
   11d5e:	9f22                	add	t5,t5,s0
   11d60:	00264403          	lbu	s0,2(a2)
   11d64:	40678333          	sub	t1,a5,t1
   11d68:	00034303          	lbu	t1,0(t1)
   11d6c:	40878433          	sub	s0,a5,s0
   11d70:	00044403          	lbu	s0,0(s0)
   11d74:	937a                	add	t1,t1,t5
   11d76:	00464f03          	lbu	t5,4(a2)
   11d7a:	941a                	add	s0,s0,t1
   11d7c:	00564303          	lbu	t1,5(a2)
   11d80:	41e78f33          	sub	t5,a5,t5
   11d84:	000f4f03          	lbu	t5,0(t5)
   11d88:	40678333          	sub	t1,a5,t1
   11d8c:	00034303          	lbu	t1,0(t1)
   11d90:	9f22                	add	t5,t5,s0
   11d92:	00664403          	lbu	s0,6(a2)
   11d96:	937a                	add	t1,t1,t5
   11d98:	00074f03          	lbu	t5,0(a4)
   11d9c:	40878433          	sub	s0,a5,s0
   11da0:	00044403          	lbu	s0,0(s0)
   11da4:	41e78f33          	sub	t5,a5,t5
   11da8:	000f4f03          	lbu	t5,0(t5)
   11dac:	941a                	add	s0,s0,t1
   11dae:	00174303          	lbu	t1,1(a4)
   11db2:	9f22                	add	t5,t5,s0
   11db4:	00274403          	lbu	s0,2(a4)
   11db8:	40678333          	sub	t1,a5,t1
   11dbc:	00034303          	lbu	t1,0(t1)
   11dc0:	40878433          	sub	s0,a5,s0
   11dc4:	00044403          	lbu	s0,0(s0)
   11dc8:	937a                	add	t1,t1,t5
   11dca:	00374f03          	lbu	t5,3(a4)
   11dce:	941a                	add	s0,s0,t1
   11dd0:	00474303          	lbu	t1,4(a4)
   11dd4:	41e78f33          	sub	t5,a5,t5
   11dd8:	000f4f03          	lbu	t5,0(t5)
   11ddc:	40678333          	sub	t1,a5,t1
   11de0:	00034303          	lbu	t1,0(t1)
   11de4:	9f22                	add	t5,t5,s0
   11de6:	00574403          	lbu	s0,5(a4)
   11dea:	937a                	add	t1,t1,t5
   11dec:	00674f03          	lbu	t5,6(a4)
   11df0:	40878433          	sub	s0,a5,s0
   11df4:	00044403          	lbu	s0,0(s0)
   11df8:	41e78f33          	sub	t5,a5,t5
   11dfc:	000f4f03          	lbu	t5,0(t5)
   11e00:	941a                	add	s0,s0,t1
   11e02:	0015c303          	lbu	t1,1(a1)
   11e06:	9f22                	add	t5,t5,s0
   11e08:	0025c403          	lbu	s0,2(a1)
   11e0c:	40678333          	sub	t1,a5,t1
   11e10:	00034303          	lbu	t1,0(t1)
   11e14:	40878433          	sub	s0,a5,s0
   11e18:	00044403          	lbu	s0,0(s0)
   11e1c:	937a                	add	t1,t1,t5
   11e1e:	0035cf03          	lbu	t5,3(a1)
   11e22:	941a                	add	s0,s0,t1
   11e24:	0045c303          	lbu	t1,4(a1)
   11e28:	41e78f33          	sub	t5,a5,t5
   11e2c:	000f4f03          	lbu	t5,0(t5)
   11e30:	40678333          	sub	t1,a5,t1
   11e34:	00034303          	lbu	t1,0(t1)
   11e38:	9f22                	add	t5,t5,s0
   11e3a:	0055c403          	lbu	s0,5(a1)
   11e3e:	937a                	add	t1,t1,t5
   11e40:	0008cf03          	lbu	t5,0(a7)
   11e44:	40878433          	sub	s0,a5,s0
   11e48:	00044403          	lbu	s0,0(s0)
   11e4c:	41e78f33          	sub	t5,a5,t5
   11e50:	000f4f03          	lbu	t5,0(t5)
   11e54:	941a                	add	s0,s0,t1
   11e56:	0018c303          	lbu	t1,1(a7)
   11e5a:	9f22                	add	t5,t5,s0
   11e5c:	0028c403          	lbu	s0,2(a7)
   11e60:	40678333          	sub	t1,a5,t1
   11e64:	00034303          	lbu	t1,0(t1)
   11e68:	8f81                	sub	a5,a5,s0
   11e6a:	0007c783          	lbu	a5,0(a5)
   11e6e:	937a                	add	t1,t1,t5
   11e70:	979a                	add	a5,a5,t1
   11e72:	00fbc663          	blt	s7,a5,11e7e <susan_edges+0x2c8>
   11e76:	40fb87b3          	sub	a5,s7,a5
   11e7a:	00fea623          	sw	a5,12(t4)
   11e7e:	0805                	addi	a6,a6,1
   11e80:	0505                	addi	a0,a0,1
   11e82:	0685                	addi	a3,a3,1
   11e84:	0605                	addi	a2,a2,1
   11e86:	0705                	addi	a4,a4,1
   11e88:	0585                	addi	a1,a1,1
   11e8a:	0885                	addi	a7,a7,1
   11e8c:	0e91                	addi	t4,t4,4
   11e8e:	df0390e3          	bne	t2,a6,11c6e <susan_edges+0xb8>
   11e92:	4f32                	lw	t5,12(sp)
   11e94:	4442                	lw	s0,16(sp)
   11e96:	93ca                	add	t2,t2,s2
   11e98:	0f05                	addi	t5,t5,1
   11e9a:	92ca                	add	t0,t0,s2
   11e9c:	9fca                	add	t6,t6,s2
   11e9e:	db6f15e3          	bne	t5,s6,11c48 <susan_edges+0x92>
   11ea2:	47a1                	li	a5,8
   11ea4:	7da7dd63          	bge	a5,s10,1267e <susan_edges+0xac8>
   11ea8:	469e                	lw	a3,196(sp)
   11eaa:	7cd7da63          	bge	a5,a3,1267e <susan_edges+0xac8>
   11eae:	00269413          	slli	s0,a3,0x2
   11eb2:	fac1a687          	flw	fa3,-84(gp) # 237bc <__SDATA_BEGIN__+0x10c>
   11eb6:	fb01a587          	flw	fa1,-80(gp) # 237c0 <__SDATA_BEGIN__+0x110>
   11eba:	008487b3          	add	a5,s1,s0
   11ebe:	eb81b607          	fld	fa2,-328(gp) # 236c8 <__SDATA_BEGIN__+0x18>
   11ec2:	00d40c33          	add	s8,s0,a3
   11ec6:	ffc68713          	addi	a4,a3,-4
   11eca:	1d71                	addi	s10,s10,-4
   11ecc:	0d91                	addi	s11,s11,4
   11ece:	078d                	addi	a5,a5,3
   11ed0:	00348e93          	addi	t4,s1,3
   11ed4:	c33a                	sw	a4,132(sp)
   11ed6:	8a62                	mv	s4,s8
   11ed8:	00148c93          	addi	s9,s1,1
   11edc:	4511                	li	a0,4
   11ede:	d5ea                	sw	s10,232(sp)
   11ee0:	88f2                	mv	a7,t3
   11ee2:	8836                	mv	a6,a3
   11ee4:	d7be                	sw	a5,236(sp)
   11ee6:	d9f6                	sw	t4,240(sp)
   11ee8:	dbee                	sw	s11,244(sp)
   11eea:	8736                	mv	a4,a3
   11eec:	57de                	lw	a5,244(sp)
   11eee:	00241693          	slli	a3,s0,0x2
   11ef2:	011a8bb3          	add	s7,s5,a7
   11ef6:	973e                	add	a4,a4,a5
   11ef8:	011707b3          	add	a5,a4,a7
   11efc:	ce3e                	sw	a5,28(sp)
   11efe:	57da                	lw	a5,180(sp)
   11f00:	c5aa                	sw	a0,200(sp)
   11f02:	0505                	addi	a0,a0,1
   11f04:	97b6                	add	a5,a5,a3
   11f06:	d4be                	sw	a5,104(sp)
   11f08:	00540793          	addi	a5,s0,5
   11f0c:	c83e                	sw	a5,16(sp)
   11f0e:	004a0793          	addi	a5,s4,4
   11f12:	ca3e                	sw	a5,20(sp)
   11f14:	00588793          	addi	a5,a7,5
   11f18:	cc3e                	sw	a5,24(sp)
   11f1a:	57ce                	lw	a5,240(sp)
   11f1c:	011c8db3          	add	s11,s9,a7
   11f20:	014c8d33          	add	s10,s9,s4
   11f24:	97c2                	add	a5,a5,a6
   11f26:	c63e                	sw	a5,12(sp)
   11f28:	57be                	lw	a5,236(sp)
   11f2a:	cfe6                	sw	s9,220(sp)
   11f2c:	dd5e                	sw	s7,184(sp)
   11f2e:	010a8933          	add	s2,s5,a6
   11f32:	014a8b33          	add	s6,s5,s4
   11f36:	4491                	li	s1,4
   11f38:	c7aa                	sw	a0,204(sp)
   11f3a:	c9c6                	sw	a7,208(sp)
   11f3c:	cbd2                	sw	s4,212(sp)
   11f3e:	cdc2                	sw	a6,216(sp)
   11f40:	01178cb3          	add	s9,a5,a7
   11f44:	d1d6                	sw	s5,224(sp)
   11f46:	d3e2                	sw	s8,228(sp)
   11f48:	a649                	j	122ca <susan_edges+0x714>
   11f4a:	57ea                	lw	a5,184(sp)
   11f4c:	4732                	lw	a4,12(sp)
   11f4e:	5a7a                	lw	s4,188(sp)
   11f50:	97a6                	add	a5,a5,s1
   11f52:	0007c783          	lbu	a5,0(a5)
   11f56:	00074983          	lbu	s3,0(a4)
   11f5a:	00274403          	lbu	s0,2(a4)
   11f5e:	00294383          	lbu	t2,2(s2)
   11f62:	00394283          	lbu	t0,3(s2)
   11f66:	00494f83          	lbu	t6,4(s2)
   11f6a:	00594f03          	lbu	t5,5(s2)
   11f6e:	97d2                	add	a5,a5,s4
   11f70:	00694e83          	lbu	t4,6(s2)
   11f74:	003dc803          	lbu	a6,3(s11)
   11f78:	005dc583          	lbu	a1,5(s11)
   11f7c:	001bc683          	lbu	a3,1(s7)
   11f80:	413789b3          	sub	s3,a5,s3
   11f84:	40878433          	sub	s0,a5,s0
   11f88:	407783b3          	sub	t2,a5,t2
   11f8c:	405782b3          	sub	t0,a5,t0
   11f90:	41f78fb3          	sub	t6,a5,t6
   11f94:	41e78f33          	sub	t5,a5,t5
   11f98:	0002c283          	lbu	t0,0(t0)
   11f9c:	000f4f03          	lbu	t5,0(t5)
   11fa0:	0009c983          	lbu	s3,0(s3)
   11fa4:	00044403          	lbu	s0,0(s0)
   11fa8:	0003c383          	lbu	t2,0(t2)
   11fac:	000fcf83          	lbu	t6,0(t6)
   11fb0:	000dce03          	lbu	t3,0(s11)
   11fb4:	001dc303          	lbu	t1,1(s11)
   11fb8:	002dc883          	lbu	a7,2(s11)
   11fbc:	004dc503          	lbu	a0,4(s11)
   11fc0:	006dc603          	lbu	a2,6(s11)
   11fc4:	002bc703          	lbu	a4,2(s7)
   11fc8:	41d78eb3          	sub	t4,a5,t4
   11fcc:	41078833          	sub	a6,a5,a6
   11fd0:	40b785b3          	sub	a1,a5,a1
   11fd4:	40d786b3          	sub	a3,a5,a3
   11fd8:	d64e                	sw	s3,44(sp)
   11fda:	d822                	sw	s0,48(sp)
   11fdc:	c49e                	sw	t2,72(sp)
   11fde:	c096                	sw	t0,64(sp)
   11fe0:	c6fe                	sw	t6,76(sp)
   11fe2:	c2fa                	sw	t5,68(sp)
   11fe4:	000ece83          	lbu	t4,0(t4)
   11fe8:	00084803          	lbu	a6,0(a6)
   11fec:	0005c583          	lbu	a1,0(a1)
   11ff0:	0006c683          	lbu	a3,0(a3)
   11ff4:	40a78533          	sub	a0,a5,a0
   11ff8:	40c78633          	sub	a2,a5,a2
   11ffc:	40e78733          	sub	a4,a5,a4
   12000:	41c78e33          	sub	t3,a5,t3
   12004:	40678333          	sub	t1,a5,t1
   12008:	411788b3          	sub	a7,a5,a7
   1200c:	000e4e03          	lbu	t3,0(t3)
   12010:	00034303          	lbu	t1,0(t1)
   12014:	0008c883          	lbu	a7,0(a7)
   12018:	005bca03          	lbu	s4,5(s7)
   1201c:	cac2                	sw	a6,84(sp)
   1201e:	d22e                	sw	a1,36(sp)
   12020:	00054803          	lbu	a6,0(a0)
   12024:	00064583          	lbu	a1,0(a2)
   12028:	d6b6                	sw	a3,108(sp)
   1202a:	00074683          	lbu	a3,0(a4)
   1202e:	006bc383          	lbu	t2,6(s7)
   12032:	003bca83          	lbu	s5,3(s7)
   12036:	000d4f83          	lbu	t6,0(s10)
   1203a:	002b4503          	lbu	a0,2(s6)
   1203e:	8996                	mv	s3,t0
   12040:	847a                	mv	s0,t5
   12042:	007bc283          	lbu	t0,7(s7)
   12046:	001d4f03          	lbu	t5,1(s10)
   1204a:	c8f6                	sw	t4,80(sp)
   1204c:	da72                	sw	t3,52(sp)
   1204e:	002d4e83          	lbu	t4,2(s10)
   12052:	003d4e03          	lbu	t3,3(s10)
   12056:	d01a                	sw	t1,32(sp)
   12058:	dc46                	sw	a7,56(sp)
   1205a:	004d4303          	lbu	t1,4(s10)
   1205e:	005d4883          	lbu	a7,5(s10)
   12062:	d442                	sw	a6,40(sp)
   12064:	d8b6                	sw	a3,112(sp)
   12066:	006d4803          	lbu	a6,6(s10)
   1206a:	41478a33          	sub	s4,a5,s4
   1206e:	de2e                	sw	a1,60(sp)
   12070:	003b4583          	lbu	a1,3(s6)
   12074:	005b4683          	lbu	a3,5(s6)
   12078:	006b4703          	lbu	a4,6(s6)
   1207c:	000a4a03          	lbu	s4,0(s4)
   12080:	407783b3          	sub	t2,a5,t2
   12084:	0003c383          	lbu	t2,0(t2)
   12088:	41e78f33          	sub	t5,a5,t5
   1208c:	40d786b3          	sub	a3,a5,a3
   12090:	40e78733          	sub	a4,a5,a4
   12094:	004b4603          	lbu	a2,4(s6)
   12098:	41578ab3          	sub	s5,a5,s5
   1209c:	41c78e33          	sub	t3,a5,t3
   120a0:	000aca83          	lbu	s5,0(s5)
   120a4:	000e4e03          	lbu	t3,0(t3)
   120a8:	405782b3          	sub	t0,a5,t0
   120ac:	dcd2                	sw	s4,120(sp)
   120ae:	000f4a03          	lbu	s4,0(t5)
   120b2:	0006cf03          	lbu	t5,0(a3)
   120b6:	00074683          	lbu	a3,0(a4)
   120ba:	4732                	lw	a4,12(sp)
   120bc:	de9e                	sw	t2,124(sp)
   120be:	0002c383          	lbu	t2,0(t0)
   120c2:	41f78fb3          	sub	t6,a5,t6
   120c6:	40b785b3          	sub	a1,a5,a1
   120ca:	40c78633          	sub	a2,a5,a2
   120ce:	40678333          	sub	t1,a5,t1
   120d2:	40a78533          	sub	a0,a5,a0
   120d6:	00174703          	lbu	a4,1(a4)
   120da:	41078833          	sub	a6,a5,a6
   120de:	dad6                	sw	s5,116(sp)
   120e0:	ccf2                	sw	t3,88(sp)
   120e2:	000fca83          	lbu	s5,0(t6)
   120e6:	0005ce03          	lbu	t3,0(a1)
   120ea:	00064583          	lbu	a1,0(a2)
   120ee:	002cc603          	lbu	a2,2(s9)
   120f2:	00084803          	lbu	a6,0(a6)
   120f6:	c11e                	sw	t2,128(sp)
   120f8:	00034383          	lbu	t2,0(t1)
   120fc:	00054303          	lbu	t1,0(a0)
   12100:	41d78eb3          	sub	t4,a5,t4
   12104:	40c78633          	sub	a2,a5,a2
   12108:	000ecf83          	lbu	t6,0(t4)
   1210c:	411788b3          	sub	a7,a5,a7
   12110:	40e78733          	sub	a4,a5,a4
   12114:	002a9e93          	slli	t4,s5,0x2
   12118:	0008c883          	lbu	a7,0(a7)
   1211c:	ce9a                	sw	t1,92(sp)
   1211e:	d0ae                	sw	a1,96(sp)
   12120:	d2b6                	sw	a3,100(sp)
   12122:	00181513          	slli	a0,a6,0x1
   12126:	000cc683          	lbu	a3,0(s9)
   1212a:	41da8eb3          	sub	t4,s5,t4
   1212e:	00074703          	lbu	a4,0(a4)
   12132:	00064583          	lbu	a1,0(a2)
   12136:	5632                	lw	a2,44(sp)
   12138:	cd76                	sw	t4,152(sp)
   1213a:	01050eb3          	add	t4,a0,a6
   1213e:	5542                	lw	a0,48(sp)
   12140:	9732                	add	a4,a4,a2
   12142:	00159613          	slli	a2,a1,0x1
   12146:	972a                	add	a4,a4,a0
   12148:	00b60533          	add	a0,a2,a1
   1214c:	d12a                	sw	a0,160(sp)
   1214e:	00199513          	slli	a0,s3,0x1
   12152:	c52a                	sw	a0,136(sp)
   12154:	5502                	lw	a0,32(sp)
   12156:	00141613          	slli	a2,s0,0x1
   1215a:	c732                	sw	a2,140(sp)
   1215c:	00151613          	slli	a2,a0,0x1
   12160:	c932                	sw	a2,144(sp)
   12162:	5612                	lw	a2,36(sp)
   12164:	001cc303          	lbu	t1,1(s9)
   12168:	40d786b3          	sub	a3,a5,a3
   1216c:	0606                	slli	a2,a2,0x1
   1216e:	cb32                	sw	a2,148(sp)
   12170:	001a1613          	slli	a2,s4,0x1
   12174:	406787b3          	sub	a5,a5,t1
   12178:	d332                	sw	a2,164(sp)
   1217a:	430e                	lw	t1,192(sp)
   1217c:	00189613          	slli	a2,a7,0x1
   12180:	d532                	sw	a2,168(sp)
   12182:	001e1613          	slli	a2,t3,0x1
   12186:	d732                	sw	a2,172(sp)
   12188:	001f1613          	slli	a2,t5,0x1
   1218c:	0007c283          	lbu	t0,0(a5)
   12190:	d932                	sw	a2,176(sp)
   12192:	41830333          	sub	t1,t1,s8
   12196:	cf76                	sw	t4,156(sp)
   12198:	25800793          	li	a5,600
   1219c:	0006c603          	lbu	a2,0(a3)
   121a0:	1e67cd63          	blt	a5,t1,1239a <susan_edges+0x7e4>
   121a4:	47a6                	lw	a5,72(sp)
   121a6:	00371513          	slli	a0,a4,0x3
   121aa:	953a                	add	a0,a0,a4
   121ac:	4706                	lw	a4,64(sp)
   121ae:	46b6                	lw	a3,76(sp)
   121b0:	078a                	slli	a5,a5,0x2
   121b2:	953e                	add	a0,a0,a5
   121b4:	070a                	slli	a4,a4,0x2
   121b6:	972a                	add	a4,a4,a0
   121b8:	068a                	slli	a3,a3,0x2
   121ba:	96ba                	add	a3,a3,a4
   121bc:	4716                	lw	a4,68(sp)
   121be:	4546                	lw	a0,80(sp)
   121c0:	00329313          	slli	t1,t0,0x3
   121c4:	070a                	slli	a4,a4,0x2
   121c6:	9736                	add	a4,a4,a3
   121c8:	56d2                	lw	a3,52(sp)
   121ca:	050a                	slli	a0,a0,0x2
   121cc:	972a                	add	a4,a4,a0
   121ce:	9736                	add	a4,a4,a3
   121d0:	5682                	lw	a3,32(sp)
   121d2:	c4aa                	sw	a0,72(sp)
   121d4:	5506                	lw	a0,96(sp)
   121d6:	9736                	add	a4,a4,a3
   121d8:	56e2                	lw	a3,56(sp)
   121da:	050a                	slli	a0,a0,0x2
   121dc:	9316                	add	t1,t1,t0
   121de:	9736                	add	a4,a4,a3
   121e0:	46d6                	lw	a3,84(sp)
   121e2:	9736                	add	a4,a4,a3
   121e4:	56a2                	lw	a3,40(sp)
   121e6:	9736                	add	a4,a4,a3
   121e8:	5692                	lw	a3,36(sp)
   121ea:	9736                	add	a4,a4,a3
   121ec:	56f2                	lw	a3,60(sp)
   121ee:	9736                	add	a4,a4,a3
   121f0:	9756                	add	a4,a4,s5
   121f2:	46e6                	lw	a3,88(sp)
   121f4:	9752                	add	a4,a4,s4
   121f6:	977e                	add	a4,a4,t6
   121f8:	9736                	add	a4,a4,a3
   121fa:	46f6                	lw	a3,92(sp)
   121fc:	971e                	add	a4,a4,t2
   121fe:	9746                	add	a4,a4,a7
   12200:	00269e93          	slli	t4,a3,0x2
   12204:	9742                	add	a4,a4,a6
   12206:	9776                	add	a4,a4,t4
   12208:	002e1693          	slli	a3,t3,0x2
   1220c:	96ba                	add	a3,a3,a4
   1220e:	00d50733          	add	a4,a0,a3
   12212:	5516                	lw	a0,100(sp)
   12214:	002f1693          	slli	a3,t5,0x2
   12218:	96ba                	add	a3,a3,a4
   1221a:	050a                	slli	a0,a0,0x2
   1221c:	00361713          	slli	a4,a2,0x3
   12220:	96aa                	add	a3,a3,a0
   12222:	9732                	add	a4,a4,a2
   12224:	9736                	add	a4,a4,a3
   12226:	00359693          	slli	a3,a1,0x3
   1222a:	933a                	add	t1,t1,a4
   1222c:	96ae                	add	a3,a3,a1
   1222e:	969a                	add	a3,a3,t1
   12230:	eacd                	bnez	a3,122e2 <susan_edges+0x72c>
   12232:	4752                	lw	a4,20(sp)
   12234:	4501                	li	a0,0
   12236:	4589                	li	a1,2
   12238:	00170613          	addi	a2,a4,1
   1223c:	4785                	li	a5,1
   1223e:	545a                	lw	s0,180(sp)
   12240:	070a                	slli	a4,a4,0x2
   12242:	9722                	add	a4,a4,s0
   12244:	4318                	lw	a4,0(a4)
   12246:	05875b63          	bge	a4,s8,1229c <susan_edges+0x6e6>
   1224a:	472e                	lw	a4,200(sp)
   1224c:	481e                	lw	a6,196(sp)
   1224e:	40f707b3          	sub	a5,a4,a5
   12252:	030787b3          	mul	a5,a5,a6
   12256:	97a6                	add	a5,a5,s1
   12258:	8f95                	sub	a5,a5,a3
   1225a:	078a                	slli	a5,a5,0x2
   1225c:	97a2                	add	a5,a5,s0
   1225e:	439c                	lw	a5,0(a5)
   12260:	86a2                	mv	a3,s0
   12262:	02fc4d63          	blt	s8,a5,1229c <susan_edges+0x6e6>
   12266:	843a                	mv	s0,a4
   12268:	972e                	add	a4,a4,a1
   1226a:	03070733          	mul	a4,a4,a6
   1226e:	00a487b3          	add	a5,s1,a0
   12272:	97ba                	add	a5,a5,a4
   12274:	078a                	slli	a5,a5,0x2
   12276:	97b6                	add	a5,a5,a3
   12278:	439c                	lw	a5,0(a5)
   1227a:	0387d163          	bge	a5,s8,1229c <susan_edges+0x6e6>
   1227e:	40b407b3          	sub	a5,s0,a1
   12282:	030787b3          	mul	a5,a5,a6
   12286:	97a6                	add	a5,a5,s1
   12288:	8f89                	sub	a5,a5,a0
   1228a:	078a                	slli	a5,a5,0x2
   1228c:	97b6                	add	a5,a5,a3
   1228e:	439c                	lw	a5,0(a5)
   12290:	00fc4663          	blt	s8,a5,1229c <susan_edges+0x6e6>
   12294:	4772                	lw	a4,28(sp)
   12296:	4789                	li	a5,2
   12298:	00f70023          	sb	a5,0(a4)
   1229c:	47f2                	lw	a5,28(sp)
   1229e:	0485                	addi	s1,s1,1
   122a0:	ca32                	sw	a2,20(sp)
   122a2:	0785                	addi	a5,a5,1
   122a4:	ce3e                	sw	a5,28(sp)
   122a6:	47c2                	lw	a5,16(sp)
   122a8:	0905                	addi	s2,s2,1
   122aa:	0d85                	addi	s11,s11,1
   122ac:	0785                	addi	a5,a5,1
   122ae:	c83e                	sw	a5,16(sp)
   122b0:	47e2                	lw	a5,24(sp)
   122b2:	0b85                	addi	s7,s7,1
   122b4:	0d05                	addi	s10,s10,1
   122b6:	0785                	addi	a5,a5,1
   122b8:	cc3e                	sw	a5,24(sp)
   122ba:	47b2                	lw	a5,12(sp)
   122bc:	0b05                	addi	s6,s6,1
   122be:	0c85                	addi	s9,s9,1
   122c0:	0785                	addi	a5,a5,1
   122c2:	c63e                	sw	a5,12(sp)
   122c4:	479a                	lw	a5,132(sp)
   122c6:	32f48863          	beq	s1,a5,125f6 <susan_edges+0xa40>
   122ca:	5726                	lw	a4,104(sp)
   122cc:	00249793          	slli	a5,s1,0x2
   122d0:	97ba                	add	a5,a5,a4
   122d2:	0007ac03          	lw	s8,0(a5)
   122d6:	c7804ae3          	bgtz	s8,11f4a <susan_edges+0x394>
   122da:	47d2                	lw	a5,20(sp)
   122dc:	00178613          	addi	a2,a5,1
   122e0:	bf75                	j	1229c <susan_edges+0x6e6>
   122e2:	5442                	lw	s0,48(sp)
   122e4:	5732                	lw	a4,44(sp)
   122e6:	42a6                	lw	t0,72(sp)
   122e8:	0a0a                	slli	s4,s4,0x2
   122ea:	9722                	add	a4,a4,s0
   122ec:	4406                	lw	s0,64(sp)
   122ee:	973e                	add	a4,a4,a5
   122f0:	088a                	slli	a7,a7,0x2
   122f2:	9722                	add	a4,a4,s0
   122f4:	4416                	lw	s0,68(sp)
   122f6:	d006f753          	fcvt.s.w	fa4,a3
   122fa:	9722                	add	a4,a4,s0
   122fc:	5452                	lw	s0,52(sp)
   122fe:	9716                	add	a4,a4,t0
   12300:	00341313          	slli	t1,s0,0x3
   12304:	9322                	add	t1,t1,s0
   12306:	5402                	lw	s0,32(sp)
   12308:	933a                	add	t1,t1,a4
   1230a:	040a                	slli	s0,s0,0x2
   1230c:	00640733          	add	a4,s0,t1
   12310:	5462                	lw	s0,56(sp)
   12312:	9722                	add	a4,a4,s0
   12314:	5412                	lw	s0,36(sp)
   12316:	00241993          	slli	s3,s0,0x2
   1231a:	5422                	lw	s0,40(sp)
   1231c:	9722                	add	a4,a4,s0
   1231e:	5472                	lw	s0,60(sp)
   12320:	974e                	add	a4,a4,s3
   12322:	00341313          	slli	t1,s0,0x3
   12326:	9322                	add	t1,t1,s0
   12328:	5436                	lw	s0,108(sp)
   1232a:	933a                	add	t1,t1,a4
   1232c:	5746                	lw	a4,112(sp)
   1232e:	00341293          	slli	t0,s0,0x3
   12332:	92a2                	add	t0,t0,s0
   12334:	5456                	lw	s0,116(sp)
   12336:	929a                	add	t0,t0,t1
   12338:	070a                	slli	a4,a4,0x2
   1233a:	9716                	add	a4,a4,t0
   1233c:	9722                	add	a4,a4,s0
   1233e:	5476                	lw	s0,124(sp)
   12340:	00241293          	slli	t0,s0,0x2
   12344:	5466                	lw	s0,120(sp)
   12346:	9722                	add	a4,a4,s0
   12348:	440a                	lw	s0,128(sp)
   1234a:	9716                	add	a4,a4,t0
   1234c:	003a9293          	slli	t0,s5,0x3
   12350:	00341313          	slli	t1,s0,0x3
   12354:	9322                	add	t1,t1,s0
   12356:	933a                	add	t1,t1,a4
   12358:	92d6                	add	t0,t0,s5
   1235a:	929a                	add	t0,t0,t1
   1235c:	9a16                	add	s4,s4,t0
   1235e:	9a7e                	add	s4,s4,t6
   12360:	9a1e                	add	s4,s4,t2
   12362:	00381713          	slli	a4,a6,0x3
   12366:	98d2                	add	a7,a7,s4
   12368:	9742                	add	a4,a4,a6
   1236a:	9746                	add	a4,a4,a7
   1236c:	9776                	add	a4,a4,t4
   1236e:	9772                	add	a4,a4,t3
   12370:	977a                	add	a4,a4,t5
   12372:	972a                	add	a4,a4,a0
   12374:	9732                	add	a4,a4,a2
   12376:	972e                	add	a4,a4,a1
   12378:	d00777d3          	fcvt.s.w	fa5,a4
   1237c:	18e7f7d3          	fdiv.s	fa5,fa5,fa4
   12380:	a0d79753          	flt.s	a4,fa5,fa3
   12384:	1c070f63          	beqz	a4,12562 <susan_edges+0x9ac>
   12388:	47d2                	lw	a5,20(sp)
   1238a:	4742                	lw	a4,16(sp)
   1238c:	4509                	li	a0,2
   1238e:	00178613          	addi	a2,a5,1
   12392:	4581                	li	a1,0
   12394:	4685                	li	a3,1
   12396:	4781                	li	a5,0
   12398:	b55d                	j	1223e <susan_edges+0x688>
   1239a:	5432                	lw	s0,44(sp)
   1239c:	46a6                	lw	a3,72(sp)
   1239e:	5542                	lw	a0,48(sp)
   123a0:	00271793          	slli	a5,a4,0x2
   123a4:	0686                	slli	a3,a3,0x1
   123a6:	8d01                	sub	a0,a0,s0
   123a8:	40f707b3          	sub	a5,a4,a5
   123ac:	8d15                	sub	a0,a0,a3
   123ae:	8f95                	sub	a5,a5,a3
   123b0:	46aa                	lw	a3,136(sp)
   123b2:	41350533          	sub	a0,a0,s3
   123b6:	59d2                	lw	s3,52(sp)
   123b8:	8f95                	sub	a5,a5,a3
   123ba:	46b6                	lw	a3,76(sp)
   123bc:	443a                	lw	s0,140(sp)
   123be:	d20007d3          	fcvt.d.w	fa5,zero
   123c2:	0686                	slli	a3,a3,0x1
   123c4:	8f95                	sub	a5,a5,a3
   123c6:	4696                	lw	a3,68(sp)
   123c8:	8f81                	sub	a5,a5,s0
   123ca:	5472                	lw	s0,60(sp)
   123cc:	9536                	add	a0,a0,a3
   123ce:	46c6                	lw	a3,80(sp)
   123d0:	00169e93          	slli	t4,a3,0x1
   123d4:	00299693          	slli	a3,s3,0x2
   123d8:	9576                	add	a0,a0,t4
   123da:	40d986b3          	sub	a3,s3,a3
   123de:	96aa                	add	a3,a3,a0
   123e0:	454a                	lw	a0,144(sp)
   123e2:	41d787b3          	sub	a5,a5,t4
   123e6:	5ee2                	lw	t4,56(sp)
   123e8:	8e89                	sub	a3,a3,a0
   123ea:	5502                	lw	a0,32(sp)
   123ec:	413787b3          	sub	a5,a5,s3
   123f0:	41d686b3          	sub	a3,a3,t4
   123f4:	8f89                	sub	a5,a5,a0
   123f6:	5522                	lw	a0,40(sp)
   123f8:	41d787b3          	sub	a5,a5,t4
   123fc:	4eda                	lw	t4,148(sp)
   123fe:	96aa                	add	a3,a3,a0
   12400:	00141513          	slli	a0,s0,0x1
   12404:	96f6                	add	a3,a3,t4
   12406:	5eb6                	lw	t4,108(sp)
   12408:	9522                	add	a0,a0,s0
   1240a:	9536                	add	a0,a0,a3
   1240c:	002e9693          	slli	a3,t4,0x2
   12410:	40de86b3          	sub	a3,t4,a3
   12414:	49d6                	lw	s3,84(sp)
   12416:	9536                	add	a0,a0,a3
   12418:	56a2                	lw	a3,40(sp)
   1241a:	413787b3          	sub	a5,a5,s3
   1241e:	00161e93          	slli	t4,a2,0x1
   12422:	8f95                	sub	a5,a5,a3
   12424:	56c6                	lw	a3,112(sp)
   12426:	9eb2                	add	t4,t4,a2
   12428:	0686                	slli	a3,a3,0x1
   1242a:	40d506b3          	sub	a3,a0,a3
   1242e:	5512                	lw	a0,36(sp)
   12430:	8f89                	sub	a5,a5,a0
   12432:	5556                	lw	a0,116(sp)
   12434:	8f81                	sub	a5,a5,s0
   12436:	440a                	lw	s0,128(sp)
   12438:	8e89                	sub	a3,a3,a0
   1243a:	5566                	lw	a0,120(sp)
   1243c:	97d6                	add	a5,a5,s5
   1243e:	97d2                	add	a5,a5,s4
   12440:	96aa                	add	a3,a3,a0
   12442:	5576                	lw	a0,124(sp)
   12444:	97fe                	add	a5,a5,t6
   12446:	0506                	slli	a0,a0,0x1
   12448:	9536                	add	a0,a0,a3
   1244a:	00141693          	slli	a3,s0,0x1
   1244e:	96a2                	add	a3,a3,s0
   12450:	96aa                	add	a3,a3,a0
   12452:	4566                	lw	a0,88(sp)
   12454:	00189413          	slli	s0,a7,0x1
   12458:	97aa                	add	a5,a5,a0
   1245a:	456a                	lw	a0,152(sp)
   1245c:	979e                	add	a5,a5,t2
   1245e:	97c6                	add	a5,a5,a7
   12460:	96aa                	add	a3,a3,a0
   12462:	001a1513          	slli	a0,s4,0x1
   12466:	8e89                	sub	a3,a3,a0
   12468:	41f686b3          	sub	a3,a3,t6
   1246c:	969e                	add	a3,a3,t2
   1246e:	4576                	lw	a0,92(sp)
   12470:	96a2                	add	a3,a3,s0
   12472:	447a                	lw	s0,156(sp)
   12474:	0506                	slli	a0,a0,0x1
   12476:	97c2                	add	a5,a5,a6
   12478:	96a2                	add	a3,a3,s0
   1247a:	97aa                	add	a5,a5,a0
   1247c:	8e89                	sub	a3,a3,a0
   1247e:	001e1513          	slli	a0,t3,0x1
   12482:	97aa                	add	a5,a5,a0
   12484:	5506                	lw	a0,96(sp)
   12486:	41c686b3          	sub	a3,a3,t3
   1248a:	96fa                	add	a3,a3,t5
   1248c:	0506                	slli	a0,a0,0x1
   1248e:	97aa                	add	a5,a5,a0
   12490:	001f1513          	slli	a0,t5,0x1
   12494:	97aa                	add	a5,a5,a0
   12496:	5516                	lw	a0,100(sp)
   12498:	0506                	slli	a0,a0,0x1
   1249a:	97aa                	add	a5,a5,a0
   1249c:	9536                	add	a0,a0,a3
   1249e:	8d11                	sub	a0,a0,a2
   124a0:	9ebe                	add	t4,t4,a5
   124a2:	00b506b3          	add	a3,a0,a1
   124a6:	00129793          	slli	a5,t0,0x1
   124aa:	550a                	lw	a0,160(sp)
   124ac:	9796                	add	a5,a5,t0
   124ae:	97f6                	add	a5,a5,t4
   124b0:	97aa                	add	a5,a5,a0
   124b2:	02f78eb3          	mul	t4,a5,a5
   124b6:	02d68533          	mul	a0,a3,a3
   124ba:	9576                	add	a0,a0,t4
   124bc:	d0057553          	fcvt.s.w	fa0,a0
   124c0:	42050553          	fcvt.d.s	fa0,fa0
   124c4:	00102ef3          	frflags	t4
   124c8:	a2f51553          	flt.d	a0,fa0,fa5
   124cc:	001e9073          	fsflags	t4
   124d0:	1e051363          	bnez	a0,126b6 <susan_edges+0xb00>
   124d4:	5a057553          	fsqrt.d	fa0,fa0
   124d8:	d00377d3          	fcvt.s.w	fa5,t1
   124dc:	420787d3          	fcvt.d.s	fa5,fa5
   124e0:	12c7f7d3          	fmul.d	fa5,fa5,fa2
   124e4:	40157553          	fcvt.s.d	fa0,fa0
   124e8:	42050553          	fcvt.d.s	fa0,fa0
   124ec:	a2a79553          	flt.d	a0,fa5,fa0
   124f0:	ca050ae3          	beqz	a0,121a4 <susan_edges+0x5ee>
   124f4:	12069b63          	bnez	a3,1262a <susan_edges+0xa74>
   124f8:	4652                	lw	a2,20(sp)
   124fa:	4709                	li	a4,2
   124fc:	4785                	li	a5,1
   124fe:	555a                	lw	a0,180(sp)
   12500:	060a                	slli	a2,a2,0x2
   12502:	962a                	add	a2,a2,a0
   12504:	420c                	lw	a1,0(a2)
   12506:	4652                	lw	a2,20(sp)
   12508:	0605                	addi	a2,a2,1
   1250a:	d985d9e3          	bge	a1,s8,1229c <susan_edges+0x6e6>
   1250e:	442e                	lw	s0,200(sp)
   12510:	481e                	lw	a6,196(sp)
   12512:	40f407b3          	sub	a5,s0,a5
   12516:	030787b3          	mul	a5,a5,a6
   1251a:	97a6                	add	a5,a5,s1
   1251c:	8f95                	sub	a5,a5,a3
   1251e:	078a                	slli	a5,a5,0x2
   12520:	97aa                	add	a5,a5,a0
   12522:	439c                	lw	a5,0(a5)
   12524:	d6fc4ce3          	blt	s8,a5,1229c <susan_edges+0x6e6>
   12528:	00e407b3          	add	a5,s0,a4
   1252c:	030787b3          	mul	a5,a5,a6
   12530:	0686                	slli	a3,a3,0x1
   12532:	009685b3          	add	a1,a3,s1
   12536:	97ae                	add	a5,a5,a1
   12538:	078a                	slli	a5,a5,0x2
   1253a:	97aa                	add	a5,a5,a0
   1253c:	439c                	lw	a5,0(a5)
   1253e:	d587dfe3          	bge	a5,s8,1229c <susan_edges+0x6e6>
   12542:	40e407b3          	sub	a5,s0,a4
   12546:	030787b3          	mul	a5,a5,a6
   1254a:	97a6                	add	a5,a5,s1
   1254c:	8f95                	sub	a5,a5,a3
   1254e:	078a                	slli	a5,a5,0x2
   12550:	97aa                	add	a5,a5,a0
   12552:	439c                	lw	a5,0(a5)
   12554:	d4fc44e3          	blt	s8,a5,1229c <susan_edges+0x6e6>
   12558:	4772                	lw	a4,28(sp)
   1255a:	4785                	li	a5,1
   1255c:	00f70023          	sb	a5,0(a4)
   12560:	bb35                	j	1229c <susan_edges+0x6e6>
   12562:	a0f59753          	flt.s	a4,fa1,fa5
   12566:	e76d                	bnez	a4,12650 <susan_edges+0xa9a>
   12568:	56b2                	lw	a3,44(sp)
   1256a:	55c2                	lw	a1,48(sp)
   1256c:	00169713          	slli	a4,a3,0x1
   12570:	9736                	add	a4,a4,a3
   12572:	00259693          	slli	a3,a1,0x2
   12576:	40d586b3          	sub	a3,a1,a3
   1257a:	9736                	add	a4,a4,a3
   1257c:	97ba                	add	a5,a5,a4
   1257e:	472a                	lw	a4,136(sp)
   12580:	56d2                	lw	a3,52(sp)
   12582:	45a6                	lw	a1,72(sp)
   12584:	97ba                	add	a5,a5,a4
   12586:	473a                	lw	a4,140(sp)
   12588:	8f99                	sub	a5,a5,a4
   1258a:	00169713          	slli	a4,a3,0x1
   1258e:	8f8d                	sub	a5,a5,a1
   12590:	9736                	add	a4,a4,a3
   12592:	973e                	add	a4,a4,a5
   12594:	47ca                	lw	a5,144(sp)
   12596:	56f2                	lw	a3,60(sp)
   12598:	45da                	lw	a1,148(sp)
   1259a:	973e                	add	a4,a4,a5
   1259c:	57e2                	lw	a5,56(sp)
   1259e:	973e                	add	a4,a4,a5
   125a0:	57a2                	lw	a5,40(sp)
   125a2:	8f1d                	sub	a4,a4,a5
   125a4:	00269793          	slli	a5,a3,0x2
   125a8:	8f0d                	sub	a4,a4,a1
   125aa:	40f687b3          	sub	a5,a3,a5
   125ae:	97ba                	add	a5,a5,a4
   125b0:	476a                	lw	a4,152(sp)
   125b2:	97ba                	add	a5,a5,a4
   125b4:	571a                	lw	a4,164(sp)
   125b6:	8f99                	sub	a5,a5,a4
   125b8:	572a                	lw	a4,168(sp)
   125ba:	41f787b3          	sub	a5,a5,t6
   125be:	979e                	add	a5,a5,t2
   125c0:	97ba                	add	a5,a5,a4
   125c2:	477a                	lw	a4,156(sp)
   125c4:	97ba                	add	a5,a5,a4
   125c6:	573a                	lw	a4,172(sp)
   125c8:	41d787b3          	sub	a5,a5,t4
   125cc:	8f99                	sub	a5,a5,a4
   125ce:	574a                	lw	a4,176(sp)
   125d0:	97ba                	add	a5,a5,a4
   125d2:	953e                	add	a0,a0,a5
   125d4:	00261713          	slli	a4,a2,0x2
   125d8:	578a                	lw	a5,160(sp)
   125da:	8e19                	sub	a2,a2,a4
   125dc:	962a                	add	a2,a2,a0
   125de:	963e                	add	a2,a2,a5
   125e0:	47d2                	lw	a5,20(sp)
   125e2:	02c05c63          	blez	a2,1261a <susan_edges+0xa64>
   125e6:	00178613          	addi	a2,a5,1
   125ea:	4762                	lw	a4,24(sp)
   125ec:	4509                	li	a0,2
   125ee:	55f9                	li	a1,-2
   125f0:	4685                	li	a3,1
   125f2:	57fd                	li	a5,-1
   125f4:	b1a9                	j	1223e <susan_edges+0x688>
   125f6:	479e                	lw	a5,196(sp)
   125f8:	48ce                	lw	a7,208(sp)
   125fa:	4a5e                	lw	s4,212(sp)
   125fc:	486e                	lw	a6,216(sp)
   125fe:	5c1e                	lw	s8,228(sp)
   12600:	453e                	lw	a0,204(sp)
   12602:	572e                	lw	a4,232(sp)
   12604:	4cfe                	lw	s9,220(sp)
   12606:	5a8e                	lw	s5,224(sp)
   12608:	98be                	add	a7,a7,a5
   1260a:	9a3e                	add	s4,s4,a5
   1260c:	983e                	add	a6,a6,a5
   1260e:	8462                	mv	s0,s8
   12610:	06a70763          	beq	a4,a0,1267e <susan_edges+0xac8>
   12614:	9c3e                	add	s8,s8,a5
   12616:	873e                	mv	a4,a5
   12618:	b8d1                	j	11eec <susan_edges+0x336>
   1261a:	00178613          	addi	a2,a5,1
   1261e:	4509                	li	a0,2
   12620:	4685                	li	a3,1
   12622:	8732                	mv	a4,a2
   12624:	85aa                	mv	a1,a0
   12626:	87b6                	mv	a5,a3
   12628:	b919                	j	1223e <susan_edges+0x688>
   1262a:	d007f7d3          	fcvt.s.w	fa5,a5
   1262e:	d006f553          	fcvt.s.w	fa0,a3
   12632:	f0000753          	fmv.w.x	fa4,zero
   12636:	18a7f7d3          	fdiv.s	fa5,fa5,fa0
   1263a:	a0e797d3          	flt.s	a5,fa5,fa4
   1263e:	e38d                	bnez	a5,12660 <susan_edges+0xaaa>
   12640:	a0d797d3          	flt.s	a5,fa5,fa3
   12644:	cbf9                	beqz	a5,1271a <susan_edges+0xb64>
   12646:	4642                	lw	a2,16(sp)
   12648:	4701                	li	a4,0
   1264a:	4685                	li	a3,1
   1264c:	4781                	li	a5,0
   1264e:	bd45                	j	124fe <susan_edges+0x948>
   12650:	4752                	lw	a4,20(sp)
   12652:	4501                	li	a0,0
   12654:	4589                	li	a1,2
   12656:	00170613          	addi	a2,a4,1
   1265a:	4681                	li	a3,0
   1265c:	4785                	li	a5,1
   1265e:	b6c5                	j	1223e <susan_edges+0x688>
   12660:	fb41a707          	flw	fa4,-76(gp) # 237c4 <__SDATA_BEGIN__+0x114>
   12664:	a0f717d3          	flt.s	a5,fa4,fa5
   12668:	fff9                	bnez	a5,12646 <susan_edges+0xa90>
   1266a:	fb81a707          	flw	fa4,-72(gp) # 237c8 <__SDATA_BEGIN__+0x118>
   1266e:	a0e797d3          	flt.s	a5,fa5,fa4
   12672:	cfd9                	beqz	a5,12710 <susan_edges+0xb5a>
   12674:	4652                	lw	a2,20(sp)
   12676:	4709                	li	a4,2
   12678:	4681                	li	a3,0
   1267a:	4785                	li	a5,1
   1267c:	b549                	j	124fe <susan_edges+0x948>
   1267e:	15012903          	lw	s2,336(sp)
   12682:	14c12983          	lw	s3,332(sp)
   12686:	14812a03          	lw	s4,328(sp)
   1268a:	14412a83          	lw	s5,324(sp)
   1268e:	14012b03          	lw	s6,320(sp)
   12692:	15c12083          	lw	ra,348(sp)
   12696:	15812403          	lw	s0,344(sp)
   1269a:	15412483          	lw	s1,340(sp)
   1269e:	13c12b83          	lw	s7,316(sp)
   126a2:	13812c03          	lw	s8,312(sp)
   126a6:	13412c83          	lw	s9,308(sp)
   126aa:	13012d03          	lw	s10,304(sp)
   126ae:	12c12d83          	lw	s11,300(sp)
   126b2:	6135                	addi	sp,sp,352
   126b4:	8082                	ret
   126b6:	10e12e23          	sw	a4,284(sp)
   126ba:	10b12c23          	sw	a1,280(sp)
   126be:	10512a23          	sw	t0,276(sp)
   126c2:	10c12823          	sw	a2,272(sp)
   126c6:	11e12623          	sw	t5,268(sp)
   126ca:	11c12423          	sw	t3,264(sp)
   126ce:	11012223          	sw	a6,260(sp)
   126d2:	11112023          	sw	a7,256(sp)
   126d6:	df9e                	sw	t2,252(sp)
   126d8:	ddfe                	sw	t6,248(sp)
   126da:	00d010ef          	jal	13ee6 <sqrt>
   126de:	fac1a687          	flw	fa3,-84(gp) # 237bc <__SDATA_BEGIN__+0x10c>
   126e2:	fb01a587          	flw	fa1,-80(gp) # 237c0 <__SDATA_BEGIN__+0x110>
   126e6:	5fee                	lw	t6,248(sp)
   126e8:	53fe                	lw	t2,252(sp)
   126ea:	10012883          	lw	a7,256(sp)
   126ee:	10412803          	lw	a6,260(sp)
   126f2:	10812e03          	lw	t3,264(sp)
   126f6:	10c12f03          	lw	t5,268(sp)
   126fa:	11012603          	lw	a2,272(sp)
   126fe:	11412283          	lw	t0,276(sp)
   12702:	11812583          	lw	a1,280(sp)
   12706:	11c12703          	lw	a4,284(sp)
   1270a:	eb81b607          	fld	fa2,-328(gp) # 236c8 <__SDATA_BEGIN__+0x18>
   1270e:	bc59                	j	121a4 <susan_edges+0x5ee>
   12710:	4662                	lw	a2,24(sp)
   12712:	5779                	li	a4,-2
   12714:	4685                	li	a3,1
   12716:	57fd                	li	a5,-1
   12718:	b3dd                	j	124fe <susan_edges+0x948>
   1271a:	fb01a707          	flw	fa4,-80(gp) # 237c0 <__SDATA_BEGIN__+0x110>
   1271e:	4652                	lw	a2,20(sp)
   12720:	4785                	li	a5,1
   12722:	a0f716d3          	flt.s	a3,fa4,fa5
   12726:	4709                	li	a4,2
   12728:	8ebd                	xor	a3,a3,a5
   1272a:	9636                	add	a2,a2,a3
   1272c:	bbc9                	j	124fe <susan_edges+0x948>

0001272e <susan_edges_small>:
   1272e:	7175                	addi	sp,sp,-144
   12730:	dece                	sw	s3,124(sp)
   12732:	89be                	mv	s3,a5
   12734:	030787b3          	mul	a5,a5,a6
   12738:	dcd2                	sw	s4,120(sp)
   1273a:	dad6                	sw	s5,116(sp)
   1273c:	ceee                	sw	s11,92(sp)
   1273e:	8aae                	mv	s5,a1
   12740:	8a2a                	mv	s4,a0
   12742:	8db2                	mv	s11,a2
   12744:	852e                	mv	a0,a1
   12746:	4581                	li	a1,0
   12748:	c14a                	sw	s2,128(sp)
   1274a:	00279613          	slli	a2,a5,0x2
   1274e:	d4e2                	sw	s8,104(sp)
   12750:	c706                	sw	ra,140(sp)
   12752:	8c42                	mv	s8,a6
   12754:	8936                	mv	s2,a3
   12756:	4e3040ef          	jal	17438 <memset>
   1275a:	4789                	li	a5,2
   1275c:	3987d563          	bge	a5,s8,12ae6 <susan_edges_small+0x3b8>
   12760:	3937d363          	bge	a5,s3,12ae6 <susan_edges_small+0x3b8>
   12764:	ffea0e13          	addi	t3,s4,-2
   12768:	00299293          	slli	t0,s3,0x2
   1276c:	004a8813          	addi	a6,s5,4
   12770:	d8da                	sw	s6,112(sp)
   12772:	c522                	sw	s0,136(sp)
   12774:	c326                	sw	s1,132(sp)
   12776:	d6de                	sw	s7,108(sp)
   12778:	d2e6                	sw	s9,100(sp)
   1277a:	9e4e                	add	t3,t3,s3
   1277c:	9816                	add	a6,a6,t0
   1277e:	fffc0b13          	addi	s6,s8,-1
   12782:	8f4e                	mv	t5,s3
   12784:	4e81                	li	t4,0
   12786:	4f85                	li	t6,1
   12788:	00f983b3          	add	t2,s3,a5
   1278c:	2da00313          	li	t1,730
   12790:	01da0733          	add	a4,s4,t4
   12794:	002e0613          	addi	a2,t3,2
   12798:	01c386b3          	add	a3,t2,t3
   1279c:	88c2                	mv	a7,a6
   1279e:	41d707b3          	sub	a5,a4,t4
   127a2:	97fa                	add	a5,a5,t5
   127a4:	0017c783          	lbu	a5,1(a5)
   127a8:	00074583          	lbu	a1,0(a4)
   127ac:	00174503          	lbu	a0,1(a4)
   127b0:	97ca                	add	a5,a5,s2
   127b2:	00274c83          	lbu	s9,2(a4)
   127b6:	40b785b3          	sub	a1,a5,a1
   127ba:	40a78533          	sub	a0,a5,a0
   127be:	0005c583          	lbu	a1,0(a1)
   127c2:	00054b83          	lbu	s7,0(a0)
   127c6:	41978cb3          	sub	s9,a5,s9
   127ca:	00064483          	lbu	s1,0(a2)
   127ce:	00264403          	lbu	s0,2(a2)
   127d2:	000ccc83          	lbu	s9,0(s9)
   127d6:	06458593          	addi	a1,a1,100
   127da:	0006c503          	lbu	a0,0(a3)
   127de:	9bae                	add	s7,s7,a1
   127e0:	409784b3          	sub	s1,a5,s1
   127e4:	0016c583          	lbu	a1,1(a3)
   127e8:	40878433          	sub	s0,a5,s0
   127ec:	9cde                	add	s9,s9,s7
   127ee:	0004c483          	lbu	s1,0(s1)
   127f2:	0026cb83          	lbu	s7,2(a3)
   127f6:	40a78533          	sub	a0,a5,a0
   127fa:	00044403          	lbu	s0,0(s0)
   127fe:	40b785b3          	sub	a1,a5,a1
   12802:	00054503          	lbu	a0,0(a0)
   12806:	0005c583          	lbu	a1,0(a1)
   1280a:	94e6                	add	s1,s1,s9
   1280c:	417787b3          	sub	a5,a5,s7
   12810:	0007c783          	lbu	a5,0(a5)
   12814:	9426                	add	s0,s0,s1
   12816:	9522                	add	a0,a0,s0
   12818:	95aa                	add	a1,a1,a0
   1281a:	97ae                	add	a5,a5,a1
   1281c:	0705                	addi	a4,a4,1
   1281e:	40f305b3          	sub	a1,t1,a5
   12822:	00f34463          	blt	t1,a5,1282a <susan_edges_small+0xfc>
   12826:	00b8a023          	sw	a1,0(a7)
   1282a:	0605                	addi	a2,a2,1
   1282c:	0685                	addi	a3,a3,1
   1282e:	0891                	addi	a7,a7,4
   12830:	f6ee17e3          	bne	t3,a4,1279e <susan_edges_small+0x70>
   12834:	0f85                	addi	t6,t6,1
   12836:	9e4e                	add	t3,t3,s3
   12838:	9816                	add	a6,a6,t0
   1283a:	9ece                	add	t4,t4,s3
   1283c:	9f4e                	add	t5,t5,s3
   1283e:	f56f99e3          	bne	t6,s6,12790 <susan_edges_small+0x62>
   12842:	4791                	li	a5,4
   12844:	2b87da63          	bge	a5,s8,12af8 <susan_edges_small+0x3ca>
   12848:	2b37d863          	bge	a5,s3,12af8 <susan_edges_small+0x3ca>
   1284c:	fac1a687          	flw	fa3,-84(gp) # 237bc <__SDATA_BEGIN__+0x10c>
   12850:	fb01a587          	flw	fa1,-80(gp) # 237c0 <__SDATA_BEGIN__+0x110>
   12854:	ec01b607          	fld	fa2,-320(gp) # 236d0 <__SDATA_BEGIN__+0x20>
   12858:	00199293          	slli	t0,s3,0x1
   1285c:	1c79                	addi	s8,s8,-2
   1285e:	0d89                	addi	s11,s11,2
   12860:	d0ea                	sw	s10,96(sp)
   12862:	005a0cb3          	add	s9,s4,t0
   12866:	001a0313          	addi	t1,s4,1
   1286a:	ffe98d13          	addi	s10,s3,-2
   1286e:	4589                	li	a1,2
   12870:	d062                	sw	s8,32(sp)
   12872:	8616                	mv	a2,t0
   12874:	013288b3          	add	a7,t0,s3
   12878:	884e                	mv	a6,s3
   1287a:	d26e                	sw	s11,36(sp)
   1287c:	01328433          	add	s0,t0,s3
   12880:	c24a                	sw	s2,4(sp)
   12882:	5792                	lw	a5,36(sp)
   12884:	00261c13          	slli	s8,a2,0x2
   12888:	c42e                	sw	a1,8(sp)
   1288a:	013786b3          	add	a3,a5,s3
   1288e:	0585                	addi	a1,a1,1
   12890:	9c56                	add	s8,s8,s5
   12892:	060d                	addi	a2,a2,3
   12894:	96c2                	add	a3,a3,a6
   12896:	00288493          	addi	s1,a7,2
   1289a:	00380513          	addi	a0,a6,3
   1289e:	01030b33          	add	s6,t1,a6
   128a2:	01130a33          	add	s4,t1,a7
   128a6:	8de6                	mv	s11,s9
   128a8:	4909                	li	s2,2
   128aa:	1df00293          	li	t0,479
   128ae:	c62e                	sw	a1,12(sp)
   128b0:	c846                	sw	a7,16(sp)
   128b2:	ca42                	sw	a6,20(sp)
   128b4:	cc1a                	sw	t1,24(sp)
   128b6:	ce22                	sw	s0,28(sp)
   128b8:	a0c9                	j	1297a <susan_edges_small+0x24c>
   128ba:	012c87b3          	add	a5,s9,s2
   128be:	4412                	lw	s0,4(sp)
   128c0:	0007c783          	lbu	a5,0(a5)
   128c4:	000b4f03          	lbu	t5,0(s6)
   128c8:	001b4e83          	lbu	t4,1(s6)
   128cc:	002b4303          	lbu	t1,2(s6)
   128d0:	001dce03          	lbu	t3,1(s11)
   128d4:	003dc883          	lbu	a7,3(s11)
   128d8:	000a4803          	lbu	a6,0(s4)
   128dc:	001a4583          	lbu	a1,1(s4)
   128e0:	002a4703          	lbu	a4,2(s4)
   128e4:	97a2                	add	a5,a5,s0
   128e6:	41d78eb3          	sub	t4,a5,t4
   128ea:	41c78e33          	sub	t3,a5,t3
   128ee:	411788b3          	sub	a7,a5,a7
   128f2:	41078833          	sub	a6,a5,a6
   128f6:	41e78f33          	sub	t5,a5,t5
   128fa:	40678333          	sub	t1,a5,t1
   128fe:	40b785b3          	sub	a1,a5,a1
   12902:	40e78733          	sub	a4,a5,a4
   12906:	000ec403          	lbu	s0,0(t4)
   1290a:	000f4783          	lbu	a5,0(t5)
   1290e:	0008ce83          	lbu	t4,0(a7)
   12912:	000e4f03          	lbu	t5,0(t3)
   12916:	00084883          	lbu	a7,0(a6)
   1291a:	00034303          	lbu	t1,0(t1)
   1291e:	0005ce03          	lbu	t3,0(a1)
   12922:	00074803          	lbu	a6,0(a4)
   12926:	0972d463          	bge	t0,s7,129ae <susan_edges_small+0x280>
   1292a:	00878733          	add	a4,a5,s0
   1292e:	971a                	add	a4,a4,t1
   12930:	9746                	add	a4,a4,a7
   12932:	9772                	add	a4,a4,t3
   12934:	9742                	add	a4,a4,a6
   12936:	eb21                	bnez	a4,12986 <susan_edges_small+0x258>
   12938:	85a6                	mv	a1,s1
   1293a:	4785                	li	a5,1
   1293c:	0485                	addi	s1,s1,1
   1293e:	058a                	slli	a1,a1,0x2
   12940:	95d6                	add	a1,a1,s5
   12942:	418c                	lw	a1,0(a1)
   12944:	0375d163          	bge	a1,s7,12966 <susan_edges_small+0x238>
   12948:	45a2                	lw	a1,8(sp)
   1294a:	40f587b3          	sub	a5,a1,a5
   1294e:	033787b3          	mul	a5,a5,s3
   12952:	97ca                	add	a5,a5,s2
   12954:	8f99                	sub	a5,a5,a4
   12956:	078a                	slli	a5,a5,0x2
   12958:	97d6                	add	a5,a5,s5
   1295a:	439c                	lw	a5,0(a5)
   1295c:	00fbc563          	blt	s7,a5,12966 <susan_edges_small+0x238>
   12960:	4789                	li	a5,2
   12962:	00f68023          	sb	a5,0(a3)
   12966:	0905                	addi	s2,s2,1
   12968:	0c11                	addi	s8,s8,4
   1296a:	0685                	addi	a3,a3,1
   1296c:	0605                	addi	a2,a2,1
   1296e:	0505                	addi	a0,a0,1
   12970:	0b05                	addi	s6,s6,1
   12972:	0d85                	addi	s11,s11,1
   12974:	0a05                	addi	s4,s4,1
   12976:	0fa90b63          	beq	s2,s10,12a6c <susan_edges_small+0x33e>
   1297a:	008c2b83          	lw	s7,8(s8)
   1297e:	f3704ee3          	bgtz	s7,128ba <susan_edges_small+0x18c>
   12982:	0485                	addi	s1,s1,1
   12984:	b7cd                	j	12966 <susan_edges_small+0x238>
   12986:	006785b3          	add	a1,a5,t1
   1298a:	95fa                	add	a1,a1,t5
   1298c:	95f6                	add	a1,a1,t4
   1298e:	95c6                	add	a1,a1,a7
   12990:	95c2                	add	a1,a1,a6
   12992:	d0077753          	fcvt.s.w	fa4,a4
   12996:	d005f7d3          	fcvt.s.w	fa5,a1
   1299a:	18e7f7d3          	fdiv.s	fa5,fa5,fa4
   1299e:	a0d79753          	flt.s	a4,fa5,fa3
   129a2:	c755                	beqz	a4,12a4e <susan_edges_small+0x320>
   129a4:	0485                	addi	s1,s1,1
   129a6:	85b2                	mv	a1,a2
   129a8:	4705                	li	a4,1
   129aa:	4781                	li	a5,0
   129ac:	bf49                	j	1293e <susan_edges_small+0x210>
   129ae:	40f005b3          	neg	a1,a5
   129b2:	8d81                	sub	a1,a1,s0
   129b4:	40f30733          	sub	a4,t1,a5
   129b8:	406585b3          	sub	a1,a1,t1
   129bc:	41e70733          	sub	a4,a4,t5
   129c0:	95c6                	add	a1,a1,a7
   129c2:	9776                	add	a4,a4,t4
   129c4:	95f2                	add	a1,a1,t3
   129c6:	41170733          	sub	a4,a4,a7
   129ca:	95c2                	add	a1,a1,a6
   129cc:	9742                	add	a4,a4,a6
   129ce:	02b583b3          	mul	t2,a1,a1
   129d2:	d20007d3          	fcvt.d.w	fa5,zero
   129d6:	02e70fb3          	mul	t6,a4,a4
   129da:	9f9e                	add	t6,t6,t2
   129dc:	d00ff553          	fcvt.s.w	fa0,t6
   129e0:	42050553          	fcvt.d.s	fa0,fa0
   129e4:	001023f3          	frflags	t2
   129e8:	a2f51fd3          	flt.d	t6,fa0,fa5
   129ec:	00139073          	fsflags	t2
   129f0:	100f9a63          	bnez	t6,12b04 <susan_edges_small+0x3d6>
   129f4:	5a057553          	fsqrt.d	fa0,fa0
   129f8:	2da00f93          	li	t6,730
   129fc:	417f8fb3          	sub	t6,t6,s7
   12a00:	d00ff7d3          	fcvt.s.w	fa5,t6
   12a04:	420787d3          	fcvt.d.s	fa5,fa5
   12a08:	12c7f7d3          	fmul.d	fa5,fa5,fa2
   12a0c:	40157553          	fcvt.s.d	fa0,fa0
   12a10:	42050553          	fcvt.d.s	fa0,fa0
   12a14:	a2a79fd3          	flt.d	t6,fa5,fa0
   12a18:	f00f89e3          	beqz	t6,1292a <susan_edges_small+0x1fc>
   12a1c:	eb35                	bnez	a4,12a90 <susan_edges_small+0x362>
   12a1e:	85a6                	mv	a1,s1
   12a20:	4785                	li	a5,1
   12a22:	058a                	slli	a1,a1,0x2
   12a24:	95d6                	add	a1,a1,s5
   12a26:	418c                	lw	a1,0(a1)
   12a28:	0485                	addi	s1,s1,1
   12a2a:	f375dee3          	bge	a1,s7,12966 <susan_edges_small+0x238>
   12a2e:	45a2                	lw	a1,8(sp)
   12a30:	40f587b3          	sub	a5,a1,a5
   12a34:	033787b3          	mul	a5,a5,s3
   12a38:	97ca                	add	a5,a5,s2
   12a3a:	8f99                	sub	a5,a5,a4
   12a3c:	078a                	slli	a5,a5,0x2
   12a3e:	97d6                	add	a5,a5,s5
   12a40:	439c                	lw	a5,0(a5)
   12a42:	f2fbc2e3          	blt	s7,a5,12966 <susan_edges_small+0x238>
   12a46:	4785                	li	a5,1
   12a48:	00f68023          	sb	a5,0(a3)
   12a4c:	bf29                	j	12966 <susan_edges_small+0x238>
   12a4e:	a0f59753          	flt.s	a4,fa1,fa5
   12a52:	e32d                	bnez	a4,12ab4 <susan_edges_small+0x386>
   12a54:	406787b3          	sub	a5,a5,t1
   12a58:	411787b3          	sub	a5,a5,a7
   12a5c:	97c2                	add	a5,a5,a6
   12a5e:	0485                	addi	s1,s1,1
   12a60:	02f05463          	blez	a5,12a88 <susan_edges_small+0x35a>
   12a64:	85aa                	mv	a1,a0
   12a66:	4705                	li	a4,1
   12a68:	57fd                	li	a5,-1
   12a6a:	bdd1                	j	1293e <susan_edges_small+0x210>
   12a6c:	48c2                	lw	a7,16(sp)
   12a6e:	4852                	lw	a6,20(sp)
   12a70:	4472                	lw	s0,28(sp)
   12a72:	45b2                	lw	a1,12(sp)
   12a74:	5782                	lw	a5,32(sp)
   12a76:	4362                	lw	t1,24(sp)
   12a78:	984e                	add	a6,a6,s3
   12a7a:	98ce                	add	a7,a7,s3
   12a7c:	9cce                	add	s9,s9,s3
   12a7e:	8622                	mv	a2,s0
   12a80:	04b78d63          	beq	a5,a1,12ada <susan_edges_small+0x3ac>
   12a84:	944e                	add	s0,s0,s3
   12a86:	bbf5                	j	12882 <susan_edges_small+0x154>
   12a88:	4705                	li	a4,1
   12a8a:	85a6                	mv	a1,s1
   12a8c:	87ba                	mv	a5,a4
   12a8e:	bd45                	j	1293e <susan_edges_small+0x210>
   12a90:	d005f7d3          	fcvt.s.w	fa5,a1
   12a94:	d0077553          	fcvt.s.w	fa0,a4
   12a98:	f0000753          	fmv.w.x	fa4,zero
   12a9c:	18a7f7d3          	fdiv.s	fa5,fa5,fa0
   12aa0:	a0e797d3          	flt.s	a5,fa5,fa4
   12aa4:	ef89                	bnez	a5,12abe <susan_edges_small+0x390>
   12aa6:	a0d797d3          	flt.s	a5,fa5,fa3
   12aaa:	c3c5                	beqz	a5,12b4a <susan_edges_small+0x41c>
   12aac:	85b2                	mv	a1,a2
   12aae:	4705                	li	a4,1
   12ab0:	4781                	li	a5,0
   12ab2:	bf85                	j	12a22 <susan_edges_small+0x2f4>
   12ab4:	85a6                	mv	a1,s1
   12ab6:	4701                	li	a4,0
   12ab8:	0485                	addi	s1,s1,1
   12aba:	4785                	li	a5,1
   12abc:	b549                	j	1293e <susan_edges_small+0x210>
   12abe:	fb41a707          	flw	fa4,-76(gp) # 237c4 <__SDATA_BEGIN__+0x114>
   12ac2:	a0f717d3          	flt.s	a5,fa4,fa5
   12ac6:	f3fd                	bnez	a5,12aac <susan_edges_small+0x37e>
   12ac8:	fb81a707          	flw	fa4,-72(gp) # 237c8 <__SDATA_BEGIN__+0x118>
   12acc:	a0e797d3          	flt.s	a5,fa5,fa4
   12ad0:	cbad                	beqz	a5,12b42 <susan_edges_small+0x414>
   12ad2:	85a6                	mv	a1,s1
   12ad4:	4701                	li	a4,0
   12ad6:	4785                	li	a5,1
   12ad8:	b7a9                	j	12a22 <susan_edges_small+0x2f4>
   12ada:	442a                	lw	s0,136(sp)
   12adc:	449a                	lw	s1,132(sp)
   12ade:	5b46                	lw	s6,112(sp)
   12ae0:	5bb6                	lw	s7,108(sp)
   12ae2:	5c96                	lw	s9,100(sp)
   12ae4:	5d06                	lw	s10,96(sp)
   12ae6:	40ba                	lw	ra,140(sp)
   12ae8:	490a                	lw	s2,128(sp)
   12aea:	59f6                	lw	s3,124(sp)
   12aec:	5a66                	lw	s4,120(sp)
   12aee:	5ad6                	lw	s5,116(sp)
   12af0:	5c26                	lw	s8,104(sp)
   12af2:	4df6                	lw	s11,92(sp)
   12af4:	6149                	addi	sp,sp,144
   12af6:	8082                	ret
   12af8:	442a                	lw	s0,136(sp)
   12afa:	449a                	lw	s1,132(sp)
   12afc:	5b46                	lw	s6,112(sp)
   12afe:	5bb6                	lw	s7,108(sp)
   12b00:	5c96                	lw	s9,100(sp)
   12b02:	b7d5                	j	12ae6 <susan_edges_small+0x3b8>
   12b04:	c6aa                	sw	a0,76(sp)
   12b06:	c4b2                	sw	a2,72(sp)
   12b08:	c2b6                	sw	a3,68(sp)
   12b0a:	c0c2                	sw	a6,64(sp)
   12b0c:	de72                	sw	t3,60(sp)
   12b0e:	dc46                	sw	a7,56(sp)
   12b10:	da76                	sw	t4,52(sp)
   12b12:	d87a                	sw	t5,48(sp)
   12b14:	d61a                	sw	t1,44(sp)
   12b16:	d43e                	sw	a5,40(sp)
   12b18:	3ce010ef          	jal	13ee6 <sqrt>
   12b1c:	fac1a687          	flw	fa3,-84(gp) # 237bc <__SDATA_BEGIN__+0x10c>
   12b20:	fb01a587          	flw	fa1,-80(gp) # 237c0 <__SDATA_BEGIN__+0x110>
   12b24:	57a2                	lw	a5,40(sp)
   12b26:	5332                	lw	t1,44(sp)
   12b28:	5f42                	lw	t5,48(sp)
   12b2a:	5ed2                	lw	t4,52(sp)
   12b2c:	58e2                	lw	a7,56(sp)
   12b2e:	5e72                	lw	t3,60(sp)
   12b30:	4806                	lw	a6,64(sp)
   12b32:	ec01b607          	fld	fa2,-320(gp) # 236d0 <__SDATA_BEGIN__+0x20>
   12b36:	4696                	lw	a3,68(sp)
   12b38:	4626                	lw	a2,72(sp)
   12b3a:	4536                	lw	a0,76(sp)
   12b3c:	1df00293          	li	t0,479
   12b40:	b3ed                	j	1292a <susan_edges_small+0x1fc>
   12b42:	85aa                	mv	a1,a0
   12b44:	4705                	li	a4,1
   12b46:	57fd                	li	a5,-1
   12b48:	bde9                	j	12a22 <susan_edges_small+0x2f4>
   12b4a:	fb01a707          	flw	fa4,-80(gp) # 237c0 <__SDATA_BEGIN__+0x110>
   12b4e:	4785                	li	a5,1
   12b50:	a0f71753          	flt.s	a4,fa4,fa5
   12b54:	8f3d                	xor	a4,a4,a5
   12b56:	00e485b3          	add	a1,s1,a4
   12b5a:	b5e1                	j	12a22 <susan_edges_small+0x2f4>

00012b5c <corner_draw>:
   12b5c:	459c                	lw	a5,8(a1)
   12b5e:	481d                	li	a6,7
   12b60:	03078163          	beq	a5,a6,12b82 <corner_draw+0x26>
   12b64:	c28d                	beqz	a3,12b86 <corner_draw+0x2a>
   12b66:	4785                	li	a5,1
   12b68:	872e                	mv	a4,a1
   12b6a:	06f61063          	bne	a2,a5,12bca <corner_draw+0x6e>
   12b6e:	435c                	lw	a5,4(a4)
   12b70:	4314                	lw	a3,0(a4)
   12b72:	0761                	addi	a4,a4,24
   12b74:	97aa                	add	a5,a5,a0
   12b76:	97b6                	add	a5,a5,a3
   12b78:	00078023          	sb	zero,0(a5)
   12b7c:	471c                	lw	a5,8(a4)
   12b7e:	ff0798e3          	bne	a5,a6,12b6e <corner_draw+0x12>
   12b82:	4501                	li	a0,0
   12b84:	8082                	ret
   12b86:	577d                	li	a4,-1
   12b88:	41dc                	lw	a5,4(a1)
   12b8a:	4194                	lw	a3,0(a1)
   12b8c:	05e1                	addi	a1,a1,24
   12b8e:	17fd                	addi	a5,a5,-1
   12b90:	02c787b3          	mul	a5,a5,a2
   12b94:	97b6                	add	a5,a5,a3
   12b96:	97aa                	add	a5,a5,a0
   12b98:	fee78fa3          	sb	a4,-1(a5)
   12b9c:	00e78023          	sb	a4,0(a5)
   12ba0:	00e780a3          	sb	a4,1(a5)
   12ba4:	97b2                	add	a5,a5,a2
   12ba6:	fee78fa3          	sb	a4,-1(a5)
   12baa:	00078023          	sb	zero,0(a5)
   12bae:	00e780a3          	sb	a4,1(a5)
   12bb2:	97b2                	add	a5,a5,a2
   12bb4:	fee78fa3          	sb	a4,-1(a5)
   12bb8:	00e78023          	sb	a4,0(a5)
   12bbc:	00e780a3          	sb	a4,1(a5)
   12bc0:	459c                	lw	a5,8(a1)
   12bc2:	fd0793e3          	bne	a5,a6,12b88 <corner_draw+0x2c>
   12bc6:	4501                	li	a0,0
   12bc8:	8082                	ret
   12bca:	41dc                	lw	a5,4(a1)
   12bcc:	4198                	lw	a4,0(a1)
   12bce:	05e1                	addi	a1,a1,24
   12bd0:	02f607b3          	mul	a5,a2,a5
   12bd4:	97aa                	add	a5,a5,a0
   12bd6:	97ba                	add	a5,a5,a4
   12bd8:	00078023          	sb	zero,0(a5)
   12bdc:	459c                	lw	a5,8(a1)
   12bde:	ff0796e3          	bne	a5,a6,12bca <corner_draw+0x6e>
   12be2:	b745                	j	12b82 <corner_draw+0x26>

00012be4 <susan_corners>:
   12be4:	7111                	addi	sp,sp,-256
   12be6:	dda2                	sw	s0,248(sp)
   12be8:	03078433          	mul	s0,a5,a6
   12bec:	d4aa                	sw	a0,104(sp)
   12bee:	d032                	sw	a2,32(sp)
   12bf0:	852e                	mv	a0,a1
   12bf2:	c22e                	sw	a1,4(sp)
   12bf4:	4581                	li	a1,0
   12bf6:	df86                	sw	ra,252(sp)
   12bf8:	c8be                	sw	a5,80(sp)
   12bfa:	c036                	sw	a3,0(sp)
   12bfc:	dba6                	sw	s1,244(sp)
   12bfe:	040a                	slli	s0,s0,0x2
   12c00:	8622                	mv	a2,s0
   12c02:	84be                	mv	s1,a5
   12c04:	d7ce                	sw	s3,236(sp)
   12c06:	d3d6                	sw	s5,228(sp)
   12c08:	ffb80993          	addi	s3,a6,-5
   12c0c:	d1da                	sw	s6,224(sp)
   12c0e:	c7ee                	sw	s11,204(sp)
   12c10:	8dba                	mv	s11,a4
   12c12:	027040ef          	jal	17438 <memset>
   12c16:	8522                	mv	a0,s0
   12c18:	704010ef          	jal	1431c <malloc>
   12c1c:	8aaa                	mv	s5,a0
   12c1e:	8522                	mv	a0,s0
   12c20:	6fc010ef          	jal	1431c <malloc>
   12c24:	4615                	li	a2,5
   12c26:	8b2a                	mv	s6,a0
   12c28:	0b365ae3          	bge	a2,s3,134dc <susan_corners+0x8f8>
   12c2c:	d9ca                	sw	s2,240(sp)
   12c2e:	d5d2                	sw	s4,232(sp)
   12c30:	cfde                	sw	s7,220(sp)
   12c32:	cde2                	sw	s8,216(sp)
   12c34:	cbe6                	sw	s9,212(sp)
   12c36:	c9ea                	sw	s10,208(sp)
   12c38:	47a9                	li	a5,10
   12c3a:	4812                	lw	a6,4(sp)
   12c3c:	0c97dae3          	bge	a5,s1,13510 <susan_corners+0x92c>
   12c40:	48c6                	lw	a7,80(sp)
   12c42:	5426                	lw	s0,104(sp)
   12c44:	5579                	li	a0,-2
   12c46:	00289a13          	slli	s4,a7,0x2
   12c4a:	011a05b3          	add	a1,s4,a7
   12c4e:	411007b3          	neg	a5,a7
   12c52:	00259693          	slli	a3,a1,0x2
   12c56:	0786                	slli	a5,a5,0x1
   12c58:	00240713          	addi	a4,s0,2
   12c5c:	d832                	sw	a2,48(sp)
   12c5e:	00278393          	addi	t2,a5,2
   12c62:	00b40633          	add	a2,s0,a1
   12c66:	002a0b93          	addi	s7,s4,2
   12c6a:	00d80433          	add	s0,a6,a3
   12c6e:	41150c33          	sub	s8,a0,a7
   12c72:	ffb88d13          	addi	s10,a7,-5
   12c76:	daee                	sw	s11,116(sp)
   12c78:	ce32                	sw	a2,28(sp)
   12c7a:	00da84b3          	add	s1,s5,a3
   12c7e:	00db0933          	add	s2,s6,a3
   12c82:	ccce                	sw	s3,88(sp)
   12c84:	82a2                	mv	t0,s0
   12c86:	01470db3          	add	s11,a4,s4
   12c8a:	85be                	mv	a1,a5
   12c8c:	cee2                	sw	s8,92(sp)
   12c8e:	d09e                	sw	t2,96(sp)
   12c90:	d2de                	sw	s7,100(sp)
   12c92:	d26a                	sw	s10,36(sp)
   12c94:	dcc2                	sw	a6,120(sp)
   12c96:	ded6                	sw	s5,124(sp)
   12c98:	c15a                	sw	s6,128(sp)
   12c9a:	5786                	lw	a5,96(sp)
   12c9c:	4c72                	lw	s8,28(sp)
   12c9e:	40bd8633          	sub	a2,s11,a1
   12ca2:	01b78f33          	add	t5,a5,s11
   12ca6:	47f6                	lw	a5,92(sp)
   12ca8:	40bc0833          	sub	a6,s8,a1
   12cac:	dc26                	sw	s1,56(sp)
   12cae:	01b78bb3          	add	s7,a5,s11
   12cb2:	5796                	lw	a5,100(sp)
   12cb4:	c426                	sw	s1,8(sp)
   12cb6:	c6d2                	sw	s4,76(sp)
   12cb8:	c216                	sw	t0,4(sp)
   12cba:	4b15                	li	s6,5
   12cbc:	da4a                	sw	s2,52(sp)
   12cbe:	de16                	sw	t0,60(sp)
   12cc0:	84b2                	mv	s1,a2
   12cc2:	89ca                	mv	s3,s2
   12cc4:	8ac2                	mv	s5,a6
   12cc6:	c0b2                	sw	a2,64(sp)
   12cc8:	c2c2                	sw	a6,68(sp)
   12cca:	c4ae                	sw	a1,72(sp)
   12ccc:	01b78a33          	add	s4,a5,s11
   12cd0:	47f2                	lw	a5,28(sp)
   12cd2:	000f4683          	lbu	a3,0(t5)
   12cd6:	001f4583          	lbu	a1,1(t5)
   12cda:	97da                	add	a5,a5,s6
   12cdc:	0007c703          	lbu	a4,0(a5)
   12ce0:	5782                	lw	a5,32(sp)
   12ce2:	003bc603          	lbu	a2,3(s7)
   12ce6:	005bc803          	lbu	a6,5(s7)
   12cea:	973e                	add	a4,a4,a5
   12cec:	002f4783          	lbu	a5,2(t5)
   12cf0:	40d706b3          	sub	a3,a4,a3
   12cf4:	0006c283          	lbu	t0,0(a3)
   12cf8:	40b705b3          	sub	a1,a4,a1
   12cfc:	004bc683          	lbu	a3,4(s7)
   12d00:	0005c583          	lbu	a1,0(a1)
   12d04:	40f707b3          	sub	a5,a4,a5
   12d08:	0007c383          	lbu	t2,0(a5)
   12d0c:	006bc503          	lbu	a0,6(s7)
   12d10:	40c70633          	sub	a2,a4,a2
   12d14:	00064403          	lbu	s0,0(a2)
   12d18:	40d706b3          	sub	a3,a4,a3
   12d1c:	007bc603          	lbu	a2,7(s7)
   12d20:	06428793          	addi	a5,t0,100
   12d24:	0006cf83          	lbu	t6,0(a3)
   12d28:	97ae                	add	a5,a5,a1
   12d2a:	000dc683          	lbu	a3,0(s11)
   12d2e:	41070833          	sub	a6,a4,a6
   12d32:	00084803          	lbu	a6,0(a6)
   12d36:	001dce03          	lbu	t3,1(s11)
   12d3a:	40a70533          	sub	a0,a4,a0
   12d3e:	979e                	add	a5,a5,t2
   12d40:	00054903          	lbu	s2,0(a0)
   12d44:	002dc303          	lbu	t1,2(s11)
   12d48:	97a2                	add	a5,a5,s0
   12d4a:	40c70633          	sub	a2,a4,a2
   12d4e:	00064c83          	lbu	s9,0(a2)
   12d52:	40d706b3          	sub	a3,a4,a3
   12d56:	8ea2                	mv	t4,s0
   12d58:	97fe                	add	a5,a5,t6
   12d5a:	003dc403          	lbu	s0,3(s11)
   12d5e:	0006c603          	lbu	a2,0(a3)
   12d62:	004dc883          	lbu	a7,4(s11)
   12d66:	97c2                	add	a5,a5,a6
   12d68:	41c70e33          	sub	t3,a4,t3
   12d6c:	000e4e03          	lbu	t3,0(t3)
   12d70:	c842                	sw	a6,16(sp)
   12d72:	97ca                	add	a5,a5,s2
   12d74:	005dc803          	lbu	a6,5(s11)
   12d78:	40670333          	sub	t1,a4,t1
   12d7c:	006dc503          	lbu	a0,6(s11)
   12d80:	002c4683          	lbu	a3,2(s8)
   12d84:	c64a                	sw	s2,12(sp)
   12d86:	40870433          	sub	s0,a4,s0
   12d8a:	ca66                	sw	s9,20(sp)
   12d8c:	97e6                	add	a5,a5,s9
   12d8e:	00034303          	lbu	t1,0(t1)
   12d92:	97b2                	add	a5,a5,a2
   12d94:	00044d03          	lbu	s10,0(s0)
   12d98:	411708b3          	sub	a7,a4,a7
   12d9c:	0008c883          	lbu	a7,0(a7)
   12da0:	003c4903          	lbu	s2,3(s8)
   12da4:	41070833          	sub	a6,a4,a6
   12da8:	97f2                	add	a5,a5,t3
   12daa:	00084803          	lbu	a6,0(a6)
   12dae:	004c4403          	lbu	s0,4(s8)
   12db2:	40a70533          	sub	a0,a4,a0
   12db6:	979a                	add	a5,a5,t1
   12db8:	97ea                	add	a5,a5,s10
   12dba:	00054503          	lbu	a0,0(a0)
   12dbe:	40d706b3          	sub	a3,a4,a3
   12dc2:	0006c683          	lbu	a3,0(a3)
   12dc6:	97c6                	add	a5,a5,a7
   12dc8:	41270933          	sub	s2,a4,s2
   12dcc:	00094903          	lbu	s2,0(s2)
   12dd0:	97c2                	add	a5,a5,a6
   12dd2:	40870433          	sub	s0,a4,s0
   12dd6:	00044403          	lbu	s0,0(s0)
   12dda:	97aa                	add	a5,a5,a0
   12ddc:	cc6a                	sw	s10,24(sp)
   12dde:	97b6                	add	a5,a5,a3
   12de0:	4d02                	lw	s10,0(sp)
   12de2:	97ca                	add	a5,a5,s2
   12de4:	97a2                	add	a5,a5,s0
   12de6:	41a7db63          	bge	a5,s10,131fc <susan_corners+0x618>
   12dea:	006c4c83          	lbu	s9,6(s8)
   12dee:	41970cb3          	sub	s9,a4,s9
   12df2:	000ccc83          	lbu	s9,0(s9)
   12df6:	97e6                	add	a5,a5,s9
   12df8:	41a7d263          	bge	a5,s10,131fc <susan_corners+0x618>
   12dfc:	007c4d03          	lbu	s10,7(s8)
   12e00:	41a70d33          	sub	s10,a4,s10
   12e04:	000d4d03          	lbu	s10,0(s10)
   12e08:	d46a                	sw	s10,40(sp)
   12e0a:	97ea                	add	a5,a5,s10
   12e0c:	4d02                	lw	s10,0(sp)
   12e0e:	3fa7d763          	bge	a5,s10,131fc <susan_corners+0x618>
   12e12:	008c4d03          	lbu	s10,8(s8)
   12e16:	41a70d33          	sub	s10,a4,s10
   12e1a:	000d4d03          	lbu	s10,0(s10)
   12e1e:	d66a                	sw	s10,44(sp)
   12e20:	97ea                	add	a5,a5,s10
   12e22:	4d02                	lw	s10,0(sp)
   12e24:	3da7dc63          	bge	a5,s10,131fc <susan_corners+0x618>
   12e28:	0004cd03          	lbu	s10,0(s1)
   12e2c:	41a70d33          	sub	s10,a4,s10
   12e30:	000d4d03          	lbu	s10,0(s10)
   12e34:	caea                	sw	s10,84(sp)
   12e36:	97ea                	add	a5,a5,s10
   12e38:	4d02                	lw	s10,0(sp)
   12e3a:	3da7d163          	bge	a5,s10,131fc <susan_corners+0x618>
   12e3e:	0014cd03          	lbu	s10,1(s1)
   12e42:	41a70d33          	sub	s10,a4,s10
   12e46:	000d4d03          	lbu	s10,0(s10)
   12e4a:	d6ea                	sw	s10,108(sp)
   12e4c:	97ea                	add	a5,a5,s10
   12e4e:	4d02                	lw	s10,0(sp)
   12e50:	3ba7d663          	bge	a5,s10,131fc <susan_corners+0x618>
   12e54:	0024cd03          	lbu	s10,2(s1)
   12e58:	41a70d33          	sub	s10,a4,s10
   12e5c:	000d4d03          	lbu	s10,0(s10)
   12e60:	d8ea                	sw	s10,112(sp)
   12e62:	9d3e                	add	s10,s10,a5
   12e64:	4782                	lw	a5,0(sp)
   12e66:	38fd5b63          	bge	s10,a5,131fc <susan_corners+0x618>
   12e6a:	0034c783          	lbu	a5,3(s1)
   12e6e:	40f707b3          	sub	a5,a4,a5
   12e72:	0007c783          	lbu	a5,0(a5)
   12e76:	c33e                	sw	a5,132(sp)
   12e78:	9d3e                	add	s10,s10,a5
   12e7a:	4782                	lw	a5,0(sp)
   12e7c:	38fd5063          	bge	s10,a5,131fc <susan_corners+0x618>
   12e80:	0044c783          	lbu	a5,4(s1)
   12e84:	40f707b3          	sub	a5,a4,a5
   12e88:	0007c783          	lbu	a5,0(a5)
   12e8c:	c53e                	sw	a5,136(sp)
   12e8e:	9d3e                	add	s10,s10,a5
   12e90:	4782                	lw	a5,0(sp)
   12e92:	36fd5563          	bge	s10,a5,131fc <susan_corners+0x618>
   12e96:	0054c783          	lbu	a5,5(s1)
   12e9a:	40f707b3          	sub	a5,a4,a5
   12e9e:	0007c783          	lbu	a5,0(a5)
   12ea2:	c73e                	sw	a5,140(sp)
   12ea4:	9d3e                	add	s10,s10,a5
   12ea6:	4782                	lw	a5,0(sp)
   12ea8:	34fd5a63          	bge	s10,a5,131fc <susan_corners+0x618>
   12eac:	0064c783          	lbu	a5,6(s1)
   12eb0:	40f707b3          	sub	a5,a4,a5
   12eb4:	0007c783          	lbu	a5,0(a5)
   12eb8:	c93e                	sw	a5,144(sp)
   12eba:	9d3e                	add	s10,s10,a5
   12ebc:	4782                	lw	a5,0(sp)
   12ebe:	32fd5f63          	bge	s10,a5,131fc <susan_corners+0x618>
   12ec2:	003ac783          	lbu	a5,3(s5)
   12ec6:	40f707b3          	sub	a5,a4,a5
   12eca:	0007c783          	lbu	a5,0(a5)
   12ece:	cb3e                	sw	a5,148(sp)
   12ed0:	9d3e                	add	s10,s10,a5
   12ed2:	4782                	lw	a5,0(sp)
   12ed4:	32fd5463          	bge	s10,a5,131fc <susan_corners+0x618>
   12ed8:	004ac783          	lbu	a5,4(s5)
   12edc:	40f707b3          	sub	a5,a4,a5
   12ee0:	0007c783          	lbu	a5,0(a5)
   12ee4:	cd3e                	sw	a5,152(sp)
   12ee6:	9d3e                	add	s10,s10,a5
   12ee8:	4782                	lw	a5,0(sp)
   12eea:	30fd5963          	bge	s10,a5,131fc <susan_corners+0x618>
   12eee:	005ac783          	lbu	a5,5(s5)
   12ef2:	40f707b3          	sub	a5,a4,a5
   12ef6:	0007c783          	lbu	a5,0(a5)
   12efa:	cf3e                	sw	a5,156(sp)
   12efc:	9d3e                	add	s10,s10,a5
   12efe:	4782                	lw	a5,0(sp)
   12f00:	2efd5e63          	bge	s10,a5,131fc <susan_corners+0x618>
   12f04:	006ac783          	lbu	a5,6(s5)
   12f08:	40f707b3          	sub	a5,a4,a5
   12f0c:	0007c783          	lbu	a5,0(a5)
   12f10:	d13e                	sw	a5,160(sp)
   12f12:	9d3e                	add	s10,s10,a5
   12f14:	4782                	lw	a5,0(sp)
   12f16:	2efd5363          	bge	s10,a5,131fc <susan_corners+0x618>
   12f1a:	007ac783          	lbu	a5,7(s5)
   12f1e:	40f707b3          	sub	a5,a4,a5
   12f22:	0007c783          	lbu	a5,0(a5)
   12f26:	d33e                	sw	a5,164(sp)
   12f28:	9d3e                	add	s10,s10,a5
   12f2a:	4782                	lw	a5,0(sp)
   12f2c:	2cfd5863          	bge	s10,a5,131fc <susan_corners+0x618>
   12f30:	000a4783          	lbu	a5,0(s4)
   12f34:	40f707b3          	sub	a5,a4,a5
   12f38:	0007c783          	lbu	a5,0(a5)
   12f3c:	d53e                	sw	a5,168(sp)
   12f3e:	9d3e                	add	s10,s10,a5
   12f40:	4782                	lw	a5,0(sp)
   12f42:	2afd5d63          	bge	s10,a5,131fc <susan_corners+0x618>
   12f46:	001a4783          	lbu	a5,1(s4)
   12f4a:	40f707b3          	sub	a5,a4,a5
   12f4e:	0007c783          	lbu	a5,0(a5)
   12f52:	d73e                	sw	a5,172(sp)
   12f54:	9d3e                	add	s10,s10,a5
   12f56:	4782                	lw	a5,0(sp)
   12f58:	2afd5263          	bge	s10,a5,131fc <susan_corners+0x618>
   12f5c:	002a4783          	lbu	a5,2(s4)
   12f60:	40f707b3          	sub	a5,a4,a5
   12f64:	0007c783          	lbu	a5,0(a5)
   12f68:	d93e                	sw	a5,176(sp)
   12f6a:	9d3e                	add	s10,s10,a5
   12f6c:	4782                	lw	a5,0(sp)
   12f6e:	28fd5763          	bge	s10,a5,131fc <susan_corners+0x618>
   12f72:	9596                	add	a1,a1,t0
   12f74:	959e                	add	a1,a1,t2
   12f76:	405387b3          	sub	a5,t2,t0
   12f7a:	001e9393          	slli	t2,t4,0x1
   12f7e:	407787b3          	sub	a5,a5,t2
   12f82:	001f9e93          	slli	t4,t6,0x1
   12f86:	41f787b3          	sub	a5,a5,t6
   12f8a:	4fc2                	lw	t6,16(sp)
   12f8c:	db2e                	sw	a1,180(sp)
   12f8e:	dd76                	sw	t4,184(sp)
   12f90:	45b2                	lw	a1,12(sp)
   12f92:	001f9e93          	slli	t4,t6,0x1
   12f96:	4fd2                	lw	t6,20(sp)
   12f98:	97ae                	add	a5,a5,a1
   12f9a:	df76                	sw	t4,188(sp)
   12f9c:	001f9e93          	slli	t4,t6,0x1
   12fa0:	00fe8fb3          	add	t6,t4,a5
   12fa4:	47b2                	lw	a5,12(sp)
   12fa6:	00261593          	slli	a1,a2,0x2
   12faa:	c876                	sw	t4,16(sp)
   12fac:	00179e93          	slli	t4,a5,0x1
   12fb0:	40b607b3          	sub	a5,a2,a1
   12fb4:	97fe                	add	a5,a5,t6
   12fb6:	001e1593          	slli	a1,t3,0x1
   12fba:	8f8d                	sub	a5,a5,a1
   12fbc:	55b2                	lw	a1,44(sp)
   12fbe:	428d                	li	t0,3
   12fc0:	406787b3          	sub	a5,a5,t1
   12fc4:	025585b3          	mul	a1,a1,t0
   12fc8:	97c6                	add	a5,a5,a7
   12fca:	c676                	sw	t4,12(sp)
   12fcc:	5eda                	lw	t4,180(sp)
   12fce:	0906                	slli	s2,s2,0x1
   12fd0:	ca4a                	sw	s2,20(sp)
   12fd2:	4fda                	lw	t6,148(sp)
   12fd4:	d62e                	sw	a1,44(sp)
   12fd6:	00181593          	slli	a1,a6,0x1
   12fda:	95be                	add	a1,a1,a5
   12fdc:	57a2                	lw	a5,40(sp)
   12fde:	00179913          	slli	s2,a5,0x1
   12fe2:	002e9793          	slli	a5,t4,0x2
   12fe6:	40fe87b3          	sub	a5,t4,a5
   12fea:	407787b3          	sub	a5,a5,t2
   12fee:	53ea                	lw	t2,184(sp)
   12ff0:	4ec2                	lw	t4,16(sp)
   12ff2:	d44a                	sw	s2,40(sp)
   12ff4:	407787b3          	sub	a5,a5,t2
   12ff8:	53fa                	lw	t2,188(sp)
   12ffa:	001f9913          	slli	s2,t6,0x1
   12ffe:	4ffa                	lw	t6,156(sp)
   13000:	407787b3          	sub	a5,a5,t2
   13004:	43b2                	lw	t2,12(sp)
   13006:	0f86                	slli	t6,t6,0x1
   13008:	cb7e                	sw	t6,148(sp)
   1300a:	407787b3          	sub	a5,a5,t2
   1300e:	41d787b3          	sub	a5,a5,t4
   13012:	8f91                	sub	a5,a5,a2
   13014:	41c787b3          	sub	a5,a5,t3
   13018:	406787b3          	sub	a5,a5,t1
   1301c:	02550333          	mul	t1,a0,t0
   13020:	00269613          	slli	a2,a3,0x2
   13024:	8e91                	sub	a3,a3,a2
   13026:	4662                	lw	a2,24(sp)
   13028:	5eb2                	lw	t4,44(sp)
   1302a:	5f9a                	lw	t6,164(sp)
   1302c:	8f91                	sub	a5,a5,a2
   1302e:	4652                	lw	a2,20(sp)
   13030:	411787b3          	sub	a5,a5,a7
   13034:	410787b3          	sub	a5,a5,a6
   13038:	959a                	add	a1,a1,t1
   1303a:	96ae                	add	a3,a3,a1
   1303c:	48ca                	lw	a7,144(sp)
   1303e:	8f89                	sub	a5,a5,a0
   13040:	8e91                	sub	a3,a3,a2
   13042:	4556                	lw	a0,84(sp)
   13044:	5622                	lw	a2,40(sp)
   13046:	8e81                	sub	a3,a3,s0
   13048:	9cb6                	add	s9,s9,a3
   1304a:	5436                	lw	s0,108(sp)
   1304c:	5846                	lw	a6,112(sp)
   1304e:	025885b3          	mul	a1,a7,t0
   13052:	00f506b3          	add	a3,a0,a5
   13056:	019607b3          	add	a5,a2,s9
   1305a:	00251613          	slli	a2,a0,0x2
   1305e:	532a                	lw	t1,168(sp)
   13060:	97f6                	add	a5,a5,t4
   13062:	439a                	lw	t2,132(sp)
   13064:	40c50633          	sub	a2,a0,a2
   13068:	96a2                	add	a3,a3,s0
   1306a:	963e                	add	a2,a2,a5
   1306c:	00141793          	slli	a5,s0,0x1
   13070:	442a                	lw	s0,136(sp)
   13072:	96c2                	add	a3,a3,a6
   13074:	969e                	add	a3,a3,t2
   13076:	8e1d                	sub	a2,a2,a5
   13078:	00d407b3          	add	a5,s0,a3
   1307c:	46ba                	lw	a3,140(sp)
   1307e:	41060633          	sub	a2,a2,a6
   13082:	583a                	lw	a6,172(sp)
   13084:	5e4a                	lw	t3,176(sp)
   13086:	9622                	add	a2,a2,s0
   13088:	02530533          	mul	a0,t1,t0
   1308c:	97b6                	add	a5,a5,a3
   1308e:	0686                	slli	a3,a3,0x1
   13090:	96b2                	add	a3,a3,a2
   13092:	96ae                	add	a3,a3,a1
   13094:	446a                	lw	s0,152(sp)
   13096:	97c6                	add	a5,a5,a7
   13098:	4eda                	lw	t4,148(sp)
   1309a:	588a                	lw	a7,160(sp)
   1309c:	97ca                	add	a5,a5,s2
   1309e:	02580833          	mul	a6,a6,t0
   130a2:	00141613          	slli	a2,s0,0x1
   130a6:	963e                	add	a2,a2,a5
   130a8:	9676                	add	a2,a2,t4
   130aa:	412687b3          	sub	a5,a3,s2
   130ae:	00189693          	slli	a3,a7,0x1
   130b2:	0f86                	slli	t6,t6,0x1
   130b4:	9636                	add	a2,a2,a3
   130b6:	8f81                	sub	a5,a5,s0
   130b8:	97c6                	add	a5,a5,a7
   130ba:	025e05b3          	mul	a1,t3,t0
   130be:	967e                	add	a2,a2,t6
   130c0:	962a                	add	a2,a2,a0
   130c2:	97fe                	add	a5,a5,t6
   130c4:	00c806b3          	add	a3,a6,a2
   130c8:	406787b3          	sub	a5,a5,t1
   130cc:	00fe0533          	add	a0,t3,a5
   130d0:	00d58833          	add	a6,a1,a3
   130d4:	030805b3          	mul	a1,a6,a6
   130d8:	02a506b3          	mul	a3,a0,a0
   130dc:	03ad07b3          	mul	a5,s10,s10
   130e0:	00b68633          	add	a2,a3,a1
   130e4:	8785                	srai	a5,a5,0x1
   130e6:	10c7db63          	bge	a5,a2,131fc <susan_corners+0x618>
   130ea:	46d5d563          	bge	a1,a3,13554 <susan_corners+0x970>
   130ee:	41f55693          	srai	a3,a0,0x1f
   130f2:	00a6c7b3          	xor	a5,a3,a0
   130f6:	8f95                	sub	a5,a5,a3
   130f8:	d007f753          	fcvt.s.w	fa4,a5
   130fc:	d00877d3          	fcvt.s.w	fa5,a6
   13100:	f00005d3          	fmv.w.x	fa1,zero
   13104:	fff54793          	not	a5,a0
   13108:	18e7f7d3          	fdiv.s	fa5,fa5,fa4
   1310c:	41f7d593          	srai	a1,a5,0x1f
   13110:	8989                	andi	a1,a1,2
   13112:	ec81b607          	fld	fa2,-312(gp) # 236d8 <__SDATA_BEGIN__+0x28>
   13116:	15fd                	addi	a1,a1,-1
   13118:	00f7f553          	fadd.s	fa0,fa5,fa5
   1311c:	a0b797d3          	flt.s	a5,fa5,fa1
   13120:	42078753          	fcvt.d.s	fa4,fa5
   13124:	420506d3          	fcvt.d.s	fa3,fa0
   13128:	3e079b63          	bnez	a5,1351e <susan_corners+0x93a>
   1312c:	02c77753          	fadd.d	fa4,fa4,fa2
   13130:	57a6                	lw	a5,104(sp)
   13132:	5442                	lw	s0,48(sp)
   13134:	97ae                	add	a5,a5,a1
   13136:	016786b3          	add	a3,a5,s6
   1313a:	c20717d3          	fcvt.w.d	a5,fa4,rtz
   1313e:	97a2                	add	a5,a5,s0
   13140:	4446                	lw	s0,80(sp)
   13142:	028787b3          	mul	a5,a5,s0
   13146:	97b6                	add	a5,a5,a3
   13148:	0007c783          	lbu	a5,0(a5)
   1314c:	40f707b3          	sub	a5,a4,a5
   13150:	0007c883          	lbu	a7,0(a5)
   13154:	ec81b707          	fld	fa4,-312(gp) # 236d8 <__SDATA_BEGIN__+0x28>
   13158:	02e6f753          	fadd.d	fa4,fa3,fa4
   1315c:	5426                	lw	s0,104(sp)
   1315e:	00159793          	slli	a5,a1,0x1
   13162:	c20716d3          	fcvt.w.d	a3,fa4,rtz
   13166:	97a2                	add	a5,a5,s0
   13168:	5442                	lw	s0,48(sp)
   1316a:	97da                	add	a5,a5,s6
   1316c:	f00006d3          	fmv.w.x	fa3,zero
   13170:	96a2                	add	a3,a3,s0
   13172:	4446                	lw	s0,80(sp)
   13174:	02868333          	mul	t1,a3,s0
   13178:	fbc1a707          	flw	fa4,-68(gp) # 237cc <__SDATA_BEGIN__+0x11c>
   1317c:	10e7f7d3          	fmul.s	fa5,fa5,fa4
   13180:	979a                	add	a5,a5,t1
   13182:	0007c783          	lbu	a5,0(a5)
   13186:	42078753          	fcvt.d.s	fa4,fa5
   1318a:	40f707b3          	sub	a5,a4,a5
   1318e:	0007c783          	lbu	a5,0(a5)
   13192:	98be                	add	a7,a7,a5
   13194:	a0d797d3          	flt.s	a5,fa5,fa3
   13198:	ec81b787          	fld	fa5,-312(gp) # 236d8 <__SDATA_BEGIN__+0x28>
   1319c:	36079e63          	bnez	a5,13518 <susan_corners+0x934>
   131a0:	02f777d3          	fadd.d	fa5,fa4,fa5
   131a4:	5642                	lw	a2,48(sp)
   131a6:	c20796d3          	fcvt.w.d	a3,fa5,rtz
   131aa:	478d                	li	a5,3
   131ac:	02f587b3          	mul	a5,a1,a5
   131b0:	96b2                	add	a3,a3,a2
   131b2:	4646                	lw	a2,80(sp)
   131b4:	02c686b3          	mul	a3,a3,a2
   131b8:	5626                	lw	a2,104(sp)
   131ba:	97b2                	add	a5,a5,a2
   131bc:	97da                	add	a5,a5,s6
   131be:	97b6                	add	a5,a5,a3
   131c0:	0007c783          	lbu	a5,0(a5)
   131c4:	40f707b3          	sub	a5,a4,a5
   131c8:	0007c783          	lbu	a5,0(a5)
   131cc:	97c6                	add	a5,a5,a7
   131ce:	12200713          	li	a4,290
   131d2:	02f75563          	bge	a4,a5,131fc <susan_corners+0x618>
   131d6:	03300713          	li	a4,51
   131da:	02e507b3          	mul	a5,a0,a4
   131de:	4682                	lw	a3,0(sp)
   131e0:	4612                	lw	a2,4(sp)
   131e2:	41a686b3          	sub	a3,a3,s10
   131e6:	ca54                	sw	a3,20(a2)
   131e8:	46a2                	lw	a3,8(sp)
   131ea:	02e80733          	mul	a4,a6,a4
   131ee:	03a7c7b3          	div	a5,a5,s10
   131f2:	03a74733          	div	a4,a4,s10
   131f6:	cadc                	sw	a5,20(a3)
   131f8:	00e9aa23          	sw	a4,20(s3)
   131fc:	4792                	lw	a5,4(sp)
   131fe:	0b05                	addi	s6,s6,1
   13200:	0f05                	addi	t5,t5,1
   13202:	0791                	addi	a5,a5,4
   13204:	c23e                	sw	a5,4(sp)
   13206:	47a2                	lw	a5,8(sp)
   13208:	0b85                	addi	s7,s7,1
   1320a:	0d85                	addi	s11,s11,1
   1320c:	0791                	addi	a5,a5,4
   1320e:	c43e                	sw	a5,8(sp)
   13210:	5792                	lw	a5,36(sp)
   13212:	0c05                	addi	s8,s8,1
   13214:	0991                	addi	s3,s3,4
   13216:	0a05                	addi	s4,s4,1
   13218:	0a85                	addi	s5,s5,1
   1321a:	0485                	addi	s1,s1,1
   1321c:	aafb1ae3          	bne	s6,a5,12cd0 <susan_corners+0xec>
   13220:	4746                	lw	a4,80(sp)
   13222:	4606                	lw	a2,64(sp)
   13224:	4816                	lw	a6,68(sp)
   13226:	57c2                	lw	a5,48(sp)
   13228:	40e60db3          	sub	s11,a2,a4
   1322c:	40e80733          	sub	a4,a6,a4
   13230:	4a36                	lw	s4,76(sp)
   13232:	5952                	lw	s2,52(sp)
   13234:	54e2                	lw	s1,56(sp)
   13236:	52f2                	lw	t0,60(sp)
   13238:	ce3a                	sw	a4,28(sp)
   1323a:	4766                	lw	a4,88(sp)
   1323c:	0785                	addi	a5,a5,1
   1323e:	d83e                	sw	a5,48(sp)
   13240:	45a6                	lw	a1,72(sp)
   13242:	92d2                	add	t0,t0,s4
   13244:	94d2                	add	s1,s1,s4
   13246:	9952                	add	s2,s2,s4
   13248:	a4e799e3          	bne	a5,a4,12c9a <susan_corners+0xb6>
   1324c:	5dd6                	lw	s11,116(sp)
   1324e:	5866                	lw	a6,120(sp)
   13250:	5af6                	lw	s5,124(sp)
   13252:	4b0a                	lw	s6,128(sp)
   13254:	89be                	mv	s3,a5
   13256:	4746                	lw	a4,80(sp)
   13258:	4f95                	li	t6,5
   1325a:	47a9                	li	a5,10
   1325c:	00471913          	slli	s2,a4,0x4
   13260:	00371493          	slli	s1,a4,0x3
   13264:	01280eb3          	add	t4,a6,s2
   13268:	00980f33          	add	t5,a6,s1
   1326c:	00ea02b3          	add	t0,s4,a4
   13270:	28e7d863          	bge	a5,a4,13500 <susan_corners+0x91c>
   13274:	4bc6                	lw	s7,80(sp)
   13276:	04a1                	addi	s1,s1,8
   13278:	c002                	sw	zero,0(sp)
   1327a:	017a0433          	add	s0,s4,s7
   1327e:	040a                	slli	s0,s0,0x2
   13280:	ffbb8d13          	addi	s10,s7,-5
   13284:	008a0393          	addi	t2,s4,8
   13288:	8cee                	mv	s9,s11
   1328a:	00229613          	slli	a2,t0,0x2
   1328e:	00ca8e33          	add	t3,s5,a2
   13292:	007e8733          	add	a4,t4,t2
   13296:	965a                	add	a2,a2,s6
   13298:	012e8333          	add	t1,t4,s2
   1329c:	008f08b3          	add	a7,t5,s0
   132a0:	01d48833          	add	a6,s1,t4
   132a4:	007f05b3          	add	a1,t5,t2
   132a8:	87fa                	mv	a5,t5
   132aa:	8576                	mv	a0,t4
   132ac:	4695                	li	a3,5
   132ae:	00c72c03          	lw	s8,12(a4)
   132b2:	1f805663          	blez	s8,1349e <susan_corners+0x8ba>
   132b6:	0087ad83          	lw	s11,8(a5)
   132ba:	1f8dd263          	bge	s11,s8,1349e <susan_corners+0x8ba>
   132be:	00c7ad83          	lw	s11,12(a5)
   132c2:	1d8dde63          	bge	s11,s8,1349e <susan_corners+0x8ba>
   132c6:	0107ad83          	lw	s11,16(a5)
   132ca:	1d8dda63          	bge	s11,s8,1349e <susan_corners+0x8ba>
   132ce:	0147ad83          	lw	s11,20(a5)
   132d2:	1d8dd663          	bge	s11,s8,1349e <susan_corners+0x8ba>
   132d6:	0187ad83          	lw	s11,24(a5)
   132da:	1d8dd263          	bge	s11,s8,1349e <susan_corners+0x8ba>
   132de:	01c7ad83          	lw	s11,28(a5)
   132e2:	1b8dde63          	bge	s11,s8,1349e <susan_corners+0x8ba>
   132e6:	0207ad83          	lw	s11,32(a5)
   132ea:	1b8dda63          	bge	s11,s8,1349e <susan_corners+0x8ba>
   132ee:	0005ad83          	lw	s11,0(a1)
   132f2:	1b8dd663          	bge	s11,s8,1349e <susan_corners+0x8ba>
   132f6:	0045ad83          	lw	s11,4(a1)
   132fa:	1b8dd263          	bge	s11,s8,1349e <susan_corners+0x8ba>
   132fe:	0085ad83          	lw	s11,8(a1)
   13302:	198dde63          	bge	s11,s8,1349e <susan_corners+0x8ba>
   13306:	00c5ad83          	lw	s11,12(a1)
   1330a:	198dda63          	bge	s11,s8,1349e <susan_corners+0x8ba>
   1330e:	0105ad83          	lw	s11,16(a1)
   13312:	198dd663          	bge	s11,s8,1349e <susan_corners+0x8ba>
   13316:	0145ad83          	lw	s11,20(a1)
   1331a:	198dd263          	bge	s11,s8,1349e <susan_corners+0x8ba>
   1331e:	0185ad83          	lw	s11,24(a1)
   13322:	178dde63          	bge	s11,s8,1349e <susan_corners+0x8ba>
   13326:	00852d83          	lw	s11,8(a0)
   1332a:	178dda63          	bge	s11,s8,1349e <susan_corners+0x8ba>
   1332e:	00c52d83          	lw	s11,12(a0)
   13332:	178dd663          	bge	s11,s8,1349e <susan_corners+0x8ba>
   13336:	01052d83          	lw	s11,16(a0)
   1333a:	178dd263          	bge	s11,s8,1349e <susan_corners+0x8ba>
   1333e:	01452d83          	lw	s11,20(a0)
   13342:	158dde63          	bge	s11,s8,1349e <susan_corners+0x8ba>
   13346:	01852d83          	lw	s11,24(a0)
   1334a:	158dda63          	bge	s11,s8,1349e <susan_corners+0x8ba>
   1334e:	01c52d83          	lw	s11,28(a0)
   13352:	158dd663          	bge	s11,s8,1349e <susan_corners+0x8ba>
   13356:	02052d83          	lw	s11,32(a0)
   1335a:	158dd263          	bge	s11,s8,1349e <susan_corners+0x8ba>
   1335e:	00072d83          	lw	s11,0(a4)
   13362:	138dde63          	bge	s11,s8,1349e <susan_corners+0x8ba>
   13366:	00472d83          	lw	s11,4(a4)
   1336a:	138dda63          	bge	s11,s8,1349e <susan_corners+0x8ba>
   1336e:	00872d83          	lw	s11,8(a4)
   13372:	138dd663          	bge	s11,s8,1349e <susan_corners+0x8ba>
   13376:	01072d83          	lw	s11,16(a4)
   1337a:	13bc4263          	blt	s8,s11,1349e <susan_corners+0x8ba>
   1337e:	01472d83          	lw	s11,20(a4)
   13382:	11bc4e63          	blt	s8,s11,1349e <susan_corners+0x8ba>
   13386:	01872d83          	lw	s11,24(a4)
   1338a:	11bc4a63          	blt	s8,s11,1349e <susan_corners+0x8ba>
   1338e:	00082d83          	lw	s11,0(a6)
   13392:	11bc4663          	blt	s8,s11,1349e <susan_corners+0x8ba>
   13396:	00482d83          	lw	s11,4(a6)
   1339a:	11bc4263          	blt	s8,s11,1349e <susan_corners+0x8ba>
   1339e:	00882d83          	lw	s11,8(a6)
   133a2:	0fbc4e63          	blt	s8,s11,1349e <susan_corners+0x8ba>
   133a6:	00c82d83          	lw	s11,12(a6)
   133aa:	0fbc4a63          	blt	s8,s11,1349e <susan_corners+0x8ba>
   133ae:	01082d83          	lw	s11,16(a6)
   133b2:	0fbc4663          	blt	s8,s11,1349e <susan_corners+0x8ba>
   133b6:	01482d83          	lw	s11,20(a6)
   133ba:	0fbc4263          	blt	s8,s11,1349e <susan_corners+0x8ba>
   133be:	01882d83          	lw	s11,24(a6)
   133c2:	0dbc4e63          	blt	s8,s11,1349e <susan_corners+0x8ba>
   133c6:	0088ad83          	lw	s11,8(a7)
   133ca:	0dbc4a63          	blt	s8,s11,1349e <susan_corners+0x8ba>
   133ce:	00c8ad83          	lw	s11,12(a7)
   133d2:	0dbc4663          	blt	s8,s11,1349e <susan_corners+0x8ba>
   133d6:	0108ad83          	lw	s11,16(a7)
   133da:	0dbc4263          	blt	s8,s11,1349e <susan_corners+0x8ba>
   133de:	0148ad83          	lw	s11,20(a7)
   133e2:	0bbc4e63          	blt	s8,s11,1349e <susan_corners+0x8ba>
   133e6:	0188ad83          	lw	s11,24(a7)
   133ea:	0bbc4a63          	blt	s8,s11,1349e <susan_corners+0x8ba>
   133ee:	01c8ad83          	lw	s11,28(a7)
   133f2:	0bbc4663          	blt	s8,s11,1349e <susan_corners+0x8ba>
   133f6:	0208ad83          	lw	s11,32(a7)
   133fa:	0bbc4263          	blt	s8,s11,1349e <susan_corners+0x8ba>
   133fe:	00832d83          	lw	s11,8(t1)
   13402:	09bc4e63          	blt	s8,s11,1349e <susan_corners+0x8ba>
   13406:	00c32d83          	lw	s11,12(t1)
   1340a:	09bc4a63          	blt	s8,s11,1349e <susan_corners+0x8ba>
   1340e:	01032d83          	lw	s11,16(t1)
   13412:	09bc4663          	blt	s8,s11,1349e <susan_corners+0x8ba>
   13416:	01432d83          	lw	s11,20(t1)
   1341a:	09bc4263          	blt	s8,s11,1349e <susan_corners+0x8ba>
   1341e:	01832d83          	lw	s11,24(t1)
   13422:	07bc4e63          	blt	s8,s11,1349e <susan_corners+0x8ba>
   13426:	01c32d83          	lw	s11,28(t1)
   1342a:	07bc4a63          	blt	s8,s11,1349e <susan_corners+0x8ba>
   1342e:	02032d83          	lw	s11,32(t1)
   13432:	07bc4663          	blt	s8,s11,1349e <susan_corners+0x8ba>
   13436:	4d82                	lw	s11,0(sp)
   13438:	4c61                	li	s8,24
   1343a:	038d8c33          	mul	s8,s11,s8
   1343e:	0d85                	addi	s11,s11,1
   13440:	c06e                	sw	s11,0(sp)
   13442:	5da6                	lw	s11,104(sp)
   13444:	9d96                	add	s11,s11,t0
   13446:	9db6                	add	s11,s11,a3
   13448:	c26e                	sw	s11,4(sp)
   1344a:	6d91                	lui	s11,0x4
   1344c:	9c66                	add	s8,s8,s9
   1344e:	000c2423          	sw	zero,8(s8)
   13452:	00dc2023          	sw	a3,0(s8)
   13456:	01fc2223          	sw	t6,4(s8)
   1345a:	a98d8d93          	addi	s11,s11,-1384 # 3a98 <exit-0xc61c>
   1345e:	c46e                	sw	s11,8(sp)
   13460:	014e2d83          	lw	s11,20(t3)
   13464:	01bc2623          	sw	s11,12(s8)
   13468:	01462d83          	lw	s11,20(a2)
   1346c:	01bc2823          	sw	s11,16(s8)
   13470:	4d92                	lw	s11,4(sp)
   13472:	000dcd83          	lbu	s11,0(s11)
   13476:	01bc2a23          	sw	s11,20(s8)
   1347a:	4c02                	lw	s8,0(sp)
   1347c:	4da2                	lw	s11,8(sp)
   1347e:	03bc1063          	bne	s8,s11,1349e <susan_corners+0x8ba>
   13482:	fe41a783          	lw	a5,-28(gp) # 237f4 <_impure_ptr>
   13486:	00021537          	lui	a0,0x21
   1348a:	4ac50513          	addi	a0,a0,1196 # 214ac <__clzsi2+0x54e>
   1348e:	47d4                	lw	a3,12(a5)
   13490:	4649                	li	a2,18
   13492:	4585                	li	a1,1
   13494:	360030ef          	jal	167f4 <fwrite>
   13498:	4505                	li	a0,1
   1349a:	c1bfc0ef          	jal	100b4 <exit>
   1349e:	0685                	addi	a3,a3,1
   134a0:	0711                	addi	a4,a4,4
   134a2:	0e11                	addi	t3,t3,4
   134a4:	0611                	addi	a2,a2,4
   134a6:	0311                	addi	t1,t1,4
   134a8:	0891                	addi	a7,a7,4
   134aa:	0811                	addi	a6,a6,4
   134ac:	0511                	addi	a0,a0,4
   134ae:	0591                	addi	a1,a1,4
   134b0:	0791                	addi	a5,a5,4
   134b2:	dfa69ee3          	bne	a3,s10,132ae <susan_corners+0x6ca>
   134b6:	0f85                	addi	t6,t6,1
   134b8:	9ed2                	add	t4,t4,s4
   134ba:	9f52                	add	t5,t5,s4
   134bc:	92de                	add	t0,t0,s7
   134be:	ddf996e3          	bne	s3,t6,1328a <susan_corners+0x6a6>
   134c2:	8de6                	mv	s11,s9
   134c4:	4702                	lw	a4,0(sp)
   134c6:	594e                	lw	s2,240(sp)
   134c8:	5a2e                	lw	s4,232(sp)
   134ca:	00171793          	slli	a5,a4,0x1
   134ce:	97ba                	add	a5,a5,a4
   134d0:	4bfe                	lw	s7,220(sp)
   134d2:	4c6e                	lw	s8,216(sp)
   134d4:	4cde                	lw	s9,212(sp)
   134d6:	4d4e                	lw	s10,208(sp)
   134d8:	078e                	slli	a5,a5,0x3
   134da:	9dbe                	add	s11,s11,a5
   134dc:	479d                	li	a5,7
   134de:	8556                	mv	a0,s5
   134e0:	00fda423          	sw	a5,8(s11)
   134e4:	641000ef          	jal	14324 <free>
   134e8:	855a                	mv	a0,s6
   134ea:	63b000ef          	jal	14324 <free>
   134ee:	50fe                	lw	ra,252(sp)
   134f0:	546e                	lw	s0,248(sp)
   134f2:	54de                	lw	s1,244(sp)
   134f4:	59be                	lw	s3,236(sp)
   134f6:	5a9e                	lw	s5,228(sp)
   134f8:	5b0e                	lw	s6,224(sp)
   134fa:	4dbe                	lw	s11,204(sp)
   134fc:	6111                	addi	sp,sp,256
   134fe:	8082                	ret
   13500:	0f85                	addi	t6,t6,1
   13502:	9ed2                	add	t4,t4,s4
   13504:	9f52                	add	t5,t5,s4
   13506:	92ba                	add	t0,t0,a4
   13508:	d73f94e3          	bne	t6,s3,13270 <susan_corners+0x68c>
   1350c:	c002                	sw	zero,0(sp)
   1350e:	bf5d                	j	134c4 <susan_corners+0x8e0>
   13510:	47c6                	lw	a5,80(sp)
   13512:	00279a13          	slli	s4,a5,0x2
   13516:	b381                	j	13256 <susan_corners+0x672>
   13518:	0af777d3          	fsub.d	fa5,fa4,fa5
   1351c:	b161                	j	131a4 <susan_corners+0x5c0>
   1351e:	0ac77753          	fsub.d	fa4,fa4,fa2
   13522:	57a6                	lw	a5,104(sp)
   13524:	5442                	lw	s0,48(sp)
   13526:	97ae                	add	a5,a5,a1
   13528:	016786b3          	add	a3,a5,s6
   1352c:	c20717d3          	fcvt.w.d	a5,fa4,rtz
   13530:	97a2                	add	a5,a5,s0
   13532:	4446                	lw	s0,80(sp)
   13534:	028787b3          	mul	a5,a5,s0
   13538:	97b6                	add	a5,a5,a3
   1353a:	0007c783          	lbu	a5,0(a5)
   1353e:	40f707b3          	sub	a5,a4,a5
   13542:	0007c883          	lbu	a7,0(a5)
   13546:	a0b517d3          	flt.s	a5,fa0,fa1
   1354a:	c00785e3          	beqz	a5,13154 <susan_corners+0x570>
   1354e:	0ac6f753          	fsub.d	fa4,fa3,fa2
   13552:	b129                	j	1315c <susan_corners+0x578>
   13554:	41f85693          	srai	a3,a6,0x1f
   13558:	0106c7b3          	xor	a5,a3,a6
   1355c:	8f95                	sub	a5,a5,a3
   1355e:	d007f753          	fcvt.s.w	fa4,a5
   13562:	d00577d3          	fcvt.s.w	fa5,a0
   13566:	fff84793          	not	a5,a6
   1356a:	41f7d593          	srai	a1,a5,0x1f
   1356e:	18e7f7d3          	fdiv.s	fa5,fa5,fa4
   13572:	57c2                	lw	a5,48(sp)
   13574:	46c6                	lw	a3,80(sp)
   13576:	8989                	andi	a1,a1,2
   13578:	15fd                	addi	a1,a1,-1
   1357a:	97ae                	add	a5,a5,a1
   1357c:	00b78333          	add	t1,a5,a1
   13580:	02d787b3          	mul	a5,a5,a3
   13584:	f00005d3          	fmv.w.x	fa1,zero
   13588:	ec81b607          	fld	fa2,-312(gp) # 236d8 <__SDATA_BEGIN__+0x28>
   1358c:	026686b3          	mul	a3,a3,t1
   13590:	016788b3          	add	a7,a5,s6
   13594:	00f7f553          	fadd.s	fa0,fa5,fa5
   13598:	a0b797d3          	flt.s	a5,fa5,fa1
   1359c:	42078753          	fcvt.d.s	fa4,fa5
   135a0:	420506d3          	fcvt.d.s	fa3,fa0
   135a4:	01668e33          	add	t3,a3,s6
   135a8:	efbd                	bnez	a5,13626 <susan_corners+0xa42>
   135aa:	02c77753          	fadd.d	fa4,fa4,fa2
   135ae:	57a6                	lw	a5,104(sp)
   135b0:	97c6                	add	a5,a5,a7
   135b2:	c20716d3          	fcvt.w.d	a3,fa4,rtz
   135b6:	97b6                	add	a5,a5,a3
   135b8:	0007c783          	lbu	a5,0(a5)
   135bc:	40f707b3          	sub	a5,a4,a5
   135c0:	0007c883          	lbu	a7,0(a5)
   135c4:	ec81b707          	fld	fa4,-312(gp) # 236d8 <__SDATA_BEGIN__+0x28>
   135c8:	02e6f753          	fadd.d	fa4,fa3,fa4
   135cc:	006587b3          	add	a5,a1,t1
   135d0:	45c6                	lw	a1,80(sp)
   135d2:	c20716d3          	fcvt.w.d	a3,fa4,rtz
   135d6:	f00006d3          	fmv.w.x	fa3,zero
   135da:	02b785b3          	mul	a1,a5,a1
   135de:	57a6                	lw	a5,104(sp)
   135e0:	97f2                	add	a5,a5,t3
   135e2:	97b6                	add	a5,a5,a3
   135e4:	fbc1a707          	flw	fa4,-68(gp) # 237cc <__SDATA_BEGIN__+0x11c>
   135e8:	0007c783          	lbu	a5,0(a5)
   135ec:	10e7f7d3          	fmul.s	fa5,fa5,fa4
   135f0:	40f707b3          	sub	a5,a4,a5
   135f4:	0007c783          	lbu	a5,0(a5)
   135f8:	95da                	add	a1,a1,s6
   135fa:	98be                	add	a7,a7,a5
   135fc:	a0d797d3          	flt.s	a5,fa5,fa3
   13600:	42078753          	fcvt.d.s	fa4,fa5
   13604:	ec81b787          	fld	fa5,-312(gp) # 236d8 <__SDATA_BEGIN__+0x28>
   13608:	e3b1                	bnez	a5,1364c <susan_corners+0xa68>
   1360a:	02f777d3          	fadd.d	fa5,fa4,fa5
   1360e:	57a6                	lw	a5,104(sp)
   13610:	c20796d3          	fcvt.w.d	a3,fa5,rtz
   13614:	97ae                	add	a5,a5,a1
   13616:	97b6                	add	a5,a5,a3
   13618:	0007c783          	lbu	a5,0(a5)
   1361c:	8f1d                	sub	a4,a4,a5
   1361e:	00074783          	lbu	a5,0(a4)
   13622:	97c6                	add	a5,a5,a7
   13624:	b66d                	j	131ce <susan_corners+0x5ea>
   13626:	0ac77753          	fsub.d	fa4,fa4,fa2
   1362a:	57a6                	lw	a5,104(sp)
   1362c:	97c6                	add	a5,a5,a7
   1362e:	c20716d3          	fcvt.w.d	a3,fa4,rtz
   13632:	97b6                	add	a5,a5,a3
   13634:	0007c783          	lbu	a5,0(a5)
   13638:	40f707b3          	sub	a5,a4,a5
   1363c:	0007c883          	lbu	a7,0(a5)
   13640:	a0b517d3          	flt.s	a5,fa0,fa1
   13644:	d3c1                	beqz	a5,135c4 <susan_corners+0x9e0>
   13646:	0ac6f753          	fsub.d	fa4,fa3,fa2
   1364a:	b749                	j	135cc <susan_corners+0x9e8>
   1364c:	0af777d3          	fsub.d	fa5,fa4,fa5
   13650:	bf7d                	j	1360e <susan_corners+0xa2a>

00013652 <susan_corners_quick>:
   13652:	7171                	addi	sp,sp,-176
   13654:	d14a                	sw	s2,160(sp)
   13656:	893e                	mv	s2,a5
   13658:	030787b3          	mul	a5,a5,a6
   1365c:	cd52                	sw	s4,152(sp)
   1365e:	cb56                	sw	s5,148(sp)
   13660:	c95a                	sw	s6,144(sp)
   13662:	deee                	sw	s11,124(sp)
   13664:	8a2a                	mv	s4,a0
   13666:	8ab2                	mv	s5,a2
   13668:	852e                	mv	a0,a1
   1366a:	ff980d93          	addi	s11,a6,-7
   1366e:	4581                	li	a1,0
   13670:	00279613          	slli	a2,a5,0x2
   13674:	4b1d                	li	s6,7
   13676:	d522                	sw	s0,168(sp)
   13678:	d706                	sw	ra,172(sp)
   1367a:	cc3a                	sw	a4,24(sp)
   1367c:	8436                	mv	s0,a3
   1367e:	5bb030ef          	jal	17438 <memset>
   13682:	03bb5fe3          	bge	s6,s11,13ec0 <susan_corners_quick+0x86e>
   13686:	d326                	sw	s1,164(sp)
   13688:	cf4e                	sw	s3,156(sp)
   1368a:	c75e                	sw	s7,140(sp)
   1368c:	c562                	sw	s8,136(sp)
   1368e:	c366                	sw	s9,132(sp)
   13690:	c16a                	sw	s10,128(sp)
   13692:	47b9                	li	a5,14
   13694:	88aa                	mv	a7,a0
   13696:	0527d1e3          	bge	a5,s2,13ed8 <susan_corners_quick+0x886>
   1369a:	00191713          	slli	a4,s2,0x1
   1369e:	00291f13          	slli	t5,s2,0x2
   136a2:	ff8a0793          	addi	a5,s4,-8
   136a6:	01270c33          	add	s8,a4,s2
   136aa:	012f04b3          	add	s1,t5,s2
   136ae:	004a0b93          	addi	s7,s4,4
   136b2:	9c52                	add	s8,s8,s4
   136b4:	94be                	add	s1,s1,a5
   136b6:	00ea0d33          	add	s10,s4,a4
   136ba:	00391793          	slli	a5,s2,0x3
   136be:	412786b3          	sub	a3,a5,s2
   136c2:	412b8cb3          	sub	s9,s7,s2
   136c6:	8ebe                	mv	t4,a5
   136c8:	0c19                	addi	s8,s8,6
   136ca:	89fa                	mv	s3,t5
   136cc:	9bca                	add	s7,s7,s2
   136ce:	006a0e13          	addi	t3,s4,6
   136d2:	c46e                	sw	s11,8(sp)
   136d4:	c66a                	sw	s10,12(sp)
   136d6:	837a                	mv	t1,t5
   136d8:	87ba                	mv	a5,a4
   136da:	4532                	lw	a0,12(sp)
   136dc:	00269f13          	slli	t5,a3,0x2
   136e0:	9f46                	add	t5,t5,a7
   136e2:	013e05b3          	add	a1,t3,s3
   136e6:	00d48613          	addi	a2,s1,13
   136ea:	00dc8733          	add	a4,s9,a3
   136ee:	00da0833          	add	a6,s4,a3
   136f2:	00dc03b3          	add	t2,s8,a3
   136f6:	00d502b3          	add	t0,a0,a3
   136fa:	00db8fb3          	add	t6,s7,a3
   136fe:	c25a                	sw	s6,4(sp)
   13700:	41358533          	sub	a0,a1,s3
   13704:	9536                	add	a0,a0,a3
   13706:	00154503          	lbu	a0,1(a0)
   1370a:	0005cd03          	lbu	s10,0(a1)
   1370e:	0015cb03          	lbu	s6,1(a1)
   13712:	9556                	add	a0,a0,s5
   13714:	41a50d33          	sub	s10,a0,s10
   13718:	000d4d03          	lbu	s10,0(s10)
   1371c:	41650b33          	sub	s6,a0,s6
   13720:	000b4b03          	lbu	s6,0(s6)
   13724:	0025cd83          	lbu	s11,2(a1)
   13728:	064d0d13          	addi	s10,s10,100
   1372c:	9b6a                	add	s6,s6,s10
   1372e:	00064d03          	lbu	s10,0(a2)
   13732:	41b50db3          	sub	s11,a0,s11
   13736:	000dcd83          	lbu	s11,0(s11)
   1373a:	41a50d33          	sub	s10,a0,s10
   1373e:	000d4d03          	lbu	s10,0(s10)
   13742:	9dda                	add	s11,s11,s6
   13744:	00164b03          	lbu	s6,1(a2)
   13748:	9d6e                	add	s10,s10,s11
   1374a:	00264d83          	lbu	s11,2(a2)
   1374e:	41650b33          	sub	s6,a0,s6
   13752:	000b4b03          	lbu	s6,0(s6)
   13756:	41b50db3          	sub	s11,a0,s11
   1375a:	000dcd83          	lbu	s11,0(s11)
   1375e:	9b6a                	add	s6,s6,s10
   13760:	00364d03          	lbu	s10,3(a2)
   13764:	9dda                	add	s11,s11,s6
   13766:	00464b03          	lbu	s6,4(a2)
   1376a:	41a50d33          	sub	s10,a0,s10
   1376e:	000d4d03          	lbu	s10,0(s10)
   13772:	41650b33          	sub	s6,a0,s6
   13776:	000b4b03          	lbu	s6,0(s6)
   1377a:	9d6e                	add	s10,s10,s11
   1377c:	00074d83          	lbu	s11,0(a4)
   13780:	9b6a                	add	s6,s6,s10
   13782:	00174d03          	lbu	s10,1(a4)
   13786:	41b50db3          	sub	s11,a0,s11
   1378a:	000dcd83          	lbu	s11,0(s11)
   1378e:	41a50d33          	sub	s10,a0,s10
   13792:	000d4d03          	lbu	s10,0(s10)
   13796:	9dda                	add	s11,s11,s6
   13798:	00274b03          	lbu	s6,2(a4)
   1379c:	9d6e                	add	s10,s10,s11
   1379e:	00374d83          	lbu	s11,3(a4)
   137a2:	41650b33          	sub	s6,a0,s6
   137a6:	000b4b03          	lbu	s6,0(s6)
   137aa:	41b50db3          	sub	s11,a0,s11
   137ae:	000dcd83          	lbu	s11,0(s11)
   137b2:	9b6a                	add	s6,s6,s10
   137b4:	00474d03          	lbu	s10,4(a4)
   137b8:	9dda                	add	s11,s11,s6
   137ba:	00574b03          	lbu	s6,5(a4)
   137be:	41a50d33          	sub	s10,a0,s10
   137c2:	000d4d03          	lbu	s10,0(s10)
   137c6:	41650b33          	sub	s6,a0,s6
   137ca:	000b4b03          	lbu	s6,0(s6)
   137ce:	9d6e                	add	s10,s10,s11
   137d0:	00674d83          	lbu	s11,6(a4)
   137d4:	9b6a                	add	s6,s6,s10
   137d6:	00484d03          	lbu	s10,4(a6)
   137da:	41b50db3          	sub	s11,a0,s11
   137de:	000dcd83          	lbu	s11,0(s11)
   137e2:	41a50d33          	sub	s10,a0,s10
   137e6:	000d4d03          	lbu	s10,0(s10)
   137ea:	9dda                	add	s11,s11,s6
   137ec:	00584b03          	lbu	s6,5(a6)
   137f0:	9d6e                	add	s10,s10,s11
   137f2:	00684d83          	lbu	s11,6(a6)
   137f6:	41650b33          	sub	s6,a0,s6
   137fa:	000b4b03          	lbu	s6,0(s6)
   137fe:	41b50db3          	sub	s11,a0,s11
   13802:	000dcd83          	lbu	s11,0(s11)
   13806:	9b6a                	add	s6,s6,s10
   13808:	9b6e                	add	s6,s6,s11
   1380a:	148b5863          	bge	s6,s0,1395a <susan_corners_quick+0x308>
   1380e:	00884d03          	lbu	s10,8(a6)
   13812:	41a50d33          	sub	s10,a0,s10
   13816:	000d4d03          	lbu	s10,0(s10)
   1381a:	9b6a                	add	s6,s6,s10
   1381c:	128b5f63          	bge	s6,s0,1395a <susan_corners_quick+0x308>
   13820:	00984d03          	lbu	s10,9(a6)
   13824:	41a50d33          	sub	s10,a0,s10
   13828:	000d4d03          	lbu	s10,0(s10)
   1382c:	9b6a                	add	s6,s6,s10
   1382e:	128b5663          	bge	s6,s0,1395a <susan_corners_quick+0x308>
   13832:	00a84d03          	lbu	s10,10(a6)
   13836:	41a50d33          	sub	s10,a0,s10
   1383a:	000d4d03          	lbu	s10,0(s10)
   1383e:	9b6a                	add	s6,s6,s10
   13840:	108b5d63          	bge	s6,s0,1395a <susan_corners_quick+0x308>
   13844:	000fcd03          	lbu	s10,0(t6)
   13848:	41a50d33          	sub	s10,a0,s10
   1384c:	000d4d03          	lbu	s10,0(s10)
   13850:	9b6a                	add	s6,s6,s10
   13852:	108b5463          	bge	s6,s0,1395a <susan_corners_quick+0x308>
   13856:	001fcd03          	lbu	s10,1(t6)
   1385a:	41a50d33          	sub	s10,a0,s10
   1385e:	000d4d03          	lbu	s10,0(s10)
   13862:	9b6a                	add	s6,s6,s10
   13864:	0e8b5b63          	bge	s6,s0,1395a <susan_corners_quick+0x308>
   13868:	002fcd03          	lbu	s10,2(t6)
   1386c:	41a50d33          	sub	s10,a0,s10
   13870:	000d4d03          	lbu	s10,0(s10)
   13874:	9b6a                	add	s6,s6,s10
   13876:	0e8b5263          	bge	s6,s0,1395a <susan_corners_quick+0x308>
   1387a:	003fcd03          	lbu	s10,3(t6)
   1387e:	41a50d33          	sub	s10,a0,s10
   13882:	000d4d03          	lbu	s10,0(s10)
   13886:	9d5a                	add	s10,s10,s6
   13888:	0c8d5963          	bge	s10,s0,1395a <susan_corners_quick+0x308>
   1388c:	004fcb03          	lbu	s6,4(t6)
   13890:	41650b33          	sub	s6,a0,s6
   13894:	000b4b03          	lbu	s6,0(s6)
   13898:	9d5a                	add	s10,s10,s6
   1389a:	0c8d5063          	bge	s10,s0,1395a <susan_corners_quick+0x308>
   1389e:	005fcb03          	lbu	s6,5(t6)
   138a2:	41650b33          	sub	s6,a0,s6
   138a6:	000b4b03          	lbu	s6,0(s6)
   138aa:	9d5a                	add	s10,s10,s6
   138ac:	0a8d5763          	bge	s10,s0,1395a <susan_corners_quick+0x308>
   138b0:	006fcb03          	lbu	s6,6(t6)
   138b4:	41650b33          	sub	s6,a0,s6
   138b8:	000b4b03          	lbu	s6,0(s6)
   138bc:	9d5a                	add	s10,s10,s6
   138be:	088d5e63          	bge	s10,s0,1395a <susan_corners_quick+0x308>
   138c2:	0052cb03          	lbu	s6,5(t0)
   138c6:	41650b33          	sub	s6,a0,s6
   138ca:	000b4b03          	lbu	s6,0(s6)
   138ce:	9d5a                	add	s10,s10,s6
   138d0:	088d5563          	bge	s10,s0,1395a <susan_corners_quick+0x308>
   138d4:	0062cb03          	lbu	s6,6(t0)
   138d8:	41650b33          	sub	s6,a0,s6
   138dc:	000b4b03          	lbu	s6,0(s6)
   138e0:	9d5a                	add	s10,s10,s6
   138e2:	068d5c63          	bge	s10,s0,1395a <susan_corners_quick+0x308>
   138e6:	0072cb03          	lbu	s6,7(t0)
   138ea:	41650b33          	sub	s6,a0,s6
   138ee:	000b4b03          	lbu	s6,0(s6)
   138f2:	9d5a                	add	s10,s10,s6
   138f4:	068d5363          	bge	s10,s0,1395a <susan_corners_quick+0x308>
   138f8:	0082cb03          	lbu	s6,8(t0)
   138fc:	41650b33          	sub	s6,a0,s6
   13900:	000b4b03          	lbu	s6,0(s6)
   13904:	9d5a                	add	s10,s10,s6
   13906:	048d5a63          	bge	s10,s0,1395a <susan_corners_quick+0x308>
   1390a:	0092cb03          	lbu	s6,9(t0)
   1390e:	41650b33          	sub	s6,a0,s6
   13912:	000b4b03          	lbu	s6,0(s6)
   13916:	9d5a                	add	s10,s10,s6
   13918:	048d5163          	bge	s10,s0,1395a <susan_corners_quick+0x308>
   1391c:	0003cb03          	lbu	s6,0(t2)
   13920:	41650b33          	sub	s6,a0,s6
   13924:	000b4b03          	lbu	s6,0(s6)
   13928:	9d5a                	add	s10,s10,s6
   1392a:	028d5863          	bge	s10,s0,1395a <susan_corners_quick+0x308>
   1392e:	0013cb03          	lbu	s6,1(t2)
   13932:	41650b33          	sub	s6,a0,s6
   13936:	000b4b03          	lbu	s6,0(s6)
   1393a:	9d5a                	add	s10,s10,s6
   1393c:	008d5f63          	bge	s10,s0,1395a <susan_corners_quick+0x308>
   13940:	0023cb03          	lbu	s6,2(t2)
   13944:	41650533          	sub	a0,a0,s6
   13948:	00054503          	lbu	a0,0(a0)
   1394c:	956a                	add	a0,a0,s10
   1394e:	00855663          	bge	a0,s0,1395a <susan_corners_quick+0x308>
   13952:	40a40533          	sub	a0,s0,a0
   13956:	00af2e23          	sw	a0,28(t5)
   1395a:	0585                	addi	a1,a1,1
   1395c:	0605                	addi	a2,a2,1
   1395e:	0705                	addi	a4,a4,1
   13960:	0805                	addi	a6,a6,1
   13962:	0f11                	addi	t5,t5,4
   13964:	0385                	addi	t2,t2,1
   13966:	0285                	addi	t0,t0,1
   13968:	0f85                	addi	t6,t6,1
   1396a:	d8b49be3          	bne	s1,a1,13700 <susan_corners_quick+0xae>
   1396e:	4b12                	lw	s6,4(sp)
   13970:	4722                	lw	a4,8(sp)
   13972:	94ca                	add	s1,s1,s2
   13974:	0b05                	addi	s6,s6,1
   13976:	99ca                	add	s3,s3,s2
   13978:	96ca                	add	a3,a3,s2
   1397a:	d6eb10e3          	bne	s6,a4,136da <susan_corners_quick+0x88>
   1397e:	873e                	mv	a4,a5
   13980:	8dda                	mv	s11,s6
   13982:	8f1a                	mv	t5,t1
   13984:	87f6                	mv	a5,t4
   13986:	41200633          	neg	a2,s2
   1398a:	00461813          	slli	a6,a2,0x4
   1398e:	012f06b3          	add	a3,t5,s2
   13992:	012785b3          	add	a1,a5,s2
   13996:	82be                	mv	t0,a5
   13998:	00261b93          	slli	s7,a2,0x2
   1399c:	010887b3          	add	a5,a7,a6
   139a0:	005a0c93          	addi	s9,s4,5
   139a4:	ff990413          	addi	s0,s2,-7
   139a8:	974a                	add	a4,a4,s2
   139aa:	01788333          	add	t1,a7,s7
   139ae:	00269513          	slli	a0,a3,0x2
   139b2:	c83e                	sw	a5,16(sp)
   139b4:	005887b3          	add	a5,a7,t0
   139b8:	c66e                	sw	s11,12(sp)
   139ba:	89a2                	mv	s3,s0
   139bc:	01030b13          	addi	s6,t1,16
   139c0:	83b6                	mv	t2,a3
   139c2:	012c8d33          	add	s10,s9,s2
   139c6:	412c8fb3          	sub	t6,s9,s2
   139ca:	ca3e                	sw	a5,20(sp)
   139cc:	ce02                	sw	zero,28(sp)
   139ce:	00371c13          	slli	s8,a4,0x3
   139d2:	00561d93          	slli	s11,a2,0x5
   139d6:	00259493          	slli	s1,a1,0x2
   139da:	4a9d                	li	s5,7
   139dc:	847a                	mv	s0,t5
   139de:	40a00a33          	neg	s4,a0
   139e2:	47b9                	li	a5,14
   139e4:	4b27d663          	bge	a5,s2,13e90 <susan_corners_quick+0x83e>
   139e8:	47d2                	lw	a5,20(sp)
   139ea:	41bb0733          	sub	a4,s6,s11
   139ee:	007c88b3          	add	a7,s9,t2
   139f2:	41b78eb3          	sub	t4,a5,s11
   139f6:	47c2                	lw	a5,16(sp)
   139f8:	007d0833          	add	a6,s10,t2
   139fc:	005f8333          	add	t1,t6,t0
   13a00:	005c8533          	add	a0,s9,t0
   13a04:	005d05b3          	add	a1,s10,t0
   13a08:	009b0e33          	add	t3,s6,s1
   13a0c:	018b0633          	add	a2,s6,s8
   13a10:	41b787b3          	sub	a5,a5,s11
   13a14:	469d                	li	a3,7
   13a16:	c216                	sw	t0,4(sp)
   13a18:	c47e                	sw	t6,8(sp)
   13a1a:	00c72f03          	lw	t5,12(a4)
   13a1e:	45e05a63          	blez	t5,13e72 <susan_corners_quick+0x820>
   13a22:	0107af83          	lw	t6,16(a5)
   13a26:	45efd663          	bge	t6,t5,13e72 <susan_corners_quick+0x820>
   13a2a:	0147af83          	lw	t6,20(a5)
   13a2e:	45efd263          	bge	t6,t5,13e72 <susan_corners_quick+0x820>
   13a32:	0187af83          	lw	t6,24(a5)
   13a36:	43efde63          	bge	t6,t5,13e72 <susan_corners_quick+0x820>
   13a3a:	01c7af83          	lw	t6,28(a5)
   13a3e:	43efda63          	bge	t6,t5,13e72 <susan_corners_quick+0x820>
   13a42:	0207af83          	lw	t6,32(a5)
   13a46:	43efd663          	bge	t6,t5,13e72 <susan_corners_quick+0x820>
   13a4a:	0247af83          	lw	t6,36(a5)
   13a4e:	43efd263          	bge	t6,t5,13e72 <susan_corners_quick+0x820>
   13a52:	0287af83          	lw	t6,40(a5)
   13a56:	41efde63          	bge	t6,t5,13e72 <susan_corners_quick+0x820>
   13a5a:	00062f83          	lw	t6,0(a2)
   13a5e:	41efda63          	bge	t6,t5,13e72 <susan_corners_quick+0x820>
   13a62:	00462f83          	lw	t6,4(a2)
   13a66:	41efd663          	bge	t6,t5,13e72 <susan_corners_quick+0x820>
   13a6a:	00862f83          	lw	t6,8(a2)
   13a6e:	41efd263          	bge	t6,t5,13e72 <susan_corners_quick+0x820>
   13a72:	00c62f83          	lw	t6,12(a2)
   13a76:	3fefde63          	bge	t6,t5,13e72 <susan_corners_quick+0x820>
   13a7a:	01062f83          	lw	t6,16(a2)
   13a7e:	3fefda63          	bge	t6,t5,13e72 <susan_corners_quick+0x820>
   13a82:	01462f83          	lw	t6,20(a2)
   13a86:	3fefd663          	bge	t6,t5,13e72 <susan_corners_quick+0x820>
   13a8a:	01862f83          	lw	t6,24(a2)
   13a8e:	3fefd263          	bge	t6,t5,13e72 <susan_corners_quick+0x820>
   13a92:	00ca0fb3          	add	t6,s4,a2
   13a96:	9fe2                	add	t6,t6,s8
   13a98:	000fa283          	lw	t0,0(t6)
   13a9c:	3de2db63          	bge	t0,t5,13e72 <susan_corners_quick+0x820>
   13aa0:	004fa283          	lw	t0,4(t6)
   13aa4:	3de2d763          	bge	t0,t5,13e72 <susan_corners_quick+0x820>
   13aa8:	008fa283          	lw	t0,8(t6)
   13aac:	3de2d363          	bge	t0,t5,13e72 <susan_corners_quick+0x820>
   13ab0:	00cfa283          	lw	t0,12(t6)
   13ab4:	3be2df63          	bge	t0,t5,13e72 <susan_corners_quick+0x820>
   13ab8:	010fa283          	lw	t0,16(t6)
   13abc:	3be2db63          	bge	t0,t5,13e72 <susan_corners_quick+0x820>
   13ac0:	014fa283          	lw	t0,20(t6)
   13ac4:	3be2d763          	bge	t0,t5,13e72 <susan_corners_quick+0x820>
   13ac8:	018faf83          	lw	t6,24(t6)
   13acc:	3befd363          	bge	t6,t5,13e72 <susan_corners_quick+0x820>
   13ad0:	00072f83          	lw	t6,0(a4)
   13ad4:	39efdf63          	bge	t6,t5,13e72 <susan_corners_quick+0x820>
   13ad8:	00472f83          	lw	t6,4(a4)
   13adc:	39efdb63          	bge	t6,t5,13e72 <susan_corners_quick+0x820>
   13ae0:	00872f83          	lw	t6,8(a4)
   13ae4:	39efd763          	bge	t6,t5,13e72 <susan_corners_quick+0x820>
   13ae8:	01072f83          	lw	t6,16(a4)
   13aec:	39ff4363          	blt	t5,t6,13e72 <susan_corners_quick+0x820>
   13af0:	01472f83          	lw	t6,20(a4)
   13af4:	37ff4f63          	blt	t5,t6,13e72 <susan_corners_quick+0x820>
   13af8:	01872f83          	lw	t6,24(a4)
   13afc:	37ff4b63          	blt	t5,t6,13e72 <susan_corners_quick+0x820>
   13b00:	000e2f83          	lw	t6,0(t3)
   13b04:	37ff4763          	blt	t5,t6,13e72 <susan_corners_quick+0x820>
   13b08:	004e2f83          	lw	t6,4(t3)
   13b0c:	37ff4363          	blt	t5,t6,13e72 <susan_corners_quick+0x820>
   13b10:	008e2f83          	lw	t6,8(t3)
   13b14:	35ff4f63          	blt	t5,t6,13e72 <susan_corners_quick+0x820>
   13b18:	00ce2f83          	lw	t6,12(t3)
   13b1c:	35ff4b63          	blt	t5,t6,13e72 <susan_corners_quick+0x820>
   13b20:	010e2f83          	lw	t6,16(t3)
   13b24:	35ff4763          	blt	t5,t6,13e72 <susan_corners_quick+0x820>
   13b28:	014e2f83          	lw	t6,20(t3)
   13b2c:	35ff4363          	blt	t5,t6,13e72 <susan_corners_quick+0x820>
   13b30:	018e2f83          	lw	t6,24(t3)
   13b34:	33ff4f63          	blt	t5,t6,13e72 <susan_corners_quick+0x820>
   13b38:	01cd8fb3          	add	t6,s11,t3
   13b3c:	9fa6                	add	t6,t6,s1
   13b3e:	000fa283          	lw	t0,0(t6)
   13b42:	325f4863          	blt	t5,t0,13e72 <susan_corners_quick+0x820>
   13b46:	004fa283          	lw	t0,4(t6)
   13b4a:	325f4463          	blt	t5,t0,13e72 <susan_corners_quick+0x820>
   13b4e:	008fa283          	lw	t0,8(t6)
   13b52:	325f4063          	blt	t5,t0,13e72 <susan_corners_quick+0x820>
   13b56:	00cfa283          	lw	t0,12(t6)
   13b5a:	305f4c63          	blt	t5,t0,13e72 <susan_corners_quick+0x820>
   13b5e:	010fa283          	lw	t0,16(t6)
   13b62:	305f4863          	blt	t5,t0,13e72 <susan_corners_quick+0x820>
   13b66:	014fa283          	lw	t0,20(t6)
   13b6a:	305f4463          	blt	t5,t0,13e72 <susan_corners_quick+0x820>
   13b6e:	018faf83          	lw	t6,24(t6)
   13b72:	31ff4063          	blt	t5,t6,13e72 <susan_corners_quick+0x820>
   13b76:	010eaf83          	lw	t6,16(t4)
   13b7a:	2fff4c63          	blt	t5,t6,13e72 <susan_corners_quick+0x820>
   13b7e:	014eaf83          	lw	t6,20(t4)
   13b82:	2fff4863          	blt	t5,t6,13e72 <susan_corners_quick+0x820>
   13b86:	018eaf83          	lw	t6,24(t4)
   13b8a:	2fff4463          	blt	t5,t6,13e72 <susan_corners_quick+0x820>
   13b8e:	01ceaf83          	lw	t6,28(t4)
   13b92:	2fff4063          	blt	t5,t6,13e72 <susan_corners_quick+0x820>
   13b96:	020eaf83          	lw	t6,32(t4)
   13b9a:	2dff4c63          	blt	t5,t6,13e72 <susan_corners_quick+0x820>
   13b9e:	024eaf83          	lw	t6,36(t4)
   13ba2:	2dff4863          	blt	t5,t6,13e72 <susan_corners_quick+0x820>
   13ba6:	028eaf83          	lw	t6,40(t4)
   13baa:	2dff4463          	blt	t5,t6,13e72 <susan_corners_quick+0x820>
   13bae:	4ff2                	lw	t6,28(sp)
   13bb0:	4f61                	li	t5,24
   13bb2:	6291                	lui	t0,0x4
   13bb4:	03ef8f33          	mul	t5,t6,t5
   13bb8:	0f85                	addi	t6,t6,1
   13bba:	ce7e                	sw	t6,28(sp)
   13bbc:	4fe2                	lw	t6,24(sp)
   13bbe:	a9828293          	addi	t0,t0,-1384 # 3a98 <exit-0xc61c>
   13bc2:	d696                	sw	t0,108(sp)
   13bc4:	9ffa                	add	t6,t6,t5
   13bc6:	000fa423          	sw	zero,8(t6)
   13bca:	00dfa023          	sw	a3,0(t6)
   13bce:	015fa223          	sw	s5,4(t6)
   13bd2:	0008cf03          	lbu	t5,0(a7)
   13bd6:	0018c283          	lbu	t0,1(a7)
   13bda:	d07a                	sw	t5,32(sp)
   13bdc:	0028cf03          	lbu	t5,2(a7)
   13be0:	d27a                	sw	t5,36(sp)
   13be2:	0038cf03          	lbu	t5,3(a7)
   13be6:	d47a                	sw	t5,40(sp)
   13be8:	5f02                	lw	t5,32(sp)
   13bea:	9f16                	add	t5,t5,t0
   13bec:	5292                	lw	t0,36(sp)
   13bee:	9f16                	add	t5,t5,t0
   13bf0:	52a2                	lw	t0,40(sp)
   13bf2:	9f16                	add	t5,t5,t0
   13bf4:	d07a                	sw	t5,32(sp)
   13bf6:	00084f03          	lbu	t5,0(a6)
   13bfa:	0048c283          	lbu	t0,4(a7)
   13bfe:	d27a                	sw	t5,36(sp)
   13c00:	00184f03          	lbu	t5,1(a6)
   13c04:	d47a                	sw	t5,40(sp)
   13c06:	5f02                	lw	t5,32(sp)
   13c08:	9f16                	add	t5,t5,t0
   13c0a:	5292                	lw	t0,36(sp)
   13c0c:	9f16                	add	t5,t5,t0
   13c0e:	52a2                	lw	t0,40(sp)
   13c10:	9f16                	add	t5,t5,t0
   13c12:	d07a                	sw	t5,32(sp)
   13c14:	00384f03          	lbu	t5,3(a6)
   13c18:	00284283          	lbu	t0,2(a6)
   13c1c:	d27a                	sw	t5,36(sp)
   13c1e:	00484f03          	lbu	t5,4(a6)
   13c22:	d47a                	sw	t5,40(sp)
   13c24:	5f02                	lw	t5,32(sp)
   13c26:	9f16                	add	t5,t5,t0
   13c28:	5292                	lw	t0,36(sp)
   13c2a:	9f16                	add	t5,t5,t0
   13c2c:	52a2                	lw	t0,40(sp)
   13c2e:	9f16                	add	t5,t5,t0
   13c30:	d07a                	sw	t5,32(sp)
   13c32:	00134f03          	lbu	t5,1(t1)
   13c36:	00034283          	lbu	t0,0(t1)
   13c3a:	d27a                	sw	t5,36(sp)
   13c3c:	00234f03          	lbu	t5,2(t1)
   13c40:	d47a                	sw	t5,40(sp)
   13c42:	5f02                	lw	t5,32(sp)
   13c44:	9f16                	add	t5,t5,t0
   13c46:	5292                	lw	t0,36(sp)
   13c48:	9f16                	add	t5,t5,t0
   13c4a:	52a2                	lw	t0,40(sp)
   13c4c:	9f16                	add	t5,t5,t0
   13c4e:	d07a                	sw	t5,32(sp)
   13c50:	00434f03          	lbu	t5,4(t1)
   13c54:	00334283          	lbu	t0,3(t1)
   13c58:	d27a                	sw	t5,36(sp)
   13c5a:	00054f03          	lbu	t5,0(a0)
   13c5e:	d47a                	sw	t5,40(sp)
   13c60:	5f02                	lw	t5,32(sp)
   13c62:	9f16                	add	t5,t5,t0
   13c64:	5292                	lw	t0,36(sp)
   13c66:	9f16                	add	t5,t5,t0
   13c68:	52a2                	lw	t0,40(sp)
   13c6a:	9f16                	add	t5,t5,t0
   13c6c:	d07a                	sw	t5,32(sp)
   13c6e:	00254f03          	lbu	t5,2(a0)
   13c72:	00154283          	lbu	t0,1(a0)
   13c76:	d27a                	sw	t5,36(sp)
   13c78:	00354f03          	lbu	t5,3(a0)
   13c7c:	d47a                	sw	t5,40(sp)
   13c7e:	5f02                	lw	t5,32(sp)
   13c80:	9f16                	add	t5,t5,t0
   13c82:	5292                	lw	t0,36(sp)
   13c84:	9f16                	add	t5,t5,t0
   13c86:	52a2                	lw	t0,40(sp)
   13c88:	9f16                	add	t5,t5,t0
   13c8a:	d07a                	sw	t5,32(sp)
   13c8c:	00454283          	lbu	t0,4(a0)
   13c90:	0005cf03          	lbu	t5,0(a1)
   13c94:	cafe                	sw	t6,84(sp)
   13c96:	d27a                	sw	t5,36(sp)
   13c98:	0015cf03          	lbu	t5,1(a1)
   13c9c:	d47a                	sw	t5,40(sp)
   13c9e:	5f02                	lw	t5,32(sp)
   13ca0:	9f16                	add	t5,t5,t0
   13ca2:	5292                	lw	t0,36(sp)
   13ca4:	9f16                	add	t5,t5,t0
   13ca6:	52a2                	lw	t0,40(sp)
   13ca8:	9f16                	add	t5,t5,t0
   13caa:	d07a                	sw	t5,32(sp)
   13cac:	0035cf03          	lbu	t5,3(a1)
   13cb0:	0025c283          	lbu	t0,2(a1)
   13cb4:	d27a                	sw	t5,36(sp)
   13cb6:	0045cf03          	lbu	t5,4(a1)
   13cba:	d47a                	sw	t5,40(sp)
   13cbc:	5f02                	lw	t5,32(sp)
   13cbe:	9f16                	add	t5,t5,t0
   13cc0:	5292                	lw	t0,36(sp)
   13cc2:	9f16                	add	t5,t5,t0
   13cc4:	52a2                	lw	t0,40(sp)
   13cc6:	9f16                	add	t5,t5,t0
   13cc8:	42e5                	li	t0,25
   13cca:	025f4f33          	div	t5,t5,t0
   13cce:	01efaa23          	sw	t5,20(t6)
   13cd2:	00484f03          	lbu	t5,4(a6)
   13cd6:	00084f83          	lbu	t6,0(a6)
   13cda:	0048c283          	lbu	t0,4(a7)
   13cde:	d27a                	sw	t5,36(sp)
   13ce0:	00454f03          	lbu	t5,4(a0)
   13ce4:	d67e                	sw	t6,44(sp)
   13ce6:	0005cf83          	lbu	t6,0(a1)
   13cea:	d47a                	sw	t5,40(sp)
   13cec:	0045cf03          	lbu	t5,4(a1)
   13cf0:	d016                	sw	t0,32(sp)
   13cf2:	c4fe                	sw	t6,72(sp)
   13cf4:	dc7a                	sw	t5,56(sp)
   13cf6:	0008cf03          	lbu	t5,0(a7)
   13cfa:	de7a                	sw	t5,60(sp)
   13cfc:	0018cf83          	lbu	t6,1(a7)
   13d00:	0015cf03          	lbu	t5,1(a1)
   13d04:	0035c283          	lbu	t0,3(a1)
   13d08:	c2fe                	sw	t6,68(sp)
   13d0a:	c6fa                	sw	t5,76(sp)
   13d0c:	00034f03          	lbu	t5,0(t1)
   13d10:	c096                	sw	t0,64(sp)
   13d12:	5282                	lw	t0,32(sp)
   13d14:	ccfa                	sw	t5,88(sp)
   13d16:	00054f03          	lbu	t5,0(a0)
   13d1a:	00434f83          	lbu	t6,4(t1)
   13d1e:	d87a                	sw	t5,48(sp)
   13d20:	0038cf03          	lbu	t5,3(a7)
   13d24:	da7a                	sw	t5,52(sp)
   13d26:	5f12                	lw	t5,36(sp)
   13d28:	9f16                	add	t5,t5,t0
   13d2a:	9f7e                	add	t5,t5,t6
   13d2c:	52f2                	lw	t0,60(sp)
   13d2e:	5fb2                	lw	t6,44(sp)
   13d30:	c8fa                	sw	t5,80(sp)
   13d32:	01f28f33          	add	t5,t0,t6
   13d36:	4fe6                	lw	t6,88(sp)
   13d38:	9f7e                	add	t5,t5,t6
   13d3a:	4f96                	lw	t6,68(sp)
   13d3c:	ccfa                	sw	t5,88(sp)
   13d3e:	01f28f33          	add	t5,t0,t6
   13d42:	4fa6                	lw	t6,72(sp)
   13d44:	42b6                	lw	t0,76(sp)
   13d46:	d2fa                	sw	t5,100(sp)
   13d48:	4f46                	lw	t5,80(sp)
   13d4a:	92fe                	add	t0,t0,t6
   13d4c:	d096                	sw	t0,96(sp)
   13d4e:	52a2                	lw	t0,40(sp)
   13d50:	9f16                	add	t5,t5,t0
   13d52:	de7a                	sw	t5,60(sp)
   13d54:	52c2                	lw	t0,48(sp)
   13d56:	4f66                	lw	t5,88(sp)
   13d58:	9f16                	add	t5,t5,t0
   13d5a:	9f7e                	add	t5,t5,t6
   13d5c:	52e2                	lw	t0,56(sp)
   13d5e:	5ff2                	lw	t6,60(sp)
   13d60:	9f96                	add	t6,t6,t0
   13d62:	41ef8fb3          	sub	t6,t6,t5
   13d66:	00384f03          	lbu	t5,3(a6)
   13d6a:	c8fe                	sw	t6,80(sp)
   13d6c:	dc7a                	sw	t5,56(sp)
   13d6e:	00184f03          	lbu	t5,1(a6)
   13d72:	c4fa                	sw	t5,72(sp)
   13d74:	00334f03          	lbu	t5,3(t1)
   13d78:	de7a                	sw	t5,60(sp)
   13d7a:	5f52                	lw	t5,52(sp)
   13d7c:	9f7e                	add	t5,t5,t6
   13d7e:	5fe2                	lw	t6,56(sp)
   13d80:	9f7e                	add	t5,t5,t6
   13d82:	5ff2                	lw	t6,60(sp)
   13d84:	9f7e                	add	t5,t5,t6
   13d86:	ccfa                	sw	t5,88(sp)
   13d88:	00354f03          	lbu	t5,3(a0)
   13d8c:	4f96                	lw	t6,68(sp)
   13d8e:	de7a                	sw	t5,60(sp)
   13d90:	4f26                	lw	t5,72(sp)
   13d92:	9f7e                	add	t5,t5,t6
   13d94:	cefa                	sw	t5,92(sp)
   13d96:	5fb2                	lw	t6,44(sp)
   13d98:	4f26                	lw	t5,72(sp)
   13d9a:	9ffa                	add	t6,t6,t5
   13d9c:	00134f03          	lbu	t5,1(t1)
   13da0:	d4fe                	sw	t6,104(sp)
   13da2:	4fe6                	lw	t6,88(sp)
   13da4:	d67a                	sw	t5,44(sp)
   13da6:	5f72                	lw	t5,60(sp)
   13da8:	9f7e                	add	t5,t5,t6
   13daa:	4f86                	lw	t6,64(sp)
   13dac:	9f7e                	add	t5,t5,t6
   13dae:	c2fa                	sw	t5,68(sp)
   13db0:	5fb2                	lw	t6,44(sp)
   13db2:	4f76                	lw	t5,92(sp)
   13db4:	9f7e                	add	t5,t5,t6
   13db6:	00154f83          	lbu	t6,1(a0)
   13dba:	d67e                	sw	t6,44(sp)
   13dbc:	9f7e                	add	t5,t5,t6
   13dbe:	4fb6                	lw	t6,76(sp)
   13dc0:	9f7e                	add	t5,t5,t6
   13dc2:	4f96                	lw	t6,68(sp)
   13dc4:	41ef8f33          	sub	t5,t6,t5
   13dc8:	4fc6                	lw	t6,80(sp)
   13dca:	9f7e                	add	t5,t5,t6
   13dcc:	0025cf83          	lbu	t6,2(a1)
   13dd0:	c2fe                	sw	t6,68(sp)
   13dd2:	4fbd                	li	t6,15
   13dd4:	03ff4f33          	div	t5,t5,t6
   13dd8:	5f86                	lw	t6,96(sp)
   13dda:	c6fa                	sw	t5,76(sp)
   13ddc:	0028cf03          	lbu	t5,2(a7)
   13de0:	c4fa                	sw	t5,72(sp)
   13de2:	4f16                	lw	t5,68(sp)
   13de4:	9f7e                	add	t5,t5,t6
   13de6:	4f86                	lw	t6,64(sp)
   13de8:	9f7e                	add	t5,t5,t6
   13dea:	c0fa                	sw	t5,64(sp)
   13dec:	5f96                	lw	t6,100(sp)
   13dee:	4f26                	lw	t5,72(sp)
   13df0:	9f7e                	add	t5,t5,t6
   13df2:	5fd2                	lw	t6,52(sp)
   13df4:	9f7e                	add	t5,t5,t6
   13df6:	4f86                	lw	t6,64(sp)
   13df8:	9f96                	add	t6,t6,t0
   13dfa:	5282                	lw	t0,32(sp)
   13dfc:	9f16                	add	t5,t5,t0
   13dfe:	41ef82b3          	sub	t0,t6,t5
   13e02:	00254f03          	lbu	t5,2(a0)
   13e06:	5fc2                	lw	t6,48(sp)
   13e08:	d016                	sw	t0,32(sp)
   13e0a:	da7a                	sw	t5,52(sp)
   13e0c:	00284f03          	lbu	t5,2(a6)
   13e10:	c0fa                	sw	t5,64(sp)
   13e12:	005f8f33          	add	t5,t6,t0
   13e16:	5fb2                	lw	t6,44(sp)
   13e18:	4286                	lw	t0,64(sp)
   13e1a:	9f7e                	add	t5,t5,t6
   13e1c:	5fd2                	lw	t6,52(sp)
   13e1e:	9f7e                	add	t5,t5,t6
   13e20:	5fa6                	lw	t6,104(sp)
   13e22:	92fe                	add	t0,t0,t6
   13e24:	5ff2                	lw	t6,60(sp)
   13e26:	9f7e                	add	t5,t5,t6
   13e28:	5fe2                	lw	t6,56(sp)
   13e2a:	9f96                	add	t6,t6,t0
   13e2c:	52a2                	lw	t0,40(sp)
   13e2e:	9f16                	add	t5,t5,t0
   13e30:	5292                	lw	t0,36(sp)
   13e32:	9f96                	add	t6,t6,t0
   13e34:	5282                	lw	t0,32(sp)
   13e36:	41ff0f33          	sub	t5,t5,t6
   13e3a:	4fbd                	li	t6,15
   13e3c:	9f16                	add	t5,t5,t0
   13e3e:	03ff4f33          	div	t5,t5,t6
   13e42:	42b6                	lw	t0,76(sp)
   13e44:	4fd6                	lw	t6,84(sp)
   13e46:	005fa623          	sw	t0,12(t6)
   13e4a:	01efa823          	sw	t5,16(t6)
   13e4e:	4f72                	lw	t5,28(sp)
   13e50:	52b6                	lw	t0,108(sp)
   13e52:	025f1063          	bne	t5,t0,13e72 <susan_corners_quick+0x820>
   13e56:	fe41a783          	lw	a5,-28(gp) # 237f4 <_impure_ptr>
   13e5a:	00021537          	lui	a0,0x21
   13e5e:	4ac50513          	addi	a0,a0,1196 # 214ac <__clzsi2+0x54e>
   13e62:	47d4                	lw	a3,12(a5)
   13e64:	4649                	li	a2,18
   13e66:	4585                	li	a1,1
   13e68:	18d020ef          	jal	167f4 <fwrite>
   13e6c:	4505                	li	a0,1
   13e6e:	a46fc0ef          	jal	100b4 <exit>
   13e72:	0685                	addi	a3,a3,1
   13e74:	0711                	addi	a4,a4,4
   13e76:	0885                	addi	a7,a7,1
   13e78:	0805                	addi	a6,a6,1
   13e7a:	0305                	addi	t1,t1,1
   13e7c:	0505                	addi	a0,a0,1
   13e7e:	0585                	addi	a1,a1,1
   13e80:	0e91                	addi	t4,t4,4
   13e82:	0e11                	addi	t3,t3,4
   13e84:	0611                	addi	a2,a2,4
   13e86:	0791                	addi	a5,a5,4
   13e88:	b93699e3          	bne	a3,s3,13a1a <susan_corners_quick+0x3c8>
   13e8c:	4292                	lw	t0,4(sp)
   13e8e:	4fa2                	lw	t6,8(sp)
   13e90:	47b2                	lw	a5,12(sp)
   13e92:	0a85                	addi	s5,s5,1
   13e94:	9dde                	add	s11,s11,s7
   13e96:	94a2                	add	s1,s1,s0
   13e98:	92ca                	add	t0,t0,s2
   13e9a:	9a5e                	add	s4,s4,s7
   13e9c:	9c22                	add	s8,s8,s0
