
./susan_O0:     file format elf32-littleriscv


Disassembly of section .text:

000100b4 <exit>:
   100b4:	1141                	addi	sp,sp,-16
   100b6:	4581                	li	a1,0
   100b8:	c422                	sw	s0,8(sp)
   100ba:	c606                	sw	ra,12(sp)
   100bc:	842a                	mv	s0,a0
   100be:	3580d0ef          	jal	1d416 <__call_exitprocs>
   100c2:	fbc1a783          	lw	a5,-68(gp) # 29c6c <__stdio_exit_handler>
   100c6:	c391                	beqz	a5,100ca <exit+0x16>
   100c8:	9782                	jalr	a5
   100ca:	8522                	mv	a0,s0
   100cc:	5ca140ef          	jal	24696 <_exit>

000100d0 <register_fini>:
   100d0:	00000793          	li	a5,0
   100d4:	c799                	beqz	a5,100e2 <register_fini+0x12>
   100d6:	00021537          	lui	a0,0x21
   100da:	65850513          	addi	a0,a0,1624 # 21658 <__libc_fini_array>
   100de:	4060d06f          	j	1d4e4 <atexit>
   100e2:	8082                	ret

000100e4 <_start>:
   100e4:	0001a197          	auipc	gp,0x1a
   100e8:	bcc18193          	addi	gp,gp,-1076 # 29cb0 <__global_pointer$>
   100ec:	0001a517          	auipc	a0,0x1a
   100f0:	b7450513          	addi	a0,a0,-1164 # 29c60 <__malloc_max_total_mem>
   100f4:	0001a617          	auipc	a2,0x1a
   100f8:	e9860613          	addi	a2,a2,-360 # 29f8c <__BSS_END__>
   100fc:	8e09                	sub	a2,a2,a0
   100fe:	4581                	li	a1,0
   10100:	7f90c0ef          	jal	1d0f8 <memset>
   10104:	0000d517          	auipc	a0,0xd
   10108:	3e050513          	addi	a0,a0,992 # 1d4e4 <atexit>
   1010c:	c519                	beqz	a0,1011a <_start+0x36>
   1010e:	00011517          	auipc	a0,0x11
   10112:	54a50513          	addi	a0,a0,1354 # 21658 <__libc_fini_array>
   10116:	3ce0d0ef          	jal	1d4e4 <atexit>
   1011a:	7750c0ef          	jal	1d08e <__libc_init_array>
   1011e:	4502                	lw	a0,0(sp)
   10120:	004c                	addi	a1,sp,4
   10122:	4601                	li	a2,0
   10124:	512090ef          	jal	19636 <main>
   10128:	b771                	j	100b4 <exit>

0001012a <__do_global_dtors_aux>:
   1012a:	1141                	addi	sp,sp,-16
   1012c:	c422                	sw	s0,8(sp)
   1012e:	fd01c783          	lbu	a5,-48(gp) # 29c80 <completed.1>
   10132:	c606                	sw	ra,12(sp)
   10134:	ef99                	bnez	a5,10152 <__do_global_dtors_aux+0x28>
   10136:	00000793          	li	a5,0
   1013a:	cb89                	beqz	a5,1014c <__do_global_dtors_aux+0x22>
   1013c:	00028537          	lui	a0,0x28
   10140:	49c50513          	addi	a0,a0,1180 # 2849c <__EH_FRAME_BEGIN__>
   10144:	00000097          	auipc	ra,0x0
   10148:	000000e7          	jalr	zero # 0 <exit-0x100b4>
   1014c:	4785                	li	a5,1
   1014e:	fcf18823          	sb	a5,-48(gp) # 29c80 <completed.1>
   10152:	40b2                	lw	ra,12(sp)
   10154:	4422                	lw	s0,8(sp)
   10156:	0141                	addi	sp,sp,16
   10158:	8082                	ret

0001015a <frame_dummy>:
   1015a:	00000793          	li	a5,0
   1015e:	cb99                	beqz	a5,10174 <frame_dummy+0x1a>
   10160:	00028537          	lui	a0,0x28
   10164:	fd418593          	addi	a1,gp,-44 # 29c84 <object.0>
   10168:	49c50513          	addi	a0,a0,1180 # 2849c <__EH_FRAME_BEGIN__>
   1016c:	00000317          	auipc	t1,0x0
   10170:	00000067          	jr	zero # 0 <exit-0x100b4>
   10174:	8082                	ret

00010176 <usage>:
   10176:	1141                	addi	sp,sp,-16
   10178:	c606                	sw	ra,12(sp)
   1017a:	c422                	sw	s0,8(sp)
   1017c:	0800                	addi	s0,sp,16
   1017e:	000277b7          	lui	a5,0x27
   10182:	c6078513          	addi	a0,a5,-928 # 26c60 <__clzsi2+0x42>
   10186:	5520c0ef          	jal	1c6d8 <puts>
   1018a:	000277b7          	lui	a5,0x27
   1018e:	c8c78513          	addi	a0,a5,-884 # 26c8c <__clzsi2+0x6e>
   10192:	5460c0ef          	jal	1c6d8 <puts>
   10196:	000277b7          	lui	a5,0x27
   1019a:	cac78513          	addi	a0,a5,-852 # 26cac <__clzsi2+0x8e>
   1019e:	53a0c0ef          	jal	1c6d8 <puts>
   101a2:	000277b7          	lui	a5,0x27
   101a6:	cbc78513          	addi	a0,a5,-836 # 26cbc <__clzsi2+0x9e>
   101aa:	52e0c0ef          	jal	1c6d8 <puts>
   101ae:	000277b7          	lui	a5,0x27
   101b2:	cd078513          	addi	a0,a5,-816 # 26cd0 <__clzsi2+0xb2>
   101b6:	5220c0ef          	jal	1c6d8 <puts>
   101ba:	000277b7          	lui	a5,0x27
   101be:	d1478513          	addi	a0,a5,-748 # 26d14 <__clzsi2+0xf6>
   101c2:	5160c0ef          	jal	1c6d8 <puts>
   101c6:	000277b7          	lui	a5,0x27
   101ca:	d5078513          	addi	a0,a5,-688 # 26d50 <__clzsi2+0x132>
   101ce:	50a0c0ef          	jal	1c6d8 <puts>
   101d2:	000277b7          	lui	a5,0x27
   101d6:	dbc78513          	addi	a0,a5,-580 # 26dbc <__clzsi2+0x19e>
   101da:	4fe0c0ef          	jal	1c6d8 <puts>
   101de:	000277b7          	lui	a5,0x27
   101e2:	dec78513          	addi	a0,a5,-532 # 26dec <__clzsi2+0x1ce>
   101e6:	4f20c0ef          	jal	1c6d8 <puts>
   101ea:	000277b7          	lui	a5,0x27
   101ee:	e3c78513          	addi	a0,a5,-452 # 26e3c <__clzsi2+0x21e>
   101f2:	4e60c0ef          	jal	1c6d8 <puts>
   101f6:	000277b7          	lui	a5,0x27
   101fa:	eac78513          	addi	a0,a5,-340 # 26eac <__clzsi2+0x28e>
   101fe:	4da0c0ef          	jal	1c6d8 <puts>
   10202:	000277b7          	lui	a5,0x27
   10206:	f1878513          	addi	a0,a5,-232 # 26f18 <__clzsi2+0x2fa>
   1020a:	4ce0c0ef          	jal	1c6d8 <puts>
   1020e:	000277b7          	lui	a5,0x27
   10212:	f7478513          	addi	a0,a5,-140 # 26f74 <__clzsi2+0x356>
   10216:	4c20c0ef          	jal	1c6d8 <puts>
   1021a:	4501                	li	a0,0
   1021c:	3d61                	jal	100b4 <exit>

0001021e <getint>:
   1021e:	8c010113          	addi	sp,sp,-1856
   10222:	72112e23          	sw	ra,1852(sp)
   10226:	72812c23          	sw	s0,1848(sp)
   1022a:	74010413          	addi	s0,sp,1856
   1022e:	72f9                	lui	t0,0xffffe
   10230:	9116                	add	sp,sp,t0
   10232:	77f9                	lui	a5,0xffffe
   10234:	17c1                	addi	a5,a5,-16 # ffffdff0 <__BSS_END__+0xfffd4064>
   10236:	97a2                	add	a5,a5,s0
   10238:	8ca7ae23          	sw	a0,-1828(a5)
   1023c:	77f9                	lui	a5,0xffffe
   1023e:	17c1                	addi	a5,a5,-16 # ffffdff0 <__BSS_END__+0xfffd4064>
   10240:	97a2                	add	a5,a5,s0
   10242:	8dc7a503          	lw	a0,-1828(a5)
   10246:	35e0c0ef          	jal	1c5a4 <getc>
   1024a:	fea42623          	sw	a0,-20(s0)
   1024e:	fec42703          	lw	a4,-20(s0)
   10252:	02300793          	li	a5,35
   10256:	02f71263          	bne	a4,a5,1027a <getint+0x5c>
   1025a:	77f9                	lui	a5,0xffffe
   1025c:	17c1                	addi	a5,a5,-16 # ffffdff0 <__BSS_END__+0xfffd4064>
   1025e:	97a2                	add	a5,a5,s0
   10260:	7779                	lui	a4,0xffffe
   10262:	8e870713          	addi	a4,a4,-1816 # ffffd8e8 <__BSS_END__+0xfffd395c>
   10266:	1741                	addi	a4,a4,-16
   10268:	9722                	add	a4,a4,s0
   1026a:	8dc7a603          	lw	a2,-1828(a5)
   1026e:	6789                	lui	a5,0x2
   10270:	32878593          	addi	a1,a5,808 # 2328 <exit-0xdd8c>
   10274:	853a                	mv	a0,a4
   10276:	37b0b0ef          	jal	1bdf0 <fgets>
   1027a:	fec42703          	lw	a4,-20(s0)
   1027e:	57fd                	li	a5,-1
   10280:	02f71263          	bne	a4,a5,102a4 <getint+0x86>
   10284:	fac1a783          	lw	a5,-84(gp) # 29c5c <_impure_ptr>
   10288:	47d8                	lw	a4,12(a5)
   1028a:	000277b7          	lui	a5,0x27
   1028e:	fc078613          	addi	a2,a5,-64 # 26fc0 <__clzsi2+0x3a2>
   10292:	000277b7          	lui	a5,0x27
   10296:	fc478593          	addi	a1,a5,-60 # 26fc4 <__clzsi2+0x3a6>
   1029a:	853a                	mv	a0,a4
   1029c:	7310b0ef          	jal	1c1cc <fprintf>
   102a0:	4501                	li	a0,0
   102a2:	3d09                	jal	100b4 <exit>
   102a4:	fec42703          	lw	a4,-20(s0)
   102a8:	02f00793          	li	a5,47
   102ac:	00e7d863          	bge	a5,a4,102bc <getint+0x9e>
   102b0:	fec42703          	lw	a4,-20(s0)
   102b4:	03900793          	li	a5,57
   102b8:	00e7dc63          	bge	a5,a4,102d0 <getint+0xb2>
   102bc:	77f9                	lui	a5,0xffffe
   102be:	17c1                	addi	a5,a5,-16 # ffffdff0 <__BSS_END__+0xfffd4064>
   102c0:	97a2                	add	a5,a5,s0
   102c2:	8dc7a503          	lw	a0,-1828(a5)
   102c6:	2de0c0ef          	jal	1c5a4 <getc>
   102ca:	fea42623          	sw	a0,-20(s0)
   102ce:	b741                	j	1024e <getint+0x30>
   102d0:	0001                	nop
   102d2:	fe042423          	sw	zero,-24(s0)
   102d6:	fe842703          	lw	a4,-24(s0)
   102da:	87ba                	mv	a5,a4
   102dc:	078a                	slli	a5,a5,0x2
   102de:	97ba                	add	a5,a5,a4
   102e0:	0786                	slli	a5,a5,0x1
   102e2:	873e                	mv	a4,a5
   102e4:	fec42783          	lw	a5,-20(s0)
   102e8:	fd078793          	addi	a5,a5,-48
   102ec:	97ba                	add	a5,a5,a4
   102ee:	fef42423          	sw	a5,-24(s0)
   102f2:	77f9                	lui	a5,0xffffe
   102f4:	17c1                	addi	a5,a5,-16 # ffffdff0 <__BSS_END__+0xfffd4064>
   102f6:	97a2                	add	a5,a5,s0
   102f8:	8dc7a503          	lw	a0,-1828(a5)
   102fc:	2a80c0ef          	jal	1c5a4 <getc>
   10300:	fea42623          	sw	a0,-20(s0)
   10304:	fec42703          	lw	a4,-20(s0)
   10308:	57fd                	li	a5,-1
   1030a:	00f71563          	bne	a4,a5,10314 <getint+0xf6>
   1030e:	fe842783          	lw	a5,-24(s0)
   10312:	a005                	j	10332 <getint+0x114>
   10314:	fec42703          	lw	a4,-20(s0)
   10318:	02f00793          	li	a5,47
   1031c:	00e7d963          	bge	a5,a4,1032e <getint+0x110>
   10320:	fec42703          	lw	a4,-20(s0)
   10324:	03900793          	li	a5,57
   10328:	00e7c363          	blt	a5,a4,1032e <getint+0x110>
   1032c:	b76d                	j	102d6 <getint+0xb8>
   1032e:	fe842783          	lw	a5,-24(s0)
   10332:	853e                	mv	a0,a5
   10334:	6289                	lui	t0,0x2
   10336:	9116                	add	sp,sp,t0
   10338:	73c12083          	lw	ra,1852(sp)
   1033c:	73812403          	lw	s0,1848(sp)
   10340:	74010113          	addi	sp,sp,1856
   10344:	8082                	ret

00010346 <get_image>:
   10346:	7175                	addi	sp,sp,-144
   10348:	c706                	sw	ra,140(sp)
   1034a:	c522                	sw	s0,136(sp)
   1034c:	0900                	addi	s0,sp,144
   1034e:	f6a42e23          	sw	a0,-132(s0)
   10352:	f6b42c23          	sw	a1,-136(s0)
   10356:	f6c42a23          	sw	a2,-140(s0)
   1035a:	f6d42823          	sw	a3,-144(s0)
   1035e:	000277b7          	lui	a5,0x27
   10362:	fe078593          	addi	a1,a5,-32 # 26fe0 <__clzsi2+0x3c2>
   10366:	f7c42503          	lw	a0,-132(s0)
   1036a:	6370b0ef          	jal	1c1a0 <fopen>
   1036e:	fea42623          	sw	a0,-20(s0)
   10372:	fec42783          	lw	a5,-20(s0)
   10376:	ef99                	bnez	a5,10394 <get_image+0x4e>
   10378:	fac1a783          	lw	a5,-84(gp) # 29c5c <_impure_ptr>
   1037c:	47d8                	lw	a4,12(a5)
   1037e:	f7c42603          	lw	a2,-132(s0)
   10382:	000277b7          	lui	a5,0x27
   10386:	fe478593          	addi	a1,a5,-28 # 26fe4 <__clzsi2+0x3c6>
   1038a:	853a                	mv	a0,a4
   1038c:	6410b0ef          	jal	1c1cc <fprintf>
   10390:	4501                	li	a0,0
   10392:	330d                	jal	100b4 <exit>
   10394:	fec42503          	lw	a0,-20(s0)
   10398:	1390b0ef          	jal	1bcd0 <fgetc>
   1039c:	87aa                	mv	a5,a0
   1039e:	0ff7f793          	zext.b	a5,a5
   103a2:	f8f40223          	sb	a5,-124(s0)
   103a6:	fec42503          	lw	a0,-20(s0)
   103aa:	1270b0ef          	jal	1bcd0 <fgetc>
   103ae:	87aa                	mv	a5,a0
   103b0:	0ff7f793          	zext.b	a5,a5
   103b4:	f8f402a3          	sb	a5,-123(s0)
   103b8:	f8444703          	lbu	a4,-124(s0)
   103bc:	05000793          	li	a5,80
   103c0:	00f71863          	bne	a4,a5,103d0 <get_image+0x8a>
   103c4:	f8544703          	lbu	a4,-123(s0)
   103c8:	03500793          	li	a5,53
   103cc:	02f70063          	beq	a4,a5,103ec <get_image+0xa6>
   103d0:	fac1a783          	lw	a5,-84(gp) # 29c5c <_impure_ptr>
   103d4:	47d8                	lw	a4,12(a5)
   103d6:	f7c42603          	lw	a2,-132(s0)
   103da:	000277b7          	lui	a5,0x27
   103de:	ffc78593          	addi	a1,a5,-4 # 26ffc <__clzsi2+0x3de>
   103e2:	853a                	mv	a0,a4
   103e4:	5e90b0ef          	jal	1c1cc <fprintf>
   103e8:	4501                	li	a0,0
   103ea:	31e9                	jal	100b4 <exit>
   103ec:	fec42503          	lw	a0,-20(s0)
   103f0:	353d                	jal	1021e <getint>
   103f2:	872a                	mv	a4,a0
   103f4:	f7442783          	lw	a5,-140(s0)
   103f8:	c398                	sw	a4,0(a5)
   103fa:	fec42503          	lw	a0,-20(s0)
   103fe:	3505                	jal	1021e <getint>
   10400:	872a                	mv	a4,a0
   10402:	f7042783          	lw	a5,-144(s0)
   10406:	c398                	sw	a4,0(a5)
   10408:	fec42503          	lw	a0,-20(s0)
   1040c:	3d09                	jal	1021e <getint>
   1040e:	fea42423          	sw	a0,-24(s0)
   10412:	f7442783          	lw	a5,-140(s0)
   10416:	4398                	lw	a4,0(a5)
   10418:	f7042783          	lw	a5,-144(s0)
   1041c:	439c                	lw	a5,0(a5)
   1041e:	02f707b3          	mul	a5,a4,a5
   10422:	853e                	mv	a0,a5
   10424:	3bf090ef          	jal	19fe2 <malloc>
   10428:	87aa                	mv	a5,a0
   1042a:	873e                	mv	a4,a5
   1042c:	f7842783          	lw	a5,-136(s0)
   10430:	c398                	sw	a4,0(a5)
   10432:	f7842783          	lw	a5,-136(s0)
   10436:	4388                	lw	a0,0(a5)
   10438:	f7442783          	lw	a5,-140(s0)
   1043c:	4398                	lw	a4,0(a5)
   1043e:	f7042783          	lw	a5,-144(s0)
   10442:	439c                	lw	a5,0(a5)
   10444:	02f707b3          	mul	a5,a4,a5
   10448:	fec42683          	lw	a3,-20(s0)
   1044c:	863e                	mv	a2,a5
   1044e:	4585                	li	a1,1
   10450:	73d0b0ef          	jal	1c38c <fread>
   10454:	87aa                	mv	a5,a0
   10456:	ef99                	bnez	a5,10474 <get_image+0x12e>
   10458:	fac1a783          	lw	a5,-84(gp) # 29c5c <_impure_ptr>
   1045c:	47d8                	lw	a4,12(a5)
   1045e:	f7c42603          	lw	a2,-132(s0)
   10462:	000277b7          	lui	a5,0x27
   10466:	02878593          	addi	a1,a5,40 # 27028 <__clzsi2+0x40a>
   1046a:	853a                	mv	a0,a4
   1046c:	5610b0ef          	jal	1c1cc <fprintf>
   10470:	4501                	li	a0,0
   10472:	3189                	jal	100b4 <exit>
   10474:	fec42503          	lw	a0,-20(s0)
   10478:	5140b0ef          	jal	1b98c <fclose>
   1047c:	0001                	nop
   1047e:	40ba                	lw	ra,140(sp)
   10480:	442a                	lw	s0,136(sp)
   10482:	6149                	addi	sp,sp,144
   10484:	8082                	ret

00010486 <put_image>:
   10486:	7179                	addi	sp,sp,-48
   10488:	d606                	sw	ra,44(sp)
   1048a:	d422                	sw	s0,40(sp)
   1048c:	1800                	addi	s0,sp,48
   1048e:	fca42e23          	sw	a0,-36(s0)
   10492:	fcb42c23          	sw	a1,-40(s0)
   10496:	fcc42a23          	sw	a2,-44(s0)
   1049a:	fcd42823          	sw	a3,-48(s0)
   1049e:	000277b7          	lui	a5,0x27
   104a2:	04478593          	addi	a1,a5,68 # 27044 <__clzsi2+0x426>
   104a6:	fdc42503          	lw	a0,-36(s0)
   104aa:	6430c0ef          	jal	1d2ec <strcmp>
   104ae:	87aa                	mv	a5,a0
   104b0:	eb99                	bnez	a5,104c6 <put_image+0x40>
   104b2:	000277b7          	lui	a5,0x27
   104b6:	04878593          	addi	a1,a5,72 # 27048 <__clzsi2+0x42a>
   104ba:	4505                	li	a0,1
   104bc:	5380b0ef          	jal	1b9f4 <fdopen>
   104c0:	fea42623          	sw	a0,-20(s0)
   104c4:	a825                	j	104fc <put_image+0x76>
   104c6:	000277b7          	lui	a5,0x27
   104ca:	04878593          	addi	a1,a5,72 # 27048 <__clzsi2+0x42a>
   104ce:	fdc42503          	lw	a0,-36(s0)
   104d2:	4cf0b0ef          	jal	1c1a0 <fopen>
   104d6:	fea42623          	sw	a0,-20(s0)
   104da:	fec42783          	lw	a5,-20(s0)
   104de:	ef99                	bnez	a5,104fc <put_image+0x76>
   104e0:	fac1a783          	lw	a5,-84(gp) # 29c5c <_impure_ptr>
   104e4:	47d8                	lw	a4,12(a5)
   104e6:	fdc42603          	lw	a2,-36(s0)
   104ea:	000277b7          	lui	a5,0x27
   104ee:	04c78593          	addi	a1,a5,76 # 2704c <__clzsi2+0x42e>
   104f2:	853a                	mv	a0,a4
   104f4:	4d90b0ef          	jal	1c1cc <fprintf>
   104f8:	4501                	li	a0,0
   104fa:	3e6d                	jal	100b4 <exit>
   104fc:	fec42683          	lw	a3,-20(s0)
   10500:	460d                	li	a2,3
   10502:	4585                	li	a1,1
   10504:	000277b7          	lui	a5,0x27
   10508:	06478513          	addi	a0,a5,100 # 27064 <__clzsi2+0x446>
   1050c:	7a90b0ef          	jal	1c4b4 <fwrite>
   10510:	fd042683          	lw	a3,-48(s0)
   10514:	fd442603          	lw	a2,-44(s0)
   10518:	000277b7          	lui	a5,0x27
   1051c:	06878593          	addi	a1,a5,104 # 27068 <__clzsi2+0x44a>
   10520:	fec42503          	lw	a0,-20(s0)
   10524:	4a90b0ef          	jal	1c1cc <fprintf>
   10528:	fec42683          	lw	a3,-20(s0)
   1052c:	4611                	li	a2,4
   1052e:	4585                	li	a1,1
   10530:	000277b7          	lui	a5,0x27
   10534:	07078513          	addi	a0,a5,112 # 27070 <__clzsi2+0x452>
   10538:	77d0b0ef          	jal	1c4b4 <fwrite>
   1053c:	fd442703          	lw	a4,-44(s0)
   10540:	fd042783          	lw	a5,-48(s0)
   10544:	02f707b3          	mul	a5,a4,a5
   10548:	fec42683          	lw	a3,-20(s0)
   1054c:	4605                	li	a2,1
   1054e:	85be                	mv	a1,a5
   10550:	fd842503          	lw	a0,-40(s0)
   10554:	7610b0ef          	jal	1c4b4 <fwrite>
   10558:	872a                	mv	a4,a0
   1055a:	4785                	li	a5,1
   1055c:	02f70063          	beq	a4,a5,1057c <put_image+0xf6>
   10560:	fac1a783          	lw	a5,-84(gp) # 29c5c <_impure_ptr>
   10564:	47d8                	lw	a4,12(a5)
   10566:	fdc42603          	lw	a2,-36(s0)
   1056a:	000277b7          	lui	a5,0x27
   1056e:	07878593          	addi	a1,a5,120 # 27078 <__clzsi2+0x45a>
   10572:	853a                	mv	a0,a4
   10574:	4590b0ef          	jal	1c1cc <fprintf>
   10578:	4501                	li	a0,0
   1057a:	3e2d                	jal	100b4 <exit>
   1057c:	fac1a783          	lw	a5,-84(gp) # 29c5c <_impure_ptr>
   10580:	479c                	lw	a5,8(a5)
   10582:	fec42703          	lw	a4,-20(s0)
   10586:	00f70663          	beq	a4,a5,10592 <put_image+0x10c>
   1058a:	fec42503          	lw	a0,-20(s0)
   1058e:	3fe0b0ef          	jal	1b98c <fclose>
   10592:	0001                	nop
   10594:	853e                	mv	a0,a5
   10596:	50b2                	lw	ra,44(sp)
   10598:	5422                	lw	s0,40(sp)
   1059a:	6145                	addi	sp,sp,48
   1059c:	8082                	ret

0001059e <int_to_uchar>:
   1059e:	7179                	addi	sp,sp,-48
   105a0:	d606                	sw	ra,44(sp)
   105a2:	d422                	sw	s0,40(sp)
   105a4:	1800                	addi	s0,sp,48
   105a6:	fca42e23          	sw	a0,-36(s0)
   105aa:	fcb42c23          	sw	a1,-40(s0)
   105ae:	fcc42a23          	sw	a2,-44(s0)
   105b2:	fdc42783          	lw	a5,-36(s0)
   105b6:	439c                	lw	a5,0(a5)
   105b8:	fef42423          	sw	a5,-24(s0)
   105bc:	fdc42783          	lw	a5,-36(s0)
   105c0:	439c                	lw	a5,0(a5)
   105c2:	fef42223          	sw	a5,-28(s0)
   105c6:	fe042623          	sw	zero,-20(s0)
   105ca:	a8b1                	j	10626 <int_to_uchar+0x88>
   105cc:	fec42783          	lw	a5,-20(s0)
   105d0:	078a                	slli	a5,a5,0x2
   105d2:	fdc42703          	lw	a4,-36(s0)
   105d6:	97ba                	add	a5,a5,a4
   105d8:	439c                	lw	a5,0(a5)
   105da:	fe842703          	lw	a4,-24(s0)
   105de:	00f75b63          	bge	a4,a5,105f4 <int_to_uchar+0x56>
   105e2:	fec42783          	lw	a5,-20(s0)
   105e6:	078a                	slli	a5,a5,0x2
   105e8:	fdc42703          	lw	a4,-36(s0)
   105ec:	97ba                	add	a5,a5,a4
   105ee:	439c                	lw	a5,0(a5)
   105f0:	fef42423          	sw	a5,-24(s0)
   105f4:	fec42783          	lw	a5,-20(s0)
   105f8:	078a                	slli	a5,a5,0x2
   105fa:	fdc42703          	lw	a4,-36(s0)
   105fe:	97ba                	add	a5,a5,a4
   10600:	439c                	lw	a5,0(a5)
   10602:	fe442703          	lw	a4,-28(s0)
   10606:	00e7db63          	bge	a5,a4,1061c <int_to_uchar+0x7e>
   1060a:	fec42783          	lw	a5,-20(s0)
   1060e:	078a                	slli	a5,a5,0x2
   10610:	fdc42703          	lw	a4,-36(s0)
   10614:	97ba                	add	a5,a5,a4
   10616:	439c                	lw	a5,0(a5)
   10618:	fef42223          	sw	a5,-28(s0)
   1061c:	fec42783          	lw	a5,-20(s0)
   10620:	0785                	addi	a5,a5,1
   10622:	fef42623          	sw	a5,-20(s0)
   10626:	fec42703          	lw	a4,-20(s0)
   1062a:	fd442783          	lw	a5,-44(s0)
   1062e:	f8f74fe3          	blt	a4,a5,105cc <int_to_uchar+0x2e>
   10632:	fe842703          	lw	a4,-24(s0)
   10636:	fe442783          	lw	a5,-28(s0)
   1063a:	40f707b3          	sub	a5,a4,a5
   1063e:	fef42423          	sw	a5,-24(s0)
   10642:	fe042623          	sw	zero,-20(s0)
   10646:	a089                	j	10688 <int_to_uchar+0xea>
   10648:	fec42783          	lw	a5,-20(s0)
   1064c:	078a                	slli	a5,a5,0x2
   1064e:	fdc42703          	lw	a4,-36(s0)
   10652:	97ba                	add	a5,a5,a4
   10654:	4398                	lw	a4,0(a5)
   10656:	fe442783          	lw	a5,-28(s0)
   1065a:	8f1d                	sub	a4,a4,a5
   1065c:	87ba                	mv	a5,a4
   1065e:	07a2                	slli	a5,a5,0x8
   10660:	40e78733          	sub	a4,a5,a4
   10664:	fe842783          	lw	a5,-24(s0)
   10668:	02f746b3          	div	a3,a4,a5
   1066c:	fec42783          	lw	a5,-20(s0)
   10670:	fd842703          	lw	a4,-40(s0)
   10674:	97ba                	add	a5,a5,a4
   10676:	0ff6f713          	zext.b	a4,a3
   1067a:	00e78023          	sb	a4,0(a5)
   1067e:	fec42783          	lw	a5,-20(s0)
   10682:	0785                	addi	a5,a5,1
   10684:	fef42623          	sw	a5,-20(s0)
   10688:	fec42703          	lw	a4,-20(s0)
   1068c:	fd442783          	lw	a5,-44(s0)
   10690:	faf74ce3          	blt	a4,a5,10648 <int_to_uchar+0xaa>
   10694:	0001                	nop
   10696:	853e                	mv	a0,a5
   10698:	50b2                	lw	ra,44(sp)
   1069a:	5422                	lw	s0,40(sp)
   1069c:	6145                	addi	sp,sp,48
   1069e:	8082                	ret

000106a0 <setup_brightness_lut>:
   106a0:	7179                	addi	sp,sp,-48
   106a2:	d606                	sw	ra,44(sp)
   106a4:	d422                	sw	s0,40(sp)
   106a6:	1800                	addi	s0,sp,48
   106a8:	fca42e23          	sw	a0,-36(s0)
   106ac:	fcb42c23          	sw	a1,-40(s0)
   106b0:	fcc42a23          	sw	a2,-44(s0)
   106b4:	20400513          	li	a0,516
   106b8:	12b090ef          	jal	19fe2 <malloc>
   106bc:	87aa                	mv	a5,a0
   106be:	873e                	mv	a4,a5
   106c0:	fdc42783          	lw	a5,-36(s0)
   106c4:	c398                	sw	a4,0(a5)
   106c6:	fdc42783          	lw	a5,-36(s0)
   106ca:	439c                	lw	a5,0(a5)
   106cc:	10278713          	addi	a4,a5,258
   106d0:	fdc42783          	lw	a5,-36(s0)
   106d4:	c398                	sw	a4,0(a5)
   106d6:	f0000793          	li	a5,-256
   106da:	fef42623          	sw	a5,-20(s0)
   106de:	a859                	j	10774 <setup_brightness_lut+0xd4>
   106e0:	fec42783          	lw	a5,-20(s0)
   106e4:	d007f753          	fcvt.s.w	fa4,a5
   106e8:	fd842783          	lw	a5,-40(s0)
   106ec:	d007f7d3          	fcvt.s.w	fa5,a5
   106f0:	18f777d3          	fdiv.s	fa5,fa4,fa5
   106f4:	fef42427          	fsw	fa5,-24(s0)
   106f8:	fe842787          	flw	fa5,-24(s0)
   106fc:	10f7f7d3          	fmul.s	fa5,fa5,fa5
   10700:	fef42427          	fsw	fa5,-24(s0)
   10704:	fd442703          	lw	a4,-44(s0)
   10708:	4799                	li	a5,6
   1070a:	00f71c63          	bne	a4,a5,10722 <setup_brightness_lut+0x82>
   1070e:	fe842787          	flw	fa5,-24(s0)
   10712:	10f7f7d3          	fmul.s	fa5,fa5,fa5
   10716:	fe842707          	flw	fa4,-24(s0)
   1071a:	10f777d3          	fmul.s	fa5,fa4,fa5
   1071e:	fef42427          	fsw	fa5,-24(s0)
   10722:	fe842787          	flw	fa5,-24(s0)
   10726:	20f797d3          	fneg.s	fa5,fa5
   1072a:	420787d3          	fcvt.d.s	fa5,fa5
   1072e:	22f78553          	fmv.d	fa0,fa5
   10732:	4b8090ef          	jal	19bea <exp>
   10736:	22a50753          	fmv.d	fa4,fa0
   1073a:	000277b7          	lui	a5,0x27
   1073e:	1c07b787          	fld	fa5,448(a5) # 271c0 <__clzsi2+0x5a2>
   10742:	12f777d3          	fmul.d	fa5,fa4,fa5
   10746:	4017f7d3          	fcvt.s.d	fa5,fa5
   1074a:	fef42427          	fsw	fa5,-24(s0)
   1074e:	fdc42783          	lw	a5,-36(s0)
   10752:	4398                	lw	a4,0(a5)
   10754:	fec42783          	lw	a5,-20(s0)
   10758:	97ba                	add	a5,a5,a4
   1075a:	fe842787          	flw	fa5,-24(s0)
   1075e:	c0179753          	fcvt.wu.s	a4,fa5,rtz
   10762:	0ff77713          	zext.b	a4,a4
   10766:	00e78023          	sb	a4,0(a5)
   1076a:	fec42783          	lw	a5,-20(s0)
   1076e:	0785                	addi	a5,a5,1
   10770:	fef42623          	sw	a5,-20(s0)
   10774:	fec42703          	lw	a4,-20(s0)
   10778:	10000793          	li	a5,256
   1077c:	f6e7d2e3          	bge	a5,a4,106e0 <setup_brightness_lut+0x40>
   10780:	0001                	nop
   10782:	0001                	nop
   10784:	50b2                	lw	ra,44(sp)
   10786:	5422                	lw	s0,40(sp)
   10788:	6145                	addi	sp,sp,48
   1078a:	8082                	ret

0001078c <susan_principle>:
   1078c:	715d                	addi	sp,sp,-80
   1078e:	c686                	sw	ra,76(sp)
   10790:	c4a2                	sw	s0,72(sp)
   10792:	0880                	addi	s0,sp,80
   10794:	fca42623          	sw	a0,-52(s0)
   10798:	fcb42423          	sw	a1,-56(s0)
   1079c:	fcc42223          	sw	a2,-60(s0)
   107a0:	fcd42023          	sw	a3,-64(s0)
   107a4:	fae42e23          	sw	a4,-68(s0)
   107a8:	faf42c23          	sw	a5,-72(s0)
   107ac:	fbc42703          	lw	a4,-68(s0)
   107b0:	fb842783          	lw	a5,-72(s0)
   107b4:	02f707b3          	mul	a5,a4,a5
   107b8:	078a                	slli	a5,a5,0x2
   107ba:	863e                	mv	a2,a5
   107bc:	4581                	li	a1,0
   107be:	fc842503          	lw	a0,-56(s0)
   107c2:	1370c0ef          	jal	1d0f8 <memset>
   107c6:	478d                	li	a5,3
   107c8:	fef42623          	sw	a5,-20(s0)
   107cc:	a5e1                	j	10e94 <susan_principle+0x708>
   107ce:	478d                	li	a5,3
   107d0:	fef42423          	sw	a5,-24(s0)
   107d4:	a565                	j	10e7c <susan_principle+0x6f0>
   107d6:	06400793          	li	a5,100
   107da:	fef42223          	sw	a5,-28(s0)
   107de:	fec42783          	lw	a5,-20(s0)
   107e2:	ffd78713          	addi	a4,a5,-3
   107e6:	fbc42783          	lw	a5,-68(s0)
   107ea:	02f707b3          	mul	a5,a4,a5
   107ee:	873e                	mv	a4,a5
   107f0:	fe842783          	lw	a5,-24(s0)
   107f4:	97ba                	add	a5,a5,a4
   107f6:	17fd                	addi	a5,a5,-1
   107f8:	fcc42703          	lw	a4,-52(s0)
   107fc:	97ba                	add	a5,a5,a4
   107fe:	fef42023          	sw	a5,-32(s0)
   10802:	fec42703          	lw	a4,-20(s0)
   10806:	fbc42783          	lw	a5,-68(s0)
   1080a:	02f70733          	mul	a4,a4,a5
   1080e:	fe842783          	lw	a5,-24(s0)
   10812:	97ba                	add	a5,a5,a4
   10814:	873e                	mv	a4,a5
   10816:	fcc42783          	lw	a5,-52(s0)
   1081a:	97ba                	add	a5,a5,a4
   1081c:	0007c783          	lbu	a5,0(a5)
   10820:	873e                	mv	a4,a5
   10822:	fc442783          	lw	a5,-60(s0)
   10826:	97ba                	add	a5,a5,a4
   10828:	fcf42e23          	sw	a5,-36(s0)
   1082c:	fe042783          	lw	a5,-32(s0)
   10830:	00178713          	addi	a4,a5,1
   10834:	fee42023          	sw	a4,-32(s0)
   10838:	0007c783          	lbu	a5,0(a5)
   1083c:	40f007b3          	neg	a5,a5
   10840:	fdc42703          	lw	a4,-36(s0)
   10844:	97ba                	add	a5,a5,a4
   10846:	0007c783          	lbu	a5,0(a5)
   1084a:	873e                	mv	a4,a5
   1084c:	fe442783          	lw	a5,-28(s0)
   10850:	97ba                	add	a5,a5,a4
   10852:	fef42223          	sw	a5,-28(s0)
   10856:	fe042783          	lw	a5,-32(s0)
   1085a:	00178713          	addi	a4,a5,1
   1085e:	fee42023          	sw	a4,-32(s0)
   10862:	0007c783          	lbu	a5,0(a5)
   10866:	40f007b3          	neg	a5,a5
   1086a:	fdc42703          	lw	a4,-36(s0)
   1086e:	97ba                	add	a5,a5,a4
   10870:	0007c783          	lbu	a5,0(a5)
   10874:	873e                	mv	a4,a5
   10876:	fe442783          	lw	a5,-28(s0)
   1087a:	97ba                	add	a5,a5,a4
   1087c:	fef42223          	sw	a5,-28(s0)
   10880:	fe042783          	lw	a5,-32(s0)
   10884:	0007c783          	lbu	a5,0(a5)
   10888:	40f007b3          	neg	a5,a5
   1088c:	fdc42703          	lw	a4,-36(s0)
   10890:	97ba                	add	a5,a5,a4
   10892:	0007c783          	lbu	a5,0(a5)
   10896:	873e                	mv	a4,a5
   10898:	fe442783          	lw	a5,-28(s0)
   1089c:	97ba                	add	a5,a5,a4
   1089e:	fef42223          	sw	a5,-28(s0)
   108a2:	fbc42783          	lw	a5,-68(s0)
   108a6:	17f5                	addi	a5,a5,-3
   108a8:	fe042703          	lw	a4,-32(s0)
   108ac:	97ba                	add	a5,a5,a4
   108ae:	fef42023          	sw	a5,-32(s0)
   108b2:	fe042783          	lw	a5,-32(s0)
   108b6:	00178713          	addi	a4,a5,1
   108ba:	fee42023          	sw	a4,-32(s0)
   108be:	0007c783          	lbu	a5,0(a5)
   108c2:	40f007b3          	neg	a5,a5
   108c6:	fdc42703          	lw	a4,-36(s0)
   108ca:	97ba                	add	a5,a5,a4
   108cc:	0007c783          	lbu	a5,0(a5)
   108d0:	873e                	mv	a4,a5
   108d2:	fe442783          	lw	a5,-28(s0)
   108d6:	97ba                	add	a5,a5,a4
   108d8:	fef42223          	sw	a5,-28(s0)
   108dc:	fe042783          	lw	a5,-32(s0)
   108e0:	00178713          	addi	a4,a5,1
   108e4:	fee42023          	sw	a4,-32(s0)
   108e8:	0007c783          	lbu	a5,0(a5)
   108ec:	40f007b3          	neg	a5,a5
   108f0:	fdc42703          	lw	a4,-36(s0)
   108f4:	97ba                	add	a5,a5,a4
   108f6:	0007c783          	lbu	a5,0(a5)
   108fa:	873e                	mv	a4,a5
   108fc:	fe442783          	lw	a5,-28(s0)
   10900:	97ba                	add	a5,a5,a4
   10902:	fef42223          	sw	a5,-28(s0)
   10906:	fe042783          	lw	a5,-32(s0)
   1090a:	00178713          	addi	a4,a5,1
   1090e:	fee42023          	sw	a4,-32(s0)
   10912:	0007c783          	lbu	a5,0(a5)
   10916:	40f007b3          	neg	a5,a5
   1091a:	fdc42703          	lw	a4,-36(s0)
   1091e:	97ba                	add	a5,a5,a4
   10920:	0007c783          	lbu	a5,0(a5)
   10924:	873e                	mv	a4,a5
   10926:	fe442783          	lw	a5,-28(s0)
   1092a:	97ba                	add	a5,a5,a4
   1092c:	fef42223          	sw	a5,-28(s0)
   10930:	fe042783          	lw	a5,-32(s0)
   10934:	00178713          	addi	a4,a5,1
   10938:	fee42023          	sw	a4,-32(s0)
   1093c:	0007c783          	lbu	a5,0(a5)
   10940:	40f007b3          	neg	a5,a5
   10944:	fdc42703          	lw	a4,-36(s0)
   10948:	97ba                	add	a5,a5,a4
   1094a:	0007c783          	lbu	a5,0(a5)
   1094e:	873e                	mv	a4,a5
   10950:	fe442783          	lw	a5,-28(s0)
   10954:	97ba                	add	a5,a5,a4
   10956:	fef42223          	sw	a5,-28(s0)
   1095a:	fe042783          	lw	a5,-32(s0)
   1095e:	0007c783          	lbu	a5,0(a5)
   10962:	40f007b3          	neg	a5,a5
   10966:	fdc42703          	lw	a4,-36(s0)
   1096a:	97ba                	add	a5,a5,a4
   1096c:	0007c783          	lbu	a5,0(a5)
   10970:	873e                	mv	a4,a5
   10972:	fe442783          	lw	a5,-28(s0)
   10976:	97ba                	add	a5,a5,a4
   10978:	fef42223          	sw	a5,-28(s0)
   1097c:	fbc42783          	lw	a5,-68(s0)
   10980:	17ed                	addi	a5,a5,-5
   10982:	fe042703          	lw	a4,-32(s0)
   10986:	97ba                	add	a5,a5,a4
   10988:	fef42023          	sw	a5,-32(s0)
   1098c:	fe042783          	lw	a5,-32(s0)
   10990:	00178713          	addi	a4,a5,1
   10994:	fee42023          	sw	a4,-32(s0)
   10998:	0007c783          	lbu	a5,0(a5)
   1099c:	40f007b3          	neg	a5,a5
   109a0:	fdc42703          	lw	a4,-36(s0)
   109a4:	97ba                	add	a5,a5,a4
   109a6:	0007c783          	lbu	a5,0(a5)
   109aa:	873e                	mv	a4,a5
   109ac:	fe442783          	lw	a5,-28(s0)
   109b0:	97ba                	add	a5,a5,a4
   109b2:	fef42223          	sw	a5,-28(s0)
   109b6:	fe042783          	lw	a5,-32(s0)
   109ba:	00178713          	addi	a4,a5,1
   109be:	fee42023          	sw	a4,-32(s0)
   109c2:	0007c783          	lbu	a5,0(a5)
   109c6:	40f007b3          	neg	a5,a5
   109ca:	fdc42703          	lw	a4,-36(s0)
   109ce:	97ba                	add	a5,a5,a4
   109d0:	0007c783          	lbu	a5,0(a5)
   109d4:	873e                	mv	a4,a5
   109d6:	fe442783          	lw	a5,-28(s0)
   109da:	97ba                	add	a5,a5,a4
   109dc:	fef42223          	sw	a5,-28(s0)
   109e0:	fe042783          	lw	a5,-32(s0)
   109e4:	00178713          	addi	a4,a5,1
   109e8:	fee42023          	sw	a4,-32(s0)
   109ec:	0007c783          	lbu	a5,0(a5)
   109f0:	40f007b3          	neg	a5,a5
   109f4:	fdc42703          	lw	a4,-36(s0)
   109f8:	97ba                	add	a5,a5,a4
   109fa:	0007c783          	lbu	a5,0(a5)
   109fe:	873e                	mv	a4,a5
   10a00:	fe442783          	lw	a5,-28(s0)
   10a04:	97ba                	add	a5,a5,a4
   10a06:	fef42223          	sw	a5,-28(s0)
   10a0a:	fe042783          	lw	a5,-32(s0)
   10a0e:	00178713          	addi	a4,a5,1
   10a12:	fee42023          	sw	a4,-32(s0)
   10a16:	0007c783          	lbu	a5,0(a5)
   10a1a:	40f007b3          	neg	a5,a5
   10a1e:	fdc42703          	lw	a4,-36(s0)
   10a22:	97ba                	add	a5,a5,a4
   10a24:	0007c783          	lbu	a5,0(a5)
   10a28:	873e                	mv	a4,a5
   10a2a:	fe442783          	lw	a5,-28(s0)
   10a2e:	97ba                	add	a5,a5,a4
   10a30:	fef42223          	sw	a5,-28(s0)
   10a34:	fe042783          	lw	a5,-32(s0)
   10a38:	00178713          	addi	a4,a5,1
   10a3c:	fee42023          	sw	a4,-32(s0)
   10a40:	0007c783          	lbu	a5,0(a5)
   10a44:	40f007b3          	neg	a5,a5
   10a48:	fdc42703          	lw	a4,-36(s0)
   10a4c:	97ba                	add	a5,a5,a4
   10a4e:	0007c783          	lbu	a5,0(a5)
   10a52:	873e                	mv	a4,a5
   10a54:	fe442783          	lw	a5,-28(s0)
   10a58:	97ba                	add	a5,a5,a4
   10a5a:	fef42223          	sw	a5,-28(s0)
   10a5e:	fe042783          	lw	a5,-32(s0)
   10a62:	00178713          	addi	a4,a5,1
   10a66:	fee42023          	sw	a4,-32(s0)
   10a6a:	0007c783          	lbu	a5,0(a5)
   10a6e:	40f007b3          	neg	a5,a5
   10a72:	fdc42703          	lw	a4,-36(s0)
   10a76:	97ba                	add	a5,a5,a4
   10a78:	0007c783          	lbu	a5,0(a5)
   10a7c:	873e                	mv	a4,a5
   10a7e:	fe442783          	lw	a5,-28(s0)
   10a82:	97ba                	add	a5,a5,a4
   10a84:	fef42223          	sw	a5,-28(s0)
   10a88:	fe042783          	lw	a5,-32(s0)
   10a8c:	0007c783          	lbu	a5,0(a5)
   10a90:	40f007b3          	neg	a5,a5
   10a94:	fdc42703          	lw	a4,-36(s0)
   10a98:	97ba                	add	a5,a5,a4
   10a9a:	0007c783          	lbu	a5,0(a5)
   10a9e:	873e                	mv	a4,a5
   10aa0:	fe442783          	lw	a5,-28(s0)
   10aa4:	97ba                	add	a5,a5,a4
   10aa6:	fef42223          	sw	a5,-28(s0)
   10aaa:	fbc42783          	lw	a5,-68(s0)
   10aae:	17e9                	addi	a5,a5,-6
   10ab0:	fe042703          	lw	a4,-32(s0)
   10ab4:	97ba                	add	a5,a5,a4
   10ab6:	fef42023          	sw	a5,-32(s0)
   10aba:	fe042783          	lw	a5,-32(s0)
   10abe:	00178713          	addi	a4,a5,1
   10ac2:	fee42023          	sw	a4,-32(s0)
   10ac6:	0007c783          	lbu	a5,0(a5)
   10aca:	40f007b3          	neg	a5,a5
   10ace:	fdc42703          	lw	a4,-36(s0)
   10ad2:	97ba                	add	a5,a5,a4
   10ad4:	0007c783          	lbu	a5,0(a5)
   10ad8:	873e                	mv	a4,a5
   10ada:	fe442783          	lw	a5,-28(s0)
   10ade:	97ba                	add	a5,a5,a4
   10ae0:	fef42223          	sw	a5,-28(s0)
   10ae4:	fe042783          	lw	a5,-32(s0)
   10ae8:	00178713          	addi	a4,a5,1
   10aec:	fee42023          	sw	a4,-32(s0)
   10af0:	0007c783          	lbu	a5,0(a5)
   10af4:	40f007b3          	neg	a5,a5
   10af8:	fdc42703          	lw	a4,-36(s0)
   10afc:	97ba                	add	a5,a5,a4
   10afe:	0007c783          	lbu	a5,0(a5)
   10b02:	873e                	mv	a4,a5
   10b04:	fe442783          	lw	a5,-28(s0)
   10b08:	97ba                	add	a5,a5,a4
   10b0a:	fef42223          	sw	a5,-28(s0)
   10b0e:	fe042783          	lw	a5,-32(s0)
   10b12:	0007c783          	lbu	a5,0(a5)
   10b16:	40f007b3          	neg	a5,a5
   10b1a:	fdc42703          	lw	a4,-36(s0)
   10b1e:	97ba                	add	a5,a5,a4
   10b20:	0007c783          	lbu	a5,0(a5)
   10b24:	873e                	mv	a4,a5
   10b26:	fe442783          	lw	a5,-28(s0)
   10b2a:	97ba                	add	a5,a5,a4
   10b2c:	fef42223          	sw	a5,-28(s0)
   10b30:	fe042783          	lw	a5,-32(s0)
   10b34:	0789                	addi	a5,a5,2
   10b36:	fef42023          	sw	a5,-32(s0)
   10b3a:	fe042783          	lw	a5,-32(s0)
   10b3e:	00178713          	addi	a4,a5,1
   10b42:	fee42023          	sw	a4,-32(s0)
   10b46:	0007c783          	lbu	a5,0(a5)
   10b4a:	40f007b3          	neg	a5,a5
   10b4e:	fdc42703          	lw	a4,-36(s0)
   10b52:	97ba                	add	a5,a5,a4
   10b54:	0007c783          	lbu	a5,0(a5)
   10b58:	873e                	mv	a4,a5
   10b5a:	fe442783          	lw	a5,-28(s0)
   10b5e:	97ba                	add	a5,a5,a4
   10b60:	fef42223          	sw	a5,-28(s0)
   10b64:	fe042783          	lw	a5,-32(s0)
   10b68:	00178713          	addi	a4,a5,1
   10b6c:	fee42023          	sw	a4,-32(s0)
   10b70:	0007c783          	lbu	a5,0(a5)
   10b74:	40f007b3          	neg	a5,a5
   10b78:	fdc42703          	lw	a4,-36(s0)
   10b7c:	97ba                	add	a5,a5,a4
   10b7e:	0007c783          	lbu	a5,0(a5)
   10b82:	873e                	mv	a4,a5
   10b84:	fe442783          	lw	a5,-28(s0)
   10b88:	97ba                	add	a5,a5,a4
   10b8a:	fef42223          	sw	a5,-28(s0)
   10b8e:	fe042783          	lw	a5,-32(s0)
   10b92:	0007c783          	lbu	a5,0(a5)
   10b96:	40f007b3          	neg	a5,a5
   10b9a:	fdc42703          	lw	a4,-36(s0)
   10b9e:	97ba                	add	a5,a5,a4
   10ba0:	0007c783          	lbu	a5,0(a5)
   10ba4:	873e                	mv	a4,a5
   10ba6:	fe442783          	lw	a5,-28(s0)
   10baa:	97ba                	add	a5,a5,a4
   10bac:	fef42223          	sw	a5,-28(s0)
   10bb0:	fbc42783          	lw	a5,-68(s0)
   10bb4:	17e9                	addi	a5,a5,-6
   10bb6:	fe042703          	lw	a4,-32(s0)
   10bba:	97ba                	add	a5,a5,a4
   10bbc:	fef42023          	sw	a5,-32(s0)
   10bc0:	fe042783          	lw	a5,-32(s0)
   10bc4:	00178713          	addi	a4,a5,1
   10bc8:	fee42023          	sw	a4,-32(s0)
   10bcc:	0007c783          	lbu	a5,0(a5)
   10bd0:	40f007b3          	neg	a5,a5
   10bd4:	fdc42703          	lw	a4,-36(s0)
   10bd8:	97ba                	add	a5,a5,a4
   10bda:	0007c783          	lbu	a5,0(a5)
   10bde:	873e                	mv	a4,a5
   10be0:	fe442783          	lw	a5,-28(s0)
   10be4:	97ba                	add	a5,a5,a4
   10be6:	fef42223          	sw	a5,-28(s0)
   10bea:	fe042783          	lw	a5,-32(s0)
   10bee:	00178713          	addi	a4,a5,1
   10bf2:	fee42023          	sw	a4,-32(s0)
   10bf6:	0007c783          	lbu	a5,0(a5)
   10bfa:	40f007b3          	neg	a5,a5
   10bfe:	fdc42703          	lw	a4,-36(s0)
   10c02:	97ba                	add	a5,a5,a4
   10c04:	0007c783          	lbu	a5,0(a5)
   10c08:	873e                	mv	a4,a5
   10c0a:	fe442783          	lw	a5,-28(s0)
   10c0e:	97ba                	add	a5,a5,a4
   10c10:	fef42223          	sw	a5,-28(s0)
   10c14:	fe042783          	lw	a5,-32(s0)
   10c18:	00178713          	addi	a4,a5,1
   10c1c:	fee42023          	sw	a4,-32(s0)
   10c20:	0007c783          	lbu	a5,0(a5)
   10c24:	40f007b3          	neg	a5,a5
   10c28:	fdc42703          	lw	a4,-36(s0)
   10c2c:	97ba                	add	a5,a5,a4
   10c2e:	0007c783          	lbu	a5,0(a5)
   10c32:	873e                	mv	a4,a5
   10c34:	fe442783          	lw	a5,-28(s0)
   10c38:	97ba                	add	a5,a5,a4
   10c3a:	fef42223          	sw	a5,-28(s0)
   10c3e:	fe042783          	lw	a5,-32(s0)
   10c42:	00178713          	addi	a4,a5,1
   10c46:	fee42023          	sw	a4,-32(s0)
   10c4a:	0007c783          	lbu	a5,0(a5)
   10c4e:	40f007b3          	neg	a5,a5
   10c52:	fdc42703          	lw	a4,-36(s0)
   10c56:	97ba                	add	a5,a5,a4
   10c58:	0007c783          	lbu	a5,0(a5)
   10c5c:	873e                	mv	a4,a5
   10c5e:	fe442783          	lw	a5,-28(s0)
   10c62:	97ba                	add	a5,a5,a4
   10c64:	fef42223          	sw	a5,-28(s0)
   10c68:	fe042783          	lw	a5,-32(s0)
   10c6c:	00178713          	addi	a4,a5,1
   10c70:	fee42023          	sw	a4,-32(s0)
   10c74:	0007c783          	lbu	a5,0(a5)
   10c78:	40f007b3          	neg	a5,a5
   10c7c:	fdc42703          	lw	a4,-36(s0)
   10c80:	97ba                	add	a5,a5,a4
   10c82:	0007c783          	lbu	a5,0(a5)
   10c86:	873e                	mv	a4,a5
   10c88:	fe442783          	lw	a5,-28(s0)
   10c8c:	97ba                	add	a5,a5,a4
   10c8e:	fef42223          	sw	a5,-28(s0)
   10c92:	fe042783          	lw	a5,-32(s0)
   10c96:	00178713          	addi	a4,a5,1
   10c9a:	fee42023          	sw	a4,-32(s0)
   10c9e:	0007c783          	lbu	a5,0(a5)
   10ca2:	40f007b3          	neg	a5,a5
   10ca6:	fdc42703          	lw	a4,-36(s0)
   10caa:	97ba                	add	a5,a5,a4
   10cac:	0007c783          	lbu	a5,0(a5)
   10cb0:	873e                	mv	a4,a5
   10cb2:	fe442783          	lw	a5,-28(s0)
   10cb6:	97ba                	add	a5,a5,a4
   10cb8:	fef42223          	sw	a5,-28(s0)
   10cbc:	fe042783          	lw	a5,-32(s0)
   10cc0:	0007c783          	lbu	a5,0(a5)
   10cc4:	40f007b3          	neg	a5,a5
   10cc8:	fdc42703          	lw	a4,-36(s0)
   10ccc:	97ba                	add	a5,a5,a4
   10cce:	0007c783          	lbu	a5,0(a5)
   10cd2:	873e                	mv	a4,a5
   10cd4:	fe442783          	lw	a5,-28(s0)
   10cd8:	97ba                	add	a5,a5,a4
   10cda:	fef42223          	sw	a5,-28(s0)
   10cde:	fbc42783          	lw	a5,-68(s0)
   10ce2:	17ed                	addi	a5,a5,-5
   10ce4:	fe042703          	lw	a4,-32(s0)
   10ce8:	97ba                	add	a5,a5,a4
   10cea:	fef42023          	sw	a5,-32(s0)
   10cee:	fe042783          	lw	a5,-32(s0)
   10cf2:	00178713          	addi	a4,a5,1
   10cf6:	fee42023          	sw	a4,-32(s0)
   10cfa:	0007c783          	lbu	a5,0(a5)
   10cfe:	40f007b3          	neg	a5,a5
   10d02:	fdc42703          	lw	a4,-36(s0)
   10d06:	97ba                	add	a5,a5,a4
   10d08:	0007c783          	lbu	a5,0(a5)
   10d0c:	873e                	mv	a4,a5
   10d0e:	fe442783          	lw	a5,-28(s0)
   10d12:	97ba                	add	a5,a5,a4
   10d14:	fef42223          	sw	a5,-28(s0)
   10d18:	fe042783          	lw	a5,-32(s0)
   10d1c:	00178713          	addi	a4,a5,1
   10d20:	fee42023          	sw	a4,-32(s0)
   10d24:	0007c783          	lbu	a5,0(a5)
   10d28:	40f007b3          	neg	a5,a5
   10d2c:	fdc42703          	lw	a4,-36(s0)
   10d30:	97ba                	add	a5,a5,a4
   10d32:	0007c783          	lbu	a5,0(a5)
   10d36:	873e                	mv	a4,a5
   10d38:	fe442783          	lw	a5,-28(s0)
   10d3c:	97ba                	add	a5,a5,a4
   10d3e:	fef42223          	sw	a5,-28(s0)
   10d42:	fe042783          	lw	a5,-32(s0)
   10d46:	00178713          	addi	a4,a5,1
   10d4a:	fee42023          	sw	a4,-32(s0)
   10d4e:	0007c783          	lbu	a5,0(a5)
   10d52:	40f007b3          	neg	a5,a5
   10d56:	fdc42703          	lw	a4,-36(s0)
   10d5a:	97ba                	add	a5,a5,a4
   10d5c:	0007c783          	lbu	a5,0(a5)
   10d60:	873e                	mv	a4,a5
   10d62:	fe442783          	lw	a5,-28(s0)
   10d66:	97ba                	add	a5,a5,a4
   10d68:	fef42223          	sw	a5,-28(s0)
   10d6c:	fe042783          	lw	a5,-32(s0)
   10d70:	00178713          	addi	a4,a5,1
   10d74:	fee42023          	sw	a4,-32(s0)
   10d78:	0007c783          	lbu	a5,0(a5)
   10d7c:	40f007b3          	neg	a5,a5
   10d80:	fdc42703          	lw	a4,-36(s0)
   10d84:	97ba                	add	a5,a5,a4
   10d86:	0007c783          	lbu	a5,0(a5)
   10d8a:	873e                	mv	a4,a5
   10d8c:	fe442783          	lw	a5,-28(s0)
   10d90:	97ba                	add	a5,a5,a4
   10d92:	fef42223          	sw	a5,-28(s0)
   10d96:	fe042783          	lw	a5,-32(s0)
   10d9a:	0007c783          	lbu	a5,0(a5)
   10d9e:	40f007b3          	neg	a5,a5
   10da2:	fdc42703          	lw	a4,-36(s0)
   10da6:	97ba                	add	a5,a5,a4
   10da8:	0007c783          	lbu	a5,0(a5)
   10dac:	873e                	mv	a4,a5
   10dae:	fe442783          	lw	a5,-28(s0)
   10db2:	97ba                	add	a5,a5,a4
   10db4:	fef42223          	sw	a5,-28(s0)
   10db8:	fbc42783          	lw	a5,-68(s0)
   10dbc:	17f5                	addi	a5,a5,-3
   10dbe:	fe042703          	lw	a4,-32(s0)
   10dc2:	97ba                	add	a5,a5,a4
   10dc4:	fef42023          	sw	a5,-32(s0)
   10dc8:	fe042783          	lw	a5,-32(s0)
   10dcc:	00178713          	addi	a4,a5,1
   10dd0:	fee42023          	sw	a4,-32(s0)
   10dd4:	0007c783          	lbu	a5,0(a5)
   10dd8:	40f007b3          	neg	a5,a5
   10ddc:	fdc42703          	lw	a4,-36(s0)
   10de0:	97ba                	add	a5,a5,a4
   10de2:	0007c783          	lbu	a5,0(a5)
   10de6:	873e                	mv	a4,a5
   10de8:	fe442783          	lw	a5,-28(s0)
   10dec:	97ba                	add	a5,a5,a4
   10dee:	fef42223          	sw	a5,-28(s0)
   10df2:	fe042783          	lw	a5,-32(s0)
   10df6:	00178713          	addi	a4,a5,1
   10dfa:	fee42023          	sw	a4,-32(s0)
   10dfe:	0007c783          	lbu	a5,0(a5)
   10e02:	40f007b3          	neg	a5,a5
   10e06:	fdc42703          	lw	a4,-36(s0)
   10e0a:	97ba                	add	a5,a5,a4
   10e0c:	0007c783          	lbu	a5,0(a5)
   10e10:	873e                	mv	a4,a5
   10e12:	fe442783          	lw	a5,-28(s0)
   10e16:	97ba                	add	a5,a5,a4
   10e18:	fef42223          	sw	a5,-28(s0)
   10e1c:	fe042783          	lw	a5,-32(s0)
   10e20:	0007c783          	lbu	a5,0(a5)
   10e24:	40f007b3          	neg	a5,a5
   10e28:	fdc42703          	lw	a4,-36(s0)
   10e2c:	97ba                	add	a5,a5,a4
   10e2e:	0007c783          	lbu	a5,0(a5)
   10e32:	873e                	mv	a4,a5
   10e34:	fe442783          	lw	a5,-28(s0)
   10e38:	97ba                	add	a5,a5,a4
   10e3a:	fef42223          	sw	a5,-28(s0)
   10e3e:	fe442703          	lw	a4,-28(s0)
   10e42:	fc042783          	lw	a5,-64(s0)
   10e46:	02e7c663          	blt	a5,a4,10e72 <susan_principle+0x6e6>
   10e4a:	fec42703          	lw	a4,-20(s0)
   10e4e:	fbc42783          	lw	a5,-68(s0)
   10e52:	02f70733          	mul	a4,a4,a5
   10e56:	fe842783          	lw	a5,-24(s0)
   10e5a:	97ba                	add	a5,a5,a4
   10e5c:	078a                	slli	a5,a5,0x2
   10e5e:	fc842703          	lw	a4,-56(s0)
   10e62:	97ba                	add	a5,a5,a4
   10e64:	fc042683          	lw	a3,-64(s0)
   10e68:	fe442703          	lw	a4,-28(s0)
   10e6c:	40e68733          	sub	a4,a3,a4
   10e70:	c398                	sw	a4,0(a5)
   10e72:	fe842783          	lw	a5,-24(s0)
   10e76:	0785                	addi	a5,a5,1
   10e78:	fef42423          	sw	a5,-24(s0)
   10e7c:	fbc42783          	lw	a5,-68(s0)
   10e80:	17f5                	addi	a5,a5,-3
   10e82:	fe842703          	lw	a4,-24(s0)
   10e86:	94f748e3          	blt	a4,a5,107d6 <susan_principle+0x4a>
   10e8a:	fec42783          	lw	a5,-20(s0)
   10e8e:	0785                	addi	a5,a5,1
   10e90:	fef42623          	sw	a5,-20(s0)
   10e94:	fb842783          	lw	a5,-72(s0)
   10e98:	17f5                	addi	a5,a5,-3
   10e9a:	fec42703          	lw	a4,-20(s0)
   10e9e:	92f748e3          	blt	a4,a5,107ce <susan_principle+0x42>
   10ea2:	0001                	nop
   10ea4:	853e                	mv	a0,a5
   10ea6:	40b6                	lw	ra,76(sp)
   10ea8:	4426                	lw	s0,72(sp)
   10eaa:	6161                	addi	sp,sp,80
   10eac:	8082                	ret

00010eae <susan_principle_small>:
   10eae:	715d                	addi	sp,sp,-80
   10eb0:	c686                	sw	ra,76(sp)
   10eb2:	c4a2                	sw	s0,72(sp)
   10eb4:	0880                	addi	s0,sp,80
   10eb6:	fca42623          	sw	a0,-52(s0)
   10eba:	fcb42423          	sw	a1,-56(s0)
   10ebe:	fcc42223          	sw	a2,-60(s0)
   10ec2:	fcd42023          	sw	a3,-64(s0)
   10ec6:	fae42e23          	sw	a4,-68(s0)
   10eca:	faf42c23          	sw	a5,-72(s0)
   10ece:	fbc42703          	lw	a4,-68(s0)
   10ed2:	fb842783          	lw	a5,-72(s0)
   10ed6:	02f707b3          	mul	a5,a4,a5
   10eda:	078a                	slli	a5,a5,0x2
   10edc:	863e                	mv	a2,a5
   10ede:	4581                	li	a1,0
   10ee0:	fc842503          	lw	a0,-56(s0)
   10ee4:	2140c0ef          	jal	1d0f8 <memset>
   10ee8:	2da00793          	li	a5,730
   10eec:	fcf42023          	sw	a5,-64(s0)
   10ef0:	4785                	li	a5,1
   10ef2:	fef42623          	sw	a5,-20(s0)
   10ef6:	ac01                	j	11106 <susan_principle_small+0x258>
   10ef8:	4785                	li	a5,1
   10efa:	fef42423          	sw	a5,-24(s0)
   10efe:	aac5                	j	110ee <susan_principle_small+0x240>
   10f00:	06400793          	li	a5,100
   10f04:	fef42223          	sw	a5,-28(s0)
   10f08:	fec42783          	lw	a5,-20(s0)
   10f0c:	fff78713          	addi	a4,a5,-1
   10f10:	fbc42783          	lw	a5,-68(s0)
   10f14:	02f707b3          	mul	a5,a4,a5
   10f18:	873e                	mv	a4,a5
   10f1a:	fe842783          	lw	a5,-24(s0)
   10f1e:	97ba                	add	a5,a5,a4
   10f20:	17fd                	addi	a5,a5,-1
   10f22:	fcc42703          	lw	a4,-52(s0)
   10f26:	97ba                	add	a5,a5,a4
   10f28:	fef42023          	sw	a5,-32(s0)
   10f2c:	fec42703          	lw	a4,-20(s0)
   10f30:	fbc42783          	lw	a5,-68(s0)
   10f34:	02f70733          	mul	a4,a4,a5
   10f38:	fe842783          	lw	a5,-24(s0)
   10f3c:	97ba                	add	a5,a5,a4
   10f3e:	873e                	mv	a4,a5
   10f40:	fcc42783          	lw	a5,-52(s0)
   10f44:	97ba                	add	a5,a5,a4
   10f46:	0007c783          	lbu	a5,0(a5)
   10f4a:	873e                	mv	a4,a5
   10f4c:	fc442783          	lw	a5,-60(s0)
   10f50:	97ba                	add	a5,a5,a4
   10f52:	fcf42e23          	sw	a5,-36(s0)
   10f56:	fe042783          	lw	a5,-32(s0)
   10f5a:	00178713          	addi	a4,a5,1
   10f5e:	fee42023          	sw	a4,-32(s0)
   10f62:	0007c783          	lbu	a5,0(a5)
   10f66:	40f007b3          	neg	a5,a5
   10f6a:	fdc42703          	lw	a4,-36(s0)
   10f6e:	97ba                	add	a5,a5,a4
   10f70:	0007c783          	lbu	a5,0(a5)
   10f74:	873e                	mv	a4,a5
   10f76:	fe442783          	lw	a5,-28(s0)
   10f7a:	97ba                	add	a5,a5,a4
   10f7c:	fef42223          	sw	a5,-28(s0)
   10f80:	fe042783          	lw	a5,-32(s0)
   10f84:	00178713          	addi	a4,a5,1
   10f88:	fee42023          	sw	a4,-32(s0)
   10f8c:	0007c783          	lbu	a5,0(a5)
   10f90:	40f007b3          	neg	a5,a5
   10f94:	fdc42703          	lw	a4,-36(s0)
   10f98:	97ba                	add	a5,a5,a4
   10f9a:	0007c783          	lbu	a5,0(a5)
   10f9e:	873e                	mv	a4,a5
   10fa0:	fe442783          	lw	a5,-28(s0)
   10fa4:	97ba                	add	a5,a5,a4
   10fa6:	fef42223          	sw	a5,-28(s0)
   10faa:	fe042783          	lw	a5,-32(s0)
   10fae:	0007c783          	lbu	a5,0(a5)
   10fb2:	40f007b3          	neg	a5,a5
   10fb6:	fdc42703          	lw	a4,-36(s0)
   10fba:	97ba                	add	a5,a5,a4
   10fbc:	0007c783          	lbu	a5,0(a5)
   10fc0:	873e                	mv	a4,a5
   10fc2:	fe442783          	lw	a5,-28(s0)
   10fc6:	97ba                	add	a5,a5,a4
   10fc8:	fef42223          	sw	a5,-28(s0)
   10fcc:	fbc42783          	lw	a5,-68(s0)
   10fd0:	17f9                	addi	a5,a5,-2
   10fd2:	fe042703          	lw	a4,-32(s0)
   10fd6:	97ba                	add	a5,a5,a4
   10fd8:	fef42023          	sw	a5,-32(s0)
   10fdc:	fe042783          	lw	a5,-32(s0)
   10fe0:	0007c783          	lbu	a5,0(a5)
   10fe4:	40f007b3          	neg	a5,a5
   10fe8:	fdc42703          	lw	a4,-36(s0)
   10fec:	97ba                	add	a5,a5,a4
   10fee:	0007c783          	lbu	a5,0(a5)
   10ff2:	873e                	mv	a4,a5
   10ff4:	fe442783          	lw	a5,-28(s0)
   10ff8:	97ba                	add	a5,a5,a4
   10ffa:	fef42223          	sw	a5,-28(s0)
   10ffe:	fe042783          	lw	a5,-32(s0)
   11002:	0789                	addi	a5,a5,2
   11004:	fef42023          	sw	a5,-32(s0)
   11008:	fe042783          	lw	a5,-32(s0)
   1100c:	0007c783          	lbu	a5,0(a5)
   11010:	40f007b3          	neg	a5,a5
   11014:	fdc42703          	lw	a4,-36(s0)
   11018:	97ba                	add	a5,a5,a4
   1101a:	0007c783          	lbu	a5,0(a5)
   1101e:	873e                	mv	a4,a5
   11020:	fe442783          	lw	a5,-28(s0)
   11024:	97ba                	add	a5,a5,a4
   11026:	fef42223          	sw	a5,-28(s0)
   1102a:	fbc42783          	lw	a5,-68(s0)
   1102e:	17f9                	addi	a5,a5,-2
   11030:	fe042703          	lw	a4,-32(s0)
   11034:	97ba                	add	a5,a5,a4
   11036:	fef42023          	sw	a5,-32(s0)
   1103a:	fe042783          	lw	a5,-32(s0)
   1103e:	00178713          	addi	a4,a5,1
   11042:	fee42023          	sw	a4,-32(s0)
   11046:	0007c783          	lbu	a5,0(a5)
   1104a:	40f007b3          	neg	a5,a5
   1104e:	fdc42703          	lw	a4,-36(s0)
   11052:	97ba                	add	a5,a5,a4
   11054:	0007c783          	lbu	a5,0(a5)
   11058:	873e                	mv	a4,a5
   1105a:	fe442783          	lw	a5,-28(s0)
   1105e:	97ba                	add	a5,a5,a4
   11060:	fef42223          	sw	a5,-28(s0)
   11064:	fe042783          	lw	a5,-32(s0)
   11068:	00178713          	addi	a4,a5,1
   1106c:	fee42023          	sw	a4,-32(s0)
   11070:	0007c783          	lbu	a5,0(a5)
   11074:	40f007b3          	neg	a5,a5
   11078:	fdc42703          	lw	a4,-36(s0)
   1107c:	97ba                	add	a5,a5,a4
   1107e:	0007c783          	lbu	a5,0(a5)
   11082:	873e                	mv	a4,a5
   11084:	fe442783          	lw	a5,-28(s0)
   11088:	97ba                	add	a5,a5,a4
   1108a:	fef42223          	sw	a5,-28(s0)
   1108e:	fe042783          	lw	a5,-32(s0)
   11092:	0007c783          	lbu	a5,0(a5)
   11096:	40f007b3          	neg	a5,a5
   1109a:	fdc42703          	lw	a4,-36(s0)
   1109e:	97ba                	add	a5,a5,a4
   110a0:	0007c783          	lbu	a5,0(a5)
   110a4:	873e                	mv	a4,a5
   110a6:	fe442783          	lw	a5,-28(s0)
   110aa:	97ba                	add	a5,a5,a4
   110ac:	fef42223          	sw	a5,-28(s0)
   110b0:	fe442703          	lw	a4,-28(s0)
   110b4:	fc042783          	lw	a5,-64(s0)
   110b8:	02e7c663          	blt	a5,a4,110e4 <susan_principle_small+0x236>
   110bc:	fec42703          	lw	a4,-20(s0)
   110c0:	fbc42783          	lw	a5,-68(s0)
   110c4:	02f70733          	mul	a4,a4,a5
   110c8:	fe842783          	lw	a5,-24(s0)
   110cc:	97ba                	add	a5,a5,a4
   110ce:	078a                	slli	a5,a5,0x2
   110d0:	fc842703          	lw	a4,-56(s0)
   110d4:	97ba                	add	a5,a5,a4
   110d6:	fc042683          	lw	a3,-64(s0)
   110da:	fe442703          	lw	a4,-28(s0)
   110de:	40e68733          	sub	a4,a3,a4
   110e2:	c398                	sw	a4,0(a5)
   110e4:	fe842783          	lw	a5,-24(s0)
   110e8:	0785                	addi	a5,a5,1
   110ea:	fef42423          	sw	a5,-24(s0)
   110ee:	fbc42783          	lw	a5,-68(s0)
   110f2:	17fd                	addi	a5,a5,-1
   110f4:	fe842703          	lw	a4,-24(s0)
   110f8:	e0f744e3          	blt	a4,a5,10f00 <susan_principle_small+0x52>
   110fc:	fec42783          	lw	a5,-20(s0)
   11100:	0785                	addi	a5,a5,1
   11102:	fef42623          	sw	a5,-20(s0)
   11106:	fb842783          	lw	a5,-72(s0)
   1110a:	17fd                	addi	a5,a5,-1
   1110c:	fec42703          	lw	a4,-20(s0)
   11110:	def744e3          	blt	a4,a5,10ef8 <susan_principle_small+0x4a>
   11114:	0001                	nop
   11116:	853e                	mv	a0,a5
   11118:	40b6                	lw	ra,76(sp)
   1111a:	4426                	lw	s0,72(sp)
   1111c:	6161                	addi	sp,sp,80
   1111e:	8082                	ret

00011120 <median>:
   11120:	715d                	addi	sp,sp,-80
   11122:	c686                	sw	ra,76(sp)
   11124:	c4a2                	sw	s0,72(sp)
   11126:	0880                	addi	s0,sp,80
   11128:	faa42e23          	sw	a0,-68(s0)
   1112c:	fab42c23          	sw	a1,-72(s0)
   11130:	fac42a23          	sw	a2,-76(s0)
   11134:	fad42823          	sw	a3,-80(s0)
   11138:	fb842783          	lw	a5,-72(s0)
   1113c:	fff78713          	addi	a4,a5,-1
   11140:	fb042783          	lw	a5,-80(s0)
   11144:	02f70733          	mul	a4,a4,a5
   11148:	fb442783          	lw	a5,-76(s0)
   1114c:	97ba                	add	a5,a5,a4
   1114e:	17fd                	addi	a5,a5,-1
   11150:	fbc42703          	lw	a4,-68(s0)
   11154:	97ba                	add	a5,a5,a4
   11156:	0007c783          	lbu	a5,0(a5)
   1115a:	fcf42223          	sw	a5,-60(s0)
   1115e:	fb842783          	lw	a5,-72(s0)
   11162:	fff78713          	addi	a4,a5,-1
   11166:	fb042783          	lw	a5,-80(s0)
   1116a:	02f70733          	mul	a4,a4,a5
   1116e:	fb442783          	lw	a5,-76(s0)
   11172:	97ba                	add	a5,a5,a4
   11174:	873e                	mv	a4,a5
   11176:	fbc42783          	lw	a5,-68(s0)
   1117a:	97ba                	add	a5,a5,a4
   1117c:	0007c783          	lbu	a5,0(a5)
   11180:	fcf42423          	sw	a5,-56(s0)
   11184:	fb842783          	lw	a5,-72(s0)
   11188:	fff78713          	addi	a4,a5,-1
   1118c:	fb042783          	lw	a5,-80(s0)
   11190:	02f70733          	mul	a4,a4,a5
   11194:	fb442783          	lw	a5,-76(s0)
   11198:	97ba                	add	a5,a5,a4
   1119a:	0785                	addi	a5,a5,1
   1119c:	fbc42703          	lw	a4,-68(s0)
   111a0:	97ba                	add	a5,a5,a4
   111a2:	0007c783          	lbu	a5,0(a5)
   111a6:	fcf42623          	sw	a5,-52(s0)
   111aa:	fb842703          	lw	a4,-72(s0)
   111ae:	fb042783          	lw	a5,-80(s0)
   111b2:	02f70733          	mul	a4,a4,a5
   111b6:	fb442783          	lw	a5,-76(s0)
   111ba:	97ba                	add	a5,a5,a4
   111bc:	17fd                	addi	a5,a5,-1
   111be:	fbc42703          	lw	a4,-68(s0)
   111c2:	97ba                	add	a5,a5,a4
   111c4:	0007c783          	lbu	a5,0(a5)
   111c8:	fcf42823          	sw	a5,-48(s0)
   111cc:	fb842703          	lw	a4,-72(s0)
   111d0:	fb042783          	lw	a5,-80(s0)
   111d4:	02f70733          	mul	a4,a4,a5
   111d8:	fb442783          	lw	a5,-76(s0)
   111dc:	97ba                	add	a5,a5,a4
   111de:	0785                	addi	a5,a5,1
   111e0:	fbc42703          	lw	a4,-68(s0)
   111e4:	97ba                	add	a5,a5,a4
   111e6:	0007c783          	lbu	a5,0(a5)
   111ea:	fcf42a23          	sw	a5,-44(s0)
   111ee:	fb842783          	lw	a5,-72(s0)
   111f2:	00178713          	addi	a4,a5,1
   111f6:	fb042783          	lw	a5,-80(s0)
   111fa:	02f70733          	mul	a4,a4,a5
   111fe:	fb442783          	lw	a5,-76(s0)
   11202:	97ba                	add	a5,a5,a4
   11204:	17fd                	addi	a5,a5,-1
   11206:	fbc42703          	lw	a4,-68(s0)
   1120a:	97ba                	add	a5,a5,a4
   1120c:	0007c783          	lbu	a5,0(a5)
   11210:	fcf42c23          	sw	a5,-40(s0)
   11214:	fb842783          	lw	a5,-72(s0)
   11218:	00178713          	addi	a4,a5,1
   1121c:	fb042783          	lw	a5,-80(s0)
   11220:	02f70733          	mul	a4,a4,a5
   11224:	fb442783          	lw	a5,-76(s0)
   11228:	97ba                	add	a5,a5,a4
   1122a:	873e                	mv	a4,a5
   1122c:	fbc42783          	lw	a5,-68(s0)
   11230:	97ba                	add	a5,a5,a4
   11232:	0007c783          	lbu	a5,0(a5)
   11236:	fcf42e23          	sw	a5,-36(s0)
   1123a:	fb842783          	lw	a5,-72(s0)
   1123e:	00178713          	addi	a4,a5,1
   11242:	fb042783          	lw	a5,-80(s0)
   11246:	02f70733          	mul	a4,a4,a5
   1124a:	fb442783          	lw	a5,-76(s0)
   1124e:	97ba                	add	a5,a5,a4
   11250:	0785                	addi	a5,a5,1
   11252:	fbc42703          	lw	a4,-68(s0)
   11256:	97ba                	add	a5,a5,a4
   11258:	0007c783          	lbu	a5,0(a5)
   1125c:	fef42023          	sw	a5,-32(s0)
   11260:	fe042623          	sw	zero,-20(s0)
   11264:	a869                	j	112fe <median+0x1de>
   11266:	fe042423          	sw	zero,-24(s0)
   1126a:	a8a5                	j	112e2 <median+0x1c2>
   1126c:	fe842703          	lw	a4,-24(s0)
   11270:	fc440793          	addi	a5,s0,-60
   11274:	070a                	slli	a4,a4,0x2
   11276:	97ba                	add	a5,a5,a4
   11278:	4398                	lw	a4,0(a5)
   1127a:	fe842783          	lw	a5,-24(s0)
   1127e:	00178693          	addi	a3,a5,1
   11282:	fc440793          	addi	a5,s0,-60
   11286:	068a                	slli	a3,a3,0x2
   11288:	97b6                	add	a5,a5,a3
   1128a:	439c                	lw	a5,0(a5)
   1128c:	04e7d663          	bge	a5,a4,112d8 <median+0x1b8>
   11290:	fe842703          	lw	a4,-24(s0)
   11294:	fc440793          	addi	a5,s0,-60
   11298:	070a                	slli	a4,a4,0x2
   1129a:	97ba                	add	a5,a5,a4
   1129c:	439c                	lw	a5,0(a5)
   1129e:	fef42223          	sw	a5,-28(s0)
   112a2:	fe842783          	lw	a5,-24(s0)
   112a6:	00178713          	addi	a4,a5,1
   112aa:	fc440793          	addi	a5,s0,-60
   112ae:	070a                	slli	a4,a4,0x2
   112b0:	97ba                	add	a5,a5,a4
   112b2:	4398                	lw	a4,0(a5)
   112b4:	fe842683          	lw	a3,-24(s0)
   112b8:	fc440793          	addi	a5,s0,-60
   112bc:	068a                	slli	a3,a3,0x2
   112be:	97b6                	add	a5,a5,a3
   112c0:	c398                	sw	a4,0(a5)
   112c2:	fe842783          	lw	a5,-24(s0)
   112c6:	00178713          	addi	a4,a5,1
   112ca:	fc440793          	addi	a5,s0,-60
   112ce:	070a                	slli	a4,a4,0x2
   112d0:	97ba                	add	a5,a5,a4
   112d2:	fe442703          	lw	a4,-28(s0)
   112d6:	c398                	sw	a4,0(a5)
   112d8:	fe842783          	lw	a5,-24(s0)
   112dc:	0785                	addi	a5,a5,1
   112de:	fef42423          	sw	a5,-24(s0)
   112e2:	471d                	li	a4,7
   112e4:	fec42783          	lw	a5,-20(s0)
   112e8:	40f707b3          	sub	a5,a4,a5
   112ec:	fe842703          	lw	a4,-24(s0)
   112f0:	f6f74ee3          	blt	a4,a5,1126c <median+0x14c>
   112f4:	fec42783          	lw	a5,-20(s0)
   112f8:	0785                	addi	a5,a5,1
   112fa:	fef42623          	sw	a5,-20(s0)
   112fe:	fec42703          	lw	a4,-20(s0)
   11302:	4799                	li	a5,6
   11304:	f6e7d1e3          	bge	a5,a4,11266 <median+0x146>
   11308:	fd042703          	lw	a4,-48(s0)
   1130c:	fd442783          	lw	a5,-44(s0)
   11310:	97ba                	add	a5,a5,a4
   11312:	01f7d713          	srli	a4,a5,0x1f
   11316:	97ba                	add	a5,a5,a4
   11318:	8785                	srai	a5,a5,0x1
   1131a:	0ff7f793          	zext.b	a5,a5
   1131e:	853e                	mv	a0,a5
   11320:	40b6                	lw	ra,76(sp)
   11322:	4426                	lw	s0,72(sp)
   11324:	6161                	addi	sp,sp,80
   11326:	8082                	ret

00011328 <enlarge>:
   11328:	7139                	addi	sp,sp,-64
   1132a:	de06                	sw	ra,60(sp)
   1132c:	dc22                	sw	s0,56(sp)
   1132e:	0080                	addi	s0,sp,64
   11330:	fca42e23          	sw	a0,-36(s0)
   11334:	fcb42c23          	sw	a1,-40(s0)
   11338:	fcc42a23          	sw	a2,-44(s0)
   1133c:	fcd42823          	sw	a3,-48(s0)
   11340:	fce42623          	sw	a4,-52(s0)
   11344:	fe042623          	sw	zero,-20(s0)
   11348:	a8b1                	j	113a4 <enlarge+0x7c>
   1134a:	fec42703          	lw	a4,-20(s0)
   1134e:	fcc42783          	lw	a5,-52(s0)
   11352:	973e                	add	a4,a4,a5
   11354:	fd442783          	lw	a5,-44(s0)
   11358:	4394                	lw	a3,0(a5)
   1135a:	fcc42783          	lw	a5,-52(s0)
   1135e:	0786                	slli	a5,a5,0x1
   11360:	97b6                	add	a5,a5,a3
   11362:	02f707b3          	mul	a5,a4,a5
   11366:	873e                	mv	a4,a5
   11368:	fcc42783          	lw	a5,-52(s0)
   1136c:	97ba                	add	a5,a5,a4
   1136e:	fd842703          	lw	a4,-40(s0)
   11372:	00f70533          	add	a0,a4,a5
   11376:	fdc42783          	lw	a5,-36(s0)
   1137a:	439c                	lw	a5,0(a5)
   1137c:	fd442703          	lw	a4,-44(s0)
   11380:	4314                	lw	a3,0(a4)
   11382:	fec42703          	lw	a4,-20(s0)
   11386:	02e68733          	mul	a4,a3,a4
   1138a:	973e                	add	a4,a4,a5
   1138c:	fd442783          	lw	a5,-44(s0)
   11390:	439c                	lw	a5,0(a5)
   11392:	863e                	mv	a2,a5
   11394:	85ba                	mv	a1,a4
   11396:	60b0b0ef          	jal	1d1a0 <memcpy>
   1139a:	fec42783          	lw	a5,-20(s0)
   1139e:	0785                	addi	a5,a5,1
   113a0:	fef42623          	sw	a5,-20(s0)
   113a4:	fd042783          	lw	a5,-48(s0)
   113a8:	439c                	lw	a5,0(a5)
   113aa:	fec42703          	lw	a4,-20(s0)
   113ae:	f8f74ee3          	blt	a4,a5,1134a <enlarge+0x22>
   113b2:	fe042623          	sw	zero,-20(s0)
   113b6:	a0d9                	j	1147c <enlarge+0x154>
   113b8:	fcc42783          	lw	a5,-52(s0)
   113bc:	fff78713          	addi	a4,a5,-1
   113c0:	fec42783          	lw	a5,-20(s0)
   113c4:	8f1d                	sub	a4,a4,a5
   113c6:	fd442783          	lw	a5,-44(s0)
   113ca:	4394                	lw	a3,0(a5)
   113cc:	fcc42783          	lw	a5,-52(s0)
   113d0:	0786                	slli	a5,a5,0x1
   113d2:	97b6                	add	a5,a5,a3
   113d4:	02f707b3          	mul	a5,a4,a5
   113d8:	873e                	mv	a4,a5
   113da:	fcc42783          	lw	a5,-52(s0)
   113de:	97ba                	add	a5,a5,a4
   113e0:	fd842703          	lw	a4,-40(s0)
   113e4:	00f70533          	add	a0,a4,a5
   113e8:	fdc42783          	lw	a5,-36(s0)
   113ec:	439c                	lw	a5,0(a5)
   113ee:	fd442703          	lw	a4,-44(s0)
   113f2:	4314                	lw	a3,0(a4)
   113f4:	fec42703          	lw	a4,-20(s0)
   113f8:	02e68733          	mul	a4,a3,a4
   113fc:	973e                	add	a4,a4,a5
   113fe:	fd442783          	lw	a5,-44(s0)
   11402:	439c                	lw	a5,0(a5)
   11404:	863e                	mv	a2,a5
   11406:	85ba                	mv	a1,a4
   11408:	5990b0ef          	jal	1d1a0 <memcpy>
   1140c:	fd042783          	lw	a5,-48(s0)
   11410:	4398                	lw	a4,0(a5)
   11412:	fcc42783          	lw	a5,-52(s0)
   11416:	973e                	add	a4,a4,a5
   11418:	fec42783          	lw	a5,-20(s0)
   1141c:	973e                	add	a4,a4,a5
   1141e:	fd442783          	lw	a5,-44(s0)
   11422:	4394                	lw	a3,0(a5)
   11424:	fcc42783          	lw	a5,-52(s0)
   11428:	0786                	slli	a5,a5,0x1
   1142a:	97b6                	add	a5,a5,a3
   1142c:	02f707b3          	mul	a5,a4,a5
   11430:	873e                	mv	a4,a5
   11432:	fcc42783          	lw	a5,-52(s0)
   11436:	97ba                	add	a5,a5,a4
   11438:	fd842703          	lw	a4,-40(s0)
   1143c:	00f70533          	add	a0,a4,a5
   11440:	fdc42783          	lw	a5,-36(s0)
   11444:	439c                	lw	a5,0(a5)
   11446:	fd042703          	lw	a4,-48(s0)
   1144a:	4314                	lw	a3,0(a4)
   1144c:	fec42703          	lw	a4,-20(s0)
   11450:	40e68733          	sub	a4,a3,a4
   11454:	fff70693          	addi	a3,a4,-1
   11458:	fd442703          	lw	a4,-44(s0)
   1145c:	4318                	lw	a4,0(a4)
   1145e:	02e68733          	mul	a4,a3,a4
   11462:	973e                	add	a4,a4,a5
   11464:	fd442783          	lw	a5,-44(s0)
   11468:	439c                	lw	a5,0(a5)
   1146a:	863e                	mv	a2,a5
   1146c:	85ba                	mv	a1,a4
   1146e:	5330b0ef          	jal	1d1a0 <memcpy>
   11472:	fec42783          	lw	a5,-20(s0)
   11476:	0785                	addi	a5,a5,1
   11478:	fef42623          	sw	a5,-20(s0)
   1147c:	fec42703          	lw	a4,-20(s0)
   11480:	fcc42783          	lw	a5,-52(s0)
   11484:	f2f74ae3          	blt	a4,a5,113b8 <enlarge+0x90>
   11488:	fe042623          	sw	zero,-20(s0)
   1148c:	a219                	j	11592 <enlarge+0x26a>
   1148e:	fe042423          	sw	zero,-24(s0)
   11492:	a0c5                	j	11572 <enlarge+0x24a>
   11494:	fd442783          	lw	a5,-44(s0)
   11498:	4398                	lw	a4,0(a5)
   1149a:	fcc42783          	lw	a5,-52(s0)
   1149e:	0786                	slli	a5,a5,0x1
   114a0:	973e                	add	a4,a4,a5
   114a2:	fe842783          	lw	a5,-24(s0)
   114a6:	02f70733          	mul	a4,a4,a5
   114aa:	fcc42783          	lw	a5,-52(s0)
   114ae:	973e                	add	a4,a4,a5
   114b0:	fec42783          	lw	a5,-20(s0)
   114b4:	97ba                	add	a5,a5,a4
   114b6:	873e                	mv	a4,a5
   114b8:	fd842783          	lw	a5,-40(s0)
   114bc:	973e                	add	a4,a4,a5
   114be:	fd442783          	lw	a5,-44(s0)
   114c2:	4394                	lw	a3,0(a5)
   114c4:	fcc42783          	lw	a5,-52(s0)
   114c8:	0786                	slli	a5,a5,0x1
   114ca:	96be                	add	a3,a3,a5
   114cc:	fe842783          	lw	a5,-24(s0)
   114d0:	02f686b3          	mul	a3,a3,a5
   114d4:	fcc42783          	lw	a5,-52(s0)
   114d8:	97b6                	add	a5,a5,a3
   114da:	fff78693          	addi	a3,a5,-1
   114de:	fec42783          	lw	a5,-20(s0)
   114e2:	40f687b3          	sub	a5,a3,a5
   114e6:	86be                	mv	a3,a5
   114e8:	fd842783          	lw	a5,-40(s0)
   114ec:	97b6                	add	a5,a5,a3
   114ee:	00074703          	lbu	a4,0(a4)
   114f2:	00e78023          	sb	a4,0(a5)
   114f6:	fd442783          	lw	a5,-44(s0)
   114fa:	4398                	lw	a4,0(a5)
   114fc:	fcc42783          	lw	a5,-52(s0)
   11500:	0786                	slli	a5,a5,0x1
   11502:	973e                	add	a4,a4,a5
   11504:	fe842783          	lw	a5,-24(s0)
   11508:	02f70733          	mul	a4,a4,a5
   1150c:	fd442783          	lw	a5,-44(s0)
   11510:	439c                	lw	a5,0(a5)
   11512:	973e                	add	a4,a4,a5
   11514:	fcc42783          	lw	a5,-52(s0)
   11518:	97ba                	add	a5,a5,a4
   1151a:	fff78713          	addi	a4,a5,-1
   1151e:	fec42783          	lw	a5,-20(s0)
   11522:	40f707b3          	sub	a5,a4,a5
   11526:	873e                	mv	a4,a5
   11528:	fd842783          	lw	a5,-40(s0)
   1152c:	973e                	add	a4,a4,a5
   1152e:	fd442783          	lw	a5,-44(s0)
   11532:	4394                	lw	a3,0(a5)
   11534:	fcc42783          	lw	a5,-52(s0)
   11538:	0786                	slli	a5,a5,0x1
   1153a:	96be                	add	a3,a3,a5
   1153c:	fe842783          	lw	a5,-24(s0)
   11540:	02f686b3          	mul	a3,a3,a5
   11544:	fd442783          	lw	a5,-44(s0)
   11548:	439c                	lw	a5,0(a5)
   1154a:	96be                	add	a3,a3,a5
   1154c:	fcc42783          	lw	a5,-52(s0)
   11550:	96be                	add	a3,a3,a5
   11552:	fec42783          	lw	a5,-20(s0)
   11556:	97b6                	add	a5,a5,a3
   11558:	86be                	mv	a3,a5
   1155a:	fd842783          	lw	a5,-40(s0)
   1155e:	97b6                	add	a5,a5,a3
   11560:	00074703          	lbu	a4,0(a4)
   11564:	00e78023          	sb	a4,0(a5)
   11568:	fe842783          	lw	a5,-24(s0)
   1156c:	0785                	addi	a5,a5,1
   1156e:	fef42423          	sw	a5,-24(s0)
   11572:	fd042783          	lw	a5,-48(s0)
   11576:	4398                	lw	a4,0(a5)
   11578:	fcc42783          	lw	a5,-52(s0)
   1157c:	0786                	slli	a5,a5,0x1
   1157e:	97ba                	add	a5,a5,a4
   11580:	fe842703          	lw	a4,-24(s0)
   11584:	f0f748e3          	blt	a4,a5,11494 <enlarge+0x16c>
   11588:	fec42783          	lw	a5,-20(s0)
   1158c:	0785                	addi	a5,a5,1
   1158e:	fef42623          	sw	a5,-20(s0)
   11592:	fec42703          	lw	a4,-20(s0)
   11596:	fcc42783          	lw	a5,-52(s0)
   1159a:	eef74ae3          	blt	a4,a5,1148e <enlarge+0x166>
   1159e:	fd442783          	lw	a5,-44(s0)
   115a2:	4398                	lw	a4,0(a5)
   115a4:	fcc42783          	lw	a5,-52(s0)
   115a8:	0786                	slli	a5,a5,0x1
   115aa:	973e                	add	a4,a4,a5
   115ac:	fd442783          	lw	a5,-44(s0)
   115b0:	c398                	sw	a4,0(a5)
   115b2:	fd042783          	lw	a5,-48(s0)
   115b6:	4398                	lw	a4,0(a5)
   115b8:	fcc42783          	lw	a5,-52(s0)
   115bc:	0786                	slli	a5,a5,0x1
   115be:	973e                	add	a4,a4,a5
   115c0:	fd042783          	lw	a5,-48(s0)
   115c4:	c398                	sw	a4,0(a5)
   115c6:	fdc42783          	lw	a5,-36(s0)
   115ca:	fd842703          	lw	a4,-40(s0)
   115ce:	c398                	sw	a4,0(a5)
   115d0:	0001                	nop
   115d2:	853e                	mv	a0,a5
   115d4:	50f2                	lw	ra,60(sp)
   115d6:	5462                	lw	s0,56(sp)
   115d8:	6121                	addi	sp,sp,64
   115da:	8082                	ret

000115dc <susan_smoothing>:
   115dc:	7119                	addi	sp,sp,-128
   115de:	de86                	sw	ra,124(sp)
   115e0:	dca2                	sw	s0,120(sp)
   115e2:	daa6                	sw	s1,116(sp)
   115e4:	0100                	addi	s0,sp,128
   115e6:	f8a42e23          	sw	a0,-100(s0)
   115ea:	f8b42c23          	sw	a1,-104(s0)
   115ee:	22a507d3          	fmv.d	fa5,fa0
   115f2:	f8c42a23          	sw	a2,-108(s0)
   115f6:	f8d42623          	sw	a3,-116(s0)
   115fa:	f8e42423          	sw	a4,-120(s0)
   115fe:	4017f7d3          	fcvt.s.d	fa5,fa5
   11602:	f8f42827          	fsw	fa5,-112(s0)
   11606:	f9842783          	lw	a5,-104(s0)
   1160a:	fcf42623          	sw	a5,-52(s0)
   1160e:	f9c42783          	lw	a5,-100(s0)
   11612:	e38d                	bnez	a5,11634 <susan_smoothing+0x58>
   11614:	f9042787          	flw	fa5,-112(s0)
   11618:	42078753          	fcvt.d.s	fa4,fa5
   1161c:	000277b7          	lui	a5,0x27
   11620:	1c87b787          	fld	fa5,456(a5) # 271c8 <__clzsi2+0x5aa>
   11624:	12f777d3          	fmul.d	fa5,fa4,fa5
   11628:	c20797d3          	fcvt.w.d	a5,fa5,rtz
   1162c:	0785                	addi	a5,a5,1
   1162e:	fef42623          	sw	a5,-20(s0)
   11632:	a021                	j	1163a <susan_smoothing+0x5e>
   11634:	4785                	li	a5,1
   11636:	fef42623          	sw	a5,-20(s0)
   1163a:	fc042423          	sw	zero,-56(s0)
   1163e:	f9042707          	flw	fa4,-112(s0)
   11642:	000277b7          	lui	a5,0x27
   11646:	1d07a787          	flw	fa5,464(a5) # 271d0 <__clzsi2+0x5b2>
   1164a:	a0e797d3          	flt.s	a5,fa5,fa4
   1164e:	e391                	bnez	a5,11652 <susan_smoothing+0x76>
   11650:	a099                	j	11696 <susan_smoothing+0xba>
   11652:	fc842783          	lw	a5,-56(s0)
   11656:	e3a1                	bnez	a5,11696 <susan_smoothing+0xba>
   11658:	f9042787          	flw	fa5,-112(s0)
   1165c:	420787d3          	fcvt.d.s	fa5,fa5
   11660:	f8f43027          	fsd	fa5,-128(s0)
   11664:	f8042603          	lw	a2,-128(s0)
   11668:	f8442683          	lw	a3,-124(s0)
   1166c:	000277b7          	lui	a5,0x27
   11670:	09078513          	addi	a0,a5,144 # 27090 <__clzsi2+0x472>
   11674:	7b70a0ef          	jal	1c62a <printf>
   11678:	000277b7          	lui	a5,0x27
   1167c:	0c878513          	addi	a0,a5,200 # 270c8 <__clzsi2+0x4aa>
   11680:	0580b0ef          	jal	1c6d8 <puts>
   11684:	000277b7          	lui	a5,0x27
   11688:	10478513          	addi	a0,a5,260 # 27104 <__clzsi2+0x4e6>
   1168c:	04c0b0ef          	jal	1c6d8 <puts>
   11690:	4501                	li	a0,0
   11692:	a23fe0ef          	jal	100b4 <exit>
   11696:	fec42783          	lw	a5,-20(s0)
   1169a:	00179713          	slli	a4,a5,0x1
   1169e:	f9442783          	lw	a5,-108(s0)
   116a2:	00f75a63          	bge	a4,a5,116b6 <susan_smoothing+0xda>
   116a6:	fec42783          	lw	a5,-20(s0)
   116aa:	00179713          	slli	a4,a5,0x1
   116ae:	f8c42783          	lw	a5,-116(s0)
   116b2:	02f74363          	blt	a4,a5,116d8 <susan_smoothing+0xfc>
   116b6:	f9442783          	lw	a5,-108(s0)
   116ba:	f8c42703          	lw	a4,-116(s0)
   116be:	86ba                	mv	a3,a4
   116c0:	863e                	mv	a2,a5
   116c2:	fec42583          	lw	a1,-20(s0)
   116c6:	000277b7          	lui	a5,0x27
   116ca:	12c78513          	addi	a0,a5,300 # 2712c <__clzsi2+0x50e>
   116ce:	75d0a0ef          	jal	1c62a <printf>
   116d2:	4501                	li	a0,0
   116d4:	9e1fe0ef          	jal	100b4 <exit>
   116d8:	fec42783          	lw	a5,-20(s0)
   116dc:	00179713          	slli	a4,a5,0x1
   116e0:	f9442783          	lw	a5,-108(s0)
   116e4:	973e                	add	a4,a4,a5
   116e6:	fec42783          	lw	a5,-20(s0)
   116ea:	00179693          	slli	a3,a5,0x1
   116ee:	f8c42783          	lw	a5,-116(s0)
   116f2:	97b6                	add	a5,a5,a3
   116f4:	02f707b3          	mul	a5,a4,a5
   116f8:	853e                	mv	a0,a5
   116fa:	0e9080ef          	jal	19fe2 <malloc>
   116fe:	87aa                	mv	a5,a0
   11700:	fcf42223          	sw	a5,-60(s0)
   11704:	f8c40693          	addi	a3,s0,-116
   11708:	f9440613          	addi	a2,s0,-108
   1170c:	f9840793          	addi	a5,s0,-104
   11710:	fec42703          	lw	a4,-20(s0)
   11714:	fc442583          	lw	a1,-60(s0)
   11718:	853e                	mv	a0,a5
   1171a:	3139                	jal	11328 <enlarge>
   1171c:	f9c42783          	lw	a5,-100(s0)
   11720:	2c079a63          	bnez	a5,119f4 <susan_smoothing+0x418>
   11724:	fec42783          	lw	a5,-20(s0)
   11728:	0786                	slli	a5,a5,0x1
   1172a:	0785                	addi	a5,a5,1
   1172c:	faf42823          	sw	a5,-80(s0)
   11730:	f9442703          	lw	a4,-108(s0)
   11734:	fb042783          	lw	a5,-80(s0)
   11738:	40f707b3          	sub	a5,a4,a5
   1173c:	faf42623          	sw	a5,-84(s0)
   11740:	fb042783          	lw	a5,-80(s0)
   11744:	02f787b3          	mul	a5,a5,a5
   11748:	853e                	mv	a0,a5
   1174a:	099080ef          	jal	19fe2 <malloc>
   1174e:	87aa                	mv	a5,a0
   11750:	faf42423          	sw	a5,-88(s0)
   11754:	fa842783          	lw	a5,-88(s0)
   11758:	fcf42823          	sw	a5,-48(s0)
   1175c:	f9042787          	flw	fa5,-112(s0)
   11760:	10f7f7d3          	fmul.s	fa5,fa5,fa5
   11764:	20f797d3          	fneg.s	fa5,fa5
   11768:	faf42227          	fsw	fa5,-92(s0)
   1176c:	fec42783          	lw	a5,-20(s0)
   11770:	40f007b3          	neg	a5,a5
   11774:	fef42423          	sw	a5,-24(s0)
   11778:	a069                	j	11802 <susan_smoothing+0x226>
   1177a:	fec42783          	lw	a5,-20(s0)
   1177e:	40f007b3          	neg	a5,a5
   11782:	fef42223          	sw	a5,-28(s0)
   11786:	a09d                	j	117ec <susan_smoothing+0x210>
   11788:	fe842783          	lw	a5,-24(s0)
   1178c:	02f78733          	mul	a4,a5,a5
   11790:	fe442783          	lw	a5,-28(s0)
   11794:	02f787b3          	mul	a5,a5,a5
   11798:	97ba                	add	a5,a5,a4
   1179a:	d007f753          	fcvt.s.w	fa4,a5
   1179e:	fa442787          	flw	fa5,-92(s0)
   117a2:	18f777d3          	fdiv.s	fa5,fa4,fa5
   117a6:	420787d3          	fcvt.d.s	fa5,fa5
   117aa:	22f78553          	fmv.d	fa0,fa5
   117ae:	43c080ef          	jal	19bea <exp>
   117b2:	22a50753          	fmv.d	fa4,fa0
   117b6:	000277b7          	lui	a5,0x27
   117ba:	1c07b787          	fld	fa5,448(a5) # 271c0 <__clzsi2+0x5a2>
   117be:	12f777d3          	fmul.d	fa5,fa4,fa5
   117c2:	c20797d3          	fcvt.w.d	a5,fa5,rtz
   117c6:	fef42023          	sw	a5,-32(s0)
   117ca:	fd042783          	lw	a5,-48(s0)
   117ce:	00178713          	addi	a4,a5,1
   117d2:	fce42823          	sw	a4,-48(s0)
   117d6:	fe042703          	lw	a4,-32(s0)
   117da:	0ff77713          	zext.b	a4,a4
   117de:	00e78023          	sb	a4,0(a5)
   117e2:	fe442783          	lw	a5,-28(s0)
   117e6:	0785                	addi	a5,a5,1
   117e8:	fef42223          	sw	a5,-28(s0)
   117ec:	fe442703          	lw	a4,-28(s0)
   117f0:	fec42783          	lw	a5,-20(s0)
   117f4:	f8e7dae3          	bge	a5,a4,11788 <susan_smoothing+0x1ac>
   117f8:	fe842783          	lw	a5,-24(s0)
   117fc:	0785                	addi	a5,a5,1
   117fe:	fef42423          	sw	a5,-24(s0)
   11802:	fe842703          	lw	a4,-24(s0)
   11806:	fec42783          	lw	a5,-20(s0)
   1180a:	f6e7d8e3          	bge	a5,a4,1177a <susan_smoothing+0x19e>
   1180e:	fec42783          	lw	a5,-20(s0)
   11812:	fef42423          	sw	a5,-24(s0)
   11816:	a2e1                	j	119de <susan_smoothing+0x402>
   11818:	fec42783          	lw	a5,-20(s0)
   1181c:	fef42223          	sw	a5,-28(s0)
   11820:	a245                	j	119c0 <susan_smoothing+0x3e4>
   11822:	fc042c23          	sw	zero,-40(s0)
   11826:	fc042423          	sw	zero,-56(s0)
   1182a:	fa842783          	lw	a5,-88(s0)
   1182e:	fcf42823          	sw	a5,-48(s0)
   11832:	f9842703          	lw	a4,-104(s0)
   11836:	fe842683          	lw	a3,-24(s0)
   1183a:	fec42783          	lw	a5,-20(s0)
   1183e:	8e9d                	sub	a3,a3,a5
   11840:	f9442783          	lw	a5,-108(s0)
   11844:	02f687b3          	mul	a5,a3,a5
   11848:	86be                	mv	a3,a5
   1184a:	fe442783          	lw	a5,-28(s0)
   1184e:	96be                	add	a3,a3,a5
   11850:	fec42783          	lw	a5,-20(s0)
   11854:	40f687b3          	sub	a5,a3,a5
   11858:	97ba                	add	a5,a5,a4
   1185a:	fcf42a23          	sw	a5,-44(s0)
   1185e:	f9842783          	lw	a5,-104(s0)
   11862:	f9442683          	lw	a3,-108(s0)
   11866:	fe842703          	lw	a4,-24(s0)
   1186a:	02e686b3          	mul	a3,a3,a4
   1186e:	fe442703          	lw	a4,-28(s0)
   11872:	9736                	add	a4,a4,a3
   11874:	97ba                	add	a5,a5,a4
   11876:	0007c783          	lbu	a5,0(a5)
   1187a:	fcf42023          	sw	a5,-64(s0)
   1187e:	fc042783          	lw	a5,-64(s0)
   11882:	f8842703          	lw	a4,-120(s0)
   11886:	97ba                	add	a5,a5,a4
   11888:	faf42e23          	sw	a5,-68(s0)
   1188c:	fec42783          	lw	a5,-20(s0)
   11890:	40f007b3          	neg	a5,a5
   11894:	fcf42e23          	sw	a5,-36(s0)
   11898:	a04d                	j	1193a <susan_smoothing+0x35e>
   1189a:	fec42783          	lw	a5,-20(s0)
   1189e:	40f007b3          	neg	a5,a5
   118a2:	fef42023          	sw	a5,-32(s0)
   118a6:	a885                	j	11916 <susan_smoothing+0x33a>
   118a8:	fd442783          	lw	a5,-44(s0)
   118ac:	00178713          	addi	a4,a5,1
   118b0:	fce42a23          	sw	a4,-44(s0)
   118b4:	0007c783          	lbu	a5,0(a5)
   118b8:	faf42c23          	sw	a5,-72(s0)
   118bc:	fd042783          	lw	a5,-48(s0)
   118c0:	00178713          	addi	a4,a5,1
   118c4:	fce42823          	sw	a4,-48(s0)
   118c8:	0007c783          	lbu	a5,0(a5)
   118cc:	86be                	mv	a3,a5
   118ce:	fb842783          	lw	a5,-72(s0)
   118d2:	40f007b3          	neg	a5,a5
   118d6:	fbc42703          	lw	a4,-68(s0)
   118da:	97ba                	add	a5,a5,a4
   118dc:	0007c783          	lbu	a5,0(a5)
   118e0:	02f687b3          	mul	a5,a3,a5
   118e4:	faf42a23          	sw	a5,-76(s0)
   118e8:	fd842703          	lw	a4,-40(s0)
   118ec:	fb442783          	lw	a5,-76(s0)
   118f0:	97ba                	add	a5,a5,a4
   118f2:	fcf42c23          	sw	a5,-40(s0)
   118f6:	fb442703          	lw	a4,-76(s0)
   118fa:	fb842783          	lw	a5,-72(s0)
   118fe:	02f707b3          	mul	a5,a4,a5
   11902:	fc842703          	lw	a4,-56(s0)
   11906:	97ba                	add	a5,a5,a4
   11908:	fcf42423          	sw	a5,-56(s0)
   1190c:	fe042783          	lw	a5,-32(s0)
   11910:	0785                	addi	a5,a5,1
   11912:	fef42023          	sw	a5,-32(s0)
   11916:	fe042703          	lw	a4,-32(s0)
   1191a:	fec42783          	lw	a5,-20(s0)
   1191e:	f8e7d5e3          	bge	a5,a4,118a8 <susan_smoothing+0x2cc>
   11922:	fac42783          	lw	a5,-84(s0)
   11926:	fd442703          	lw	a4,-44(s0)
   1192a:	97ba                	add	a5,a5,a4
   1192c:	fcf42a23          	sw	a5,-44(s0)
   11930:	fdc42783          	lw	a5,-36(s0)
   11934:	0785                	addi	a5,a5,1
   11936:	fcf42e23          	sw	a5,-36(s0)
   1193a:	fdc42703          	lw	a4,-36(s0)
   1193e:	fec42783          	lw	a5,-20(s0)
   11942:	f4e7dce3          	bge	a5,a4,1189a <susan_smoothing+0x2be>
   11946:	fd842703          	lw	a4,-40(s0)
   1194a:	77f9                	lui	a5,0xffffe
   1194c:	8f078793          	addi	a5,a5,-1808 # ffffd8f0 <__BSS_END__+0xfffd3964>
   11950:	97ba                	add	a5,a5,a4
   11952:	faf42a23          	sw	a5,-76(s0)
   11956:	fb442783          	lw	a5,-76(s0)
   1195a:	e795                	bnez	a5,11986 <susan_smoothing+0x3aa>
   1195c:	f9842703          	lw	a4,-104(s0)
   11960:	f9442683          	lw	a3,-108(s0)
   11964:	fcc42483          	lw	s1,-52(s0)
   11968:	00148793          	addi	a5,s1,1
   1196c:	fcf42623          	sw	a5,-52(s0)
   11970:	fe442603          	lw	a2,-28(s0)
   11974:	fe842583          	lw	a1,-24(s0)
   11978:	853a                	mv	a0,a4
   1197a:	fa6ff0ef          	jal	11120 <median>
   1197e:	87aa                	mv	a5,a0
   11980:	00f48023          	sb	a5,0(s1)
   11984:	a80d                	j	119b6 <susan_smoothing+0x3da>
   11986:	fc042703          	lw	a4,-64(s0)
   1198a:	77f9                	lui	a5,0xffffe
   1198c:	8f078793          	addi	a5,a5,-1808 # ffffd8f0 <__BSS_END__+0xfffd3964>
   11990:	02f70733          	mul	a4,a4,a5
   11994:	fc842783          	lw	a5,-56(s0)
   11998:	973e                	add	a4,a4,a5
   1199a:	fb442783          	lw	a5,-76(s0)
   1199e:	02f746b3          	div	a3,a4,a5
   119a2:	fcc42783          	lw	a5,-52(s0)
   119a6:	00178713          	addi	a4,a5,1
   119aa:	fce42623          	sw	a4,-52(s0)
   119ae:	0ff6f713          	zext.b	a4,a3
   119b2:	00e78023          	sb	a4,0(a5)
   119b6:	fe442783          	lw	a5,-28(s0)
   119ba:	0785                	addi	a5,a5,1
   119bc:	fef42223          	sw	a5,-28(s0)
   119c0:	f9442703          	lw	a4,-108(s0)
   119c4:	fec42783          	lw	a5,-20(s0)
   119c8:	40f707b3          	sub	a5,a4,a5
   119cc:	fe442703          	lw	a4,-28(s0)
   119d0:	e4f749e3          	blt	a4,a5,11822 <susan_smoothing+0x246>
   119d4:	fe842783          	lw	a5,-24(s0)
   119d8:	0785                	addi	a5,a5,1
   119da:	fef42423          	sw	a5,-24(s0)
   119de:	f8c42703          	lw	a4,-116(s0)
   119e2:	fec42783          	lw	a5,-20(s0)
   119e6:	40f707b3          	sub	a5,a4,a5
   119ea:	fe842703          	lw	a4,-24(s0)
   119ee:	e2f745e3          	blt	a4,a5,11818 <susan_smoothing+0x23c>
   119f2:	a6f1                	j	11dbe <susan_smoothing+0x7e2>
   119f4:	4785                	li	a5,1
   119f6:	fef42423          	sw	a5,-24(s0)
   119fa:	ae5d                	j	11db0 <susan_smoothing+0x7d4>
   119fc:	4785                	li	a5,1
   119fe:	fef42223          	sw	a5,-28(s0)
   11a02:	ae59                	j	11d98 <susan_smoothing+0x7bc>
   11a04:	fc042c23          	sw	zero,-40(s0)
   11a08:	fc042423          	sw	zero,-56(s0)
   11a0c:	f9842703          	lw	a4,-104(s0)
   11a10:	fe842783          	lw	a5,-24(s0)
   11a14:	fff78693          	addi	a3,a5,-1
   11a18:	f9442783          	lw	a5,-108(s0)
   11a1c:	02f687b3          	mul	a5,a3,a5
   11a20:	86be                	mv	a3,a5
   11a22:	fe442783          	lw	a5,-28(s0)
   11a26:	97b6                	add	a5,a5,a3
   11a28:	17fd                	addi	a5,a5,-1
   11a2a:	97ba                	add	a5,a5,a4
   11a2c:	fcf42a23          	sw	a5,-44(s0)
   11a30:	f9842783          	lw	a5,-104(s0)
   11a34:	f9442683          	lw	a3,-108(s0)
   11a38:	fe842703          	lw	a4,-24(s0)
   11a3c:	02e686b3          	mul	a3,a3,a4
   11a40:	fe442703          	lw	a4,-28(s0)
   11a44:	9736                	add	a4,a4,a3
   11a46:	97ba                	add	a5,a5,a4
   11a48:	0007c783          	lbu	a5,0(a5)
   11a4c:	fcf42023          	sw	a5,-64(s0)
   11a50:	fc042783          	lw	a5,-64(s0)
   11a54:	f8842703          	lw	a4,-120(s0)
   11a58:	97ba                	add	a5,a5,a4
   11a5a:	faf42e23          	sw	a5,-68(s0)
   11a5e:	fd442783          	lw	a5,-44(s0)
   11a62:	00178713          	addi	a4,a5,1
   11a66:	fce42a23          	sw	a4,-44(s0)
   11a6a:	0007c783          	lbu	a5,0(a5)
   11a6e:	faf42c23          	sw	a5,-72(s0)
   11a72:	fb842783          	lw	a5,-72(s0)
   11a76:	40f007b3          	neg	a5,a5
   11a7a:	fbc42703          	lw	a4,-68(s0)
   11a7e:	97ba                	add	a5,a5,a4
   11a80:	0007c783          	lbu	a5,0(a5)
   11a84:	faf42a23          	sw	a5,-76(s0)
   11a88:	fd842703          	lw	a4,-40(s0)
   11a8c:	fb442783          	lw	a5,-76(s0)
   11a90:	97ba                	add	a5,a5,a4
   11a92:	fcf42c23          	sw	a5,-40(s0)
   11a96:	fb442703          	lw	a4,-76(s0)
   11a9a:	fb842783          	lw	a5,-72(s0)
   11a9e:	02f707b3          	mul	a5,a4,a5
   11aa2:	fc842703          	lw	a4,-56(s0)
   11aa6:	97ba                	add	a5,a5,a4
   11aa8:	fcf42423          	sw	a5,-56(s0)
   11aac:	fd442783          	lw	a5,-44(s0)
   11ab0:	00178713          	addi	a4,a5,1
   11ab4:	fce42a23          	sw	a4,-44(s0)
   11ab8:	0007c783          	lbu	a5,0(a5)
   11abc:	faf42c23          	sw	a5,-72(s0)
   11ac0:	fb842783          	lw	a5,-72(s0)
   11ac4:	40f007b3          	neg	a5,a5
   11ac8:	fbc42703          	lw	a4,-68(s0)
   11acc:	97ba                	add	a5,a5,a4
   11ace:	0007c783          	lbu	a5,0(a5)
   11ad2:	faf42a23          	sw	a5,-76(s0)
   11ad6:	fd842703          	lw	a4,-40(s0)
   11ada:	fb442783          	lw	a5,-76(s0)
   11ade:	97ba                	add	a5,a5,a4
   11ae0:	fcf42c23          	sw	a5,-40(s0)
   11ae4:	fb442703          	lw	a4,-76(s0)
   11ae8:	fb842783          	lw	a5,-72(s0)
   11aec:	02f707b3          	mul	a5,a4,a5
   11af0:	fc842703          	lw	a4,-56(s0)
   11af4:	97ba                	add	a5,a5,a4
   11af6:	fcf42423          	sw	a5,-56(s0)
   11afa:	fd442783          	lw	a5,-44(s0)
   11afe:	0007c783          	lbu	a5,0(a5)
   11b02:	faf42c23          	sw	a5,-72(s0)
   11b06:	fb842783          	lw	a5,-72(s0)
   11b0a:	40f007b3          	neg	a5,a5
   11b0e:	fbc42703          	lw	a4,-68(s0)
   11b12:	97ba                	add	a5,a5,a4
   11b14:	0007c783          	lbu	a5,0(a5)
   11b18:	faf42a23          	sw	a5,-76(s0)
   11b1c:	fd842703          	lw	a4,-40(s0)
   11b20:	fb442783          	lw	a5,-76(s0)
   11b24:	97ba                	add	a5,a5,a4
   11b26:	fcf42c23          	sw	a5,-40(s0)
   11b2a:	fb442703          	lw	a4,-76(s0)
   11b2e:	fb842783          	lw	a5,-72(s0)
   11b32:	02f707b3          	mul	a5,a4,a5
   11b36:	fc842703          	lw	a4,-56(s0)
   11b3a:	97ba                	add	a5,a5,a4
   11b3c:	fcf42423          	sw	a5,-56(s0)
   11b40:	f9442783          	lw	a5,-108(s0)
   11b44:	17f9                	addi	a5,a5,-2
   11b46:	fd442703          	lw	a4,-44(s0)
   11b4a:	97ba                	add	a5,a5,a4
   11b4c:	fcf42a23          	sw	a5,-44(s0)
   11b50:	fd442783          	lw	a5,-44(s0)
   11b54:	00178713          	addi	a4,a5,1
   11b58:	fce42a23          	sw	a4,-44(s0)
   11b5c:	0007c783          	lbu	a5,0(a5)
   11b60:	faf42c23          	sw	a5,-72(s0)
   11b64:	fb842783          	lw	a5,-72(s0)
   11b68:	40f007b3          	neg	a5,a5
   11b6c:	fbc42703          	lw	a4,-68(s0)
   11b70:	97ba                	add	a5,a5,a4
   11b72:	0007c783          	lbu	a5,0(a5)
   11b76:	faf42a23          	sw	a5,-76(s0)
   11b7a:	fd842703          	lw	a4,-40(s0)
   11b7e:	fb442783          	lw	a5,-76(s0)
   11b82:	97ba                	add	a5,a5,a4
   11b84:	fcf42c23          	sw	a5,-40(s0)
   11b88:	fb442703          	lw	a4,-76(s0)
   11b8c:	fb842783          	lw	a5,-72(s0)
   11b90:	02f707b3          	mul	a5,a4,a5
   11b94:	fc842703          	lw	a4,-56(s0)
   11b98:	97ba                	add	a5,a5,a4
   11b9a:	fcf42423          	sw	a5,-56(s0)
   11b9e:	fd442783          	lw	a5,-44(s0)
   11ba2:	00178713          	addi	a4,a5,1
   11ba6:	fce42a23          	sw	a4,-44(s0)
   11baa:	0007c783          	lbu	a5,0(a5)
   11bae:	faf42c23          	sw	a5,-72(s0)
   11bb2:	fb842783          	lw	a5,-72(s0)
   11bb6:	40f007b3          	neg	a5,a5
   11bba:	fbc42703          	lw	a4,-68(s0)
   11bbe:	97ba                	add	a5,a5,a4
   11bc0:	0007c783          	lbu	a5,0(a5)
   11bc4:	faf42a23          	sw	a5,-76(s0)
   11bc8:	fd842703          	lw	a4,-40(s0)
   11bcc:	fb442783          	lw	a5,-76(s0)
   11bd0:	97ba                	add	a5,a5,a4
   11bd2:	fcf42c23          	sw	a5,-40(s0)
   11bd6:	fb442703          	lw	a4,-76(s0)
   11bda:	fb842783          	lw	a5,-72(s0)
   11bde:	02f707b3          	mul	a5,a4,a5
   11be2:	fc842703          	lw	a4,-56(s0)
   11be6:	97ba                	add	a5,a5,a4
   11be8:	fcf42423          	sw	a5,-56(s0)
   11bec:	fd442783          	lw	a5,-44(s0)
   11bf0:	0007c783          	lbu	a5,0(a5)
   11bf4:	faf42c23          	sw	a5,-72(s0)
   11bf8:	fb842783          	lw	a5,-72(s0)
   11bfc:	40f007b3          	neg	a5,a5
   11c00:	fbc42703          	lw	a4,-68(s0)
   11c04:	97ba                	add	a5,a5,a4
   11c06:	0007c783          	lbu	a5,0(a5)
   11c0a:	faf42a23          	sw	a5,-76(s0)
   11c0e:	fd842703          	lw	a4,-40(s0)
   11c12:	fb442783          	lw	a5,-76(s0)
   11c16:	97ba                	add	a5,a5,a4
   11c18:	fcf42c23          	sw	a5,-40(s0)
   11c1c:	fb442703          	lw	a4,-76(s0)
   11c20:	fb842783          	lw	a5,-72(s0)
   11c24:	02f707b3          	mul	a5,a4,a5
   11c28:	fc842703          	lw	a4,-56(s0)
   11c2c:	97ba                	add	a5,a5,a4
   11c2e:	fcf42423          	sw	a5,-56(s0)
   11c32:	f9442783          	lw	a5,-108(s0)
   11c36:	17f9                	addi	a5,a5,-2
   11c38:	fd442703          	lw	a4,-44(s0)
   11c3c:	97ba                	add	a5,a5,a4
   11c3e:	fcf42a23          	sw	a5,-44(s0)
   11c42:	fd442783          	lw	a5,-44(s0)
   11c46:	00178713          	addi	a4,a5,1
   11c4a:	fce42a23          	sw	a4,-44(s0)
   11c4e:	0007c783          	lbu	a5,0(a5)
   11c52:	faf42c23          	sw	a5,-72(s0)
   11c56:	fb842783          	lw	a5,-72(s0)
   11c5a:	40f007b3          	neg	a5,a5
   11c5e:	fbc42703          	lw	a4,-68(s0)
   11c62:	97ba                	add	a5,a5,a4
   11c64:	0007c783          	lbu	a5,0(a5)
   11c68:	faf42a23          	sw	a5,-76(s0)
   11c6c:	fd842703          	lw	a4,-40(s0)
   11c70:	fb442783          	lw	a5,-76(s0)
   11c74:	97ba                	add	a5,a5,a4
   11c76:	fcf42c23          	sw	a5,-40(s0)
   11c7a:	fb442703          	lw	a4,-76(s0)
   11c7e:	fb842783          	lw	a5,-72(s0)
   11c82:	02f707b3          	mul	a5,a4,a5
   11c86:	fc842703          	lw	a4,-56(s0)
   11c8a:	97ba                	add	a5,a5,a4
   11c8c:	fcf42423          	sw	a5,-56(s0)
   11c90:	fd442783          	lw	a5,-44(s0)
   11c94:	00178713          	addi	a4,a5,1
   11c98:	fce42a23          	sw	a4,-44(s0)
   11c9c:	0007c783          	lbu	a5,0(a5)
   11ca0:	faf42c23          	sw	a5,-72(s0)
   11ca4:	fb842783          	lw	a5,-72(s0)
   11ca8:	40f007b3          	neg	a5,a5
   11cac:	fbc42703          	lw	a4,-68(s0)
   11cb0:	97ba                	add	a5,a5,a4
   11cb2:	0007c783          	lbu	a5,0(a5)
   11cb6:	faf42a23          	sw	a5,-76(s0)
   11cba:	fd842703          	lw	a4,-40(s0)
   11cbe:	fb442783          	lw	a5,-76(s0)
   11cc2:	97ba                	add	a5,a5,a4
   11cc4:	fcf42c23          	sw	a5,-40(s0)
   11cc8:	fb442703          	lw	a4,-76(s0)
   11ccc:	fb842783          	lw	a5,-72(s0)
   11cd0:	02f707b3          	mul	a5,a4,a5
   11cd4:	fc842703          	lw	a4,-56(s0)
   11cd8:	97ba                	add	a5,a5,a4
   11cda:	fcf42423          	sw	a5,-56(s0)
   11cde:	fd442783          	lw	a5,-44(s0)
   11ce2:	0007c783          	lbu	a5,0(a5)
   11ce6:	faf42c23          	sw	a5,-72(s0)
   11cea:	fb842783          	lw	a5,-72(s0)
   11cee:	40f007b3          	neg	a5,a5
   11cf2:	fbc42703          	lw	a4,-68(s0)
   11cf6:	97ba                	add	a5,a5,a4
   11cf8:	0007c783          	lbu	a5,0(a5)
   11cfc:	faf42a23          	sw	a5,-76(s0)
   11d00:	fd842703          	lw	a4,-40(s0)
   11d04:	fb442783          	lw	a5,-76(s0)
   11d08:	97ba                	add	a5,a5,a4
   11d0a:	fcf42c23          	sw	a5,-40(s0)
   11d0e:	fb442703          	lw	a4,-76(s0)
   11d12:	fb842783          	lw	a5,-72(s0)
   11d16:	02f707b3          	mul	a5,a4,a5
   11d1a:	fc842703          	lw	a4,-56(s0)
   11d1e:	97ba                	add	a5,a5,a4
   11d20:	fcf42423          	sw	a5,-56(s0)
   11d24:	fd842783          	lw	a5,-40(s0)
   11d28:	f9c78793          	addi	a5,a5,-100
   11d2c:	faf42a23          	sw	a5,-76(s0)
   11d30:	fb442783          	lw	a5,-76(s0)
   11d34:	e795                	bnez	a5,11d60 <susan_smoothing+0x784>
   11d36:	f9842703          	lw	a4,-104(s0)
   11d3a:	f9442683          	lw	a3,-108(s0)
   11d3e:	fcc42483          	lw	s1,-52(s0)
   11d42:	00148793          	addi	a5,s1,1
   11d46:	fcf42623          	sw	a5,-52(s0)
   11d4a:	fe442603          	lw	a2,-28(s0)
   11d4e:	fe842583          	lw	a1,-24(s0)
   11d52:	853a                	mv	a0,a4
   11d54:	bccff0ef          	jal	11120 <median>
   11d58:	87aa                	mv	a5,a0
   11d5a:	00f48023          	sb	a5,0(s1)
   11d5e:	a805                	j	11d8e <susan_smoothing+0x7b2>
   11d60:	fc042703          	lw	a4,-64(s0)
   11d64:	f9c00793          	li	a5,-100
   11d68:	02f70733          	mul	a4,a4,a5
   11d6c:	fc842783          	lw	a5,-56(s0)
   11d70:	973e                	add	a4,a4,a5
   11d72:	fb442783          	lw	a5,-76(s0)
   11d76:	02f746b3          	div	a3,a4,a5
   11d7a:	fcc42783          	lw	a5,-52(s0)
   11d7e:	00178713          	addi	a4,a5,1
   11d82:	fce42623          	sw	a4,-52(s0)
   11d86:	0ff6f713          	zext.b	a4,a3
   11d8a:	00e78023          	sb	a4,0(a5)
   11d8e:	fe442783          	lw	a5,-28(s0)
   11d92:	0785                	addi	a5,a5,1
   11d94:	fef42223          	sw	a5,-28(s0)
   11d98:	f9442783          	lw	a5,-108(s0)
   11d9c:	17fd                	addi	a5,a5,-1
   11d9e:	fe442703          	lw	a4,-28(s0)
   11da2:	c6f741e3          	blt	a4,a5,11a04 <susan_smoothing+0x428>
   11da6:	fe842783          	lw	a5,-24(s0)
   11daa:	0785                	addi	a5,a5,1
   11dac:	fef42423          	sw	a5,-24(s0)
   11db0:	f8c42783          	lw	a5,-116(s0)
   11db4:	17fd                	addi	a5,a5,-1
   11db6:	fe842703          	lw	a4,-24(s0)
   11dba:	c4f741e3          	blt	a4,a5,119fc <susan_smoothing+0x420>
   11dbe:	0001                	nop
   11dc0:	50f6                	lw	ra,124(sp)
   11dc2:	5466                	lw	s0,120(sp)
   11dc4:	54d6                	lw	s1,116(sp)
   11dc6:	6109                	addi	sp,sp,128
   11dc8:	8082                	ret

00011dca <edge_draw>:
   11dca:	7139                	addi	sp,sp,-64
   11dcc:	de06                	sw	ra,60(sp)
   11dce:	dc22                	sw	s0,56(sp)
   11dd0:	0080                	addi	s0,sp,64
   11dd2:	fca42e23          	sw	a0,-36(s0)
   11dd6:	fcb42c23          	sw	a1,-40(s0)
   11dda:	fcc42a23          	sw	a2,-44(s0)
   11dde:	fcd42823          	sw	a3,-48(s0)
   11de2:	fce42623          	sw	a4,-52(s0)
   11de6:	fcc42783          	lw	a5,-52(s0)
   11dea:	10079663          	bnez	a5,11ef6 <edge_draw+0x12c>
   11dee:	fd842783          	lw	a5,-40(s0)
   11df2:	fef42423          	sw	a5,-24(s0)
   11df6:	fe042623          	sw	zero,-20(s0)
   11dfa:	a0e5                	j	11ee2 <edge_draw+0x118>
   11dfc:	fe842783          	lw	a5,-24(s0)
   11e00:	0007c703          	lbu	a4,0(a5)
   11e04:	479d                	li	a5,7
   11e06:	0ce7e463          	bltu	a5,a4,11ece <edge_draw+0x104>
   11e0a:	fe842703          	lw	a4,-24(s0)
   11e0e:	fd842783          	lw	a5,-40(s0)
   11e12:	40f707b3          	sub	a5,a4,a5
   11e16:	873e                	mv	a4,a5
   11e18:	fd442783          	lw	a5,-44(s0)
   11e1c:	40f707b3          	sub	a5,a4,a5
   11e20:	17fd                	addi	a5,a5,-1
   11e22:	fdc42703          	lw	a4,-36(s0)
   11e26:	97ba                	add	a5,a5,a4
   11e28:	fef42223          	sw	a5,-28(s0)
   11e2c:	fe442783          	lw	a5,-28(s0)
   11e30:	00178713          	addi	a4,a5,1
   11e34:	fee42223          	sw	a4,-28(s0)
   11e38:	577d                	li	a4,-1
   11e3a:	00e78023          	sb	a4,0(a5)
   11e3e:	fe442783          	lw	a5,-28(s0)
   11e42:	00178713          	addi	a4,a5,1
   11e46:	fee42223          	sw	a4,-28(s0)
   11e4a:	577d                	li	a4,-1
   11e4c:	00e78023          	sb	a4,0(a5)
   11e50:	fe442783          	lw	a5,-28(s0)
   11e54:	577d                	li	a4,-1
   11e56:	00e78023          	sb	a4,0(a5)
   11e5a:	fd442783          	lw	a5,-44(s0)
   11e5e:	17f9                	addi	a5,a5,-2
   11e60:	fe442703          	lw	a4,-28(s0)
   11e64:	97ba                	add	a5,a5,a4
   11e66:	fef42223          	sw	a5,-28(s0)
   11e6a:	fe442783          	lw	a5,-28(s0)
   11e6e:	00178713          	addi	a4,a5,1
   11e72:	fee42223          	sw	a4,-28(s0)
   11e76:	577d                	li	a4,-1
   11e78:	00e78023          	sb	a4,0(a5)
   11e7c:	fe442783          	lw	a5,-28(s0)
   11e80:	0785                	addi	a5,a5,1
   11e82:	fef42223          	sw	a5,-28(s0)
   11e86:	fe442783          	lw	a5,-28(s0)
   11e8a:	577d                	li	a4,-1
   11e8c:	00e78023          	sb	a4,0(a5)
   11e90:	fd442783          	lw	a5,-44(s0)
   11e94:	17f9                	addi	a5,a5,-2
   11e96:	fe442703          	lw	a4,-28(s0)
   11e9a:	97ba                	add	a5,a5,a4
   11e9c:	fef42223          	sw	a5,-28(s0)
   11ea0:	fe442783          	lw	a5,-28(s0)
   11ea4:	00178713          	addi	a4,a5,1
   11ea8:	fee42223          	sw	a4,-28(s0)
   11eac:	577d                	li	a4,-1
   11eae:	00e78023          	sb	a4,0(a5)
   11eb2:	fe442783          	lw	a5,-28(s0)
   11eb6:	00178713          	addi	a4,a5,1
   11eba:	fee42223          	sw	a4,-28(s0)
   11ebe:	577d                	li	a4,-1
   11ec0:	00e78023          	sb	a4,0(a5)
   11ec4:	fe442783          	lw	a5,-28(s0)
   11ec8:	577d                	li	a4,-1
   11eca:	00e78023          	sb	a4,0(a5)
   11ece:	fe842783          	lw	a5,-24(s0)
   11ed2:	0785                	addi	a5,a5,1
   11ed4:	fef42423          	sw	a5,-24(s0)
   11ed8:	fec42783          	lw	a5,-20(s0)
   11edc:	0785                	addi	a5,a5,1
   11ede:	fef42623          	sw	a5,-20(s0)
   11ee2:	fd442703          	lw	a4,-44(s0)
   11ee6:	fd042783          	lw	a5,-48(s0)
   11eea:	02f707b3          	mul	a5,a4,a5
   11eee:	fec42703          	lw	a4,-20(s0)
   11ef2:	f0f745e3          	blt	a4,a5,11dfc <edge_draw+0x32>
   11ef6:	fd842783          	lw	a5,-40(s0)
   11efa:	fef42423          	sw	a5,-24(s0)
   11efe:	fe042623          	sw	zero,-20(s0)
   11f02:	a835                	j	11f3e <edge_draw+0x174>
   11f04:	fe842783          	lw	a5,-24(s0)
   11f08:	0007c703          	lbu	a4,0(a5)
   11f0c:	479d                	li	a5,7
   11f0e:	00e7ee63          	bltu	a5,a4,11f2a <edge_draw+0x160>
   11f12:	fe842703          	lw	a4,-24(s0)
   11f16:	fd842783          	lw	a5,-40(s0)
   11f1a:	40f707b3          	sub	a5,a4,a5
   11f1e:	873e                	mv	a4,a5
   11f20:	fdc42783          	lw	a5,-36(s0)
   11f24:	97ba                	add	a5,a5,a4
   11f26:	00078023          	sb	zero,0(a5)
   11f2a:	fe842783          	lw	a5,-24(s0)
   11f2e:	0785                	addi	a5,a5,1
   11f30:	fef42423          	sw	a5,-24(s0)
   11f34:	fec42783          	lw	a5,-20(s0)
   11f38:	0785                	addi	a5,a5,1
   11f3a:	fef42623          	sw	a5,-20(s0)
   11f3e:	fd442703          	lw	a4,-44(s0)
   11f42:	fd042783          	lw	a5,-48(s0)
   11f46:	02f707b3          	mul	a5,a4,a5
   11f4a:	fec42703          	lw	a4,-20(s0)
   11f4e:	faf74be3          	blt	a4,a5,11f04 <edge_draw+0x13a>
   11f52:	0001                	nop
   11f54:	853e                	mv	a0,a5
   11f56:	50f2                	lw	ra,60(sp)
   11f58:	5462                	lw	s0,56(sp)
   11f5a:	6121                	addi	sp,sp,64
   11f5c:	8082                	ret

00011f5e <susan_thin>:
   11f5e:	7135                	addi	sp,sp,-160
   11f60:	cf06                	sw	ra,156(sp)
   11f62:	cd22                	sw	s0,152(sp)
   11f64:	1100                	addi	s0,sp,160
   11f66:	f6a42623          	sw	a0,-148(s0)
   11f6a:	f6b42423          	sw	a1,-152(s0)
   11f6e:	f6c42223          	sw	a2,-156(s0)
   11f72:	f6d42023          	sw	a3,-160(s0)
   11f76:	4791                	li	a5,4
   11f78:	fcf42c23          	sw	a5,-40(s0)
   11f7c:	0260106f          	j	12fa2 <susan_thin+0x1044>
   11f80:	4791                	li	a5,4
   11f82:	fcf42a23          	sw	a5,-44(s0)
   11f86:	0000106f          	j	12f86 <susan_thin+0x1028>
   11f8a:	fd842703          	lw	a4,-40(s0)
   11f8e:	f6442783          	lw	a5,-156(s0)
   11f92:	02f70733          	mul	a4,a4,a5
   11f96:	fd442783          	lw	a5,-44(s0)
   11f9a:	97ba                	add	a5,a5,a4
   11f9c:	873e                	mv	a4,a5
   11f9e:	f6842783          	lw	a5,-152(s0)
   11fa2:	97ba                	add	a5,a5,a4
   11fa4:	0007c703          	lbu	a4,0(a5)
   11fa8:	479d                	li	a5,7
   11faa:	7ce7e9e3          	bltu	a5,a4,12f7c <susan_thin+0x101e>
   11fae:	fd842703          	lw	a4,-40(s0)
   11fb2:	f6442783          	lw	a5,-156(s0)
   11fb6:	02f70733          	mul	a4,a4,a5
   11fba:	fd442783          	lw	a5,-44(s0)
   11fbe:	97ba                	add	a5,a5,a4
   11fc0:	078a                	slli	a5,a5,0x2
   11fc2:	f6c42703          	lw	a4,-148(s0)
   11fc6:	97ba                	add	a5,a5,a4
   11fc8:	439c                	lw	a5,0(a5)
   11fca:	fcf42823          	sw	a5,-48(s0)
   11fce:	fd842783          	lw	a5,-40(s0)
   11fd2:	fff78713          	addi	a4,a5,-1
   11fd6:	f6442783          	lw	a5,-156(s0)
   11fda:	02f707b3          	mul	a5,a4,a5
   11fde:	873e                	mv	a4,a5
   11fe0:	fd442783          	lw	a5,-44(s0)
   11fe4:	97ba                	add	a5,a5,a4
   11fe6:	17fd                	addi	a5,a5,-1
   11fe8:	f6842703          	lw	a4,-152(s0)
   11fec:	97ba                	add	a5,a5,a4
   11fee:	fcf42623          	sw	a5,-52(s0)
   11ff2:	fcc42783          	lw	a5,-52(s0)
   11ff6:	0007c783          	lbu	a5,0(a5)
   11ffa:	0087b793          	sltiu	a5,a5,8
   11ffe:	0ff7f793          	zext.b	a5,a5
   12002:	873e                	mv	a4,a5
   12004:	fcc42783          	lw	a5,-52(s0)
   12008:	0785                	addi	a5,a5,1
   1200a:	0007c783          	lbu	a5,0(a5)
   1200e:	0087b793          	sltiu	a5,a5,8
   12012:	0ff7f793          	zext.b	a5,a5
   12016:	97ba                	add	a5,a5,a4
   12018:	fcc42703          	lw	a4,-52(s0)
   1201c:	0709                	addi	a4,a4,2
   1201e:	00074703          	lbu	a4,0(a4)
   12022:	00873713          	sltiu	a4,a4,8
   12026:	0ff77713          	zext.b	a4,a4
   1202a:	97ba                	add	a5,a5,a4
   1202c:	f6442703          	lw	a4,-156(s0)
   12030:	fcc42683          	lw	a3,-52(s0)
   12034:	9736                	add	a4,a4,a3
   12036:	00074703          	lbu	a4,0(a4)
   1203a:	00873713          	sltiu	a4,a4,8
   1203e:	0ff77713          	zext.b	a4,a4
   12042:	97ba                	add	a5,a5,a4
   12044:	f6442703          	lw	a4,-156(s0)
   12048:	0709                	addi	a4,a4,2
   1204a:	fcc42683          	lw	a3,-52(s0)
   1204e:	9736                	add	a4,a4,a3
   12050:	00074703          	lbu	a4,0(a4)
   12054:	00873713          	sltiu	a4,a4,8
   12058:	0ff77713          	zext.b	a4,a4
   1205c:	97ba                	add	a5,a5,a4
   1205e:	f6442703          	lw	a4,-156(s0)
   12062:	0706                	slli	a4,a4,0x1
   12064:	fcc42683          	lw	a3,-52(s0)
   12068:	9736                	add	a4,a4,a3
   1206a:	00074703          	lbu	a4,0(a4)
   1206e:	00873713          	sltiu	a4,a4,8
   12072:	0ff77713          	zext.b	a4,a4
   12076:	97ba                	add	a5,a5,a4
   12078:	f6442703          	lw	a4,-156(s0)
   1207c:	0706                	slli	a4,a4,0x1
   1207e:	0705                	addi	a4,a4,1
   12080:	fcc42683          	lw	a3,-52(s0)
   12084:	9736                	add	a4,a4,a3
   12086:	00074703          	lbu	a4,0(a4)
   1208a:	00873713          	sltiu	a4,a4,8
   1208e:	0ff77713          	zext.b	a4,a4
   12092:	97ba                	add	a5,a5,a4
   12094:	f6442703          	lw	a4,-156(s0)
   12098:	0705                	addi	a4,a4,1
   1209a:	0706                	slli	a4,a4,0x1
   1209c:	fcc42683          	lw	a3,-52(s0)
   120a0:	9736                	add	a4,a4,a3
   120a2:	00074703          	lbu	a4,0(a4)
   120a6:	00873713          	sltiu	a4,a4,8
   120aa:	0ff77713          	zext.b	a4,a4
   120ae:	97ba                	add	a5,a5,a4
   120b0:	fcf42423          	sw	a5,-56(s0)
   120b4:	fc842783          	lw	a5,-56(s0)
   120b8:	e395                	bnez	a5,120dc <susan_thin+0x17e>
   120ba:	fd842703          	lw	a4,-40(s0)
   120be:	f6442783          	lw	a5,-156(s0)
   120c2:	02f70733          	mul	a4,a4,a5
   120c6:	fd442783          	lw	a5,-44(s0)
   120ca:	97ba                	add	a5,a5,a4
   120cc:	873e                	mv	a4,a5
   120ce:	f6842783          	lw	a5,-152(s0)
   120d2:	97ba                	add	a5,a5,a4
   120d4:	06400713          	li	a4,100
   120d8:	00e78023          	sb	a4,0(a5)
   120dc:	fc842703          	lw	a4,-56(s0)
   120e0:	4785                	li	a5,1
   120e2:	66f71563          	bne	a4,a5,1274c <susan_thin+0x7ee>
   120e6:	fd842703          	lw	a4,-40(s0)
   120ea:	f6442783          	lw	a5,-156(s0)
   120ee:	02f70733          	mul	a4,a4,a5
   120f2:	fd442783          	lw	a5,-44(s0)
   120f6:	97ba                	add	a5,a5,a4
   120f8:	873e                	mv	a4,a5
   120fa:	f6842783          	lw	a5,-152(s0)
   120fe:	97ba                	add	a5,a5,a4
   12100:	0007c703          	lbu	a4,0(a5)
   12104:	4795                	li	a5,5
   12106:	64e7e363          	bltu	a5,a4,1274c <susan_thin+0x7ee>
   1210a:	fd842783          	lw	a5,-40(s0)
   1210e:	fff78713          	addi	a4,a5,-1
   12112:	f6442783          	lw	a5,-156(s0)
   12116:	02f70733          	mul	a4,a4,a5
   1211a:	fd442783          	lw	a5,-44(s0)
   1211e:	97ba                	add	a5,a5,a4
   12120:	873e                	mv	a4,a5
   12122:	400007b7          	lui	a5,0x40000
   12126:	17fd                	addi	a5,a5,-1 # 3fffffff <__BSS_END__+0x3ffd6073>
   12128:	97ba                	add	a5,a5,a4
   1212a:	078a                	slli	a5,a5,0x2
   1212c:	f6c42703          	lw	a4,-148(s0)
   12130:	97ba                	add	a5,a5,a4
   12132:	439c                	lw	a5,0(a5)
   12134:	f6f42a23          	sw	a5,-140(s0)
   12138:	fd842783          	lw	a5,-40(s0)
   1213c:	fff78713          	addi	a4,a5,-1
   12140:	f6442783          	lw	a5,-156(s0)
   12144:	02f70733          	mul	a4,a4,a5
   12148:	fd442783          	lw	a5,-44(s0)
   1214c:	97ba                	add	a5,a5,a4
   1214e:	078a                	slli	a5,a5,0x2
   12150:	f6c42703          	lw	a4,-148(s0)
   12154:	97ba                	add	a5,a5,a4
   12156:	439c                	lw	a5,0(a5)
   12158:	f6f42c23          	sw	a5,-136(s0)
   1215c:	fd842783          	lw	a5,-40(s0)
   12160:	fff78713          	addi	a4,a5,-1
   12164:	f6442783          	lw	a5,-156(s0)
   12168:	02f70733          	mul	a4,a4,a5
   1216c:	fd442783          	lw	a5,-44(s0)
   12170:	97ba                	add	a5,a5,a4
   12172:	0785                	addi	a5,a5,1
   12174:	078a                	slli	a5,a5,0x2
   12176:	f6c42703          	lw	a4,-148(s0)
   1217a:	97ba                	add	a5,a5,a4
   1217c:	439c                	lw	a5,0(a5)
   1217e:	f6f42e23          	sw	a5,-132(s0)
   12182:	fd842703          	lw	a4,-40(s0)
   12186:	f6442783          	lw	a5,-156(s0)
   1218a:	02f70733          	mul	a4,a4,a5
   1218e:	fd442783          	lw	a5,-44(s0)
   12192:	97ba                	add	a5,a5,a4
   12194:	873e                	mv	a4,a5
   12196:	400007b7          	lui	a5,0x40000
   1219a:	17fd                	addi	a5,a5,-1 # 3fffffff <__BSS_END__+0x3ffd6073>
   1219c:	97ba                	add	a5,a5,a4
   1219e:	078a                	slli	a5,a5,0x2
   121a0:	f6c42703          	lw	a4,-148(s0)
   121a4:	97ba                	add	a5,a5,a4
   121a6:	439c                	lw	a5,0(a5)
   121a8:	f8f42023          	sw	a5,-128(s0)
   121ac:	f8042223          	sw	zero,-124(s0)
   121b0:	fd842703          	lw	a4,-40(s0)
   121b4:	f6442783          	lw	a5,-156(s0)
   121b8:	02f70733          	mul	a4,a4,a5
   121bc:	fd442783          	lw	a5,-44(s0)
   121c0:	97ba                	add	a5,a5,a4
   121c2:	0785                	addi	a5,a5,1
   121c4:	078a                	slli	a5,a5,0x2
   121c6:	f6c42703          	lw	a4,-148(s0)
   121ca:	97ba                	add	a5,a5,a4
   121cc:	439c                	lw	a5,0(a5)
   121ce:	f8f42423          	sw	a5,-120(s0)
   121d2:	fd842783          	lw	a5,-40(s0)
   121d6:	00178713          	addi	a4,a5,1
   121da:	f6442783          	lw	a5,-156(s0)
   121de:	02f70733          	mul	a4,a4,a5
   121e2:	fd442783          	lw	a5,-44(s0)
   121e6:	97ba                	add	a5,a5,a4
   121e8:	873e                	mv	a4,a5
   121ea:	400007b7          	lui	a5,0x40000
   121ee:	17fd                	addi	a5,a5,-1 # 3fffffff <__BSS_END__+0x3ffd6073>
   121f0:	97ba                	add	a5,a5,a4
   121f2:	078a                	slli	a5,a5,0x2
   121f4:	f6c42703          	lw	a4,-148(s0)
   121f8:	97ba                	add	a5,a5,a4
   121fa:	439c                	lw	a5,0(a5)
   121fc:	f8f42623          	sw	a5,-116(s0)
   12200:	fd842783          	lw	a5,-40(s0)
   12204:	00178713          	addi	a4,a5,1
   12208:	f6442783          	lw	a5,-156(s0)
   1220c:	02f70733          	mul	a4,a4,a5
   12210:	fd442783          	lw	a5,-44(s0)
   12214:	97ba                	add	a5,a5,a4
   12216:	078a                	slli	a5,a5,0x2
   12218:	f6c42703          	lw	a4,-148(s0)
   1221c:	97ba                	add	a5,a5,a4
   1221e:	439c                	lw	a5,0(a5)
   12220:	f8f42823          	sw	a5,-112(s0)
   12224:	fd842783          	lw	a5,-40(s0)
   12228:	00178713          	addi	a4,a5,1
   1222c:	f6442783          	lw	a5,-156(s0)
   12230:	02f70733          	mul	a4,a4,a5
   12234:	fd442783          	lw	a5,-44(s0)
   12238:	97ba                	add	a5,a5,a4
   1223a:	0785                	addi	a5,a5,1
   1223c:	078a                	slli	a5,a5,0x2
   1223e:	f6c42703          	lw	a4,-148(s0)
   12242:	97ba                	add	a5,a5,a4
   12244:	439c                	lw	a5,0(a5)
   12246:	f8f42a23          	sw	a5,-108(s0)
   1224a:	fd842783          	lw	a5,-40(s0)
   1224e:	fff78713          	addi	a4,a5,-1
   12252:	f6442783          	lw	a5,-156(s0)
   12256:	02f70733          	mul	a4,a4,a5
   1225a:	fd442783          	lw	a5,-44(s0)
   1225e:	97ba                	add	a5,a5,a4
   12260:	17fd                	addi	a5,a5,-1
   12262:	f6842703          	lw	a4,-152(s0)
   12266:	97ba                	add	a5,a5,a4
   12268:	0007c703          	lbu	a4,0(a5)
   1226c:	479d                	li	a5,7
   1226e:	04e7e663          	bltu	a5,a4,122ba <susan_thin+0x35c>
   12272:	f6042a23          	sw	zero,-140(s0)
   12276:	f6042c23          	sw	zero,-136(s0)
   1227a:	f8042023          	sw	zero,-128(s0)
   1227e:	f7c42783          	lw	a5,-132(s0)
   12282:	0786                	slli	a5,a5,0x1
   12284:	f6f42e23          	sw	a5,-132(s0)
   12288:	f8c42783          	lw	a5,-116(s0)
   1228c:	0786                	slli	a5,a5,0x1
   1228e:	f8f42623          	sw	a5,-116(s0)
   12292:	f8842703          	lw	a4,-120(s0)
   12296:	87ba                	mv	a5,a4
   12298:	0786                	slli	a5,a5,0x1
   1229a:	97ba                	add	a5,a5,a4
   1229c:	f8f42423          	sw	a5,-120(s0)
   122a0:	f9042703          	lw	a4,-112(s0)
   122a4:	87ba                	mv	a5,a4
   122a6:	0786                	slli	a5,a5,0x1
   122a8:	97ba                	add	a5,a5,a4
   122aa:	f8f42823          	sw	a5,-112(s0)
   122ae:	f9442783          	lw	a5,-108(s0)
   122b2:	078a                	slli	a5,a5,0x2
   122b4:	f8f42a23          	sw	a5,-108(s0)
   122b8:	a621                	j	125c0 <susan_thin+0x662>
   122ba:	fd842783          	lw	a5,-40(s0)
   122be:	fff78713          	addi	a4,a5,-1
   122c2:	f6442783          	lw	a5,-156(s0)
   122c6:	02f70733          	mul	a4,a4,a5
   122ca:	fd442783          	lw	a5,-44(s0)
   122ce:	97ba                	add	a5,a5,a4
   122d0:	873e                	mv	a4,a5
   122d2:	f6842783          	lw	a5,-152(s0)
   122d6:	97ba                	add	a5,a5,a4
   122d8:	0007c703          	lbu	a4,0(a5)
   122dc:	479d                	li	a5,7
   122de:	04e7e663          	bltu	a5,a4,1232a <susan_thin+0x3cc>
   122e2:	f6042c23          	sw	zero,-136(s0)
   122e6:	f6042a23          	sw	zero,-140(s0)
   122ea:	f6042e23          	sw	zero,-132(s0)
   122ee:	f8042783          	lw	a5,-128(s0)
   122f2:	0786                	slli	a5,a5,0x1
   122f4:	f8f42023          	sw	a5,-128(s0)
   122f8:	f8842783          	lw	a5,-120(s0)
   122fc:	0786                	slli	a5,a5,0x1
   122fe:	f8f42423          	sw	a5,-120(s0)
   12302:	f8c42703          	lw	a4,-116(s0)
   12306:	87ba                	mv	a5,a4
   12308:	0786                	slli	a5,a5,0x1
   1230a:	97ba                	add	a5,a5,a4
   1230c:	f8f42623          	sw	a5,-116(s0)
   12310:	f9442703          	lw	a4,-108(s0)
   12314:	87ba                	mv	a5,a4
   12316:	0786                	slli	a5,a5,0x1
   12318:	97ba                	add	a5,a5,a4
   1231a:	f8f42a23          	sw	a5,-108(s0)
   1231e:	f9042783          	lw	a5,-112(s0)
   12322:	078a                	slli	a5,a5,0x2
   12324:	f8f42823          	sw	a5,-112(s0)
   12328:	ac61                	j	125c0 <susan_thin+0x662>
   1232a:	fd842783          	lw	a5,-40(s0)
   1232e:	fff78713          	addi	a4,a5,-1
   12332:	f6442783          	lw	a5,-156(s0)
   12336:	02f70733          	mul	a4,a4,a5
   1233a:	fd442783          	lw	a5,-44(s0)
   1233e:	97ba                	add	a5,a5,a4
   12340:	0785                	addi	a5,a5,1
   12342:	f6842703          	lw	a4,-152(s0)
   12346:	97ba                	add	a5,a5,a4
   12348:	0007c703          	lbu	a4,0(a5)
   1234c:	479d                	li	a5,7
   1234e:	04e7e663          	bltu	a5,a4,1239a <susan_thin+0x43c>
   12352:	f6042e23          	sw	zero,-132(s0)
   12356:	f6042c23          	sw	zero,-136(s0)
   1235a:	f8042423          	sw	zero,-120(s0)
   1235e:	f7442783          	lw	a5,-140(s0)
   12362:	0786                	slli	a5,a5,0x1
   12364:	f6f42a23          	sw	a5,-140(s0)
   12368:	f9442783          	lw	a5,-108(s0)
   1236c:	0786                	slli	a5,a5,0x1
   1236e:	f8f42a23          	sw	a5,-108(s0)
   12372:	f8042703          	lw	a4,-128(s0)
   12376:	87ba                	mv	a5,a4
   12378:	0786                	slli	a5,a5,0x1
   1237a:	97ba                	add	a5,a5,a4
   1237c:	f8f42023          	sw	a5,-128(s0)
   12380:	f9042703          	lw	a4,-112(s0)
   12384:	87ba                	mv	a5,a4
   12386:	0786                	slli	a5,a5,0x1
   12388:	97ba                	add	a5,a5,a4
   1238a:	f8f42823          	sw	a5,-112(s0)
   1238e:	f8c42783          	lw	a5,-116(s0)
   12392:	078a                	slli	a5,a5,0x2
   12394:	f8f42623          	sw	a5,-116(s0)
   12398:	a425                	j	125c0 <susan_thin+0x662>
   1239a:	fd842703          	lw	a4,-40(s0)
   1239e:	f6442783          	lw	a5,-156(s0)
   123a2:	02f70733          	mul	a4,a4,a5
   123a6:	fd442783          	lw	a5,-44(s0)
   123aa:	97ba                	add	a5,a5,a4
   123ac:	17fd                	addi	a5,a5,-1
   123ae:	f6842703          	lw	a4,-152(s0)
   123b2:	97ba                	add	a5,a5,a4
   123b4:	0007c703          	lbu	a4,0(a5)
   123b8:	479d                	li	a5,7
   123ba:	04e7e663          	bltu	a5,a4,12406 <susan_thin+0x4a8>
   123be:	f8042023          	sw	zero,-128(s0)
   123c2:	f6042a23          	sw	zero,-140(s0)
   123c6:	f8042623          	sw	zero,-116(s0)
   123ca:	f7842783          	lw	a5,-136(s0)
   123ce:	0786                	slli	a5,a5,0x1
   123d0:	f6f42c23          	sw	a5,-136(s0)
   123d4:	f9042783          	lw	a5,-112(s0)
   123d8:	0786                	slli	a5,a5,0x1
   123da:	f8f42823          	sw	a5,-112(s0)
   123de:	f7c42703          	lw	a4,-132(s0)
   123e2:	87ba                	mv	a5,a4
   123e4:	0786                	slli	a5,a5,0x1
   123e6:	97ba                	add	a5,a5,a4
   123e8:	f6f42e23          	sw	a5,-132(s0)
   123ec:	f9442703          	lw	a4,-108(s0)
   123f0:	87ba                	mv	a5,a4
   123f2:	0786                	slli	a5,a5,0x1
   123f4:	97ba                	add	a5,a5,a4
   123f6:	f8f42a23          	sw	a5,-108(s0)
   123fa:	f8842783          	lw	a5,-120(s0)
   123fe:	078a                	slli	a5,a5,0x2
   12400:	f8f42423          	sw	a5,-120(s0)
   12404:	aa75                	j	125c0 <susan_thin+0x662>
   12406:	fd842703          	lw	a4,-40(s0)
   1240a:	f6442783          	lw	a5,-156(s0)
   1240e:	02f70733          	mul	a4,a4,a5
   12412:	fd442783          	lw	a5,-44(s0)
   12416:	97ba                	add	a5,a5,a4
   12418:	0785                	addi	a5,a5,1
   1241a:	f6842703          	lw	a4,-152(s0)
   1241e:	97ba                	add	a5,a5,a4
   12420:	0007c703          	lbu	a4,0(a5)
   12424:	479d                	li	a5,7
   12426:	04e7e663          	bltu	a5,a4,12472 <susan_thin+0x514>
   1242a:	f8042423          	sw	zero,-120(s0)
   1242e:	f6042e23          	sw	zero,-132(s0)
   12432:	f8042a23          	sw	zero,-108(s0)
   12436:	f7842783          	lw	a5,-136(s0)
   1243a:	0786                	slli	a5,a5,0x1
   1243c:	f6f42c23          	sw	a5,-136(s0)
   12440:	f9042783          	lw	a5,-112(s0)
   12444:	0786                	slli	a5,a5,0x1
   12446:	f8f42823          	sw	a5,-112(s0)
   1244a:	f7442703          	lw	a4,-140(s0)
   1244e:	87ba                	mv	a5,a4
   12450:	0786                	slli	a5,a5,0x1
   12452:	97ba                	add	a5,a5,a4
   12454:	f6f42a23          	sw	a5,-140(s0)
   12458:	f8c42703          	lw	a4,-116(s0)
   1245c:	87ba                	mv	a5,a4
   1245e:	0786                	slli	a5,a5,0x1
   12460:	97ba                	add	a5,a5,a4
   12462:	f8f42623          	sw	a5,-116(s0)
   12466:	f8042783          	lw	a5,-128(s0)
   1246a:	078a                	slli	a5,a5,0x2
   1246c:	f8f42023          	sw	a5,-128(s0)
   12470:	aa81                	j	125c0 <susan_thin+0x662>
   12472:	fd842783          	lw	a5,-40(s0)
   12476:	00178713          	addi	a4,a5,1
   1247a:	f6442783          	lw	a5,-156(s0)
   1247e:	02f70733          	mul	a4,a4,a5
   12482:	fd442783          	lw	a5,-44(s0)
   12486:	97ba                	add	a5,a5,a4
   12488:	17fd                	addi	a5,a5,-1
   1248a:	f6842703          	lw	a4,-152(s0)
   1248e:	97ba                	add	a5,a5,a4
   12490:	0007c703          	lbu	a4,0(a5)
   12494:	479d                	li	a5,7
   12496:	04e7e663          	bltu	a5,a4,124e2 <susan_thin+0x584>
   1249a:	f8042623          	sw	zero,-116(s0)
   1249e:	f8042023          	sw	zero,-128(s0)
   124a2:	f8042823          	sw	zero,-112(s0)
   124a6:	f7442783          	lw	a5,-140(s0)
   124aa:	0786                	slli	a5,a5,0x1
   124ac:	f6f42a23          	sw	a5,-140(s0)
   124b0:	f9442783          	lw	a5,-108(s0)
   124b4:	0786                	slli	a5,a5,0x1
   124b6:	f8f42a23          	sw	a5,-108(s0)
   124ba:	f7842703          	lw	a4,-136(s0)
   124be:	87ba                	mv	a5,a4
   124c0:	0786                	slli	a5,a5,0x1
   124c2:	97ba                	add	a5,a5,a4
   124c4:	f6f42c23          	sw	a5,-136(s0)
   124c8:	f8842703          	lw	a4,-120(s0)
   124cc:	87ba                	mv	a5,a4
   124ce:	0786                	slli	a5,a5,0x1
   124d0:	97ba                	add	a5,a5,a4
   124d2:	f8f42423          	sw	a5,-120(s0)
   124d6:	f7c42783          	lw	a5,-132(s0)
   124da:	078a                	slli	a5,a5,0x2
   124dc:	f6f42e23          	sw	a5,-132(s0)
   124e0:	a0c5                	j	125c0 <susan_thin+0x662>
   124e2:	fd842783          	lw	a5,-40(s0)
   124e6:	00178713          	addi	a4,a5,1
   124ea:	f6442783          	lw	a5,-156(s0)
   124ee:	02f70733          	mul	a4,a4,a5
   124f2:	fd442783          	lw	a5,-44(s0)
   124f6:	97ba                	add	a5,a5,a4
   124f8:	873e                	mv	a4,a5
   124fa:	f6842783          	lw	a5,-152(s0)
   124fe:	97ba                	add	a5,a5,a4
   12500:	0007c703          	lbu	a4,0(a5)
   12504:	479d                	li	a5,7
   12506:	04e7e663          	bltu	a5,a4,12552 <susan_thin+0x5f4>
   1250a:	f8042823          	sw	zero,-112(s0)
   1250e:	f8042623          	sw	zero,-116(s0)
   12512:	f8042a23          	sw	zero,-108(s0)
   12516:	f8042783          	lw	a5,-128(s0)
   1251a:	0786                	slli	a5,a5,0x1
   1251c:	f8f42023          	sw	a5,-128(s0)
   12520:	f8842783          	lw	a5,-120(s0)
   12524:	0786                	slli	a5,a5,0x1
   12526:	f8f42423          	sw	a5,-120(s0)
   1252a:	f7442703          	lw	a4,-140(s0)
   1252e:	87ba                	mv	a5,a4
   12530:	0786                	slli	a5,a5,0x1
   12532:	97ba                	add	a5,a5,a4
   12534:	f6f42a23          	sw	a5,-140(s0)
   12538:	f7c42703          	lw	a4,-132(s0)
   1253c:	87ba                	mv	a5,a4
   1253e:	0786                	slli	a5,a5,0x1
   12540:	97ba                	add	a5,a5,a4
   12542:	f6f42e23          	sw	a5,-132(s0)
   12546:	f7842783          	lw	a5,-136(s0)
   1254a:	078a                	slli	a5,a5,0x2
   1254c:	f6f42c23          	sw	a5,-136(s0)
   12550:	a885                	j	125c0 <susan_thin+0x662>
   12552:	fd842783          	lw	a5,-40(s0)
   12556:	00178713          	addi	a4,a5,1
   1255a:	f6442783          	lw	a5,-156(s0)
   1255e:	02f70733          	mul	a4,a4,a5
   12562:	fd442783          	lw	a5,-44(s0)
   12566:	97ba                	add	a5,a5,a4
   12568:	0785                	addi	a5,a5,1
   1256a:	f6842703          	lw	a4,-152(s0)
   1256e:	97ba                	add	a5,a5,a4
   12570:	0007c703          	lbu	a4,0(a5)
   12574:	479d                	li	a5,7
   12576:	04e7e563          	bltu	a5,a4,125c0 <susan_thin+0x662>
   1257a:	f8042a23          	sw	zero,-108(s0)
   1257e:	f8042423          	sw	zero,-120(s0)
   12582:	f8042823          	sw	zero,-112(s0)
   12586:	f8c42783          	lw	a5,-116(s0)
   1258a:	0786                	slli	a5,a5,0x1
   1258c:	f8f42623          	sw	a5,-116(s0)
   12590:	f7c42783          	lw	a5,-132(s0)
   12594:	0786                	slli	a5,a5,0x1
   12596:	f6f42e23          	sw	a5,-132(s0)
   1259a:	f7842703          	lw	a4,-136(s0)
   1259e:	87ba                	mv	a5,a4
   125a0:	0786                	slli	a5,a5,0x1
   125a2:	97ba                	add	a5,a5,a4
   125a4:	f6f42c23          	sw	a5,-136(s0)
   125a8:	f8042703          	lw	a4,-128(s0)
   125ac:	87ba                	mv	a5,a4
   125ae:	0786                	slli	a5,a5,0x1
   125b0:	97ba                	add	a5,a5,a4
   125b2:	f8f42023          	sw	a5,-128(s0)
   125b6:	f7442783          	lw	a5,-140(s0)
   125ba:	078a                	slli	a5,a5,0x2
   125bc:	f6f42a23          	sw	a5,-140(s0)
   125c0:	fe042623          	sw	zero,-20(s0)
   125c4:	fc042e23          	sw	zero,-36(s0)
   125c8:	a89d                	j	1263e <susan_thin+0x6e0>
   125ca:	fe042023          	sw	zero,-32(s0)
   125ce:	a8b1                	j	1262a <susan_thin+0x6cc>
   125d0:	fdc42703          	lw	a4,-36(s0)
   125d4:	87ba                	mv	a5,a4
   125d6:	0786                	slli	a5,a5,0x1
   125d8:	973e                	add	a4,a4,a5
   125da:	fe042783          	lw	a5,-32(s0)
   125de:	973e                	add	a4,a4,a5
   125e0:	f7440793          	addi	a5,s0,-140
   125e4:	070a                	slli	a4,a4,0x2
   125e6:	97ba                	add	a5,a5,a4
   125e8:	439c                	lw	a5,0(a5)
   125ea:	fec42703          	lw	a4,-20(s0)
   125ee:	02f75963          	bge	a4,a5,12620 <susan_thin+0x6c2>
   125f2:	fdc42703          	lw	a4,-36(s0)
   125f6:	87ba                	mv	a5,a4
   125f8:	0786                	slli	a5,a5,0x1
   125fa:	973e                	add	a4,a4,a5
   125fc:	fe042783          	lw	a5,-32(s0)
   12600:	973e                	add	a4,a4,a5
   12602:	f7440793          	addi	a5,s0,-140
   12606:	070a                	slli	a4,a4,0x2
   12608:	97ba                	add	a5,a5,a4
   1260a:	439c                	lw	a5,0(a5)
   1260c:	fef42623          	sw	a5,-20(s0)
   12610:	fdc42783          	lw	a5,-36(s0)
   12614:	fef42423          	sw	a5,-24(s0)
   12618:	fe042783          	lw	a5,-32(s0)
   1261c:	fef42223          	sw	a5,-28(s0)
   12620:	fe042783          	lw	a5,-32(s0)
   12624:	0785                	addi	a5,a5,1
   12626:	fef42023          	sw	a5,-32(s0)
   1262a:	fe042703          	lw	a4,-32(s0)
   1262e:	4789                	li	a5,2
   12630:	fae7d0e3          	bge	a5,a4,125d0 <susan_thin+0x672>
   12634:	fdc42783          	lw	a5,-36(s0)
   12638:	0785                	addi	a5,a5,1
   1263a:	fcf42e23          	sw	a5,-36(s0)
   1263e:	fdc42703          	lw	a4,-36(s0)
   12642:	4789                	li	a5,2
   12644:	f8e7d3e3          	bge	a5,a4,125ca <susan_thin+0x66c>
   12648:	fec42783          	lw	a5,-20(s0)
   1264c:	10f05063          	blez	a5,1274c <susan_thin+0x7ee>
   12650:	fd842703          	lw	a4,-40(s0)
   12654:	f6442783          	lw	a5,-156(s0)
   12658:	02f70733          	mul	a4,a4,a5
   1265c:	fd442783          	lw	a5,-44(s0)
   12660:	97ba                	add	a5,a5,a4
   12662:	873e                	mv	a4,a5
   12664:	f6842783          	lw	a5,-152(s0)
   12668:	97ba                	add	a5,a5,a4
   1266a:	0007c703          	lbu	a4,0(a5)
   1266e:	478d                	li	a5,3
   12670:	02e7eb63          	bltu	a5,a4,126a6 <susan_thin+0x748>
   12674:	fd842703          	lw	a4,-40(s0)
   12678:	fe842783          	lw	a5,-24(s0)
   1267c:	97ba                	add	a5,a5,a4
   1267e:	fff78713          	addi	a4,a5,-1
   12682:	f6442783          	lw	a5,-156(s0)
   12686:	02f70733          	mul	a4,a4,a5
   1268a:	fd442783          	lw	a5,-44(s0)
   1268e:	973e                	add	a4,a4,a5
   12690:	fe442783          	lw	a5,-28(s0)
   12694:	97ba                	add	a5,a5,a4
   12696:	17fd                	addi	a5,a5,-1
   12698:	f6842703          	lw	a4,-152(s0)
   1269c:	97ba                	add	a5,a5,a4
   1269e:	4711                	li	a4,4
   126a0:	00e78023          	sb	a4,0(a5)
   126a4:	a891                	j	126f8 <susan_thin+0x79a>
   126a6:	fd842703          	lw	a4,-40(s0)
   126aa:	f6442783          	lw	a5,-156(s0)
   126ae:	02f70733          	mul	a4,a4,a5
   126b2:	fd442783          	lw	a5,-44(s0)
   126b6:	97ba                	add	a5,a5,a4
   126b8:	873e                	mv	a4,a5
   126ba:	f6842783          	lw	a5,-152(s0)
   126be:	97ba                	add	a5,a5,a4
   126c0:	0007c703          	lbu	a4,0(a5)
   126c4:	fd842683          	lw	a3,-40(s0)
   126c8:	fe842783          	lw	a5,-24(s0)
   126cc:	97b6                	add	a5,a5,a3
   126ce:	fff78693          	addi	a3,a5,-1
   126d2:	f6442783          	lw	a5,-156(s0)
   126d6:	02f686b3          	mul	a3,a3,a5
   126da:	fd442783          	lw	a5,-44(s0)
   126de:	96be                	add	a3,a3,a5
   126e0:	fe442783          	lw	a5,-28(s0)
   126e4:	97b6                	add	a5,a5,a3
   126e6:	17fd                	addi	a5,a5,-1
   126e8:	f6842683          	lw	a3,-152(s0)
   126ec:	97b6                	add	a5,a5,a3
   126ee:	0705                	addi	a4,a4,1
   126f0:	0ff77713          	zext.b	a4,a4
   126f4:	00e78023          	sb	a4,0(a5)
   126f8:	fe842783          	lw	a5,-24(s0)
   126fc:	00179713          	slli	a4,a5,0x1
   12700:	fe442783          	lw	a5,-28(s0)
   12704:	973e                	add	a4,a4,a5
   12706:	4789                	li	a5,2
   12708:	04e7c263          	blt	a5,a4,1274c <susan_thin+0x7ee>
   1270c:	fe842783          	lw	a5,-24(s0)
   12710:	17fd                	addi	a5,a5,-1
   12712:	fd842703          	lw	a4,-40(s0)
   12716:	97ba                	add	a5,a5,a4
   12718:	fcf42c23          	sw	a5,-40(s0)
   1271c:	fe442783          	lw	a5,-28(s0)
   12720:	17f9                	addi	a5,a5,-2
   12722:	fd442703          	lw	a4,-44(s0)
   12726:	97ba                	add	a5,a5,a4
   12728:	fcf42a23          	sw	a5,-44(s0)
   1272c:	fd842703          	lw	a4,-40(s0)
   12730:	478d                	li	a5,3
   12732:	00e7c563          	blt	a5,a4,1273c <susan_thin+0x7de>
   12736:	4791                	li	a5,4
   12738:	fcf42c23          	sw	a5,-40(s0)
   1273c:	fd442703          	lw	a4,-44(s0)
   12740:	478d                	li	a5,3
   12742:	00e7c563          	blt	a5,a4,1274c <susan_thin+0x7ee>
   12746:	4791                	li	a5,4
   12748:	fcf42a23          	sw	a5,-44(s0)
   1274c:	fc842703          	lw	a4,-56(s0)
   12750:	4789                	li	a5,2
   12752:	5cf71163          	bne	a4,a5,12d14 <susan_thin+0xdb6>
   12756:	fd842783          	lw	a5,-40(s0)
   1275a:	fff78713          	addi	a4,a5,-1
   1275e:	f6442783          	lw	a5,-156(s0)
   12762:	02f70733          	mul	a4,a4,a5
   12766:	fd442783          	lw	a5,-44(s0)
   1276a:	97ba                	add	a5,a5,a4
   1276c:	17fd                	addi	a5,a5,-1
   1276e:	f6842703          	lw	a4,-152(s0)
   12772:	97ba                	add	a5,a5,a4
   12774:	0007c783          	lbu	a5,0(a5)
   12778:	0087b793          	sltiu	a5,a5,8
   1277c:	0ff7f793          	zext.b	a5,a5
   12780:	fcf42223          	sw	a5,-60(s0)
   12784:	fd842783          	lw	a5,-40(s0)
   12788:	fff78713          	addi	a4,a5,-1
   1278c:	f6442783          	lw	a5,-156(s0)
   12790:	02f70733          	mul	a4,a4,a5
   12794:	fd442783          	lw	a5,-44(s0)
   12798:	97ba                	add	a5,a5,a4
   1279a:	0785                	addi	a5,a5,1
   1279c:	f6842703          	lw	a4,-152(s0)
   127a0:	97ba                	add	a5,a5,a4
   127a2:	0007c783          	lbu	a5,0(a5)
   127a6:	0087b793          	sltiu	a5,a5,8
   127aa:	0ff7f793          	zext.b	a5,a5
   127ae:	fcf42023          	sw	a5,-64(s0)
   127b2:	fd842783          	lw	a5,-40(s0)
   127b6:	00178713          	addi	a4,a5,1
   127ba:	f6442783          	lw	a5,-156(s0)
   127be:	02f70733          	mul	a4,a4,a5
   127c2:	fd442783          	lw	a5,-44(s0)
   127c6:	97ba                	add	a5,a5,a4
   127c8:	17fd                	addi	a5,a5,-1
   127ca:	f6842703          	lw	a4,-152(s0)
   127ce:	97ba                	add	a5,a5,a4
   127d0:	0007c783          	lbu	a5,0(a5)
   127d4:	0087b793          	sltiu	a5,a5,8
   127d8:	0ff7f793          	zext.b	a5,a5
   127dc:	faf42e23          	sw	a5,-68(s0)
   127e0:	fd842783          	lw	a5,-40(s0)
   127e4:	00178713          	addi	a4,a5,1
   127e8:	f6442783          	lw	a5,-156(s0)
   127ec:	02f70733          	mul	a4,a4,a5
   127f0:	fd442783          	lw	a5,-44(s0)
   127f4:	97ba                	add	a5,a5,a4
   127f6:	0785                	addi	a5,a5,1
   127f8:	f6842703          	lw	a4,-152(s0)
   127fc:	97ba                	add	a5,a5,a4
   127fe:	0007c783          	lbu	a5,0(a5)
   12802:	0087b793          	sltiu	a5,a5,8
   12806:	0ff7f793          	zext.b	a5,a5
   1280a:	faf42c23          	sw	a5,-72(s0)
   1280e:	fc442703          	lw	a4,-60(s0)
   12812:	fc042783          	lw	a5,-64(s0)
   12816:	973e                	add	a4,a4,a5
   12818:	fbc42783          	lw	a5,-68(s0)
   1281c:	973e                	add	a4,a4,a5
   1281e:	fb842783          	lw	a5,-72(s0)
   12822:	973e                	add	a4,a4,a5
   12824:	4789                	li	a5,2
   12826:	20f71f63          	bne	a4,a5,12a44 <susan_thin+0xae6>
   1282a:	fc442703          	lw	a4,-60(s0)
   1282e:	fb842783          	lw	a5,-72(s0)
   12832:	8f5d                	or	a4,a4,a5
   12834:	fc042683          	lw	a3,-64(s0)
   12838:	fbc42783          	lw	a5,-68(s0)
   1283c:	8fd5                	or	a5,a5,a3
   1283e:	8ff9                	and	a5,a5,a4
   12840:	20078263          	beqz	a5,12a44 <susan_thin+0xae6>
   12844:	fc442783          	lw	a5,-60(s0)
   12848:	c385                	beqz	a5,12868 <susan_thin+0x90a>
   1284a:	fc042783          	lw	a5,-64(s0)
   1284e:	c799                	beqz	a5,1285c <susan_thin+0x8fe>
   12850:	fe042023          	sw	zero,-32(s0)
   12854:	57fd                	li	a5,-1
   12856:	fcf42e23          	sw	a5,-36(s0)
   1285a:	a02d                	j	12884 <susan_thin+0x926>
   1285c:	57fd                	li	a5,-1
   1285e:	fef42023          	sw	a5,-32(s0)
   12862:	fc042e23          	sw	zero,-36(s0)
   12866:	a839                	j	12884 <susan_thin+0x926>
   12868:	fc042783          	lw	a5,-64(s0)
   1286c:	c799                	beqz	a5,1287a <susan_thin+0x91c>
   1286e:	4785                	li	a5,1
   12870:	fef42023          	sw	a5,-32(s0)
   12874:	fc042e23          	sw	zero,-36(s0)
   12878:	a031                	j	12884 <susan_thin+0x926>
   1287a:	fe042023          	sw	zero,-32(s0)
   1287e:	4785                	li	a5,1
   12880:	fcf42e23          	sw	a5,-36(s0)
   12884:	fd842703          	lw	a4,-40(s0)
   12888:	fdc42783          	lw	a5,-36(s0)
   1288c:	973e                	add	a4,a4,a5
   1288e:	f6442783          	lw	a5,-156(s0)
   12892:	02f70733          	mul	a4,a4,a5
   12896:	fd442783          	lw	a5,-44(s0)
   1289a:	973e                	add	a4,a4,a5
   1289c:	fe042783          	lw	a5,-32(s0)
   128a0:	97ba                	add	a5,a5,a4
   128a2:	078a                	slli	a5,a5,0x2
   128a4:	f6c42703          	lw	a4,-148(s0)
   128a8:	97ba                	add	a5,a5,a4
   128aa:	439c                	lw	a5,0(a5)
   128ac:	d007f753          	fcvt.s.w	fa4,a5
   128b0:	fd042783          	lw	a5,-48(s0)
   128b4:	d007f7d3          	fcvt.s.w	fa5,a5
   128b8:	18f777d3          	fdiv.s	fa5,fa4,fa5
   128bc:	42078753          	fcvt.d.s	fa4,fa5
   128c0:	000277b7          	lui	a5,0x27
   128c4:	1d87b787          	fld	fa5,472(a5) # 271d8 <__clzsi2+0x5ba>
   128c8:	a2e797d3          	flt.d	a5,fa5,fa4
   128cc:	e391                	bnez	a5,128d0 <susan_thin+0x972>
   128ce:	a191                	j	12d12 <susan_thin+0xdb4>
   128d0:	fe042783          	lw	a5,-32(s0)
   128d4:	e7d1                	bnez	a5,12960 <susan_thin+0xa02>
   128d6:	fdc42783          	lw	a5,-36(s0)
   128da:	00179713          	slli	a4,a5,0x1
   128de:	fd842783          	lw	a5,-40(s0)
   128e2:	973e                	add	a4,a4,a5
   128e4:	f6442783          	lw	a5,-156(s0)
   128e8:	02f70733          	mul	a4,a4,a5
   128ec:	fd442783          	lw	a5,-44(s0)
   128f0:	97ba                	add	a5,a5,a4
   128f2:	873e                	mv	a4,a5
   128f4:	f6842783          	lw	a5,-152(s0)
   128f8:	97ba                	add	a5,a5,a4
   128fa:	0007c703          	lbu	a4,0(a5)
   128fe:	479d                	li	a5,7
   12900:	06e7f063          	bgeu	a5,a4,12960 <susan_thin+0xa02>
   12904:	fdc42783          	lw	a5,-36(s0)
   12908:	00179713          	slli	a4,a5,0x1
   1290c:	fd842783          	lw	a5,-40(s0)
   12910:	973e                	add	a4,a4,a5
   12912:	f6442783          	lw	a5,-156(s0)
   12916:	02f70733          	mul	a4,a4,a5
   1291a:	fd442783          	lw	a5,-44(s0)
   1291e:	97ba                	add	a5,a5,a4
   12920:	17fd                	addi	a5,a5,-1
   12922:	f6842703          	lw	a4,-152(s0)
   12926:	97ba                	add	a5,a5,a4
   12928:	0007c703          	lbu	a4,0(a5)
   1292c:	479d                	li	a5,7
   1292e:	02e7f963          	bgeu	a5,a4,12960 <susan_thin+0xa02>
   12932:	fdc42783          	lw	a5,-36(s0)
   12936:	00179713          	slli	a4,a5,0x1
   1293a:	fd842783          	lw	a5,-40(s0)
   1293e:	973e                	add	a4,a4,a5
   12940:	f6442783          	lw	a5,-156(s0)
   12944:	02f70733          	mul	a4,a4,a5
   12948:	fd442783          	lw	a5,-44(s0)
   1294c:	97ba                	add	a5,a5,a4
   1294e:	0785                	addi	a5,a5,1
   12950:	f6842703          	lw	a4,-152(s0)
   12954:	97ba                	add	a5,a5,a4
   12956:	0007c703          	lbu	a4,0(a5)
   1295a:	479d                	li	a5,7
   1295c:	08e7ec63          	bltu	a5,a4,129f4 <susan_thin+0xa96>
   12960:	fdc42783          	lw	a5,-36(s0)
   12964:	3a079763          	bnez	a5,12d12 <susan_thin+0xdb4>
   12968:	fd842703          	lw	a4,-40(s0)
   1296c:	f6442783          	lw	a5,-156(s0)
   12970:	02f70733          	mul	a4,a4,a5
   12974:	fd442783          	lw	a5,-44(s0)
   12978:	973e                	add	a4,a4,a5
   1297a:	fe042783          	lw	a5,-32(s0)
   1297e:	0786                	slli	a5,a5,0x1
   12980:	97ba                	add	a5,a5,a4
   12982:	873e                	mv	a4,a5
   12984:	f6842783          	lw	a5,-152(s0)
   12988:	97ba                	add	a5,a5,a4
   1298a:	0007c703          	lbu	a4,0(a5)
   1298e:	479d                	li	a5,7
   12990:	38e7f163          	bgeu	a5,a4,12d12 <susan_thin+0xdb4>
   12994:	fd842783          	lw	a5,-40(s0)
   12998:	00178713          	addi	a4,a5,1
   1299c:	f6442783          	lw	a5,-156(s0)
   129a0:	02f70733          	mul	a4,a4,a5
   129a4:	fd442783          	lw	a5,-44(s0)
   129a8:	973e                	add	a4,a4,a5
   129aa:	fe042783          	lw	a5,-32(s0)
   129ae:	0786                	slli	a5,a5,0x1
   129b0:	97ba                	add	a5,a5,a4
   129b2:	873e                	mv	a4,a5
   129b4:	f6842783          	lw	a5,-152(s0)
   129b8:	97ba                	add	a5,a5,a4
   129ba:	0007c703          	lbu	a4,0(a5)
   129be:	479d                	li	a5,7
   129c0:	34e7f963          	bgeu	a5,a4,12d12 <susan_thin+0xdb4>
   129c4:	fd842783          	lw	a5,-40(s0)
   129c8:	fff78713          	addi	a4,a5,-1
   129cc:	f6442783          	lw	a5,-156(s0)
   129d0:	02f70733          	mul	a4,a4,a5
   129d4:	fd442783          	lw	a5,-44(s0)
   129d8:	973e                	add	a4,a4,a5
   129da:	fe042783          	lw	a5,-32(s0)
   129de:	0786                	slli	a5,a5,0x1
   129e0:	97ba                	add	a5,a5,a4
   129e2:	873e                	mv	a4,a5
   129e4:	f6842783          	lw	a5,-152(s0)
   129e8:	97ba                	add	a5,a5,a4
   129ea:	0007c703          	lbu	a4,0(a5)
   129ee:	479d                	li	a5,7
   129f0:	32e7f163          	bgeu	a5,a4,12d12 <susan_thin+0xdb4>
   129f4:	fd842703          	lw	a4,-40(s0)
   129f8:	f6442783          	lw	a5,-156(s0)
   129fc:	02f70733          	mul	a4,a4,a5
   12a00:	fd442783          	lw	a5,-44(s0)
   12a04:	97ba                	add	a5,a5,a4
   12a06:	873e                	mv	a4,a5
   12a08:	f6842783          	lw	a5,-152(s0)
   12a0c:	97ba                	add	a5,a5,a4
   12a0e:	06400713          	li	a4,100
   12a12:	00e78023          	sb	a4,0(a5)
   12a16:	fd842703          	lw	a4,-40(s0)
   12a1a:	fdc42783          	lw	a5,-36(s0)
   12a1e:	973e                	add	a4,a4,a5
   12a20:	f6442783          	lw	a5,-156(s0)
   12a24:	02f70733          	mul	a4,a4,a5
   12a28:	fd442783          	lw	a5,-44(s0)
   12a2c:	973e                	add	a4,a4,a5
   12a2e:	fe042783          	lw	a5,-32(s0)
   12a32:	97ba                	add	a5,a5,a4
   12a34:	873e                	mv	a4,a5
   12a36:	f6842783          	lw	a5,-152(s0)
   12a3a:	97ba                	add	a5,a5,a4
   12a3c:	470d                	li	a4,3
   12a3e:	00e78023          	sb	a4,0(a5)
   12a42:	acc1                	j	12d12 <susan_thin+0xdb4>
   12a44:	fd842783          	lw	a5,-40(s0)
   12a48:	fff78713          	addi	a4,a5,-1
   12a4c:	f6442783          	lw	a5,-156(s0)
   12a50:	02f70733          	mul	a4,a4,a5
   12a54:	fd442783          	lw	a5,-44(s0)
   12a58:	97ba                	add	a5,a5,a4
   12a5a:	873e                	mv	a4,a5
   12a5c:	f6842783          	lw	a5,-152(s0)
   12a60:	97ba                	add	a5,a5,a4
   12a62:	0007c783          	lbu	a5,0(a5)
   12a66:	0087b793          	sltiu	a5,a5,8
   12a6a:	0ff7f793          	zext.b	a5,a5
   12a6e:	faf42a23          	sw	a5,-76(s0)
   12a72:	fd842703          	lw	a4,-40(s0)
   12a76:	f6442783          	lw	a5,-156(s0)
   12a7a:	02f70733          	mul	a4,a4,a5
   12a7e:	fd442783          	lw	a5,-44(s0)
   12a82:	97ba                	add	a5,a5,a4
   12a84:	0785                	addi	a5,a5,1
   12a86:	f6842703          	lw	a4,-152(s0)
   12a8a:	97ba                	add	a5,a5,a4
   12a8c:	0007c783          	lbu	a5,0(a5)
   12a90:	0087b793          	sltiu	a5,a5,8
   12a94:	0ff7f793          	zext.b	a5,a5
   12a98:	faf42823          	sw	a5,-80(s0)
   12a9c:	fd842783          	lw	a5,-40(s0)
   12aa0:	00178713          	addi	a4,a5,1
   12aa4:	f6442783          	lw	a5,-156(s0)
   12aa8:	02f70733          	mul	a4,a4,a5
   12aac:	fd442783          	lw	a5,-44(s0)
   12ab0:	97ba                	add	a5,a5,a4
   12ab2:	873e                	mv	a4,a5
   12ab4:	f6842783          	lw	a5,-152(s0)
   12ab8:	97ba                	add	a5,a5,a4
   12aba:	0007c783          	lbu	a5,0(a5)
   12abe:	0087b793          	sltiu	a5,a5,8
   12ac2:	0ff7f793          	zext.b	a5,a5
   12ac6:	faf42623          	sw	a5,-84(s0)
   12aca:	fd842703          	lw	a4,-40(s0)
   12ace:	f6442783          	lw	a5,-156(s0)
   12ad2:	02f70733          	mul	a4,a4,a5
   12ad6:	fd442783          	lw	a5,-44(s0)
   12ada:	97ba                	add	a5,a5,a4
   12adc:	17fd                	addi	a5,a5,-1
   12ade:	f6842703          	lw	a4,-152(s0)
   12ae2:	97ba                	add	a5,a5,a4
   12ae4:	0007c783          	lbu	a5,0(a5)
   12ae8:	0087b793          	sltiu	a5,a5,8
   12aec:	0ff7f793          	zext.b	a5,a5
   12af0:	faf42423          	sw	a5,-88(s0)
   12af4:	fb442703          	lw	a4,-76(s0)
   12af8:	fb042783          	lw	a5,-80(s0)
   12afc:	973e                	add	a4,a4,a5
   12afe:	fac42783          	lw	a5,-84(s0)
   12b02:	973e                	add	a4,a4,a5
   12b04:	fa842783          	lw	a5,-88(s0)
   12b08:	973e                	add	a4,a4,a5
   12b0a:	4789                	li	a5,2
   12b0c:	20f71463          	bne	a4,a5,12d14 <susan_thin+0xdb6>
   12b10:	fa842703          	lw	a4,-88(s0)
   12b14:	fb042783          	lw	a5,-80(s0)
   12b18:	8f5d                	or	a4,a4,a5
   12b1a:	fb442683          	lw	a3,-76(s0)
   12b1e:	fac42783          	lw	a5,-84(s0)
   12b22:	8fd5                	or	a5,a5,a3
   12b24:	8ff9                	and	a5,a5,a4
   12b26:	1e078763          	beqz	a5,12d14 <susan_thin+0xdb6>
   12b2a:	fd842783          	lw	a5,-40(s0)
   12b2e:	ffe78713          	addi	a4,a5,-2
   12b32:	f6442783          	lw	a5,-156(s0)
   12b36:	02f70733          	mul	a4,a4,a5
   12b3a:	fd442783          	lw	a5,-44(s0)
   12b3e:	97ba                	add	a5,a5,a4
   12b40:	17fd                	addi	a5,a5,-1
   12b42:	f6842703          	lw	a4,-152(s0)
   12b46:	97ba                	add	a5,a5,a4
   12b48:	0007c783          	lbu	a5,0(a5)
   12b4c:	0087b793          	sltiu	a5,a5,8
   12b50:	0ff7f713          	zext.b	a4,a5
   12b54:	fd842783          	lw	a5,-40(s0)
   12b58:	ffe78693          	addi	a3,a5,-2
   12b5c:	f6442783          	lw	a5,-156(s0)
   12b60:	02f686b3          	mul	a3,a3,a5
   12b64:	fd442783          	lw	a5,-44(s0)
   12b68:	97b6                	add	a5,a5,a3
   12b6a:	0785                	addi	a5,a5,1
   12b6c:	f6842683          	lw	a3,-152(s0)
   12b70:	97b6                	add	a5,a5,a3
   12b72:	0007c783          	lbu	a5,0(a5)
   12b76:	0087b793          	sltiu	a5,a5,8
   12b7a:	0ff7f793          	zext.b	a5,a5
   12b7e:	8fd9                	or	a5,a5,a4
   12b80:	0ff7f793          	zext.b	a5,a5
   12b84:	873e                	mv	a4,a5
   12b86:	fb442783          	lw	a5,-76(s0)
   12b8a:	8f7d                	and	a4,a4,a5
   12b8c:	fd842783          	lw	a5,-40(s0)
   12b90:	fff78693          	addi	a3,a5,-1
   12b94:	f6442783          	lw	a5,-156(s0)
   12b98:	02f686b3          	mul	a3,a3,a5
   12b9c:	fd442783          	lw	a5,-44(s0)
   12ba0:	97b6                	add	a5,a5,a3
   12ba2:	17f9                	addi	a5,a5,-2
   12ba4:	f6842683          	lw	a3,-152(s0)
   12ba8:	97b6                	add	a5,a5,a3
   12baa:	0007c783          	lbu	a5,0(a5)
   12bae:	0087b793          	sltiu	a5,a5,8
   12bb2:	0ff7f693          	zext.b	a3,a5
   12bb6:	fd842783          	lw	a5,-40(s0)
   12bba:	00178613          	addi	a2,a5,1
   12bbe:	f6442783          	lw	a5,-156(s0)
   12bc2:	02f60633          	mul	a2,a2,a5
   12bc6:	fd442783          	lw	a5,-44(s0)
   12bca:	97b2                	add	a5,a5,a2
   12bcc:	17f9                	addi	a5,a5,-2
   12bce:	f6842603          	lw	a2,-152(s0)
   12bd2:	97b2                	add	a5,a5,a2
   12bd4:	0007c783          	lbu	a5,0(a5)
   12bd8:	0087b793          	sltiu	a5,a5,8
   12bdc:	0ff7f793          	zext.b	a5,a5
   12be0:	8fd5                	or	a5,a5,a3
   12be2:	0ff7f793          	zext.b	a5,a5
   12be6:	86be                	mv	a3,a5
   12be8:	fa842783          	lw	a5,-88(s0)
   12bec:	8ff5                	and	a5,a5,a3
   12bee:	8f5d                	or	a4,a4,a5
   12bf0:	fd842783          	lw	a5,-40(s0)
   12bf4:	fff78693          	addi	a3,a5,-1
   12bf8:	f6442783          	lw	a5,-156(s0)
   12bfc:	02f686b3          	mul	a3,a3,a5
   12c00:	fd442783          	lw	a5,-44(s0)
   12c04:	97b6                	add	a5,a5,a3
   12c06:	0789                	addi	a5,a5,2
   12c08:	f6842683          	lw	a3,-152(s0)
   12c0c:	97b6                	add	a5,a5,a3
   12c0e:	0007c783          	lbu	a5,0(a5)
   12c12:	0087b793          	sltiu	a5,a5,8
   12c16:	0ff7f693          	zext.b	a3,a5
   12c1a:	fd842783          	lw	a5,-40(s0)
   12c1e:	00178613          	addi	a2,a5,1
   12c22:	f6442783          	lw	a5,-156(s0)
   12c26:	02f60633          	mul	a2,a2,a5
   12c2a:	fd442783          	lw	a5,-44(s0)
   12c2e:	97b2                	add	a5,a5,a2
   12c30:	0789                	addi	a5,a5,2
   12c32:	f6842603          	lw	a2,-152(s0)
   12c36:	97b2                	add	a5,a5,a2
   12c38:	0007c783          	lbu	a5,0(a5)
   12c3c:	0087b793          	sltiu	a5,a5,8
   12c40:	0ff7f793          	zext.b	a5,a5
   12c44:	8fd5                	or	a5,a5,a3
   12c46:	0ff7f793          	zext.b	a5,a5
   12c4a:	86be                	mv	a3,a5
   12c4c:	fb042783          	lw	a5,-80(s0)
   12c50:	8ff5                	and	a5,a5,a3
   12c52:	8f5d                	or	a4,a4,a5
   12c54:	fd842783          	lw	a5,-40(s0)
   12c58:	00278693          	addi	a3,a5,2
   12c5c:	f6442783          	lw	a5,-156(s0)
   12c60:	02f686b3          	mul	a3,a3,a5
   12c64:	fd442783          	lw	a5,-44(s0)
   12c68:	97b6                	add	a5,a5,a3
   12c6a:	17fd                	addi	a5,a5,-1
   12c6c:	f6842683          	lw	a3,-152(s0)
   12c70:	97b6                	add	a5,a5,a3
   12c72:	0007c783          	lbu	a5,0(a5)
   12c76:	0087b793          	sltiu	a5,a5,8
   12c7a:	0ff7f693          	zext.b	a3,a5
   12c7e:	fd842783          	lw	a5,-40(s0)
   12c82:	00278613          	addi	a2,a5,2
   12c86:	f6442783          	lw	a5,-156(s0)
   12c8a:	02f60633          	mul	a2,a2,a5
   12c8e:	fd442783          	lw	a5,-44(s0)
   12c92:	97b2                	add	a5,a5,a2
   12c94:	0785                	addi	a5,a5,1
   12c96:	f6842603          	lw	a2,-152(s0)
   12c9a:	97b2                	add	a5,a5,a2
   12c9c:	0007c783          	lbu	a5,0(a5)
   12ca0:	0087b793          	sltiu	a5,a5,8
   12ca4:	0ff7f793          	zext.b	a5,a5
   12ca8:	8fd5                	or	a5,a5,a3
   12caa:	0ff7f793          	zext.b	a5,a5
   12cae:	86be                	mv	a3,a5
   12cb0:	fac42783          	lw	a5,-84(s0)
   12cb4:	8ff5                	and	a5,a5,a3
   12cb6:	8fd9                	or	a5,a5,a4
   12cb8:	cfb1                	beqz	a5,12d14 <susan_thin+0xdb6>
   12cba:	fd842703          	lw	a4,-40(s0)
   12cbe:	f6442783          	lw	a5,-156(s0)
   12cc2:	02f70733          	mul	a4,a4,a5
   12cc6:	fd442783          	lw	a5,-44(s0)
   12cca:	97ba                	add	a5,a5,a4
   12ccc:	873e                	mv	a4,a5
   12cce:	f6842783          	lw	a5,-152(s0)
   12cd2:	97ba                	add	a5,a5,a4
   12cd4:	06400713          	li	a4,100
   12cd8:	00e78023          	sb	a4,0(a5)
   12cdc:	fd842783          	lw	a5,-40(s0)
   12ce0:	17fd                	addi	a5,a5,-1
   12ce2:	fcf42c23          	sw	a5,-40(s0)
   12ce6:	fd442783          	lw	a5,-44(s0)
   12cea:	17f9                	addi	a5,a5,-2
   12cec:	fcf42a23          	sw	a5,-44(s0)
   12cf0:	fd842703          	lw	a4,-40(s0)
   12cf4:	478d                	li	a5,3
   12cf6:	00e7c563          	blt	a5,a4,12d00 <susan_thin+0xda2>
   12cfa:	4791                	li	a5,4
   12cfc:	fcf42c23          	sw	a5,-40(s0)
   12d00:	fd442703          	lw	a4,-44(s0)
   12d04:	478d                	li	a5,3
   12d06:	00e7c763          	blt	a5,a4,12d14 <susan_thin+0xdb6>
   12d0a:	4791                	li	a5,4
   12d0c:	fcf42a23          	sw	a5,-44(s0)
   12d10:	a011                	j	12d14 <susan_thin+0xdb6>
   12d12:	0001                	nop
   12d14:	fc842703          	lw	a4,-56(s0)
   12d18:	4789                	li	a5,2
   12d1a:	26e7d163          	bge	a5,a4,12f7c <susan_thin+0x101e>
   12d1e:	fd842783          	lw	a5,-40(s0)
   12d22:	fff78713          	addi	a4,a5,-1
   12d26:	f6442783          	lw	a5,-156(s0)
   12d2a:	02f70733          	mul	a4,a4,a5
   12d2e:	fd442783          	lw	a5,-44(s0)
   12d32:	97ba                	add	a5,a5,a4
   12d34:	873e                	mv	a4,a5
   12d36:	f6842783          	lw	a5,-152(s0)
   12d3a:	97ba                	add	a5,a5,a4
   12d3c:	0007c783          	lbu	a5,0(a5)
   12d40:	0087b793          	sltiu	a5,a5,8
   12d44:	0ff7f793          	zext.b	a5,a5
   12d48:	faf42a23          	sw	a5,-76(s0)
   12d4c:	fd842703          	lw	a4,-40(s0)
   12d50:	f6442783          	lw	a5,-156(s0)
   12d54:	02f70733          	mul	a4,a4,a5
   12d58:	fd442783          	lw	a5,-44(s0)
   12d5c:	97ba                	add	a5,a5,a4
   12d5e:	0785                	addi	a5,a5,1
   12d60:	f6842703          	lw	a4,-152(s0)
   12d64:	97ba                	add	a5,a5,a4
   12d66:	0007c783          	lbu	a5,0(a5)
   12d6a:	0087b793          	sltiu	a5,a5,8
   12d6e:	0ff7f793          	zext.b	a5,a5
   12d72:	faf42823          	sw	a5,-80(s0)
   12d76:	fd842783          	lw	a5,-40(s0)
   12d7a:	00178713          	addi	a4,a5,1
   12d7e:	f6442783          	lw	a5,-156(s0)
   12d82:	02f70733          	mul	a4,a4,a5
   12d86:	fd442783          	lw	a5,-44(s0)
   12d8a:	97ba                	add	a5,a5,a4
   12d8c:	873e                	mv	a4,a5
   12d8e:	f6842783          	lw	a5,-152(s0)
   12d92:	97ba                	add	a5,a5,a4
   12d94:	0007c783          	lbu	a5,0(a5)
   12d98:	0087b793          	sltiu	a5,a5,8
   12d9c:	0ff7f793          	zext.b	a5,a5
   12da0:	faf42623          	sw	a5,-84(s0)
   12da4:	fd842703          	lw	a4,-40(s0)
   12da8:	f6442783          	lw	a5,-156(s0)
   12dac:	02f70733          	mul	a4,a4,a5
   12db0:	fd442783          	lw	a5,-44(s0)
   12db4:	97ba                	add	a5,a5,a4
   12db6:	17fd                	addi	a5,a5,-1
   12db8:	f6842703          	lw	a4,-152(s0)
   12dbc:	97ba                	add	a5,a5,a4
   12dbe:	0007c783          	lbu	a5,0(a5)
   12dc2:	0087b793          	sltiu	a5,a5,8
   12dc6:	0ff7f793          	zext.b	a5,a5
   12dca:	faf42423          	sw	a5,-88(s0)
   12dce:	fb442703          	lw	a4,-76(s0)
   12dd2:	fb042783          	lw	a5,-80(s0)
   12dd6:	973e                	add	a4,a4,a5
   12dd8:	fac42783          	lw	a5,-84(s0)
   12ddc:	973e                	add	a4,a4,a5
   12dde:	fa842783          	lw	a5,-88(s0)
   12de2:	973e                	add	a4,a4,a5
   12de4:	4785                	li	a5,1
   12de6:	18e7db63          	bge	a5,a4,12f7c <susan_thin+0x101e>
   12dea:	fd842783          	lw	a5,-40(s0)
   12dee:	fff78713          	addi	a4,a5,-1
   12df2:	f6442783          	lw	a5,-156(s0)
   12df6:	02f70733          	mul	a4,a4,a5
   12dfa:	fd442783          	lw	a5,-44(s0)
   12dfe:	97ba                	add	a5,a5,a4
   12e00:	17fd                	addi	a5,a5,-1
   12e02:	f6842703          	lw	a4,-152(s0)
   12e06:	97ba                	add	a5,a5,a4
   12e08:	0007c783          	lbu	a5,0(a5)
   12e0c:	0087b793          	sltiu	a5,a5,8
   12e10:	0ff7f793          	zext.b	a5,a5
   12e14:	fcf42223          	sw	a5,-60(s0)
   12e18:	fd842783          	lw	a5,-40(s0)
   12e1c:	fff78713          	addi	a4,a5,-1
   12e20:	f6442783          	lw	a5,-156(s0)
   12e24:	02f70733          	mul	a4,a4,a5
   12e28:	fd442783          	lw	a5,-44(s0)
   12e2c:	97ba                	add	a5,a5,a4
   12e2e:	0785                	addi	a5,a5,1
   12e30:	f6842703          	lw	a4,-152(s0)
   12e34:	97ba                	add	a5,a5,a4
   12e36:	0007c783          	lbu	a5,0(a5)
   12e3a:	0087b793          	sltiu	a5,a5,8
   12e3e:	0ff7f793          	zext.b	a5,a5
   12e42:	fcf42023          	sw	a5,-64(s0)
   12e46:	fd842783          	lw	a5,-40(s0)
   12e4a:	00178713          	addi	a4,a5,1
   12e4e:	f6442783          	lw	a5,-156(s0)
   12e52:	02f70733          	mul	a4,a4,a5
   12e56:	fd442783          	lw	a5,-44(s0)
   12e5a:	97ba                	add	a5,a5,a4
   12e5c:	17fd                	addi	a5,a5,-1
   12e5e:	f6842703          	lw	a4,-152(s0)
   12e62:	97ba                	add	a5,a5,a4
   12e64:	0007c783          	lbu	a5,0(a5)
   12e68:	0087b793          	sltiu	a5,a5,8
   12e6c:	0ff7f793          	zext.b	a5,a5
   12e70:	faf42e23          	sw	a5,-68(s0)
   12e74:	fd842783          	lw	a5,-40(s0)
   12e78:	00178713          	addi	a4,a5,1
   12e7c:	f6442783          	lw	a5,-156(s0)
   12e80:	02f70733          	mul	a4,a4,a5
   12e84:	fd442783          	lw	a5,-44(s0)
   12e88:	97ba                	add	a5,a5,a4
   12e8a:	0785                	addi	a5,a5,1
   12e8c:	f6842703          	lw	a4,-152(s0)
   12e90:	97ba                	add	a5,a5,a4
   12e92:	0007c783          	lbu	a5,0(a5)
   12e96:	0087b793          	sltiu	a5,a5,8
   12e9a:	0ff7f793          	zext.b	a5,a5
   12e9e:	faf42c23          	sw	a5,-72(s0)
   12ea2:	fc442703          	lw	a4,-60(s0)
   12ea6:	fb442783          	lw	a5,-76(s0)
   12eaa:	8fd9                	or	a5,a5,a4
   12eac:	faf42223          	sw	a5,-92(s0)
   12eb0:	fc042703          	lw	a4,-64(s0)
   12eb4:	fb042783          	lw	a5,-80(s0)
   12eb8:	8fd9                	or	a5,a5,a4
   12eba:	faf42023          	sw	a5,-96(s0)
   12ebe:	fb842703          	lw	a4,-72(s0)
   12ec2:	fac42783          	lw	a5,-84(s0)
   12ec6:	8fd9                	or	a5,a5,a4
   12ec8:	f8f42e23          	sw	a5,-100(s0)
   12ecc:	fbc42703          	lw	a4,-68(s0)
   12ed0:	fa842783          	lw	a5,-88(s0)
   12ed4:	8fd9                	or	a5,a5,a4
   12ed6:	f8f42c23          	sw	a5,-104(s0)
   12eda:	fa442703          	lw	a4,-92(s0)
   12ede:	fa042783          	lw	a5,-96(s0)
   12ee2:	973e                	add	a4,a4,a5
   12ee4:	f9c42783          	lw	a5,-100(s0)
   12ee8:	973e                	add	a4,a4,a5
   12eea:	f9842783          	lw	a5,-104(s0)
   12eee:	973e                	add	a4,a4,a5
   12ef0:	fb442683          	lw	a3,-76(s0)
   12ef4:	fa042783          	lw	a5,-96(s0)
   12ef8:	8efd                	and	a3,a3,a5
   12efa:	fb042603          	lw	a2,-80(s0)
   12efe:	f9c42783          	lw	a5,-100(s0)
   12f02:	8ff1                	and	a5,a5,a2
   12f04:	96be                	add	a3,a3,a5
   12f06:	fac42603          	lw	a2,-84(s0)
   12f0a:	f9842783          	lw	a5,-104(s0)
   12f0e:	8ff1                	and	a5,a5,a2
   12f10:	96be                	add	a3,a3,a5
   12f12:	fa842603          	lw	a2,-88(s0)
   12f16:	fa442783          	lw	a5,-92(s0)
   12f1a:	8ff1                	and	a5,a5,a2
   12f1c:	97b6                	add	a5,a5,a3
   12f1e:	8f1d                	sub	a4,a4,a5
   12f20:	4785                	li	a5,1
   12f22:	04e7cd63          	blt	a5,a4,12f7c <susan_thin+0x101e>
   12f26:	fd842703          	lw	a4,-40(s0)
   12f2a:	f6442783          	lw	a5,-156(s0)
   12f2e:	02f70733          	mul	a4,a4,a5
   12f32:	fd442783          	lw	a5,-44(s0)
   12f36:	97ba                	add	a5,a5,a4
   12f38:	873e                	mv	a4,a5
   12f3a:	f6842783          	lw	a5,-152(s0)
   12f3e:	97ba                	add	a5,a5,a4
   12f40:	06400713          	li	a4,100
   12f44:	00e78023          	sb	a4,0(a5)
   12f48:	fd842783          	lw	a5,-40(s0)
   12f4c:	17fd                	addi	a5,a5,-1
   12f4e:	fcf42c23          	sw	a5,-40(s0)
   12f52:	fd442783          	lw	a5,-44(s0)
   12f56:	17f9                	addi	a5,a5,-2
   12f58:	fcf42a23          	sw	a5,-44(s0)
   12f5c:	fd842703          	lw	a4,-40(s0)
   12f60:	478d                	li	a5,3
   12f62:	00e7c563          	blt	a5,a4,12f6c <susan_thin+0x100e>
   12f66:	4791                	li	a5,4
   12f68:	fcf42c23          	sw	a5,-40(s0)
   12f6c:	fd442703          	lw	a4,-44(s0)
   12f70:	478d                	li	a5,3
   12f72:	00e7c563          	blt	a5,a4,12f7c <susan_thin+0x101e>
   12f76:	4791                	li	a5,4
   12f78:	fcf42a23          	sw	a5,-44(s0)
   12f7c:	fd442783          	lw	a5,-44(s0)
   12f80:	0785                	addi	a5,a5,1
   12f82:	fcf42a23          	sw	a5,-44(s0)
   12f86:	f6442783          	lw	a5,-156(s0)
   12f8a:	17f1                	addi	a5,a5,-4
   12f8c:	fd442703          	lw	a4,-44(s0)
   12f90:	00f75463          	bge	a4,a5,12f98 <susan_thin+0x103a>
   12f94:	ff7fe06f          	j	11f8a <susan_thin+0x2c>
   12f98:	fd842783          	lw	a5,-40(s0)
   12f9c:	0785                	addi	a5,a5,1
   12f9e:	fcf42c23          	sw	a5,-40(s0)
   12fa2:	f6042783          	lw	a5,-160(s0)
   12fa6:	17f1                	addi	a5,a5,-4
   12fa8:	fd842703          	lw	a4,-40(s0)
   12fac:	00f75463          	bge	a4,a5,12fb4 <susan_thin+0x1056>
   12fb0:	fd1fe06f          	j	11f80 <susan_thin+0x22>
   12fb4:	0001                	nop
   12fb6:	853e                	mv	a0,a5
   12fb8:	40fa                	lw	ra,156(sp)
   12fba:	446a                	lw	s0,152(sp)
   12fbc:	610d                	addi	sp,sp,160
   12fbe:	8082                	ret

00012fc0 <susan_edges>:
   12fc0:	7159                	addi	sp,sp,-112
   12fc2:	d686                	sw	ra,108(sp)
   12fc4:	d4a2                	sw	s0,104(sp)
   12fc6:	1880                	addi	s0,sp,112
   12fc8:	faa42623          	sw	a0,-84(s0)
   12fcc:	fab42423          	sw	a1,-88(s0)
   12fd0:	fac42223          	sw	a2,-92(s0)
   12fd4:	fad42023          	sw	a3,-96(s0)
   12fd8:	f8e42e23          	sw	a4,-100(s0)
   12fdc:	f8f42c23          	sw	a5,-104(s0)
   12fe0:	f9042a23          	sw	a6,-108(s0)
   12fe4:	f9842703          	lw	a4,-104(s0)
   12fe8:	f9442783          	lw	a5,-108(s0)
   12fec:	02f707b3          	mul	a5,a4,a5
   12ff0:	078a                	slli	a5,a5,0x2
   12ff2:	863e                	mv	a2,a5
   12ff4:	4581                	li	a1,0
   12ff6:	fa842503          	lw	a0,-88(s0)
   12ffa:	0fe0a0ef          	jal	1d0f8 <memset>
   12ffe:	478d                	li	a5,3
   13000:	fef42223          	sw	a5,-28(s0)
   13004:	a5e1                	j	136cc <susan_edges+0x70c>
   13006:	478d                	li	a5,3
   13008:	fef42023          	sw	a5,-32(s0)
   1300c:	a565                	j	136b4 <susan_edges+0x6f4>
   1300e:	06400793          	li	a5,100
   13012:	fcf42623          	sw	a5,-52(s0)
   13016:	fe442783          	lw	a5,-28(s0)
   1301a:	ffd78713          	addi	a4,a5,-3
   1301e:	f9842783          	lw	a5,-104(s0)
   13022:	02f707b3          	mul	a5,a4,a5
   13026:	873e                	mv	a4,a5
   13028:	fe042783          	lw	a5,-32(s0)
   1302c:	97ba                	add	a5,a5,a4
   1302e:	17fd                	addi	a5,a5,-1
   13030:	fac42703          	lw	a4,-84(s0)
   13034:	97ba                	add	a5,a5,a4
   13036:	fcf42223          	sw	a5,-60(s0)
   1303a:	fe442703          	lw	a4,-28(s0)
   1303e:	f9842783          	lw	a5,-104(s0)
   13042:	02f70733          	mul	a4,a4,a5
   13046:	fe042783          	lw	a5,-32(s0)
   1304a:	97ba                	add	a5,a5,a4
   1304c:	873e                	mv	a4,a5
   1304e:	fac42783          	lw	a5,-84(s0)
   13052:	97ba                	add	a5,a5,a4
   13054:	0007c783          	lbu	a5,0(a5)
   13058:	873e                	mv	a4,a5
   1305a:	fa042783          	lw	a5,-96(s0)
   1305e:	97ba                	add	a5,a5,a4
   13060:	fcf42423          	sw	a5,-56(s0)
   13064:	fc442783          	lw	a5,-60(s0)
   13068:	00178713          	addi	a4,a5,1
   1306c:	fce42223          	sw	a4,-60(s0)
   13070:	0007c783          	lbu	a5,0(a5)
   13074:	40f007b3          	neg	a5,a5
   13078:	fc842703          	lw	a4,-56(s0)
   1307c:	97ba                	add	a5,a5,a4
   1307e:	0007c783          	lbu	a5,0(a5)
   13082:	873e                	mv	a4,a5
   13084:	fcc42783          	lw	a5,-52(s0)
   13088:	97ba                	add	a5,a5,a4
   1308a:	fcf42623          	sw	a5,-52(s0)
   1308e:	fc442783          	lw	a5,-60(s0)
   13092:	00178713          	addi	a4,a5,1
   13096:	fce42223          	sw	a4,-60(s0)
   1309a:	0007c783          	lbu	a5,0(a5)
   1309e:	40f007b3          	neg	a5,a5
   130a2:	fc842703          	lw	a4,-56(s0)
   130a6:	97ba                	add	a5,a5,a4
   130a8:	0007c783          	lbu	a5,0(a5)
   130ac:	873e                	mv	a4,a5
   130ae:	fcc42783          	lw	a5,-52(s0)
   130b2:	97ba                	add	a5,a5,a4
   130b4:	fcf42623          	sw	a5,-52(s0)
   130b8:	fc442783          	lw	a5,-60(s0)
   130bc:	0007c783          	lbu	a5,0(a5)
   130c0:	40f007b3          	neg	a5,a5
   130c4:	fc842703          	lw	a4,-56(s0)
   130c8:	97ba                	add	a5,a5,a4
   130ca:	0007c783          	lbu	a5,0(a5)
   130ce:	873e                	mv	a4,a5
   130d0:	fcc42783          	lw	a5,-52(s0)
   130d4:	97ba                	add	a5,a5,a4
   130d6:	fcf42623          	sw	a5,-52(s0)
   130da:	f9842783          	lw	a5,-104(s0)
   130de:	17f5                	addi	a5,a5,-3
   130e0:	fc442703          	lw	a4,-60(s0)
   130e4:	97ba                	add	a5,a5,a4
   130e6:	fcf42223          	sw	a5,-60(s0)
   130ea:	fc442783          	lw	a5,-60(s0)
   130ee:	00178713          	addi	a4,a5,1
   130f2:	fce42223          	sw	a4,-60(s0)
   130f6:	0007c783          	lbu	a5,0(a5)
   130fa:	40f007b3          	neg	a5,a5
   130fe:	fc842703          	lw	a4,-56(s0)
   13102:	97ba                	add	a5,a5,a4
   13104:	0007c783          	lbu	a5,0(a5)
   13108:	873e                	mv	a4,a5
   1310a:	fcc42783          	lw	a5,-52(s0)
   1310e:	97ba                	add	a5,a5,a4
   13110:	fcf42623          	sw	a5,-52(s0)
   13114:	fc442783          	lw	a5,-60(s0)
   13118:	00178713          	addi	a4,a5,1
   1311c:	fce42223          	sw	a4,-60(s0)
   13120:	0007c783          	lbu	a5,0(a5)
   13124:	40f007b3          	neg	a5,a5
   13128:	fc842703          	lw	a4,-56(s0)
   1312c:	97ba                	add	a5,a5,a4
   1312e:	0007c783          	lbu	a5,0(a5)
   13132:	873e                	mv	a4,a5
   13134:	fcc42783          	lw	a5,-52(s0)
   13138:	97ba                	add	a5,a5,a4
   1313a:	fcf42623          	sw	a5,-52(s0)
   1313e:	fc442783          	lw	a5,-60(s0)
   13142:	00178713          	addi	a4,a5,1
   13146:	fce42223          	sw	a4,-60(s0)
   1314a:	0007c783          	lbu	a5,0(a5)
   1314e:	40f007b3          	neg	a5,a5
   13152:	fc842703          	lw	a4,-56(s0)
   13156:	97ba                	add	a5,a5,a4
   13158:	0007c783          	lbu	a5,0(a5)
   1315c:	873e                	mv	a4,a5
   1315e:	fcc42783          	lw	a5,-52(s0)
   13162:	97ba                	add	a5,a5,a4
   13164:	fcf42623          	sw	a5,-52(s0)
   13168:	fc442783          	lw	a5,-60(s0)
   1316c:	00178713          	addi	a4,a5,1
   13170:	fce42223          	sw	a4,-60(s0)
   13174:	0007c783          	lbu	a5,0(a5)
   13178:	40f007b3          	neg	a5,a5
   1317c:	fc842703          	lw	a4,-56(s0)
   13180:	97ba                	add	a5,a5,a4
   13182:	0007c783          	lbu	a5,0(a5)
   13186:	873e                	mv	a4,a5
   13188:	fcc42783          	lw	a5,-52(s0)
   1318c:	97ba                	add	a5,a5,a4
   1318e:	fcf42623          	sw	a5,-52(s0)
   13192:	fc442783          	lw	a5,-60(s0)
   13196:	0007c783          	lbu	a5,0(a5)
   1319a:	40f007b3          	neg	a5,a5
   1319e:	fc842703          	lw	a4,-56(s0)
   131a2:	97ba                	add	a5,a5,a4
   131a4:	0007c783          	lbu	a5,0(a5)
   131a8:	873e                	mv	a4,a5
   131aa:	fcc42783          	lw	a5,-52(s0)
   131ae:	97ba                	add	a5,a5,a4
   131b0:	fcf42623          	sw	a5,-52(s0)
   131b4:	f9842783          	lw	a5,-104(s0)
   131b8:	17ed                	addi	a5,a5,-5
   131ba:	fc442703          	lw	a4,-60(s0)
   131be:	97ba                	add	a5,a5,a4
   131c0:	fcf42223          	sw	a5,-60(s0)
   131c4:	fc442783          	lw	a5,-60(s0)
   131c8:	00178713          	addi	a4,a5,1
   131cc:	fce42223          	sw	a4,-60(s0)
   131d0:	0007c783          	lbu	a5,0(a5)
   131d4:	40f007b3          	neg	a5,a5
   131d8:	fc842703          	lw	a4,-56(s0)
   131dc:	97ba                	add	a5,a5,a4
   131de:	0007c783          	lbu	a5,0(a5)
   131e2:	873e                	mv	a4,a5
   131e4:	fcc42783          	lw	a5,-52(s0)
   131e8:	97ba                	add	a5,a5,a4
   131ea:	fcf42623          	sw	a5,-52(s0)
   131ee:	fc442783          	lw	a5,-60(s0)
   131f2:	00178713          	addi	a4,a5,1
   131f6:	fce42223          	sw	a4,-60(s0)
   131fa:	0007c783          	lbu	a5,0(a5)
   131fe:	40f007b3          	neg	a5,a5
   13202:	fc842703          	lw	a4,-56(s0)
   13206:	97ba                	add	a5,a5,a4
   13208:	0007c783          	lbu	a5,0(a5)
   1320c:	873e                	mv	a4,a5
   1320e:	fcc42783          	lw	a5,-52(s0)
   13212:	97ba                	add	a5,a5,a4
   13214:	fcf42623          	sw	a5,-52(s0)
   13218:	fc442783          	lw	a5,-60(s0)
   1321c:	00178713          	addi	a4,a5,1
   13220:	fce42223          	sw	a4,-60(s0)
   13224:	0007c783          	lbu	a5,0(a5)
   13228:	40f007b3          	neg	a5,a5
   1322c:	fc842703          	lw	a4,-56(s0)
   13230:	97ba                	add	a5,a5,a4
   13232:	0007c783          	lbu	a5,0(a5)
   13236:	873e                	mv	a4,a5
   13238:	fcc42783          	lw	a5,-52(s0)
   1323c:	97ba                	add	a5,a5,a4
   1323e:	fcf42623          	sw	a5,-52(s0)
   13242:	fc442783          	lw	a5,-60(s0)
   13246:	00178713          	addi	a4,a5,1
   1324a:	fce42223          	sw	a4,-60(s0)
   1324e:	0007c783          	lbu	a5,0(a5)
   13252:	40f007b3          	neg	a5,a5
   13256:	fc842703          	lw	a4,-56(s0)
   1325a:	97ba                	add	a5,a5,a4
   1325c:	0007c783          	lbu	a5,0(a5)
   13260:	873e                	mv	a4,a5
   13262:	fcc42783          	lw	a5,-52(s0)
   13266:	97ba                	add	a5,a5,a4
   13268:	fcf42623          	sw	a5,-52(s0)
   1326c:	fc442783          	lw	a5,-60(s0)
   13270:	00178713          	addi	a4,a5,1
   13274:	fce42223          	sw	a4,-60(s0)
   13278:	0007c783          	lbu	a5,0(a5)
   1327c:	40f007b3          	neg	a5,a5
   13280:	fc842703          	lw	a4,-56(s0)
   13284:	97ba                	add	a5,a5,a4
   13286:	0007c783          	lbu	a5,0(a5)
   1328a:	873e                	mv	a4,a5
   1328c:	fcc42783          	lw	a5,-52(s0)
   13290:	97ba                	add	a5,a5,a4
   13292:	fcf42623          	sw	a5,-52(s0)
   13296:	fc442783          	lw	a5,-60(s0)
   1329a:	00178713          	addi	a4,a5,1
   1329e:	fce42223          	sw	a4,-60(s0)
   132a2:	0007c783          	lbu	a5,0(a5)
   132a6:	40f007b3          	neg	a5,a5
   132aa:	fc842703          	lw	a4,-56(s0)
   132ae:	97ba                	add	a5,a5,a4
   132b0:	0007c783          	lbu	a5,0(a5)
   132b4:	873e                	mv	a4,a5
   132b6:	fcc42783          	lw	a5,-52(s0)
   132ba:	97ba                	add	a5,a5,a4
   132bc:	fcf42623          	sw	a5,-52(s0)
   132c0:	fc442783          	lw	a5,-60(s0)
   132c4:	0007c783          	lbu	a5,0(a5)
   132c8:	40f007b3          	neg	a5,a5
   132cc:	fc842703          	lw	a4,-56(s0)
   132d0:	97ba                	add	a5,a5,a4
   132d2:	0007c783          	lbu	a5,0(a5)
   132d6:	873e                	mv	a4,a5
   132d8:	fcc42783          	lw	a5,-52(s0)
   132dc:	97ba                	add	a5,a5,a4
   132de:	fcf42623          	sw	a5,-52(s0)
   132e2:	f9842783          	lw	a5,-104(s0)
   132e6:	17e9                	addi	a5,a5,-6
   132e8:	fc442703          	lw	a4,-60(s0)
   132ec:	97ba                	add	a5,a5,a4
   132ee:	fcf42223          	sw	a5,-60(s0)
   132f2:	fc442783          	lw	a5,-60(s0)
   132f6:	00178713          	addi	a4,a5,1
   132fa:	fce42223          	sw	a4,-60(s0)
   132fe:	0007c783          	lbu	a5,0(a5)
   13302:	40f007b3          	neg	a5,a5
   13306:	fc842703          	lw	a4,-56(s0)
   1330a:	97ba                	add	a5,a5,a4
   1330c:	0007c783          	lbu	a5,0(a5)
   13310:	873e                	mv	a4,a5
   13312:	fcc42783          	lw	a5,-52(s0)
   13316:	97ba                	add	a5,a5,a4
   13318:	fcf42623          	sw	a5,-52(s0)
   1331c:	fc442783          	lw	a5,-60(s0)
   13320:	00178713          	addi	a4,a5,1
   13324:	fce42223          	sw	a4,-60(s0)
   13328:	0007c783          	lbu	a5,0(a5)
   1332c:	40f007b3          	neg	a5,a5
   13330:	fc842703          	lw	a4,-56(s0)
   13334:	97ba                	add	a5,a5,a4
   13336:	0007c783          	lbu	a5,0(a5)
   1333a:	873e                	mv	a4,a5
   1333c:	fcc42783          	lw	a5,-52(s0)
   13340:	97ba                	add	a5,a5,a4
   13342:	fcf42623          	sw	a5,-52(s0)
   13346:	fc442783          	lw	a5,-60(s0)
   1334a:	0007c783          	lbu	a5,0(a5)
   1334e:	40f007b3          	neg	a5,a5
   13352:	fc842703          	lw	a4,-56(s0)
   13356:	97ba                	add	a5,a5,a4
   13358:	0007c783          	lbu	a5,0(a5)
   1335c:	873e                	mv	a4,a5
   1335e:	fcc42783          	lw	a5,-52(s0)
   13362:	97ba                	add	a5,a5,a4
   13364:	fcf42623          	sw	a5,-52(s0)
   13368:	fc442783          	lw	a5,-60(s0)
   1336c:	0789                	addi	a5,a5,2
   1336e:	fcf42223          	sw	a5,-60(s0)
   13372:	fc442783          	lw	a5,-60(s0)
   13376:	00178713          	addi	a4,a5,1
   1337a:	fce42223          	sw	a4,-60(s0)
   1337e:	0007c783          	lbu	a5,0(a5)
   13382:	40f007b3          	neg	a5,a5
   13386:	fc842703          	lw	a4,-56(s0)
   1338a:	97ba                	add	a5,a5,a4
   1338c:	0007c783          	lbu	a5,0(a5)
   13390:	873e                	mv	a4,a5
   13392:	fcc42783          	lw	a5,-52(s0)
   13396:	97ba                	add	a5,a5,a4
   13398:	fcf42623          	sw	a5,-52(s0)
   1339c:	fc442783          	lw	a5,-60(s0)
   133a0:	00178713          	addi	a4,a5,1
   133a4:	fce42223          	sw	a4,-60(s0)
   133a8:	0007c783          	lbu	a5,0(a5)
   133ac:	40f007b3          	neg	a5,a5
   133b0:	fc842703          	lw	a4,-56(s0)
   133b4:	97ba                	add	a5,a5,a4
   133b6:	0007c783          	lbu	a5,0(a5)
   133ba:	873e                	mv	a4,a5
   133bc:	fcc42783          	lw	a5,-52(s0)
   133c0:	97ba                	add	a5,a5,a4
   133c2:	fcf42623          	sw	a5,-52(s0)
   133c6:	fc442783          	lw	a5,-60(s0)
   133ca:	0007c783          	lbu	a5,0(a5)
   133ce:	40f007b3          	neg	a5,a5
   133d2:	fc842703          	lw	a4,-56(s0)
   133d6:	97ba                	add	a5,a5,a4
   133d8:	0007c783          	lbu	a5,0(a5)
   133dc:	873e                	mv	a4,a5
   133de:	fcc42783          	lw	a5,-52(s0)
   133e2:	97ba                	add	a5,a5,a4
   133e4:	fcf42623          	sw	a5,-52(s0)
   133e8:	f9842783          	lw	a5,-104(s0)
   133ec:	17e9                	addi	a5,a5,-6
   133ee:	fc442703          	lw	a4,-60(s0)
   133f2:	97ba                	add	a5,a5,a4
   133f4:	fcf42223          	sw	a5,-60(s0)
   133f8:	fc442783          	lw	a5,-60(s0)
   133fc:	00178713          	addi	a4,a5,1
   13400:	fce42223          	sw	a4,-60(s0)
   13404:	0007c783          	lbu	a5,0(a5)
   13408:	40f007b3          	neg	a5,a5
   1340c:	fc842703          	lw	a4,-56(s0)
   13410:	97ba                	add	a5,a5,a4
   13412:	0007c783          	lbu	a5,0(a5)
   13416:	873e                	mv	a4,a5
   13418:	fcc42783          	lw	a5,-52(s0)
   1341c:	97ba                	add	a5,a5,a4
   1341e:	fcf42623          	sw	a5,-52(s0)
   13422:	fc442783          	lw	a5,-60(s0)
   13426:	00178713          	addi	a4,a5,1
   1342a:	fce42223          	sw	a4,-60(s0)
   1342e:	0007c783          	lbu	a5,0(a5)
   13432:	40f007b3          	neg	a5,a5
   13436:	fc842703          	lw	a4,-56(s0)
   1343a:	97ba                	add	a5,a5,a4
   1343c:	0007c783          	lbu	a5,0(a5)
   13440:	873e                	mv	a4,a5
   13442:	fcc42783          	lw	a5,-52(s0)
   13446:	97ba                	add	a5,a5,a4
   13448:	fcf42623          	sw	a5,-52(s0)
   1344c:	fc442783          	lw	a5,-60(s0)
   13450:	00178713          	addi	a4,a5,1
   13454:	fce42223          	sw	a4,-60(s0)
   13458:	0007c783          	lbu	a5,0(a5)
   1345c:	40f007b3          	neg	a5,a5
   13460:	fc842703          	lw	a4,-56(s0)
   13464:	97ba                	add	a5,a5,a4
   13466:	0007c783          	lbu	a5,0(a5)
   1346a:	873e                	mv	a4,a5
   1346c:	fcc42783          	lw	a5,-52(s0)
   13470:	97ba                	add	a5,a5,a4
   13472:	fcf42623          	sw	a5,-52(s0)
   13476:	fc442783          	lw	a5,-60(s0)
   1347a:	00178713          	addi	a4,a5,1
   1347e:	fce42223          	sw	a4,-60(s0)
   13482:	0007c783          	lbu	a5,0(a5)
   13486:	40f007b3          	neg	a5,a5
   1348a:	fc842703          	lw	a4,-56(s0)
   1348e:	97ba                	add	a5,a5,a4
   13490:	0007c783          	lbu	a5,0(a5)
   13494:	873e                	mv	a4,a5
   13496:	fcc42783          	lw	a5,-52(s0)
   1349a:	97ba                	add	a5,a5,a4
   1349c:	fcf42623          	sw	a5,-52(s0)
   134a0:	fc442783          	lw	a5,-60(s0)
   134a4:	00178713          	addi	a4,a5,1
   134a8:	fce42223          	sw	a4,-60(s0)
   134ac:	0007c783          	lbu	a5,0(a5)
   134b0:	40f007b3          	neg	a5,a5
   134b4:	fc842703          	lw	a4,-56(s0)
   134b8:	97ba                	add	a5,a5,a4
   134ba:	0007c783          	lbu	a5,0(a5)
   134be:	873e                	mv	a4,a5
   134c0:	fcc42783          	lw	a5,-52(s0)
   134c4:	97ba                	add	a5,a5,a4
   134c6:	fcf42623          	sw	a5,-52(s0)
   134ca:	fc442783          	lw	a5,-60(s0)
   134ce:	00178713          	addi	a4,a5,1
   134d2:	fce42223          	sw	a4,-60(s0)
   134d6:	0007c783          	lbu	a5,0(a5)
   134da:	40f007b3          	neg	a5,a5
   134de:	fc842703          	lw	a4,-56(s0)
   134e2:	97ba                	add	a5,a5,a4
   134e4:	0007c783          	lbu	a5,0(a5)
   134e8:	873e                	mv	a4,a5
   134ea:	fcc42783          	lw	a5,-52(s0)
   134ee:	97ba                	add	a5,a5,a4
   134f0:	fcf42623          	sw	a5,-52(s0)
   134f4:	fc442783          	lw	a5,-60(s0)
   134f8:	0007c783          	lbu	a5,0(a5)
   134fc:	40f007b3          	neg	a5,a5
   13500:	fc842703          	lw	a4,-56(s0)
   13504:	97ba                	add	a5,a5,a4
   13506:	0007c783          	lbu	a5,0(a5)
   1350a:	873e                	mv	a4,a5
   1350c:	fcc42783          	lw	a5,-52(s0)
   13510:	97ba                	add	a5,a5,a4
   13512:	fcf42623          	sw	a5,-52(s0)
   13516:	f9842783          	lw	a5,-104(s0)
   1351a:	17ed                	addi	a5,a5,-5
   1351c:	fc442703          	lw	a4,-60(s0)
   13520:	97ba                	add	a5,a5,a4
   13522:	fcf42223          	sw	a5,-60(s0)
   13526:	fc442783          	lw	a5,-60(s0)
   1352a:	00178713          	addi	a4,a5,1
   1352e:	fce42223          	sw	a4,-60(s0)
   13532:	0007c783          	lbu	a5,0(a5)
   13536:	40f007b3          	neg	a5,a5
   1353a:	fc842703          	lw	a4,-56(s0)
   1353e:	97ba                	add	a5,a5,a4
   13540:	0007c783          	lbu	a5,0(a5)
   13544:	873e                	mv	a4,a5
   13546:	fcc42783          	lw	a5,-52(s0)
   1354a:	97ba                	add	a5,a5,a4
   1354c:	fcf42623          	sw	a5,-52(s0)
   13550:	fc442783          	lw	a5,-60(s0)
   13554:	00178713          	addi	a4,a5,1
   13558:	fce42223          	sw	a4,-60(s0)
   1355c:	0007c783          	lbu	a5,0(a5)
   13560:	40f007b3          	neg	a5,a5
   13564:	fc842703          	lw	a4,-56(s0)
   13568:	97ba                	add	a5,a5,a4
   1356a:	0007c783          	lbu	a5,0(a5)
   1356e:	873e                	mv	a4,a5
   13570:	fcc42783          	lw	a5,-52(s0)
   13574:	97ba                	add	a5,a5,a4
   13576:	fcf42623          	sw	a5,-52(s0)
   1357a:	fc442783          	lw	a5,-60(s0)
   1357e:	00178713          	addi	a4,a5,1
   13582:	fce42223          	sw	a4,-60(s0)
   13586:	0007c783          	lbu	a5,0(a5)
   1358a:	40f007b3          	neg	a5,a5
   1358e:	fc842703          	lw	a4,-56(s0)
   13592:	97ba                	add	a5,a5,a4
   13594:	0007c783          	lbu	a5,0(a5)
   13598:	873e                	mv	a4,a5
   1359a:	fcc42783          	lw	a5,-52(s0)
   1359e:	97ba                	add	a5,a5,a4
   135a0:	fcf42623          	sw	a5,-52(s0)
   135a4:	fc442783          	lw	a5,-60(s0)
   135a8:	00178713          	addi	a4,a5,1
   135ac:	fce42223          	sw	a4,-60(s0)
   135b0:	0007c783          	lbu	a5,0(a5)
   135b4:	40f007b3          	neg	a5,a5
   135b8:	fc842703          	lw	a4,-56(s0)
   135bc:	97ba                	add	a5,a5,a4
   135be:	0007c783          	lbu	a5,0(a5)
   135c2:	873e                	mv	a4,a5
   135c4:	fcc42783          	lw	a5,-52(s0)
   135c8:	97ba                	add	a5,a5,a4
   135ca:	fcf42623          	sw	a5,-52(s0)
   135ce:	fc442783          	lw	a5,-60(s0)
   135d2:	0007c783          	lbu	a5,0(a5)
   135d6:	40f007b3          	neg	a5,a5
   135da:	fc842703          	lw	a4,-56(s0)
   135de:	97ba                	add	a5,a5,a4
   135e0:	0007c783          	lbu	a5,0(a5)
   135e4:	873e                	mv	a4,a5
   135e6:	fcc42783          	lw	a5,-52(s0)
   135ea:	97ba                	add	a5,a5,a4
   135ec:	fcf42623          	sw	a5,-52(s0)
   135f0:	f9842783          	lw	a5,-104(s0)
   135f4:	17f5                	addi	a5,a5,-3
   135f6:	fc442703          	lw	a4,-60(s0)
   135fa:	97ba                	add	a5,a5,a4
   135fc:	fcf42223          	sw	a5,-60(s0)
   13600:	fc442783          	lw	a5,-60(s0)
   13604:	00178713          	addi	a4,a5,1
   13608:	fce42223          	sw	a4,-60(s0)
   1360c:	0007c783          	lbu	a5,0(a5)
   13610:	40f007b3          	neg	a5,a5
   13614:	fc842703          	lw	a4,-56(s0)
   13618:	97ba                	add	a5,a5,a4
   1361a:	0007c783          	lbu	a5,0(a5)
   1361e:	873e                	mv	a4,a5
   13620:	fcc42783          	lw	a5,-52(s0)
   13624:	97ba                	add	a5,a5,a4
   13626:	fcf42623          	sw	a5,-52(s0)
   1362a:	fc442783          	lw	a5,-60(s0)
   1362e:	00178713          	addi	a4,a5,1
   13632:	fce42223          	sw	a4,-60(s0)
   13636:	0007c783          	lbu	a5,0(a5)
   1363a:	40f007b3          	neg	a5,a5
   1363e:	fc842703          	lw	a4,-56(s0)
   13642:	97ba                	add	a5,a5,a4
   13644:	0007c783          	lbu	a5,0(a5)
   13648:	873e                	mv	a4,a5
   1364a:	fcc42783          	lw	a5,-52(s0)
   1364e:	97ba                	add	a5,a5,a4
   13650:	fcf42623          	sw	a5,-52(s0)
   13654:	fc442783          	lw	a5,-60(s0)
   13658:	0007c783          	lbu	a5,0(a5)
   1365c:	40f007b3          	neg	a5,a5
   13660:	fc842703          	lw	a4,-56(s0)
   13664:	97ba                	add	a5,a5,a4
   13666:	0007c783          	lbu	a5,0(a5)
   1366a:	873e                	mv	a4,a5
   1366c:	fcc42783          	lw	a5,-52(s0)
   13670:	97ba                	add	a5,a5,a4
   13672:	fcf42623          	sw	a5,-52(s0)
   13676:	fcc42703          	lw	a4,-52(s0)
   1367a:	f9c42783          	lw	a5,-100(s0)
   1367e:	02e7c663          	blt	a5,a4,136aa <susan_edges+0x6ea>
   13682:	fe442703          	lw	a4,-28(s0)
   13686:	f9842783          	lw	a5,-104(s0)
   1368a:	02f70733          	mul	a4,a4,a5
   1368e:	fe042783          	lw	a5,-32(s0)
   13692:	97ba                	add	a5,a5,a4
   13694:	078a                	slli	a5,a5,0x2
   13696:	fa842703          	lw	a4,-88(s0)
   1369a:	97ba                	add	a5,a5,a4
   1369c:	f9c42683          	lw	a3,-100(s0)
   136a0:	fcc42703          	lw	a4,-52(s0)
   136a4:	40e68733          	sub	a4,a3,a4
   136a8:	c398                	sw	a4,0(a5)
   136aa:	fe042783          	lw	a5,-32(s0)
   136ae:	0785                	addi	a5,a5,1
   136b0:	fef42023          	sw	a5,-32(s0)
   136b4:	f9842783          	lw	a5,-104(s0)
   136b8:	17f5                	addi	a5,a5,-3
   136ba:	fe042703          	lw	a4,-32(s0)
   136be:	94f748e3          	blt	a4,a5,1300e <susan_edges+0x4e>
   136c2:	fe442783          	lw	a5,-28(s0)
   136c6:	0785                	addi	a5,a5,1
   136c8:	fef42223          	sw	a5,-28(s0)
   136cc:	f9442783          	lw	a5,-108(s0)
   136d0:	17f5                	addi	a5,a5,-3
   136d2:	fe442703          	lw	a4,-28(s0)
   136d6:	92f748e3          	blt	a4,a5,13006 <susan_edges+0x46>
   136da:	4791                	li	a5,4
   136dc:	fef42223          	sw	a5,-28(s0)
   136e0:	7f00106f          	j	14ed0 <susan_edges+0x1f10>
   136e4:	4791                	li	a5,4
   136e6:	fef42023          	sw	a5,-32(s0)
   136ea:	7ca0106f          	j	14eb4 <susan_edges+0x1ef4>
   136ee:	fe442703          	lw	a4,-28(s0)
   136f2:	f9842783          	lw	a5,-104(s0)
   136f6:	02f70733          	mul	a4,a4,a5
   136fa:	fe042783          	lw	a5,-32(s0)
   136fe:	97ba                	add	a5,a5,a4
   13700:	078a                	slli	a5,a5,0x2
   13702:	fa842703          	lw	a4,-88(s0)
   13706:	97ba                	add	a5,a5,a4
   13708:	439c                	lw	a5,0(a5)
   1370a:	00f04463          	bgtz	a5,13712 <susan_edges+0x752>
   1370e:	79c0106f          	j	14eaa <susan_edges+0x1eea>
   13712:	fe442703          	lw	a4,-28(s0)
   13716:	f9842783          	lw	a5,-104(s0)
   1371a:	02f70733          	mul	a4,a4,a5
   1371e:	fe042783          	lw	a5,-32(s0)
   13722:	97ba                	add	a5,a5,a4
   13724:	078a                	slli	a5,a5,0x2
   13726:	fa842703          	lw	a4,-88(s0)
   1372a:	97ba                	add	a5,a5,a4
   1372c:	439c                	lw	a5,0(a5)
   1372e:	fcf42823          	sw	a5,-48(s0)
   13732:	f9c42703          	lw	a4,-100(s0)
   13736:	fd042783          	lw	a5,-48(s0)
   1373a:	40f707b3          	sub	a5,a4,a5
   1373e:	fcf42623          	sw	a5,-52(s0)
   13742:	fe442703          	lw	a4,-28(s0)
   13746:	f9842783          	lw	a5,-104(s0)
   1374a:	02f70733          	mul	a4,a4,a5
   1374e:	fe042783          	lw	a5,-32(s0)
   13752:	97ba                	add	a5,a5,a4
   13754:	873e                	mv	a4,a5
   13756:	fac42783          	lw	a5,-84(s0)
   1375a:	97ba                	add	a5,a5,a4
   1375c:	0007c783          	lbu	a5,0(a5)
   13760:	873e                	mv	a4,a5
   13762:	fa042783          	lw	a5,-96(s0)
   13766:	97ba                	add	a5,a5,a4
   13768:	fcf42423          	sw	a5,-56(s0)
   1376c:	fcc42703          	lw	a4,-52(s0)
   13770:	25800793          	li	a5,600
   13774:	32e7d0e3          	bge	a5,a4,14294 <susan_edges+0x12d4>
   13778:	fe442783          	lw	a5,-28(s0)
   1377c:	ffd78713          	addi	a4,a5,-3
   13780:	f9842783          	lw	a5,-104(s0)
   13784:	02f707b3          	mul	a5,a4,a5
   13788:	873e                	mv	a4,a5
   1378a:	fe042783          	lw	a5,-32(s0)
   1378e:	97ba                	add	a5,a5,a4
   13790:	17fd                	addi	a5,a5,-1
   13792:	fac42703          	lw	a4,-84(s0)
   13796:	97ba                	add	a5,a5,a4
   13798:	fcf42223          	sw	a5,-60(s0)
   1379c:	fc042023          	sw	zero,-64(s0)
   137a0:	fa042e23          	sw	zero,-68(s0)
   137a4:	fc442783          	lw	a5,-60(s0)
   137a8:	00178713          	addi	a4,a5,1
   137ac:	fce42223          	sw	a4,-60(s0)
   137b0:	0007c783          	lbu	a5,0(a5)
   137b4:	40f007b3          	neg	a5,a5
   137b8:	fc842703          	lw	a4,-56(s0)
   137bc:	97ba                	add	a5,a5,a4
   137be:	0007c783          	lbu	a5,0(a5)
   137c2:	faf40da3          	sb	a5,-69(s0)
   137c6:	fbb44783          	lbu	a5,-69(s0)
   137ca:	fc042703          	lw	a4,-64(s0)
   137ce:	40f707b3          	sub	a5,a4,a5
   137d2:	fcf42023          	sw	a5,-64(s0)
   137d6:	fbb44783          	lbu	a5,-69(s0)
   137da:	873e                	mv	a4,a5
   137dc:	078a                	slli	a5,a5,0x2
   137de:	40f707b3          	sub	a5,a4,a5
   137e2:	fbc42703          	lw	a4,-68(s0)
   137e6:	97ba                	add	a5,a5,a4
   137e8:	faf42e23          	sw	a5,-68(s0)
   137ec:	fc442783          	lw	a5,-60(s0)
   137f0:	00178713          	addi	a4,a5,1
   137f4:	fce42223          	sw	a4,-60(s0)
   137f8:	0007c783          	lbu	a5,0(a5)
   137fc:	40f007b3          	neg	a5,a5
   13800:	fc842703          	lw	a4,-56(s0)
   13804:	97ba                	add	a5,a5,a4
   13806:	0007c783          	lbu	a5,0(a5)
   1380a:	faf40da3          	sb	a5,-69(s0)
   1380e:	fbb44783          	lbu	a5,-69(s0)
   13812:	873e                	mv	a4,a5
   13814:	078a                	slli	a5,a5,0x2
   13816:	40f707b3          	sub	a5,a4,a5
   1381a:	fbc42703          	lw	a4,-68(s0)
   1381e:	97ba                	add	a5,a5,a4
   13820:	faf42e23          	sw	a5,-68(s0)
   13824:	fc442783          	lw	a5,-60(s0)
   13828:	0007c783          	lbu	a5,0(a5)
   1382c:	40f007b3          	neg	a5,a5
   13830:	fc842703          	lw	a4,-56(s0)
   13834:	97ba                	add	a5,a5,a4
   13836:	0007c783          	lbu	a5,0(a5)
   1383a:	faf40da3          	sb	a5,-69(s0)
   1383e:	fbb44783          	lbu	a5,-69(s0)
   13842:	fc042703          	lw	a4,-64(s0)
   13846:	97ba                	add	a5,a5,a4
   13848:	fcf42023          	sw	a5,-64(s0)
   1384c:	fbb44783          	lbu	a5,-69(s0)
   13850:	873e                	mv	a4,a5
   13852:	078a                	slli	a5,a5,0x2
   13854:	40f707b3          	sub	a5,a4,a5
   13858:	fbc42703          	lw	a4,-68(s0)
   1385c:	97ba                	add	a5,a5,a4
   1385e:	faf42e23          	sw	a5,-68(s0)
   13862:	f9842783          	lw	a5,-104(s0)
   13866:	17f5                	addi	a5,a5,-3
   13868:	fc442703          	lw	a4,-60(s0)
   1386c:	97ba                	add	a5,a5,a4
   1386e:	fcf42223          	sw	a5,-60(s0)
   13872:	fc442783          	lw	a5,-60(s0)
   13876:	00178713          	addi	a4,a5,1
   1387a:	fce42223          	sw	a4,-60(s0)
   1387e:	0007c783          	lbu	a5,0(a5)
   13882:	40f007b3          	neg	a5,a5
   13886:	fc842703          	lw	a4,-56(s0)
   1388a:	97ba                	add	a5,a5,a4
   1388c:	0007c783          	lbu	a5,0(a5)
   13890:	faf40da3          	sb	a5,-69(s0)
   13894:	fbb44783          	lbu	a5,-69(s0)
   13898:	0786                	slli	a5,a5,0x1
   1389a:	fc042703          	lw	a4,-64(s0)
   1389e:	40f707b3          	sub	a5,a4,a5
   138a2:	fcf42023          	sw	a5,-64(s0)
   138a6:	fbb44783          	lbu	a5,-69(s0)
   138aa:	0786                	slli	a5,a5,0x1
   138ac:	fbc42703          	lw	a4,-68(s0)
   138b0:	40f707b3          	sub	a5,a4,a5
   138b4:	faf42e23          	sw	a5,-68(s0)
   138b8:	fc442783          	lw	a5,-60(s0)
   138bc:	00178713          	addi	a4,a5,1
   138c0:	fce42223          	sw	a4,-60(s0)
   138c4:	0007c783          	lbu	a5,0(a5)
   138c8:	40f007b3          	neg	a5,a5
   138cc:	fc842703          	lw	a4,-56(s0)
   138d0:	97ba                	add	a5,a5,a4
   138d2:	0007c783          	lbu	a5,0(a5)
   138d6:	faf40da3          	sb	a5,-69(s0)
   138da:	fbb44783          	lbu	a5,-69(s0)
   138de:	fc042703          	lw	a4,-64(s0)
   138e2:	40f707b3          	sub	a5,a4,a5
   138e6:	fcf42023          	sw	a5,-64(s0)
   138ea:	fbb44783          	lbu	a5,-69(s0)
   138ee:	0786                	slli	a5,a5,0x1
   138f0:	fbc42703          	lw	a4,-68(s0)
   138f4:	40f707b3          	sub	a5,a4,a5
   138f8:	faf42e23          	sw	a5,-68(s0)
   138fc:	fc442783          	lw	a5,-60(s0)
   13900:	00178713          	addi	a4,a5,1
   13904:	fce42223          	sw	a4,-60(s0)
   13908:	0007c783          	lbu	a5,0(a5)
   1390c:	40f007b3          	neg	a5,a5
   13910:	fc842703          	lw	a4,-56(s0)
   13914:	97ba                	add	a5,a5,a4
   13916:	0007c783          	lbu	a5,0(a5)
   1391a:	faf40da3          	sb	a5,-69(s0)
   1391e:	fbb44783          	lbu	a5,-69(s0)
   13922:	0786                	slli	a5,a5,0x1
   13924:	fbc42703          	lw	a4,-68(s0)
   13928:	40f707b3          	sub	a5,a4,a5
   1392c:	faf42e23          	sw	a5,-68(s0)
   13930:	fc442783          	lw	a5,-60(s0)
   13934:	00178713          	addi	a4,a5,1
   13938:	fce42223          	sw	a4,-60(s0)
   1393c:	0007c783          	lbu	a5,0(a5)
   13940:	40f007b3          	neg	a5,a5
   13944:	fc842703          	lw	a4,-56(s0)
   13948:	97ba                	add	a5,a5,a4
   1394a:	0007c783          	lbu	a5,0(a5)
   1394e:	faf40da3          	sb	a5,-69(s0)
   13952:	fbb44783          	lbu	a5,-69(s0)
   13956:	fc042703          	lw	a4,-64(s0)
   1395a:	97ba                	add	a5,a5,a4
   1395c:	fcf42023          	sw	a5,-64(s0)
   13960:	fbb44783          	lbu	a5,-69(s0)
   13964:	0786                	slli	a5,a5,0x1
   13966:	fbc42703          	lw	a4,-68(s0)
   1396a:	40f707b3          	sub	a5,a4,a5
   1396e:	faf42e23          	sw	a5,-68(s0)
   13972:	fc442783          	lw	a5,-60(s0)
   13976:	0007c783          	lbu	a5,0(a5)
   1397a:	40f007b3          	neg	a5,a5
   1397e:	fc842703          	lw	a4,-56(s0)
   13982:	97ba                	add	a5,a5,a4
   13984:	0007c783          	lbu	a5,0(a5)
   13988:	faf40da3          	sb	a5,-69(s0)
   1398c:	fbb44783          	lbu	a5,-69(s0)
   13990:	0786                	slli	a5,a5,0x1
   13992:	fc042703          	lw	a4,-64(s0)
   13996:	97ba                	add	a5,a5,a4
   13998:	fcf42023          	sw	a5,-64(s0)
   1399c:	fbb44783          	lbu	a5,-69(s0)
   139a0:	0786                	slli	a5,a5,0x1
   139a2:	fbc42703          	lw	a4,-68(s0)
   139a6:	40f707b3          	sub	a5,a4,a5
   139aa:	faf42e23          	sw	a5,-68(s0)
   139ae:	f9842783          	lw	a5,-104(s0)
   139b2:	17ed                	addi	a5,a5,-5
   139b4:	fc442703          	lw	a4,-60(s0)
   139b8:	97ba                	add	a5,a5,a4
   139ba:	fcf42223          	sw	a5,-60(s0)
   139be:	fc442783          	lw	a5,-60(s0)
   139c2:	00178713          	addi	a4,a5,1
   139c6:	fce42223          	sw	a4,-60(s0)
   139ca:	0007c783          	lbu	a5,0(a5)
   139ce:	40f007b3          	neg	a5,a5
   139d2:	fc842703          	lw	a4,-56(s0)
   139d6:	97ba                	add	a5,a5,a4
   139d8:	0007c783          	lbu	a5,0(a5)
   139dc:	faf40da3          	sb	a5,-69(s0)
   139e0:	fbb44783          	lbu	a5,-69(s0)
   139e4:	873e                	mv	a4,a5
   139e6:	078a                	slli	a5,a5,0x2
   139e8:	40f707b3          	sub	a5,a4,a5
   139ec:	fc042703          	lw	a4,-64(s0)
   139f0:	97ba                	add	a5,a5,a4
   139f2:	fcf42023          	sw	a5,-64(s0)
   139f6:	fbb44783          	lbu	a5,-69(s0)
   139fa:	fbc42703          	lw	a4,-68(s0)
   139fe:	40f707b3          	sub	a5,a4,a5
   13a02:	faf42e23          	sw	a5,-68(s0)
   13a06:	fc442783          	lw	a5,-60(s0)
   13a0a:	00178713          	addi	a4,a5,1
   13a0e:	fce42223          	sw	a4,-60(s0)
   13a12:	0007c783          	lbu	a5,0(a5)
   13a16:	40f007b3          	neg	a5,a5
   13a1a:	fc842703          	lw	a4,-56(s0)
   13a1e:	97ba                	add	a5,a5,a4
   13a20:	0007c783          	lbu	a5,0(a5)
   13a24:	faf40da3          	sb	a5,-69(s0)
   13a28:	fbb44783          	lbu	a5,-69(s0)
   13a2c:	0786                	slli	a5,a5,0x1
   13a2e:	fc042703          	lw	a4,-64(s0)
   13a32:	40f707b3          	sub	a5,a4,a5
   13a36:	fcf42023          	sw	a5,-64(s0)
   13a3a:	fbb44783          	lbu	a5,-69(s0)
   13a3e:	fbc42703          	lw	a4,-68(s0)
   13a42:	40f707b3          	sub	a5,a4,a5
   13a46:	faf42e23          	sw	a5,-68(s0)
   13a4a:	fc442783          	lw	a5,-60(s0)
   13a4e:	00178713          	addi	a4,a5,1
   13a52:	fce42223          	sw	a4,-60(s0)
   13a56:	0007c783          	lbu	a5,0(a5)
   13a5a:	40f007b3          	neg	a5,a5
   13a5e:	fc842703          	lw	a4,-56(s0)
   13a62:	97ba                	add	a5,a5,a4
   13a64:	0007c783          	lbu	a5,0(a5)
   13a68:	faf40da3          	sb	a5,-69(s0)
   13a6c:	fbb44783          	lbu	a5,-69(s0)
   13a70:	fc042703          	lw	a4,-64(s0)
   13a74:	40f707b3          	sub	a5,a4,a5
   13a78:	fcf42023          	sw	a5,-64(s0)
   13a7c:	fbb44783          	lbu	a5,-69(s0)
   13a80:	fbc42703          	lw	a4,-68(s0)
   13a84:	40f707b3          	sub	a5,a4,a5
   13a88:	faf42e23          	sw	a5,-68(s0)
   13a8c:	fc442783          	lw	a5,-60(s0)
   13a90:	00178713          	addi	a4,a5,1
   13a94:	fce42223          	sw	a4,-60(s0)
   13a98:	0007c783          	lbu	a5,0(a5)
   13a9c:	40f007b3          	neg	a5,a5
   13aa0:	fc842703          	lw	a4,-56(s0)
   13aa4:	97ba                	add	a5,a5,a4
   13aa6:	0007c783          	lbu	a5,0(a5)
   13aaa:	faf40da3          	sb	a5,-69(s0)
   13aae:	fbb44783          	lbu	a5,-69(s0)
   13ab2:	fbc42703          	lw	a4,-68(s0)
   13ab6:	40f707b3          	sub	a5,a4,a5
   13aba:	faf42e23          	sw	a5,-68(s0)
   13abe:	fc442783          	lw	a5,-60(s0)
   13ac2:	00178713          	addi	a4,a5,1
   13ac6:	fce42223          	sw	a4,-60(s0)
   13aca:	0007c783          	lbu	a5,0(a5)
   13ace:	40f007b3          	neg	a5,a5
   13ad2:	fc842703          	lw	a4,-56(s0)
   13ad6:	97ba                	add	a5,a5,a4
   13ad8:	0007c783          	lbu	a5,0(a5)
   13adc:	faf40da3          	sb	a5,-69(s0)
   13ae0:	fbb44783          	lbu	a5,-69(s0)
   13ae4:	fc042703          	lw	a4,-64(s0)
   13ae8:	97ba                	add	a5,a5,a4
   13aea:	fcf42023          	sw	a5,-64(s0)
   13aee:	fbb44783          	lbu	a5,-69(s0)
   13af2:	fbc42703          	lw	a4,-68(s0)
   13af6:	40f707b3          	sub	a5,a4,a5
   13afa:	faf42e23          	sw	a5,-68(s0)
   13afe:	fc442783          	lw	a5,-60(s0)
   13b02:	00178713          	addi	a4,a5,1
   13b06:	fce42223          	sw	a4,-60(s0)
   13b0a:	0007c783          	lbu	a5,0(a5)
   13b0e:	40f007b3          	neg	a5,a5
   13b12:	fc842703          	lw	a4,-56(s0)
   13b16:	97ba                	add	a5,a5,a4
   13b18:	0007c783          	lbu	a5,0(a5)
   13b1c:	faf40da3          	sb	a5,-69(s0)
   13b20:	fbb44783          	lbu	a5,-69(s0)
   13b24:	0786                	slli	a5,a5,0x1
   13b26:	fc042703          	lw	a4,-64(s0)
   13b2a:	97ba                	add	a5,a5,a4
   13b2c:	fcf42023          	sw	a5,-64(s0)
   13b30:	fbb44783          	lbu	a5,-69(s0)
   13b34:	fbc42703          	lw	a4,-68(s0)
   13b38:	40f707b3          	sub	a5,a4,a5
   13b3c:	faf42e23          	sw	a5,-68(s0)
   13b40:	fc442783          	lw	a5,-60(s0)
   13b44:	0007c783          	lbu	a5,0(a5)
   13b48:	40f007b3          	neg	a5,a5
   13b4c:	fc842703          	lw	a4,-56(s0)
   13b50:	97ba                	add	a5,a5,a4
   13b52:	0007c783          	lbu	a5,0(a5)
   13b56:	faf40da3          	sb	a5,-69(s0)
   13b5a:	fbb44703          	lbu	a4,-69(s0)
   13b5e:	87ba                	mv	a5,a4
   13b60:	0786                	slli	a5,a5,0x1
   13b62:	97ba                	add	a5,a5,a4
   13b64:	fc042703          	lw	a4,-64(s0)
   13b68:	97ba                	add	a5,a5,a4
   13b6a:	fcf42023          	sw	a5,-64(s0)
   13b6e:	fbb44783          	lbu	a5,-69(s0)
   13b72:	fbc42703          	lw	a4,-68(s0)
   13b76:	40f707b3          	sub	a5,a4,a5
   13b7a:	faf42e23          	sw	a5,-68(s0)
   13b7e:	f9842783          	lw	a5,-104(s0)
   13b82:	17e9                	addi	a5,a5,-6
   13b84:	fc442703          	lw	a4,-60(s0)
   13b88:	97ba                	add	a5,a5,a4
   13b8a:	fcf42223          	sw	a5,-60(s0)
   13b8e:	fc442783          	lw	a5,-60(s0)
   13b92:	00178713          	addi	a4,a5,1
   13b96:	fce42223          	sw	a4,-60(s0)
   13b9a:	0007c783          	lbu	a5,0(a5)
   13b9e:	40f007b3          	neg	a5,a5
   13ba2:	fc842703          	lw	a4,-56(s0)
   13ba6:	97ba                	add	a5,a5,a4
   13ba8:	0007c783          	lbu	a5,0(a5)
   13bac:	faf40da3          	sb	a5,-69(s0)
   13bb0:	fbb44783          	lbu	a5,-69(s0)
   13bb4:	873e                	mv	a4,a5
   13bb6:	078a                	slli	a5,a5,0x2
   13bb8:	40f707b3          	sub	a5,a4,a5
   13bbc:	fc042703          	lw	a4,-64(s0)
   13bc0:	97ba                	add	a5,a5,a4
   13bc2:	fcf42023          	sw	a5,-64(s0)
   13bc6:	fc442783          	lw	a5,-60(s0)
   13bca:	00178713          	addi	a4,a5,1
   13bce:	fce42223          	sw	a4,-60(s0)
   13bd2:	0007c783          	lbu	a5,0(a5)
   13bd6:	40f007b3          	neg	a5,a5
   13bda:	fc842703          	lw	a4,-56(s0)
   13bde:	97ba                	add	a5,a5,a4
   13be0:	0007c783          	lbu	a5,0(a5)
   13be4:	faf40da3          	sb	a5,-69(s0)
   13be8:	fbb44783          	lbu	a5,-69(s0)
   13bec:	0786                	slli	a5,a5,0x1
   13bee:	fc042703          	lw	a4,-64(s0)
   13bf2:	40f707b3          	sub	a5,a4,a5
   13bf6:	fcf42023          	sw	a5,-64(s0)
   13bfa:	fc442783          	lw	a5,-60(s0)
   13bfe:	0007c783          	lbu	a5,0(a5)
   13c02:	40f007b3          	neg	a5,a5
   13c06:	fc842703          	lw	a4,-56(s0)
   13c0a:	97ba                	add	a5,a5,a4
   13c0c:	0007c783          	lbu	a5,0(a5)
   13c10:	faf40da3          	sb	a5,-69(s0)
   13c14:	fbb44783          	lbu	a5,-69(s0)
   13c18:	fc042703          	lw	a4,-64(s0)
   13c1c:	40f707b3          	sub	a5,a4,a5
   13c20:	fcf42023          	sw	a5,-64(s0)
   13c24:	fc442783          	lw	a5,-60(s0)
   13c28:	0789                	addi	a5,a5,2
   13c2a:	fcf42223          	sw	a5,-60(s0)
   13c2e:	fc442783          	lw	a5,-60(s0)
   13c32:	00178713          	addi	a4,a5,1
   13c36:	fce42223          	sw	a4,-60(s0)
   13c3a:	0007c783          	lbu	a5,0(a5)
   13c3e:	40f007b3          	neg	a5,a5
   13c42:	fc842703          	lw	a4,-56(s0)
   13c46:	97ba                	add	a5,a5,a4
   13c48:	0007c783          	lbu	a5,0(a5)
   13c4c:	faf40da3          	sb	a5,-69(s0)
   13c50:	fbb44783          	lbu	a5,-69(s0)
   13c54:	fc042703          	lw	a4,-64(s0)
   13c58:	97ba                	add	a5,a5,a4
   13c5a:	fcf42023          	sw	a5,-64(s0)
   13c5e:	fc442783          	lw	a5,-60(s0)
   13c62:	00178713          	addi	a4,a5,1
   13c66:	fce42223          	sw	a4,-60(s0)
   13c6a:	0007c783          	lbu	a5,0(a5)
   13c6e:	40f007b3          	neg	a5,a5
   13c72:	fc842703          	lw	a4,-56(s0)
   13c76:	97ba                	add	a5,a5,a4
   13c78:	0007c783          	lbu	a5,0(a5)
   13c7c:	faf40da3          	sb	a5,-69(s0)
   13c80:	fbb44783          	lbu	a5,-69(s0)
   13c84:	0786                	slli	a5,a5,0x1
   13c86:	fc042703          	lw	a4,-64(s0)
   13c8a:	97ba                	add	a5,a5,a4
   13c8c:	fcf42023          	sw	a5,-64(s0)
   13c90:	fc442783          	lw	a5,-60(s0)
   13c94:	0007c783          	lbu	a5,0(a5)
   13c98:	40f007b3          	neg	a5,a5
   13c9c:	fc842703          	lw	a4,-56(s0)
   13ca0:	97ba                	add	a5,a5,a4
   13ca2:	0007c783          	lbu	a5,0(a5)
   13ca6:	faf40da3          	sb	a5,-69(s0)
   13caa:	fbb44703          	lbu	a4,-69(s0)
   13cae:	87ba                	mv	a5,a4
   13cb0:	0786                	slli	a5,a5,0x1
   13cb2:	97ba                	add	a5,a5,a4
   13cb4:	fc042703          	lw	a4,-64(s0)
   13cb8:	97ba                	add	a5,a5,a4
   13cba:	fcf42023          	sw	a5,-64(s0)
   13cbe:	f9842783          	lw	a5,-104(s0)
   13cc2:	17e9                	addi	a5,a5,-6
   13cc4:	fc442703          	lw	a4,-60(s0)
   13cc8:	97ba                	add	a5,a5,a4
   13cca:	fcf42223          	sw	a5,-60(s0)
   13cce:	fc442783          	lw	a5,-60(s0)
   13cd2:	00178713          	addi	a4,a5,1
   13cd6:	fce42223          	sw	a4,-60(s0)
   13cda:	0007c783          	lbu	a5,0(a5)
   13cde:	40f007b3          	neg	a5,a5
   13ce2:	fc842703          	lw	a4,-56(s0)
   13ce6:	97ba                	add	a5,a5,a4
   13ce8:	0007c783          	lbu	a5,0(a5)
   13cec:	faf40da3          	sb	a5,-69(s0)
   13cf0:	fbb44783          	lbu	a5,-69(s0)
   13cf4:	873e                	mv	a4,a5
   13cf6:	078a                	slli	a5,a5,0x2
   13cf8:	40f707b3          	sub	a5,a4,a5
   13cfc:	fc042703          	lw	a4,-64(s0)
   13d00:	97ba                	add	a5,a5,a4
   13d02:	fcf42023          	sw	a5,-64(s0)
   13d06:	fbb44783          	lbu	a5,-69(s0)
   13d0a:	fbc42703          	lw	a4,-68(s0)
   13d0e:	97ba                	add	a5,a5,a4
   13d10:	faf42e23          	sw	a5,-68(s0)
   13d14:	fc442783          	lw	a5,-60(s0)
   13d18:	00178713          	addi	a4,a5,1
   13d1c:	fce42223          	sw	a4,-60(s0)
   13d20:	0007c783          	lbu	a5,0(a5)
   13d24:	40f007b3          	neg	a5,a5
   13d28:	fc842703          	lw	a4,-56(s0)
   13d2c:	97ba                	add	a5,a5,a4
   13d2e:	0007c783          	lbu	a5,0(a5)
   13d32:	faf40da3          	sb	a5,-69(s0)
   13d36:	fbb44783          	lbu	a5,-69(s0)
   13d3a:	0786                	slli	a5,a5,0x1
   13d3c:	fc042703          	lw	a4,-64(s0)
   13d40:	40f707b3          	sub	a5,a4,a5
   13d44:	fcf42023          	sw	a5,-64(s0)
   13d48:	fbb44783          	lbu	a5,-69(s0)
   13d4c:	fbc42703          	lw	a4,-68(s0)
   13d50:	97ba                	add	a5,a5,a4
   13d52:	faf42e23          	sw	a5,-68(s0)
   13d56:	fc442783          	lw	a5,-60(s0)
   13d5a:	00178713          	addi	a4,a5,1
   13d5e:	fce42223          	sw	a4,-60(s0)
   13d62:	0007c783          	lbu	a5,0(a5)
   13d66:	40f007b3          	neg	a5,a5
   13d6a:	fc842703          	lw	a4,-56(s0)
   13d6e:	97ba                	add	a5,a5,a4
   13d70:	0007c783          	lbu	a5,0(a5)
   13d74:	faf40da3          	sb	a5,-69(s0)
   13d78:	fbb44783          	lbu	a5,-69(s0)
   13d7c:	fc042703          	lw	a4,-64(s0)
   13d80:	40f707b3          	sub	a5,a4,a5
   13d84:	fcf42023          	sw	a5,-64(s0)
   13d88:	fbb44783          	lbu	a5,-69(s0)
   13d8c:	fbc42703          	lw	a4,-68(s0)
   13d90:	97ba                	add	a5,a5,a4
   13d92:	faf42e23          	sw	a5,-68(s0)
   13d96:	fc442783          	lw	a5,-60(s0)
   13d9a:	00178713          	addi	a4,a5,1
   13d9e:	fce42223          	sw	a4,-60(s0)
   13da2:	0007c783          	lbu	a5,0(a5)
   13da6:	40f007b3          	neg	a5,a5
   13daa:	fc842703          	lw	a4,-56(s0)
   13dae:	97ba                	add	a5,a5,a4
   13db0:	0007c783          	lbu	a5,0(a5)
   13db4:	faf40da3          	sb	a5,-69(s0)
   13db8:	fbb44783          	lbu	a5,-69(s0)
   13dbc:	fbc42703          	lw	a4,-68(s0)
   13dc0:	97ba                	add	a5,a5,a4
   13dc2:	faf42e23          	sw	a5,-68(s0)
   13dc6:	fc442783          	lw	a5,-60(s0)
   13dca:	00178713          	addi	a4,a5,1
   13dce:	fce42223          	sw	a4,-60(s0)
   13dd2:	0007c783          	lbu	a5,0(a5)
   13dd6:	40f007b3          	neg	a5,a5
   13dda:	fc842703          	lw	a4,-56(s0)
   13dde:	97ba                	add	a5,a5,a4
   13de0:	0007c783          	lbu	a5,0(a5)
   13de4:	faf40da3          	sb	a5,-69(s0)
   13de8:	fbb44783          	lbu	a5,-69(s0)
   13dec:	fc042703          	lw	a4,-64(s0)
   13df0:	97ba                	add	a5,a5,a4
   13df2:	fcf42023          	sw	a5,-64(s0)
   13df6:	fbb44783          	lbu	a5,-69(s0)
   13dfa:	fbc42703          	lw	a4,-68(s0)
   13dfe:	97ba                	add	a5,a5,a4
   13e00:	faf42e23          	sw	a5,-68(s0)
   13e04:	fc442783          	lw	a5,-60(s0)
   13e08:	00178713          	addi	a4,a5,1
   13e0c:	fce42223          	sw	a4,-60(s0)
   13e10:	0007c783          	lbu	a5,0(a5)
   13e14:	40f007b3          	neg	a5,a5
   13e18:	fc842703          	lw	a4,-56(s0)
   13e1c:	97ba                	add	a5,a5,a4
   13e1e:	0007c783          	lbu	a5,0(a5)
   13e22:	faf40da3          	sb	a5,-69(s0)
   13e26:	fbb44783          	lbu	a5,-69(s0)
   13e2a:	0786                	slli	a5,a5,0x1
   13e2c:	fc042703          	lw	a4,-64(s0)
   13e30:	97ba                	add	a5,a5,a4
   13e32:	fcf42023          	sw	a5,-64(s0)
   13e36:	fbb44783          	lbu	a5,-69(s0)
   13e3a:	fbc42703          	lw	a4,-68(s0)
   13e3e:	97ba                	add	a5,a5,a4
   13e40:	faf42e23          	sw	a5,-68(s0)
   13e44:	fc442783          	lw	a5,-60(s0)
   13e48:	0007c783          	lbu	a5,0(a5)
   13e4c:	40f007b3          	neg	a5,a5
   13e50:	fc842703          	lw	a4,-56(s0)
   13e54:	97ba                	add	a5,a5,a4
   13e56:	0007c783          	lbu	a5,0(a5)
   13e5a:	faf40da3          	sb	a5,-69(s0)
   13e5e:	fbb44703          	lbu	a4,-69(s0)
   13e62:	87ba                	mv	a5,a4
   13e64:	0786                	slli	a5,a5,0x1
   13e66:	97ba                	add	a5,a5,a4
   13e68:	fc042703          	lw	a4,-64(s0)
   13e6c:	97ba                	add	a5,a5,a4
   13e6e:	fcf42023          	sw	a5,-64(s0)
   13e72:	fbb44783          	lbu	a5,-69(s0)
   13e76:	fbc42703          	lw	a4,-68(s0)
   13e7a:	97ba                	add	a5,a5,a4
   13e7c:	faf42e23          	sw	a5,-68(s0)
   13e80:	f9842783          	lw	a5,-104(s0)
   13e84:	17ed                	addi	a5,a5,-5
   13e86:	fc442703          	lw	a4,-60(s0)
   13e8a:	97ba                	add	a5,a5,a4
   13e8c:	fcf42223          	sw	a5,-60(s0)
   13e90:	fc442783          	lw	a5,-60(s0)
   13e94:	00178713          	addi	a4,a5,1
   13e98:	fce42223          	sw	a4,-60(s0)
   13e9c:	0007c783          	lbu	a5,0(a5)
   13ea0:	40f007b3          	neg	a5,a5
   13ea4:	fc842703          	lw	a4,-56(s0)
   13ea8:	97ba                	add	a5,a5,a4
   13eaa:	0007c783          	lbu	a5,0(a5)
   13eae:	faf40da3          	sb	a5,-69(s0)
   13eb2:	fbb44783          	lbu	a5,-69(s0)
   13eb6:	0786                	slli	a5,a5,0x1
   13eb8:	fc042703          	lw	a4,-64(s0)
   13ebc:	40f707b3          	sub	a5,a4,a5
   13ec0:	fcf42023          	sw	a5,-64(s0)
   13ec4:	fbb44783          	lbu	a5,-69(s0)
   13ec8:	0786                	slli	a5,a5,0x1
   13eca:	fbc42703          	lw	a4,-68(s0)
   13ece:	97ba                	add	a5,a5,a4
   13ed0:	faf42e23          	sw	a5,-68(s0)
   13ed4:	fc442783          	lw	a5,-60(s0)
   13ed8:	00178713          	addi	a4,a5,1
   13edc:	fce42223          	sw	a4,-60(s0)
   13ee0:	0007c783          	lbu	a5,0(a5)
   13ee4:	40f007b3          	neg	a5,a5
   13ee8:	fc842703          	lw	a4,-56(s0)
   13eec:	97ba                	add	a5,a5,a4
   13eee:	0007c783          	lbu	a5,0(a5)
   13ef2:	faf40da3          	sb	a5,-69(s0)
   13ef6:	fbb44783          	lbu	a5,-69(s0)
   13efa:	fc042703          	lw	a4,-64(s0)
   13efe:	40f707b3          	sub	a5,a4,a5
   13f02:	fcf42023          	sw	a5,-64(s0)
   13f06:	fbb44783          	lbu	a5,-69(s0)
   13f0a:	0786                	slli	a5,a5,0x1
   13f0c:	fbc42703          	lw	a4,-68(s0)
   13f10:	97ba                	add	a5,a5,a4
   13f12:	faf42e23          	sw	a5,-68(s0)
   13f16:	fc442783          	lw	a5,-60(s0)
   13f1a:	00178713          	addi	a4,a5,1
   13f1e:	fce42223          	sw	a4,-60(s0)
   13f22:	0007c783          	lbu	a5,0(a5)
   13f26:	40f007b3          	neg	a5,a5
   13f2a:	fc842703          	lw	a4,-56(s0)
   13f2e:	97ba                	add	a5,a5,a4
   13f30:	0007c783          	lbu	a5,0(a5)
   13f34:	faf40da3          	sb	a5,-69(s0)
   13f38:	fbb44783          	lbu	a5,-69(s0)
   13f3c:	0786                	slli	a5,a5,0x1
   13f3e:	fbc42703          	lw	a4,-68(s0)
   13f42:	97ba                	add	a5,a5,a4
   13f44:	faf42e23          	sw	a5,-68(s0)
   13f48:	fc442783          	lw	a5,-60(s0)
   13f4c:	00178713          	addi	a4,a5,1
   13f50:	fce42223          	sw	a4,-60(s0)
   13f54:	0007c783          	lbu	a5,0(a5)
   13f58:	40f007b3          	neg	a5,a5
   13f5c:	fc842703          	lw	a4,-56(s0)
   13f60:	97ba                	add	a5,a5,a4
   13f62:	0007c783          	lbu	a5,0(a5)
   13f66:	faf40da3          	sb	a5,-69(s0)
   13f6a:	fbb44783          	lbu	a5,-69(s0)
   13f6e:	fc042703          	lw	a4,-64(s0)
   13f72:	97ba                	add	a5,a5,a4
   13f74:	fcf42023          	sw	a5,-64(s0)
   13f78:	fbb44783          	lbu	a5,-69(s0)
   13f7c:	0786                	slli	a5,a5,0x1
   13f7e:	fbc42703          	lw	a4,-68(s0)
   13f82:	97ba                	add	a5,a5,a4
   13f84:	faf42e23          	sw	a5,-68(s0)
   13f88:	fc442783          	lw	a5,-60(s0)
   13f8c:	0007c783          	lbu	a5,0(a5)
   13f90:	40f007b3          	neg	a5,a5
   13f94:	fc842703          	lw	a4,-56(s0)
   13f98:	97ba                	add	a5,a5,a4
   13f9a:	0007c783          	lbu	a5,0(a5)
   13f9e:	faf40da3          	sb	a5,-69(s0)
   13fa2:	fbb44783          	lbu	a5,-69(s0)
   13fa6:	0786                	slli	a5,a5,0x1
   13fa8:	fc042703          	lw	a4,-64(s0)
   13fac:	97ba                	add	a5,a5,a4
   13fae:	fcf42023          	sw	a5,-64(s0)
   13fb2:	fbb44783          	lbu	a5,-69(s0)
   13fb6:	0786                	slli	a5,a5,0x1
   13fb8:	fbc42703          	lw	a4,-68(s0)
   13fbc:	97ba                	add	a5,a5,a4
   13fbe:	faf42e23          	sw	a5,-68(s0)
   13fc2:	f9842783          	lw	a5,-104(s0)
   13fc6:	17f5                	addi	a5,a5,-3
   13fc8:	fc442703          	lw	a4,-60(s0)
   13fcc:	97ba                	add	a5,a5,a4
   13fce:	fcf42223          	sw	a5,-60(s0)
   13fd2:	fc442783          	lw	a5,-60(s0)
   13fd6:	00178713          	addi	a4,a5,1
   13fda:	fce42223          	sw	a4,-60(s0)
   13fde:	0007c783          	lbu	a5,0(a5)
   13fe2:	40f007b3          	neg	a5,a5
   13fe6:	fc842703          	lw	a4,-56(s0)
   13fea:	97ba                	add	a5,a5,a4
   13fec:	0007c783          	lbu	a5,0(a5)
   13ff0:	faf40da3          	sb	a5,-69(s0)
   13ff4:	fbb44783          	lbu	a5,-69(s0)
   13ff8:	fc042703          	lw	a4,-64(s0)
   13ffc:	40f707b3          	sub	a5,a4,a5
   14000:	fcf42023          	sw	a5,-64(s0)
   14004:	fbb44703          	lbu	a4,-69(s0)
   14008:	87ba                	mv	a5,a4
   1400a:	0786                	slli	a5,a5,0x1
   1400c:	97ba                	add	a5,a5,a4
   1400e:	fbc42703          	lw	a4,-68(s0)
   14012:	97ba                	add	a5,a5,a4
   14014:	faf42e23          	sw	a5,-68(s0)
   14018:	fc442783          	lw	a5,-60(s0)
   1401c:	00178713          	addi	a4,a5,1
   14020:	fce42223          	sw	a4,-60(s0)
   14024:	0007c783          	lbu	a5,0(a5)
   14028:	40f007b3          	neg	a5,a5
   1402c:	fc842703          	lw	a4,-56(s0)
   14030:	97ba                	add	a5,a5,a4
   14032:	0007c783          	lbu	a5,0(a5)
   14036:	faf40da3          	sb	a5,-69(s0)
   1403a:	fbb44703          	lbu	a4,-69(s0)
   1403e:	87ba                	mv	a5,a4
   14040:	0786                	slli	a5,a5,0x1
   14042:	97ba                	add	a5,a5,a4
   14044:	fbc42703          	lw	a4,-68(s0)
   14048:	97ba                	add	a5,a5,a4
   1404a:	faf42e23          	sw	a5,-68(s0)
   1404e:	fc442783          	lw	a5,-60(s0)
   14052:	0007c783          	lbu	a5,0(a5)
   14056:	40f007b3          	neg	a5,a5
   1405a:	fc842703          	lw	a4,-56(s0)
   1405e:	97ba                	add	a5,a5,a4
   14060:	0007c783          	lbu	a5,0(a5)
   14064:	faf40da3          	sb	a5,-69(s0)
   14068:	fbb44783          	lbu	a5,-69(s0)
   1406c:	fc042703          	lw	a4,-64(s0)
   14070:	97ba                	add	a5,a5,a4
   14072:	fcf42023          	sw	a5,-64(s0)
   14076:	fbb44703          	lbu	a4,-69(s0)
   1407a:	87ba                	mv	a5,a4
   1407c:	0786                	slli	a5,a5,0x1
   1407e:	97ba                	add	a5,a5,a4
   14080:	fbc42703          	lw	a4,-68(s0)
   14084:	97ba                	add	a5,a5,a4
   14086:	faf42e23          	sw	a5,-68(s0)
   1408a:	fc042783          	lw	a5,-64(s0)
   1408e:	02f78733          	mul	a4,a5,a5
   14092:	fbc42783          	lw	a5,-68(s0)
   14096:	02f787b3          	mul	a5,a5,a5
   1409a:	97ba                	add	a5,a5,a4
   1409c:	d007f7d3          	fcvt.s.w	fa5,a5
   140a0:	420787d3          	fcvt.d.s	fa5,fa5
   140a4:	22f78553          	fmv.d	fa0,fa5
   140a8:	305050ef          	jal	19bac <sqrt>
   140ac:	22a507d3          	fmv.d	fa5,fa0
   140b0:	4017f7d3          	fcvt.s.d	fa5,fa5
   140b4:	fef42627          	fsw	fa5,-20(s0)
   140b8:	fec42787          	flw	fa5,-20(s0)
   140bc:	42078753          	fcvt.d.s	fa4,fa5
   140c0:	fcc42783          	lw	a5,-52(s0)
   140c4:	d007f7d3          	fcvt.s.w	fa5,a5
   140c8:	420786d3          	fcvt.d.s	fa3,fa5
   140cc:	000277b7          	lui	a5,0x27
   140d0:	1e07b787          	fld	fa5,480(a5) # 271e0 <__clzsi2+0x5c2>
   140d4:	12f6f7d3          	fmul.d	fa5,fa3,fa5
   140d8:	a2e797d3          	flt.d	a5,fa5,fa4
   140dc:	e391                	bnez	a5,140e0 <susan_edges+0x1120>
   140de:	a27d                	j	1428c <susan_edges+0x12cc>
   140e0:	fe042423          	sw	zero,-24(s0)
   140e4:	fc042783          	lw	a5,-64(s0)
   140e8:	eb81                	bnez	a5,140f8 <susan_edges+0x1138>
   140ea:	000277b7          	lui	a5,0x27
   140ee:	1e87a787          	flw	fa5,488(a5) # 271e8 <__clzsi2+0x5ca>
   140f2:	fef42627          	fsw	fa5,-20(s0)
   140f6:	a829                	j	14110 <susan_edges+0x1150>
   140f8:	fbc42783          	lw	a5,-68(s0)
   140fc:	d007f753          	fcvt.s.w	fa4,a5
   14100:	fc042783          	lw	a5,-64(s0)
   14104:	d007f7d3          	fcvt.s.w	fa5,a5
   14108:	18f777d3          	fdiv.s	fa5,fa4,fa5
   1410c:	fef42627          	fsw	fa5,-20(s0)
   14110:	fec42787          	flw	fa5,-20(s0)
   14114:	f0000753          	fmv.w.x	fa4,zero
   14118:	a0e797d3          	flt.s	a5,fa5,fa4
   1411c:	e391                	bnez	a5,14120 <susan_edges+0x1160>
   1411e:	a819                	j	14134 <susan_edges+0x1174>
   14120:	fec42787          	flw	fa5,-20(s0)
   14124:	20f797d3          	fneg.s	fa5,fa5
   14128:	fef42627          	fsw	fa5,-20(s0)
   1412c:	57fd                	li	a5,-1
   1412e:	fcf42a23          	sw	a5,-44(s0)
   14132:	a021                	j	1413a <susan_edges+0x117a>
   14134:	4785                	li	a5,1
   14136:	fcf42a23          	sw	a5,-44(s0)
   1413a:	fec42707          	flw	fa4,-20(s0)
   1413e:	000277b7          	lui	a5,0x27
   14142:	1ec7a787          	flw	fa5,492(a5) # 271ec <__clzsi2+0x5ce>
   14146:	a0f717d3          	flt.s	a5,fa4,fa5
   1414a:	e391                	bnez	a5,1414e <susan_edges+0x118e>
   1414c:	a039                	j	1415a <susan_edges+0x119a>
   1414e:	fc042e23          	sw	zero,-36(s0)
   14152:	4785                	li	a5,1
   14154:	fcf42c23          	sw	a5,-40(s0)
   14158:	a091                	j	1419c <susan_edges+0x11dc>
   1415a:	fec42707          	flw	fa4,-20(s0)
   1415e:	000277b7          	lui	a5,0x27
   14162:	1f07a787          	flw	fa5,496(a5) # 271f0 <__clzsi2+0x5d2>
   14166:	a0e797d3          	flt.s	a5,fa5,fa4
   1416a:	e391                	bnez	a5,1416e <susan_edges+0x11ae>
   1416c:	a039                	j	1417a <susan_edges+0x11ba>
   1416e:	4785                	li	a5,1
   14170:	fcf42e23          	sw	a5,-36(s0)
   14174:	fc042c23          	sw	zero,-40(s0)
   14178:	a015                	j	1419c <susan_edges+0x11dc>
   1417a:	fd442783          	lw	a5,-44(s0)
   1417e:	00f05963          	blez	a5,14190 <susan_edges+0x11d0>
   14182:	4785                	li	a5,1
   14184:	fcf42e23          	sw	a5,-36(s0)
   14188:	4785                	li	a5,1
   1418a:	fcf42c23          	sw	a5,-40(s0)
   1418e:	a039                	j	1419c <susan_edges+0x11dc>
   14190:	57fd                	li	a5,-1
   14192:	fcf42e23          	sw	a5,-36(s0)
   14196:	4785                	li	a5,1
   14198:	fcf42c23          	sw	a5,-40(s0)
   1419c:	fe442703          	lw	a4,-28(s0)
   141a0:	fdc42783          	lw	a5,-36(s0)
   141a4:	973e                	add	a4,a4,a5
   141a6:	f9842783          	lw	a5,-104(s0)
   141aa:	02f70733          	mul	a4,a4,a5
   141ae:	fe042783          	lw	a5,-32(s0)
   141b2:	973e                	add	a4,a4,a5
   141b4:	fd842783          	lw	a5,-40(s0)
   141b8:	97ba                	add	a5,a5,a4
   141ba:	078a                	slli	a5,a5,0x2
   141bc:	fa842703          	lw	a4,-88(s0)
   141c0:	97ba                	add	a5,a5,a4
   141c2:	439c                	lw	a5,0(a5)
   141c4:	fd042703          	lw	a4,-48(s0)
   141c8:	0ce7d963          	bge	a5,a4,1429a <susan_edges+0x12da>
   141cc:	fe442703          	lw	a4,-28(s0)
   141d0:	fdc42783          	lw	a5,-36(s0)
   141d4:	8f1d                	sub	a4,a4,a5
   141d6:	f9842783          	lw	a5,-104(s0)
   141da:	02f70733          	mul	a4,a4,a5
   141de:	fe042783          	lw	a5,-32(s0)
   141e2:	973e                	add	a4,a4,a5
   141e4:	fd842783          	lw	a5,-40(s0)
   141e8:	40f707b3          	sub	a5,a4,a5
   141ec:	078a                	slli	a5,a5,0x2
   141ee:	fa842703          	lw	a4,-88(s0)
   141f2:	97ba                	add	a5,a5,a4
   141f4:	439c                	lw	a5,0(a5)
   141f6:	fd042703          	lw	a4,-48(s0)
   141fa:	0af74063          	blt	a4,a5,1429a <susan_edges+0x12da>
   141fe:	fdc42783          	lw	a5,-36(s0)
   14202:	00179713          	slli	a4,a5,0x1
   14206:	fe442783          	lw	a5,-28(s0)
   1420a:	973e                	add	a4,a4,a5
   1420c:	f9842783          	lw	a5,-104(s0)
   14210:	02f70733          	mul	a4,a4,a5
   14214:	fe042783          	lw	a5,-32(s0)
   14218:	973e                	add	a4,a4,a5
   1421a:	fd842783          	lw	a5,-40(s0)
   1421e:	0786                	slli	a5,a5,0x1
   14220:	97ba                	add	a5,a5,a4
   14222:	078a                	slli	a5,a5,0x2
   14224:	fa842703          	lw	a4,-88(s0)
   14228:	97ba                	add	a5,a5,a4
   1422a:	439c                	lw	a5,0(a5)
   1422c:	fd042703          	lw	a4,-48(s0)
   14230:	06e7d563          	bge	a5,a4,1429a <susan_edges+0x12da>
   14234:	fdc42783          	lw	a5,-36(s0)
   14238:	0786                	slli	a5,a5,0x1
   1423a:	fe442703          	lw	a4,-28(s0)
   1423e:	8f1d                	sub	a4,a4,a5
   14240:	f9842783          	lw	a5,-104(s0)
   14244:	02f70733          	mul	a4,a4,a5
   14248:	fe042783          	lw	a5,-32(s0)
   1424c:	973e                	add	a4,a4,a5
   1424e:	fd842783          	lw	a5,-40(s0)
   14252:	0786                	slli	a5,a5,0x1
   14254:	40f707b3          	sub	a5,a4,a5
   14258:	078a                	slli	a5,a5,0x2
   1425a:	fa842703          	lw	a4,-88(s0)
   1425e:	97ba                	add	a5,a5,a4
   14260:	439c                	lw	a5,0(a5)
   14262:	fd042703          	lw	a4,-48(s0)
   14266:	02f74a63          	blt	a4,a5,1429a <susan_edges+0x12da>
   1426a:	fe442703          	lw	a4,-28(s0)
   1426e:	f9842783          	lw	a5,-104(s0)
   14272:	02f70733          	mul	a4,a4,a5
   14276:	fe042783          	lw	a5,-32(s0)
   1427a:	97ba                	add	a5,a5,a4
   1427c:	873e                	mv	a4,a5
   1427e:	fa442783          	lw	a5,-92(s0)
   14282:	97ba                	add	a5,a5,a4
   14284:	4705                	li	a4,1
   14286:	00e78023          	sb	a4,0(a5)
   1428a:	a801                	j	1429a <susan_edges+0x12da>
   1428c:	4785                	li	a5,1
   1428e:	fef42423          	sw	a5,-24(s0)
   14292:	a021                	j	1429a <susan_edges+0x12da>
   14294:	4785                	li	a5,1
   14296:	fef42423          	sw	a5,-24(s0)
   1429a:	fe842703          	lw	a4,-24(s0)
   1429e:	4785                	li	a5,1
   142a0:	40f715e3          	bne	a4,a5,14eaa <susan_edges+0x1eea>
   142a4:	fe442783          	lw	a5,-28(s0)
   142a8:	ffd78713          	addi	a4,a5,-3
   142ac:	f9842783          	lw	a5,-104(s0)
   142b0:	02f707b3          	mul	a5,a4,a5
   142b4:	873e                	mv	a4,a5
   142b6:	fe042783          	lw	a5,-32(s0)
   142ba:	97ba                	add	a5,a5,a4
   142bc:	17fd                	addi	a5,a5,-1
   142be:	fac42703          	lw	a4,-84(s0)
   142c2:	97ba                	add	a5,a5,a4
   142c4:	fcf42223          	sw	a5,-60(s0)
   142c8:	fc042023          	sw	zero,-64(s0)
   142cc:	fa042e23          	sw	zero,-68(s0)
   142d0:	fc042a23          	sw	zero,-44(s0)
   142d4:	fc442783          	lw	a5,-60(s0)
   142d8:	00178713          	addi	a4,a5,1
   142dc:	fce42223          	sw	a4,-60(s0)
   142e0:	0007c783          	lbu	a5,0(a5)
   142e4:	40f007b3          	neg	a5,a5
   142e8:	fc842703          	lw	a4,-56(s0)
   142ec:	97ba                	add	a5,a5,a4
   142ee:	0007c783          	lbu	a5,0(a5)
   142f2:	faf40da3          	sb	a5,-69(s0)
   142f6:	fbb44783          	lbu	a5,-69(s0)
   142fa:	fc042703          	lw	a4,-64(s0)
   142fe:	97ba                	add	a5,a5,a4
   14300:	fcf42023          	sw	a5,-64(s0)
   14304:	fbb44703          	lbu	a4,-69(s0)
   14308:	87ba                	mv	a5,a4
   1430a:	078e                	slli	a5,a5,0x3
   1430c:	97ba                	add	a5,a5,a4
   1430e:	fbc42703          	lw	a4,-68(s0)
   14312:	97ba                	add	a5,a5,a4
   14314:	faf42e23          	sw	a5,-68(s0)
   14318:	fbb44703          	lbu	a4,-69(s0)
   1431c:	87ba                	mv	a5,a4
   1431e:	0786                	slli	a5,a5,0x1
   14320:	97ba                	add	a5,a5,a4
   14322:	fd442703          	lw	a4,-44(s0)
   14326:	97ba                	add	a5,a5,a4
   14328:	fcf42a23          	sw	a5,-44(s0)
   1432c:	fc442783          	lw	a5,-60(s0)
   14330:	00178713          	addi	a4,a5,1
   14334:	fce42223          	sw	a4,-60(s0)
   14338:	0007c783          	lbu	a5,0(a5)
   1433c:	40f007b3          	neg	a5,a5
   14340:	fc842703          	lw	a4,-56(s0)
   14344:	97ba                	add	a5,a5,a4
   14346:	0007c783          	lbu	a5,0(a5)
   1434a:	faf40da3          	sb	a5,-69(s0)
   1434e:	fbb44703          	lbu	a4,-69(s0)
   14352:	87ba                	mv	a5,a4
   14354:	078e                	slli	a5,a5,0x3
   14356:	97ba                	add	a5,a5,a4
   14358:	fbc42703          	lw	a4,-68(s0)
   1435c:	97ba                	add	a5,a5,a4
   1435e:	faf42e23          	sw	a5,-68(s0)
   14362:	fc442783          	lw	a5,-60(s0)
   14366:	0007c783          	lbu	a5,0(a5)
   1436a:	40f007b3          	neg	a5,a5
   1436e:	fc842703          	lw	a4,-56(s0)
   14372:	97ba                	add	a5,a5,a4
   14374:	0007c783          	lbu	a5,0(a5)
   14378:	faf40da3          	sb	a5,-69(s0)
   1437c:	fbb44783          	lbu	a5,-69(s0)
   14380:	fc042703          	lw	a4,-64(s0)
   14384:	97ba                	add	a5,a5,a4
   14386:	fcf42023          	sw	a5,-64(s0)
   1438a:	fbb44703          	lbu	a4,-69(s0)
   1438e:	87ba                	mv	a5,a4
   14390:	078e                	slli	a5,a5,0x3
   14392:	97ba                	add	a5,a5,a4
   14394:	fbc42703          	lw	a4,-68(s0)
   14398:	97ba                	add	a5,a5,a4
   1439a:	faf42e23          	sw	a5,-68(s0)
   1439e:	fbb44783          	lbu	a5,-69(s0)
   143a2:	873e                	mv	a4,a5
   143a4:	078a                	slli	a5,a5,0x2
   143a6:	40f707b3          	sub	a5,a4,a5
   143aa:	fd442703          	lw	a4,-44(s0)
   143ae:	97ba                	add	a5,a5,a4
   143b0:	fcf42a23          	sw	a5,-44(s0)
   143b4:	f9842783          	lw	a5,-104(s0)
   143b8:	17f5                	addi	a5,a5,-3
   143ba:	fc442703          	lw	a4,-60(s0)
   143be:	97ba                	add	a5,a5,a4
   143c0:	fcf42223          	sw	a5,-60(s0)
   143c4:	fc442783          	lw	a5,-60(s0)
   143c8:	00178713          	addi	a4,a5,1
   143cc:	fce42223          	sw	a4,-60(s0)
   143d0:	0007c783          	lbu	a5,0(a5)
   143d4:	40f007b3          	neg	a5,a5
   143d8:	fc842703          	lw	a4,-56(s0)
   143dc:	97ba                	add	a5,a5,a4
   143de:	0007c783          	lbu	a5,0(a5)
   143e2:	faf40da3          	sb	a5,-69(s0)
   143e6:	fbb44783          	lbu	a5,-69(s0)
   143ea:	078a                	slli	a5,a5,0x2
   143ec:	fc042703          	lw	a4,-64(s0)
   143f0:	97ba                	add	a5,a5,a4
   143f2:	fcf42023          	sw	a5,-64(s0)
   143f6:	fbb44783          	lbu	a5,-69(s0)
   143fa:	078a                	slli	a5,a5,0x2
   143fc:	fbc42703          	lw	a4,-68(s0)
   14400:	97ba                	add	a5,a5,a4
   14402:	faf42e23          	sw	a5,-68(s0)
   14406:	fbb44783          	lbu	a5,-69(s0)
   1440a:	078a                	slli	a5,a5,0x2
   1440c:	fd442703          	lw	a4,-44(s0)
   14410:	97ba                	add	a5,a5,a4
   14412:	fcf42a23          	sw	a5,-44(s0)
   14416:	fc442783          	lw	a5,-60(s0)
   1441a:	00178713          	addi	a4,a5,1
   1441e:	fce42223          	sw	a4,-60(s0)
   14422:	0007c783          	lbu	a5,0(a5)
   14426:	40f007b3          	neg	a5,a5
   1442a:	fc842703          	lw	a4,-56(s0)
   1442e:	97ba                	add	a5,a5,a4
   14430:	0007c783          	lbu	a5,0(a5)
   14434:	faf40da3          	sb	a5,-69(s0)
   14438:	fbb44783          	lbu	a5,-69(s0)
   1443c:	fc042703          	lw	a4,-64(s0)
   14440:	97ba                	add	a5,a5,a4
   14442:	fcf42023          	sw	a5,-64(s0)
   14446:	fbb44783          	lbu	a5,-69(s0)
   1444a:	078a                	slli	a5,a5,0x2
   1444c:	fbc42703          	lw	a4,-68(s0)
   14450:	97ba                	add	a5,a5,a4
   14452:	faf42e23          	sw	a5,-68(s0)
   14456:	fbb44783          	lbu	a5,-69(s0)
   1445a:	0786                	slli	a5,a5,0x1
   1445c:	fd442703          	lw	a4,-44(s0)
   14460:	97ba                	add	a5,a5,a4
   14462:	fcf42a23          	sw	a5,-44(s0)
   14466:	fc442783          	lw	a5,-60(s0)
   1446a:	00178713          	addi	a4,a5,1
   1446e:	fce42223          	sw	a4,-60(s0)
   14472:	0007c783          	lbu	a5,0(a5)
   14476:	40f007b3          	neg	a5,a5
   1447a:	fc842703          	lw	a4,-56(s0)
   1447e:	97ba                	add	a5,a5,a4
   14480:	0007c783          	lbu	a5,0(a5)
   14484:	faf40da3          	sb	a5,-69(s0)
   14488:	fbb44783          	lbu	a5,-69(s0)
   1448c:	078a                	slli	a5,a5,0x2
   1448e:	fbc42703          	lw	a4,-68(s0)
   14492:	97ba                	add	a5,a5,a4
   14494:	faf42e23          	sw	a5,-68(s0)
   14498:	fc442783          	lw	a5,-60(s0)
   1449c:	00178713          	addi	a4,a5,1
   144a0:	fce42223          	sw	a4,-60(s0)
   144a4:	0007c783          	lbu	a5,0(a5)
   144a8:	40f007b3          	neg	a5,a5
   144ac:	fc842703          	lw	a4,-56(s0)
   144b0:	97ba                	add	a5,a5,a4
   144b2:	0007c783          	lbu	a5,0(a5)
   144b6:	faf40da3          	sb	a5,-69(s0)
   144ba:	fbb44783          	lbu	a5,-69(s0)
   144be:	fc042703          	lw	a4,-64(s0)
   144c2:	97ba                	add	a5,a5,a4
   144c4:	fcf42023          	sw	a5,-64(s0)
   144c8:	fbb44783          	lbu	a5,-69(s0)
   144cc:	078a                	slli	a5,a5,0x2
   144ce:	fbc42703          	lw	a4,-68(s0)
   144d2:	97ba                	add	a5,a5,a4
   144d4:	faf42e23          	sw	a5,-68(s0)
   144d8:	fbb44783          	lbu	a5,-69(s0)
   144dc:	0786                	slli	a5,a5,0x1
   144de:	fd442703          	lw	a4,-44(s0)
   144e2:	40f707b3          	sub	a5,a4,a5
   144e6:	fcf42a23          	sw	a5,-44(s0)
   144ea:	fc442783          	lw	a5,-60(s0)
   144ee:	0007c783          	lbu	a5,0(a5)
   144f2:	40f007b3          	neg	a5,a5
   144f6:	fc842703          	lw	a4,-56(s0)
   144fa:	97ba                	add	a5,a5,a4
   144fc:	0007c783          	lbu	a5,0(a5)
   14500:	faf40da3          	sb	a5,-69(s0)
   14504:	fbb44783          	lbu	a5,-69(s0)
   14508:	078a                	slli	a5,a5,0x2
   1450a:	fc042703          	lw	a4,-64(s0)
   1450e:	97ba                	add	a5,a5,a4
   14510:	fcf42023          	sw	a5,-64(s0)
   14514:	fbb44783          	lbu	a5,-69(s0)
   14518:	078a                	slli	a5,a5,0x2
   1451a:	fbc42703          	lw	a4,-68(s0)
   1451e:	97ba                	add	a5,a5,a4
   14520:	faf42e23          	sw	a5,-68(s0)
   14524:	fbb44783          	lbu	a5,-69(s0)
   14528:	078a                	slli	a5,a5,0x2
   1452a:	fd442703          	lw	a4,-44(s0)
   1452e:	40f707b3          	sub	a5,a4,a5
   14532:	fcf42a23          	sw	a5,-44(s0)
   14536:	f9842783          	lw	a5,-104(s0)
   1453a:	17ed                	addi	a5,a5,-5
   1453c:	fc442703          	lw	a4,-60(s0)
   14540:	97ba                	add	a5,a5,a4
   14542:	fcf42223          	sw	a5,-60(s0)
   14546:	fc442783          	lw	a5,-60(s0)
   1454a:	00178713          	addi	a4,a5,1
   1454e:	fce42223          	sw	a4,-60(s0)
   14552:	0007c783          	lbu	a5,0(a5)
   14556:	40f007b3          	neg	a5,a5
   1455a:	fc842703          	lw	a4,-56(s0)
   1455e:	97ba                	add	a5,a5,a4
   14560:	0007c783          	lbu	a5,0(a5)
   14564:	faf40da3          	sb	a5,-69(s0)
   14568:	fbb44703          	lbu	a4,-69(s0)
   1456c:	87ba                	mv	a5,a4
   1456e:	078e                	slli	a5,a5,0x3
   14570:	97ba                	add	a5,a5,a4
   14572:	fc042703          	lw	a4,-64(s0)
   14576:	97ba                	add	a5,a5,a4
   14578:	fcf42023          	sw	a5,-64(s0)
   1457c:	fbb44783          	lbu	a5,-69(s0)
   14580:	fbc42703          	lw	a4,-68(s0)
   14584:	97ba                	add	a5,a5,a4
   14586:	faf42e23          	sw	a5,-68(s0)
   1458a:	fbb44703          	lbu	a4,-69(s0)
   1458e:	87ba                	mv	a5,a4
   14590:	0786                	slli	a5,a5,0x1
   14592:	97ba                	add	a5,a5,a4
   14594:	fd442703          	lw	a4,-44(s0)
   14598:	97ba                	add	a5,a5,a4
   1459a:	fcf42a23          	sw	a5,-44(s0)
   1459e:	fc442783          	lw	a5,-60(s0)
   145a2:	00178713          	addi	a4,a5,1
   145a6:	fce42223          	sw	a4,-60(s0)
   145aa:	0007c783          	lbu	a5,0(a5)
   145ae:	40f007b3          	neg	a5,a5
   145b2:	fc842703          	lw	a4,-56(s0)
   145b6:	97ba                	add	a5,a5,a4
   145b8:	0007c783          	lbu	a5,0(a5)
   145bc:	faf40da3          	sb	a5,-69(s0)
   145c0:	fbb44783          	lbu	a5,-69(s0)
   145c4:	078a                	slli	a5,a5,0x2
   145c6:	fc042703          	lw	a4,-64(s0)
   145ca:	97ba                	add	a5,a5,a4
   145cc:	fcf42023          	sw	a5,-64(s0)
   145d0:	fbb44783          	lbu	a5,-69(s0)
   145d4:	fbc42703          	lw	a4,-68(s0)
   145d8:	97ba                	add	a5,a5,a4
   145da:	faf42e23          	sw	a5,-68(s0)
   145de:	fbb44783          	lbu	a5,-69(s0)
   145e2:	0786                	slli	a5,a5,0x1
   145e4:	fd442703          	lw	a4,-44(s0)
   145e8:	97ba                	add	a5,a5,a4
   145ea:	fcf42a23          	sw	a5,-44(s0)
   145ee:	fc442783          	lw	a5,-60(s0)
   145f2:	00178713          	addi	a4,a5,1
   145f6:	fce42223          	sw	a4,-60(s0)
   145fa:	0007c783          	lbu	a5,0(a5)
   145fe:	40f007b3          	neg	a5,a5
   14602:	fc842703          	lw	a4,-56(s0)
   14606:	97ba                	add	a5,a5,a4
   14608:	0007c783          	lbu	a5,0(a5)
   1460c:	faf40da3          	sb	a5,-69(s0)
   14610:	fbb44783          	lbu	a5,-69(s0)
   14614:	fc042703          	lw	a4,-64(s0)
   14618:	97ba                	add	a5,a5,a4
   1461a:	fcf42023          	sw	a5,-64(s0)
   1461e:	fbb44783          	lbu	a5,-69(s0)
   14622:	fbc42703          	lw	a4,-68(s0)
   14626:	97ba                	add	a5,a5,a4
   14628:	faf42e23          	sw	a5,-68(s0)
   1462c:	fbb44783          	lbu	a5,-69(s0)
   14630:	fd442703          	lw	a4,-44(s0)
   14634:	97ba                	add	a5,a5,a4
   14636:	fcf42a23          	sw	a5,-44(s0)
   1463a:	fc442783          	lw	a5,-60(s0)
   1463e:	00178713          	addi	a4,a5,1
   14642:	fce42223          	sw	a4,-60(s0)
   14646:	0007c783          	lbu	a5,0(a5)
   1464a:	40f007b3          	neg	a5,a5
   1464e:	fc842703          	lw	a4,-56(s0)
   14652:	97ba                	add	a5,a5,a4
   14654:	0007c783          	lbu	a5,0(a5)
   14658:	faf40da3          	sb	a5,-69(s0)
   1465c:	fbb44783          	lbu	a5,-69(s0)
   14660:	fbc42703          	lw	a4,-68(s0)
   14664:	97ba                	add	a5,a5,a4
   14666:	faf42e23          	sw	a5,-68(s0)
   1466a:	fc442783          	lw	a5,-60(s0)
   1466e:	00178713          	addi	a4,a5,1
   14672:	fce42223          	sw	a4,-60(s0)
   14676:	0007c783          	lbu	a5,0(a5)
   1467a:	40f007b3          	neg	a5,a5
   1467e:	fc842703          	lw	a4,-56(s0)
   14682:	97ba                	add	a5,a5,a4
   14684:	0007c783          	lbu	a5,0(a5)
   14688:	faf40da3          	sb	a5,-69(s0)
   1468c:	fbb44783          	lbu	a5,-69(s0)
   14690:	fc042703          	lw	a4,-64(s0)
   14694:	97ba                	add	a5,a5,a4
   14696:	fcf42023          	sw	a5,-64(s0)
   1469a:	fbb44783          	lbu	a5,-69(s0)
   1469e:	fbc42703          	lw	a4,-68(s0)
   146a2:	97ba                	add	a5,a5,a4
   146a4:	faf42e23          	sw	a5,-68(s0)
   146a8:	fbb44783          	lbu	a5,-69(s0)
   146ac:	fd442703          	lw	a4,-44(s0)
   146b0:	40f707b3          	sub	a5,a4,a5
   146b4:	fcf42a23          	sw	a5,-44(s0)
   146b8:	fc442783          	lw	a5,-60(s0)
   146bc:	00178713          	addi	a4,a5,1
   146c0:	fce42223          	sw	a4,-60(s0)
   146c4:	0007c783          	lbu	a5,0(a5)
   146c8:	40f007b3          	neg	a5,a5
   146cc:	fc842703          	lw	a4,-56(s0)
   146d0:	97ba                	add	a5,a5,a4
   146d2:	0007c783          	lbu	a5,0(a5)
   146d6:	faf40da3          	sb	a5,-69(s0)
   146da:	fbb44783          	lbu	a5,-69(s0)
   146de:	078a                	slli	a5,a5,0x2
   146e0:	fc042703          	lw	a4,-64(s0)
   146e4:	97ba                	add	a5,a5,a4
   146e6:	fcf42023          	sw	a5,-64(s0)
   146ea:	fbb44783          	lbu	a5,-69(s0)
   146ee:	fbc42703          	lw	a4,-68(s0)
   146f2:	97ba                	add	a5,a5,a4
   146f4:	faf42e23          	sw	a5,-68(s0)
   146f8:	fbb44783          	lbu	a5,-69(s0)
   146fc:	0786                	slli	a5,a5,0x1
   146fe:	fd442703          	lw	a4,-44(s0)
   14702:	40f707b3          	sub	a5,a4,a5
   14706:	fcf42a23          	sw	a5,-44(s0)
   1470a:	fc442783          	lw	a5,-60(s0)
   1470e:	0007c783          	lbu	a5,0(a5)
   14712:	40f007b3          	neg	a5,a5
   14716:	fc842703          	lw	a4,-56(s0)
   1471a:	97ba                	add	a5,a5,a4
   1471c:	0007c783          	lbu	a5,0(a5)
   14720:	faf40da3          	sb	a5,-69(s0)
   14724:	fbb44703          	lbu	a4,-69(s0)
   14728:	87ba                	mv	a5,a4
   1472a:	078e                	slli	a5,a5,0x3
   1472c:	97ba                	add	a5,a5,a4
   1472e:	fc042703          	lw	a4,-64(s0)
   14732:	97ba                	add	a5,a5,a4
   14734:	fcf42023          	sw	a5,-64(s0)
   14738:	fbb44783          	lbu	a5,-69(s0)
   1473c:	fbc42703          	lw	a4,-68(s0)
   14740:	97ba                	add	a5,a5,a4
   14742:	faf42e23          	sw	a5,-68(s0)
   14746:	fbb44783          	lbu	a5,-69(s0)
   1474a:	873e                	mv	a4,a5
   1474c:	078a                	slli	a5,a5,0x2
   1474e:	40f707b3          	sub	a5,a4,a5
   14752:	fd442703          	lw	a4,-44(s0)
   14756:	97ba                	add	a5,a5,a4
   14758:	fcf42a23          	sw	a5,-44(s0)
   1475c:	f9842783          	lw	a5,-104(s0)
   14760:	17e9                	addi	a5,a5,-6
   14762:	fc442703          	lw	a4,-60(s0)
   14766:	97ba                	add	a5,a5,a4
   14768:	fcf42223          	sw	a5,-60(s0)
   1476c:	fc442783          	lw	a5,-60(s0)
   14770:	00178713          	addi	a4,a5,1
   14774:	fce42223          	sw	a4,-60(s0)
   14778:	0007c783          	lbu	a5,0(a5)
   1477c:	40f007b3          	neg	a5,a5
   14780:	fc842703          	lw	a4,-56(s0)
   14784:	97ba                	add	a5,a5,a4
   14786:	0007c783          	lbu	a5,0(a5)
   1478a:	faf40da3          	sb	a5,-69(s0)
   1478e:	fbb44703          	lbu	a4,-69(s0)
   14792:	87ba                	mv	a5,a4
   14794:	078e                	slli	a5,a5,0x3
   14796:	97ba                	add	a5,a5,a4
   14798:	fc042703          	lw	a4,-64(s0)
   1479c:	97ba                	add	a5,a5,a4
   1479e:	fcf42023          	sw	a5,-64(s0)
   147a2:	fc442783          	lw	a5,-60(s0)
   147a6:	00178713          	addi	a4,a5,1
   147aa:	fce42223          	sw	a4,-60(s0)
   147ae:	0007c783          	lbu	a5,0(a5)
   147b2:	40f007b3          	neg	a5,a5
   147b6:	fc842703          	lw	a4,-56(s0)
   147ba:	97ba                	add	a5,a5,a4
   147bc:	0007c783          	lbu	a5,0(a5)
   147c0:	faf40da3          	sb	a5,-69(s0)
   147c4:	fbb44783          	lbu	a5,-69(s0)
   147c8:	078a                	slli	a5,a5,0x2
   147ca:	fc042703          	lw	a4,-64(s0)
   147ce:	97ba                	add	a5,a5,a4
   147d0:	fcf42023          	sw	a5,-64(s0)
   147d4:	fc442783          	lw	a5,-60(s0)
   147d8:	0007c783          	lbu	a5,0(a5)
   147dc:	40f007b3          	neg	a5,a5
   147e0:	fc842703          	lw	a4,-56(s0)
   147e4:	97ba                	add	a5,a5,a4
   147e6:	0007c783          	lbu	a5,0(a5)
   147ea:	faf40da3          	sb	a5,-69(s0)
   147ee:	fbb44783          	lbu	a5,-69(s0)
   147f2:	fc042703          	lw	a4,-64(s0)
   147f6:	97ba                	add	a5,a5,a4
   147f8:	fcf42023          	sw	a5,-64(s0)
   147fc:	fc442783          	lw	a5,-60(s0)
   14800:	0789                	addi	a5,a5,2
   14802:	fcf42223          	sw	a5,-60(s0)
   14806:	fc442783          	lw	a5,-60(s0)
   1480a:	00178713          	addi	a4,a5,1
   1480e:	fce42223          	sw	a4,-60(s0)
   14812:	0007c783          	lbu	a5,0(a5)
   14816:	40f007b3          	neg	a5,a5
   1481a:	fc842703          	lw	a4,-56(s0)
   1481e:	97ba                	add	a5,a5,a4
   14820:	0007c783          	lbu	a5,0(a5)
   14824:	faf40da3          	sb	a5,-69(s0)
   14828:	fbb44783          	lbu	a5,-69(s0)
   1482c:	fc042703          	lw	a4,-64(s0)
   14830:	97ba                	add	a5,a5,a4
   14832:	fcf42023          	sw	a5,-64(s0)
   14836:	fc442783          	lw	a5,-60(s0)
   1483a:	00178713          	addi	a4,a5,1
   1483e:	fce42223          	sw	a4,-60(s0)
   14842:	0007c783          	lbu	a5,0(a5)
   14846:	40f007b3          	neg	a5,a5
   1484a:	fc842703          	lw	a4,-56(s0)
   1484e:	97ba                	add	a5,a5,a4
   14850:	0007c783          	lbu	a5,0(a5)
   14854:	faf40da3          	sb	a5,-69(s0)
   14858:	fbb44783          	lbu	a5,-69(s0)
   1485c:	078a                	slli	a5,a5,0x2
   1485e:	fc042703          	lw	a4,-64(s0)
   14862:	97ba                	add	a5,a5,a4
   14864:	fcf42023          	sw	a5,-64(s0)
   14868:	fc442783          	lw	a5,-60(s0)
   1486c:	0007c783          	lbu	a5,0(a5)
   14870:	40f007b3          	neg	a5,a5
   14874:	fc842703          	lw	a4,-56(s0)
   14878:	97ba                	add	a5,a5,a4
   1487a:	0007c783          	lbu	a5,0(a5)
   1487e:	faf40da3          	sb	a5,-69(s0)
   14882:	fbb44703          	lbu	a4,-69(s0)
   14886:	87ba                	mv	a5,a4
   14888:	078e                	slli	a5,a5,0x3
   1488a:	97ba                	add	a5,a5,a4
   1488c:	fc042703          	lw	a4,-64(s0)
   14890:	97ba                	add	a5,a5,a4
   14892:	fcf42023          	sw	a5,-64(s0)
   14896:	f9842783          	lw	a5,-104(s0)
   1489a:	17e9                	addi	a5,a5,-6
   1489c:	fc442703          	lw	a4,-60(s0)
   148a0:	97ba                	add	a5,a5,a4
   148a2:	fcf42223          	sw	a5,-60(s0)
   148a6:	fc442783          	lw	a5,-60(s0)
   148aa:	00178713          	addi	a4,a5,1
   148ae:	fce42223          	sw	a4,-60(s0)
   148b2:	0007c783          	lbu	a5,0(a5)
   148b6:	40f007b3          	neg	a5,a5
   148ba:	fc842703          	lw	a4,-56(s0)
   148be:	97ba                	add	a5,a5,a4
   148c0:	0007c783          	lbu	a5,0(a5)
   148c4:	faf40da3          	sb	a5,-69(s0)
   148c8:	fbb44703          	lbu	a4,-69(s0)
   148cc:	87ba                	mv	a5,a4
   148ce:	078e                	slli	a5,a5,0x3
   148d0:	97ba                	add	a5,a5,a4
   148d2:	fc042703          	lw	a4,-64(s0)
   148d6:	97ba                	add	a5,a5,a4
   148d8:	fcf42023          	sw	a5,-64(s0)
   148dc:	fbb44783          	lbu	a5,-69(s0)
   148e0:	fbc42703          	lw	a4,-68(s0)
   148e4:	97ba                	add	a5,a5,a4
   148e6:	faf42e23          	sw	a5,-68(s0)
   148ea:	fbb44783          	lbu	a5,-69(s0)
   148ee:	873e                	mv	a4,a5
   148f0:	078a                	slli	a5,a5,0x2
   148f2:	40f707b3          	sub	a5,a4,a5
   148f6:	fd442703          	lw	a4,-44(s0)
   148fa:	97ba                	add	a5,a5,a4
   148fc:	fcf42a23          	sw	a5,-44(s0)
   14900:	fc442783          	lw	a5,-60(s0)
   14904:	00178713          	addi	a4,a5,1
   14908:	fce42223          	sw	a4,-60(s0)
   1490c:	0007c783          	lbu	a5,0(a5)
   14910:	40f007b3          	neg	a5,a5
   14914:	fc842703          	lw	a4,-56(s0)
   14918:	97ba                	add	a5,a5,a4
   1491a:	0007c783          	lbu	a5,0(a5)
   1491e:	faf40da3          	sb	a5,-69(s0)
   14922:	fbb44783          	lbu	a5,-69(s0)
   14926:	078a                	slli	a5,a5,0x2
   14928:	fc042703          	lw	a4,-64(s0)
   1492c:	97ba                	add	a5,a5,a4
   1492e:	fcf42023          	sw	a5,-64(s0)
   14932:	fbb44783          	lbu	a5,-69(s0)
   14936:	fbc42703          	lw	a4,-68(s0)
   1493a:	97ba                	add	a5,a5,a4
   1493c:	faf42e23          	sw	a5,-68(s0)
   14940:	fbb44783          	lbu	a5,-69(s0)
   14944:	0786                	slli	a5,a5,0x1
   14946:	fd442703          	lw	a4,-44(s0)
   1494a:	40f707b3          	sub	a5,a4,a5
   1494e:	fcf42a23          	sw	a5,-44(s0)
   14952:	fc442783          	lw	a5,-60(s0)
   14956:	00178713          	addi	a4,a5,1
   1495a:	fce42223          	sw	a4,-60(s0)
   1495e:	0007c783          	lbu	a5,0(a5)
   14962:	40f007b3          	neg	a5,a5
   14966:	fc842703          	lw	a4,-56(s0)
   1496a:	97ba                	add	a5,a5,a4
   1496c:	0007c783          	lbu	a5,0(a5)
   14970:	faf40da3          	sb	a5,-69(s0)
   14974:	fbb44783          	lbu	a5,-69(s0)
   14978:	fc042703          	lw	a4,-64(s0)
   1497c:	97ba                	add	a5,a5,a4
   1497e:	fcf42023          	sw	a5,-64(s0)
   14982:	fbb44783          	lbu	a5,-69(s0)
   14986:	fbc42703          	lw	a4,-68(s0)
   1498a:	97ba                	add	a5,a5,a4
   1498c:	faf42e23          	sw	a5,-68(s0)
   14990:	fbb44783          	lbu	a5,-69(s0)
   14994:	fd442703          	lw	a4,-44(s0)
   14998:	40f707b3          	sub	a5,a4,a5
   1499c:	fcf42a23          	sw	a5,-44(s0)
   149a0:	fc442783          	lw	a5,-60(s0)
   149a4:	00178713          	addi	a4,a5,1
   149a8:	fce42223          	sw	a4,-60(s0)
   149ac:	0007c783          	lbu	a5,0(a5)
   149b0:	40f007b3          	neg	a5,a5
   149b4:	fc842703          	lw	a4,-56(s0)
   149b8:	97ba                	add	a5,a5,a4
   149ba:	0007c783          	lbu	a5,0(a5)
   149be:	faf40da3          	sb	a5,-69(s0)
   149c2:	fbb44783          	lbu	a5,-69(s0)
   149c6:	fbc42703          	lw	a4,-68(s0)
   149ca:	97ba                	add	a5,a5,a4
   149cc:	faf42e23          	sw	a5,-68(s0)
   149d0:	fc442783          	lw	a5,-60(s0)
   149d4:	00178713          	addi	a4,a5,1
   149d8:	fce42223          	sw	a4,-60(s0)
   149dc:	0007c783          	lbu	a5,0(a5)
   149e0:	40f007b3          	neg	a5,a5
   149e4:	fc842703          	lw	a4,-56(s0)
   149e8:	97ba                	add	a5,a5,a4
   149ea:	0007c783          	lbu	a5,0(a5)
   149ee:	faf40da3          	sb	a5,-69(s0)
   149f2:	fbb44783          	lbu	a5,-69(s0)
   149f6:	fc042703          	lw	a4,-64(s0)
   149fa:	97ba                	add	a5,a5,a4
   149fc:	fcf42023          	sw	a5,-64(s0)
   14a00:	fbb44783          	lbu	a5,-69(s0)
   14a04:	fbc42703          	lw	a4,-68(s0)
   14a08:	97ba                	add	a5,a5,a4
   14a0a:	faf42e23          	sw	a5,-68(s0)
   14a0e:	fbb44783          	lbu	a5,-69(s0)
   14a12:	fd442703          	lw	a4,-44(s0)
   14a16:	97ba                	add	a5,a5,a4
   14a18:	fcf42a23          	sw	a5,-44(s0)
   14a1c:	fc442783          	lw	a5,-60(s0)
   14a20:	00178713          	addi	a4,a5,1
   14a24:	fce42223          	sw	a4,-60(s0)
   14a28:	0007c783          	lbu	a5,0(a5)
   14a2c:	40f007b3          	neg	a5,a5
   14a30:	fc842703          	lw	a4,-56(s0)
   14a34:	97ba                	add	a5,a5,a4
   14a36:	0007c783          	lbu	a5,0(a5)
   14a3a:	faf40da3          	sb	a5,-69(s0)
   14a3e:	fbb44783          	lbu	a5,-69(s0)
   14a42:	078a                	slli	a5,a5,0x2
   14a44:	fc042703          	lw	a4,-64(s0)
   14a48:	97ba                	add	a5,a5,a4
   14a4a:	fcf42023          	sw	a5,-64(s0)
   14a4e:	fbb44783          	lbu	a5,-69(s0)
   14a52:	fbc42703          	lw	a4,-68(s0)
   14a56:	97ba                	add	a5,a5,a4
   14a58:	faf42e23          	sw	a5,-68(s0)
   14a5c:	fbb44783          	lbu	a5,-69(s0)
   14a60:	0786                	slli	a5,a5,0x1
   14a62:	fd442703          	lw	a4,-44(s0)
   14a66:	97ba                	add	a5,a5,a4
   14a68:	fcf42a23          	sw	a5,-44(s0)
   14a6c:	fc442783          	lw	a5,-60(s0)
   14a70:	0007c783          	lbu	a5,0(a5)
   14a74:	40f007b3          	neg	a5,a5
   14a78:	fc842703          	lw	a4,-56(s0)
   14a7c:	97ba                	add	a5,a5,a4
   14a7e:	0007c783          	lbu	a5,0(a5)
   14a82:	faf40da3          	sb	a5,-69(s0)
   14a86:	fbb44703          	lbu	a4,-69(s0)
   14a8a:	87ba                	mv	a5,a4
   14a8c:	078e                	slli	a5,a5,0x3
   14a8e:	97ba                	add	a5,a5,a4
   14a90:	fc042703          	lw	a4,-64(s0)
   14a94:	97ba                	add	a5,a5,a4
   14a96:	fcf42023          	sw	a5,-64(s0)
   14a9a:	fbb44783          	lbu	a5,-69(s0)
   14a9e:	fbc42703          	lw	a4,-68(s0)
   14aa2:	97ba                	add	a5,a5,a4
   14aa4:	faf42e23          	sw	a5,-68(s0)
   14aa8:	fbb44703          	lbu	a4,-69(s0)
   14aac:	87ba                	mv	a5,a4
   14aae:	0786                	slli	a5,a5,0x1
   14ab0:	97ba                	add	a5,a5,a4
   14ab2:	fd442703          	lw	a4,-44(s0)
   14ab6:	97ba                	add	a5,a5,a4
   14ab8:	fcf42a23          	sw	a5,-44(s0)
   14abc:	f9842783          	lw	a5,-104(s0)
   14ac0:	17ed                	addi	a5,a5,-5
   14ac2:	fc442703          	lw	a4,-60(s0)
   14ac6:	97ba                	add	a5,a5,a4
   14ac8:	fcf42223          	sw	a5,-60(s0)
   14acc:	fc442783          	lw	a5,-60(s0)
   14ad0:	00178713          	addi	a4,a5,1
   14ad4:	fce42223          	sw	a4,-60(s0)
   14ad8:	0007c783          	lbu	a5,0(a5)
   14adc:	40f007b3          	neg	a5,a5
   14ae0:	fc842703          	lw	a4,-56(s0)
   14ae4:	97ba                	add	a5,a5,a4
   14ae6:	0007c783          	lbu	a5,0(a5)
   14aea:	faf40da3          	sb	a5,-69(s0)
   14aee:	fbb44783          	lbu	a5,-69(s0)
   14af2:	078a                	slli	a5,a5,0x2
   14af4:	fc042703          	lw	a4,-64(s0)
   14af8:	97ba                	add	a5,a5,a4
   14afa:	fcf42023          	sw	a5,-64(s0)
   14afe:	fbb44783          	lbu	a5,-69(s0)
   14b02:	078a                	slli	a5,a5,0x2
   14b04:	fbc42703          	lw	a4,-68(s0)
   14b08:	97ba                	add	a5,a5,a4
   14b0a:	faf42e23          	sw	a5,-68(s0)
   14b0e:	fbb44783          	lbu	a5,-69(s0)
   14b12:	078a                	slli	a5,a5,0x2
   14b14:	fd442703          	lw	a4,-44(s0)
   14b18:	40f707b3          	sub	a5,a4,a5
   14b1c:	fcf42a23          	sw	a5,-44(s0)
   14b20:	fc442783          	lw	a5,-60(s0)
   14b24:	00178713          	addi	a4,a5,1
   14b28:	fce42223          	sw	a4,-60(s0)
   14b2c:	0007c783          	lbu	a5,0(a5)
   14b30:	40f007b3          	neg	a5,a5
   14b34:	fc842703          	lw	a4,-56(s0)
   14b38:	97ba                	add	a5,a5,a4
   14b3a:	0007c783          	lbu	a5,0(a5)
   14b3e:	faf40da3          	sb	a5,-69(s0)
   14b42:	fbb44783          	lbu	a5,-69(s0)
   14b46:	fc042703          	lw	a4,-64(s0)
   14b4a:	97ba                	add	a5,a5,a4
   14b4c:	fcf42023          	sw	a5,-64(s0)
   14b50:	fbb44783          	lbu	a5,-69(s0)
   14b54:	078a                	slli	a5,a5,0x2
   14b56:	fbc42703          	lw	a4,-68(s0)
   14b5a:	97ba                	add	a5,a5,a4
   14b5c:	faf42e23          	sw	a5,-68(s0)
   14b60:	fbb44783          	lbu	a5,-69(s0)
   14b64:	0786                	slli	a5,a5,0x1
   14b66:	fd442703          	lw	a4,-44(s0)
   14b6a:	40f707b3          	sub	a5,a4,a5
   14b6e:	fcf42a23          	sw	a5,-44(s0)
   14b72:	fc442783          	lw	a5,-60(s0)
   14b76:	00178713          	addi	a4,a5,1
   14b7a:	fce42223          	sw	a4,-60(s0)
   14b7e:	0007c783          	lbu	a5,0(a5)
   14b82:	40f007b3          	neg	a5,a5
   14b86:	fc842703          	lw	a4,-56(s0)
   14b8a:	97ba                	add	a5,a5,a4
   14b8c:	0007c783          	lbu	a5,0(a5)
   14b90:	faf40da3          	sb	a5,-69(s0)
   14b94:	fbb44783          	lbu	a5,-69(s0)
   14b98:	078a                	slli	a5,a5,0x2
   14b9a:	fbc42703          	lw	a4,-68(s0)
   14b9e:	97ba                	add	a5,a5,a4
