
./bitcnts_O3:     file format elf32-littleriscv


Disassembly of section .text:

000100b4 <exit>:
   100b4:	1141                	c.addi	sp,-16
   100b6:	4581                	c.li	a1,0
   100b8:	c422                	c.swsp	s0,8(sp)
   100ba:	c606                	c.swsp	ra,12(sp)
   100bc:	842a                	c.mv	s0,a0
   100be:	4b6020ef          	jal	ra,12574 <__call_exitprocs>
   100c2:	f3c1a783          	lw	a5,-196(gp) # 1dacc <__stdio_exit_handler>
   100c6:	c391                	c.beqz	a5,100ca <exit+0x16>
   100c8:	9782                	c.jalr	a5
   100ca:	8522                	c.mv	a0,s0
   100cc:	13a090ef          	jal	ra,19206 <_exit>

000100d0 <main>:
   100d0:	7119                	c.addi16sp	sp,-128
   100d2:	de86                	c.swsp	ra,124(sp)
   100d4:	dca2                	c.swsp	s0,120(sp)
   100d6:	daa6                	c.swsp	s1,116(sp)
   100d8:	d8ca                	c.swsp	s2,112(sp)
   100da:	d6ce                	c.swsp	s3,108(sp)
   100dc:	d4d2                	c.swsp	s4,104(sp)
   100de:	d2d6                	c.swsp	s5,100(sp)
   100e0:	d0da                	c.swsp	s6,96(sp)
   100e2:	cede                	c.swsp	s7,92(sp)
   100e4:	cce2                	c.swsp	s8,88(sp)
   100e6:	cae6                	c.swsp	s9,84(sp)
   100e8:	c8ea                	c.swsp	s10,80(sp)
   100ea:	c6ee                	c.swsp	s11,76(sp)
   100ec:	bc22                	c.fsdsp	fs0,56(sp)
   100ee:	b826                	c.fsdsp	fs1,48(sp)
   100f0:	b44a                	c.fsdsp	fs2,40(sp)
   100f2:	4785                	c.li	a5,1
   100f4:	10a7d063          	bge	a5,a0,101f4 <main+0x124>
   100f8:	41c8                	c.lw	a0,4(a1)
   100fa:	6cf1                	c.lui	s9,0x1c
   100fc:	d2000453          	fcvt.d.w	fs0,zero
   10100:	2379                	c.jal	1068e <atoi>
   10102:	8baa                	c.mv	s7,a0
   10104:	6571                	c.lui	a0,0x1c
   10106:	a5850513          	addi	a0,a0,-1448 # 1ba58 <bits+0x120>
   1010a:	121010ef          	jal	ra,11a2a <puts>
   1010e:	001b9b13          	slli	s6,s7,0x1
   10112:	ea81b487          	fld	fs1,-344(gp) # 1da38 <__SDATA_BEGIN__>
   10116:	9b5e                	c.add	s6,s7
   10118:	eb01b907          	fld	fs2,-336(gp) # 1da40 <__SDATA_BEGIN__+0x8>
   1011c:	0b0a                	c.slli	s6,0x2
   1011e:	cf0c8793          	addi	a5,s9,-784 # 1bcf0 <text.0>
   10122:	6c71                	c.lui	s8,0x1c
   10124:	ce3e                	c.swsp	a5,28(sp)
   10126:	9b5e                	c.add	s6,s7
   10128:	89be                	c.mv	s3,a5
   1012a:	01c78a13          	addi	s4,a5,28
   1012e:	a7cc0c13          	addi	s8,s8,-1412 # 1ba7c <bits+0x144>
   10132:	4901                	c.li	s2,0
   10134:	4d9d                	c.li	s11,7
   10136:	08c020ef          	jal	ra,121c2 <clock>
   1013a:	8aaa                	c.mv	s5,a0
   1013c:	393000ef          	jal	ra,10cce <rand>
   10140:	8caa                	c.mv	s9,a0
   10142:	0b705763          	bge	zero,s7,101f0 <main+0x120>
   10146:	000a2483          	lw	s1,0(s4)
   1014a:	01650433          	add	s0,a0,s6
   1014e:	4d01                	c.li	s10,0
   10150:	8566                	c.mv	a0,s9
   10152:	9482                	c.jalr	s1
   10154:	0cb5                	c.addi	s9,13
   10156:	9d2a                	c.add	s10,a0
   10158:	ff941ce3          	bne	s0,s9,10150 <main+0x80>
   1015c:	066020ef          	jal	ra,121c2 <clock>
   10160:	41550533          	sub	a0,a0,s5
   10164:	d21507d3          	fcvt.d.wu	fa5,a0
   10168:	1b27f7d3          	fdiv.d	fa5,fa5,fs2
   1016c:	a29797d3          	flt.d	a5,fa5,fs1
   10170:	c781                	c.beqz	a5,10178 <main+0xa8>
   10172:	22f784d3          	fsgnj.d	fs1,fa5,fa5
   10176:	ca4a                	c.swsp	s2,20(sp)
   10178:	a2f417d3          	flt.d	a5,fs0,fa5
   1017c:	c781                	c.beqz	a5,10184 <main+0xb4>
   1017e:	22f78453          	fsgnj.d	fs0,fa5,fa5
   10182:	cc4a                	c.swsp	s2,24(sp)
   10184:	a43e                	c.fsdsp	fa5,8(sp)
   10186:	0009a583          	lw	a1,0(s3)
   1018a:	4622                	c.lwsp	a2,8(sp)
   1018c:	46b2                	c.lwsp	a3,12(sp)
   1018e:	876a                	c.mv	a4,s10
   10190:	8562                	c.mv	a0,s8
   10192:	0905                	c.addi	s2,1
   10194:	6d8010ef          	jal	ra,1186c <printf>
   10198:	0991                	c.addi	s3,4
   1019a:	0a11                	c.addi	s4,4
   1019c:	f9b91de3          	bne	s2,s11,10136 <main+0x66>
   101a0:	47d2                	c.lwsp	a5,20(sp)
   101a2:	4472                	c.lwsp	s0,28(sp)
   101a4:	6571                	c.lui	a0,0x1c
   101a6:	078a                	c.slli	a5,0x2
   101a8:	97a2                	c.add	a5,s0
   101aa:	438c                	c.lw	a1,0(a5)
   101ac:	aa050513          	addi	a0,a0,-1376 # 1baa0 <bits+0x168>
   101b0:	6bc010ef          	jal	ra,1186c <printf>
   101b4:	47e2                	c.lwsp	a5,24(sp)
   101b6:	6571                	c.lui	a0,0x1c
   101b8:	ab050513          	addi	a0,a0,-1360 # 1bab0 <bits+0x178>
   101bc:	078a                	c.slli	a5,0x2
   101be:	00f40cb3          	add	s9,s0,a5
   101c2:	000ca583          	lw	a1,0(s9)
   101c6:	6a6010ef          	jal	ra,1186c <printf>
   101ca:	50f6                	c.lwsp	ra,124(sp)
   101cc:	5466                	c.lwsp	s0,120(sp)
   101ce:	54d6                	c.lwsp	s1,116(sp)
   101d0:	5946                	c.lwsp	s2,112(sp)
   101d2:	59b6                	c.lwsp	s3,108(sp)
   101d4:	5a26                	c.lwsp	s4,104(sp)
   101d6:	5a96                	c.lwsp	s5,100(sp)
   101d8:	5b06                	c.lwsp	s6,96(sp)
   101da:	4bf6                	c.lwsp	s7,92(sp)
   101dc:	4c66                	c.lwsp	s8,88(sp)
   101de:	4cd6                	c.lwsp	s9,84(sp)
   101e0:	4d46                	c.lwsp	s10,80(sp)
   101e2:	4db6                	c.lwsp	s11,76(sp)
   101e4:	3462                	c.fldsp	fs0,56(sp)
   101e6:	34c2                	c.fldsp	fs1,48(sp)
   101e8:	3922                	c.fldsp	fs2,40(sp)
   101ea:	4501                	c.li	a0,0
   101ec:	6109                	c.addi16sp	sp,128
   101ee:	8082                	c.jr	ra
   101f0:	4d01                	c.li	s10,0
   101f2:	b7ad                	c.j	1015c <main+0x8c>
   101f4:	f2c1a703          	lw	a4,-212(gp) # 1dabc <_impure_ptr>
   101f8:	6571                	c.lui	a0,0x1c
   101fa:	85be                	c.mv	a1,a5
   101fc:	4754                	c.lw	a3,12(a4)
   101fe:	a3850513          	addi	a0,a0,-1480 # 1ba38 <bits+0x100>
   10202:	4671                	c.li	a2,28
   10204:	5aa010ef          	jal	ra,117ae <fwrite>
   10208:	557d                	c.li	a0,-1
   1020a:	356d                	c.jal	100b4 <exit>

0001020c <register_fini>:
   1020c:	00000793          	addi	a5,zero,0
   10210:	c791                	c.beqz	a5,1021c <register_fini+0x10>
   10212:	6555                	c.lui	a0,0x15
   10214:	2aa50513          	addi	a0,a0,682 # 152aa <__libc_fini_array>
   10218:	42a0206f          	jal	zero,12642 <atexit>
   1021c:	8082                	c.jr	ra

0001021e <_start>:
   1021e:	0000e197          	auipc	gp,0xe
   10222:	97218193          	addi	gp,gp,-1678 # 1db90 <__global_pointer$>
   10226:	0000e517          	auipc	a0,0xe
   1022a:	89a50513          	addi	a0,a0,-1894 # 1dac0 <__malloc_max_total_mem>
   1022e:	0000e617          	auipc	a2,0xe
   10232:	bda60613          	addi	a2,a2,-1062 # 1de08 <__BSS_END__>
   10236:	8e09                	c.sub	a2,a0
   10238:	4581                	c.li	a1,0
   1023a:	22e020ef          	jal	ra,12468 <memset>
   1023e:	00002517          	auipc	a0,0x2
   10242:	40450513          	addi	a0,a0,1028 # 12642 <atexit>
   10246:	c519                	c.beqz	a0,10254 <_start+0x36>
   10248:	00005517          	auipc	a0,0x5
   1024c:	06250513          	addi	a0,a0,98 # 152aa <__libc_fini_array>
   10250:	3f2020ef          	jal	ra,12642 <atexit>
   10254:	1b2020ef          	jal	ra,12406 <__libc_init_array>
   10258:	4502                	c.lwsp	a0,0(sp)
   1025a:	004c                	c.addi4spn	a1,sp,4
   1025c:	4601                	c.li	a2,0
   1025e:	3d8d                	c.jal	100d0 <main>
   10260:	bd91                	c.j	100b4 <exit>

00010262 <__do_global_dtors_aux>:
   10262:	1141                	c.addi	sp,-16
   10264:	c422                	c.swsp	s0,8(sp)
   10266:	f581c783          	lbu	a5,-168(gp) # 1dae8 <completed.1>
   1026a:	c606                	c.swsp	ra,12(sp)
   1026c:	ef91                	c.bnez	a5,10288 <__do_global_dtors_aux+0x26>
   1026e:	00000793          	addi	a5,zero,0
   10272:	cb81                	c.beqz	a5,10282 <__do_global_dtors_aux+0x20>
   10274:	6571                	c.lui	a0,0x1c
   10276:	37c50513          	addi	a0,a0,892 # 1c37c <__EH_FRAME_BEGIN__>
   1027a:	00000097          	auipc	ra,0x0
   1027e:	000000e7          	jalr	ra,0(zero) # 0 <exit-0x100b4>
   10282:	4785                	c.li	a5,1
   10284:	f4f18c23          	sb	a5,-168(gp) # 1dae8 <completed.1>
   10288:	40b2                	c.lwsp	ra,12(sp)
   1028a:	4422                	c.lwsp	s0,8(sp)
   1028c:	0141                	c.addi	sp,16
   1028e:	8082                	c.jr	ra

00010290 <frame_dummy>:
   10290:	00000793          	addi	a5,zero,0
   10294:	cb91                	c.beqz	a5,102a8 <frame_dummy+0x18>
   10296:	6571                	c.lui	a0,0x1c
   10298:	f5c18593          	addi	a1,gp,-164 # 1daec <object.0>
   1029c:	37c50513          	addi	a0,a0,892 # 1c37c <__EH_FRAME_BEGIN__>
   102a0:	00000317          	auipc	t1,0x0
   102a4:	00000067          	jalr	zero,0(zero) # 0 <exit-0x100b4>
   102a8:	8082                	c.jr	ra

000102aa <bit_count>:
   102aa:	c901                	c.beqz	a0,102ba <bit_count+0x10>
   102ac:	87aa                	c.mv	a5,a0
   102ae:	4501                	c.li	a0,0
   102b0:	fff78713          	addi	a4,a5,-1
   102b4:	8ff9                	c.and	a5,a4
   102b6:	0505                	c.addi	a0,1
   102b8:	ffe5                	c.bnez	a5,102b0 <bit_count+0x6>
   102ba:	8082                	c.jr	ra

000102bc <bitcount>:
   102bc:	555557b7          	lui	a5,0x55555
   102c0:	55578793          	addi	a5,a5,1365 # 55555555 <__BSS_END__+0x5553774d>
   102c4:	00155713          	srli	a4,a0,0x1
   102c8:	8f7d                	c.and	a4,a5
   102ca:	8d7d                	c.and	a0,a5
   102cc:	972a                	c.add	a4,a0
   102ce:	333336b7          	lui	a3,0x33333
   102d2:	33368693          	addi	a3,a3,819 # 33333333 <__BSS_END__+0x3331552b>
   102d6:	00275793          	srli	a5,a4,0x2
   102da:	8ff5                	c.and	a5,a3
   102dc:	8f75                	c.and	a4,a3
   102de:	97ba                	c.add	a5,a4
   102e0:	0f0f16b7          	lui	a3,0xf0f1
   102e4:	f0f68693          	addi	a3,a3,-241 # f0f0f0f <__BSS_END__+0xf0d3107>
   102e8:	0047d713          	srli	a4,a5,0x4
   102ec:	8f75                	c.and	a4,a3
   102ee:	8ff5                	c.and	a5,a3
   102f0:	973e                	c.add	a4,a5
   102f2:	00ff06b7          	lui	a3,0xff0
   102f6:	0ff68693          	addi	a3,a3,255 # ff00ff <__BSS_END__+0xfd22f7>
   102fa:	00875793          	srli	a5,a4,0x8
   102fe:	8ff5                	c.and	a5,a3
   10300:	8f75                	c.and	a4,a3
   10302:	97ba                	c.add	a5,a4
   10304:	01079513          	slli	a0,a5,0x10
   10308:	8141                	c.srli	a0,0x10
   1030a:	83c1                	c.srli	a5,0x10
   1030c:	953e                	c.add	a0,a5
   1030e:	8082                	c.jr	ra

00010310 <ntbl_bitcount>:
   10310:	00455793          	srli	a5,a0,0x4
   10314:	6771                	c.lui	a4,0x1c
   10316:	83870713          	addi	a4,a4,-1992 # 1b838 <bits>
   1031a:	00f57593          	andi	a1,a0,15
   1031e:	00855613          	srli	a2,a0,0x8
   10322:	8bbd                	c.andi	a5,15
   10324:	95ba                	c.add	a1,a4
   10326:	97ba                	c.add	a5,a4
   10328:	00c55693          	srli	a3,a0,0xc
   1032c:	8a3d                	c.andi	a2,15
   1032e:	0005c303          	lbu	t1,0(a1)
   10332:	963a                	c.add	a2,a4
   10334:	0007c783          	lbu	a5,0(a5)
   10338:	01055593          	srli	a1,a0,0x10
   1033c:	8abd                	c.andi	a3,15
   1033e:	00064883          	lbu	a7,0(a2)
   10342:	96ba                	c.add	a3,a4
   10344:	01455613          	srli	a2,a0,0x14
   10348:	89bd                	c.andi	a1,15
   1034a:	0006c803          	lbu	a6,0(a3)
   1034e:	95ba                	c.add	a1,a4
   10350:	01855693          	srli	a3,a0,0x18
   10354:	8a3d                	c.andi	a2,15
   10356:	0005c583          	lbu	a1,0(a1)
   1035a:	979a                	c.add	a5,t1
   1035c:	963a                	c.add	a2,a4
   1035e:	8abd                	c.andi	a3,15
   10360:	00064603          	lbu	a2,0(a2)
   10364:	97c6                	c.add	a5,a7
   10366:	96ba                	c.add	a3,a4
   10368:	8171                	c.srli	a0,0x1c
   1036a:	0006c683          	lbu	a3,0(a3)
   1036e:	97c2                	c.add	a5,a6
   10370:	972a                	c.add	a4,a0
   10372:	00074503          	lbu	a0,0(a4)
   10376:	97ae                	c.add	a5,a1
   10378:	97b2                	c.add	a5,a2
   1037a:	97b6                	c.add	a5,a3
   1037c:	953e                	c.add	a0,a5
   1037e:	8082                	c.jr	ra

00010380 <BW_btbl_bitcount>:
   10380:	00855713          	srli	a4,a0,0x8
   10384:	67f1                	c.lui	a5,0x1c
   10386:	83878793          	addi	a5,a5,-1992 # 1b838 <bits>
   1038a:	0ff57613          	andi	a2,a0,255
   1038e:	0ff77713          	andi	a4,a4,255
   10392:	973e                	c.add	a4,a5
   10394:	963e                	c.add	a2,a5
   10396:	01855693          	srli	a3,a0,0x18
   1039a:	8141                	c.srli	a0,0x10
   1039c:	00074583          	lbu	a1,0(a4)
   103a0:	96be                	c.add	a3,a5
   103a2:	00064703          	lbu	a4,0(a2)
   103a6:	0ff57513          	andi	a0,a0,255
   103aa:	0006c683          	lbu	a3,0(a3)
   103ae:	97aa                	c.add	a5,a0
   103b0:	0007c503          	lbu	a0,0(a5)
   103b4:	00b707b3          	add	a5,a4,a1
   103b8:	97b6                	c.add	a5,a3
   103ba:	953e                	c.add	a0,a5
   103bc:	8082                	c.jr	ra

000103be <AR_btbl_bitcount>:
   103be:	00855693          	srli	a3,a0,0x8
   103c2:	67f1                	c.lui	a5,0x1c
   103c4:	83878793          	addi	a5,a5,-1992 # 1b838 <bits>
   103c8:	0ff57613          	andi	a2,a0,255
   103cc:	01055713          	srli	a4,a0,0x10
   103d0:	0ff6f693          	andi	a3,a3,255
   103d4:	96be                	c.add	a3,a5
   103d6:	963e                	c.add	a2,a5
   103d8:	0ff77713          	andi	a4,a4,255
   103dc:	0006c683          	lbu	a3,0(a3)
   103e0:	00064603          	lbu	a2,0(a2)
   103e4:	973e                	c.add	a4,a5
   103e6:	8161                	c.srli	a0,0x18
   103e8:	00074703          	lbu	a4,0(a4)
   103ec:	97aa                	c.add	a5,a0
   103ee:	0007c503          	lbu	a0,0(a5)
   103f2:	96b2                	c.add	a3,a2
   103f4:	9736                	c.add	a4,a3
   103f6:	953a                	c.add	a0,a4
   103f8:	8082                	c.jr	ra

000103fa <ntbl_bitcnt>:
   103fa:	6671                	c.lui	a2,0x1c
   103fc:	00f57713          	andi	a4,a0,15
   10400:	93860613          	addi	a2,a2,-1736 # 1b938 <bits>
   10404:	40455793          	srai	a5,a0,0x4
   10408:	9732                	c.add	a4,a2
   1040a:	00074503          	lbu	a0,0(a4)
   1040e:	cb99                	c.beqz	a5,10424 <ntbl_bitcnt+0x2a>
   10410:	4681                	c.li	a3,0
   10412:	00f7f713          	andi	a4,a5,15
   10416:	9732                	c.add	a4,a2
   10418:	8791                	c.srai	a5,0x4
   1041a:	96aa                	c.add	a3,a0
   1041c:	00074503          	lbu	a0,0(a4)
   10420:	fbed                	c.bnez	a5,10412 <ntbl_bitcnt+0x18>
   10422:	9536                	c.add	a0,a3
   10424:	8082                	c.jr	ra

00010426 <btbl_bitcnt>:
   10426:	6671                	c.lui	a2,0x1c
   10428:	0ff57713          	andi	a4,a0,255
   1042c:	93860613          	addi	a2,a2,-1736 # 1b938 <bits>
   10430:	40855793          	srai	a5,a0,0x8
   10434:	9732                	c.add	a4,a2
   10436:	00074503          	lbu	a0,0(a4)
   1043a:	cb99                	c.beqz	a5,10450 <btbl_bitcnt+0x2a>
   1043c:	4681                	c.li	a3,0
   1043e:	0ff7f713          	andi	a4,a5,255
   10442:	9732                	c.add	a4,a2
   10444:	87a1                	c.srai	a5,0x8
   10446:	96aa                	c.add	a3,a0
   10448:	00074503          	lbu	a0,0(a4)
   1044c:	fbed                	c.bnez	a5,1043e <btbl_bitcnt+0x18>
   1044e:	9536                	c.add	a0,a3
   10450:	8082                	c.jr	ra

00010452 <bit_shifter>:
   10452:	87aa                	c.mv	a5,a0
   10454:	4501                	c.li	a0,0
   10456:	cf81                	c.beqz	a5,1046e <bit_shifter+0x1c>
   10458:	4701                	c.li	a4,0
   1045a:	0017f693          	andi	a3,a5,1
   1045e:	0705                	c.addi	a4,1
   10460:	8785                	c.srai	a5,0x1
   10462:	fe070613          	addi	a2,a4,-32
   10466:	9536                	c.add	a0,a3
   10468:	c399                	c.beqz	a5,1046e <bit_shifter+0x1c>
   1046a:	fa65                	c.bnez	a2,1045a <bit_shifter+0x8>
   1046c:	8082                	c.jr	ra
   1046e:	8082                	c.jr	ra

00010470 <bfopen>:
   10470:	1101                	c.addi	sp,-32
   10472:	ca26                	c.swsp	s1,20(sp)
   10474:	84aa                	c.mv	s1,a0
   10476:	4521                	c.li	a0,8
   10478:	ce06                	c.swsp	ra,28(sp)
   1047a:	cc22                	c.swsp	s0,24(sp)
   1047c:	c62e                	c.swsp	a1,12(sp)
   1047e:	2405                	c.jal	1069e <malloc>
   10480:	c505                	c.beqz	a0,104a8 <bfopen+0x38>
   10482:	45b2                	c.lwsp	a1,12(sp)
   10484:	842a                	c.mv	s0,a0
   10486:	8526                	c.mv	a0,s1
   10488:	1ae010ef          	jal	ra,11636 <fopen>
   1048c:	c008                	c.sw	a0,0(s0)
   1048e:	c919                	c.beqz	a0,104a4 <bfopen+0x34>
   10490:	000402a3          	sb	zero,5(s0)
   10494:	000403a3          	sb	zero,7(s0)
   10498:	40f2                	c.lwsp	ra,28(sp)
   1049a:	8522                	c.mv	a0,s0
   1049c:	4462                	c.lwsp	s0,24(sp)
   1049e:	44d2                	c.lwsp	s1,20(sp)
   104a0:	6105                	c.addi16sp	sp,32
   104a2:	8082                	c.jr	ra
   104a4:	8522                	c.mv	a0,s0
   104a6:	2401                	c.jal	106a6 <free>
   104a8:	4401                	c.li	s0,0
   104aa:	b7fd                	c.j	10498 <bfopen+0x28>

000104ac <bfread>:
   104ac:	00554783          	lbu	a5,5(a0)
   104b0:	872a                	c.mv	a4,a0
   104b2:	cf81                	c.beqz	a5,104ca <bfread+0x1e>
   104b4:	00454503          	lbu	a0,4(a0)
   104b8:	17fd                	c.addi	a5,-1
   104ba:	0ff7f793          	andi	a5,a5,255
   104be:	40f55533          	sra	a0,a0,a5
   104c2:	8905                	c.andi	a0,1
   104c4:	00f702a3          	sb	a5,5(a4)
   104c8:	8082                	c.jr	ra
   104ca:	4108                	c.lw	a0,0(a0)
   104cc:	1101                	c.addi	sp,-32
   104ce:	ce06                	c.swsp	ra,28(sp)
   104d0:	c63a                	c.swsp	a4,12(sp)
   104d2:	5e7000ef          	jal	ra,112b8 <fgetc>
   104d6:	4732                	c.lwsp	a4,12(sp)
   104d8:	0ff57513          	andi	a0,a0,255
   104dc:	469d                	c.li	a3,7
   104de:	00a70223          	sb	a0,4(a4)
   104e2:	00d702a3          	sb	a3,5(a4)
   104e6:	40f2                	c.lwsp	ra,28(sp)
   104e8:	40d55533          	sra	a0,a0,a3
   104ec:	8905                	c.andi	a0,1
   104ee:	6105                	c.addi16sp	sp,32
   104f0:	8082                	c.jr	ra

000104f2 <bfwrite>:
   104f2:	0075c703          	lbu	a4,7(a1)
   104f6:	4621                	c.li	a2,8
   104f8:	87ae                	c.mv	a5,a1
   104fa:	86aa                	c.mv	a3,a0
   104fc:	00c70d63          	beq	a4,a2,10516 <bfwrite+0x24>
   10500:	0065c503          	lbu	a0,6(a1)
   10504:	8a85                	c.andi	a3,1
   10506:	0705                	c.addi	a4,1
   10508:	0506                	c.slli	a0,0x1
   1050a:	8d55                	c.or	a0,a3
   1050c:	00e583a3          	sb	a4,7(a1)
   10510:	00a58323          	sb	a0,6(a1)
   10514:	8082                	c.jr	ra
   10516:	1101                	c.addi	sp,-32
   10518:	ce06                	c.swsp	ra,28(sp)
   1051a:	c62a                	c.swsp	a0,12(sp)
   1051c:	418c                	c.lw	a1,0(a1)
   1051e:	0067c503          	lbu	a0,6(a5)
   10522:	c43e                	c.swsp	a5,8(sp)
   10524:	144010ef          	jal	ra,11668 <fputc>
   10528:	47a2                	c.lwsp	a5,8(sp)
   1052a:	46b2                	c.lwsp	a3,12(sp)
   1052c:	4705                	c.li	a4,1
   1052e:	0067c503          	lbu	a0,6(a5)
   10532:	8a85                	c.andi	a3,1
   10534:	00e783a3          	sb	a4,7(a5)
   10538:	0506                	c.slli	a0,0x1
   1053a:	8d55                	c.or	a0,a3
   1053c:	00a78323          	sb	a0,6(a5)
   10540:	40f2                	c.lwsp	ra,28(sp)
   10542:	6105                	c.addi16sp	sp,32
   10544:	8082                	c.jr	ra

00010546 <bfclose>:
   10546:	1141                	c.addi	sp,-16
   10548:	c422                	c.swsp	s0,8(sp)
   1054a:	842a                	c.mv	s0,a0
   1054c:	4108                	c.lw	a0,0(a0)
   1054e:	c606                	c.swsp	ra,12(sp)
   10550:	2e7000ef          	jal	ra,11036 <fclose>
   10554:	8522                	c.mv	a0,s0
   10556:	4422                	c.lwsp	s0,8(sp)
   10558:	40b2                	c.lwsp	ra,12(sp)
   1055a:	0141                	c.addi	sp,16
   1055c:	a2a9                	c.j	106a6 <free>

0001055e <bitstring>:
   1055e:	87b2                	c.mv	a5,a2
   10560:	4027d713          	srai	a4,a5,0x2
   10564:	8a0d                	c.andi	a2,3
   10566:	00163613          	sltiu	a2,a2,1
   1056a:	973e                	c.add	a4,a5
   1056c:	8f11                	c.sub	a4,a2
   1056e:	40e68633          	sub	a2,a3,a4
   10572:	882e                	c.mv	a6,a1
   10574:	872a                	c.mv	a4,a0
   10576:	06c05c63          	bge	zero,a2,105ee <bitstring+0x90>
   1057a:	1101                	c.addi	sp,-32
   1057c:	c42e                	c.swsp	a1,8(sp)
   1057e:	02000593          	addi	a1,zero,32
   10582:	c63e                	c.swsp	a5,12(sp)
   10584:	c032                	c.swsp	a2,0(sp)
   10586:	ce06                	c.swsp	ra,28(sp)
   10588:	c22a                	c.swsp	a0,4(sp)
   1058a:	6df010ef          	jal	ra,12468 <memset>
   1058e:	4602                	c.lwsp	a2,0(sp)
   10590:	4712                	c.lwsp	a4,4(sp)
   10592:	47b2                	c.lwsp	a5,12(sp)
   10594:	4822                	c.lwsp	a6,8(sp)
   10596:	9732                	c.add	a4,a2
   10598:	fff78613          	addi	a2,a5,-1
   1059c:	0a064263          	blt	a2,zero,10640 <bitstring+0xe2>
   105a0:	02000593          	addi	a1,zero,32
   105a4:	40c857b3          	sra	a5,a6,a2
   105a8:	8b85                	c.andi	a5,1
   105aa:	03078793          	addi	a5,a5,48
   105ae:	00f70023          	sb	a5,0(a4)
   105b2:	00367793          	andi	a5,a2,3
   105b6:	00170693          	addi	a3,a4,1
   105ba:	cf99                	c.beqz	a5,105d8 <bitstring+0x7a>
   105bc:	167d                	c.addi	a2,-1
   105be:	40c857b3          	sra	a5,a6,a2
   105c2:	8b85                	c.andi	a5,1
   105c4:	8736                	c.mv	a4,a3
   105c6:	03078793          	addi	a5,a5,48
   105ca:	00f70023          	sb	a5,0(a4)
   105ce:	00367793          	andi	a5,a2,3
   105d2:	00170693          	addi	a3,a4,1
   105d6:	f3fd                	c.bnez	a5,105bc <bitstring+0x5e>
   105d8:	e611                	c.bnez	a2,105e4 <bitstring+0x86>
   105da:	00068023          	sb	zero,0(a3)
   105de:	40f2                	c.lwsp	ra,28(sp)
   105e0:	6105                	c.addi16sp	sp,32
   105e2:	8082                	c.jr	ra
   105e4:	00b700a3          	sb	a1,1(a4)
   105e8:	167d                	c.addi	a2,-1
   105ea:	0709                	c.addi	a4,2
   105ec:	bf65                	c.j	105a4 <bitstring+0x46>
   105ee:	fff78613          	addi	a2,a5,-1
   105f2:	04064963          	blt	a2,zero,10644 <bitstring+0xe6>
   105f6:	02000593          	addi	a1,zero,32
   105fa:	40c857b3          	sra	a5,a6,a2
   105fe:	8b85                	c.andi	a5,1
   10600:	03078793          	addi	a5,a5,48
   10604:	00f70023          	sb	a5,0(a4)
   10608:	00367793          	andi	a5,a2,3
   1060c:	00170693          	addi	a3,a4,1
   10610:	cf99                	c.beqz	a5,1062e <bitstring+0xd0>
   10612:	167d                	c.addi	a2,-1
   10614:	40c857b3          	sra	a5,a6,a2
   10618:	8b85                	c.andi	a5,1
   1061a:	8736                	c.mv	a4,a3
   1061c:	03078793          	addi	a5,a5,48
   10620:	00f70023          	sb	a5,0(a4)
   10624:	00367793          	andi	a5,a2,3
   10628:	00170693          	addi	a3,a4,1
   1062c:	f3fd                	c.bnez	a5,10612 <bitstring+0xb4>
   1062e:	e601                	c.bnez	a2,10636 <bitstring+0xd8>
   10630:	00068023          	sb	zero,0(a3)
   10634:	8082                	c.jr	ra
   10636:	00b700a3          	sb	a1,1(a4)
   1063a:	167d                	c.addi	a2,-1
   1063c:	0709                	c.addi	a4,2
   1063e:	bf75                	c.j	105fa <bitstring+0x9c>
   10640:	86ba                	c.mv	a3,a4
   10642:	bf61                	c.j	105da <bitstring+0x7c>
   10644:	86aa                	c.mv	a3,a0
   10646:	b7ed                	c.j	10630 <bitstring+0xd2>

00010648 <bstr_i>:
   10648:	1101                	c.addi	sp,-32
   1064a:	c84a                	c.swsp	s2,16(sp)
   1064c:	ce06                	c.swsp	ra,28(sp)
   1064e:	4901                	c.li	s2,0
   10650:	c915                	c.beqz	a0,10684 <bstr_i+0x3c>
   10652:	c64e                	c.swsp	s3,12(sp)
   10654:	69f1                	c.lui	s3,0x1c
   10656:	ca26                	c.swsp	s1,20(sp)
   10658:	cc22                	c.swsp	s0,24(sp)
   1065a:	84aa                	c.mv	s1,a0
   1065c:	ba498993          	addi	s3,s3,-1116 # 1bba4 <bits+0x26c>
   10660:	a811                	c.j	10674 <bstr_i+0x2c>
   10662:	273010ef          	jal	ra,120d4 <strchr>
   10666:	00191793          	slli	a5,s2,0x1
   1066a:	8805                	c.andi	s0,1
   1066c:	c909                	c.beqz	a0,1067e <bstr_i+0x36>
   1066e:	0485                	c.addi	s1,1
   10670:	00f46933          	or	s2,s0,a5
   10674:	0004c403          	lbu	s0,0(s1)
   10678:	854e                	c.mv	a0,s3
   1067a:	85a2                	c.mv	a1,s0
   1067c:	f07d                	c.bnez	s0,10662 <bstr_i+0x1a>
   1067e:	4462                	c.lwsp	s0,24(sp)
   10680:	44d2                	c.lwsp	s1,20(sp)
   10682:	49b2                	c.lwsp	s3,12(sp)
   10684:	40f2                	c.lwsp	ra,28(sp)
   10686:	854a                	c.mv	a0,s2
   10688:	4942                	c.lwsp	s2,16(sp)
   1068a:	6105                	c.addi16sp	sp,32
   1068c:	8082                	c.jr	ra

0001068e <atoi>:
   1068e:	4629                	c.li	a2,10
   10690:	4581                	c.li	a1,0
   10692:	0d70006f          	jal	zero,10f68 <strtol>

00010696 <_atoi_r>:
   10696:	46a9                	c.li	a3,10
   10698:	4601                	c.li	a2,0
   1069a:	07f0006f          	jal	zero,10f18 <_strtol_r>

0001069e <malloc>:
   1069e:	85aa                	c.mv	a1,a0
   106a0:	f2c1a503          	lw	a0,-212(gp) # 1dabc <_impure_ptr>
   106a4:	a031                	c.j	106b0 <_malloc_r>

000106a6 <free>:
   106a6:	85aa                	c.mv	a1,a0
   106a8:	f2c1a503          	lw	a0,-212(gp) # 1dabc <_impure_ptr>
   106ac:	0640206f          	jal	zero,12710 <_free_r>

000106b0 <_malloc_r>:
   106b0:	7139                	c.addi16sp	sp,-64
   106b2:	dc22                	c.swsp	s0,56(sp)
   106b4:	de06                	c.swsp	ra,60(sp)
   106b6:	00b58793          	addi	a5,a1,11
   106ba:	4759                	c.li	a4,22
   106bc:	842a                	c.mv	s0,a0
   106be:	04f76e63          	bltu	a4,a5,1071a <_malloc_r+0x6a>
   106c2:	46c1                	c.li	a3,16
   106c4:	04b6e463          	bltu	a3,a1,1070c <_malloc_r+0x5c>
   106c8:	2bd5                	c.jal	10cbc <__malloc_lock>
   106ca:	46c1                	c.li	a3,16
   106cc:	4761                	c.li	a4,24
   106ce:	4889                	c.li	a7,2
   106d0:	6875                	c.lui	a6,0x1d
   106d2:	39080813          	addi	a6,a6,912 # 1d390 <__malloc_av_>
   106d6:	9742                	c.add	a4,a6
   106d8:	435c                	c.lw	a5,4(a4)
   106da:	ff870613          	addi	a2,a4,-8
   106de:	30c78563          	beq	a5,a2,109e8 <_malloc_r+0x338>
   106e2:	43d8                	c.lw	a4,4(a5)
   106e4:	47d0                	c.lw	a2,12(a5)
   106e6:	478c                	c.lw	a1,8(a5)
   106e8:	9b71                	c.andi	a4,-4
   106ea:	973e                	c.add	a4,a5
   106ec:	4354                	c.lw	a3,4(a4)
   106ee:	c5d0                	c.sw	a2,12(a1)
   106f0:	c63e                	c.swsp	a5,12(sp)
   106f2:	c60c                	c.sw	a1,8(a2)
   106f4:	0016e693          	ori	a3,a3,1
   106f8:	8522                	c.mv	a0,s0
   106fa:	c354                	c.sw	a3,4(a4)
   106fc:	23c9                	c.jal	10cbe <__malloc_unlock>
   106fe:	47b2                	c.lwsp	a5,12(sp)
   10700:	50f2                	c.lwsp	ra,60(sp)
   10702:	5462                	c.lwsp	s0,56(sp)
   10704:	00878513          	addi	a0,a5,8
   10708:	6121                	c.addi16sp	sp,64
   1070a:	8082                	c.jr	ra
   1070c:	47b1                	c.li	a5,12
   1070e:	c01c                	c.sw	a5,0(s0)
   10710:	4501                	c.li	a0,0
   10712:	50f2                	c.lwsp	ra,60(sp)
   10714:	5462                	c.lwsp	s0,56(sp)
   10716:	6121                	c.addi16sp	sp,64
   10718:	8082                	c.jr	ra
   1071a:	ff87f693          	andi	a3,a5,-8
   1071e:	fe07c7e3          	blt	a5,zero,1070c <_malloc_r+0x5c>
   10722:	feb6e5e3          	bltu	a3,a1,1070c <_malloc_r+0x5c>
   10726:	c636                	c.swsp	a3,12(sp)
   10728:	2b51                	c.jal	10cbc <__malloc_lock>
   1072a:	46b2                	c.lwsp	a3,12(sp)
   1072c:	1f700793          	addi	a5,zero,503
   10730:	36d7f563          	bgeu	a5,a3,10a9a <_malloc_r+0x3ea>
   10734:	0096d793          	srli	a5,a3,0x9
   10738:	10078b63          	beq	a5,zero,1084e <_malloc_r+0x19e>
   1073c:	4711                	c.li	a4,4
   1073e:	2ef76a63          	bltu	a4,a5,10a32 <_malloc_r+0x382>
   10742:	0066d793          	srli	a5,a3,0x6
   10746:	03978893          	addi	a7,a5,57
   1074a:	03878e13          	addi	t3,a5,56
   1074e:	00389513          	slli	a0,a7,0x3
   10752:	6875                	c.lui	a6,0x1d
   10754:	39080813          	addi	a6,a6,912 # 1d390 <__malloc_av_>
   10758:	9542                	c.add	a0,a6
   1075a:	415c                	c.lw	a5,4(a0)
   1075c:	1561                	c.addi	a0,-8
   1075e:	02f50163          	beq	a0,a5,10780 <_malloc_r+0xd0>
   10762:	433d                	c.li	t1,15
   10764:	a039                	c.j	10772 <_malloc_r+0xc2>
   10766:	47cc                	c.lw	a1,12(a5)
   10768:	24065e63          	bge	a2,zero,109c4 <_malloc_r+0x314>
   1076c:	00b50a63          	beq	a0,a1,10780 <_malloc_r+0xd0>
   10770:	87ae                	c.mv	a5,a1
   10772:	43d8                	c.lw	a4,4(a5)
   10774:	9b71                	c.andi	a4,-4
   10776:	40d70633          	sub	a2,a4,a3
   1077a:	fec356e3          	bge	t1,a2,10766 <_malloc_r+0xb6>
   1077e:	88f2                	c.mv	a7,t3
   10780:	01082783          	lw	a5,16(a6)
   10784:	6e75                	c.lui	t3,0x1d
   10786:	398e0e13          	addi	t3,t3,920 # 1d398 <__malloc_av_+0x8>
   1078a:	21c78763          	beq	a5,t3,10998 <_malloc_r+0x2e8>
   1078e:	43d8                	c.lw	a4,4(a5)
   10790:	45bd                	c.li	a1,15
   10792:	9b71                	c.andi	a4,-4
   10794:	40d70633          	sub	a2,a4,a3
   10798:	32c5c263          	blt	a1,a2,10abc <_malloc_r+0x40c>
   1079c:	01c82a23          	sw	t3,20(a6)
   107a0:	01c82823          	sw	t3,16(a6)
   107a4:	30065063          	bge	a2,zero,10aa4 <_malloc_r+0x3f4>
   107a8:	1ff00613          	addi	a2,zero,511
   107ac:	00482303          	lw	t1,4(a6)
   107b0:	24e66163          	bltu	a2,a4,109f2 <_malloc_r+0x342>
   107b4:	ff877613          	andi	a2,a4,-8
   107b8:	0621                	c.addi	a2,8
   107ba:	9642                	c.add	a2,a6
   107bc:	420c                	c.lw	a1,0(a2)
   107be:	00575513          	srli	a0,a4,0x5
   107c2:	4705                	c.li	a4,1
   107c4:	00a71733          	sll	a4,a4,a0
   107c8:	00e36333          	or	t1,t1,a4
   107cc:	ff860713          	addi	a4,a2,-8
   107d0:	c78c                	c.sw	a1,8(a5)
   107d2:	c7d8                	c.sw	a4,12(a5)
   107d4:	00682223          	sw	t1,4(a6)
   107d8:	c21c                	c.sw	a5,0(a2)
   107da:	c5dc                	c.sw	a5,12(a1)
   107dc:	4028d793          	srai	a5,a7,0x2
   107e0:	4505                	c.li	a0,1
   107e2:	00f51533          	sll	a0,a0,a5
   107e6:	06a36b63          	bltu	t1,a0,1085c <_malloc_r+0x1ac>
   107ea:	006577b3          	and	a5,a0,t1
   107ee:	ef89                	c.bnez	a5,10808 <_malloc_r+0x158>
   107f0:	0506                	c.slli	a0,0x1
   107f2:	ffc8f893          	andi	a7,a7,-4
   107f6:	006577b3          	and	a5,a0,t1
   107fa:	0891                	c.addi	a7,4
   107fc:	e791                	c.bnez	a5,10808 <_malloc_r+0x158>
   107fe:	0506                	c.slli	a0,0x1
   10800:	006577b3          	and	a5,a0,t1
   10804:	0891                	c.addi	a7,4
   10806:	dfe5                	c.beqz	a5,107fe <_malloc_r+0x14e>
   10808:	4ebd                	c.li	t4,15
   1080a:	00389f13          	slli	t5,a7,0x3
   1080e:	9f42                	c.add	t5,a6
   10810:	837a                	c.mv	t1,t5
   10812:	00c32703          	lw	a4,12(t1) # 102ac <bit_count+0x2>
   10816:	8fc6                	c.mv	t6,a7
   10818:	22e30d63          	beq	t1,a4,10a52 <_malloc_r+0x3a2>
   1081c:	4350                	c.lw	a2,4(a4)
   1081e:	87ba                	c.mv	a5,a4
   10820:	4758                	c.lw	a4,12(a4)
   10822:	9a71                	c.andi	a2,-4
   10824:	40d605b3          	sub	a1,a2,a3
   10828:	22becd63          	blt	t4,a1,10a62 <_malloc_r+0x3b2>
   1082c:	fe05c6e3          	blt	a1,zero,10818 <_malloc_r+0x168>
   10830:	963e                	c.add	a2,a5
   10832:	4254                	c.lw	a3,4(a2)
   10834:	478c                	c.lw	a1,8(a5)
   10836:	8522                	c.mv	a0,s0
   10838:	0016e693          	ori	a3,a3,1
   1083c:	c254                	c.sw	a3,4(a2)
   1083e:	c5d8                	c.sw	a4,12(a1)
   10840:	c70c                	c.sw	a1,8(a4)
   10842:	c63e                	c.swsp	a5,12(sp)
   10844:	29ad                	c.jal	10cbe <__malloc_unlock>
   10846:	47b2                	c.lwsp	a5,12(sp)
   10848:	00878513          	addi	a0,a5,8
   1084c:	b5d9                	c.j	10712 <_malloc_r+0x62>
   1084e:	20000513          	addi	a0,zero,512
   10852:	04000893          	addi	a7,zero,64
   10856:	03f00e13          	addi	t3,zero,63
   1085a:	bde5                	c.j	10752 <_malloc_r+0xa2>
   1085c:	00882783          	lw	a5,8(a6)
   10860:	43d8                	c.lw	a4,4(a5)
   10862:	9b71                	c.andi	a4,-4
   10864:	40d70633          	sub	a2,a4,a3
   10868:	00d76663          	bltu	a4,a3,10874 <_malloc_r+0x1c4>
   1086c:	01062593          	slti	a1,a2,16
   10870:	12058763          	beq	a1,zero,1099e <_malloc_r+0x2ee>
   10874:	f381a583          	lw	a1,-200(gp) # 1dac8 <__malloc_top_pad>
   10878:	f241a503          	lw	a0,-220(gp) # 1dab4 <__malloc_sbrk_base>
   1087c:	567d                	c.li	a2,-1
   1087e:	95b6                	c.add	a1,a3
   10880:	2ec50563          	beq	a0,a2,10b6a <_malloc_r+0x4ba>
   10884:	6605                	c.lui	a2,0x1
   10886:	063d                	c.addi	a2,15 # 100f <exit-0xf0a5>
   10888:	95b2                	c.add	a1,a2
   1088a:	767d                	c.lui	a2,0xfffff
   1088c:	8df1                	c.and	a1,a2
   1088e:	8522                	c.mv	a0,s0
   10890:	ce42                	c.swsp	a6,28(sp)
   10892:	cc3e                	c.swsp	a5,24(sp)
   10894:	ca36                	c.swsp	a3,20(sp)
   10896:	c83a                	c.swsp	a4,16(sp)
   10898:	c62e                	c.swsp	a1,12(sp)
   1089a:	2ef010ef          	jal	ra,12388 <_sbrk_r>
   1089e:	567d                	c.li	a2,-1
   108a0:	45b2                	c.lwsp	a1,12(sp)
   108a2:	4742                	c.lwsp	a4,16(sp)
   108a4:	46d2                	c.lwsp	a3,20(sp)
   108a6:	47e2                	c.lwsp	a5,24(sp)
   108a8:	4872                	c.lwsp	a6,28(sp)
   108aa:	88aa                	c.mv	a7,a0
   108ac:	24c50a63          	beq	a0,a2,10b00 <_malloc_r+0x450>
   108b0:	00e78533          	add	a0,a5,a4
   108b4:	24a8e463          	bltu	a7,a0,10afc <_malloc_r+0x44c>
   108b8:	f7418e13          	addi	t3,gp,-140 # 1db04 <__malloc_current_mallinfo>
   108bc:	000e2603          	lw	a2,0(t3)
   108c0:	962e                	c.add	a2,a1
   108c2:	00ce2023          	sw	a2,0(t3)
   108c6:	8eb2                	c.mv	t4,a2
   108c8:	33150c63          	beq	a0,a7,10c00 <_malloc_r+0x550>
   108cc:	f241af03          	lw	t5,-220(gp) # 1dab4 <__malloc_sbrk_base>
   108d0:	567d                	c.li	a2,-1
   108d2:	34cf0363          	beq	t5,a2,10c18 <_malloc_r+0x568>
   108d6:	40a88633          	sub	a2,a7,a0
   108da:	9676                	c.add	a2,t4
   108dc:	00ce2023          	sw	a2,0(t3)
   108e0:	0078fe93          	andi	t4,a7,7
   108e4:	280e8e63          	beq	t4,zero,10b80 <_malloc_r+0x4d0>
   108e8:	ff88f893          	andi	a7,a7,-8
   108ec:	6605                	c.lui	a2,0x1
   108ee:	08a1                	c.addi	a7,8
   108f0:	0621                	c.addi	a2,8 # 1008 <exit-0xf0ac>
   108f2:	00b88333          	add	t1,a7,a1
   108f6:	41d60633          	sub	a2,a2,t4
   108fa:	40660633          	sub	a2,a2,t1
   108fe:	0652                	c.slli	a2,0x14
   10900:	01465593          	srli	a1,a2,0x14
   10904:	8522                	c.mv	a0,s0
   10906:	d642                	c.swsp	a6,44(sp)
   10908:	d472                	c.swsp	t3,40(sp)
   1090a:	d23e                	c.swsp	a5,36(sp)
   1090c:	d036                	c.swsp	a3,32(sp)
   1090e:	ce3a                	c.swsp	a4,28(sp)
   10910:	cc46                	c.swsp	a7,24(sp)
   10912:	ca76                	c.swsp	t4,20(sp)
   10914:	c81a                	c.swsp	t1,16(sp)
   10916:	c62e                	c.swsp	a1,12(sp)
   10918:	271010ef          	jal	ra,12388 <_sbrk_r>
   1091c:	567d                	c.li	a2,-1
   1091e:	45b2                	c.lwsp	a1,12(sp)
   10920:	4342                	c.lwsp	t1,16(sp)
   10922:	4ed2                	c.lwsp	t4,20(sp)
   10924:	48e2                	c.lwsp	a7,24(sp)
   10926:	4772                	c.lwsp	a4,28(sp)
   10928:	5682                	c.lwsp	a3,32(sp)
   1092a:	5792                	c.lwsp	a5,36(sp)
   1092c:	5e22                	c.lwsp	t3,40(sp)
   1092e:	5832                	c.lwsp	a6,44(sp)
   10930:	32c50463          	beq	a0,a2,10c58 <_malloc_r+0x5a8>
   10934:	000e2603          	lw	a2,0(t3)
   10938:	41150533          	sub	a0,a0,a7
   1093c:	952e                	c.add	a0,a1
   1093e:	00156513          	ori	a0,a0,1
   10942:	01182423          	sw	a7,8(a6)
   10946:	962e                	c.add	a2,a1
   10948:	00a8a223          	sw	a0,4(a7)
   1094c:	00ce2023          	sw	a2,0(t3)
   10950:	03078663          	beq	a5,a6,1097c <_malloc_r+0x2cc>
   10954:	453d                	c.li	a0,15
   10956:	2ce57463          	bgeu	a0,a4,10c1e <_malloc_r+0x56e>
   1095a:	43cc                	c.lw	a1,4(a5)
   1095c:	1751                	c.addi	a4,-12
   1095e:	9b61                	c.andi	a4,-8
   10960:	8985                	c.andi	a1,1
   10962:	8dd9                	c.or	a1,a4
   10964:	c3cc                	c.sw	a1,4(a5)
   10966:	4315                	c.li	t1,5
   10968:	00e785b3          	add	a1,a5,a4
   1096c:	0065a223          	sw	t1,4(a1)
   10970:	0065a423          	sw	t1,8(a1)
   10974:	2ee56763          	bltu	a0,a4,10c62 <_malloc_r+0x5b2>
   10978:	0048a503          	lw	a0,4(a7)
   1097c:	f341a703          	lw	a4,-204(gp) # 1dac4 <__malloc_max_sbrked_mem>
   10980:	00c77463          	bgeu	a4,a2,10988 <_malloc_r+0x2d8>
   10984:	f2c1aa23          	sw	a2,-204(gp) # 1dac4 <__malloc_max_sbrked_mem>
   10988:	f301a703          	lw	a4,-208(gp) # 1dac0 <__malloc_max_total_mem>
   1098c:	00c77463          	bgeu	a4,a2,10994 <_malloc_r+0x2e4>
   10990:	f2c1a823          	sw	a2,-208(gp) # 1dac0 <__malloc_max_total_mem>
   10994:	87c6                	c.mv	a5,a7
   10996:	aa85                	c.j	10b06 <_malloc_r+0x456>
   10998:	00482303          	lw	t1,4(a6)
   1099c:	b581                	c.j	107dc <_malloc_r+0x12c>
   1099e:	0016e713          	ori	a4,a3,1
   109a2:	c3d8                	c.sw	a4,4(a5)
   109a4:	96be                	c.add	a3,a5
   109a6:	00166613          	ori	a2,a2,1
   109aa:	00d82423          	sw	a3,8(a6)
   109ae:	8522                	c.mv	a0,s0
   109b0:	c2d0                	c.sw	a2,4(a3)
   109b2:	c63e                	c.swsp	a5,12(sp)
   109b4:	2629                	c.jal	10cbe <__malloc_unlock>
   109b6:	47b2                	c.lwsp	a5,12(sp)
   109b8:	50f2                	c.lwsp	ra,60(sp)
   109ba:	5462                	c.lwsp	s0,56(sp)
   109bc:	00878513          	addi	a0,a5,8
   109c0:	6121                	c.addi16sp	sp,64
   109c2:	8082                	c.jr	ra
   109c4:	4790                	c.lw	a2,8(a5)
   109c6:	973e                	c.add	a4,a5
   109c8:	4354                	c.lw	a3,4(a4)
   109ca:	c64c                	c.sw	a1,12(a2)
   109cc:	c63e                	c.swsp	a5,12(sp)
   109ce:	0016e693          	ori	a3,a3,1
   109d2:	c590                	c.sw	a2,8(a1)
   109d4:	8522                	c.mv	a0,s0
   109d6:	c354                	c.sw	a3,4(a4)
   109d8:	24dd                	c.jal	10cbe <__malloc_unlock>
   109da:	47b2                	c.lwsp	a5,12(sp)
   109dc:	50f2                	c.lwsp	ra,60(sp)
   109de:	5462                	c.lwsp	s0,56(sp)
   109e0:	00878513          	addi	a0,a5,8
   109e4:	6121                	c.addi16sp	sp,64
   109e6:	8082                	c.jr	ra
   109e8:	475c                	c.lw	a5,12(a4)
   109ea:	0889                	c.addi	a7,2
   109ec:	d8f70ae3          	beq	a4,a5,10780 <_malloc_r+0xd0>
   109f0:	b9cd                	c.j	106e2 <_malloc_r+0x32>
   109f2:	00975613          	srli	a2,a4,0x9
   109f6:	4591                	c.li	a1,4
   109f8:	0ec5fa63          	bgeu	a1,a2,10aec <_malloc_r+0x43c>
   109fc:	45d1                	c.li	a1,20
   109fe:	1cc5e063          	bltu	a1,a2,10bbe <_malloc_r+0x50e>
   10a02:	05c60513          	addi	a0,a2,92
   10a06:	050e                	c.slli	a0,0x3
   10a08:	05b60593          	addi	a1,a2,91
   10a0c:	9542                	c.add	a0,a6
   10a0e:	4110                	c.lw	a2,0(a0)
   10a10:	1561                	c.addi	a0,-8
   10a12:	00c51663          	bne	a0,a2,10a1e <_malloc_r+0x36e>
   10a16:	aaa1                	c.j	10b6e <_malloc_r+0x4be>
   10a18:	4610                	c.lw	a2,8(a2)
   10a1a:	00c50663          	beq	a0,a2,10a26 <_malloc_r+0x376>
   10a1e:	424c                	c.lw	a1,4(a2)
   10a20:	99f1                	c.andi	a1,-4
   10a22:	feb76be3          	bltu	a4,a1,10a18 <_malloc_r+0x368>
   10a26:	4648                	c.lw	a0,12(a2)
   10a28:	c7c8                	c.sw	a0,12(a5)
   10a2a:	c790                	c.sw	a2,8(a5)
   10a2c:	c51c                	c.sw	a5,8(a0)
   10a2e:	c65c                	c.sw	a5,12(a2)
   10a30:	b375                	c.j	107dc <_malloc_r+0x12c>
   10a32:	4751                	c.li	a4,20
   10a34:	0ef77563          	bgeu	a4,a5,10b1e <_malloc_r+0x46e>
   10a38:	05400713          	addi	a4,zero,84
   10a3c:	18f76d63          	bltu	a4,a5,10bd6 <_malloc_r+0x526>
   10a40:	00c6d793          	srli	a5,a3,0xc
   10a44:	06f78893          	addi	a7,a5,111
   10a48:	06e78e13          	addi	t3,a5,110
   10a4c:	00389513          	slli	a0,a7,0x3
   10a50:	b309                	c.j	10752 <_malloc_r+0xa2>
   10a52:	0f85                	c.addi	t6,1
   10a54:	003ff793          	andi	a5,t6,3
   10a58:	0321                	c.addi	t1,8
   10a5a:	cff1                	c.beqz	a5,10b36 <_malloc_r+0x486>
   10a5c:	00c32703          	lw	a4,12(t1)
   10a60:	bb65                	c.j	10818 <_malloc_r+0x168>
   10a62:	4788                	c.lw	a0,8(a5)
   10a64:	0016e893          	ori	a7,a3,1
   10a68:	0117a223          	sw	a7,4(a5)
   10a6c:	c558                	c.sw	a4,12(a0)
   10a6e:	c708                	c.sw	a0,8(a4)
   10a70:	96be                	c.add	a3,a5
   10a72:	00d82a23          	sw	a3,20(a6)
   10a76:	00d82823          	sw	a3,16(a6)
   10a7a:	0015e713          	ori	a4,a1,1
   10a7e:	963e                	c.add	a2,a5
   10a80:	01c6a623          	sw	t3,12(a3)
   10a84:	01c6a423          	sw	t3,8(a3)
   10a88:	c2d8                	c.sw	a4,4(a3)
   10a8a:	8522                	c.mv	a0,s0
   10a8c:	c20c                	c.sw	a1,0(a2)
   10a8e:	c63e                	c.swsp	a5,12(sp)
   10a90:	243d                	c.jal	10cbe <__malloc_unlock>
   10a92:	47b2                	c.lwsp	a5,12(sp)
   10a94:	00878513          	addi	a0,a5,8
   10a98:	b9ad                	c.j	10712 <_malloc_r+0x62>
   10a9a:	0036d893          	srli	a7,a3,0x3
   10a9e:	00868713          	addi	a4,a3,8
   10aa2:	b13d                	c.j	106d0 <_malloc_r+0x20>
   10aa4:	973e                	c.add	a4,a5
   10aa6:	4354                	c.lw	a3,4(a4)
   10aa8:	c63e                	c.swsp	a5,12(sp)
   10aaa:	8522                	c.mv	a0,s0
   10aac:	0016e693          	ori	a3,a3,1
   10ab0:	c354                	c.sw	a3,4(a4)
   10ab2:	2431                	c.jal	10cbe <__malloc_unlock>
   10ab4:	47b2                	c.lwsp	a5,12(sp)
   10ab6:	00878513          	addi	a0,a5,8
   10aba:	b9a1                	c.j	10712 <_malloc_r+0x62>
   10abc:	0016e593          	ori	a1,a3,1
   10ac0:	c3cc                	c.sw	a1,4(a5)
   10ac2:	96be                	c.add	a3,a5
   10ac4:	00d82a23          	sw	a3,20(a6)
   10ac8:	00d82823          	sw	a3,16(a6)
   10acc:	00166593          	ori	a1,a2,1
   10ad0:	973e                	c.add	a4,a5
   10ad2:	01c6a623          	sw	t3,12(a3)
   10ad6:	01c6a423          	sw	t3,8(a3)
   10ada:	c2cc                	c.sw	a1,4(a3)
   10adc:	8522                	c.mv	a0,s0
   10ade:	c310                	c.sw	a2,0(a4)
   10ae0:	c63e                	c.swsp	a5,12(sp)
   10ae2:	2af1                	c.jal	10cbe <__malloc_unlock>
   10ae4:	47b2                	c.lwsp	a5,12(sp)
   10ae6:	00878513          	addi	a0,a5,8
   10aea:	b125                	c.j	10712 <_malloc_r+0x62>
   10aec:	00675613          	srli	a2,a4,0x6
   10af0:	03960513          	addi	a0,a2,57
   10af4:	050e                	c.slli	a0,0x3
   10af6:	03860593          	addi	a1,a2,56
   10afa:	bf09                	c.j	10a0c <_malloc_r+0x35c>
   10afc:	0f078a63          	beq	a5,a6,10bf0 <_malloc_r+0x540>
   10b00:	00882783          	lw	a5,8(a6)
   10b04:	43c8                	c.lw	a0,4(a5)
   10b06:	9971                	c.andi	a0,-4
   10b08:	40d50633          	sub	a2,a0,a3
   10b0c:	00d56663          	bltu	a0,a3,10b18 <_malloc_r+0x468>
   10b10:	01062713          	slti	a4,a2,16
   10b14:	e80705e3          	beq	a4,zero,1099e <_malloc_r+0x2ee>
   10b18:	8522                	c.mv	a0,s0
   10b1a:	2255                	c.jal	10cbe <__malloc_unlock>
   10b1c:	bed5                	c.j	10710 <_malloc_r+0x60>
   10b1e:	05c78893          	addi	a7,a5,92
   10b22:	05b78e13          	addi	t3,a5,91
   10b26:	00389513          	slli	a0,a7,0x3
   10b2a:	b125                	c.j	10752 <_malloc_r+0xa2>
   10b2c:	008f2783          	lw	a5,8(t5)
   10b30:	18fd                	c.addi	a7,-1
   10b32:	19e79263          	bne	a5,t5,10cb6 <_malloc_r+0x606>
   10b36:	0038f793          	andi	a5,a7,3
   10b3a:	1f61                	c.addi	t5,-8
   10b3c:	fbe5                	c.bnez	a5,10b2c <_malloc_r+0x47c>
   10b3e:	00482703          	lw	a4,4(a6)
   10b42:	fff54793          	xori	a5,a0,-1
   10b46:	8ff9                	c.and	a5,a4
   10b48:	00f82223          	sw	a5,4(a6)
   10b4c:	0506                	c.slli	a0,0x1
   10b4e:	fff50713          	addi	a4,a0,-1
   10b52:	d0f775e3          	bgeu	a4,a5,1085c <_malloc_r+0x1ac>
   10b56:	00f57733          	and	a4,a0,a5
   10b5a:	e711                	c.bnez	a4,10b66 <_malloc_r+0x4b6>
   10b5c:	0506                	c.slli	a0,0x1
   10b5e:	00f57733          	and	a4,a0,a5
   10b62:	0f91                	c.addi	t6,4
   10b64:	df65                	c.beqz	a4,10b5c <_malloc_r+0x4ac>
   10b66:	88fe                	c.mv	a7,t6
   10b68:	b14d                	c.j	1080a <_malloc_r+0x15a>
   10b6a:	05c1                	c.addi	a1,16
   10b6c:	b30d                	c.j	1088e <_malloc_r+0x1de>
   10b6e:	8589                	c.srai	a1,0x2
   10b70:	4705                	c.li	a4,1
   10b72:	00b71733          	sll	a4,a4,a1
   10b76:	00e36333          	or	t1,t1,a4
   10b7a:	00682223          	sw	t1,4(a6)
   10b7e:	b56d                	c.j	10a28 <_malloc_r+0x378>
   10b80:	00b88333          	add	t1,a7,a1
   10b84:	40600633          	sub	a2,zero,t1
   10b88:	0652                	c.slli	a2,0x14
   10b8a:	01465593          	srli	a1,a2,0x14
   10b8e:	8522                	c.mv	a0,s0
   10b90:	d442                	c.swsp	a6,40(sp)
   10b92:	d272                	c.swsp	t3,36(sp)
   10b94:	d03e                	c.swsp	a5,32(sp)
   10b96:	ce36                	c.swsp	a3,28(sp)
   10b98:	cc3a                	c.swsp	a4,24(sp)
   10b9a:	ca46                	c.swsp	a7,20(sp)
   10b9c:	c62e                	c.swsp	a1,12(sp)
   10b9e:	c81a                	c.swsp	t1,16(sp)
   10ba0:	7e8010ef          	jal	ra,12388 <_sbrk_r>
   10ba4:	567d                	c.li	a2,-1
   10ba6:	45b2                	c.lwsp	a1,12(sp)
   10ba8:	48d2                	c.lwsp	a7,20(sp)
   10baa:	4762                	c.lwsp	a4,24(sp)
   10bac:	46f2                	c.lwsp	a3,28(sp)
   10bae:	5782                	c.lwsp	a5,32(sp)
   10bb0:	5e12                	c.lwsp	t3,36(sp)
   10bb2:	5822                	c.lwsp	a6,40(sp)
   10bb4:	d8c510e3          	bne	a0,a2,10934 <_malloc_r+0x284>
   10bb8:	4542                	c.lwsp	a0,16(sp)
   10bba:	4581                	c.li	a1,0
   10bbc:	bba5                	c.j	10934 <_malloc_r+0x284>
   10bbe:	05400593          	addi	a1,zero,84
   10bc2:	06c5e263          	bltu	a1,a2,10c26 <_malloc_r+0x576>
   10bc6:	00c75613          	srli	a2,a4,0xc
   10bca:	06f60513          	addi	a0,a2,111
   10bce:	050e                	c.slli	a0,0x3
   10bd0:	06e60593          	addi	a1,a2,110
   10bd4:	bd25                	c.j	10a0c <_malloc_r+0x35c>
   10bd6:	15400713          	addi	a4,zero,340
   10bda:	06f76263          	bltu	a4,a5,10c3e <_malloc_r+0x58e>
   10bde:	00f6d793          	srli	a5,a3,0xf
   10be2:	07878893          	addi	a7,a5,120
   10be6:	07778e13          	addi	t3,a5,119
   10bea:	00389513          	slli	a0,a7,0x3
   10bee:	b695                	c.j	10752 <_malloc_r+0xa2>
   10bf0:	f7418e13          	addi	t3,gp,-140 # 1db04 <__malloc_current_mallinfo>
   10bf4:	000e2e83          	lw	t4,0(t3)
   10bf8:	9eae                	c.add	t4,a1
   10bfa:	01de2023          	sw	t4,0(t3)
   10bfe:	b1f9                	c.j	108cc <_malloc_r+0x21c>
   10c00:	01489f13          	slli	t5,a7,0x14
   10c04:	cc0f14e3          	bne	t5,zero,108cc <_malloc_r+0x21c>
   10c08:	00882883          	lw	a7,8(a6)
   10c0c:	95ba                	c.add	a1,a4
   10c0e:	0015e513          	ori	a0,a1,1
   10c12:	00a8a223          	sw	a0,4(a7)
   10c16:	b39d                	c.j	1097c <_malloc_r+0x2cc>
   10c18:	f311a223          	sw	a7,-220(gp) # 1dab4 <__malloc_sbrk_base>
   10c1c:	b1d1                	c.j	108e0 <_malloc_r+0x230>
   10c1e:	4785                	c.li	a5,1
   10c20:	00f8a223          	sw	a5,4(a7)
   10c24:	bdd5                	c.j	10b18 <_malloc_r+0x468>
   10c26:	15400593          	addi	a1,zero,340
   10c2a:	04c5ee63          	bltu	a1,a2,10c86 <_malloc_r+0x5d6>
   10c2e:	00f75613          	srli	a2,a4,0xf
   10c32:	07860513          	addi	a0,a2,120
   10c36:	050e                	c.slli	a0,0x3
   10c38:	07760593          	addi	a1,a2,119
   10c3c:	bbc1                	c.j	10a0c <_malloc_r+0x35c>
   10c3e:	55400713          	addi	a4,zero,1364
   10c42:	04f76e63          	bltu	a4,a5,10c9e <_malloc_r+0x5ee>
   10c46:	0126d793          	srli	a5,a3,0x12
   10c4a:	07d78893          	addi	a7,a5,125
   10c4e:	07c78e13          	addi	t3,a5,124
   10c52:	00389513          	slli	a0,a7,0x3
   10c56:	bcf5                	c.j	10752 <_malloc_r+0xa2>
   10c58:	1ee1                	c.addi	t4,-8
   10c5a:	01d30533          	add	a0,t1,t4
   10c5e:	4581                	c.li	a1,0
   10c60:	b9d1                	c.j	10934 <_malloc_r+0x284>
   10c62:	8522                	c.mv	a0,s0
   10c64:	00878593          	addi	a1,a5,8
   10c68:	ca42                	c.swsp	a6,20(sp)
   10c6a:	c872                	c.swsp	t3,16(sp)
   10c6c:	c636                	c.swsp	a3,12(sp)
   10c6e:	2a3010ef          	jal	ra,12710 <_free_r>
   10c72:	4852                	c.lwsp	a6,20(sp)
   10c74:	4e42                	c.lwsp	t3,16(sp)
   10c76:	46b2                	c.lwsp	a3,12(sp)
   10c78:	00882883          	lw	a7,8(a6)
   10c7c:	000e2603          	lw	a2,0(t3)
   10c80:	0048a503          	lw	a0,4(a7)
   10c84:	b9e5                	c.j	1097c <_malloc_r+0x2cc>
   10c86:	55400593          	addi	a1,zero,1364
   10c8a:	02c5e163          	bltu	a1,a2,10cac <_malloc_r+0x5fc>
   10c8e:	01275613          	srli	a2,a4,0x12
   10c92:	07d60513          	addi	a0,a2,125
   10c96:	050e                	c.slli	a0,0x3
   10c98:	07c60593          	addi	a1,a2,124
   10c9c:	bb85                	c.j	10a0c <_malloc_r+0x35c>
   10c9e:	3f800513          	addi	a0,zero,1016
   10ca2:	07f00893          	addi	a7,zero,127
   10ca6:	07e00e13          	addi	t3,zero,126
   10caa:	b465                	c.j	10752 <_malloc_r+0xa2>
   10cac:	3f800513          	addi	a0,zero,1016
   10cb0:	07e00593          	addi	a1,zero,126
   10cb4:	bba1                	c.j	10a0c <_malloc_r+0x35c>
   10cb6:	00482783          	lw	a5,4(a6)
   10cba:	bd49                	c.j	10b4c <_malloc_r+0x49c>

00010cbc <__malloc_lock>:
   10cbc:	8082                	c.jr	ra

00010cbe <__malloc_unlock>:
   10cbe:	8082                	c.jr	ra

00010cc0 <srand>:
   10cc0:	f2c1a783          	lw	a5,-212(gp) # 1dabc <_impure_ptr>
   10cc4:	08a7ac23          	sw	a0,152(a5)
   10cc8:	0807ae23          	sw	zero,156(a5)
   10ccc:	8082                	c.jr	ra

00010cce <rand>:
   10cce:	f2c1a803          	lw	a6,-212(gp) # 1dabc <_impure_ptr>
   10cd2:	4c958637          	lui	a2,0x4c958
   10cd6:	5851f5b7          	lui	a1,0x5851f
   10cda:	09882683          	lw	a3,152(a6)
   10cde:	09c82703          	lw	a4,156(a6)
   10ce2:	f2d60613          	addi	a2,a2,-211 # 4c957f2d <__BSS_END__+0x4c93a125>
   10ce6:	42d58593          	addi	a1,a1,1069 # 5851f42d <__BSS_END__+0x58501625>
   10cea:	02b685b3          	mul	a1,a3,a1
   10cee:	02c687b3          	mul	a5,a3,a2
   10cf2:	02c70733          	mul	a4,a4,a2
   10cf6:	02c6b6b3          	mulhu	a3,a3,a2
   10cfa:	972e                	c.add	a4,a1
   10cfc:	00178613          	addi	a2,a5,1
   10d00:	00f637b3          	sltu	a5,a2,a5
   10d04:	08c82c23          	sw	a2,152(a6)
   10d08:	9736                	c.add	a4,a3
   10d0a:	97ba                	c.add	a5,a4
   10d0c:	00179513          	slli	a0,a5,0x1
   10d10:	08f82e23          	sw	a5,156(a6)
   10d14:	8105                	c.srli	a0,0x1
   10d16:	8082                	c.jr	ra

00010d18 <_strtol_l.part.0>:
   10d18:	1141                	c.addi	sp,-16
   10d1a:	6771                	c.lui	a4,0x1c
   10d1c:	c622                	c.swsp	s0,12(sp)
   10d1e:	87ae                	c.mv	a5,a1
   10d20:	842a                	c.mv	s0,a0
   10d22:	d2970513          	addi	a0,a4,-727 # 1bd29 <_ctype_+0x1>
   10d26:	883e                	c.mv	a6,a5
   10d28:	0007c883          	lbu	a7,0(a5)
   10d2c:	0785                	c.addi	a5,1
   10d2e:	01150733          	add	a4,a0,a7
   10d32:	00074703          	lbu	a4,0(a4)
   10d36:	8b21                	c.andi	a4,8
   10d38:	f77d                	c.bnez	a4,10d26 <_strtol_l.part.0+0xe>
   10d3a:	02d00713          	addi	a4,zero,45
   10d3e:	fef6ff93          	andi	t6,a3,-17
   10d42:	0ce88e63          	beq	a7,a4,10e1e <_strtol_l.part.0+0x106>
   10d46:	02b00713          	addi	a4,zero,43
   10d4a:	02e88563          	beq	a7,a4,10d74 <_strtol_l.part.0+0x5c>
   10d4e:	020f9963          	bne	t6,zero,10d80 <_strtol_l.part.0+0x68>
   10d52:	03000713          	addi	a4,zero,48
   10d56:	14e88863          	beq	a7,a4,10ea6 <_strtol_l.part.0+0x18e>
   10d5a:	12068e63          	beq	a3,zero,10e96 <_strtol_l.part.0+0x17e>
   10d5e:	08000337          	lui	t1,0x8000
   10d62:	46c1                	c.li	a3,16
   10d64:	137d                	c.addi	t1,-1 # 7ffffff <__BSS_END__+0x7fe21f7>
   10d66:	82b6                	c.mv	t0,a3
   10d68:	4fbd                	c.li	t6,15
   10d6a:	800003b7          	lui	t2,0x80000
   10d6e:	13fd                	c.addi	t2,-1 # 7fffffff <__BSS_END__+0x7ffe21f7>
   10d70:	4e01                	c.li	t3,0
   10d72:	a00d                	c.j	10d94 <_strtol_l.part.0+0x7c>
   10d74:	0007c883          	lbu	a7,0(a5)
   10d78:	00280793          	addi	a5,a6,2
   10d7c:	0e0f8363          	beq	t6,zero,10e62 <_strtol_l.part.0+0x14a>
   10d80:	80000337          	lui	t1,0x80000
   10d84:	137d                	c.addi	t1,-1 # 7fffffff <__BSS_END__+0x7ffe21f7>
   10d86:	02d37fb3          	remu	t6,t1,a3
   10d8a:	839a                	c.mv	t2,t1
   10d8c:	82b6                	c.mv	t0,a3
   10d8e:	4e01                	c.li	t3,0
   10d90:	02d35333          	divu	t1,t1,a3
   10d94:	4801                	c.li	a6,0
   10d96:	4501                	c.li	a0,0
   10d98:	4ea5                	c.li	t4,9
   10d9a:	4f65                	c.li	t5,25
   10d9c:	fd088713          	addi	a4,a7,-48
   10da0:	00eef863          	bgeu	t4,a4,10db0 <_strtol_l.part.0+0x98>
   10da4:	fbf88713          	addi	a4,a7,-65
   10da8:	02ef6663          	bltu	t5,a4,10dd4 <_strtol_l.part.0+0xbc>
   10dac:	fc988713          	addi	a4,a7,-55
   10db0:	02d75a63          	bge	a4,a3,10de4 <_strtol_l.part.0+0xcc>
   10db4:	0805                	c.addi	a6,1
   10db6:	00080d63          	beq	a6,zero,10dd0 <_strtol_l.part.0+0xb8>
   10dba:	00a36b63          	bltu	t1,a0,10dd0 <_strtol_l.part.0+0xb8>
   10dbe:	04651163          	bne	a0,t1,10e00 <_strtol_l.part.0+0xe8>
   10dc2:	587d                	c.li	a6,-1
   10dc4:	02efde63          	bge	t6,a4,10e00 <_strtol_l.part.0+0xe8>
   10dc8:	0785                	c.addi	a5,1
   10dca:	fff7c883          	lbu	a7,-1(a5)
   10dce:	b7f9                	c.j	10d9c <_strtol_l.part.0+0x84>
   10dd0:	587d                	c.li	a6,-1
   10dd2:	bfdd                	c.j	10dc8 <_strtol_l.part.0+0xb0>
   10dd4:	f9f88713          	addi	a4,a7,-97
   10dd8:	00ef6663          	bltu	t5,a4,10de4 <_strtol_l.part.0+0xcc>
   10ddc:	fa988713          	addi	a4,a7,-87
   10de0:	fcd74ae3          	blt	a4,a3,10db4 <_strtol_l.part.0+0x9c>
   10de4:	577d                	c.li	a4,-1
   10de6:	02e80363          	beq	a6,a4,10e0c <_strtol_l.part.0+0xf4>
   10dea:	000e0463          	beq	t3,zero,10df2 <_strtol_l.part.0+0xda>
   10dee:	40a00533          	sub	a0,zero,a0
   10df2:	c601                	c.beqz	a2,10dfa <_strtol_l.part.0+0xe2>
   10df4:	06081563          	bne	a6,zero,10e5e <_strtol_l.part.0+0x146>
   10df8:	c20c                	c.sw	a1,0(a2)
   10dfa:	4432                	c.lwsp	s0,12(sp)
   10dfc:	0141                	c.addi	sp,16
   10dfe:	8082                	c.jr	ra
   10e00:	025508b3          	mul	a7,a0,t0
   10e04:	4805                	c.li	a6,1
   10e06:	01170533          	add	a0,a4,a7
   10e0a:	bf7d                	c.j	10dc8 <_strtol_l.part.0+0xb0>
   10e0c:	02200713          	addi	a4,zero,34
   10e10:	c018                	c.sw	a4,0(s0)
   10e12:	851e                	c.mv	a0,t2
   10e14:	d27d                	c.beqz	a2,10dfa <_strtol_l.part.0+0xe2>
   10e16:	fff78593          	addi	a1,a5,-1
   10e1a:	851e                	c.mv	a0,t2
   10e1c:	bff1                	c.j	10df8 <_strtol_l.part.0+0xe0>
   10e1e:	0007c883          	lbu	a7,0(a5)
   10e22:	00280793          	addi	a5,a6,2
   10e26:	020f9263          	bne	t6,zero,10e4a <_strtol_l.part.0+0x132>
   10e2a:	03000713          	addi	a4,zero,48
   10e2e:	08e88f63          	beq	a7,a4,10ecc <_strtol_l.part.0+0x1b4>
   10e32:	eed5                	c.bnez	a3,10eee <_strtol_l.part.0+0x1d6>
   10e34:	46a9                	c.li	a3,10
   10e36:	0cccd337          	lui	t1,0xcccd
   10e3a:	ccc30313          	addi	t1,t1,-820 # ccccccc <__BSS_END__+0xccaeec4>
   10e3e:	82b6                	c.mv	t0,a3
   10e40:	4fa1                	c.li	t6,8
   10e42:	4e05                	c.li	t3,1
   10e44:	800003b7          	lui	t2,0x80000
   10e48:	b7b1                	c.j	10d94 <_strtol_l.part.0+0x7c>
   10e4a:	80000337          	lui	t1,0x80000
   10e4e:	02d37fb3          	remu	t6,t1,a3
   10e52:	839a                	c.mv	t2,t1
   10e54:	82b6                	c.mv	t0,a3
   10e56:	4e05                	c.li	t3,1
   10e58:	02d35333          	divu	t1,t1,a3
   10e5c:	bf25                	c.j	10d94 <_strtol_l.part.0+0x7c>
   10e5e:	83aa                	c.mv	t2,a0
   10e60:	bf5d                	c.j	10e16 <_strtol_l.part.0+0xfe>
   10e62:	03000713          	addi	a4,zero,48
   10e66:	eee89ae3          	bne	a7,a4,10d5a <_strtol_l.part.0+0x42>
   10e6a:	00284703          	lbu	a4,2(a6)
   10e6e:	05800513          	addi	a0,zero,88
   10e72:	0df77713          	andi	a4,a4,223
   10e76:	04a71763          	bne	a4,a0,10ec4 <_strtol_l.part.0+0x1ac>
   10e7a:	00384883          	lbu	a7,3(a6)
   10e7e:	46c1                	c.li	a3,16
   10e80:	82b6                	c.mv	t0,a3
   10e82:	00480793          	addi	a5,a6,4
   10e86:	80000337          	lui	t1,0x80000
   10e8a:	137d                	c.addi	t1,-1 # 7fffffff <__BSS_END__+0x7ffe21f7>
   10e8c:	02537fb3          	remu	t6,t1,t0
   10e90:	02535333          	divu	t1,t1,t0
   10e94:	bdd9                	c.j	10d6a <_strtol_l.part.0+0x52>
   10e96:	46a9                	c.li	a3,10
   10e98:	0cccd337          	lui	t1,0xcccd
   10e9c:	ccc30313          	addi	t1,t1,-820 # ccccccc <__BSS_END__+0xccaeec4>
   10ea0:	82b6                	c.mv	t0,a3
   10ea2:	4f9d                	c.li	t6,7
   10ea4:	b5d9                	c.j	10d6a <_strtol_l.part.0+0x52>
   10ea6:	0007c703          	lbu	a4,0(a5)
   10eaa:	05800513          	addi	a0,zero,88
   10eae:	0df77713          	andi	a4,a4,223
   10eb2:	00a71963          	bne	a4,a0,10ec4 <_strtol_l.part.0+0x1ac>
   10eb6:	46c1                	c.li	a3,16
   10eb8:	0017c883          	lbu	a7,1(a5)
   10ebc:	82b6                	c.mv	t0,a3
   10ebe:	00380793          	addi	a5,a6,3
   10ec2:	b7d1                	c.j	10e86 <_strtol_l.part.0+0x16e>
   10ec4:	e6a1                	c.bnez	a3,10f0c <_strtol_l.part.0+0x1f4>
   10ec6:	46a1                	c.li	a3,8
   10ec8:	82b6                	c.mv	t0,a3
   10eca:	bf75                	c.j	10e86 <_strtol_l.part.0+0x16e>
   10ecc:	00284703          	lbu	a4,2(a6)
   10ed0:	05800513          	addi	a0,zero,88
   10ed4:	0df77713          	andi	a4,a4,223
   10ed8:	02a70363          	beq	a4,a0,10efe <_strtol_l.part.0+0x1e6>
   10edc:	ca9d                	c.beqz	a3,10f12 <_strtol_l.part.0+0x1fa>
   10ede:	46c1                	c.li	a3,16
   10ee0:	82b6                	c.mv	t0,a3
   10ee2:	800003b7          	lui	t2,0x80000
   10ee6:	0253d333          	divu	t1,t2,t0
   10eea:	4e05                	c.li	t3,1
   10eec:	b565                	c.j	10d94 <_strtol_l.part.0+0x7c>
   10eee:	46c1                	c.li	a3,16
   10ef0:	82b6                	c.mv	t0,a3
   10ef2:	08000337          	lui	t1,0x8000
   10ef6:	4e05                	c.li	t3,1
   10ef8:	800003b7          	lui	t2,0x80000
   10efc:	bd61                	c.j	10d94 <_strtol_l.part.0+0x7c>
   10efe:	46c1                	c.li	a3,16
   10f00:	00384883          	lbu	a7,3(a6)
   10f04:	82b6                	c.mv	t0,a3
   10f06:	00480793          	addi	a5,a6,4
   10f0a:	bfe1                	c.j	10ee2 <_strtol_l.part.0+0x1ca>
   10f0c:	46c1                	c.li	a3,16
   10f0e:	82b6                	c.mv	t0,a3
   10f10:	bf9d                	c.j	10e86 <_strtol_l.part.0+0x16e>
   10f12:	46a1                	c.li	a3,8
   10f14:	82b6                	c.mv	t0,a3
   10f16:	b7f1                	c.j	10ee2 <_strtol_l.part.0+0x1ca>

00010f18 <_strtol_r>:
   10f18:	0256b713          	sltiu	a4,a3,37
   10f1c:	c709                	c.beqz	a4,10f26 <_strtol_r+0xe>
   10f1e:	fff68793          	addi	a5,a3,-1
   10f22:	c391                	c.beqz	a5,10f26 <_strtol_r+0xe>
   10f24:	bbd5                	c.j	10d18 <_strtol_l.part.0>
   10f26:	1141                	c.addi	sp,-16
   10f28:	c606                	c.swsp	ra,12(sp)
   10f2a:	4d6010ef          	jal	ra,12400 <__errno>
   10f2e:	40b2                	c.lwsp	ra,12(sp)
   10f30:	47d9                	c.li	a5,22
   10f32:	c11c                	c.sw	a5,0(a0)
   10f34:	4501                	c.li	a0,0
   10f36:	0141                	c.addi	sp,16
   10f38:	8082                	c.jr	ra

00010f3a <strtol_l>:
   10f3a:	02563793          	sltiu	a5,a2,37
   10f3e:	cb99                	c.beqz	a5,10f54 <strtol_l+0x1a>
   10f40:	fff60793          	addi	a5,a2,-1
   10f44:	cb81                	c.beqz	a5,10f54 <strtol_l+0x1a>
   10f46:	872a                	c.mv	a4,a0
   10f48:	f2c1a503          	lw	a0,-212(gp) # 1dabc <_impure_ptr>
   10f4c:	86b2                	c.mv	a3,a2
   10f4e:	862e                	c.mv	a2,a1
   10f50:	85ba                	c.mv	a1,a4
   10f52:	b3d9                	c.j	10d18 <_strtol_l.part.0>
   10f54:	1141                	c.addi	sp,-16
   10f56:	c606                	c.swsp	ra,12(sp)
   10f58:	4a8010ef          	jal	ra,12400 <__errno>
   10f5c:	40b2                	c.lwsp	ra,12(sp)
   10f5e:	47d9                	c.li	a5,22
   10f60:	c11c                	c.sw	a5,0(a0)
   10f62:	4501                	c.li	a0,0
   10f64:	0141                	c.addi	sp,16
   10f66:	8082                	c.jr	ra

00010f68 <strtol>:
   10f68:	02563793          	sltiu	a5,a2,37
   10f6c:	cb99                	c.beqz	a5,10f82 <strtol+0x1a>
   10f6e:	fff60793          	addi	a5,a2,-1
   10f72:	cb81                	c.beqz	a5,10f82 <strtol+0x1a>
   10f74:	872a                	c.mv	a4,a0
   10f76:	f2c1a503          	lw	a0,-212(gp) # 1dabc <_impure_ptr>
   10f7a:	86b2                	c.mv	a3,a2
   10f7c:	862e                	c.mv	a2,a1
   10f7e:	85ba                	c.mv	a1,a4
   10f80:	bb61                	c.j	10d18 <_strtol_l.part.0>
   10f82:	1141                	c.addi	sp,-16
   10f84:	c606                	c.swsp	ra,12(sp)
   10f86:	47a010ef          	jal	ra,12400 <__errno>
   10f8a:	40b2                	c.lwsp	ra,12(sp)
   10f8c:	47d9                	c.li	a5,22
   10f8e:	c11c                	c.sw	a5,0(a0)
   10f90:	4501                	c.li	a0,0
   10f92:	0141                	c.addi	sp,16
   10f94:	8082                	c.jr	ra

00010f96 <_fclose_r>:
   10f96:	1141                	c.addi	sp,-16
   10f98:	c606                	c.swsp	ra,12(sp)
   10f9a:	c04a                	c.swsp	s2,0(sp)
   10f9c:	cd89                	c.beqz	a1,10fb6 <_fclose_r+0x20>
   10f9e:	c422                	c.swsp	s0,8(sp)
   10fa0:	c226                	c.swsp	s1,4(sp)
   10fa2:	842e                	c.mv	s0,a1
   10fa4:	84aa                	c.mv	s1,a0
   10fa6:	c119                	c.beqz	a0,10fac <_fclose_r+0x16>
   10fa8:	595c                	c.lw	a5,52(a0)
   10faa:	c7c1                	c.beqz	a5,11032 <_fclose_r+0x9c>
   10fac:	00c41783          	lh	a5,12(s0)
   10fb0:	eb89                	c.bnez	a5,10fc2 <_fclose_r+0x2c>
   10fb2:	4422                	c.lwsp	s0,8(sp)
   10fb4:	4492                	c.lwsp	s1,4(sp)
   10fb6:	40b2                	c.lwsp	ra,12(sp)
   10fb8:	4901                	c.li	s2,0
   10fba:	854a                	c.mv	a0,s2
   10fbc:	4902                	c.lwsp	s2,0(sp)
   10fbe:	0141                	c.addi	sp,16
   10fc0:	8082                	c.jr	ra
   10fc2:	85a2                	c.mv	a1,s0
   10fc4:	8526                	c.mv	a0,s1
   10fc6:	28a5                	c.jal	1103e <__sflush_r>
   10fc8:	545c                	c.lw	a5,44(s0)
   10fca:	892a                	c.mv	s2,a0
   10fcc:	c791                	c.beqz	a5,10fd8 <_fclose_r+0x42>
   10fce:	4c4c                	c.lw	a1,28(s0)
   10fd0:	8526                	c.mv	a0,s1
   10fd2:	9782                	c.jalr	a5
   10fd4:	04054463          	blt	a0,zero,1101c <_fclose_r+0x86>
   10fd8:	00c45783          	lhu	a5,12(s0)
   10fdc:	0807f793          	andi	a5,a5,128
   10fe0:	e7a1                	c.bnez	a5,11028 <_fclose_r+0x92>
   10fe2:	580c                	c.lw	a1,48(s0)
   10fe4:	c991                	c.beqz	a1,10ff8 <_fclose_r+0x62>
   10fe6:	04040793          	addi	a5,s0,64
   10fea:	00f58563          	beq	a1,a5,10ff4 <_fclose_r+0x5e>
   10fee:	8526                	c.mv	a0,s1
   10ff0:	720010ef          	jal	ra,12710 <_free_r>
   10ff4:	02042823          	sw	zero,48(s0)
   10ff8:	406c                	c.lw	a1,68(s0)
   10ffa:	c591                	c.beqz	a1,11006 <_fclose_r+0x70>
   10ffc:	8526                	c.mv	a0,s1
   10ffe:	712010ef          	jal	ra,12710 <_free_r>
   11002:	04042223          	sw	zero,68(s0)
   11006:	2bb1                	c.jal	11562 <__sfp_lock_acquire>
   11008:	00041623          	sh	zero,12(s0)
   1100c:	2ba1                	c.jal	11564 <__sfp_lock_release>
   1100e:	40b2                	c.lwsp	ra,12(sp)
   11010:	4422                	c.lwsp	s0,8(sp)
   11012:	4492                	c.lwsp	s1,4(sp)
   11014:	854a                	c.mv	a0,s2
   11016:	4902                	c.lwsp	s2,0(sp)
   11018:	0141                	c.addi	sp,16
   1101a:	8082                	c.jr	ra
   1101c:	00c45783          	lhu	a5,12(s0)
   11020:	597d                	c.li	s2,-1
   11022:	0807f793          	andi	a5,a5,128
   11026:	dfd5                	c.beqz	a5,10fe2 <_fclose_r+0x4c>
   11028:	480c                	c.lw	a1,16(s0)
   1102a:	8526                	c.mv	a0,s1
   1102c:	6e4010ef          	jal	ra,12710 <_free_r>
   11030:	bf4d                	c.j	10fe2 <_fclose_r+0x4c>
   11032:	2b29                	c.jal	1154c <__sinit>
   11034:	bfa5                	c.j	10fac <_fclose_r+0x16>

00011036 <fclose>:
   11036:	85aa                	c.mv	a1,a0
   11038:	f2c1a503          	lw	a0,-212(gp) # 1dabc <_impure_ptr>
   1103c:	bfa9                	c.j	10f96 <_fclose_r>

0001103e <__sflush_r>:
   1103e:	00c59703          	lh	a4,12(a1)
   11042:	1101                	c.addi	sp,-32
   11044:	cc22                	c.swsp	s0,24(sp)
   11046:	c64e                	c.swsp	s3,12(sp)
   11048:	ce06                	c.swsp	ra,28(sp)
   1104a:	00877793          	andi	a5,a4,8
   1104e:	842e                	c.mv	s0,a1
   11050:	89aa                	c.mv	s3,a0
   11052:	e7f1                	c.bnez	a5,1111e <__sflush_r+0xe0>
   11054:	6785                	c.lui	a5,0x1
   11056:	80078793          	addi	a5,a5,-2048 # 800 <exit-0xf8b4>
   1105a:	41d4                	c.lw	a3,4(a1)
   1105c:	8fd9                	c.or	a5,a4
   1105e:	00f59623          	sh	a5,12(a1)
   11062:	10d05b63          	bge	zero,a3,11178 <__sflush_r+0x13a>
   11066:	02842803          	lw	a6,40(s0)
   1106a:	0a080463          	beq	a6,zero,11112 <__sflush_r+0xd4>
   1106e:	ca26                	c.swsp	s1,20(sp)
   11070:	01371693          	slli	a3,a4,0x13
   11074:	0009a483          	lw	s1,0(s3)
   11078:	0009a023          	sw	zero,0(s3)
   1107c:	1006c563          	blt	a3,zero,11186 <__sflush_r+0x148>
   11080:	4c4c                	c.lw	a1,28(s0)
   11082:	4601                	c.li	a2,0
   11084:	4685                	c.li	a3,1
   11086:	854e                	c.mv	a0,s3
   11088:	9802                	c.jalr	a6
   1108a:	57fd                	c.li	a5,-1
   1108c:	862a                	c.mv	a2,a0
   1108e:	12f50363          	beq	a0,a5,111b4 <__sflush_r+0x176>
   11092:	00c41783          	lh	a5,12(s0)
   11096:	02842803          	lw	a6,40(s0)
   1109a:	8b91                	c.andi	a5,4
   1109c:	c799                	c.beqz	a5,110aa <__sflush_r+0x6c>
   1109e:	4058                	c.lw	a4,4(s0)
   110a0:	581c                	c.lw	a5,48(s0)
   110a2:	8e19                	c.sub	a2,a4
   110a4:	c399                	c.beqz	a5,110aa <__sflush_r+0x6c>
   110a6:	5c5c                	c.lw	a5,60(s0)
   110a8:	8e1d                	c.sub	a2,a5
   110aa:	4c4c                	c.lw	a1,28(s0)
   110ac:	4681                	c.li	a3,0
   110ae:	854e                	c.mv	a0,s3
   110b0:	9802                	c.jalr	a6
   110b2:	577d                	c.li	a4,-1
   110b4:	00c41783          	lh	a5,12(s0)
   110b8:	0ce51963          	bne	a0,a4,1118a <__sflush_r+0x14c>
   110bc:	0009a683          	lw	a3,0(s3)
   110c0:	4775                	c.li	a4,29
   110c2:	10d76463          	bltu	a4,a3,111ca <__sflush_r+0x18c>
   110c6:	20400737          	lui	a4,0x20400
   110ca:	0705                	c.addi	a4,1 # 20400001 <__BSS_END__+0x203e21f9>
   110cc:	00d75733          	srl	a4,a4,a3
   110d0:	8b05                	c.andi	a4,1
   110d2:	cf65                	c.beqz	a4,111ca <__sflush_r+0x18c>
   110d4:	4814                	c.lw	a3,16(s0)
   110d6:	777d                	c.lui	a4,0xfffff
   110d8:	7ff70713          	addi	a4,a4,2047 # fffff7ff <__BSS_END__+0xfffe19f7>
   110dc:	8f7d                	c.and	a4,a5
   110de:	00e41623          	sh	a4,12(s0)
   110e2:	00042223          	sw	zero,4(s0)
   110e6:	c014                	c.sw	a3,0(s0)
   110e8:	01379713          	slli	a4,a5,0x13
   110ec:	00075563          	bge	a4,zero,110f6 <__sflush_r+0xb8>
   110f0:	0009a783          	lw	a5,0(s3)
   110f4:	cbcd                	c.beqz	a5,111a6 <__sflush_r+0x168>
   110f6:	580c                	c.lw	a1,48(s0)
   110f8:	0099a023          	sw	s1,0(s3)
   110fc:	c9d5                	c.beqz	a1,111b0 <__sflush_r+0x172>
   110fe:	04040793          	addi	a5,s0,64
   11102:	00f58563          	beq	a1,a5,1110c <__sflush_r+0xce>
   11106:	854e                	c.mv	a0,s3
   11108:	608010ef          	jal	ra,12710 <_free_r>
   1110c:	44d2                	c.lwsp	s1,20(sp)
   1110e:	02042823          	sw	zero,48(s0)
   11112:	40f2                	c.lwsp	ra,28(sp)
   11114:	4462                	c.lwsp	s0,24(sp)
   11116:	49b2                	c.lwsp	s3,12(sp)
   11118:	4501                	c.li	a0,0
   1111a:	6105                	c.addi16sp	sp,32
   1111c:	8082                	c.jr	ra
   1111e:	c84a                	c.swsp	s2,16(sp)
   11120:	0105a903          	lw	s2,16(a1)
   11124:	04090f63          	beq	s2,zero,11182 <__sflush_r+0x144>
   11128:	ca26                	c.swsp	s1,20(sp)
   1112a:	4184                	c.lw	s1,0(a1)
   1112c:	8b0d                	c.andi	a4,3
   1112e:	0125a023          	sw	s2,0(a1)
   11132:	412484b3          	sub	s1,s1,s2
   11136:	4781                	c.li	a5,0
   11138:	e311                	c.bnez	a4,1113c <__sflush_r+0xfe>
   1113a:	49dc                	c.lw	a5,20(a1)
   1113c:	c41c                	c.sw	a5,8(s0)
   1113e:	00904663          	blt	zero,s1,1114a <__sflush_r+0x10c>
   11142:	a83d                	c.j	11180 <__sflush_r+0x142>
   11144:	992a                	c.add	s2,a0
   11146:	02905d63          	bge	zero,s1,11180 <__sflush_r+0x142>
   1114a:	505c                	c.lw	a5,36(s0)
   1114c:	4c4c                	c.lw	a1,28(s0)
   1114e:	86a6                	c.mv	a3,s1
   11150:	864a                	c.mv	a2,s2
   11152:	854e                	c.mv	a0,s3
   11154:	9782                	c.jalr	a5
   11156:	8c89                	c.sub	s1,a0
   11158:	fea046e3          	blt	zero,a0,11144 <__sflush_r+0x106>
   1115c:	00c45783          	lhu	a5,12(s0)
   11160:	4942                	c.lwsp	s2,16(sp)
   11162:	0407e793          	ori	a5,a5,64
   11166:	40f2                	c.lwsp	ra,28(sp)
   11168:	00f41623          	sh	a5,12(s0)
   1116c:	4462                	c.lwsp	s0,24(sp)
   1116e:	44d2                	c.lwsp	s1,20(sp)
   11170:	49b2                	c.lwsp	s3,12(sp)
   11172:	557d                	c.li	a0,-1
   11174:	6105                	c.addi16sp	sp,32
   11176:	8082                	c.jr	ra
   11178:	5dd4                	c.lw	a3,60(a1)
   1117a:	eed046e3          	blt	zero,a3,11066 <__sflush_r+0x28>
   1117e:	bf51                	c.j	11112 <__sflush_r+0xd4>
   11180:	44d2                	c.lwsp	s1,20(sp)
   11182:	4942                	c.lwsp	s2,16(sp)
   11184:	b779                	c.j	11112 <__sflush_r+0xd4>
   11186:	4830                	c.lw	a2,80(s0)
   11188:	bf09                	c.j	1109a <__sflush_r+0x5c>
   1118a:	4814                	c.lw	a3,16(s0)
   1118c:	777d                	c.lui	a4,0xfffff
   1118e:	7ff70713          	addi	a4,a4,2047 # fffff7ff <__BSS_END__+0xfffe19f7>
   11192:	8f7d                	c.and	a4,a5
   11194:	00e41623          	sh	a4,12(s0)
   11198:	00042223          	sw	zero,4(s0)
   1119c:	c014                	c.sw	a3,0(s0)
   1119e:	01379713          	slli	a4,a5,0x13
   111a2:	f4075ae3          	bge	a4,zero,110f6 <__sflush_r+0xb8>
   111a6:	580c                	c.lw	a1,48(s0)
   111a8:	c828                	c.sw	a0,80(s0)
   111aa:	0099a023          	sw	s1,0(s3)
   111ae:	f9a1                	c.bnez	a1,110fe <__sflush_r+0xc0>
   111b0:	44d2                	c.lwsp	s1,20(sp)
   111b2:	b785                	c.j	11112 <__sflush_r+0xd4>
   111b4:	0009a783          	lw	a5,0(s3)
   111b8:	ec078de3          	beq	a5,zero,11092 <__sflush_r+0x54>
   111bc:	fe378713          	addi	a4,a5,-29
   111c0:	cb01                	c.beqz	a4,111d0 <__sflush_r+0x192>
   111c2:	17a9                	c.addi	a5,-22
   111c4:	c791                	c.beqz	a5,111d0 <__sflush_r+0x192>
   111c6:	00c45783          	lhu	a5,12(s0)
   111ca:	0407e793          	ori	a5,a5,64
   111ce:	bf61                	c.j	11166 <__sflush_r+0x128>
   111d0:	0099a023          	sw	s1,0(s3)
   111d4:	44d2                	c.lwsp	s1,20(sp)
   111d6:	bf35                	c.j	11112 <__sflush_r+0xd4>

000111d8 <_fflush_r>:
   111d8:	87aa                	c.mv	a5,a0
   111da:	c119                	c.beqz	a0,111e0 <_fflush_r+0x8>
   111dc:	5958                	c.lw	a4,52(a0)
   111de:	cb01                	c.beqz	a4,111ee <_fflush_r+0x16>
   111e0:	00c59703          	lh	a4,12(a1)
   111e4:	e319                	c.bnez	a4,111ea <_fflush_r+0x12>
   111e6:	4501                	c.li	a0,0
   111e8:	8082                	c.jr	ra
   111ea:	853e                	c.mv	a0,a5
   111ec:	bd89                	c.j	1103e <__sflush_r>
   111ee:	1101                	c.addi	sp,-32
   111f0:	c62e                	c.swsp	a1,12(sp)
   111f2:	ce06                	c.swsp	ra,28(sp)
   111f4:	c42a                	c.swsp	a0,8(sp)
   111f6:	2e99                	c.jal	1154c <__sinit>
   111f8:	45b2                	c.lwsp	a1,12(sp)
   111fa:	47a2                	c.lwsp	a5,8(sp)
   111fc:	00c59703          	lh	a4,12(a1)
   11200:	c709                	c.beqz	a4,1120a <_fflush_r+0x32>
   11202:	40f2                	c.lwsp	ra,28(sp)
   11204:	853e                	c.mv	a0,a5
   11206:	6105                	c.addi16sp	sp,32
   11208:	bd1d                	c.j	1103e <__sflush_r>
   1120a:	40f2                	c.lwsp	ra,28(sp)
   1120c:	4501                	c.li	a0,0
   1120e:	6105                	c.addi16sp	sp,32
   11210:	8082                	c.jr	ra

00011212 <fflush>:
   11212:	c91d                	c.beqz	a0,11248 <fflush+0x36>
   11214:	85aa                	c.mv	a1,a0
   11216:	f2c1a503          	lw	a0,-212(gp) # 1dabc <_impure_ptr>
   1121a:	c119                	c.beqz	a0,11220 <fflush+0xe>
   1121c:	595c                	c.lw	a5,52(a0)
   1121e:	c799                	c.beqz	a5,1122c <fflush+0x1a>
   11220:	00c59783          	lh	a5,12(a1)
   11224:	e399                	c.bnez	a5,1122a <fflush+0x18>
   11226:	4501                	c.li	a0,0
   11228:	8082                	c.jr	ra
   1122a:	bd11                	c.j	1103e <__sflush_r>
   1122c:	1101                	c.addi	sp,-32
   1122e:	c62e                	c.swsp	a1,12(sp)
   11230:	c42a                	c.swsp	a0,8(sp)
   11232:	ce06                	c.swsp	ra,28(sp)
   11234:	2e21                	c.jal	1154c <__sinit>
   11236:	45b2                	c.lwsp	a1,12(sp)
   11238:	4522                	c.lwsp	a0,8(sp)
   1123a:	00c59783          	lh	a5,12(a1)
   1123e:	ef89                	c.bnez	a5,11258 <fflush+0x46>
   11240:	40f2                	c.lwsp	ra,28(sp)
   11242:	4501                	c.li	a0,0
   11244:	6105                	c.addi16sp	sp,32
   11246:	8082                	c.jr	ra
   11248:	65c5                	c.lui	a1,0x11
   1124a:	c0818613          	addi	a2,gp,-1016 # 1d798 <__sglue>
   1124e:	1d858593          	addi	a1,a1,472 # 111d8 <_fflush_r>
   11252:	c1818513          	addi	a0,gp,-1000 # 1d7a8 <_impure_data>
   11256:	a991                	c.j	116aa <_fwalk_sglue>
   11258:	40f2                	c.lwsp	ra,28(sp)
   1125a:	6105                	c.addi16sp	sp,32
   1125c:	b3cd                	c.j	1103e <__sflush_r>

0001125e <_fgetc_r>:
   1125e:	872a                	c.mv	a4,a0
   11260:	c119                	c.beqz	a0,11266 <_fgetc_r+0x8>
   11262:	595c                	c.lw	a5,52(a0)
   11264:	c385                	c.beqz	a5,11284 <_fgetc_r+0x26>
   11266:	41dc                	c.lw	a5,4(a1)
   11268:	17fd                	c.addi	a5,-1
   1126a:	c1dc                	c.sw	a5,4(a1)
   1126c:	0007c963          	blt	a5,zero,1127e <_fgetc_r+0x20>
   11270:	419c                	c.lw	a5,0(a1)
   11272:	00178713          	addi	a4,a5,1
   11276:	c198                	c.sw	a4,0(a1)
   11278:	0007c503          	lbu	a0,0(a5)
   1127c:	8082                	c.jr	ra
   1127e:	853a                	c.mv	a0,a4
   11280:	7b20006f          	jal	zero,11a32 <__srget_r>
   11284:	1101                	c.addi	sp,-32
   11286:	c62e                	c.swsp	a1,12(sp)
   11288:	ce06                	c.swsp	ra,28(sp)
   1128a:	c42a                	c.swsp	a0,8(sp)
   1128c:	24c1                	c.jal	1154c <__sinit>
   1128e:	45b2                	c.lwsp	a1,12(sp)
   11290:	4722                	c.lwsp	a4,8(sp)
   11292:	41dc                	c.lw	a5,4(a1)
   11294:	17fd                	c.addi	a5,-1
   11296:	c1dc                	c.sw	a5,4(a1)
   11298:	0007cb63          	blt	a5,zero,112ae <_fgetc_r+0x50>
   1129c:	419c                	c.lw	a5,0(a1)
   1129e:	40f2                	c.lwsp	ra,28(sp)
   112a0:	00178713          	addi	a4,a5,1
   112a4:	c198                	c.sw	a4,0(a1)
   112a6:	0007c503          	lbu	a0,0(a5)
   112aa:	6105                	c.addi16sp	sp,32
   112ac:	8082                	c.jr	ra
   112ae:	40f2                	c.lwsp	ra,28(sp)
   112b0:	853a                	c.mv	a0,a4
   112b2:	6105                	c.addi16sp	sp,32
   112b4:	77e0006f          	jal	zero,11a32 <__srget_r>

000112b8 <fgetc>:
   112b8:	f2c1a703          	lw	a4,-212(gp) # 1dabc <_impure_ptr>
   112bc:	85aa                	c.mv	a1,a0
   112be:	c319                	c.beqz	a4,112c4 <fgetc+0xc>
   112c0:	5b5c                	c.lw	a5,52(a4)
   112c2:	c385                	c.beqz	a5,112e2 <fgetc+0x2a>
   112c4:	41dc                	c.lw	a5,4(a1)
   112c6:	17fd                	c.addi	a5,-1
   112c8:	c1dc                	c.sw	a5,4(a1)
   112ca:	0007c963          	blt	a5,zero,112dc <fgetc+0x24>
   112ce:	419c                	c.lw	a5,0(a1)
   112d0:	00178713          	addi	a4,a5,1
   112d4:	c198                	c.sw	a4,0(a1)
   112d6:	0007c503          	lbu	a0,0(a5)
   112da:	8082                	c.jr	ra
   112dc:	853a                	c.mv	a0,a4
   112de:	7540006f          	jal	zero,11a32 <__srget_r>
   112e2:	1101                	c.addi	sp,-32
   112e4:	c62a                	c.swsp	a0,12(sp)
   112e6:	853a                	c.mv	a0,a4
   112e8:	c43a                	c.swsp	a4,8(sp)
   112ea:	ce06                	c.swsp	ra,28(sp)
   112ec:	2485                	c.jal	1154c <__sinit>
   112ee:	45b2                	c.lwsp	a1,12(sp)
   112f0:	4722                	c.lwsp	a4,8(sp)
   112f2:	41dc                	c.lw	a5,4(a1)
   112f4:	17fd                	c.addi	a5,-1
   112f6:	c1dc                	c.sw	a5,4(a1)
   112f8:	0007cb63          	blt	a5,zero,1130e <fgetc+0x56>
   112fc:	419c                	c.lw	a5,0(a1)
   112fe:	40f2                	c.lwsp	ra,28(sp)
   11300:	00178713          	addi	a4,a5,1
   11304:	c198                	c.sw	a4,0(a1)
   11306:	0007c503          	lbu	a0,0(a5)
   1130a:	6105                	c.addi16sp	sp,32
   1130c:	8082                	c.jr	ra
   1130e:	40f2                	c.lwsp	ra,28(sp)
   11310:	853a                	c.mv	a0,a4
   11312:	6105                	c.addi16sp	sp,32
   11314:	71e0006f          	jal	zero,11a32 <__srget_r>

00011318 <__fp_lock>:
   11318:	4501                	c.li	a0,0
   1131a:	8082                	c.jr	ra

0001131c <stdio_exit_handler>:
   1131c:	65c5                	c.lui	a1,0x11
   1131e:	c0818613          	addi	a2,gp,-1016 # 1d798 <__sglue>
   11322:	f9658593          	addi	a1,a1,-106 # 10f96 <_fclose_r>
   11326:	c1818513          	addi	a0,gp,-1000 # 1d7a8 <_impure_data>
   1132a:	a641                	c.j	116aa <_fwalk_sglue>

0001132c <cleanup_stdio>:
   1132c:	414c                	c.lw	a1,4(a0)
   1132e:	1141                	c.addi	sp,-16
   11330:	c422                	c.swsp	s0,8(sp)
   11332:	c606                	c.swsp	ra,12(sp)
   11334:	f9c18793          	addi	a5,gp,-100 # 1db2c <__sf>
   11338:	842a                	c.mv	s0,a0
   1133a:	00f58363          	beq	a1,a5,11340 <cleanup_stdio+0x14>
   1133e:	39a1                	c.jal	10f96 <_fclose_r>
   11340:	440c                	c.lw	a1,8(s0)
   11342:	00418793          	addi	a5,gp,4 # 1db94 <__global_pointer$+0x4>
   11346:	00f58463          	beq	a1,a5,1134e <cleanup_stdio+0x22>
   1134a:	8522                	c.mv	a0,s0
   1134c:	31a9                	c.jal	10f96 <_fclose_r>
   1134e:	444c                	c.lw	a1,12(s0)
   11350:	06c18793          	addi	a5,gp,108 # 1dbfc <__global_pointer$+0x6c>
   11354:	00f58763          	beq	a1,a5,11362 <cleanup_stdio+0x36>
   11358:	8522                	c.mv	a0,s0
   1135a:	4422                	c.lwsp	s0,8(sp)
   1135c:	40b2                	c.lwsp	ra,12(sp)
   1135e:	0141                	c.addi	sp,16
   11360:	b91d                	c.j	10f96 <_fclose_r>
   11362:	40b2                	c.lwsp	ra,12(sp)
   11364:	4422                	c.lwsp	s0,8(sp)
   11366:	0141                	c.addi	sp,16
   11368:	8082                	c.jr	ra

0001136a <__fp_unlock>:
   1136a:	4501                	c.li	a0,0
   1136c:	8082                	c.jr	ra

0001136e <global_stdio_init.part.0>:
   1136e:	1101                	c.addi	sp,-32
   11370:	67c5                	c.lui	a5,0x11
   11372:	cc22                	c.swsp	s0,24(sp)
   11374:	31c78793          	addi	a5,a5,796 # 1131c <stdio_exit_handler>
   11378:	f9c18413          	addi	s0,gp,-100 # 1db2c <__sf>
   1137c:	ce06                	c.swsp	ra,28(sp)
   1137e:	ca26                	c.swsp	s1,20(sp)
   11380:	c84a                	c.swsp	s2,16(sp)
   11382:	c64e                	c.swsp	s3,12(sp)
   11384:	c452                	c.swsp	s4,8(sp)
   11386:	f2f1ae23          	sw	a5,-196(gp) # 1dacc <__stdio_exit_handler>
   1138a:	4621                	c.li	a2,8
   1138c:	4791                	c.li	a5,4
   1138e:	4581                	c.li	a1,0
   11390:	ff818513          	addi	a0,gp,-8 # 1db88 <__sf+0x5c>
   11394:	c45c                	c.sw	a5,12(s0)
   11396:	00042023          	sw	zero,0(s0)
   1139a:	00042223          	sw	zero,4(s0)
   1139e:	00042423          	sw	zero,8(s0)
   113a2:	06042223          	sw	zero,100(s0)
   113a6:	00042823          	sw	zero,16(s0)
   113aa:	00042a23          	sw	zero,20(s0)
   113ae:	00042c23          	sw	zero,24(s0)
   113b2:	0b6010ef          	jal	ra,12468 <memset>
   113b6:	6a49                	c.lui	s4,0x12
   113b8:	69c9                	c.lui	s3,0x12
   113ba:	6949                	c.lui	s2,0x12
   113bc:	64c9                	c.lui	s1,0x12
   113be:	67c1                	c.lui	a5,0x10
   113c0:	b06a0a13          	addi	s4,s4,-1274 # 11b06 <__sread>
   113c4:	b4298993          	addi	s3,s3,-1214 # 11b42 <__swrite>
   113c8:	b9690913          	addi	s2,s2,-1130 # 11b96 <__sseek>
   113cc:	bd648493          	addi	s1,s1,-1066 # 11bd6 <__sclose>
   113d0:	07a5                	c.addi	a5,9 # 10009 <exit-0xab>
   113d2:	4621                	c.li	a2,8
   113d4:	4581                	c.li	a1,0
   113d6:	06018513          	addi	a0,gp,96 # 1dbf0 <__global_pointer$+0x60>
   113da:	d87c                	c.sw	a5,116(s0)
   113dc:	03442023          	sw	s4,32(s0)
   113e0:	03342223          	sw	s3,36(s0)
   113e4:	03242423          	sw	s2,40(s0)
   113e8:	d444                	c.sw	s1,44(s0)
   113ea:	cc40                	c.sw	s0,28(s0)
   113ec:	06042423          	sw	zero,104(s0)
   113f0:	06042623          	sw	zero,108(s0)
   113f4:	06042823          	sw	zero,112(s0)
   113f8:	0c042623          	sw	zero,204(s0)
   113fc:	06042c23          	sw	zero,120(s0)
   11400:	06042e23          	sw	zero,124(s0)
   11404:	08042023          	sw	zero,128(s0)
   11408:	060010ef          	jal	ra,12468 <memset>
   1140c:	000207b7          	lui	a5,0x20
   11410:	07c9                	c.addi	a5,18 # 20012 <__BSS_END__+0x220a>
   11412:	00418713          	addi	a4,gp,4 # 1db94 <__global_pointer$+0x4>
   11416:	0c818513          	addi	a0,gp,200 # 1dc58 <__global_pointer$+0xc8>
   1141a:	4621                	c.li	a2,8
   1141c:	4581                	c.li	a1,0
   1141e:	09442423          	sw	s4,136(s0)
   11422:	09342623          	sw	s3,140(s0)
   11426:	09242823          	sw	s2,144(s0)
   1142a:	08942a23          	sw	s1,148(s0)
   1142e:	0cf42e23          	sw	a5,220(s0)
   11432:	0c042823          	sw	zero,208(s0)
   11436:	0c042a23          	sw	zero,212(s0)
   1143a:	0c042c23          	sw	zero,216(s0)
   1143e:	12042a23          	sw	zero,308(s0)
   11442:	0e042023          	sw	zero,224(s0)
   11446:	0e042223          	sw	zero,228(s0)
   1144a:	0e042423          	sw	zero,232(s0)
   1144e:	08e42223          	sw	a4,132(s0)
   11452:	016010ef          	jal	ra,12468 <memset>
   11456:	06c18793          	addi	a5,gp,108 # 1dbfc <__global_pointer$+0x6c>
   1145a:	0f442823          	sw	s4,240(s0)
   1145e:	0f342a23          	sw	s3,244(s0)
   11462:	0f242c23          	sw	s2,248(s0)
   11466:	0e942e23          	sw	s1,252(s0)
   1146a:	40f2                	c.lwsp	ra,28(sp)
   1146c:	0ef42623          	sw	a5,236(s0)
   11470:	4462                	c.lwsp	s0,24(sp)
   11472:	44d2                	c.lwsp	s1,20(sp)
   11474:	4942                	c.lwsp	s2,16(sp)
   11476:	49b2                	c.lwsp	s3,12(sp)
   11478:	4a22                	c.lwsp	s4,8(sp)
   1147a:	6105                	c.addi16sp	sp,32
   1147c:	8082                	c.jr	ra

0001147e <__sfp>:
   1147e:	f3c1a783          	lw	a5,-196(gp) # 1dacc <__stdio_exit_handler>
   11482:	1101                	c.addi	sp,-32
   11484:	ca26                	c.swsp	s1,20(sp)
   11486:	ce06                	c.swsp	ra,28(sp)
   11488:	cc22                	c.swsp	s0,24(sp)
   1148a:	84aa                	c.mv	s1,a0
   1148c:	cbcd                	c.beqz	a5,1153e <__sfp+0xc0>
   1148e:	c0818813          	addi	a6,gp,-1016 # 1d798 <__sglue>
   11492:	56fd                	c.li	a3,-1
   11494:	00482783          	lw	a5,4(a6)
   11498:	17fd                	c.addi	a5,-1
   1149a:	0607c263          	blt	a5,zero,114fe <__sfp+0x80>
   1149e:	00882403          	lw	s0,8(a6)
   114a2:	a029                	c.j	114ac <__sfp+0x2e>
   114a4:	06840413          	addi	s0,s0,104
   114a8:	04d78b63          	beq	a5,a3,114fe <__sfp+0x80>
   114ac:	00c41703          	lh	a4,12(s0)
   114b0:	17fd                	c.addi	a5,-1
   114b2:	fb6d                	c.bnez	a4,114a4 <__sfp+0x26>
   114b4:	77c1                	c.lui	a5,0xffff0
   114b6:	0785                	c.addi	a5,1 # ffff0001 <__BSS_END__+0xfffd21f9>
   114b8:	c45c                	c.sw	a5,12(s0)
   114ba:	06042223          	sw	zero,100(s0)
   114be:	00042023          	sw	zero,0(s0)
   114c2:	00042423          	sw	zero,8(s0)
   114c6:	00042223          	sw	zero,4(s0)
   114ca:	00042823          	sw	zero,16(s0)
   114ce:	00042a23          	sw	zero,20(s0)
   114d2:	00042c23          	sw	zero,24(s0)
   114d6:	4621                	c.li	a2,8
   114d8:	4581                	c.li	a1,0
   114da:	05c40513          	addi	a0,s0,92
   114de:	78b000ef          	jal	ra,12468 <memset>
   114e2:	02042823          	sw	zero,48(s0)
   114e6:	02042a23          	sw	zero,52(s0)
   114ea:	04042223          	sw	zero,68(s0)
   114ee:	04042423          	sw	zero,72(s0)
   114f2:	40f2                	c.lwsp	ra,28(sp)
   114f4:	8522                	c.mv	a0,s0
   114f6:	4462                	c.lwsp	s0,24(sp)
   114f8:	44d2                	c.lwsp	s1,20(sp)
   114fa:	6105                	c.addi16sp	sp,32
   114fc:	8082                	c.jr	ra
   114fe:	00082403          	lw	s0,0(a6)
   11502:	c019                	c.beqz	s0,11508 <__sfp+0x8a>
   11504:	8822                	c.mv	a6,s0
   11506:	b779                	c.j	11494 <__sfp+0x16>
   11508:	1ac00593          	addi	a1,zero,428
   1150c:	8526                	c.mv	a0,s1
   1150e:	c642                	c.swsp	a6,12(sp)
   11510:	9a0ff0ef          	jal	ra,106b0 <_malloc_r>
   11514:	4832                	c.lwsp	a6,12(sp)
   11516:	842a                	c.mv	s0,a0
   11518:	c50d                	c.beqz	a0,11542 <__sfp+0xc4>
   1151a:	4791                	c.li	a5,4
   1151c:	c15c                	c.sw	a5,4(a0)
   1151e:	0531                	c.addi	a0,12
   11520:	00042023          	sw	zero,0(s0)
   11524:	c408                	c.sw	a0,8(s0)
   11526:	1a000613          	addi	a2,zero,416
   1152a:	4581                	c.li	a1,0
   1152c:	c642                	c.swsp	a6,12(sp)
   1152e:	73b000ef          	jal	ra,12468 <memset>
   11532:	4832                	c.lwsp	a6,12(sp)
   11534:	56fd                	c.li	a3,-1
   11536:	00882023          	sw	s0,0(a6)
   1153a:	8822                	c.mv	a6,s0
   1153c:	bfa1                	c.j	11494 <__sfp+0x16>
   1153e:	3d05                	c.jal	1136e <global_stdio_init.part.0>
   11540:	b7b9                	c.j	1148e <__sfp+0x10>
   11542:	00082023          	sw	zero,0(a6)
   11546:	47b1                	c.li	a5,12
   11548:	c09c                	c.sw	a5,0(s1)
   1154a:	b765                	c.j	114f2 <__sfp+0x74>

0001154c <__sinit>:
   1154c:	595c                	c.lw	a5,52(a0)
   1154e:	c391                	c.beqz	a5,11552 <__sinit+0x6>
   11550:	8082                	c.jr	ra
   11552:	67c5                	c.lui	a5,0x11
   11554:	f3c1a703          	lw	a4,-196(gp) # 1dacc <__stdio_exit_handler>
   11558:	32c78793          	addi	a5,a5,812 # 1132c <cleanup_stdio>
   1155c:	d95c                	c.sw	a5,52(a0)
   1155e:	fb6d                	c.bnez	a4,11550 <__sinit+0x4>
   11560:	b539                	c.j	1136e <global_stdio_init.part.0>

00011562 <__sfp_lock_acquire>:
   11562:	8082                	c.jr	ra

00011564 <__sfp_lock_release>:
   11564:	8082                	c.jr	ra

00011566 <__fp_lock_all>:
   11566:	65c5                	c.lui	a1,0x11
   11568:	c0818613          	addi	a2,gp,-1016 # 1d798 <__sglue>
   1156c:	31858593          	addi	a1,a1,792 # 11318 <__fp_lock>
   11570:	4501                	c.li	a0,0
   11572:	aa25                	c.j	116aa <_fwalk_sglue>

00011574 <__fp_unlock_all>:
   11574:	65c5                	c.lui	a1,0x11
   11576:	c0818613          	addi	a2,gp,-1016 # 1d798 <__sglue>
   1157a:	36a58593          	addi	a1,a1,874 # 1136a <__fp_unlock>
   1157e:	4501                	c.li	a0,0
   11580:	a22d                	c.j	116aa <_fwalk_sglue>

00011582 <_fopen_r>:
   11582:	7179                	c.addi16sp	sp,-48
   11584:	d04a                	c.swsp	s2,32(sp)
   11586:	892e                	c.mv	s2,a1
   11588:	85b2                	c.mv	a1,a2
   1158a:	0870                	c.addi4spn	a2,sp,28
   1158c:	d226                	c.swsp	s1,36(sp)
   1158e:	d606                	c.swsp	ra,44(sp)
   11590:	84aa                	c.mv	s1,a0
   11592:	562030ef          	jal	ra,14af4 <__sflags>
   11596:	c13d                	c.beqz	a0,115fc <_fopen_r+0x7a>
   11598:	d422                	c.swsp	s0,40(sp)
   1159a:	842a                	c.mv	s0,a0
   1159c:	8526                	c.mv	a0,s1
   1159e:	35c5                	c.jal	1147e <__sfp>
   115a0:	cd29                	c.beqz	a0,115fa <_fopen_r+0x78>
   115a2:	4672                	c.lwsp	a2,28(sp)
   115a4:	c62a                	c.swsp	a0,12(sp)
   115a6:	85ca                	c.mv	a1,s2
   115a8:	1b600693          	addi	a3,zero,438
   115ac:	8526                	c.mv	a0,s1
   115ae:	563000ef          	jal	ra,12310 <_open_r>
   115b2:	47b2                	c.lwsp	a5,12(sp)
   115b4:	06054963          	blt	a0,zero,11626 <_fopen_r+0xa4>
   115b8:	0442                	c.slli	s0,0x10
   115ba:	65c9                	c.lui	a1,0x12
   115bc:	6649                	c.lui	a2,0x12
   115be:	66c9                	c.lui	a3,0x12
   115c0:	6749                	c.lui	a4,0x12
   115c2:	8441                	c.srai	s0,0x10
   115c4:	b0658593          	addi	a1,a1,-1274 # 11b06 <__sread>
   115c8:	b4260613          	addi	a2,a2,-1214 # 11b42 <__swrite>
   115cc:	b9668693          	addi	a3,a3,-1130 # 11b96 <__sseek>
   115d0:	bd670713          	addi	a4,a4,-1066 # 11bd6 <__sclose>
   115d4:	00879623          	sh	s0,12(a5)
   115d8:	00a79723          	sh	a0,14(a5)
   115dc:	10047413          	andi	s0,s0,256
   115e0:	cfdc                	c.sw	a5,28(a5)
   115e2:	d38c                	c.sw	a1,32(a5)
   115e4:	d3d0                	c.sw	a2,36(a5)
   115e6:	d794                	c.sw	a3,40(a5)
   115e8:	d7d8                	c.sw	a4,44(a5)
   115ea:	e005                	c.bnez	s0,1160a <_fopen_r+0x88>
   115ec:	5422                	c.lwsp	s0,40(sp)
   115ee:	50b2                	c.lwsp	ra,44(sp)
   115f0:	5492                	c.lwsp	s1,36(sp)
   115f2:	5902                	c.lwsp	s2,32(sp)
   115f4:	853e                	c.mv	a0,a5
   115f6:	6145                	c.addi16sp	sp,48
   115f8:	8082                	c.jr	ra
   115fa:	5422                	c.lwsp	s0,40(sp)
   115fc:	4781                	c.li	a5,0
   115fe:	50b2                	c.lwsp	ra,44(sp)
   11600:	5492                	c.lwsp	s1,36(sp)
   11602:	5902                	c.lwsp	s2,32(sp)
   11604:	853e                	c.mv	a0,a5
   11606:	6145                	c.addi16sp	sp,48
   11608:	8082                	c.jr	ra
   1160a:	8526                	c.mv	a0,s1
   1160c:	85be                	c.mv	a1,a5
   1160e:	4689                	c.li	a3,2
   11610:	4601                	c.li	a2,0
   11612:	c63e                	c.swsp	a5,12(sp)
   11614:	2059                	c.jal	1169a <_fseek_r>
   11616:	47b2                	c.lwsp	a5,12(sp)
   11618:	5422                	c.lwsp	s0,40(sp)
   1161a:	50b2                	c.lwsp	ra,44(sp)
   1161c:	5492                	c.lwsp	s1,36(sp)
   1161e:	5902                	c.lwsp	s2,32(sp)
   11620:	853e                	c.mv	a0,a5
   11622:	6145                	c.addi16sp	sp,48
   11624:	8082                	c.jr	ra
   11626:	3f35                	c.jal	11562 <__sfp_lock_acquire>
   11628:	47b2                	c.lwsp	a5,12(sp)
   1162a:	00079623          	sh	zero,12(a5)
   1162e:	3f1d                	c.jal	11564 <__sfp_lock_release>
   11630:	4781                	c.li	a5,0
   11632:	5422                	c.lwsp	s0,40(sp)
   11634:	b7e9                	c.j	115fe <_fopen_r+0x7c>

00011636 <fopen>:
   11636:	87aa                	c.mv	a5,a0
   11638:	f2c1a503          	lw	a0,-212(gp) # 1dabc <_impure_ptr>
   1163c:	862e                	c.mv	a2,a1
   1163e:	85be                	c.mv	a1,a5
   11640:	b789                	c.j	11582 <_fopen_r>

00011642 <_fputc_r>:
   11642:	87aa                	c.mv	a5,a0
   11644:	c119                	c.beqz	a0,1164a <_fputc_r+0x8>
   11646:	5958                	c.lw	a4,52(a0)
   11648:	c319                	c.beqz	a4,1164e <_fputc_r+0xc>
   1164a:	853e                	c.mv	a0,a5
   1164c:	a4b1                	c.j	11898 <_putc_r>
   1164e:	1101                	c.addi	sp,-32
   11650:	ce06                	c.swsp	ra,28(sp)
   11652:	c632                	c.swsp	a2,12(sp)
   11654:	c42e                	c.swsp	a1,8(sp)
   11656:	c22a                	c.swsp	a0,4(sp)
   11658:	3dd5                	c.jal	1154c <__sinit>
   1165a:	4792                	c.lwsp	a5,4(sp)
   1165c:	4632                	c.lwsp	a2,12(sp)
   1165e:	45a2                	c.lwsp	a1,8(sp)
   11660:	40f2                	c.lwsp	ra,28(sp)
   11662:	853e                	c.mv	a0,a5
   11664:	6105                	c.addi16sp	sp,32
   11666:	ac0d                	c.j	11898 <_putc_r>

00011668 <fputc>:
   11668:	f2c1a783          	lw	a5,-212(gp) # 1dabc <_impure_ptr>
   1166c:	872a                	c.mv	a4,a0
   1166e:	862e                	c.mv	a2,a1
   11670:	c399                	c.beqz	a5,11676 <fputc+0xe>
   11672:	5bd4                	c.lw	a3,52(a5)
   11674:	c681                	c.beqz	a3,1167c <fputc+0x14>
   11676:	85ba                	c.mv	a1,a4
   11678:	853e                	c.mv	a0,a5
   1167a:	ac39                	c.j	11898 <_putc_r>
   1167c:	1101                	c.addi	sp,-32
   1167e:	c42a                	c.swsp	a0,8(sp)
   11680:	853e                	c.mv	a0,a5
   11682:	ce06                	c.swsp	ra,28(sp)
   11684:	c62e                	c.swsp	a1,12(sp)
   11686:	c23e                	c.swsp	a5,4(sp)
   11688:	35d1                	c.jal	1154c <__sinit>
   1168a:	4722                	c.lwsp	a4,8(sp)
   1168c:	4792                	c.lwsp	a5,4(sp)
   1168e:	4632                	c.lwsp	a2,12(sp)
   11690:	40f2                	c.lwsp	ra,28(sp)
   11692:	85ba                	c.mv	a1,a4
   11694:	853e                	c.mv	a0,a5
   11696:	6105                	c.addi16sp	sp,32
   11698:	a401                	c.j	11898 <_putc_r>

0001169a <_fseek_r>:
   1169a:	af39                	c.j	11db8 <_fseeko_r>

0001169c <fseek>:
   1169c:	872a                	c.mv	a4,a0
   1169e:	f2c1a503          	lw	a0,-212(gp) # 1dabc <_impure_ptr>
   116a2:	86b2                	c.mv	a3,a2
   116a4:	862e                	c.mv	a2,a1
   116a6:	85ba                	c.mv	a1,a4
   116a8:	af01                	c.j	11db8 <_fseeko_r>

000116aa <_fwalk_sglue>:
   116aa:	7179                	c.addi16sp	sp,-48
   116ac:	d04a                	c.swsp	s2,32(sp)
   116ae:	ce4e                	c.swsp	s3,28(sp)
   116b0:	cc52                	c.swsp	s4,24(sp)
   116b2:	ca56                	c.swsp	s5,20(sp)
   116b4:	c85a                	c.swsp	s6,16(sp)
   116b6:	c65e                	c.swsp	s7,12(sp)
   116b8:	d606                	c.swsp	ra,44(sp)
   116ba:	d422                	c.swsp	s0,40(sp)
   116bc:	d226                	c.swsp	s1,36(sp)
   116be:	8ab2                	c.mv	s5,a2
   116c0:	8b2a                	c.mv	s6,a0
   116c2:	8bae                	c.mv	s7,a1
   116c4:	4a01                	c.li	s4,0
   116c6:	4985                	c.li	s3,1
   116c8:	597d                	c.li	s2,-1
   116ca:	004aa483          	lw	s1,4(s5)
   116ce:	14fd                	c.addi	s1,-1
   116d0:	0204c663          	blt	s1,zero,116fc <_fwalk_sglue+0x52>
   116d4:	008aa403          	lw	s0,8(s5)
   116d8:	00c45783          	lhu	a5,12(s0)
   116dc:	00f9fb63          	bgeu	s3,a5,116f2 <_fwalk_sglue+0x48>
   116e0:	00e41783          	lh	a5,14(s0)
   116e4:	85a2                	c.mv	a1,s0
   116e6:	855a                	c.mv	a0,s6
   116e8:	01278563          	beq	a5,s2,116f2 <_fwalk_sglue+0x48>
   116ec:	9b82                	c.jalr	s7
   116ee:	00aa6a33          	or	s4,s4,a0
   116f2:	14fd                	c.addi	s1,-1
   116f4:	06840413          	addi	s0,s0,104
   116f8:	ff2490e3          	bne	s1,s2,116d8 <_fwalk_sglue+0x2e>
   116fc:	000aaa83          	lw	s5,0(s5)
   11700:	fc0a95e3          	bne	s5,zero,116ca <_fwalk_sglue+0x20>
   11704:	50b2                	c.lwsp	ra,44(sp)
   11706:	5422                	c.lwsp	s0,40(sp)
   11708:	5492                	c.lwsp	s1,36(sp)
   1170a:	5902                	c.lwsp	s2,32(sp)
   1170c:	49f2                	c.lwsp	s3,28(sp)
   1170e:	4ad2                	c.lwsp	s5,20(sp)
   11710:	4b42                	c.lwsp	s6,16(sp)
   11712:	4bb2                	c.lwsp	s7,12(sp)
   11714:	8552                	c.mv	a0,s4
   11716:	4a62                	c.lwsp	s4,24(sp)
   11718:	6145                	c.addi16sp	sp,48
   1171a:	8082                	c.jr	ra

0001171c <_fwrite_r>:
   1171c:	02c687b3          	mul	a5,a3,a2
   11720:	715d                	c.addi16sp	sp,-80
   11722:	02c10813          	addi	a6,sp,44
   11726:	88b2                	c.mv	a7,a2
   11728:	4605                	c.li	a2,1
   1172a:	da42                	c.swsp	a6,52(sp)
   1172c:	c686                	c.swsp	ra,76(sp)
   1172e:	d62e                	c.swsp	a1,44(sp)
   11730:	dc32                	c.swsp	a2,56(sp)
   11732:	882a                	c.mv	a6,a0
   11734:	d83e                	c.swsp	a5,48(sp)
   11736:	de3e                	c.swsp	a5,60(sp)
   11738:	c119                	c.beqz	a0,1173e <_fwrite_r+0x22>
   1173a:	5950                	c.lw	a2,52(a0)
   1173c:	ce29                	c.beqz	a2,11796 <_fwrite_r+0x7a>
   1173e:	00c71603          	lh	a2,12(a4)
   11742:	536c                	c.lw	a1,100(a4)
   11744:	6309                	c.lui	t1,0x2
   11746:	01261513          	slli	a0,a2,0x12
   1174a:	02054e63          	blt	a0,zero,11786 <_fwrite_r+0x6a>
   1174e:	7579                	c.lui	a0,0xffffe
   11750:	157d                	c.addi	a0,-1 # ffffdfff <__BSS_END__+0xfffe01f7>
   11752:	00666633          	or	a2,a2,t1
   11756:	8de9                	c.and	a1,a0
   11758:	00c71623          	sh	a2,12(a4)
   1175c:	d36c                	c.sw	a1,100(a4)
   1175e:	85ba                	c.mv	a1,a4
   11760:	8542                	c.mv	a0,a6
   11762:	1850                	c.addi4spn	a2,sp,52
   11764:	c636                	c.swsp	a3,12(sp)
   11766:	ca46                	c.swsp	a7,20(sp)
   11768:	c83e                	c.swsp	a5,16(sp)
   1176a:	40a030ef          	jal	ra,14b74 <__sfvwrite_r>
   1176e:	872a                	c.mv	a4,a0
   11770:	4532                	c.lwsp	a0,12(sp)
   11772:	c719                	c.beqz	a4,11780 <_fwrite_r+0x64>
   11774:	5772                	c.lwsp	a4,60(sp)
   11776:	47c2                	c.lwsp	a5,16(sp)
   11778:	48d2                	c.lwsp	a7,20(sp)
   1177a:	8f99                	c.sub	a5,a4
   1177c:	0317d533          	divu	a0,a5,a7
   11780:	40b6                	c.lwsp	ra,76(sp)
   11782:	6161                	c.addi16sp	sp,80
   11784:	8082                	c.jr	ra
   11786:	01259613          	slli	a2,a1,0x12
   1178a:	4501                	c.li	a0,0
   1178c:	fc0659e3          	bge	a2,zero,1175e <_fwrite_r+0x42>
   11790:	40b6                	c.lwsp	ra,76(sp)
   11792:	6161                	c.addi16sp	sp,80
   11794:	8082                	c.jr	ra
   11796:	ce3a                	c.swsp	a4,28(sp)
   11798:	cc36                	c.swsp	a3,24(sp)
   1179a:	ca46                	c.swsp	a7,20(sp)
   1179c:	c63e                	c.swsp	a5,12(sp)
   1179e:	c82a                	c.swsp	a0,16(sp)
   117a0:	3375                	c.jal	1154c <__sinit>
   117a2:	4772                	c.lwsp	a4,28(sp)
   117a4:	46e2                	c.lwsp	a3,24(sp)
   117a6:	48d2                	c.lwsp	a7,20(sp)
   117a8:	4842                	c.lwsp	a6,16(sp)
   117aa:	47b2                	c.lwsp	a5,12(sp)
   117ac:	bf49                	c.j	1173e <_fwrite_r+0x22>

000117ae <fwrite>:
   117ae:	02c587b3          	mul	a5,a1,a2
   117b2:	715d                	c.addi16sp	sp,-80
   117b4:	8832                	c.mv	a6,a2
   117b6:	f2c1a603          	lw	a2,-212(gp) # 1dabc <_impure_ptr>
   117ba:	88ae                	c.mv	a7,a1
   117bc:	4705                	c.li	a4,1
   117be:	106c                	c.addi4spn	a1,sp,44
   117c0:	c686                	c.swsp	ra,76(sp)
   117c2:	d62a                	c.swsp	a0,44(sp)
   117c4:	da2e                	c.swsp	a1,52(sp)
   117c6:	dc3a                	c.swsp	a4,56(sp)
   117c8:	d83e                	c.swsp	a5,48(sp)
   117ca:	de3e                	c.swsp	a5,60(sp)
   117cc:	c219                	c.beqz	a2,117d2 <fwrite+0x24>
   117ce:	5a58                	c.lw	a4,52(a2)
   117d0:	cf29                	c.beqz	a4,1182a <fwrite+0x7c>
   117d2:	00c69703          	lh	a4,12(a3)
   117d6:	52ec                	c.lw	a1,100(a3)
   117d8:	6309                	c.lui	t1,0x2
   117da:	01271513          	slli	a0,a4,0x12
   117de:	02054e63          	blt	a0,zero,1181a <fwrite+0x6c>
   117e2:	7579                	c.lui	a0,0xffffe
   117e4:	157d                	c.addi	a0,-1 # ffffdfff <__BSS_END__+0xfffe01f7>
   117e6:	00676733          	or	a4,a4,t1
   117ea:	8de9                	c.and	a1,a0
   117ec:	00e69623          	sh	a4,12(a3)
   117f0:	d2ec                	c.sw	a1,100(a3)
   117f2:	8532                	c.mv	a0,a2
   117f4:	85b6                	c.mv	a1,a3
   117f6:	1850                	c.addi4spn	a2,sp,52
   117f8:	c642                	c.swsp	a6,12(sp)
   117fa:	ca46                	c.swsp	a7,20(sp)
   117fc:	c83e                	c.swsp	a5,16(sp)
   117fe:	376030ef          	jal	ra,14b74 <__sfvwrite_r>
   11802:	872a                	c.mv	a4,a0
   11804:	4532                	c.lwsp	a0,12(sp)
   11806:	c719                	c.beqz	a4,11814 <fwrite+0x66>
   11808:	5772                	c.lwsp	a4,60(sp)
   1180a:	47c2                	c.lwsp	a5,16(sp)
   1180c:	48d2                	c.lwsp	a7,20(sp)
   1180e:	8f99                	c.sub	a5,a4
   11810:	0317d533          	divu	a0,a5,a7
   11814:	40b6                	c.lwsp	ra,76(sp)
   11816:	6161                	c.addi16sp	sp,80
   11818:	8082                	c.jr	ra
   1181a:	01259713          	slli	a4,a1,0x12
   1181e:	4501                	c.li	a0,0
   11820:	fc0759e3          	bge	a4,zero,117f2 <fwrite+0x44>
   11824:	40b6                	c.lwsp	ra,76(sp)
   11826:	6161                	c.addi16sp	sp,80
   11828:	8082                	c.jr	ra
   1182a:	8532                	c.mv	a0,a2
   1182c:	ce36                	c.swsp	a3,28(sp)
   1182e:	cc42                	c.swsp	a6,24(sp)
   11830:	ca46                	c.swsp	a7,20(sp)
   11832:	c83e                	c.swsp	a5,16(sp)
   11834:	c632                	c.swsp	a2,12(sp)
   11836:	3b19                	c.jal	1154c <__sinit>
   11838:	46f2                	c.lwsp	a3,28(sp)
   1183a:	4862                	c.lwsp	a6,24(sp)
   1183c:	48d2                	c.lwsp	a7,20(sp)
   1183e:	47c2                	c.lwsp	a5,16(sp)
   11840:	4632                	c.lwsp	a2,12(sp)
   11842:	bf41                	c.j	117d2 <fwrite+0x24>

00011844 <_printf_r>:
   11844:	7139                	c.addi16sp	sp,-64
   11846:	8e2e                	c.mv	t3,a1
   11848:	450c                	c.lw	a1,8(a0)
   1184a:	02810313          	addi	t1,sp,40
   1184e:	d432                	c.swsp	a2,40(sp)
   11850:	d636                	c.swsp	a3,44(sp)
   11852:	8672                	c.mv	a2,t3
   11854:	869a                	c.mv	a3,t1
   11856:	ce06                	c.swsp	ra,28(sp)
   11858:	d83a                	c.swsp	a4,48(sp)
   1185a:	da3e                	c.swsp	a5,52(sp)
   1185c:	dc42                	c.swsp	a6,56(sp)
   1185e:	de46                	c.swsp	a7,60(sp)
   11860:	c61a                	c.swsp	t1,12(sp)
   11862:	0ce010ef          	jal	ra,12930 <_vfprintf_r>
   11866:	40f2                	c.lwsp	ra,28(sp)
   11868:	6121                	c.addi16sp	sp,64
   1186a:	8082                	c.jr	ra

0001186c <printf>:
   1186c:	f2c1a303          	lw	t1,-212(gp) # 1dabc <_impure_ptr>
   11870:	7139                	c.addi16sp	sp,-64
   11872:	d432                	c.swsp	a2,40(sp)
   11874:	d636                	c.swsp	a3,44(sp)
   11876:	d22e                	c.swsp	a1,36(sp)
   11878:	d83a                	c.swsp	a4,48(sp)
   1187a:	da3e                	c.swsp	a5,52(sp)
   1187c:	dc42                	c.swsp	a6,56(sp)
   1187e:	de46                	c.swsp	a7,60(sp)
   11880:	00832583          	lw	a1,8(t1) # 2008 <exit-0xe0ac>
   11884:	1054                	c.addi4spn	a3,sp,36
   11886:	862a                	c.mv	a2,a0
   11888:	851a                	c.mv	a0,t1
   1188a:	ce06                	c.swsp	ra,28(sp)
   1188c:	c636                	c.swsp	a3,12(sp)
   1188e:	0a2010ef          	jal	ra,12930 <_vfprintf_r>
   11892:	40f2                	c.lwsp	ra,28(sp)
   11894:	6121                	c.addi16sp	sp,64
   11896:	8082                	c.jr	ra

00011898 <_putc_r>:
   11898:	872a                	c.mv	a4,a0
   1189a:	c119                	c.beqz	a0,118a0 <_putc_r+0x8>
   1189c:	595c                	c.lw	a5,52(a0)
   1189e:	cb8d                	c.beqz	a5,118d0 <_putc_r+0x38>
   118a0:	461c                	c.lw	a5,8(a2)
   118a2:	0ff5f693          	andi	a3,a1,255
   118a6:	17fd                	c.addi	a5,-1
   118a8:	c61c                	c.sw	a5,8(a2)
   118aa:	0007d863          	bge	a5,zero,118ba <_putc_r+0x22>
   118ae:	4e08                	c.lw	a0,24(a2)
   118b0:	00a7ce63          	blt	a5,a0,118cc <_putc_r+0x34>
   118b4:	ff668793          	addi	a5,a3,-10
   118b8:	cb91                	c.beqz	a5,118cc <_putc_r+0x34>
   118ba:	421c                	c.lw	a5,0(a2)
   118bc:	0ff5f513          	andi	a0,a1,255
   118c0:	00178713          	addi	a4,a5,1
   118c4:	c218                	c.sw	a4,0(a2)
   118c6:	00d78023          	sb	a3,0(a5)
   118ca:	8082                	c.jr	ra
   118cc:	853a                	c.mv	a0,a4
   118ce:	a639                	c.j	11bdc <__swbuf_r>
   118d0:	1101                	c.addi	sp,-32
   118d2:	c632                	c.swsp	a2,12(sp)
   118d4:	c42e                	c.swsp	a1,8(sp)
   118d6:	ce06                	c.swsp	ra,28(sp)
   118d8:	c22a                	c.swsp	a0,4(sp)
   118da:	398d                	c.jal	1154c <__sinit>
   118dc:	4632                	c.lwsp	a2,12(sp)
   118de:	45a2                	c.lwsp	a1,8(sp)
   118e0:	4712                	c.lwsp	a4,4(sp)
   118e2:	461c                	c.lw	a5,8(a2)
   118e4:	0ff5f693          	andi	a3,a1,255
   118e8:	17fd                	c.addi	a5,-1
   118ea:	c61c                	c.sw	a5,8(a2)
   118ec:	0007d863          	bge	a5,zero,118fc <_putc_r+0x64>
   118f0:	4e08                	c.lw	a0,24(a2)
   118f2:	02a7c063          	blt	a5,a0,11912 <_putc_r+0x7a>
   118f6:	ff668793          	addi	a5,a3,-10
   118fa:	cf81                	c.beqz	a5,11912 <_putc_r+0x7a>
   118fc:	421c                	c.lw	a5,0(a2)
   118fe:	0ff5f513          	andi	a0,a1,255
   11902:	00178713          	addi	a4,a5,1
   11906:	c218                	c.sw	a4,0(a2)
   11908:	00d78023          	sb	a3,0(a5)
   1190c:	40f2                	c.lwsp	ra,28(sp)
   1190e:	6105                	c.addi16sp	sp,32
   11910:	8082                	c.jr	ra
   11912:	40f2                	c.lwsp	ra,28(sp)
   11914:	853a                	c.mv	a0,a4
   11916:	6105                	c.addi16sp	sp,32
   11918:	a4d1                	c.j	11bdc <__swbuf_r>

0001191a <putc>:
   1191a:	f2c1a683          	lw	a3,-212(gp) # 1dabc <_impure_ptr>
   1191e:	872a                	c.mv	a4,a0
   11920:	c299                	c.beqz	a3,11926 <putc+0xc>
   11922:	5adc                	c.lw	a5,52(a3)
   11924:	cb9d                	c.beqz	a5,1195a <putc+0x40>
   11926:	459c                	c.lw	a5,8(a1)
   11928:	0ff77613          	andi	a2,a4,255
   1192c:	17fd                	c.addi	a5,-1
   1192e:	c59c                	c.sw	a5,8(a1)
   11930:	0007d863          	bge	a5,zero,11940 <putc+0x26>
   11934:	4d88                	c.lw	a0,24(a1)
   11936:	00a7ce63          	blt	a5,a0,11952 <putc+0x38>
   1193a:	ff660793          	addi	a5,a2,-10
   1193e:	cb91                	c.beqz	a5,11952 <putc+0x38>
   11940:	419c                	c.lw	a5,0(a1)
   11942:	0ff77513          	andi	a0,a4,255
   11946:	00178713          	addi	a4,a5,1
   1194a:	c198                	c.sw	a4,0(a1)
   1194c:	00c78023          	sb	a2,0(a5)
   11950:	8082                	c.jr	ra
   11952:	862e                	c.mv	a2,a1
   11954:	8536                	c.mv	a0,a3
   11956:	85ba                	c.mv	a1,a4
   11958:	a451                	c.j	11bdc <__swbuf_r>
   1195a:	1101                	c.addi	sp,-32
   1195c:	c42a                	c.swsp	a0,8(sp)
   1195e:	8536                	c.mv	a0,a3
   11960:	c62e                	c.swsp	a1,12(sp)
   11962:	c236                	c.swsp	a3,4(sp)
   11964:	ce06                	c.swsp	ra,28(sp)
   11966:	36dd                	c.jal	1154c <__sinit>
   11968:	45b2                	c.lwsp	a1,12(sp)
   1196a:	4722                	c.lwsp	a4,8(sp)
   1196c:	4692                	c.lwsp	a3,4(sp)
   1196e:	459c                	c.lw	a5,8(a1)
   11970:	0ff77613          	andi	a2,a4,255
   11974:	17fd                	c.addi	a5,-1
   11976:	c59c                	c.sw	a5,8(a1)
   11978:	0007d863          	bge	a5,zero,11988 <putc+0x6e>
   1197c:	4d88                	c.lw	a0,24(a1)
   1197e:	02a7c063          	blt	a5,a0,1199e <putc+0x84>
   11982:	ff660793          	addi	a5,a2,-10
   11986:	cf81                	c.beqz	a5,1199e <putc+0x84>
   11988:	419c                	c.lw	a5,0(a1)
   1198a:	0ff77513          	andi	a0,a4,255
   1198e:	00178713          	addi	a4,a5,1
   11992:	c198                	c.sw	a4,0(a1)
   11994:	00c78023          	sb	a2,0(a5)
   11998:	40f2                	c.lwsp	ra,28(sp)
   1199a:	6105                	c.addi16sp	sp,32
   1199c:	8082                	c.jr	ra
   1199e:	40f2                	c.lwsp	ra,28(sp)
   119a0:	862e                	c.mv	a2,a1
   119a2:	85ba                	c.mv	a1,a4
   119a4:	8536                	c.mv	a0,a3
   119a6:	6105                	c.addi16sp	sp,32
   119a8:	ac15                	c.j	11bdc <__swbuf_r>

000119aa <_puts_r>:
   119aa:	7139                	c.addi16sp	sp,-64
   119ac:	dc22                	c.swsp	s0,56(sp)
   119ae:	842a                	c.mv	s0,a0
   119b0:	852e                	c.mv	a0,a1
   119b2:	c62e                	c.swsp	a1,12(sp)
   119b4:	de06                	c.swsp	ra,60(sp)
   119b6:	35b000ef          	jal	ra,12510 <strlen>
   119ba:	45b2                	c.lwsp	a1,12(sp)
   119bc:	67f1                	c.lui	a5,0x1c
   119be:	5858                	c.lw	a4,52(s0)
   119c0:	00150893          	addi	a7,a0,1
   119c4:	ba878793          	addi	a5,a5,-1112 # 1bba8 <bits+0x270>
   119c8:	4805                	c.li	a6,1
   119ca:	1010                	c.addi4spn	a2,sp,32
   119cc:	4689                	c.li	a3,2
   119ce:	d02e                	c.swsp	a1,32(sp)
   119d0:	d22a                	c.swsp	a0,36(sp)
   119d2:	ce46                	c.swsp	a7,28(sp)
   119d4:	d43e                	c.swsp	a5,40(sp)
   119d6:	d642                	c.swsp	a6,44(sp)
   119d8:	ca32                	c.swsp	a2,20(sp)
   119da:	cc36                	c.swsp	a3,24(sp)
   119dc:	440c                	c.lw	a1,8(s0)
   119de:	c321                	c.beqz	a4,11a1e <_puts_r+0x74>
   119e0:	00c59783          	lh	a5,12(a1)
   119e4:	51f8                	c.lw	a4,100(a1)
   119e6:	6609                	c.lui	a2,0x2
   119e8:	01279693          	slli	a3,a5,0x12
   119ec:	0206c363          	blt	a3,zero,11a12 <_puts_r+0x68>
   119f0:	76f9                	c.lui	a3,0xffffe
   119f2:	16fd                	c.addi	a3,-1 # ffffdfff <__BSS_END__+0xfffe01f7>
   119f4:	8fd1                	c.or	a5,a2
   119f6:	8f75                	c.and	a4,a3
   119f8:	00f59623          	sh	a5,12(a1)
   119fc:	d1f8                	c.sw	a4,100(a1)
   119fe:	8522                	c.mv	a0,s0
   11a00:	0850                	c.addi4spn	a2,sp,20
   11a02:	172030ef          	jal	ra,14b74 <__sfvwrite_r>
   11a06:	e911                	c.bnez	a0,11a1a <_puts_r+0x70>
   11a08:	4529                	c.li	a0,10
   11a0a:	50f2                	c.lwsp	ra,60(sp)
   11a0c:	5462                	c.lwsp	s0,56(sp)
   11a0e:	6121                	c.addi16sp	sp,64
   11a10:	8082                	c.jr	ra
   11a12:	01271793          	slli	a5,a4,0x12
   11a16:	fe07d4e3          	bge	a5,zero,119fe <_puts_r+0x54>
   11a1a:	557d                	c.li	a0,-1
   11a1c:	b7fd                	c.j	11a0a <_puts_r+0x60>
   11a1e:	8522                	c.mv	a0,s0
   11a20:	c62e                	c.swsp	a1,12(sp)
   11a22:	b2bff0ef          	jal	ra,1154c <__sinit>
   11a26:	45b2                	c.lwsp	a1,12(sp)
   11a28:	bf65                	c.j	119e0 <_puts_r+0x36>

00011a2a <puts>:
   11a2a:	85aa                	c.mv	a1,a0
   11a2c:	f2c1a503          	lw	a0,-212(gp) # 1dabc <_impure_ptr>
   11a30:	bfad                	c.j	119aa <_puts_r>

00011a32 <__srget_r>:
   11a32:	1101                	c.addi	sp,-32
   11a34:	ce06                	c.swsp	ra,28(sp)
   11a36:	87aa                	c.mv	a5,a0
   11a38:	c119                	c.beqz	a0,11a3e <__srget_r+0xc>
   11a3a:	5958                	c.lw	a4,52(a0)
   11a3c:	cb21                	c.beqz	a4,11a8c <__srget_r+0x5a>
   11a3e:	00c59703          	lh	a4,12(a1)
   11a42:	51f4                	c.lw	a3,100(a1)
   11a44:	6509                	c.lui	a0,0x2
   11a46:	01271613          	slli	a2,a4,0x12
   11a4a:	02064b63          	blt	a2,zero,11a80 <__srget_r+0x4e>
   11a4e:	7679                	c.lui	a2,0xffffe
   11a50:	167d                	c.addi	a2,-1 # ffffdfff <__BSS_END__+0xfffe01f7>
   11a52:	8f49                	c.or	a4,a0
   11a54:	8ef1                	c.and	a3,a2
   11a56:	00e59623          	sh	a4,12(a1)
   11a5a:	d1f4                	c.sw	a3,100(a1)
   11a5c:	853e                	c.mv	a0,a5
   11a5e:	c42e                	c.swsp	a1,8(sp)
   11a60:	5f8030ef          	jal	ra,15058 <__srefill_r>
   11a64:	e115                	c.bnez	a0,11a88 <__srget_r+0x56>
   11a66:	45a2                	c.lwsp	a1,8(sp)
   11a68:	4198                	c.lw	a4,0(a1)
   11a6a:	41dc                	c.lw	a5,4(a1)
   11a6c:	00170693          	addi	a3,a4,1
   11a70:	17fd                	c.addi	a5,-1
   11a72:	c1dc                	c.sw	a5,4(a1)
   11a74:	c194                	c.sw	a3,0(a1)
   11a76:	00074503          	lbu	a0,0(a4)
   11a7a:	40f2                	c.lwsp	ra,28(sp)
   11a7c:	6105                	c.addi16sp	sp,32
   11a7e:	8082                	c.jr	ra
   11a80:	01269713          	slli	a4,a3,0x12
   11a84:	fc075ce3          	bge	a4,zero,11a5c <__srget_r+0x2a>
   11a88:	557d                	c.li	a0,-1
   11a8a:	bfc5                	c.j	11a7a <__srget_r+0x48>
   11a8c:	c62e                	c.swsp	a1,12(sp)
   11a8e:	c42a                	c.swsp	a0,8(sp)
   11a90:	abdff0ef          	jal	ra,1154c <__sinit>
   11a94:	45b2                	c.lwsp	a1,12(sp)
   11a96:	47a2                	c.lwsp	a5,8(sp)
   11a98:	b75d                	c.j	11a3e <__srget_r+0xc>

00011a9a <__srget>:
   11a9a:	f2c1a783          	lw	a5,-212(gp) # 1dabc <_impure_ptr>
   11a9e:	1101                	c.addi	sp,-32
   11aa0:	cc22                	c.swsp	s0,24(sp)
   11aa2:	ce06                	c.swsp	ra,28(sp)
   11aa4:	842a                	c.mv	s0,a0
   11aa6:	c399                	c.beqz	a5,11aac <__srget+0x12>
   11aa8:	5bd8                	c.lw	a4,52(a5)
   11aaa:	cb21                	c.beqz	a4,11afa <__srget+0x60>
   11aac:	00c41703          	lh	a4,12(s0)
   11ab0:	5074                	c.lw	a3,100(s0)
   11ab2:	6589                	c.lui	a1,0x2
   11ab4:	01271613          	slli	a2,a4,0x12
   11ab8:	02064b63          	blt	a2,zero,11aee <__srget+0x54>
   11abc:	7679                	c.lui	a2,0xffffe
   11abe:	167d                	c.addi	a2,-1 # ffffdfff <__BSS_END__+0xfffe01f7>
   11ac0:	8f4d                	c.or	a4,a1
   11ac2:	8ef1                	c.and	a3,a2
   11ac4:	00e41623          	sh	a4,12(s0)
   11ac8:	d074                	c.sw	a3,100(s0)
   11aca:	853e                	c.mv	a0,a5
   11acc:	85a2                	c.mv	a1,s0
   11ace:	58a030ef          	jal	ra,15058 <__srefill_r>
   11ad2:	e115                	c.bnez	a0,11af6 <__srget+0x5c>
   11ad4:	4018                	c.lw	a4,0(s0)
   11ad6:	405c                	c.lw	a5,4(s0)
   11ad8:	00170693          	addi	a3,a4,1
   11adc:	17fd                	c.addi	a5,-1
   11ade:	c05c                	c.sw	a5,4(s0)
   11ae0:	c014                	c.sw	a3,0(s0)
   11ae2:	00074503          	lbu	a0,0(a4)
   11ae6:	40f2                	c.lwsp	ra,28(sp)
   11ae8:	4462                	c.lwsp	s0,24(sp)
   11aea:	6105                	c.addi16sp	sp,32
   11aec:	8082                	c.jr	ra
   11aee:	01269713          	slli	a4,a3,0x12
   11af2:	fc075ce3          	bge	a4,zero,11aca <__srget+0x30>
   11af6:	557d                	c.li	a0,-1
   11af8:	b7fd                	c.j	11ae6 <__srget+0x4c>
   11afa:	853e                	c.mv	a0,a5
   11afc:	c63e                	c.swsp	a5,12(sp)
   11afe:	a4fff0ef          	jal	ra,1154c <__sinit>
   11b02:	47b2                	c.lwsp	a5,12(sp)
   11b04:	b765                	c.j	11aac <__srget+0x12>

00011b06 <__sread>:
   11b06:	1141                	c.addi	sp,-16
   11b08:	c422                	c.swsp	s0,8(sp)
   11b0a:	842e                	c.mv	s0,a1
   11b0c:	00e59583          	lh	a1,14(a1) # 200e <exit-0xe0a6>
   11b10:	c606                	c.swsp	ra,12(sp)
   11b12:	03b000ef          	jal	ra,1234c <_read_r>
   11b16:	00054963          	blt	a0,zero,11b28 <__sread+0x22>
   11b1a:	483c                	c.lw	a5,80(s0)
   11b1c:	40b2                	c.lwsp	ra,12(sp)
   11b1e:	97aa                	c.add	a5,a0
   11b20:	c83c                	c.sw	a5,80(s0)
   11b22:	4422                	c.lwsp	s0,8(sp)
   11b24:	0141                	c.addi	sp,16
   11b26:	8082                	c.jr	ra
   11b28:	00c45783          	lhu	a5,12(s0)
   11b2c:	777d                	c.lui	a4,0xfffff
   11b2e:	177d                	c.addi	a4,-1 # ffffefff <__BSS_END__+0xfffe11f7>
   11b30:	8ff9                	c.and	a5,a4
   11b32:	40b2                	c.lwsp	ra,12(sp)
   11b34:	00f41623          	sh	a5,12(s0)
   11b38:	4422                	c.lwsp	s0,8(sp)
   11b3a:	0141                	c.addi	sp,16
   11b3c:	8082                	c.jr	ra

00011b3e <__seofread>:
   11b3e:	4501                	c.li	a0,0
   11b40:	8082                	c.jr	ra

00011b42 <__swrite>:
   11b42:	00c59783          	lh	a5,12(a1)
   11b46:	1101                	c.addi	sp,-32
   11b48:	8336                	c.mv	t1,a3
   11b4a:	ce06                	c.swsp	ra,28(sp)
   11b4c:	1007f693          	andi	a3,a5,256
   11b50:	872e                	c.mv	a4,a1
   11b52:	88b2                	c.mv	a7,a2
   11b54:	882a                	c.mv	a6,a0
   11b56:	ee99                	c.bnez	a3,11b74 <__swrite+0x32>
   11b58:	76fd                	c.lui	a3,0xfffff
   11b5a:	16fd                	c.addi	a3,-1 # ffffefff <__BSS_END__+0xfffe11f7>
   11b5c:	40f2                	c.lwsp	ra,28(sp)
   11b5e:	8ff5                	c.and	a5,a3
   11b60:	00e71583          	lh	a1,14(a4)
   11b64:	00f71623          	sh	a5,12(a4)
   11b68:	869a                	c.mv	a3,t1
   11b6a:	8646                	c.mv	a2,a7
   11b6c:	8542                	c.mv	a0,a6
   11b6e:	6105                	c.addi16sp	sp,32
   11b70:	0550006f          	jal	zero,123c4 <_write_r>
   11b74:	00e59583          	lh	a1,14(a1)
   11b78:	c432                	c.swsp	a2,8(sp)
   11b7a:	4689                	c.li	a3,2
   11b7c:	4601                	c.li	a2,0
   11b7e:	c61a                	c.swsp	t1,12(sp)
   11b80:	c03a                	c.swsp	a4,0(sp)
   11b82:	c22a                	c.swsp	a0,4(sp)
   11b84:	750000ef          	jal	ra,122d4 <_lseek_r>
   11b88:	4702                	c.lwsp	a4,0(sp)
   11b8a:	4332                	c.lwsp	t1,12(sp)
   11b8c:	48a2                	c.lwsp	a7,8(sp)
   11b8e:	00c71783          	lh	a5,12(a4)
   11b92:	4812                	c.lwsp	a6,4(sp)
   11b94:	b7d1                	c.j	11b58 <__swrite+0x16>

00011b96 <__sseek>:
   11b96:	1141                	c.addi	sp,-16
   11b98:	c422                	c.swsp	s0,8(sp)
   11b9a:	842e                	c.mv	s0,a1
   11b9c:	00e59583          	lh	a1,14(a1)
   11ba0:	c606                	c.swsp	ra,12(sp)
   11ba2:	2f0d                	c.jal	122d4 <_lseek_r>
   11ba4:	577d                	c.li	a4,-1
   11ba6:	00c41783          	lh	a5,12(s0)
   11baa:	00e50b63          	beq	a0,a4,11bc0 <__sseek+0x2a>
   11bae:	6705                	c.lui	a4,0x1
   11bb0:	8fd9                	c.or	a5,a4
   11bb2:	40b2                	c.lwsp	ra,12(sp)
   11bb4:	c828                	c.sw	a0,80(s0)
   11bb6:	00f41623          	sh	a5,12(s0)
   11bba:	4422                	c.lwsp	s0,8(sp)
   11bbc:	0141                	c.addi	sp,16
   11bbe:	8082                	c.jr	ra
   11bc0:	80050713          	addi	a4,a0,-2048 # 1800 <exit-0xe8b4>
   11bc4:	80070713          	addi	a4,a4,-2048 # 800 <exit-0xf8b4>
   11bc8:	8ff9                	c.and	a5,a4
   11bca:	40b2                	c.lwsp	ra,12(sp)
   11bcc:	00f41623          	sh	a5,12(s0)
   11bd0:	4422                	c.lwsp	s0,8(sp)
   11bd2:	0141                	c.addi	sp,16
   11bd4:	8082                	c.jr	ra

00011bd6 <__sclose>:
   11bd6:	00e59583          	lh	a1,14(a1)
   11bda:	a539                	c.j	121e8 <_close_r>

00011bdc <__swbuf_r>:
   11bdc:	1101                	c.addi	sp,-32
   11bde:	cc22                	c.swsp	s0,24(sp)
   11be0:	ca26                	c.swsp	s1,20(sp)
   11be2:	ce06                	c.swsp	ra,28(sp)
   11be4:	84aa                	c.mv	s1,a0
   11be6:	842e                	c.mv	s0,a1
   11be8:	c119                	c.beqz	a0,11bee <__swbuf_r+0x12>
   11bea:	595c                	c.lw	a5,52(a0)
   11bec:	c3f9                	c.beqz	a5,11cb2 <__swbuf_r+0xd6>
   11bee:	4e18                	c.lw	a4,24(a2)
   11bf0:	00c61783          	lh	a5,12(a2)
   11bf4:	c618                	c.sw	a4,8(a2)
   11bf6:	0087f713          	andi	a4,a5,8
   11bfa:	cf39                	c.beqz	a4,11c58 <__swbuf_r+0x7c>
   11bfc:	4a18                	c.lw	a4,16(a2)
   11bfe:	cf29                	c.beqz	a4,11c58 <__swbuf_r+0x7c>
   11c00:	01279693          	slli	a3,a5,0x12
   11c04:	5278                	c.lw	a4,100(a2)
   11c06:	6589                	c.lui	a1,0x2
   11c08:	0606d663          	bge	a3,zero,11c74 <__swbuf_r+0x98>
   11c0c:	01271793          	slli	a5,a4,0x12
   11c10:	0807cf63          	blt	a5,zero,11cae <__swbuf_r+0xd2>
   11c14:	4218                	c.lw	a4,0(a2)
   11c16:	4a1c                	c.lw	a5,16(a2)
   11c18:	4a54                	c.lw	a3,20(a2)
   11c1a:	40f707b3          	sub	a5,a4,a5
   11c1e:	06d7d963          	bge	a5,a3,11c90 <__swbuf_r+0xb4>
   11c22:	0785                	c.addi	a5,1
   11c24:	4614                	c.lw	a3,8(a2)
   11c26:	00170593          	addi	a1,a4,1
   11c2a:	c20c                	c.sw	a1,0(a2)
   11c2c:	16fd                	c.addi	a3,-1
   11c2e:	c614                	c.sw	a3,8(a2)
   11c30:	00870023          	sb	s0,0(a4)
   11c34:	4a58                	c.lw	a4,20(a2)
   11c36:	0ff47413          	andi	s0,s0,255
   11c3a:	06f70563          	beq	a4,a5,11ca4 <__swbuf_r+0xc8>
   11c3e:	ff640793          	addi	a5,s0,-10
   11c42:	e789                	c.bnez	a5,11c4c <__swbuf_r+0x70>
   11c44:	00c65783          	lhu	a5,12(a2)
   11c48:	8b85                	c.andi	a5,1
   11c4a:	efa9                	c.bnez	a5,11ca4 <__swbuf_r+0xc8>
   11c4c:	40f2                	c.lwsp	ra,28(sp)
   11c4e:	8522                	c.mv	a0,s0
   11c50:	4462                	c.lwsp	s0,24(sp)
   11c52:	44d2                	c.lwsp	s1,20(sp)
   11c54:	6105                	c.addi16sp	sp,32
   11c56:	8082                	c.jr	ra
   11c58:	85b2                	c.mv	a1,a2
   11c5a:	8526                	c.mv	a0,s1
   11c5c:	c632                	c.swsp	a2,12(sp)
   11c5e:	20ad                	c.jal	11cc8 <__swsetup_r>
   11c60:	e539                	c.bnez	a0,11cae <__swbuf_r+0xd2>
   11c62:	4632                	c.lwsp	a2,12(sp)
   11c64:	6589                	c.lui	a1,0x2
   11c66:	00c61783          	lh	a5,12(a2)
   11c6a:	5278                	c.lw	a4,100(a2)
   11c6c:	01279693          	slli	a3,a5,0x12
   11c70:	f806cee3          	blt	a3,zero,11c0c <__swbuf_r+0x30>
   11c74:	76f9                	c.lui	a3,0xffffe
   11c76:	16fd                	c.addi	a3,-1 # ffffdfff <__BSS_END__+0xfffe01f7>
   11c78:	8f75                	c.and	a4,a3
   11c7a:	8fcd                	c.or	a5,a1
   11c7c:	00f61623          	sh	a5,12(a2)
   11c80:	d278                	c.sw	a4,100(a2)
   11c82:	4a1c                	c.lw	a5,16(a2)
   11c84:	4218                	c.lw	a4,0(a2)
   11c86:	4a54                	c.lw	a3,20(a2)
   11c88:	40f707b3          	sub	a5,a4,a5
   11c8c:	f8d7cbe3          	blt	a5,a3,11c22 <__swbuf_r+0x46>
   11c90:	85b2                	c.mv	a1,a2
   11c92:	8526                	c.mv	a0,s1
   11c94:	c632                	c.swsp	a2,12(sp)
   11c96:	d42ff0ef          	jal	ra,111d8 <_fflush_r>
   11c9a:	e911                	c.bnez	a0,11cae <__swbuf_r+0xd2>
   11c9c:	4632                	c.lwsp	a2,12(sp)
   11c9e:	4785                	c.li	a5,1
   11ca0:	4218                	c.lw	a4,0(a2)
   11ca2:	b749                	c.j	11c24 <__swbuf_r+0x48>
   11ca4:	85b2                	c.mv	a1,a2
   11ca6:	8526                	c.mv	a0,s1
   11ca8:	d30ff0ef          	jal	ra,111d8 <_fflush_r>
   11cac:	d145                	c.beqz	a0,11c4c <__swbuf_r+0x70>
   11cae:	547d                	c.li	s0,-1
   11cb0:	bf71                	c.j	11c4c <__swbuf_r+0x70>
   11cb2:	c632                	c.swsp	a2,12(sp)
   11cb4:	899ff0ef          	jal	ra,1154c <__sinit>
   11cb8:	4632                	c.lwsp	a2,12(sp)
   11cba:	bf15                	c.j	11bee <__swbuf_r+0x12>

00011cbc <__swbuf>:
   11cbc:	87aa                	c.mv	a5,a0
   11cbe:	f2c1a503          	lw	a0,-212(gp) # 1dabc <_impure_ptr>
   11cc2:	862e                	c.mv	a2,a1
   11cc4:	85be                	c.mv	a1,a5
   11cc6:	bf19                	c.j	11bdc <__swbuf_r>

00011cc8 <__swsetup_r>:
   11cc8:	f2c1a703          	lw	a4,-212(gp) # 1dabc <_impure_ptr>
   11ccc:	1101                	c.addi	sp,-32
   11cce:	ce06                	c.swsp	ra,28(sp)
   11cd0:	862a                	c.mv	a2,a0
   11cd2:	87ae                	c.mv	a5,a1
   11cd4:	c319                	c.beqz	a4,11cda <__swsetup_r+0x12>
   11cd6:	5b54                	c.lw	a3,52(a4)
   11cd8:	c2e1                	c.beqz	a3,11d98 <__swsetup_r+0xd0>
   11cda:	00c79703          	lh	a4,12(a5)
   11cde:	00877693          	andi	a3,a4,8
   11ce2:	c29d                	c.beqz	a3,11d08 <__swsetup_r+0x40>
   11ce4:	4b94                	c.lw	a3,16(a5)
   11ce6:	ce8d                	c.beqz	a3,11d20 <__swsetup_r+0x58>
   11ce8:	00c79703          	lh	a4,12(a5)
   11cec:	00177613          	andi	a2,a4,1
   11cf0:	ca39                	c.beqz	a2,11d46 <__swsetup_r+0x7e>
   11cf2:	4bd0                	c.lw	a2,20(a5)
   11cf4:	0007a423          	sw	zero,8(a5)
   11cf8:	4501                	c.li	a0,0
   11cfa:	40c00633          	sub	a2,zero,a2
   11cfe:	cf90                	c.sw	a2,24(a5)
   11d00:	cab9                	c.beqz	a3,11d56 <__swsetup_r+0x8e>
   11d02:	40f2                	c.lwsp	ra,28(sp)
   11d04:	6105                	c.addi16sp	sp,32
   11d06:	8082                	c.jr	ra
   11d08:	01077693          	andi	a3,a4,16
   11d0c:	ced1                	c.beqz	a3,11da8 <__swsetup_r+0xe0>
   11d0e:	00477693          	andi	a3,a4,4
   11d12:	eab9                	c.bnez	a3,11d68 <__swsetup_r+0xa0>
   11d14:	4b94                	c.lw	a3,16(a5)
   11d16:	00876713          	ori	a4,a4,8
   11d1a:	00e79623          	sh	a4,12(a5)
   11d1e:	f6e9                	c.bnez	a3,11ce8 <__swsetup_r+0x20>
   11d20:	47d8                	c.lw	a4,12(a5)
   11d22:	20000593          	addi	a1,zero,512
   11d26:	28077713          	andi	a4,a4,640
   11d2a:	fab70fe3          	beq	a4,a1,11ce8 <__swsetup_r+0x20>
   11d2e:	8532                	c.mv	a0,a2
   11d30:	85be                	c.mv	a1,a5
   11d32:	c43e                	c.swsp	a5,8(sp)
   11d34:	174030ef          	jal	ra,14ea8 <__smakebuf_r>
   11d38:	47a2                	c.lwsp	a5,8(sp)
   11d3a:	00c79703          	lh	a4,12(a5)
   11d3e:	4b94                	c.lw	a3,16(a5)
   11d40:	00177613          	andi	a2,a4,1
   11d44:	f65d                	c.bnez	a2,11cf2 <__swsetup_r+0x2a>
   11d46:	00277613          	andi	a2,a4,2
   11d4a:	4581                	c.li	a1,0
   11d4c:	e211                	c.bnez	a2,11d50 <__swsetup_r+0x88>
   11d4e:	4bcc                	c.lw	a1,20(a5)
   11d50:	c78c                	c.sw	a1,8(a5)
   11d52:	4501                	c.li	a0,0
   11d54:	f6dd                	c.bnez	a3,11d02 <__swsetup_r+0x3a>
   11d56:	08077693          	andi	a3,a4,128
   11d5a:	d6c5                	c.beqz	a3,11d02 <__swsetup_r+0x3a>
   11d5c:	04076713          	ori	a4,a4,64
   11d60:	00e79623          	sh	a4,12(a5)
   11d64:	557d                	c.li	a0,-1
   11d66:	bf71                	c.j	11d02 <__swsetup_r+0x3a>
   11d68:	5b8c                	c.lw	a1,48(a5)
   11d6a:	c185                	c.beqz	a1,11d8a <__swsetup_r+0xc2>
   11d6c:	04078693          	addi	a3,a5,64
   11d70:	00d58b63          	beq	a1,a3,11d86 <__swsetup_r+0xbe>
   11d74:	8532                	c.mv	a0,a2
   11d76:	c63e                	c.swsp	a5,12(sp)
   11d78:	c432                	c.swsp	a2,8(sp)
   11d7a:	197000ef          	jal	ra,12710 <_free_r>
   11d7e:	47b2                	c.lwsp	a5,12(sp)
   11d80:	4622                	c.lwsp	a2,8(sp)
   11d82:	00c79703          	lh	a4,12(a5)
   11d86:	0207a823          	sw	zero,48(a5)
   11d8a:	4b94                	c.lw	a3,16(a5)
   11d8c:	fdb77713          	andi	a4,a4,-37
   11d90:	0007a223          	sw	zero,4(a5)
   11d94:	c394                	c.sw	a3,0(a5)
   11d96:	b741                	c.j	11d16 <__swsetup_r+0x4e>
   11d98:	c42a                	c.swsp	a0,8(sp)
   11d9a:	853a                	c.mv	a0,a4
   11d9c:	c62e                	c.swsp	a1,12(sp)
   11d9e:	faeff0ef          	jal	ra,1154c <__sinit>
   11da2:	47b2                	c.lwsp	a5,12(sp)
   11da4:	4622                	c.lwsp	a2,8(sp)
   11da6:	bf15                	c.j	11cda <__swsetup_r+0x12>
   11da8:	46a5                	c.li	a3,9
   11daa:	04076713          	ori	a4,a4,64
   11dae:	c214                	c.sw	a3,0(a2)
   11db0:	00e79623          	sh	a4,12(a5)
   11db4:	557d                	c.li	a0,-1
   11db6:	b7b1                	c.j	11d02 <__swsetup_r+0x3a>

00011db8 <_fseeko_r>:
   11db8:	7175                	c.addi16sp	sp,-144
   11dba:	c522                	c.swsp	s0,136(sp)
   11dbc:	c326                	c.swsp	s1,132(sp)
   11dbe:	c14a                	c.swsp	s2,128(sp)
   11dc0:	dece                	c.swsp	s3,124(sp)
   11dc2:	c706                	c.swsp	ra,140(sp)
   11dc4:	dcd2                	c.swsp	s4,120(sp)
   11dc6:	892a                	c.mv	s2,a0
   11dc8:	89b2                	c.mv	s3,a2
   11dca:	84b6                	c.mv	s1,a3
   11dcc:	842e                	c.mv	s0,a1
   11dce:	c501                	c.beqz	a0,11dd6 <_fseeko_r+0x1e>
   11dd0:	595c                	c.lw	a5,52(a0)
   11dd2:	28078363          	beq	a5,zero,12058 <_fseeko_r+0x2a0>
   11dd6:	00c45783          	lhu	a5,12(s0)
   11dda:	10800713          	addi	a4,zero,264
   11dde:	8ff9                	c.and	a5,a4
   11de0:	26e78763          	beq	a5,a4,1204e <_fseeko_r+0x296>
   11de4:	02842a03          	lw	s4,40(s0)
   11de8:	2c0a0b63          	beq	s4,zero,120be <_fseeko_r+0x306>
   11dec:	4785                	c.li	a5,1
   11dee:	0af48c63          	beq	s1,a5,11ea6 <_fseeko_r+0xee>
   11df2:	ffd4f793          	andi	a5,s1,-3
   11df6:	cf89                	c.beqz	a5,11e10 <_fseeko_r+0x58>
   11df8:	47d9                	c.li	a5,22
   11dfa:	00f92023          	sw	a5,0(s2)
   11dfe:	40ba                	c.lwsp	ra,140(sp)
   11e00:	442a                	c.lwsp	s0,136(sp)
   11e02:	449a                	c.lwsp	s1,132(sp)
   11e04:	490a                	c.lwsp	s2,128(sp)
   11e06:	59f6                	c.lwsp	s3,124(sp)
   11e08:	5a66                	c.lwsp	s4,120(sp)
   11e0a:	557d                	c.li	a0,-1
   11e0c:	6149                	c.addi16sp	sp,144
   11e0e:	8082                	c.jr	ra
   11e10:	4814                	c.lw	a3,16(s0)
   11e12:	4801                	c.li	a6,0
   11e14:	cee9                	c.beqz	a3,11eee <_fseeko_r+0x136>
   11e16:	00c41703          	lh	a4,12(s0)
   11e1a:	00175693          	srli	a3,a4,0x1
   11e1e:	40d6f693          	andi	a3,a3,1037
   11e22:	e285                	c.bnez	a3,11e42 <_fseeko_r+0x8a>
   11e24:	40077693          	andi	a3,a4,1024
   11e28:	10069863          	bne	a3,zero,11f38 <_fseeko_r+0x180>
   11e2c:	66c9                	c.lui	a3,0x12
   11e2e:	b9668693          	addi	a3,a3,-1130 # 11b96 <__sseek>
   11e32:	0cda0763          	beq	s4,a3,11f00 <_fseeko_r+0x148>
   11e36:	6785                	c.lui	a5,0x1
   11e38:	80078793          	addi	a5,a5,-2048 # 800 <exit-0xf8b4>
   11e3c:	8f5d                	c.or	a4,a5
   11e3e:	00e41623          	sh	a4,12(s0)
   11e42:	85a2                	c.mv	a1,s0
   11e44:	854a                	c.mv	a0,s2
   11e46:	b92ff0ef          	jal	ra,111d8 <_fflush_r>
   11e4a:	f955                	c.bnez	a0,11dfe <_fseeko_r+0x46>
   11e4c:	4c4c                	c.lw	a1,28(s0)
   11e4e:	86a6                	c.mv	a3,s1
   11e50:	864e                	c.mv	a2,s3
   11e52:	854a                	c.mv	a0,s2
   11e54:	9a02                	c.jalr	s4
   11e56:	57fd                	c.li	a5,-1
   11e58:	faf503e3          	beq	a0,a5,11dfe <_fseeko_r+0x46>
   11e5c:	580c                	c.lw	a1,48(s0)
   11e5e:	c991                	c.beqz	a1,11e72 <_fseeko_r+0xba>
   11e60:	04040793          	addi	a5,s0,64
   11e64:	00f58563          	beq	a1,a5,11e6e <_fseeko_r+0xb6>
   11e68:	854a                	c.mv	a0,s2
   11e6a:	0a7000ef          	jal	ra,12710 <_free_r>
   11e6e:	02042823          	sw	zero,48(s0)
   11e72:	00c45783          	lhu	a5,12(s0)
   11e76:	4814                	c.lw	a3,16(s0)
   11e78:	777d                	c.lui	a4,0xfffff
   11e7a:	7df70713          	addi	a4,a4,2015 # fffff7df <__BSS_END__+0xfffe19d7>
   11e7e:	8ff9                	c.and	a5,a4
   11e80:	00042223          	sw	zero,4(s0)
   11e84:	00f41623          	sh	a5,12(s0)
   11e88:	c014                	c.sw	a3,0(s0)
   11e8a:	05c40513          	addi	a0,s0,92
   11e8e:	4621                	c.li	a2,8
   11e90:	4581                	c.li	a1,0
   11e92:	2bd9                	c.jal	12468 <memset>
   11e94:	4501                	c.li	a0,0
   11e96:	40ba                	c.lwsp	ra,140(sp)
   11e98:	442a                	c.lwsp	s0,136(sp)
   11e9a:	449a                	c.lwsp	s1,132(sp)
   11e9c:	490a                	c.lwsp	s2,128(sp)
   11e9e:	59f6                	c.lwsp	s3,124(sp)
   11ea0:	5a66                	c.lwsp	s4,120(sp)
   11ea2:	6149                	c.addi16sp	sp,144
   11ea4:	8082                	c.jr	ra
   11ea6:	85a2                	c.mv	a1,s0
   11ea8:	854a                	c.mv	a0,s2
   11eaa:	b2eff0ef          	jal	ra,111d8 <_fflush_r>
   11eae:	00c41703          	lh	a4,12(s0)
   11eb2:	01371793          	slli	a5,a4,0x13
   11eb6:	1407c863          	blt	a5,zero,12006 <_fseeko_r+0x24e>
   11eba:	4c4c                	c.lw	a1,28(s0)
   11ebc:	86a6                	c.mv	a3,s1
   11ebe:	4601                	c.li	a2,0
   11ec0:	854a                	c.mv	a0,s2
   11ec2:	9a02                	c.jalr	s4
   11ec4:	577d                	c.li	a4,-1
   11ec6:	87aa                	c.mv	a5,a0
   11ec8:	f2e50be3          	beq	a0,a4,11dfe <_fseeko_r+0x46>
   11ecc:	00c41703          	lh	a4,12(s0)
   11ed0:	4814                	c.lw	a3,16(s0)
   11ed2:	00477613          	andi	a2,a4,4
   11ed6:	12060e63          	beq	a2,zero,12012 <_fseeko_r+0x25a>
   11eda:	4050                	c.lw	a2,4(s0)
   11edc:	5818                	c.lw	a4,48(s0)
   11ede:	8f91                	c.sub	a5,a2
   11ee0:	c319                	c.beqz	a4,11ee6 <_fseeko_r+0x12e>
   11ee2:	5c58                	c.lw	a4,60(s0)
   11ee4:	8f99                	c.sub	a5,a4
   11ee6:	8826                	c.mv	a6,s1
   11ee8:	99be                	c.add	s3,a5
   11eea:	4481                	c.li	s1,0
   11eec:	f68d                	c.bnez	a3,11e16 <_fseeko_r+0x5e>
   11eee:	85a2                	c.mv	a1,s0
   11ef0:	854a                	c.mv	a0,s2
   11ef2:	c642                	c.swsp	a6,12(sp)
   11ef4:	c43e                	c.swsp	a5,8(sp)
   11ef6:	7b3020ef          	jal	ra,14ea8 <__smakebuf_r>
   11efa:	4832                	c.lwsp	a6,12(sp)
   11efc:	47a2                	c.lwsp	a5,8(sp)
   11efe:	bf21                	c.j	11e16 <_fseeko_r+0x5e>
   11f00:	00e41583          	lh	a1,14(s0)
   11f04:	f205c9e3          	blt	a1,zero,11e36 <_fseeko_r+0x7e>
   11f08:	0830                	c.addi4spn	a2,sp,24
   11f0a:	854a                	c.mv	a0,s2
   11f0c:	c43e                	c.swsp	a5,8(sp)
   11f0e:	c642                	c.swsp	a6,12(sp)
   11f10:	2669                	c.jal	1229a <_fstat_r>
   11f12:	00c41703          	lh	a4,12(s0)
   11f16:	f105                	c.bnez	a0,11e36 <_fseeko_r+0x7e>
   11f18:	46f2                	c.lwsp	a3,28(sp)
   11f1a:	45a1                	c.li	a1,8
   11f1c:	47a2                	c.lwsp	a5,8(sp)
   11f1e:	40c6d613          	srai	a2,a3,0xc
   11f22:	8a3d                	c.andi	a2,15
   11f24:	4832                	c.lwsp	a6,12(sp)
   11f26:	f0b618e3          	bne	a2,a1,11e36 <_fseeko_r+0x7e>
   11f2a:	40076713          	ori	a4,a4,1024
   11f2e:	40000693          	addi	a3,zero,1024
   11f32:	00e41623          	sh	a4,12(s0)
   11f36:	c474                	c.sw	a3,76(s0)
   11f38:	874e                	c.mv	a4,s3
   11f3a:	0e049a63          	bne	s1,zero,1202e <_fseeko_r+0x276>
   11f3e:	0e081363          	bne	a6,zero,12024 <_fseeko_r+0x26c>
   11f42:	00c45783          	lhu	a5,12(s0)
   11f46:	01379693          	slli	a3,a5,0x13
   11f4a:	1206d263          	bge	a3,zero,1206e <_fseeko_r+0x2b6>
   11f4e:	4828                	c.lw	a0,80(s0)
   11f50:	4050                	c.lw	a2,4(s0)
   11f52:	580c                	c.lw	a1,48(s0)
   11f54:	40c507b3          	sub	a5,a0,a2
   11f58:	10058363          	beq	a1,zero,1205e <_fseeko_r+0x2a6>
   11f5c:	5c54                	c.lw	a3,60(s0)
   11f5e:	8f95                	c.sub	a5,a3
   11f60:	5c08                	c.lw	a0,56(s0)
   11f62:	01042803          	lw	a6,16(s0)
   11f66:	963e                	c.add	a2,a5
   11f68:	41050533          	sub	a0,a0,a6
   11f6c:	40a607b3          	sub	a5,a2,a0
   11f70:	96aa                	c.add	a3,a0
   11f72:	00f74663          	blt	a4,a5,11f7e <_fseeko_r+0x1c6>
   11f76:	00d78633          	add	a2,a5,a3
   11f7a:	10c76563          	bltu	a4,a2,12084 <_fseeko_r+0x2cc>
   11f7e:	4470                	c.lw	a2,76(s0)
   11f80:	4c4c                	c.lw	a1,28(s0)
   11f82:	4681                	c.li	a3,0
   11f84:	40c00633          	sub	a2,zero,a2
   11f88:	8e79                	c.and	a2,a4
   11f8a:	854a                	c.mv	a0,s2
   11f8c:	c63a                	c.swsp	a4,12(sp)
   11f8e:	c432                	c.swsp	a2,8(sp)
   11f90:	9a02                	c.jalr	s4
   11f92:	57fd                	c.li	a5,-1
   11f94:	eaf507e3          	beq	a0,a5,11e42 <_fseeko_r+0x8a>
   11f98:	481c                	c.lw	a5,16(s0)
   11f9a:	580c                	c.lw	a1,48(s0)
   11f9c:	00042223          	sw	zero,4(s0)
   11fa0:	c01c                	c.sw	a5,0(s0)
   11fa2:	4622                	c.lwsp	a2,8(sp)
   11fa4:	4732                	c.lwsp	a4,12(sp)
   11fa6:	cd91                	c.beqz	a1,11fc2 <_fseeko_r+0x20a>
   11fa8:	04040793          	addi	a5,s0,64
   11fac:	00f58963          	beq	a1,a5,11fbe <_fseeko_r+0x206>
   11fb0:	854a                	c.mv	a0,s2
   11fb2:	c632                	c.swsp	a2,12(sp)
   11fb4:	c43a                	c.swsp	a4,8(sp)
   11fb6:	75a000ef          	jal	ra,12710 <_free_r>
   11fba:	4632                	c.lwsp	a2,12(sp)
   11fbc:	4722                	c.lwsp	a4,8(sp)
   11fbe:	02042823          	sw	zero,48(s0)
   11fc2:	00c45783          	lhu	a5,12(s0)
   11fc6:	40c706b3          	sub	a3,a4,a2
   11fca:	fdf7f793          	andi	a5,a5,-33
   11fce:	00f41623          	sh	a5,12(s0)
   11fd2:	02c70363          	beq	a4,a2,11ff8 <_fseeko_r+0x240>
   11fd6:	85a2                	c.mv	a1,s0
   11fd8:	854a                	c.mv	a0,s2
   11fda:	c436                	c.swsp	a3,8(sp)
   11fdc:	07c030ef          	jal	ra,15058 <__srefill_r>
   11fe0:	e60511e3          	bne	a0,zero,11e42 <_fseeko_r+0x8a>
   11fe4:	405c                	c.lw	a5,4(s0)
   11fe6:	46a2                	c.lwsp	a3,8(sp)
   11fe8:	e4d7ede3          	bltu	a5,a3,11e42 <_fseeko_r+0x8a>
   11fec:	4018                	c.lw	a4,0(s0)
   11fee:	8f95                	c.sub	a5,a3
   11ff0:	c05c                	c.sw	a5,4(s0)
   11ff2:	00d707b3          	add	a5,a4,a3
   11ff6:	c01c                	c.sw	a5,0(s0)
   11ff8:	05c40513          	addi	a0,s0,92
   11ffc:	4621                	c.li	a2,8
   11ffe:	4581                	c.li	a1,0
   12000:	21a5                	c.jal	12468 <memset>
   12002:	4501                	c.li	a0,0
   12004:	bd49                	c.j	11e96 <_fseeko_r+0xde>
   12006:	00477613          	andi	a2,a4,4
   1200a:	483c                	c.lw	a5,80(s0)
   1200c:	4814                	c.lw	a3,16(s0)
   1200e:	ec0616e3          	bne	a2,zero,11eda <_fseeko_r+0x122>
   12012:	8b21                	c.andi	a4,8
   12014:	ec0709e3          	beq	a4,zero,11ee6 <_fseeko_r+0x12e>
   12018:	4018                	c.lw	a4,0(s0)
   1201a:	ec0706e3          	beq	a4,zero,11ee6 <_fseeko_r+0x12e>
   1201e:	8f15                	c.sub	a4,a3
   12020:	97ba                	c.add	a5,a4
   12022:	b5d1                	c.j	11ee6 <_fseeko_r+0x12e>
   12024:	580c                	c.lw	a1,48(s0)
   12026:	4050                	c.lw	a2,4(s0)
   12028:	c99d                	c.beqz	a1,1205e <_fseeko_r+0x2a6>
   1202a:	5c54                	c.lw	a3,60(s0)
   1202c:	bf15                	c.j	11f60 <_fseeko_r+0x1a8>
   1202e:	00e41583          	lh	a1,14(s0)
   12032:	0830                	c.addi4spn	a2,sp,24
   12034:	854a                	c.mv	a0,s2
   12036:	c642                	c.swsp	a6,12(sp)
   12038:	c43e                	c.swsp	a5,8(sp)
   1203a:	2485                	c.jal	1229a <_fstat_r>
   1203c:	e00513e3          	bne	a0,zero,11e42 <_fseeko_r+0x8a>
   12040:	5722                	c.lwsp	a4,40(sp)
   12042:	4832                	c.lwsp	a6,12(sp)
   12044:	47a2                	c.lwsp	a5,8(sp)
   12046:	974e                	c.add	a4,s3
   12048:	fc081ee3          	bne	a6,zero,12024 <_fseeko_r+0x26c>
   1204c:	bddd                	c.j	11f42 <_fseeko_r+0x18a>
   1204e:	85a2                	c.mv	a1,s0
   12050:	854a                	c.mv	a0,s2
   12052:	986ff0ef          	jal	ra,111d8 <_fflush_r>
   12056:	b379                	c.j	11de4 <_fseeko_r+0x2c>
   12058:	cf4ff0ef          	jal	ra,1154c <__sinit>
   1205c:	bbad                	c.j	11dd6 <_fseeko_r+0x1e>
   1205e:	4014                	c.lw	a3,0(s0)
   12060:	01042803          	lw	a6,16(s0)
   12064:	410686b3          	sub	a3,a3,a6
   12068:	8f95                	c.sub	a5,a3
   1206a:	96b2                	c.add	a3,a2
   1206c:	b719                	c.j	11f72 <_fseeko_r+0x1ba>
   1206e:	4c4c                	c.lw	a1,28(s0)
   12070:	4685                	c.li	a3,1
   12072:	4601                	c.li	a2,0
   12074:	854a                	c.mv	a0,s2
   12076:	c43a                	c.swsp	a4,8(sp)
   12078:	9a02                	c.jalr	s4
   1207a:	57fd                	c.li	a5,-1
   1207c:	4722                	c.lwsp	a4,8(sp)
   1207e:	ecf519e3          	bne	a0,a5,11f50 <_fseeko_r+0x198>
   12082:	b3c1                	c.j	11e42 <_fseeko_r+0x8a>
   12084:	40f707b3          	sub	a5,a4,a5
   12088:	983e                	c.add	a6,a5
   1208a:	8e9d                	c.sub	a3,a5
   1208c:	01042023          	sw	a6,0(s0)
   12090:	c054                	c.sw	a3,4(s0)
   12092:	c989                	c.beqz	a1,120a4 <_fseeko_r+0x2ec>
   12094:	04040793          	addi	a5,s0,64
   12098:	00f58463          	beq	a1,a5,120a0 <_fseeko_r+0x2e8>
   1209c:	854a                	c.mv	a0,s2
   1209e:	2d8d                	c.jal	12710 <_free_r>
   120a0:	02042823          	sw	zero,48(s0)
   120a4:	00c45783          	lhu	a5,12(s0)
   120a8:	05c40513          	addi	a0,s0,92
   120ac:	4621                	c.li	a2,8
   120ae:	fdf7f793          	andi	a5,a5,-33
   120b2:	00f41623          	sh	a5,12(s0)
   120b6:	4581                	c.li	a1,0
   120b8:	2e45                	c.jal	12468 <memset>
   120ba:	4501                	c.li	a0,0
   120bc:	bbe9                	c.j	11e96 <_fseeko_r+0xde>
   120be:	47f5                	c.li	a5,29
   120c0:	00f92023          	sw	a5,0(s2)
   120c4:	bb2d                	c.j	11dfe <_fseeko_r+0x46>

000120c6 <fseeko>:
   120c6:	872a                	c.mv	a4,a0
   120c8:	f2c1a503          	lw	a0,-212(gp) # 1dabc <_impure_ptr>
   120cc:	86b2                	c.mv	a3,a2
   120ce:	862e                	c.mv	a2,a1
   120d0:	85ba                	c.mv	a1,a4
   120d2:	b1dd                	c.j	11db8 <_fseeko_r>

000120d4 <strchr>:
   120d4:	0ff5f693          	andi	a3,a1,255
   120d8:	00357793          	andi	a5,a0,3
   120dc:	cac9                	c.beqz	a3,1216e <strchr+0x9a>
   120de:	cb91                	c.beqz	a5,120f2 <strchr+0x1e>
   120e0:	00054783          	lbu	a5,0(a0)
   120e4:	c3d9                	c.beqz	a5,1216a <strchr+0x96>
   120e6:	08d78363          	beq	a5,a3,1216c <strchr+0x98>
   120ea:	0505                	c.addi	a0,1
   120ec:	00357793          	andi	a5,a0,3
   120f0:	fbe5                	c.bnez	a5,120e0 <strchr+0xc>
   120f2:	0ff5f593          	andi	a1,a1,255
   120f6:	00859893          	slli	a7,a1,0x8
   120fa:	4118                	c.lw	a4,0(a0)
   120fc:	98ae                	c.add	a7,a1
   120fe:	01089793          	slli	a5,a7,0x10
   12102:	98be                	c.add	a7,a5
   12104:	feff0837          	lui	a6,0xfeff0
   12108:	00e8c7b3          	xor	a5,a7,a4
   1210c:	eff80813          	addi	a6,a6,-257 # fefefeff <__BSS_END__+0xfefd20f7>
   12110:	010785b3          	add	a1,a5,a6
   12114:	fff7c613          	xori	a2,a5,-1
   12118:	010707b3          	add	a5,a4,a6
   1211c:	fff74713          	xori	a4,a4,-1
   12120:	8e6d                	c.and	a2,a1
   12122:	8ff9                	c.and	a5,a4
   12124:	80808337          	lui	t1,0x80808
   12128:	8fd1                	c.or	a5,a2
   1212a:	08030313          	addi	t1,t1,128 # 80808080 <__BSS_END__+0x807ea278>
   1212e:	0067f7b3          	and	a5,a5,t1
   12132:	eb8d                	c.bnez	a5,12164 <strchr+0x90>
   12134:	4158                	c.lw	a4,4(a0)
   12136:	0511                	c.addi	a0,4
   12138:	011747b3          	xor	a5,a4,a7
   1213c:	fff7c593          	xori	a1,a5,-1
   12140:	01078633          	add	a2,a5,a6
   12144:	010707b3          	add	a5,a4,a6
   12148:	fff74713          	xori	a4,a4,-1
   1214c:	8e6d                	c.and	a2,a1
   1214e:	8ff9                	c.and	a5,a4
   12150:	8fd1                	c.or	a5,a2
   12152:	0067f7b3          	and	a5,a5,t1
   12156:	dff9                	c.beqz	a5,12134 <strchr+0x60>
   12158:	00054783          	lbu	a5,0(a0)
   1215c:	c799                	c.beqz	a5,1216a <strchr+0x96>
   1215e:	06f68163          	beq	a3,a5,121c0 <strchr+0xec>
   12162:	0505                	c.addi	a0,1
   12164:	00054783          	lbu	a5,0(a0)
   12168:	fbfd                	c.bnez	a5,1215e <strchr+0x8a>
   1216a:	4501                	c.li	a0,0
   1216c:	8082                	c.jr	ra
   1216e:	cb81                	c.beqz	a5,1217e <strchr+0xaa>
   12170:	00054783          	lbu	a5,0(a0)
   12174:	dfe5                	c.beqz	a5,1216c <strchr+0x98>
   12176:	0505                	c.addi	a0,1
   12178:	00357793          	andi	a5,a0,3
   1217c:	fbf5                	c.bnez	a5,12170 <strchr+0x9c>
   1217e:	4118                	c.lw	a4,0(a0)
   12180:	feff0637          	lui	a2,0xfeff0
   12184:	eff60613          	addi	a2,a2,-257 # fefefeff <__BSS_END__+0xfefd20f7>
   12188:	00c707b3          	add	a5,a4,a2
   1218c:	808086b7          	lui	a3,0x80808
   12190:	fff74713          	xori	a4,a4,-1
   12194:	8ff9                	c.and	a5,a4
   12196:	08068693          	addi	a3,a3,128 # 80808080 <__BSS_END__+0x807ea278>
   1219a:	8ff5                	c.and	a5,a3
   1219c:	eb91                	c.bnez	a5,121b0 <strchr+0xdc>
   1219e:	4158                	c.lw	a4,4(a0)
   121a0:	0511                	c.addi	a0,4
   121a2:	00c707b3          	add	a5,a4,a2
   121a6:	fff74713          	xori	a4,a4,-1
   121aa:	8ff9                	c.and	a5,a4
   121ac:	8ff5                	c.and	a5,a3
   121ae:	dbe5                	c.beqz	a5,1219e <strchr+0xca>
   121b0:	00054783          	lbu	a5,0(a0)
   121b4:	dfc5                	c.beqz	a5,1216c <strchr+0x98>
   121b6:	00154783          	lbu	a5,1(a0)
   121ba:	0505                	c.addi	a0,1
   121bc:	ffed                	c.bnez	a5,121b6 <strchr+0xe2>
   121be:	8082                	c.jr	ra
   121c0:	8082                	c.jr	ra

000121c2 <clock>:
   121c2:	f2c1a503          	lw	a0,-212(gp) # 1dabc <_impure_ptr>
   121c6:	1101                	c.addi	sp,-32
   121c8:	858a                	c.mv	a1,sp
   121ca:	ce06                	c.swsp	ra,28(sp)
   121cc:	2acd                	c.jal	123be <_times_r>
   121ce:	57fd                	c.li	a5,-1
   121d0:	00f50963          	beq	a0,a5,121e2 <clock+0x20>
   121d4:	4502                	c.lwsp	a0,0(sp)
   121d6:	4692                	c.lwsp	a3,4(sp)
   121d8:	4722                	c.lwsp	a4,8(sp)
   121da:	47b2                	c.lwsp	a5,12(sp)
   121dc:	9536                	c.add	a0,a3
   121de:	953a                	c.add	a0,a4
   121e0:	953e                	c.add	a0,a5
   121e2:	40f2                	c.lwsp	ra,28(sp)
   121e4:	6105                	c.addi16sp	sp,32
   121e6:	8082                	c.jr	ra

000121e8 <_close_r>:
   121e8:	1141                	c.addi	sp,-16
   121ea:	c422                	c.swsp	s0,8(sp)
   121ec:	c226                	c.swsp	s1,4(sp)
   121ee:	84aa                	c.mv	s1,a0
   121f0:	852e                	c.mv	a0,a1
   121f2:	c606                	c.swsp	ra,12(sp)
   121f4:	f401a023          	sw	zero,-192(gp) # 1dad0 <errno>
   121f8:	7e5060ef          	jal	ra,191dc <_close>
   121fc:	57fd                	c.li	a5,-1
   121fe:	00f50763          	beq	a0,a5,1220c <_close_r+0x24>
   12202:	40b2                	c.lwsp	ra,12(sp)
   12204:	4422                	c.lwsp	s0,8(sp)
   12206:	4492                	c.lwsp	s1,4(sp)
   12208:	0141                	c.addi	sp,16
   1220a:	8082                	c.jr	ra
   1220c:	f401a783          	lw	a5,-192(gp) # 1dad0 <errno>
   12210:	dbed                	c.beqz	a5,12202 <_close_r+0x1a>
   12212:	40b2                	c.lwsp	ra,12(sp)
   12214:	4422                	c.lwsp	s0,8(sp)
   12216:	c09c                	c.sw	a5,0(s1)
   12218:	4492                	c.lwsp	s1,4(sp)
   1221a:	0141                	c.addi	sp,16
   1221c:	8082                	c.jr	ra

0001221e <_reclaim_reent>:
   1221e:	f2c1a783          	lw	a5,-212(gp) # 1dabc <_impure_ptr>
   12222:	06a78b63          	beq	a5,a0,12298 <_reclaim_reent+0x7a>
   12226:	416c                	c.lw	a1,68(a0)
   12228:	1101                	c.addi	sp,-32
   1222a:	ca26                	c.swsp	s1,20(sp)
   1222c:	ce06                	c.swsp	ra,28(sp)
   1222e:	cc22                	c.swsp	s0,24(sp)
   12230:	84aa                	c.mv	s1,a0
   12232:	c59d                	c.beqz	a1,12260 <_reclaim_reent+0x42>
   12234:	c84a                	c.swsp	s2,16(sp)
   12236:	c64e                	c.swsp	s3,12(sp)
   12238:	4901                	c.li	s2,0
   1223a:	08000993          	addi	s3,zero,128
   1223e:	012587b3          	add	a5,a1,s2
   12242:	4380                	c.lw	s0,0(a5)
   12244:	c419                	c.beqz	s0,12252 <_reclaim_reent+0x34>
   12246:	85a2                	c.mv	a1,s0
   12248:	4000                	c.lw	s0,0(s0)
   1224a:	8526                	c.mv	a0,s1
   1224c:	21d1                	c.jal	12710 <_free_r>
   1224e:	fc65                	c.bnez	s0,12246 <_reclaim_reent+0x28>
   12250:	40ec                	c.lw	a1,68(s1)
   12252:	0911                	c.addi	s2,4
   12254:	ff3915e3          	bne	s2,s3,1223e <_reclaim_reent+0x20>
   12258:	8526                	c.mv	a0,s1
   1225a:	295d                	c.jal	12710 <_free_r>
   1225c:	4942                	c.lwsp	s2,16(sp)
   1225e:	49b2                	c.lwsp	s3,12(sp)
   12260:	5c8c                	c.lw	a1,56(s1)
   12262:	c199                	c.beqz	a1,12268 <_reclaim_reent+0x4a>
   12264:	8526                	c.mv	a0,s1
   12266:	216d                	c.jal	12710 <_free_r>
   12268:	40a0                	c.lw	s0,64(s1)
   1226a:	c411                	c.beqz	s0,12276 <_reclaim_reent+0x58>
   1226c:	85a2                	c.mv	a1,s0
   1226e:	4000                	c.lw	s0,0(s0)
   12270:	8526                	c.mv	a0,s1
   12272:	2979                	c.jal	12710 <_free_r>
   12274:	fc65                	c.bnez	s0,1226c <_reclaim_reent+0x4e>
   12276:	44ec                	c.lw	a1,76(s1)
   12278:	c199                	c.beqz	a1,1227e <_reclaim_reent+0x60>
   1227a:	8526                	c.mv	a0,s1
   1227c:	2951                	c.jal	12710 <_free_r>
   1227e:	58dc                	c.lw	a5,52(s1)
   12280:	c799                	c.beqz	a5,1228e <_reclaim_reent+0x70>
   12282:	4462                	c.lwsp	s0,24(sp)
   12284:	40f2                	c.lwsp	ra,28(sp)
   12286:	8526                	c.mv	a0,s1
   12288:	44d2                	c.lwsp	s1,20(sp)
   1228a:	6105                	c.addi16sp	sp,32
   1228c:	8782                	c.jr	a5
   1228e:	40f2                	c.lwsp	ra,28(sp)
   12290:	4462                	c.lwsp	s0,24(sp)
   12292:	44d2                	c.lwsp	s1,20(sp)
   12294:	6105                	c.addi16sp	sp,32
   12296:	8082                	c.jr	ra
   12298:	8082                	c.jr	ra

0001229a <_fstat_r>:
   1229a:	1141                	c.addi	sp,-16
   1229c:	87ae                	c.mv	a5,a1
   1229e:	c422                	c.swsp	s0,8(sp)
   122a0:	c226                	c.swsp	s1,4(sp)
   122a2:	85b2                	c.mv	a1,a2
   122a4:	84aa                	c.mv	s1,a0
   122a6:	853e                	c.mv	a0,a5
   122a8:	c606                	c.swsp	ra,12(sp)
   122aa:	f401a023          	sw	zero,-192(gp) # 1dad0 <errno>
   122ae:	77b060ef          	jal	ra,19228 <_fstat>
   122b2:	57fd                	c.li	a5,-1
   122b4:	00f50763          	beq	a0,a5,122c2 <_fstat_r+0x28>
   122b8:	40b2                	c.lwsp	ra,12(sp)
   122ba:	4422                	c.lwsp	s0,8(sp)
   122bc:	4492                	c.lwsp	s1,4(sp)
   122be:	0141                	c.addi	sp,16
   122c0:	8082                	c.jr	ra
   122c2:	f401a783          	lw	a5,-192(gp) # 1dad0 <errno>
   122c6:	dbed                	c.beqz	a5,122b8 <_fstat_r+0x1e>
   122c8:	40b2                	c.lwsp	ra,12(sp)
   122ca:	4422                	c.lwsp	s0,8(sp)
   122cc:	c09c                	c.sw	a5,0(s1)
   122ce:	4492                	c.lwsp	s1,4(sp)
   122d0:	0141                	c.addi	sp,16
   122d2:	8082                	c.jr	ra

000122d4 <_lseek_r>:
   122d4:	1141                	c.addi	sp,-16
   122d6:	87ae                	c.mv	a5,a1
   122d8:	c422                	c.swsp	s0,8(sp)
   122da:	c226                	c.swsp	s1,4(sp)
   122dc:	85b2                	c.mv	a1,a2
   122de:	84aa                	c.mv	s1,a0
   122e0:	8636                	c.mv	a2,a3
   122e2:	853e                	c.mv	a0,a5
   122e4:	c606                	c.swsp	ra,12(sp)
   122e6:	f401a023          	sw	zero,-192(gp) # 1dad0 <errno>
   122ea:	7b5060ef          	jal	ra,1929e <_lseek>
   122ee:	57fd                	c.li	a5,-1
   122f0:	00f50763          	beq	a0,a5,122fe <_lseek_r+0x2a>
   122f4:	40b2                	c.lwsp	ra,12(sp)
   122f6:	4422                	c.lwsp	s0,8(sp)
   122f8:	4492                	c.lwsp	s1,4(sp)
   122fa:	0141                	c.addi	sp,16
   122fc:	8082                	c.jr	ra
   122fe:	f401a783          	lw	a5,-192(gp) # 1dad0 <errno>
   12302:	dbed                	c.beqz	a5,122f4 <_lseek_r+0x20>
   12304:	40b2                	c.lwsp	ra,12(sp)
   12306:	4422                	c.lwsp	s0,8(sp)
   12308:	c09c                	c.sw	a5,0(s1)
   1230a:	4492                	c.lwsp	s1,4(sp)
   1230c:	0141                	c.addi	sp,16
   1230e:	8082                	c.jr	ra

00012310 <_open_r>:
   12310:	1141                	c.addi	sp,-16
   12312:	87ae                	c.mv	a5,a1
   12314:	c422                	c.swsp	s0,8(sp)
   12316:	c226                	c.swsp	s1,4(sp)
   12318:	85b2                	c.mv	a1,a2
   1231a:	84aa                	c.mv	s1,a0
   1231c:	8636                	c.mv	a2,a3
   1231e:	853e                	c.mv	a0,a5
   12320:	c606                	c.swsp	ra,12(sp)
   12322:	f401a023          	sw	zero,-192(gp) # 1dad0 <errno>
   12326:	7a3060ef          	jal	ra,192c8 <_open>
   1232a:	57fd                	c.li	a5,-1
   1232c:	00f50763          	beq	a0,a5,1233a <_open_r+0x2a>
   12330:	40b2                	c.lwsp	ra,12(sp)
   12332:	4422                	c.lwsp	s0,8(sp)
   12334:	4492                	c.lwsp	s1,4(sp)
   12336:	0141                	c.addi	sp,16
   12338:	8082                	c.jr	ra
   1233a:	f401a783          	lw	a5,-192(gp) # 1dad0 <errno>
   1233e:	dbed                	c.beqz	a5,12330 <_open_r+0x20>
   12340:	40b2                	c.lwsp	ra,12(sp)
   12342:	4422                	c.lwsp	s0,8(sp)
   12344:	c09c                	c.sw	a5,0(s1)
   12346:	4492                	c.lwsp	s1,4(sp)
   12348:	0141                	c.addi	sp,16
   1234a:	8082                	c.jr	ra

0001234c <_read_r>:
   1234c:	1141                	c.addi	sp,-16
   1234e:	87ae                	c.mv	a5,a1
   12350:	c422                	c.swsp	s0,8(sp)
   12352:	c226                	c.swsp	s1,4(sp)
   12354:	85b2                	c.mv	a1,a2
   12356:	84aa                	c.mv	s1,a0
   12358:	8636                	c.mv	a2,a3
   1235a:	853e                	c.mv	a0,a5
   1235c:	c606                	c.swsp	ra,12(sp)
   1235e:	f401a023          	sw	zero,-192(gp) # 1dad0 <errno>
   12362:	791060ef          	jal	ra,192f2 <_read>
   12366:	57fd                	c.li	a5,-1
   12368:	00f50763          	beq	a0,a5,12376 <_read_r+0x2a>
   1236c:	40b2                	c.lwsp	ra,12(sp)
   1236e:	4422                	c.lwsp	s0,8(sp)
   12370:	4492                	c.lwsp	s1,4(sp)
   12372:	0141                	c.addi	sp,16
   12374:	8082                	c.jr	ra
   12376:	f401a783          	lw	a5,-192(gp) # 1dad0 <errno>
   1237a:	dbed                	c.beqz	a5,1236c <_read_r+0x20>
   1237c:	40b2                	c.lwsp	ra,12(sp)
   1237e:	4422                	c.lwsp	s0,8(sp)
   12380:	c09c                	c.sw	a5,0(s1)
   12382:	4492                	c.lwsp	s1,4(sp)
   12384:	0141                	c.addi	sp,16
   12386:	8082                	c.jr	ra

00012388 <_sbrk_r>:
   12388:	1141                	c.addi	sp,-16
   1238a:	c422                	c.swsp	s0,8(sp)
   1238c:	c226                	c.swsp	s1,4(sp)
   1238e:	84aa                	c.mv	s1,a0
   12390:	852e                	c.mv	a0,a1
   12392:	c606                	c.swsp	ra,12(sp)
   12394:	f401a023          	sw	zero,-192(gp) # 1dad0 <errno>
   12398:	785060ef          	jal	ra,1931c <_sbrk>
   1239c:	57fd                	c.li	a5,-1
   1239e:	00f50763          	beq	a0,a5,123ac <_sbrk_r+0x24>
   123a2:	40b2                	c.lwsp	ra,12(sp)
   123a4:	4422                	c.lwsp	s0,8(sp)
   123a6:	4492                	c.lwsp	s1,4(sp)
   123a8:	0141                	c.addi	sp,16
   123aa:	8082                	c.jr	ra
   123ac:	f401a783          	lw	a5,-192(gp) # 1dad0 <errno>
   123b0:	dbed                	c.beqz	a5,123a2 <_sbrk_r+0x1a>
   123b2:	40b2                	c.lwsp	ra,12(sp)
   123b4:	4422                	c.lwsp	s0,8(sp)
   123b6:	c09c                	c.sw	a5,0(s1)
   123b8:	4492                	c.lwsp	s1,4(sp)
   123ba:	0141                	c.addi	sp,16
   123bc:	8082                	c.jr	ra

000123be <_times_r>:
   123be:	852e                	c.mv	a0,a1
   123c0:	7b10606f          	jal	zero,19370 <_times>

000123c4 <_write_r>:
   123c4:	1141                	c.addi	sp,-16
   123c6:	87ae                	c.mv	a5,a1
   123c8:	c422                	c.swsp	s0,8(sp)
   123ca:	c226                	c.swsp	s1,4(sp)
   123cc:	85b2                	c.mv	a1,a2
   123ce:	84aa                	c.mv	s1,a0
   123d0:	8636                	c.mv	a2,a3
   123d2:	853e                	c.mv	a0,a5
   123d4:	c606                	c.swsp	ra,12(sp)
   123d6:	f401a023          	sw	zero,-192(gp) # 1dad0 <errno>
   123da:	008070ef          	jal	ra,193e2 <_write>
   123de:	57fd                	c.li	a5,-1
   123e0:	00f50763          	beq	a0,a5,123ee <_write_r+0x2a>
   123e4:	40b2                	c.lwsp	ra,12(sp)
   123e6:	4422                	c.lwsp	s0,8(sp)
   123e8:	4492                	c.lwsp	s1,4(sp)
   123ea:	0141                	c.addi	sp,16
   123ec:	8082                	c.jr	ra
   123ee:	f401a783          	lw	a5,-192(gp) # 1dad0 <errno>
   123f2:	dbed                	c.beqz	a5,123e4 <_write_r+0x20>
   123f4:	40b2                	c.lwsp	ra,12(sp)
   123f6:	4422                	c.lwsp	s0,8(sp)
   123f8:	c09c                	c.sw	a5,0(s1)
   123fa:	4492                	c.lwsp	s1,4(sp)
   123fc:	0141                	c.addi	sp,16
   123fe:	8082                	c.jr	ra

00012400 <__errno>:
   12400:	f2c1a503          	lw	a0,-212(gp) # 1dabc <_impure_ptr>
   12404:	8082                	c.jr	ra

00012406 <__libc_init_array>:
   12406:	1141                	c.addi	sp,-16
   12408:	c422                	c.swsp	s0,8(sp)
   1240a:	c04a                	c.swsp	s2,0(sp)
   1240c:	6475                	c.lui	s0,0x1d
   1240e:	6975                	c.lui	s2,0x1d
   12410:	c606                	c.swsp	ra,12(sp)
   12412:	c226                	c.swsp	s1,4(sp)
   12414:	38090913          	addi	s2,s2,896 # 1d380 <__init_array_start>
   12418:	38040413          	addi	s0,s0,896 # 1d380 <__init_array_start>
   1241c:	00890d63          	beq	s2,s0,12436 <__libc_init_array+0x30>
   12420:	40890933          	sub	s2,s2,s0
   12424:	40295913          	srai	s2,s2,0x2
   12428:	4481                	c.li	s1,0
   1242a:	401c                	c.lw	a5,0(s0)
   1242c:	0485                	c.addi	s1,1
   1242e:	0411                	c.addi	s0,4
   12430:	9782                	c.jalr	a5
   12432:	ff24ece3          	bltu	s1,s2,1242a <__libc_init_array+0x24>
   12436:	6975                	c.lui	s2,0x1d
   12438:	6475                	c.lui	s0,0x1d
   1243a:	38890913          	addi	s2,s2,904 # 1d388 <__do_global_dtors_aux_fini_array_entry>
   1243e:	38040413          	addi	s0,s0,896 # 1d380 <__init_array_start>
   12442:	00890d63          	beq	s2,s0,1245c <__libc_init_array+0x56>
   12446:	40890933          	sub	s2,s2,s0
   1244a:	40295913          	srai	s2,s2,0x2
   1244e:	4481                	c.li	s1,0
   12450:	401c                	c.lw	a5,0(s0)
   12452:	0485                	c.addi	s1,1
   12454:	0411                	c.addi	s0,4
   12456:	9782                	c.jalr	a5
   12458:	ff24ece3          	bltu	s1,s2,12450 <__libc_init_array+0x4a>
   1245c:	40b2                	c.lwsp	ra,12(sp)
   1245e:	4422                	c.lwsp	s0,8(sp)
   12460:	4492                	c.lwsp	s1,4(sp)
   12462:	4902                	c.lwsp	s2,0(sp)
   12464:	0141                	c.addi	sp,16
   12466:	8082                	c.jr	ra

00012468 <memset>:
   12468:	433d                	c.li	t1,15
   1246a:	872a                	c.mv	a4,a0
   1246c:	02c37363          	bgeu	t1,a2,12492 <memset+0x2a>
   12470:	00f77793          	andi	a5,a4,15
   12474:	efbd                	c.bnez	a5,124f2 <memset+0x8a>
   12476:	e5ad                	c.bnez	a1,124e0 <memset+0x78>
   12478:	ff067693          	andi	a3,a2,-16
   1247c:	8a3d                	c.andi	a2,15
   1247e:	96ba                	c.add	a3,a4
   12480:	c30c                	c.sw	a1,0(a4)
   12482:	c34c                	c.sw	a1,4(a4)
   12484:	c70c                	c.sw	a1,8(a4)
   12486:	c74c                	c.sw	a1,12(a4)
   12488:	0741                	c.addi	a4,16
   1248a:	fed76be3          	bltu	a4,a3,12480 <memset+0x18>
   1248e:	e211                	c.bnez	a2,12492 <memset+0x2a>
   12490:	8082                	c.jr	ra
   12492:	40c306b3          	sub	a3,t1,a2
   12496:	068a                	c.slli	a3,0x2
   12498:	00000297          	auipc	t0,0x0
   1249c:	9696                	c.add	a3,t0
   1249e:	00a68067          	jalr	zero,10(a3)
   124a2:	00b70723          	sb	a1,14(a4)
   124a6:	00b706a3          	sb	a1,13(a4)
   124aa:	00b70623          	sb	a1,12(a4)
   124ae:	00b705a3          	sb	a1,11(a4)
   124b2:	00b70523          	sb	a1,10(a4)
   124b6:	00b704a3          	sb	a1,9(a4)
   124ba:	00b70423          	sb	a1,8(a4)
   124be:	00b703a3          	sb	a1,7(a4)
   124c2:	00b70323          	sb	a1,6(a4)
   124c6:	00b702a3          	sb	a1,5(a4)
   124ca:	00b70223          	sb	a1,4(a4)
   124ce:	00b701a3          	sb	a1,3(a4)
   124d2:	00b70123          	sb	a1,2(a4)
   124d6:	00b700a3          	sb	a1,1(a4)
   124da:	00b70023          	sb	a1,0(a4)
   124de:	8082                	c.jr	ra
   124e0:	0ff5f593          	andi	a1,a1,255
   124e4:	00859693          	slli	a3,a1,0x8
   124e8:	8dd5                	c.or	a1,a3
   124ea:	01059693          	slli	a3,a1,0x10
   124ee:	8dd5                	c.or	a1,a3
   124f0:	b761                	c.j	12478 <memset+0x10>
   124f2:	00279693          	slli	a3,a5,0x2
   124f6:	00000297          	auipc	t0,0x0
   124fa:	9696                	c.add	a3,t0
   124fc:	8286                	c.mv	t0,ra
   124fe:	fa8680e7          	jalr	ra,-88(a3)
   12502:	8096                	c.mv	ra,t0
   12504:	17c1                	c.addi	a5,-16
   12506:	8f1d                	c.sub	a4,a5
   12508:	963e                	c.add	a2,a5
   1250a:	f8c374e3          	bgeu	t1,a2,12492 <memset+0x2a>
   1250e:	b7a5                	c.j	12476 <memset+0xe>

00012510 <strlen>:
   12510:	00357793          	andi	a5,a0,3
   12514:	872a                	c.mv	a4,a0
   12516:	ef9d                	c.bnez	a5,12554 <strlen+0x44>
   12518:	7f7f86b7          	lui	a3,0x7f7f8
   1251c:	f7f68693          	addi	a3,a3,-129 # 7f7f7f7f <__BSS_END__+0x7f7da177>
   12520:	55fd                	c.li	a1,-1
   12522:	4310                	c.lw	a2,0(a4)
   12524:	0711                	c.addi	a4,4
   12526:	00d677b3          	and	a5,a2,a3
   1252a:	97b6                	c.add	a5,a3
   1252c:	8fd1                	c.or	a5,a2
   1252e:	8fd5                	c.or	a5,a3
   12530:	feb789e3          	beq	a5,a1,12522 <strlen+0x12>
   12534:	ffc74683          	lbu	a3,-4(a4)
   12538:	40a707b3          	sub	a5,a4,a0
   1253c:	ca8d                	c.beqz	a3,1256e <strlen+0x5e>
   1253e:	ffd74683          	lbu	a3,-3(a4)
   12542:	c29d                	c.beqz	a3,12568 <strlen+0x58>
   12544:	ffe74503          	lbu	a0,-2(a4)
   12548:	00a03533          	sltu	a0,zero,a0
   1254c:	953e                	c.add	a0,a5
   1254e:	1579                	c.addi	a0,-2
   12550:	8082                	c.jr	ra
   12552:	d2f9                	c.beqz	a3,12518 <strlen+0x8>
   12554:	00074783          	lbu	a5,0(a4)
   12558:	0705                	c.addi	a4,1
   1255a:	00377693          	andi	a3,a4,3
   1255e:	fbf5                	c.bnez	a5,12552 <strlen+0x42>
   12560:	8f09                	c.sub	a4,a0
   12562:	fff70513          	addi	a0,a4,-1
   12566:	8082                	c.jr	ra
   12568:	ffd78513          	addi	a0,a5,-3
   1256c:	8082                	c.jr	ra
   1256e:	ffc78513          	addi	a0,a5,-4
   12572:	8082                	c.jr	ra

00012574 <__call_exitprocs>:
   12574:	7179                	c.addi16sp	sp,-48
   12576:	cc52                	c.swsp	s4,24(sp)
   12578:	d04a                	c.swsp	s2,32(sp)
   1257a:	f441a903          	lw	s2,-188(gp) # 1dad4 <__atexit>
   1257e:	d606                	c.swsp	ra,44(sp)
   12580:	04090663          	beq	s2,zero,125cc <__call_exitprocs+0x58>
   12584:	ce4e                	c.swsp	s3,28(sp)
   12586:	ca56                	c.swsp	s5,20(sp)
   12588:	c85a                	c.swsp	s6,16(sp)
   1258a:	c65e                	c.swsp	s7,12(sp)
   1258c:	d422                	c.swsp	s0,40(sp)
   1258e:	d226                	c.swsp	s1,36(sp)
   12590:	c462                	c.swsp	s8,8(sp)
   12592:	8b2a                	c.mv	s6,a0
   12594:	8bae                	c.mv	s7,a1
   12596:	59fd                	c.li	s3,-1
   12598:	4a85                	c.li	s5,1
   1259a:	00492483          	lw	s1,4(s2)
   1259e:	fff48413          	addi	s0,s1,-1
   125a2:	00044e63          	blt	s0,zero,125be <__call_exitprocs+0x4a>
   125a6:	048a                	c.slli	s1,0x2
   125a8:	94ca                	c.add	s1,s2
   125aa:	020b8663          	beq	s7,zero,125d6 <__call_exitprocs+0x62>
   125ae:	1044a783          	lw	a5,260(s1)
   125b2:	03778263          	beq	a5,s7,125d6 <__call_exitprocs+0x62>
   125b6:	147d                	c.addi	s0,-1
   125b8:	14f1                	c.addi	s1,-4
   125ba:	ff341ae3          	bne	s0,s3,125ae <__call_exitprocs+0x3a>
   125be:	5422                	c.lwsp	s0,40(sp)
   125c0:	5492                	c.lwsp	s1,36(sp)
   125c2:	49f2                	c.lwsp	s3,28(sp)
   125c4:	4ad2                	c.lwsp	s5,20(sp)
   125c6:	4b42                	c.lwsp	s6,16(sp)
   125c8:	4bb2                	c.lwsp	s7,12(sp)
   125ca:	4c22                	c.lwsp	s8,8(sp)
   125cc:	50b2                	c.lwsp	ra,44(sp)
   125ce:	5902                	c.lwsp	s2,32(sp)
   125d0:	4a62                	c.lwsp	s4,24(sp)
   125d2:	6145                	c.addi16sp	sp,48
   125d4:	8082                	c.jr	ra
   125d6:	00492783          	lw	a5,4(s2)
   125da:	40d4                	c.lw	a3,4(s1)
   125dc:	17fd                	c.addi	a5,-1
   125de:	04878c63          	beq	a5,s0,12636 <__call_exitprocs+0xc2>
   125e2:	0004a223          	sw	zero,4(s1)
   125e6:	c295                	c.beqz	a3,1260a <__call_exitprocs+0x96>
   125e8:	18892783          	lw	a5,392(s2)
   125ec:	008a9733          	sll	a4,s5,s0
   125f0:	00492c03          	lw	s8,4(s2)
   125f4:	8ff9                	c.and	a5,a4
   125f6:	ef99                	c.bnez	a5,12614 <__call_exitprocs+0xa0>
   125f8:	9682                	c.jalr	a3
   125fa:	00492703          	lw	a4,4(s2)
   125fe:	f441a783          	lw	a5,-188(gp) # 1dad4 <__atexit>
   12602:	03871763          	bne	a4,s8,12630 <__call_exitprocs+0xbc>
   12606:	03279563          	bne	a5,s2,12630 <__call_exitprocs+0xbc>
   1260a:	147d                	c.addi	s0,-1
   1260c:	14f1                	c.addi	s1,-4
   1260e:	f9341ee3          	bne	s0,s3,125aa <__call_exitprocs+0x36>
   12612:	b775                	c.j	125be <__call_exitprocs+0x4a>
   12614:	18c92783          	lw	a5,396(s2)
   12618:	0844a583          	lw	a1,132(s1)
   1261c:	8f7d                	c.and	a4,a5
   1261e:	ef19                	c.bnez	a4,1263c <__call_exitprocs+0xc8>
   12620:	855a                	c.mv	a0,s6
   12622:	9682                	c.jalr	a3
   12624:	00492703          	lw	a4,4(s2)
   12628:	f441a783          	lw	a5,-188(gp) # 1dad4 <__atexit>
   1262c:	fd870de3          	beq	a4,s8,12606 <__call_exitprocs+0x92>
   12630:	d7d9                	c.beqz	a5,125be <__call_exitprocs+0x4a>
   12632:	893e                	c.mv	s2,a5
   12634:	b79d                	c.j	1259a <__call_exitprocs+0x26>
   12636:	00892223          	sw	s0,4(s2)
   1263a:	b775                	c.j	125e6 <__call_exitprocs+0x72>
   1263c:	852e                	c.mv	a0,a1
   1263e:	9682                	c.jalr	a3
   12640:	bf6d                	c.j	125fa <__call_exitprocs+0x86>

00012642 <atexit>:
   12642:	85aa                	c.mv	a1,a0
   12644:	4681                	c.li	a3,0
   12646:	4601                	c.li	a2,0
   12648:	4501                	c.li	a0,0
   1264a:	7350206f          	jal	zero,1557e <__register_exitproc>

0001264e <_malloc_trim_r>:
   1264e:	1101                	c.addi	sp,-32
   12650:	c84a                	c.swsp	s2,16(sp)
   12652:	6975                	c.lui	s2,0x1d
   12654:	cc22                	c.swsp	s0,24(sp)
   12656:	ca26                	c.swsp	s1,20(sp)
   12658:	c64e                	c.swsp	s3,12(sp)
   1265a:	842e                	c.mv	s0,a1
   1265c:	ce06                	c.swsp	ra,28(sp)
   1265e:	89aa                	c.mv	s3,a0
   12660:	39090913          	addi	s2,s2,912 # 1d390 <__malloc_av_>
   12664:	e58fe0ef          	jal	ra,10cbc <__malloc_lock>
   12668:	00892783          	lw	a5,8(s2)
   1266c:	6705                	c.lui	a4,0x1
   1266e:	43c4                	c.lw	s1,4(a5)
   12670:	98f1                	c.andi	s1,-4
   12672:	7ff48793          	addi	a5,s1,2047
   12676:	7f078793          	addi	a5,a5,2032
   1267a:	40878433          	sub	s0,a5,s0
   1267e:	8031                	c.srli	s0,0xc
   12680:	147d                	c.addi	s0,-1
   12682:	0432                	c.slli	s0,0xc
   12684:	00e44a63          	blt	s0,a4,12698 <_malloc_trim_r+0x4a>
   12688:	4581                	c.li	a1,0
   1268a:	854e                	c.mv	a0,s3
   1268c:	39f5                	c.jal	12388 <_sbrk_r>
   1268e:	00892783          	lw	a5,8(s2)
   12692:	97a6                	c.add	a5,s1
   12694:	00f50d63          	beq	a0,a5,126ae <_malloc_trim_r+0x60>
   12698:	854e                	c.mv	a0,s3
   1269a:	e24fe0ef          	jal	ra,10cbe <__malloc_unlock>
   1269e:	40f2                	c.lwsp	ra,28(sp)
   126a0:	4462                	c.lwsp	s0,24(sp)
   126a2:	44d2                	c.lwsp	s1,20(sp)
   126a4:	4942                	c.lwsp	s2,16(sp)
   126a6:	49b2                	c.lwsp	s3,12(sp)
   126a8:	4501                	c.li	a0,0
   126aa:	6105                	c.addi16sp	sp,32
   126ac:	8082                	c.jr	ra
   126ae:	408005b3          	sub	a1,zero,s0
   126b2:	854e                	c.mv	a0,s3
   126b4:	39d1                	c.jal	12388 <_sbrk_r>
   126b6:	57fd                	c.li	a5,-1
   126b8:	02f50863          	beq	a0,a5,126e8 <_malloc_trim_r+0x9a>
   126bc:	00892683          	lw	a3,8(s2)
   126c0:	f741a783          	lw	a5,-140(gp) # 1db04 <__malloc_current_mallinfo>
   126c4:	8c81                	c.sub	s1,s0
   126c6:	0014e493          	ori	s1,s1,1
   126ca:	854e                	c.mv	a0,s3
   126cc:	8f81                	c.sub	a5,s0
   126ce:	c2c4                	c.sw	s1,4(a3)
   126d0:	f6f1aa23          	sw	a5,-140(gp) # 1db04 <__malloc_current_mallinfo>
   126d4:	deafe0ef          	jal	ra,10cbe <__malloc_unlock>
   126d8:	40f2                	c.lwsp	ra,28(sp)
   126da:	4462                	c.lwsp	s0,24(sp)
   126dc:	44d2                	c.lwsp	s1,20(sp)
   126de:	4942                	c.lwsp	s2,16(sp)
   126e0:	49b2                	c.lwsp	s3,12(sp)
   126e2:	4505                	c.li	a0,1
   126e4:	6105                	c.addi16sp	sp,32
   126e6:	8082                	c.jr	ra
   126e8:	4581                	c.li	a1,0
   126ea:	854e                	c.mv	a0,s3
   126ec:	c9dff0ef          	jal	ra,12388 <_sbrk_r>
   126f0:	00892703          	lw	a4,8(s2)
   126f4:	46bd                	c.li	a3,15
   126f6:	40e507b3          	sub	a5,a0,a4
   126fa:	f8f6dfe3          	bge	a3,a5,12698 <_malloc_trim_r+0x4a>
   126fe:	f241a603          	lw	a2,-220(gp) # 1dab4 <__malloc_sbrk_base>
   12702:	0017e793          	ori	a5,a5,1
   12706:	8d11                	c.sub	a0,a2
   12708:	c35c                	c.sw	a5,4(a4)
   1270a:	f6a1aa23          	sw	a0,-140(gp) # 1db04 <__malloc_current_mallinfo>
   1270e:	b769                	c.j	12698 <_malloc_trim_r+0x4a>

00012710 <_free_r>:
   12710:	cdf9                	c.beqz	a1,127ee <_free_r+0xde>
   12712:	1101                	c.addi	sp,-32
   12714:	cc22                	c.swsp	s0,24(sp)
   12716:	c62e                	c.swsp	a1,12(sp)
   12718:	842a                	c.mv	s0,a0
   1271a:	ce06                	c.swsp	ra,28(sp)
   1271c:	da0fe0ef          	jal	ra,10cbc <__malloc_lock>
   12720:	45b2                	c.lwsp	a1,12(sp)
   12722:	6875                	c.lui	a6,0x1d
   12724:	39080813          	addi	a6,a6,912 # 1d390 <__malloc_av_>
   12728:	ffc5a503          	lw	a0,-4(a1) # 1ffc <exit-0xe0b8>
   1272c:	ff858713          	addi	a4,a1,-8
   12730:	00882883          	lw	a7,8(a6)
   12734:	ffe57793          	andi	a5,a0,-2
   12738:	00f70633          	add	a2,a4,a5
   1273c:	4254                	c.lw	a3,4(a2)
   1273e:	00157313          	andi	t1,a0,1
   12742:	9af1                	c.andi	a3,-4
   12744:	12c88063          	beq	a7,a2,12864 <_free_r+0x154>
   12748:	c254                	c.sw	a3,4(a2)
   1274a:	00d608b3          	add	a7,a2,a3
   1274e:	0048a883          	lw	a7,4(a7)
   12752:	0018f893          	andi	a7,a7,1
   12756:	06031863          	bne	t1,zero,127c6 <_free_r+0xb6>
   1275a:	ff85a303          	lw	t1,-8(a1)
   1275e:	65f5                	c.lui	a1,0x1d
   12760:	39858593          	addi	a1,a1,920 # 1d398 <__malloc_av_+0x8>
   12764:	40670733          	sub	a4,a4,t1
   12768:	4708                	c.lw	a0,8(a4)
   1276a:	979a                	c.add	a5,t1
   1276c:	0cb50f63          	beq	a0,a1,1284a <_free_r+0x13a>
   12770:	00c72303          	lw	t1,12(a4) # 100c <exit-0xf0a8>
   12774:	00652623          	sw	t1,12(a0)
   12778:	00a32423          	sw	a0,8(t1)
   1277c:	10088d63          	beq	a7,zero,12896 <_free_r+0x186>
   12780:	0017e693          	ori	a3,a5,1
   12784:	c354                	c.sw	a3,4(a4)
   12786:	c21c                	c.sw	a5,0(a2)
   12788:	1ff00693          	addi	a3,zero,511
   1278c:	06f6eb63          	bltu	a3,a5,12802 <_free_r+0xf2>
   12790:	ff87f693          	andi	a3,a5,-8
   12794:	06a1                	c.addi	a3,8
   12796:	00482583          	lw	a1,4(a6)
   1279a:	96c2                	c.add	a3,a6
   1279c:	4290                	c.lw	a2,0(a3)
   1279e:	0057d513          	srli	a0,a5,0x5
   127a2:	4785                	c.li	a5,1
   127a4:	00a797b3          	sll	a5,a5,a0
   127a8:	8fcd                	c.or	a5,a1
   127aa:	ff868593          	addi	a1,a3,-8
   127ae:	c710                	c.sw	a2,8(a4)
   127b0:	c74c                	c.sw	a1,12(a4)
   127b2:	00f82223          	sw	a5,4(a6)
   127b6:	c298                	c.sw	a4,0(a3)
   127b8:	c658                	c.sw	a4,12(a2)
   127ba:	8522                	c.mv	a0,s0
   127bc:	4462                	c.lwsp	s0,24(sp)
   127be:	40f2                	c.lwsp	ra,28(sp)
   127c0:	6105                	c.addi16sp	sp,32
   127c2:	cfcfe06f          	jal	zero,10cbe <__malloc_unlock>
   127c6:	02089563          	bne	a7,zero,127f0 <_free_r+0xe0>
   127ca:	65f5                	c.lui	a1,0x1d
   127cc:	97b6                	c.add	a5,a3
   127ce:	39858593          	addi	a1,a1,920 # 1d398 <__malloc_av_+0x8>
   127d2:	4614                	c.lw	a3,8(a2)
   127d4:	0017e893          	ori	a7,a5,1
   127d8:	00f70533          	add	a0,a4,a5
   127dc:	0eb68963          	beq	a3,a1,128ce <_free_r+0x1be>
   127e0:	4650                	c.lw	a2,12(a2)
   127e2:	c6d0                	c.sw	a2,12(a3)
   127e4:	c614                	c.sw	a3,8(a2)
   127e6:	01172223          	sw	a7,4(a4)
   127ea:	c11c                	c.sw	a5,0(a0)
   127ec:	bf71                	c.j	12788 <_free_r+0x78>
   127ee:	8082                	c.jr	ra
   127f0:	00156513          	ori	a0,a0,1
   127f4:	fea5ae23          	sw	a0,-4(a1)
   127f8:	c21c                	c.sw	a5,0(a2)
   127fa:	1ff00693          	addi	a3,zero,511
   127fe:	f8f6f9e3          	bgeu	a3,a5,12790 <_free_r+0x80>
   12802:	0097d693          	srli	a3,a5,0x9
   12806:	4611                	c.li	a2,4
   12808:	08d66963          	bltu	a2,a3,1289a <_free_r+0x18a>
   1280c:	0067d693          	srli	a3,a5,0x6
   12810:	03968593          	addi	a1,a3,57
   12814:	058e                	c.slli	a1,0x3
   12816:	03868613          	addi	a2,a3,56
   1281a:	95c2                	c.add	a1,a6
   1281c:	4194                	c.lw	a3,0(a1)
   1281e:	15e1                	c.addi	a1,-8
   12820:	00d59663          	bne	a1,a3,1282c <_free_r+0x11c>
   12824:	a87d                	c.j	128e2 <_free_r+0x1d2>
   12826:	4694                	c.lw	a3,8(a3)
   12828:	00d58663          	beq	a1,a3,12834 <_free_r+0x124>
   1282c:	42d0                	c.lw	a2,4(a3)
   1282e:	9a71                	c.andi	a2,-4
   12830:	fec7ebe3          	bltu	a5,a2,12826 <_free_r+0x116>
   12834:	46cc                	c.lw	a1,12(a3)
   12836:	c74c                	c.sw	a1,12(a4)
   12838:	c714                	c.sw	a3,8(a4)
   1283a:	8522                	c.mv	a0,s0
   1283c:	4462                	c.lwsp	s0,24(sp)
   1283e:	40f2                	c.lwsp	ra,28(sp)
   12840:	c598                	c.sw	a4,8(a1)
   12842:	c6d8                	c.sw	a4,12(a3)
   12844:	6105                	c.addi16sp	sp,32
   12846:	c78fe06f          	jal	zero,10cbe <__malloc_unlock>
   1284a:	06089763          	bne	a7,zero,128b8 <_free_r+0x1a8>
   1284e:	464c                	c.lw	a1,12(a2)
   12850:	4610                	c.lw	a2,8(a2)
   12852:	96be                	c.add	a3,a5
   12854:	0016e793          	ori	a5,a3,1
   12858:	c64c                	c.sw	a1,12(a2)
   1285a:	c590                	c.sw	a2,8(a1)
   1285c:	c35c                	c.sw	a5,4(a4)
   1285e:	9736                	c.add	a4,a3
   12860:	c314                	c.sw	a3,0(a4)
   12862:	bfa1                	c.j	127ba <_free_r+0xaa>
   12864:	96be                	c.add	a3,a5
   12866:	00031a63          	bne	t1,zero,1287a <_free_r+0x16a>
   1286a:	ff85a783          	lw	a5,-8(a1)
   1286e:	8f1d                	c.sub	a4,a5
   12870:	4710                	c.lw	a2,8(a4)
   12872:	96be                	c.add	a3,a5
   12874:	475c                	c.lw	a5,12(a4)
   12876:	c65c                	c.sw	a5,12(a2)
   12878:	c790                	c.sw	a2,8(a5)
   1287a:	0016e613          	ori	a2,a3,1
   1287e:	f281a783          	lw	a5,-216(gp) # 1dab8 <__malloc_trim_threshold>
   12882:	c350                	c.sw	a2,4(a4)
   12884:	00e82423          	sw	a4,8(a6)
   12888:	f2f6e9e3          	bltu	a3,a5,127ba <_free_r+0xaa>
   1288c:	f381a583          	lw	a1,-200(gp) # 1dac8 <__malloc_top_pad>
   12890:	8522                	c.mv	a0,s0
   12892:	3b75                	c.jal	1264e <_malloc_trim_r>
   12894:	b71d                	c.j	127ba <_free_r+0xaa>
   12896:	97b6                	c.add	a5,a3
   12898:	bf2d                	c.j	127d2 <_free_r+0xc2>
   1289a:	4651                	c.li	a2,20
   1289c:	02d67363          	bgeu	a2,a3,128c2 <_free_r+0x1b2>
   128a0:	05400613          	addi	a2,zero,84
   128a4:	04d66963          	bltu	a2,a3,128f6 <_free_r+0x1e6>
   128a8:	00c7d693          	srli	a3,a5,0xc
   128ac:	06f68593          	addi	a1,a3,111
   128b0:	058e                	c.slli	a1,0x3
   128b2:	06e68613          	addi	a2,a3,110
   128b6:	b795                	c.j	1281a <_free_r+0x10a>
   128b8:	0017e693          	ori	a3,a5,1
   128bc:	c354                	c.sw	a3,4(a4)
   128be:	c21c                	c.sw	a5,0(a2)
   128c0:	bded                	c.j	127ba <_free_r+0xaa>
   128c2:	05c68593          	addi	a1,a3,92
   128c6:	058e                	c.slli	a1,0x3
   128c8:	05b68613          	addi	a2,a3,91
   128cc:	b7b9                	c.j	1281a <_free_r+0x10a>
   128ce:	00e82a23          	sw	a4,20(a6)
   128d2:	00e82823          	sw	a4,16(a6)
   128d6:	c74c                	c.sw	a1,12(a4)
   128d8:	c70c                	c.sw	a1,8(a4)
   128da:	01172223          	sw	a7,4(a4)
   128de:	c11c                	c.sw	a5,0(a0)
   128e0:	bde9                	c.j	127ba <_free_r+0xaa>
   128e2:	00482503          	lw	a0,4(a6)
   128e6:	8609                	c.srai	a2,0x2
   128e8:	4785                	c.li	a5,1
   128ea:	00c797b3          	sll	a5,a5,a2
   128ee:	8fc9                	c.or	a5,a0
   128f0:	00f82223          	sw	a5,4(a6)
   128f4:	b789                	c.j	12836 <_free_r+0x126>
   128f6:	15400613          	addi	a2,zero,340
   128fa:	00d66a63          	bltu	a2,a3,1290e <_free_r+0x1fe>
   128fe:	00f7d693          	srli	a3,a5,0xf
   12902:	07868593          	addi	a1,a3,120
   12906:	058e                	c.slli	a1,0x3
   12908:	07768613          	addi	a2,a3,119
   1290c:	b739                	c.j	1281a <_free_r+0x10a>
   1290e:	55400613          	addi	a2,zero,1364
   12912:	00d66a63          	bltu	a2,a3,12926 <_free_r+0x216>
   12916:	0127d693          	srli	a3,a5,0x12
   1291a:	07d68593          	addi	a1,a3,125
   1291e:	058e                	c.slli	a1,0x3
   12920:	07c68613          	addi	a2,a3,124
   12924:	bddd                	c.j	1281a <_free_r+0x10a>
   12926:	3f800593          	addi	a1,zero,1016
   1292a:	07e00613          	addi	a2,zero,126
   1292e:	b5f5                	c.j	1281a <_free_r+0x10a>

00012930 <_vfprintf_r>:
   12930:	7121                	c.addi16sp	sp,-448
   12932:	1a112e23          	sw	ra,444(sp)
   12936:	1a912a23          	sw	s1,436(sp)
   1293a:	1b212823          	sw	s2,432(sp)
   1293e:	19a12823          	sw	s10,400(sp)
   12942:	c836                	c.swsp	a3,16(sp)
   12944:	8d32                	c.mv	s10,a2
   12946:	84ae                	c.mv	s1,a1
   12948:	892a                	c.mv	s2,a0
   1294a:	11f020ef          	jal	ra,15268 <_localeconv_r>
   1294e:	411c                	c.lw	a5,0(a0)
   12950:	853e                	c.mv	a0,a5
   12952:	d43e                	c.swsp	a5,40(sp)
   12954:	bbdff0ef          	jal	ra,12510 <strlen>
   12958:	d22a                	c.swsp	a0,36(sp)
   1295a:	c182                	c.swsp	zero,192(sp)
   1295c:	00090763          	beq	s2,zero,1296a <_vfprintf_r+0x3a>
   12960:	03492783          	lw	a5,52(s2)
   12964:	e399                	c.bnez	a5,1296a <_vfprintf_r+0x3a>
   12966:	42c0106f          	jal	zero,13d92 <_vfprintf_r+0x1462>
   1296a:	00c49783          	lh	a5,12(s1)
   1296e:	50f8                	c.lw	a4,100(s1)
   12970:	6609                	c.lui	a2,0x2
   12972:	01279693          	slli	a3,a5,0x12
   12976:	2406c963          	blt	a3,zero,12bc8 <_vfprintf_r+0x298>
   1297a:	76f9                	c.lui	a3,0xffffe
   1297c:	8fd1                	c.or	a5,a2
   1297e:	16fd                	c.addi	a3,-1 # ffffdfff <__BSS_END__+0xfffe01f7>
   12980:	8f75                	c.and	a4,a3
   12982:	00f49623          	sh	a5,12(s1)
   12986:	07c2                	c.slli	a5,0x10
   12988:	87c1                	c.srai	a5,0x10
   1298a:	d0f8                	c.sw	a4,100(s1)
   1298c:	0087f713          	andi	a4,a5,8
   12990:	1e070263          	beq	a4,zero,12b74 <_vfprintf_r+0x244>
   12994:	4898                	c.lw	a4,16(s1)
   12996:	1c070f63          	beq	a4,zero,12b74 <_vfprintf_r+0x244>
   1299a:	8be9                	c.andi	a5,26
   1299c:	4729                	c.li	a4,10
   1299e:	1ee78663          	beq	a5,a4,12b8a <_vfprintf_r+0x25a>
   129a2:	67f1                	c.lui	a5,0x1c
   129a4:	1b312623          	sw	s3,428(sp)
   129a8:	1b412423          	sw	s4,424(sp)
   129ac:	0dc10993          	addi	s3,sp,220
   129b0:	6a71                	c.lui	s4,0x1c
   129b2:	e2c78793          	addi	a5,a5,-468 # 1be2c <_ctype_+0x104>
   129b6:	1a812c23          	sw	s0,440(sp)
   129ba:	1b612023          	sw	s6,416(sp)
   129be:	1b512223          	sw	s5,420(sp)
   129c2:	19712e23          	sw	s7,412(sp)
   129c6:	19812c23          	sw	s8,408(sp)
   129ca:	19912a23          	sw	s9,404(sp)
   129ce:	19b12623          	sw	s11,396(sp)
   129d2:	df02                	c.swsp	zero,188(sp)
   129d4:	dd02                	c.swsp	zero,184(sp)
   129d6:	db4e                	c.swsp	s3,180(sp)
   129d8:	8b4e                	c.mv	s6,s3
   129da:	ca3e                	c.swsp	a5,20(sp)
   129dc:	f98a0a13          	addi	s4,s4,-104 # 1bf98 <zeroes.0>
   129e0:	cc02                	c.swsp	zero,24(sp)
   129e2:	dc02                	c.swsp	zero,56(sp)
   129e4:	d602                	c.swsp	zero,44(sp)
   129e6:	c282                	c.swsp	zero,68(sp)
   129e8:	de02                	c.swsp	zero,60(sp)
   129ea:	c402                	c.swsp	zero,8(sp)
   129ec:	4441                	c.li	s0,16
   129ee:	c026                	c.swsp	s1,0(sp)
   129f0:	000d4783          	lbu	a5,0(s10)
   129f4:	8aea                	c.mv	s5,s10
   129f6:	fdb78713          	addi	a4,a5,-37
   129fa:	c329                	c.beqz	a4,12a3c <_vfprintf_r+0x10c>
   129fc:	c3a1                	c.beqz	a5,12a3c <_vfprintf_r+0x10c>
   129fe:	8c56                	c.mv	s8,s5
   12a00:	001ac783          	lbu	a5,1(s5)
   12a04:	0a85                	c.addi	s5,1
   12a06:	c781                	c.beqz	a5,12a0e <_vfprintf_r+0xde>
   12a08:	fdb78713          	addi	a4,a5,-37
   12a0c:	fb6d                	c.bnez	a4,129fe <_vfprintf_r+0xce>
   12a0e:	41aa8cb3          	sub	s9,s5,s10
   12a12:	03aa8563          	beq	s5,s10,12a3c <_vfprintf_r+0x10c>
   12a16:	57fa                	c.lwsp	a5,188(sp)
   12a18:	556a                	c.lwsp	a0,184(sp)
   12a1a:	01ab2023          	sw	s10,0(s6)
   12a1e:	97e6                	c.add	a5,s9
   12a20:	0505                	c.addi	a0,1
   12a22:	019b2223          	sw	s9,4(s6)
   12a26:	df3e                	c.swsp	a5,188(sp)
   12a28:	dd2a                	c.swsp	a0,184(sp)
   12a2a:	479d                	c.li	a5,7
   12a2c:	0b21                	c.addi	s6,8
   12a2e:	18a7c363          	blt	a5,a0,12bb4 <_vfprintf_r+0x284>
   12a32:	47a2                	c.lwsp	a5,8(sp)
   12a34:	97e6                	c.add	a5,s9
   12a36:	c43e                	c.swsp	a5,8(sp)
   12a38:	001c4783          	lbu	a5,1(s8)
   12a3c:	e399                	c.bnez	a5,12a42 <_vfprintf_r+0x112>
   12a3e:	42a0106f          	jal	zero,13e68 <_vfprintf_r+0x1538>
   12a42:	001ac883          	lbu	a7,1(s5)
   12a46:	001a8d13          	addi	s10,s5,1
   12a4a:	080109a3          	sb	zero,147(sp)
   12a4e:	5afd                	c.li	s5,-1
   12a50:	c202                	c.swsp	zero,4(sp)
   12a52:	4b81                	c.li	s7,0
   12a54:	05a00c13          	addi	s8,zero,90
   12a58:	0d05                	c.addi	s10,1
   12a5a:	fe088793          	addi	a5,a7,-32
   12a5e:	02fc6d63          	bltu	s8,a5,12a98 <_vfprintf_r+0x168>
   12a62:	4752                	c.lwsp	a4,20(sp)
   12a64:	078a                	c.slli	a5,0x2
   12a66:	97ba                	c.add	a5,a4
   12a68:	439c                	c.lw	a5,0(a5)
   12a6a:	8782                	c.jr	a5
   12a6c:	fd088793          	addi	a5,a7,-48
   12a70:	c202                	c.swsp	zero,4(sp)
   12a72:	46a5                	c.li	a3,9
   12a74:	4612                	c.lwsp	a2,4(sp)
   12a76:	000d4883          	lbu	a7,0(s10)
   12a7a:	0d05                	c.addi	s10,1
   12a7c:	00261713          	slli	a4,a2,0x2
   12a80:	9732                	c.add	a4,a2
   12a82:	0706                	c.slli	a4,0x1
   12a84:	97ba                	c.add	a5,a4
   12a86:	c23e                	c.swsp	a5,4(sp)
   12a88:	fd088793          	addi	a5,a7,-48
   12a8c:	fef6f4e3          	bgeu	a3,a5,12a74 <_vfprintf_r+0x144>
   12a90:	fe088793          	addi	a5,a7,-32
   12a94:	fcfc77e3          	bgeu	s8,a5,12a62 <_vfprintf_r+0x132>
   12a98:	00089463          	bne	a7,zero,12aa0 <_vfprintf_r+0x170>
   12a9c:	3cc0106f          	jal	zero,13e68 <_vfprintf_r+0x1538>
   12aa0:	4c85                	c.li	s9,1
   12aa2:	11110e23          	sb	a7,284(sp)
   12aa6:	080109a3          	sb	zero,147(sp)
   12aaa:	8c66                	c.mv	s8,s9
   12aac:	c602                	c.swsp	zero,12(sp)
   12aae:	4a81                	c.li	s5,0
   12ab0:	d002                	c.swsp	zero,32(sp)
   12ab2:	ce02                	c.swsp	zero,28(sp)
   12ab4:	4301                	c.li	t1,0
   12ab6:	0a7c                	c.addi4spn	a5,sp,284
   12ab8:	567a                	c.lwsp	a2,188(sp)
   12aba:	084bfd93          	andi	s11,s7,132
   12abe:	8832                	c.mv	a6,a2
   12ac0:	500d8963          	beq	s11,zero,12fd2 <_vfprintf_r+0x6a2>
   12ac4:	09314703          	lbu	a4,147(sp)
   12ac8:	c331                	c.beqz	a4,12b0c <_vfprintf_r+0x1dc>
   12aca:	55ea                	c.lwsp	a1,184(sp)
   12acc:	4701                	c.li	a4,0
   12ace:	09310513          	addi	a0,sp,147
   12ad2:	00ab2023          	sw	a0,0(s6)
   12ad6:	0605                	c.addi	a2,1 # 2001 <exit-0xe0b3>
   12ad8:	4505                	c.li	a0,1
   12ada:	0585                	c.addi	a1,1
   12adc:	00ab2223          	sw	a0,4(s6)
   12ae0:	df32                	c.swsp	a2,188(sp)
   12ae2:	dd2e                	c.swsp	a1,184(sp)
   12ae4:	451d                	c.li	a0,7
   12ae6:	0b21                	c.addi	s6,8
   12ae8:	3ab54463          	blt	a0,a1,12e90 <_vfprintf_r+0x560>
   12aec:	c305                	c.beqz	a4,12b0c <_vfprintf_r+0x1dc>
   12aee:	55ea                	c.lwsp	a1,184(sp)
   12af0:	0958                	c.addi4spn	a4,sp,148
   12af2:	00eb2023          	sw	a4,0(s6)
   12af6:	0609                	c.addi	a2,2
   12af8:	4709                	c.li	a4,2
   12afa:	0585                	c.addi	a1,1
   12afc:	00eb2223          	sw	a4,4(s6)
   12b00:	df32                	c.swsp	a2,188(sp)
   12b02:	dd2e                	c.swsp	a1,184(sp)
   12b04:	471d                	c.li	a4,7
   12b06:	0b21                	c.addi	s6,8
   12b08:	42b741e3          	blt	a4,a1,1372a <_vfprintf_r+0xdfa>
   12b0c:	08000713          	addi	a4,zero,128
   12b10:	2eed85e3          	beq	s11,a4,135fa <_vfprintf_r+0xcca>
   12b14:	419a8ab3          	sub	s5,s5,s9
   12b18:	4d504a63          	blt	zero,s5,12fec <_vfprintf_r+0x6bc>
   12b1c:	100bf713          	andi	a4,s7,256
   12b20:	56071363          	bne	a4,zero,13086 <_vfprintf_r+0x756>
   12b24:	00fb2023          	sw	a5,0(s6)
   12b28:	57ea                	c.lwsp	a5,184(sp)
   12b2a:	9666                	c.add	a2,s9
   12b2c:	df32                	c.swsp	a2,188(sp)
   12b2e:	0785                	c.addi	a5,1
   12b30:	019b2223          	sw	s9,4(s6)
   12b34:	471d                	c.li	a4,7
   12b36:	dd3e                	c.swsp	a5,184(sp)
   12b38:	42f74563          	blt	a4,a5,12f62 <_vfprintf_r+0x632>
   12b3c:	0b21                	c.addi	s6,8
   12b3e:	004bfe13          	andi	t3,s7,4
   12b42:	000e0763          	beq	t3,zero,12b50 <_vfprintf_r+0x220>
   12b46:	4792                	c.lwsp	a5,4(sp)
   12b48:	41878ab3          	sub	s5,a5,s8
   12b4c:	3f504fe3          	blt	zero,s5,1374a <_vfprintf_r+0xe1a>
   12b50:	4312                	c.lwsp	t1,4(sp)
   12b52:	01835363          	bge	t1,s8,12b58 <_vfprintf_r+0x228>
   12b56:	8362                	c.mv	t1,s8
   12b58:	47a2                	c.lwsp	a5,8(sp)
   12b5a:	979a                	c.add	a5,t1
   12b5c:	c43e                	c.swsp	a5,8(sp)
   12b5e:	340619e3          	bne	a2,zero,136b0 <_vfprintf_r+0xd80>
   12b62:	47b2                	c.lwsp	a5,12(sp)
   12b64:	dd02                	c.swsp	zero,184(sp)
   12b66:	c789                	c.beqz	a5,12b70 <_vfprintf_r+0x240>
   12b68:	45b2                	c.lwsp	a1,12(sp)
   12b6a:	854a                	c.mv	a0,s2
   12b6c:	ba5ff0ef          	jal	ra,12710 <_free_r>
   12b70:	8b4e                	c.mv	s6,s3
   12b72:	bdbd                	c.j	129f0 <_vfprintf_r+0xc0>
   12b74:	85a6                	c.mv	a1,s1
   12b76:	854a                	c.mv	a0,s2
   12b78:	950ff0ef          	jal	ra,11cc8 <__swsetup_r>
   12b7c:	e931                	c.bnez	a0,12bd0 <_vfprintf_r+0x2a0>
   12b7e:	00c49783          	lh	a5,12(s1)
   12b82:	4729                	c.li	a4,10
   12b84:	8be9                	c.andi	a5,26
   12b86:	e0e79ee3          	bne	a5,a4,129a2 <_vfprintf_r+0x72>
   12b8a:	00e49783          	lh	a5,14(s1)
   12b8e:	e007cae3          	blt	a5,zero,129a2 <_vfprintf_r+0x72>
   12b92:	46c2                	c.lwsp	a3,16(sp)
   12b94:	866a                	c.mv	a2,s10
   12b96:	85a6                	c.mv	a1,s1
   12b98:	854a                	c.mv	a0,s2
   12b9a:	6a5010ef          	jal	ra,14a3e <__sbprintf>
   12b9e:	c42a                	c.swsp	a0,8(sp)
   12ba0:	35b0006f          	jal	zero,136fa <_vfprintf_r+0xdca>
   12ba4:	000d4883          	lbu	a7,0(s10)
   12ba8:	bd45                	c.j	12a58 <_vfprintf_r+0x128>
   12baa:	000d4883          	lbu	a7,0(s10)
   12bae:	020beb93          	ori	s7,s7,32
   12bb2:	b55d                	c.j	12a58 <_vfprintf_r+0x128>
   12bb4:	4582                	c.lwsp	a1,0(sp)
   12bb6:	1950                	c.addi4spn	a2,sp,180
   12bb8:	854a                	c.mv	a0,s2
   12bba:	717010ef          	jal	ra,14ad0 <__sprint_r>
   12bbe:	c119                	c.beqz	a0,12bc4 <_vfprintf_r+0x294>
   12bc0:	44d0106f          	jal	zero,1480c <_vfprintf_r+0x1edc>
   12bc4:	8b4e                	c.mv	s6,s3
   12bc6:	b5b5                	c.j	12a32 <_vfprintf_r+0x102>
   12bc8:	01271693          	slli	a3,a4,0x12
   12bcc:	dc06d0e3          	bge	a3,zero,1298c <_vfprintf_r+0x5c>
   12bd0:	57fd                	c.li	a5,-1
   12bd2:	c43e                	c.swsp	a5,8(sp)
   12bd4:	3270006f          	jal	zero,136fa <_vfprintf_r+0xdca>
   12bd8:	008bf793          	andi	a5,s7,8
   12bdc:	6a079de3          	bne	a5,zero,13a96 <_vfprintf_r+0x1166>
   12be0:	47c2                	c.lwsp	a5,16(sp)
   12be2:	0108                	c.addi4spn	a0,sp,128
   12be4:	c646                	c.swsp	a7,12(sp)
   12be6:	079d                	c.addi	a5,7
   12be8:	9be1                	c.andi	a5,-8
   12bea:	2388                	c.fld	fa0,0(a5)
   12bec:	07a1                	c.addi	a5,8
   12bee:	c83e                	c.swsp	a5,16(sp)
   12bf0:	297080ef          	jal	ra,1b686 <__extenddftf2>
   12bf4:	460a                	c.lwsp	a2,128(sp)
   12bf6:	469a                	c.lwsp	a3,132(sp)
   12bf8:	472a                	c.lwsp	a4,136(sp)
   12bfa:	47ba                	c.lwsp	a5,140(sp)
   12bfc:	48b2                	c.lwsp	a7,12(sp)
   12bfe:	0188                	c.addi4spn	a0,sp,192
   12c00:	c646                	c.swsp	a7,12(sp)
   12c02:	c7be                	c.swsp	a5,204(sp)
   12c04:	c1b2                	c.swsp	a2,192(sp)
   12c06:	c3b6                	c.swsp	a3,196(sp)
   12c08:	c5ba                	c.swsp	a4,200(sp)
   12c0a:	36d020ef          	jal	ra,15776 <_ldcheck>
   12c0e:	cd2a                	c.swsp	a0,152(sp)
   12c10:	4789                	c.li	a5,2
   12c12:	48b2                	c.lwsp	a7,12(sp)
   12c14:	00f51463          	bne	a0,a5,12c1c <_vfprintf_r+0x2ec>
   12c18:	1e60106f          	jal	zero,13dfe <_vfprintf_r+0x14ce>
   12c1c:	4785                	c.li	a5,1
   12c1e:	00f51463          	bne	a0,a5,12c26 <_vfprintf_r+0x2f6>
   12c22:	30e0106f          	jal	zero,13f30 <_vfprintf_r+0x1600>
   12c26:	fdf8fc13          	andi	s8,a7,-33
   12c2a:	04100793          	addi	a5,zero,65
   12c2e:	00fc0463          	beq	s8,a5,12c36 <_vfprintf_r+0x306>
   12c32:	2d80106f          	jal	zero,13f0a <_vfprintf_r+0x15da>
   12c36:	03000793          	addi	a5,zero,48
   12c3a:	08f10a23          	sb	a5,148(sp)
   12c3e:	06100713          	addi	a4,zero,97
   12c42:	05800793          	addi	a5,zero,88
   12c46:	00e89463          	bne	a7,a4,12c4e <_vfprintf_r+0x31e>
   12c4a:	67c0106f          	jal	zero,142c6 <_vfprintf_r+0x1996>
   12c4e:	08f10aa3          	sb	a5,149(sp)
   12c52:	06300793          	addi	a5,zero,99
   12c56:	0157d463          	bge	a5,s5,12c5e <_vfprintf_r+0x32e>
   12c5a:	7380106f          	jal	zero,14392 <_vfprintf_r+0x1a62>
   12c5e:	473e                	c.lwsp	a4,204(sp)
   12c60:	468e                	c.lwsp	a3,192(sp)
   12c62:	461e                	c.lwsp	a2,196(sp)
   12c64:	45ae                	c.lwsp	a1,200(sp)
   12c66:	00075463          	bge	a4,zero,12c6e <_vfprintf_r+0x33e>
   12c6a:	3870106f          	jal	zero,147f0 <_vfprintf_r+0x1ec0>
   12c6e:	d802                	c.swsp	zero,48(sp)
   12c70:	c602                	c.swsp	zero,12(sp)
   12c72:	0a7c                	c.addi4spn	a5,sp,284
   12c74:	08010d93          	addi	s11,sp,128
   12c78:	c0be                	c.swsp	a5,64(sp)
   12c7a:	dab2                	c.swsp	a2,116(sp)
   12c7c:	002be793          	ori	a5,s7,2
   12c80:	dcae                	c.swsp	a1,120(sp)
   12c82:	856e                	c.mv	a0,s11
   12c84:	188c                	c.addi4spn	a1,sp,112
   12c86:	0930                	c.addi4spn	a2,sp,152
   12c88:	dc46                	c.swsp	a7,56(sp)
   12c8a:	ce3e                	c.swsp	a5,28(sp)
   12c8c:	d8b6                	c.swsp	a3,112(sp)
   12c8e:	deba                	c.swsp	a4,124(sp)
   12c90:	011020ef          	jal	ra,154a0 <frexpl>
   12c94:	472a                	c.lwsp	a4,136(sp)
   12c96:	460a                	c.lwsp	a2,128(sp)
   12c98:	469a                	c.lwsp	a3,132(sp)
   12c9a:	dcba                	c.swsp	a4,120(sp)
   12c9c:	473a                	c.lwsp	a4,140(sp)
   12c9e:	d8b2                	c.swsp	a2,112(sp)
   12ca0:	dab6                	c.swsp	a3,116(sp)
   12ca2:	1090                	c.addi4spn	a2,sp,96
   12ca4:	3ffc06b7          	lui	a3,0x3ffc0
   12ca8:	188c                	c.addi4spn	a1,sp,112
   12caa:	856e                	c.mv	a0,s11
   12cac:	d6b6                	c.swsp	a3,108(sp)
   12cae:	deba                	c.swsp	a4,124(sp)
   12cb0:	d082                	c.swsp	zero,96(sp)
   12cb2:	d282                	c.swsp	zero,100(sp)
   12cb4:	d482                	c.swsp	zero,104(sp)
   12cb6:	31b060ef          	jal	ra,197d0 <__multf3>
   12cba:	4e0a                	c.lwsp	t3,128(sp)
   12cbc:	481a                	c.lwsp	a6,132(sp)
   12cbe:	462a                	c.lwsp	a2,136(sp)
   12cc0:	188c                	c.addi4spn	a1,sp,112
   12cc2:	856e                	c.mv	a0,s11
   12cc4:	da72                	c.swsp	t3,52(sp)
   12cc6:	d042                	c.swsp	a6,32(sp)
   12cc8:	cc32                	c.swsp	a2,24(sp)
   12cca:	d882                	c.swsp	zero,112(sp)
   12ccc:	da82                	c.swsp	zero,116(sp)
   12cce:	dc82                	c.swsp	zero,120(sp)
   12cd0:	de82                	c.swsp	zero,124(sp)
   12cd2:	7fc060ef          	jal	ra,194ce <__eqtf2>
   12cd6:	4bba                	c.lwsp	s7,140(sp)
   12cd8:	4662                	c.lwsp	a2,24(sp)
   12cda:	5802                	c.lwsp	a6,32(sp)
   12cdc:	5e52                	c.lwsp	t3,52(sp)
   12cde:	58e2                	c.lwsp	a7,56(sp)
   12ce0:	4786                	c.lwsp	a5,64(sp)
   12ce2:	e119                	c.bnez	a0,12ce8 <_vfprintf_r+0x3b8>
   12ce4:	4685                	c.li	a3,1
   12ce6:	cd36                	c.swsp	a3,152(sp)
   12ce8:	06100693          	addi	a3,zero,97
   12cec:	00d89463          	bne	a7,a3,12cf4 <_vfprintf_r+0x3c4>
   12cf0:	4590106f          	jal	zero,14948 <_vfprintf_r+0x2018>
   12cf4:	66f1                	c.lui	a3,0x1c
   12cf6:	bd068713          	addi	a4,a3,-1072 # 1bbd0 <bits+0x298>
   12cfa:	cc3a                	c.swsp	a4,24(sp)
   12cfc:	d05a                	c.swsp	s6,32(sp)
   12cfe:	8cde                	c.mv	s9,s7
   12d00:	c4ca                	c.swsp	s2,72(sp)
   12d02:	44e2                	c.lwsp	s1,24(sp)
   12d04:	8c3e                	c.mv	s8,a5
   12d06:	da46                	c.swsp	a7,52(sp)
   12d08:	dc3e                	c.swsp	a5,56(sp)
   12d0a:	c0ea                	c.swsp	s10,64(sp)
   12d0c:	8b42                	c.mv	s6,a6
   12d0e:	8bb2                	c.mv	s7,a2
   12d10:	8972                	c.mv	s2,t3
   12d12:	a00d                	c.j	12d34 <_vfprintf_r+0x404>
   12d14:	188c                	c.addi4spn	a1,sp,112
   12d16:	856e                	c.mv	a0,s11
   12d18:	c14a                	c.swsp	s2,128(sp)
   12d1a:	c35a                	c.swsp	s6,132(sp)
   12d1c:	c55e                	c.swsp	s7,136(sp)
   12d1e:	c766                	c.swsp	s9,140(sp)
   12d20:	d882                	c.swsp	zero,112(sp)
   12d22:	da82                	c.swsp	zero,116(sp)
   12d24:	dc82                	c.swsp	zero,120(sp)
   12d26:	de82                	c.swsp	zero,124(sp)
   12d28:	7a6060ef          	jal	ra,194ce <__eqtf2>
   12d2c:	e119                	c.bnez	a0,12d32 <_vfprintf_r+0x402>
   12d2e:	3610106f          	jal	zero,1488e <_vfprintf_r+0x1f5e>
   12d32:	1afd                	c.addi	s5,-1
   12d34:	400307b7          	lui	a5,0x40030
   12d38:	1090                	c.addi4spn	a2,sp,96
   12d3a:	188c                	c.addi4spn	a1,sp,112
   12d3c:	856e                	c.mv	a0,s11
   12d3e:	d6be                	c.swsp	a5,108(sp)
   12d40:	d8ca                	c.swsp	s2,112(sp)
   12d42:	dada                	c.swsp	s6,116(sp)
   12d44:	dcde                	c.swsp	s7,120(sp)
   12d46:	dee6                	c.swsp	s9,124(sp)
   12d48:	d082                	c.swsp	zero,96(sp)
   12d4a:	d282                	c.swsp	zero,100(sp)
   12d4c:	d482                	c.swsp	zero,104(sp)
   12d4e:	283060ef          	jal	ra,197d0 <__multf3>
   12d52:	856e                	c.mv	a0,s11
   12d54:	75e080ef          	jal	ra,1b4b2 <__fixtfsi>
   12d58:	85aa                	c.mv	a1,a0
   12d5a:	8d2a                	c.mv	s10,a0
   12d5c:	856e                	c.mv	a0,s11
   12d5e:	4c8a                	c.lwsp	s9,128(sp)
   12d60:	4b9a                	c.lwsp	s7,132(sp)
   12d62:	4b2a                	c.lwsp	s6,136(sp)
   12d64:	493a                	c.lwsp	s2,140(sp)
   12d66:	059080ef          	jal	ra,1b5be <__floatsitf>
   12d6a:	47aa                	c.lwsp	a5,136(sp)
   12d6c:	460a                	c.lwsp	a2,128(sp)
   12d6e:	469a                	c.lwsp	a3,132(sp)
   12d70:	ccbe                	c.swsp	a5,88(sp)
   12d72:	47ba                	c.lwsp	a5,140(sp)
   12d74:	c8b2                	c.swsp	a2,80(sp)
   12d76:	108c                	c.addi4spn	a1,sp,96
   12d78:	0890                	c.addi4spn	a2,sp,80
   12d7a:	1888                	c.addi4spn	a0,sp,112
   12d7c:	d0e6                	c.swsp	s9,96(sp)
   12d7e:	d2de                	c.swsp	s7,100(sp)
   12d80:	d4da                	c.swsp	s6,104(sp)
   12d82:	d6ca                	c.swsp	s2,108(sp)
   12d84:	cab6                	c.swsp	a3,84(sp)
   12d86:	cebe                	c.swsp	a5,92(sp)
   12d88:	624070ef          	jal	ra,1a3ac <__subtf3>
   12d8c:	01a487b3          	add	a5,s1,s10
   12d90:	0007c683          	lbu	a3,0(a5) # 40030000 <__BSS_END__+0x400121f8>
   12d94:	85e2                	c.mv	a1,s8
   12d96:	0c05                	c.addi	s8,1
   12d98:	5946                	c.lwsp	s2,112(sp)
   12d9a:	5b56                	c.lwsp	s6,116(sp)
   12d9c:	5be6                	c.lwsp	s7,120(sp)
   12d9e:	5cf6                	c.lwsp	s9,124(sp)
   12da0:	fedc0fa3          	sb	a3,-1(s8)
   12da4:	f60a98e3          	bne	s5,zero,12d14 <_vfprintf_r+0x3e4>
   12da8:	58d2                	c.lwsp	a7,52(sp)
   12daa:	57e2                	c.lwsp	a5,56(sp)
   12dac:	8e4a                	c.mv	t3,s2
   12dae:	885a                	c.mv	a6,s6
   12db0:	865e                	c.mv	a2,s7
   12db2:	84ae                	c.mv	s1,a1
   12db4:	8be6                	c.mv	s7,s9
   12db6:	3ffe0ab7          	lui	s5,0x3ffe0
   12dba:	188c                	c.addi4spn	a1,sp,112
   12dbc:	856e                	c.mv	a0,s11
   12dbe:	c6c6                	c.swsp	a7,76(sp)
   12dc0:	da3e                	c.swsp	a5,52(sp)
   12dc2:	4926                	c.lwsp	s2,72(sp)
   12dc4:	8cea                	c.mv	s9,s10
   12dc6:	c172                	c.swsp	t3,128(sp)
   12dc8:	4d06                	c.lwsp	s10,64(sp)
   12dca:	c4f2                	c.swsp	t3,72(sp)
   12dcc:	c342                	c.swsp	a6,132(sp)
   12dce:	c0c2                	c.swsp	a6,64(sp)
   12dd0:	c532                	c.swsp	a2,136(sp)
   12dd2:	dc32                	c.swsp	a2,56(sp)
   12dd4:	c75e                	c.swsp	s7,140(sp)
   12dd6:	d882                	c.swsp	zero,112(sp)
   12dd8:	da82                	c.swsp	zero,116(sp)
   12dda:	dc82                	c.swsp	zero,120(sp)
   12ddc:	ded6                	c.swsp	s5,124(sp)
   12dde:	003060ef          	jal	ra,195e0 <__getf2>
   12de2:	5b02                	c.lwsp	s6,32(sp)
   12de4:	57d2                	c.lwsp	a5,52(sp)
   12de6:	48b6                	c.lwsp	a7,76(sp)
   12de8:	00a04e63          	blt	zero,a0,12e04 <_vfprintf_r+0x4d4>
   12dec:	188c                	c.addi4spn	a1,sp,112
   12dee:	856e                	c.mv	a0,s11
   12df0:	d046                	c.swsp	a7,32(sp)
   12df2:	6dc060ef          	jal	ra,194ce <__eqtf2>
   12df6:	5882                	c.lwsp	a7,32(sp)
   12df8:	57d2                	c.lwsp	a5,52(sp)
   12dfa:	e531                	c.bnez	a0,12e46 <_vfprintf_r+0x516>
   12dfc:	001cfc93          	andi	s9,s9,1
   12e00:	040c8363          	beq	s9,zero,12e46 <_vfprintf_r+0x516>
   12e04:	4762                	c.lwsp	a4,24(sp)
   12e06:	d126                	c.swsp	s1,160(sp)
   12e08:	fffc4603          	lbu	a2,-1(s8)
   12e0c:	00f74583          	lbu	a1,15(a4)
   12e10:	8762                	c.mv	a4,s8
   12e12:	00c59e63          	bne	a1,a2,12e2e <_vfprintf_r+0x4fe>
   12e16:	03000513          	addi	a0,zero,48
   12e1a:	fea70fa3          	sb	a0,-1(a4)
   12e1e:	570a                	c.lwsp	a4,160(sp)
   12e20:	fff70693          	addi	a3,a4,-1
   12e24:	d136                	c.swsp	a3,160(sp)
   12e26:	fff74603          	lbu	a2,-1(a4)
   12e2a:	fec588e3          	beq	a1,a2,12e1a <_vfprintf_r+0x4ea>
   12e2e:	00160593          	addi	a1,a2,1
   12e32:	03900513          	addi	a0,zero,57
   12e36:	0ff5f593          	andi	a1,a1,255
   12e3a:	00a61463          	bne	a2,a0,12e42 <_vfprintf_r+0x512>
   12e3e:	7080106f          	jal	zero,14546 <_vfprintf_r+0x1c16>
   12e42:	feb70fa3          	sb	a1,-1(a4)
   12e46:	466a                	c.lwsp	a2,152(sp)
   12e48:	00f88713          	addi	a4,a7,15
   12e4c:	0ae10223          	sb	a4,164(sp)
   12e50:	40fc06b3          	sub	a3,s8,a5
   12e54:	fff60713          	addi	a4,a2,-1
   12e58:	cd3a                	c.swsp	a4,152(sp)
   12e5a:	cc36                	c.swsp	a3,24(sp)
   12e5c:	00075463          	bge	a4,zero,12e64 <_vfprintf_r+0x534>
   12e60:	2d30106f          	jal	zero,14932 <_vfprintf_r+0x2002>
   12e64:	02b00693          	addi	a3,zero,43
   12e68:	0ad102a3          	sb	a3,165(sp)
   12e6c:	46a5                	c.li	a3,9
   12e6e:	00e6d463          	bge	a3,a4,12e76 <_vfprintf_r+0x546>
   12e72:	62c0106f          	jal	zero,1449e <_vfprintf_r+0x1b6e>
   12e76:	0a610693          	addi	a3,sp,166
   12e7a:	03070713          	addi	a4,a4,48
   12e7e:	00e68023          	sb	a4,0(a3)
   12e82:	0318                	c.addi4spn	a4,sp,384
   12e84:	8e99                	c.sub	a3,a4
   12e86:	0dd68713          	addi	a4,a3,221
   12e8a:	dc3a                	c.swsp	a4,56(sp)
   12e8c:	67a0106f          	jal	zero,14506 <_vfprintf_r+0x1bd6>
   12e90:	4582                	c.lwsp	a1,0(sp)
   12e92:	1950                	c.addi4spn	a2,sp,180
   12e94:	854a                	c.mv	a0,s2
   12e96:	c49a                	c.swsp	t1,72(sp)
   12e98:	c0be                	c.swsp	a5,64(sp)
   12e9a:	da46                	c.swsp	a7,52(sp)
   12e9c:	d83a                	c.swsp	a4,48(sp)
   12e9e:	433010ef          	jal	ra,14ad0 <__sprint_r>
   12ea2:	00051ee3          	bne	a0,zero,136be <_vfprintf_r+0xd8e>
   12ea6:	567a                	c.lwsp	a2,188(sp)
   12ea8:	4326                	c.lwsp	t1,72(sp)
   12eaa:	4786                	c.lwsp	a5,64(sp)
   12eac:	58d2                	c.lwsp	a7,52(sp)
   12eae:	5742                	c.lwsp	a4,48(sp)
   12eb0:	8b4e                	c.mv	s6,s3
   12eb2:	b92d                	c.j	12aec <_vfprintf_r+0x1bc>
   12eb4:	5aea                	c.lwsp	s5,184(sp)
   12eb6:	46e2                	c.lwsp	a3,24(sp)
   12eb8:	4705                	c.li	a4,1
   12eba:	963a                	c.add	a2,a4
   12ebc:	9aba                	c.add	s5,a4
   12ebe:	008b0d93          	addi	s11,s6,8
   12ec2:	2cd751e3          	bge	a4,a3,13984 <_vfprintf_r+0x1054>
   12ec6:	4705                	c.li	a4,1
   12ec8:	00eb2223          	sw	a4,4(s6)
   12ecc:	00fb2023          	sw	a5,0(s6)
   12ed0:	df32                	c.swsp	a2,188(sp)
   12ed2:	dd56                	c.swsp	s5,184(sp)
   12ed4:	471d                	c.li	a4,7
   12ed6:	5b5747e3          	blt	a4,s5,13c84 <_vfprintf_r+0x1354>
   12eda:	5712                	c.lwsp	a4,36(sp)
   12edc:	56a2                	c.lwsp	a3,40(sp)
   12ede:	0a85                	c.addi	s5,1 # 3ffe0001 <__BSS_END__+0x3ffc21f9>
   12ee0:	963a                	c.add	a2,a4
   12ee2:	00eda223          	sw	a4,4(s11)
   12ee6:	00dda023          	sw	a3,0(s11)
   12eea:	df32                	c.swsp	a2,188(sp)
   12eec:	dd56                	c.swsp	s5,184(sp)
   12eee:	471d                	c.li	a4,7
   12ef0:	0da1                	c.addi	s11,8
   12ef2:	5b5747e3          	blt	a4,s5,13ca0 <_vfprintf_r+0x1370>
   12ef6:	472e                	c.lwsp	a4,200(sp)
   12ef8:	450e                	c.lwsp	a0,192(sp)
   12efa:	459e                	c.lwsp	a1,196(sp)
   12efc:	d03e                	c.swsp	a5,32(sp)
   12efe:	c53a                	c.swsp	a4,136(sp)
   12f00:	47e2                	c.lwsp	a5,24(sp)
   12f02:	473e                	c.lwsp	a4,204(sp)
   12f04:	c12a                	c.swsp	a0,128(sp)
   12f06:	c32e                	c.swsp	a1,132(sp)
   12f08:	0108                	c.addi4spn	a0,sp,128
   12f0a:	188c                	c.addi4spn	a1,sp,112
   12f0c:	ce32                	c.swsp	a2,28(sp)
   12f0e:	d882                	c.swsp	zero,112(sp)
   12f10:	da82                	c.swsp	zero,116(sp)
   12f12:	dc82                	c.swsp	zero,120(sp)
   12f14:	de82                	c.swsp	zero,124(sp)
   12f16:	c73a                	c.swsp	a4,140(sp)
   12f18:	fff78b13          	addi	s6,a5,-1
   12f1c:	5b2060ef          	jal	ra,194ce <__eqtf2>
   12f20:	4672                	c.lwsp	a2,28(sp)
   12f22:	28050ae3          	beq	a0,zero,139b6 <_vfprintf_r+0x1086>
   12f26:	5782                	c.lwsp	a5,32(sp)
   12f28:	0a85                	c.addi	s5,1
   12f2a:	965a                	c.add	a2,s6
   12f2c:	0785                	c.addi	a5,1
   12f2e:	dd56                	c.swsp	s5,184(sp)
   12f30:	df32                	c.swsp	a2,188(sp)
   12f32:	00fda023          	sw	a5,0(s11)
   12f36:	016da223          	sw	s6,4(s11)
   12f3a:	479d                	c.li	a5,7
   12f3c:	2757c1e3          	blt	a5,s5,1399e <_vfprintf_r+0x106e>
   12f40:	0da1                	c.addi	s11,8
   12f42:	56e2                	c.lwsp	a3,56(sp)
   12f44:	1158                	c.addi4spn	a4,sp,164
   12f46:	001a8793          	addi	a5,s5,1
   12f4a:	9636                	c.add	a2,a3
   12f4c:	00eda023          	sw	a4,0(s11)
   12f50:	df32                	c.swsp	a2,188(sp)
   12f52:	dd3e                	c.swsp	a5,184(sp)
   12f54:	00dda223          	sw	a3,4(s11)
   12f58:	471d                	c.li	a4,7
   12f5a:	008d8b13          	addi	s6,s11,8
   12f5e:	bef750e3          	bge	a4,a5,12b3e <_vfprintf_r+0x20e>
   12f62:	4582                	c.lwsp	a1,0(sp)
   12f64:	1950                	c.addi4spn	a2,sp,180
   12f66:	854a                	c.mv	a0,s2
   12f68:	369010ef          	jal	ra,14ad0 <__sprint_r>
   12f6c:	74051963          	bne	a0,zero,136be <_vfprintf_r+0xd8e>
   12f70:	567a                	c.lwsp	a2,188(sp)
   12f72:	8b4e                	c.mv	s6,s3
   12f74:	b6e9                	c.j	12b3e <_vfprintf_r+0x20e>
   12f76:	4742                	c.lwsp	a4,16(sp)
   12f78:	080109a3          	sb	zero,147(sp)
   12f7c:	431c                	c.lw	a5,0(a4)
   12f7e:	00470493          	addi	s1,a4,4
   12f82:	420780e3          	beq	a5,zero,13ba2 <_vfprintf_r+0x1272>
   12f86:	4a0acde3          	blt	s5,zero,13c40 <_vfprintf_r+0x1310>
   12f8a:	853e                	c.mv	a0,a5
   12f8c:	8656                	c.mv	a2,s5
   12f8e:	4581                	c.li	a1,0
   12f90:	ce46                	c.swsp	a7,28(sp)
   12f92:	c83e                	c.swsp	a5,16(sp)
   12f94:	1dc020ef          	jal	ra,15170 <memchr>
   12f98:	c62a                	c.swsp	a0,12(sp)
   12f9a:	09314703          	lbu	a4,147(sp)
   12f9e:	47c2                	c.lwsp	a5,16(sp)
   12fa0:	48f2                	c.lwsp	a7,28(sp)
   12fa2:	e119                	c.bnez	a0,12fa8 <_vfprintf_r+0x678>
   12fa4:	6fc0106f          	jal	zero,146a0 <_vfprintf_r+0x1d70>
   12fa8:	40f50cb3          	sub	s9,a0,a5
   12fac:	fffcc693          	xori	a3,s9,-1
   12fb0:	86fd                	c.srai	a3,0x1f
   12fb2:	00dcfc33          	and	s8,s9,a3
   12fb6:	4a0716e3          	bne	a4,zero,13c62 <_vfprintf_r+0x1332>
   12fba:	c826                	c.swsp	s1,16(sp)
   12fbc:	567a                	c.lwsp	a2,188(sp)
   12fbe:	c602                	c.swsp	zero,12(sp)
   12fc0:	d002                	c.swsp	zero,32(sp)
   12fc2:	ce02                	c.swsp	zero,28(sp)
   12fc4:	084bfd93          	andi	s11,s7,132
   12fc8:	4a81                	c.li	s5,0
   12fca:	4301                	c.li	t1,0
   12fcc:	8832                	c.mv	a6,a2
   12fce:	ae0d9be3          	bne	s11,zero,12ac4 <_vfprintf_r+0x194>
   12fd2:	4712                	c.lwsp	a4,4(sp)
   12fd4:	41870733          	sub	a4,a4,s8
   12fd8:	18e04be3          	blt	zero,a4,1396e <_vfprintf_r+0x103e>
   12fdc:	09314703          	lbu	a4,147(sp)
   12fe0:	ae0715e3          	bne	a4,zero,12aca <_vfprintf_r+0x19a>
   12fe4:	419a8ab3          	sub	s5,s5,s9
   12fe8:	b3505ae3          	bge	zero,s5,12b1c <_vfprintf_r+0x1ec>
   12fec:	6871                	c.lui	a6,0x1c
   12fee:	55ea                	c.lwsp	a1,184(sp)
   12ff0:	f9880813          	addi	a6,a6,-104 # 1bf98 <zeroes.0>
   12ff4:	05545a63          	bge	s0,s5,13048 <_vfprintf_r+0x718>
   12ff8:	84d6                	c.mv	s1,s5
   12ffa:	da3e                	c.swsp	a5,52(sp)
   12ffc:	4d9d                	c.li	s11,7
   12ffe:	87da                	c.mv	a5,s6
   13000:	d846                	c.swsp	a7,48(sp)
   13002:	8a9a                	c.mv	s5,t1
   13004:	8b52                	c.mv	s6,s4
   13006:	a021                	c.j	1300e <_vfprintf_r+0x6de>
   13008:	14c1                	c.addi	s1,-16
   1300a:	02945963          	bge	s0,s1,1303c <_vfprintf_r+0x70c>
   1300e:	0641                	c.addi	a2,16
   13010:	0585                	c.addi	a1,1
   13012:	0147a023          	sw	s4,0(a5)
   13016:	c3c0                	c.sw	s0,4(a5)
   13018:	df32                	c.swsp	a2,188(sp)
   1301a:	dd2e                	c.swsp	a1,184(sp)
   1301c:	07a1                	c.addi	a5,8
   1301e:	febdd5e3          	bge	s11,a1,13008 <_vfprintf_r+0x6d8>
   13022:	4582                	c.lwsp	a1,0(sp)
   13024:	1950                	c.addi4spn	a2,sp,180
   13026:	854a                	c.mv	a0,s2
   13028:	2a9010ef          	jal	ra,14ad0 <__sprint_r>
   1302c:	68051963          	bne	a0,zero,136be <_vfprintf_r+0xd8e>
   13030:	14c1                	c.addi	s1,-16
   13032:	567a                	c.lwsp	a2,188(sp)
   13034:	55ea                	c.lwsp	a1,184(sp)
   13036:	87ce                	c.mv	a5,s3
   13038:	fc944be3          	blt	s0,s1,1300e <_vfprintf_r+0x6de>
   1303c:	885a                	c.mv	a6,s6
   1303e:	58c2                	c.lwsp	a7,48(sp)
   13040:	8b3e                	c.mv	s6,a5
   13042:	57d2                	c.lwsp	a5,52(sp)
   13044:	8356                	c.mv	t1,s5
   13046:	8aa6                	c.mv	s5,s1
   13048:	9656                	c.add	a2,s5
   1304a:	0585                	c.addi	a1,1
   1304c:	010b2023          	sw	a6,0(s6)
   13050:	015b2223          	sw	s5,4(s6)
   13054:	df32                	c.swsp	a2,188(sp)
   13056:	dd2e                	c.swsp	a1,184(sp)
   13058:	471d                	c.li	a4,7
   1305a:	0b21                	c.addi	s6,8
   1305c:	acb750e3          	bge	a4,a1,12b1c <_vfprintf_r+0x1ec>
   13060:	4582                	c.lwsp	a1,0(sp)
   13062:	1950                	c.addi4spn	a2,sp,180
   13064:	854a                	c.mv	a0,s2
   13066:	c09a                	c.swsp	t1,64(sp)
   13068:	da3e                	c.swsp	a5,52(sp)
   1306a:	d846                	c.swsp	a7,48(sp)
   1306c:	265010ef          	jal	ra,14ad0 <__sprint_r>
   13070:	64051763          	bne	a0,zero,136be <_vfprintf_r+0xd8e>
   13074:	100bf713          	andi	a4,s7,256
   13078:	567a                	c.lwsp	a2,188(sp)
   1307a:	4306                	c.lwsp	t1,64(sp)
   1307c:	57d2                	c.lwsp	a5,52(sp)
   1307e:	58c2                	c.lwsp	a7,48(sp)
   13080:	8b4e                	c.mv	s6,s3
   13082:	aa0701e3          	beq	a4,zero,12b24 <_vfprintf_r+0x1f4>
   13086:	06500713          	addi	a4,zero,101
   1308a:	e31755e3          	bge	a4,a7,12eb4 <_vfprintf_r+0x584>
   1308e:	471e                	c.lwsp	a4,196(sp)
   13090:	458e                	c.lwsp	a1,192(sp)
   13092:	452e                	c.lwsp	a0,200(sp)
   13094:	c33a                	c.swsp	a4,132(sp)
   13096:	473e                	c.lwsp	a4,204(sp)
   13098:	c12e                	c.swsp	a1,128(sp)
   1309a:	c52a                	c.swsp	a0,136(sp)
   1309c:	188c                	c.addi4spn	a1,sp,112
   1309e:	0108                	c.addi4spn	a0,sp,128
   130a0:	da32                	c.swsp	a2,52(sp)
   130a2:	d83e                	c.swsp	a5,48(sp)
   130a4:	c09a                	c.swsp	t1,64(sp)
   130a6:	d882                	c.swsp	zero,112(sp)
   130a8:	da82                	c.swsp	zero,116(sp)
   130aa:	dc82                	c.swsp	zero,120(sp)
   130ac:	de82                	c.swsp	zero,124(sp)
   130ae:	c73a                	c.swsp	a4,140(sp)
   130b0:	41e060ef          	jal	ra,194ce <__eqtf2>
   130b4:	57c2                	c.lwsp	a5,48(sp)
   130b6:	5652                	c.lwsp	a2,52(sp)
   130b8:	4306                	c.lwsp	t1,64(sp)
   130ba:	74051963          	bne	a0,zero,1380c <_vfprintf_r+0xedc>
   130be:	57ea                	c.lwsp	a5,184(sp)
   130c0:	6771                	c.lui	a4,0x1c
   130c2:	bec70713          	addi	a4,a4,-1044 # 1bbec <bits+0x2b4>
   130c6:	00eb2023          	sw	a4,0(s6)
   130ca:	0605                	c.addi	a2,1
   130cc:	4705                	c.li	a4,1
   130ce:	0785                	c.addi	a5,1
   130d0:	00eb2223          	sw	a4,4(s6)
   130d4:	df32                	c.swsp	a2,188(sp)
   130d6:	dd3e                	c.swsp	a5,184(sp)
   130d8:	471d                	c.li	a4,7
   130da:	0b21                	c.addi	s6,8
   130dc:	4cf740e3          	blt	a4,a5,13d9c <_vfprintf_r+0x146c>
   130e0:	47ea                	c.lwsp	a5,152(sp)
   130e2:	4762                	c.lwsp	a4,24(sp)
   130e4:	12e7d2e3          	bge	a5,a4,13a08 <_vfprintf_r+0x10d8>
   130e8:	5712                	c.lwsp	a4,36(sp)
   130ea:	57ea                	c.lwsp	a5,184(sp)
   130ec:	56a2                	c.lwsp	a3,40(sp)
   130ee:	963a                	c.add	a2,a4
   130f0:	0785                	c.addi	a5,1
   130f2:	00eb2223          	sw	a4,4(s6)
   130f6:	00db2023          	sw	a3,0(s6)
   130fa:	df32                	c.swsp	a2,188(sp)
   130fc:	dd3e                	c.swsp	a5,184(sp)
   130fe:	471d                	c.li	a4,7
   13100:	0b21                	c.addi	s6,8
   13102:	22f74de3          	blt	a4,a5,13b3c <_vfprintf_r+0x120c>
   13106:	47e2                	c.lwsp	a5,24(sp)
   13108:	fff78a93          	addi	s5,a5,-1
   1310c:	a35059e3          	bge	zero,s5,12b3e <_vfprintf_r+0x20e>
   13110:	6871                	c.lui	a6,0x1c
   13112:	4cc1                	c.li	s9,16
   13114:	57ea                	c.lwsp	a5,184(sp)
   13116:	4d9d                	c.li	s11,7
   13118:	f9880493          	addi	s1,a6,-104 # 1bf98 <zeroes.0>
   1311c:	015cc663          	blt	s9,s5,13128 <_vfprintf_r+0x7f8>
   13120:	af5d                	c.j	138d6 <_vfprintf_r+0xfa6>
   13122:	1ac1                	c.addi	s5,-16
   13124:	4b5cdde3          	bge	s9,s5,13dde <_vfprintf_r+0x14ae>
   13128:	0641                	c.addi	a2,16
   1312a:	0785                	c.addi	a5,1
   1312c:	009b2023          	sw	s1,0(s6)
   13130:	019b2223          	sw	s9,4(s6)
   13134:	df32                	c.swsp	a2,188(sp)
   13136:	dd3e                	c.swsp	a5,184(sp)
   13138:	0b21                	c.addi	s6,8
   1313a:	fefdd4e3          	bge	s11,a5,13122 <_vfprintf_r+0x7f2>
   1313e:	4582                	c.lwsp	a1,0(sp)
   13140:	1950                	c.addi4spn	a2,sp,180
   13142:	854a                	c.mv	a0,s2
   13144:	18d010ef          	jal	ra,14ad0 <__sprint_r>
   13148:	56051b63          	bne	a0,zero,136be <_vfprintf_r+0xd8e>
   1314c:	567a                	c.lwsp	a2,188(sp)
   1314e:	57ea                	c.lwsp	a5,184(sp)
   13150:	8b4e                	c.mv	s6,s3
   13152:	bfc1                	c.j	13122 <_vfprintf_r+0x7f2>
   13154:	020bf793          	andi	a5,s7,32
   13158:	e3d5                	c.bnez	a5,131fc <_vfprintf_r+0x8cc>
   1315a:	47c2                	c.lwsp	a5,16(sp)
   1315c:	010bf713          	andi	a4,s7,16
   13160:	0791                	c.addi	a5,4
   13162:	c319                	c.beqz	a4,13168 <_vfprintf_r+0x838>
   13164:	5dc0106f          	jal	zero,14740 <_vfprintf_r+0x1e10>
   13168:	46c2                	c.lwsp	a3,16(sp)
   1316a:	040bf713          	andi	a4,s7,64
   1316e:	0006ac03          	lw	s8,0(a3)
   13172:	560706e3          	beq	a4,zero,13ede <_vfprintf_r+0x15ae>
   13176:	0c42                	c.slli	s8,0x10
   13178:	410c5c13          	srai	s8,s8,0x10
   1317c:	41fc5e93          	srai	t4,s8,0x1f
   13180:	c83e                	c.swsp	a5,16(sp)
   13182:	8776                	c.mv	a4,t4
   13184:	08074863          	blt	a4,zero,13214 <_vfprintf_r+0x8e4>
   13188:	0a0ac663          	blt	s5,zero,13234 <_vfprintf_r+0x904>
   1318c:	01dc67b3          	or	a5,s8,t4
   13190:	f7fbfb93          	andi	s7,s7,-129
   13194:	e3c5                	c.bnez	a5,13234 <_vfprintf_r+0x904>
   13196:	080a9f63          	bne	s5,zero,13234 <_vfprintf_r+0x904>
   1319a:	09314e83          	lbu	t4,147(sp)
   1319e:	540e8de3          	beq	t4,zero,13ef8 <_vfprintf_r+0x15c8>
   131a2:	4c01                	c.li	s8,0
   131a4:	4301                	c.li	t1,0
   131a6:	c602                	c.swsp	zero,12(sp)
   131a8:	4c81                	c.li	s9,0
   131aa:	4a81                	c.li	s5,0
   131ac:	031c                	c.addi4spn	a5,sp,384
   131ae:	0c05                	c.addi	s8,1
   131b0:	00031463          	bne	t1,zero,131b8 <_vfprintf_r+0x888>
   131b4:	0310106f          	jal	zero,149e4 <_vfprintf_r+0x20b4>
   131b8:	567a                	c.lwsp	a2,188(sp)
   131ba:	55ea                	c.lwsp	a1,184(sp)
   131bc:	084bfd93          	andi	s11,s7,132
   131c0:	0c09                	c.addi	s8,2
   131c2:	8832                	c.mv	a6,a2
   131c4:	852e                	c.mv	a0,a1
   131c6:	540d8563          	beq	s11,zero,13710 <_vfprintf_r+0xde0>
   131ca:	d002                	c.swsp	zero,32(sp)
   131cc:	ce02                	c.swsp	zero,28(sp)
   131ce:	4301                	c.li	t1,0
   131d0:	920e80e3          	beq	t4,zero,12af0 <_vfprintf_r+0x1c0>
   131d4:	4709                	c.li	a4,2
   131d6:	b8e5                	c.j	12ace <_vfprintf_r+0x19e>
   131d8:	4742                	c.lwsp	a4,16(sp)
   131da:	4c85                	c.li	s9,1
   131dc:	080109a3          	sb	zero,147(sp)
   131e0:	431c                	c.lw	a5,0(a4)
   131e2:	10f10e23          	sb	a5,284(sp)
   131e6:	00470793          	addi	a5,a4,4
   131ea:	c83e                	c.swsp	a5,16(sp)
   131ec:	b87d                	c.j	12aaa <_vfprintf_r+0x17a>
   131ee:	020bf793          	andi	a5,s7,32
   131f2:	010bee13          	ori	t3,s7,16
   131f6:	080784e3          	beq	a5,zero,13a7e <_vfprintf_r+0x114e>
   131fa:	8bf2                	c.mv	s7,t3
   131fc:	47c2                	c.lwsp	a5,16(sp)
   131fe:	079d                	c.addi	a5,7
   13200:	9be1                	c.andi	a5,-8
   13202:	43d8                	c.lw	a4,4(a5)
   13204:	00878693          	addi	a3,a5,8
   13208:	c836                	c.swsp	a3,16(sp)
   1320a:	0007ac03          	lw	s8,0(a5)
   1320e:	8eba                	c.mv	t4,a4
   13210:	f6075ce3          	bge	a4,zero,13188 <_vfprintf_r+0x858>
   13214:	018037b3          	sltu	a5,zero,s8
   13218:	41d00eb3          	sub	t4,zero,t4
   1321c:	40fe8eb3          	sub	t4,t4,a5
   13220:	02d00793          	addi	a5,zero,45
   13224:	08f109a3          	sb	a5,147(sp)
   13228:	41800c33          	sub	s8,zero,s8
   1322c:	000ac463          	blt	s5,zero,13234 <_vfprintf_r+0x904>
   13230:	f7fbfb93          	andi	s7,s7,-129
   13234:	200e9563          	bne	t4,zero,1343e <_vfprintf_r+0xb0e>
   13238:	47a5                	c.li	a5,9
   1323a:	2187e263          	bltu	a5,s8,1343e <_vfprintf_r+0xb0e>
   1323e:	030c0c13          	addi	s8,s8,48
   13242:	17810fa3          	sb	s8,383(sp)
   13246:	8c56                	c.mv	s8,s5
   13248:	075053e3          	bge	zero,s5,13aae <_vfprintf_r+0x117e>
   1324c:	09314e83          	lbu	t4,147(sp)
   13250:	4301                	c.li	t1,0
   13252:	4c85                	c.li	s9,1
   13254:	17f10793          	addi	a5,sp,383
   13258:	c602                	c.swsp	zero,12(sp)
   1325a:	f40e8be3          	beq	t4,zero,131b0 <_vfprintf_r+0x880>
   1325e:	0c05                	c.addi	s8,1
   13260:	bf81                	c.j	131b0 <_vfprintf_r+0x880>
   13262:	4742                	c.lwsp	a4,16(sp)
   13264:	431c                	c.lw	a5,0(a4)
   13266:	c23e                	c.swsp	a5,4(sp)
   13268:	7a07d663          	bge	a5,zero,13a14 <_vfprintf_r+0x10e4>
   1326c:	4792                	c.lwsp	a5,4(sp)
   1326e:	40f007b3          	sub	a5,zero,a5
   13272:	c23e                	c.swsp	a5,4(sp)
   13274:	47c2                	c.lwsp	a5,16(sp)
   13276:	0791                	c.addi	a5,4
   13278:	c83e                	c.swsp	a5,16(sp)
   1327a:	000d4883          	lbu	a7,0(s10)
   1327e:	004beb93          	ori	s7,s7,4
   13282:	fd6ff06f          	jal	zero,12a58 <_vfprintf_r+0x128>
   13286:	02b00793          	addi	a5,zero,43
   1328a:	000d4883          	lbu	a7,0(s10)
   1328e:	08f109a3          	sb	a5,147(sp)
   13292:	fc6ff06f          	jal	zero,12a58 <_vfprintf_r+0x128>
   13296:	000d4883          	lbu	a7,0(s10)
   1329a:	080beb93          	ori	s7,s7,128
   1329e:	fbaff06f          	jal	zero,12a58 <_vfprintf_r+0x128>
   132a2:	000d4883          	lbu	a7,0(s10)
   132a6:	02a00793          	addi	a5,zero,42
   132aa:	001d0693          	addi	a3,s10,1
   132ae:	00f89463          	bne	a7,a5,132b6 <_vfprintf_r+0x986>
   132b2:	6a20106f          	jal	zero,14954 <_vfprintf_r+0x2024>
   132b6:	fd088793          	addi	a5,a7,-48
   132ba:	4625                	c.li	a2,9
   132bc:	4a81                	c.li	s5,0
   132be:	02f66063          	bltu	a2,a5,132de <_vfprintf_r+0x9ae>
   132c2:	002a9713          	slli	a4,s5,0x2
   132c6:	0006c883          	lbu	a7,0(a3)
   132ca:	9aba                	c.add	s5,a4
   132cc:	0a86                	c.slli	s5,0x1
   132ce:	9abe                	c.add	s5,a5
   132d0:	fd088793          	addi	a5,a7,-48
   132d4:	0685                	c.addi	a3,1
   132d6:	fef676e3          	bgeu	a2,a5,132c2 <_vfprintf_r+0x992>
   132da:	020acfe3          	blt	s5,zero,13b18 <_vfprintf_r+0x11e8>
   132de:	8d36                	c.mv	s10,a3
   132e0:	f7aff06f          	jal	zero,12a5a <_vfprintf_r+0x12a>
   132e4:	854a                	c.mv	a0,s2
   132e6:	783010ef          	jal	ra,15268 <_localeconv_r>
   132ea:	415c                	c.lw	a5,4(a0)
   132ec:	853e                	c.mv	a0,a5
   132ee:	de3e                	c.swsp	a5,60(sp)
   132f0:	a20ff0ef          	jal	ra,12510 <strlen>
   132f4:	84aa                	c.mv	s1,a0
   132f6:	854a                	c.mv	a0,s2
   132f8:	c2a6                	c.swsp	s1,68(sp)
   132fa:	76f010ef          	jal	ra,15268 <_localeconv_r>
   132fe:	4518                	c.lw	a4,8(a0)
   13300:	000d4883          	lbu	a7,0(s10)
   13304:	d63a                	c.swsp	a4,44(sp)
   13306:	f4048963          	beq	s1,zero,12a58 <_vfprintf_r+0x128>
   1330a:	f4070763          	beq	a4,zero,12a58 <_vfprintf_r+0x128>
   1330e:	00074783          	lbu	a5,0(a4)
   13312:	f4078363          	beq	a5,zero,12a58 <_vfprintf_r+0x128>
   13316:	400beb93          	ori	s7,s7,1024
   1331a:	f3eff06f          	jal	zero,12a58 <_vfprintf_r+0x128>
   1331e:	000d4883          	lbu	a7,0(s10)
   13322:	001beb93          	ori	s7,s7,1
   13326:	f32ff06f          	jal	zero,12a58 <_vfprintf_r+0x128>
   1332a:	09314783          	lbu	a5,147(sp)
   1332e:	000d4883          	lbu	a7,0(s10)
   13332:	f2079363          	bne	a5,zero,12a58 <_vfprintf_r+0x128>
   13336:	02000793          	addi	a5,zero,32
   1333a:	08f109a3          	sb	a5,147(sp)
   1333e:	f1aff06f          	jal	zero,12a58 <_vfprintf_r+0x128>
   13342:	020bf793          	andi	a5,s7,32
   13346:	010be693          	ori	a3,s7,16
   1334a:	70078a63          	beq	a5,zero,13a5e <_vfprintf_r+0x112e>
   1334e:	47c2                	c.lwsp	a5,16(sp)
   13350:	079d                	c.addi	a5,7
   13352:	9be1                	c.andi	a5,-8
   13354:	00878713          	addi	a4,a5,8
   13358:	c83a                	c.swsp	a4,16(sp)
   1335a:	43d0                	c.lw	a2,4(a5)
   1335c:	4398                	c.lw	a4,0(a5)
   1335e:	080109a3          	sb	zero,147(sp)
   13362:	bff6fb93          	andi	s7,a3,-1025
   13366:	440acf63          	blt	s5,zero,137c4 <_vfprintf_r+0xe94>
   1336a:	00c767b3          	or	a5,a4,a2
   1336e:	b7f6fb93          	andi	s7,a3,-1153
   13372:	44079963          	bne	a5,zero,137c4 <_vfprintf_r+0xe94>
   13376:	440a9763          	bne	s5,zero,137c4 <_vfprintf_r+0xe94>
   1337a:	0016fc13          	andi	s8,a3,1
   1337e:	5e0c0a63          	beq	s8,zero,13972 <_vfprintf_r+0x1042>
   13382:	03000793          	addi	a5,zero,48
   13386:	16f10fa3          	sb	a5,383(sp)
   1338a:	8ce2                	c.mv	s9,s8
   1338c:	c602                	c.swsp	zero,12(sp)
   1338e:	d002                	c.swsp	zero,32(sp)
   13390:	ce02                	c.swsp	zero,28(sp)
   13392:	4301                	c.li	t1,0
   13394:	17f10793          	addi	a5,sp,383
   13398:	f20ff06f          	jal	zero,12ab8 <_vfprintf_r+0x188>
   1339c:	000d4883          	lbu	a7,0(s10)
   133a0:	06800793          	addi	a5,zero,104
   133a4:	78f88563          	beq	a7,a5,13b2e <_vfprintf_r+0x11fe>
   133a8:	040beb93          	ori	s7,s7,64
   133ac:	eacff06f          	jal	zero,12a58 <_vfprintf_r+0x128>
   133b0:	46c2                	c.lwsp	a3,16(sp)
   133b2:	020bf793          	andi	a5,s7,32
   133b6:	00468713          	addi	a4,a3,4
   133ba:	6a079963          	bne	a5,zero,13a6c <_vfprintf_r+0x113c>
   133be:	010bf793          	andi	a5,s7,16
   133c2:	280792e3          	bne	a5,zero,13e46 <_vfprintf_r+0x1516>
   133c6:	040bf793          	andi	a5,s7,64
   133ca:	5a079ee3          	bne	a5,zero,14186 <_vfprintf_r+0x1856>
   133ce:	200bfe13          	andi	t3,s7,512
   133d2:	260e0ae3          	beq	t3,zero,13e46 <_vfprintf_r+0x1516>
   133d6:	47c2                	c.lwsp	a5,16(sp)
   133d8:	46a2                	c.lwsp	a3,8(sp)
   133da:	c83a                	c.swsp	a4,16(sp)
   133dc:	439c                	c.lw	a5,0(a5)
   133de:	00d78023          	sb	a3,0(a5)
   133e2:	e0eff06f          	jal	zero,129f0 <_vfprintf_r+0xc0>
   133e6:	000d4883          	lbu	a7,0(s10)
   133ea:	06c00793          	addi	a5,zero,108
   133ee:	72f88963          	beq	a7,a5,13b20 <_vfprintf_r+0x11f0>
   133f2:	010beb93          	ori	s7,s7,16
   133f6:	e62ff06f          	jal	zero,12a58 <_vfprintf_r+0x128>
   133fa:	020bf793          	andi	a5,s7,32
   133fe:	1a079f63          	bne	a5,zero,135bc <_vfprintf_r+0xc8c>
   13402:	010bf793          	andi	a5,s7,16
   13406:	c399                	c.beqz	a5,1340c <_vfprintf_r+0xadc>
   13408:	3320106f          	jal	zero,1473a <_vfprintf_r+0x1e0a>
   1340c:	4742                	c.lwsp	a4,16(sp)
   1340e:	040bf793          	andi	a5,s7,64
   13412:	00072c03          	lw	s8,0(a4)
   13416:	0711                	c.addi	a4,4
   13418:	c83a                	c.swsp	a4,16(sp)
   1341a:	2a0781e3          	beq	a5,zero,13ebc <_vfprintf_r+0x158c>
   1341e:	0c42                	c.slli	s8,0x10
   13420:	080109a3          	sb	zero,147(sp)
   13424:	010c5c13          	srli	s8,s8,0x10
   13428:	4e81                	c.li	t4,0
   1342a:	e00ac5e3          	blt	s5,zero,13234 <_vfprintf_r+0x904>
   1342e:	018ae333          	or	t1,s5,s8
   13432:	f7fbfb93          	andi	s7,s7,-129
   13436:	10030c63          	beq	t1,zero,1354e <_vfprintf_r+0xc1e>
   1343a:	de0e8fe3          	beq	t4,zero,13238 <_vfprintf_r+0x908>
   1343e:	ccccdcb7          	lui	s9,0xccccd
   13442:	ccccddb7          	lui	s11,0xccccd
   13446:	ccdc8c93          	addi	s9,s9,-819 # cccccccd <__BSS_END__+0xcccaeec5>
   1344a:	cccd8d93          	addi	s11,s11,-820 # cccccccc <__BSS_END__+0xcccaeec4>
   1344e:	400bf813          	andi	a6,s7,1024
   13452:	4581                	c.li	a1,0
   13454:	0310                	c.addi4spn	a2,sp,384
   13456:	84c6                	c.mv	s1,a7
   13458:	a095                	c.j	134bc <_vfprintf_r+0xb8c>
   1345a:	5732                	c.lwsp	a4,44(sp)
   1345c:	00074703          	lbu	a4,0(a4)
   13460:	f0170693          	addi	a3,a4,-255
   13464:	c299                	c.beqz	a3,1346a <_vfprintf_r+0xb3a>
   13466:	14b708e3          	beq	a4,a1,13db6 <_vfprintf_r+0x1486>
   1346a:	8362                	c.mv	t1,s8
   1346c:	8576                	c.mv	a0,t4
   1346e:	863e                	c.mv	a2,a5
   13470:	01dc0733          	add	a4,s8,t4
   13474:	018736b3          	sltu	a3,a4,s8
   13478:	9736                	c.add	a4,a3
   1347a:	039736b3          	mulhu	a3,a4,s9
   1347e:	0026de13          	srli	t3,a3,0x2
   13482:	9af1                	c.andi	a3,-4
   13484:	96f2                	c.add	a3,t3
   13486:	8f15                	c.sub	a4,a3
   13488:	40ec0733          	sub	a4,s8,a4
   1348c:	00ec36b3          	sltu	a3,s8,a4
   13490:	40de86b3          	sub	a3,t4,a3
   13494:	039686b3          	mul	a3,a3,s9
   13498:	03b70eb3          	mul	t4,a4,s11
   1349c:	03973e33          	mulhu	t3,a4,s9
   134a0:	96f6                	c.add	a3,t4
   134a2:	03970733          	mul	a4,a4,s9
   134a6:	96f2                	c.add	a3,t3
   134a8:	01f69e13          	slli	t3,a3,0x1f
   134ac:	0016de93          	srli	t4,a3,0x1
   134b0:	8305                	c.srli	a4,0x1
   134b2:	00ee0c33          	add	s8,t3,a4
   134b6:	e119                	c.bnez	a0,134bc <_vfprintf_r+0xb8c>
   134b8:	1da0106f          	jal	zero,14692 <_vfprintf_r+0x1d62>
   134bc:	01dc0733          	add	a4,s8,t4
   134c0:	018736b3          	sltu	a3,a4,s8
   134c4:	96ba                	c.add	a3,a4
   134c6:	0396b533          	mulhu	a0,a3,s9
   134ca:	0585                	c.addi	a1,1
   134cc:	fff60793          	addi	a5,a2,-1
   134d0:	00255313          	srli	t1,a0,0x2
   134d4:	9971                	c.andi	a0,-4
   134d6:	951a                	c.add	a0,t1
   134d8:	8e89                	c.sub	a3,a0
   134da:	40dc06b3          	sub	a3,s8,a3
   134de:	00dc3533          	sltu	a0,s8,a3
   134e2:	40ae8533          	sub	a0,t4,a0
   134e6:	0396b333          	mulhu	t1,a3,s9
   134ea:	03950533          	mul	a0,a0,s9
   134ee:	039686b3          	mul	a3,a3,s9
   134f2:	951a                	c.add	a0,t1
   134f4:	057e                	c.slli	a0,0x1f
   134f6:	8285                	c.srli	a3,0x1
   134f8:	96aa                	c.add	a3,a0
   134fa:	00269513          	slli	a0,a3,0x2
   134fe:	96aa                	c.add	a3,a0
   13500:	0686                	c.slli	a3,0x1
   13502:	40dc06b3          	sub	a3,s8,a3
   13506:	03068693          	addi	a3,a3,48
   1350a:	fed60fa3          	sb	a3,-1(a2)
   1350e:	f40816e3          	bne	a6,zero,1345a <_vfprintf_r+0xb2a>
   13512:	8362                	c.mv	t1,s8
   13514:	8576                	c.mv	a0,t4
   13516:	863e                	c.mv	a2,a5
   13518:	bfb1                	c.j	13474 <_vfprintf_r+0xb44>
   1351a:	4742                	c.lwsp	a4,16(sp)
   1351c:	67a1                	c.lui	a5,0x8
   1351e:	83078793          	addi	a5,a5,-2000 # 7830 <exit-0x8884>
   13522:	08f11a23          	sh	a5,148(sp)
   13526:	080109a3          	sb	zero,147(sp)
   1352a:	00470793          	addi	a5,a4,4
   1352e:	4601                	c.li	a2,0
   13530:	4318                	c.lw	a4,0(a4)
   13532:	580aca63          	blt	s5,zero,13ac6 <_vfprintf_r+0x1196>
   13536:	f7fbfe13          	andi	t3,s7,-129
   1353a:	002e6b93          	ori	s7,t3,2
   1353e:	100a9be3          	bne	s5,zero,13e54 <_vfprintf_r+0x1524>
   13542:	100719e3          	bne	a4,zero,13e54 <_vfprintf_r+0x1524>
   13546:	c83e                	c.swsp	a5,16(sp)
   13548:	4309                	c.li	t1,2
   1354a:	07800893          	addi	a7,zero,120
   1354e:	09314e83          	lbu	t4,147(sp)
   13552:	4a81                	c.li	s5,0
   13554:	4c01                	c.li	s8,0
   13556:	4c81                	c.li	s9,0
   13558:	031c                	c.addi4spn	a5,sp,384
   1355a:	c602                	c.swsp	zero,12(sp)
   1355c:	b9fd                	c.j	1325a <_vfprintf_r+0x92a>
   1355e:	020bf793          	andi	a5,s7,32
   13562:	54079463          	bne	a5,zero,13aaa <_vfprintf_r+0x117a>
   13566:	47c2                	c.lwsp	a5,16(sp)
   13568:	010bf713          	andi	a4,s7,16
   1356c:	0791                	c.addi	a5,4
   1356e:	c319                	c.beqz	a4,13574 <_vfprintf_r+0xc44>
   13570:	1bc0106f          	jal	zero,1472c <_vfprintf_r+0x1dfc>
   13574:	4742                	c.lwsp	a4,16(sp)
   13576:	040bf693          	andi	a3,s7,64
   1357a:	4318                	c.lw	a4,0(a4)
   1357c:	120685e3          	beq	a3,zero,13ea6 <_vfprintf_r+0x1576>
   13580:	0742                	c.slli	a4,0x10
   13582:	8341                	c.srli	a4,0x10
   13584:	c83e                	c.swsp	a5,16(sp)
   13586:	86de                	c.mv	a3,s7
   13588:	4601                	c.li	a2,0
   1358a:	bbd1                	c.j	1335e <_vfprintf_r+0xa2e>
   1358c:	020bf793          	andi	a5,s7,32
   13590:	010bee13          	ori	t3,s7,16
   13594:	e78d                	c.bnez	a5,135be <_vfprintf_r+0xc8e>
   13596:	4742                	c.lwsp	a4,16(sp)
   13598:	080109a3          	sb	zero,147(sp)
   1359c:	4e81                	c.li	t4,0
   1359e:	00072c03          	lw	s8,0(a4)
   135a2:	00470793          	addi	a5,a4,4
   135a6:	1c0ac2e3          	blt	s5,zero,13f6a <_vfprintf_r+0x163a>
   135aa:	c83e                	c.swsp	a5,16(sp)
   135ac:	f7fe7b93          	andi	s7,t3,-129
   135b0:	c80c14e3          	bne	s8,zero,13238 <_vfprintf_r+0x908>
   135b4:	c80a92e3          	bne	s5,zero,13238 <_vfprintf_r+0x908>
   135b8:	4301                	c.li	t1,0
   135ba:	bf51                	c.j	1354e <_vfprintf_r+0xc1e>
   135bc:	8e5e                	c.mv	t3,s7
   135be:	47c2                	c.lwsp	a5,16(sp)
   135c0:	080109a3          	sb	zero,147(sp)
   135c4:	079d                	c.addi	a5,7
   135c6:	9be1                	c.andi	a5,-8
   135c8:	00878713          	addi	a4,a5,8
   135cc:	c83a                	c.swsp	a4,16(sp)
   135ce:	0007ac03          	lw	s8,0(a5)
   135d2:	0047ae83          	lw	t4,4(a5)
   135d6:	4e0ac563          	blt	s5,zero,13ac0 <_vfprintf_r+0x1190>
   135da:	f7fe7b93          	andi	s7,t3,-129
   135de:	c40a9be3          	bne	s5,zero,13234 <_vfprintf_r+0x904>
   135e2:	01dc67b3          	or	a5,s8,t4
   135e6:	c40797e3          	bne	a5,zero,13234 <_vfprintf_r+0x904>
   135ea:	4301                	c.li	t1,0
   135ec:	b78d                	c.j	1354e <_vfprintf_r+0xc1e>
   135ee:	000d4883          	lbu	a7,0(s10)
   135f2:	008beb93          	ori	s7,s7,8
   135f6:	c62ff06f          	jal	zero,12a58 <_vfprintf_r+0x128>
   135fa:	4712                	c.lwsp	a4,4(sp)
   135fc:	41870db3          	sub	s11,a4,s8
   13600:	d1b05a63          	bge	zero,s11,12b14 <_vfprintf_r+0x1e4>
   13604:	4ec1                	c.li	t4,16
   13606:	55ea                	c.lwsp	a1,184(sp)
   13608:	6871                	c.lui	a6,0x1c
   1360a:	01bec463          	blt	t4,s11,13612 <_vfprintf_r+0xce2>
   1360e:	1800106f          	jal	zero,1478e <_vfprintf_r+0x1e5e>
   13612:	84ee                	c.mv	s1,s11
   13614:	da3e                	c.swsp	a5,52(sp)
   13616:	8dea                	c.mv	s11,s10
   13618:	87da                	c.mv	a5,s6
   1361a:	8d66                	c.mv	s10,s9
   1361c:	429d                	c.li	t0,7
   1361e:	8ce2                	c.mv	s9,s8
   13620:	d846                	c.swsp	a7,48(sp)
   13622:	8c56                	c.mv	s8,s5
   13624:	8b1a                	c.mv	s6,t1
   13626:	f9880a93          	addi	s5,a6,-104 # 1bf98 <zeroes.0>
   1362a:	a021                	c.j	13632 <_vfprintf_r+0xd02>
   1362c:	14c1                	c.addi	s1,-16
   1362e:	029edb63          	bge	t4,s1,13664 <_vfprintf_r+0xd34>
   13632:	0641                	c.addi	a2,16
   13634:	0585                	c.addi	a1,1
   13636:	0157a023          	sw	s5,0(a5)
   1363a:	01d7a223          	sw	t4,4(a5)
   1363e:	df32                	c.swsp	a2,188(sp)
   13640:	dd2e                	c.swsp	a1,184(sp)
   13642:	07a1                	c.addi	a5,8
   13644:	feb2d4e3          	bge	t0,a1,1362c <_vfprintf_r+0xcfc>
   13648:	4582                	c.lwsp	a1,0(sp)
   1364a:	1950                	c.addi4spn	a2,sp,180
   1364c:	854a                	c.mv	a0,s2
   1364e:	482010ef          	jal	ra,14ad0 <__sprint_r>
   13652:	e535                	c.bnez	a0,136be <_vfprintf_r+0xd8e>
   13654:	4ec1                	c.li	t4,16
   13656:	14c1                	c.addi	s1,-16
   13658:	567a                	c.lwsp	a2,188(sp)
   1365a:	55ea                	c.lwsp	a1,184(sp)
   1365c:	87ce                	c.mv	a5,s3
